ARM GAS  C:\Users\ADMINI~1\AppData\Local\Temp\ccjzDKl9.s 			page 1


   1              		.cpu cortex-m0
   2              		.fpu softvfp
   3              		.eabi_attribute 20, 1
   4              		.eabi_attribute 21, 1
   5              		.eabi_attribute 23, 3
   6              		.eabi_attribute 24, 1
   7              		.eabi_attribute 25, 1
   8              		.eabi_attribute 26, 1
   9              		.eabi_attribute 30, 4
  10              		.eabi_attribute 34, 0
  11              		.eabi_attribute 18, 4
  12              		.code	16
  13              		.file	"BackBone.c"
  14              		.text
  15              	.Ltext0:
  16              		.cfi_sections	.debug_frame
  17              		.section	.text.BackBone_SetConfigData,"ax",%progbits
  18              		.align	1
  19              		.global	BackBone_SetConfigData
  20              		.code	16
  21              		.thumb_func
  22              		.type	BackBone_SetConfigData, %function
  23              	BackBone_SetConfigData:
  24              	.LFB37:
  25              		.file 1 ".\\BackBone.c"
   1:.\BackBone.c  **** /* ========================================
   2:.\BackBone.c  ****  *
   3:.\BackBone.c  ****  * Copyright YOUR COMPANY, THE YEAR
   4:.\BackBone.c  ****  * All Rights Reserved
   5:.\BackBone.c  ****  * UNPUBLISHED, LICENSED SOFTWARE.
   6:.\BackBone.c  ****  *
   7:.\BackBone.c  ****  * CONFIDENTIAL AND PROPRIETARY INFORMATION
   8:.\BackBone.c  ****  * WHICH IS THE PROPERTY OF your company.
   9:.\BackBone.c  ****  *
  10:.\BackBone.c  ****  * ========================================
  11:.\BackBone.c  **** */
  12:.\BackBone.c  **** 
  13:.\BackBone.c  **** #include <project.h>
  14:.\BackBone.c  **** #include <BackBone.h>
  15:.\BackBone.c  **** #include <BLEApplications.h>
  16:.\BackBone.c  **** 
  17:.\BackBone.c  **** ACCELEROMETER Accelerometer = {0};
  18:.\BackBone.c  **** GYROSCOPE Gyroscope = {0};
  19:.\BackBone.c  **** CONFIG_DATA ConfigData = {0};
  20:.\BackBone.c  **** PEDOMETER Pedometer = {0};
  21:.\BackBone.c  **** 
  22:.\BackBone.c  **** uint8 BackBoneFlags;
  23:.\BackBone.c  **** 
  24:.\BackBone.c  **** void BackBone_SetConfigData(uint8* SourceBuffer, uint8 Length)
  25:.\BackBone.c  **** {
  26              		.loc 1 25 0
  27              		.cfi_startproc
  28              	.LVL0:
  26:.\BackBone.c  **** 	uint8* pointer = SourceBuffer;
  27:.\BackBone.c  **** 	uint8 i;
  28:.\BackBone.c  **** 	
  29:.\BackBone.c  **** 	for (i=0; i<Length; i++)
ARM GAS  C:\Users\ADMINI~1\AppData\Local\Temp\ccjzDKl9.s 			page 2


  29              		.loc 1 29 0
  30 0000 0023     		mov	r3, #0
  25:.\BackBone.c  **** 	uint8* pointer = SourceBuffer;
  31              		.loc 1 25 0
  32 0002 10B5     		push	{r4, lr}
  33              		.cfi_def_cfa_offset 8
  34              		.cfi_offset 4, -8
  35              		.cfi_offset 14, -4
  36              	.LVL1:
  37              	.L2:
  38              		.loc 1 29 0 discriminator 1
  39 0004 DAB2     		uxtb	r2, r3
  40 0006 8A42     		cmp	r2, r1
  41 0008 04D2     		bcs	.L5
  30:.\BackBone.c  **** 	{
  31:.\BackBone.c  **** 		ConfigData.RawData[i] = *pointer;
  42              		.loc 1 31 0 discriminator 3
  43 000a C45C     		ldrb	r4, [r0, r3]
  44 000c 024A     		ldr	r2, .L6
  45 000e 9C54     		strb	r4, [r3, r2]
  46              	.LVL2:
  47 0010 0133     		add	r3, r3, #1
  48              	.LVL3:
  49 0012 F7E7     		b	.L2
  50              	.LVL4:
  51              	.L5:
  32:.\BackBone.c  **** 		pointer++;
  33:.\BackBone.c  **** 	}
  34:.\BackBone.c  **** }
  52              		.loc 1 34 0
  53              		@ sp needed
  54 0014 10BD     		pop	{r4, pc}
  55              	.L7:
  56 0016 C046     		.align	2
  57              	.L6:
  58 0018 00000000 		.word	.LANCHOR0
  59              		.cfi_endproc
  60              	.LFE37:
  61              		.size	BackBone_SetConfigData, .-BackBone_SetConfigData
  62              		.section	.text.BackBone_GetAccelerometerData,"ax",%progbits
  63              		.align	1
  64              		.global	BackBone_GetAccelerometerData
  65              		.code	16
  66              		.thumb_func
  67              		.type	BackBone_GetAccelerometerData, %function
  68              	BackBone_GetAccelerometerData:
  69              	.LFB38:
  35:.\BackBone.c  **** 
  36:.\BackBone.c  **** void BackBone_GetAccelerometerData(uint8* DestinationBuffer, uint8 Length)
  37:.\BackBone.c  **** {
  70              		.loc 1 37 0
  71              		.cfi_startproc
  72              	.LVL5:
  38:.\BackBone.c  **** 	uint8* pointer = DestinationBuffer;
  39:.\BackBone.c  **** 	uint8 i;
  40:.\BackBone.c  **** 	
  41:.\BackBone.c  **** 	for (i=0; i<Length; i++)
ARM GAS  C:\Users\ADMINI~1\AppData\Local\Temp\ccjzDKl9.s 			page 3


  73              		.loc 1 41 0
  74 0000 0023     		mov	r3, #0
  75              	.LVL6:
  76              	.L9:
  77              		.loc 1 41 0 is_stmt 0 discriminator 1
  78 0002 DAB2     		uxtb	r2, r3
  79 0004 8A42     		cmp	r2, r1
  80 0006 05D2     		bcs	.L11
  42:.\BackBone.c  **** 	{
  43:.\BackBone.c  **** 		*pointer = Accelerometer.RawData[i];
  81              		.loc 1 43 0 is_stmt 1 discriminator 3
  82 0008 034A     		ldr	r2, .L12
  83 000a 1432     		add	r2, r2, #20
  84 000c 9A5C     		ldrb	r2, [r3, r2]
  85 000e C254     		strb	r2, [r0, r3]
  86              	.LVL7:
  87 0010 0133     		add	r3, r3, #1
  88              	.LVL8:
  89 0012 F6E7     		b	.L9
  90              	.LVL9:
  91              	.L11:
  44:.\BackBone.c  **** 		pointer++;
  45:.\BackBone.c  **** 	}
  46:.\BackBone.c  **** }
  92              		.loc 1 46 0
  93              		@ sp needed
  94 0014 7047     		bx	lr
  95              	.L13:
  96 0016 C046     		.align	2
  97              	.L12:
  98 0018 00000000 		.word	.LANCHOR0
  99              		.cfi_endproc
 100              	.LFE38:
 101              		.size	BackBone_GetAccelerometerData, .-BackBone_GetAccelerometerData
 102              		.section	.text.BackBone_GetGyroscopeData,"ax",%progbits
 103              		.align	1
 104              		.global	BackBone_GetGyroscopeData
 105              		.code	16
 106              		.thumb_func
 107              		.type	BackBone_GetGyroscopeData, %function
 108              	BackBone_GetGyroscopeData:
 109              	.LFB39:
  47:.\BackBone.c  **** 
  48:.\BackBone.c  **** void BackBone_GetGyroscopeData(uint8* DestinationBuffer, uint8 Length)
  49:.\BackBone.c  **** {
 110              		.loc 1 49 0
 111              		.cfi_startproc
 112              	.LVL10:
  50:.\BackBone.c  **** 	uint8* pointer = DestinationBuffer;
  51:.\BackBone.c  **** 	uint8 i;
  52:.\BackBone.c  **** 	
  53:.\BackBone.c  **** 	for (i=0; i<Length; i++)
 113              		.loc 1 53 0
 114 0000 0023     		mov	r3, #0
 115              	.LVL11:
 116              	.L15:
 117              		.loc 1 53 0 is_stmt 0 discriminator 1
ARM GAS  C:\Users\ADMINI~1\AppData\Local\Temp\ccjzDKl9.s 			page 4


 118 0002 DAB2     		uxtb	r2, r3
 119 0004 8A42     		cmp	r2, r1
 120 0006 05D2     		bcs	.L17
  54:.\BackBone.c  **** 	{
  55:.\BackBone.c  **** 		*pointer = Gyroscope.RawData[i];
 121              		.loc 1 55 0 is_stmt 1 discriminator 3
 122 0008 034A     		ldr	r2, .L18
 123 000a 2432     		add	r2, r2, #36
 124 000c 9A5C     		ldrb	r2, [r3, r2]
 125 000e C254     		strb	r2, [r0, r3]
 126              	.LVL12:
 127 0010 0133     		add	r3, r3, #1
 128              	.LVL13:
 129 0012 F6E7     		b	.L15
 130              	.LVL14:
 131              	.L17:
  56:.\BackBone.c  **** 		pointer++;
  57:.\BackBone.c  **** 	}
  58:.\BackBone.c  **** }
 132              		.loc 1 58 0
 133              		@ sp needed
 134 0014 7047     		bx	lr
 135              	.L19:
 136 0016 C046     		.align	2
 137              	.L18:
 138 0018 00000000 		.word	.LANCHOR0
 139              		.cfi_endproc
 140              	.LFE39:
 141              		.size	BackBone_GetGyroscopeData, .-BackBone_GetGyroscopeData
 142              		.section	.text.BackBone_SetAccelerometerData,"ax",%progbits
 143              		.align	1
 144              		.global	BackBone_SetAccelerometerData
 145              		.code	16
 146              		.thumb_func
 147              		.type	BackBone_SetAccelerometerData, %function
 148              	BackBone_SetAccelerometerData:
 149              	.LFB40:
  59:.\BackBone.c  **** 
  60:.\BackBone.c  **** void BackBone_SetAccelerometerData(float XAxis, float YAxis, float ZAxis, float RMS)
  61:.\BackBone.c  **** {
 150              		.loc 1 61 0
 151              		.cfi_startproc
 152              	.LVL15:
 153 0000 10B5     		push	{r4, lr}
 154              		.cfi_def_cfa_offset 8
 155              		.cfi_offset 4, -8
 156              		.cfi_offset 14, -4
  62:.\BackBone.c  **** 	Accelerometer.AccelerometerData[0] = XAxis;	
 157              		.loc 1 62 0
 158 0002 054C     		ldr	r4, .L21
  63:.\BackBone.c  **** 	Accelerometer.AccelerometerData[1] = YAxis;	
  64:.\BackBone.c  **** 	Accelerometer.AccelerometerData[2] = ZAxis;	
  65:.\BackBone.c  **** 	Accelerometer.AccelerometerData[3] = RMS;
  66:.\BackBone.c  **** 	
  67:.\BackBone.c  **** 	BackBoneFlags |= ACCEL_DATA_NEW;
  68:.\BackBone.c  **** }
 159              		.loc 1 68 0
ARM GAS  C:\Users\ADMINI~1\AppData\Local\Temp\ccjzDKl9.s 			page 5


 160              		@ sp needed
  63:.\BackBone.c  **** 	Accelerometer.AccelerometerData[1] = YAxis;	
 161              		.loc 1 63 0
 162 0004 A161     		str	r1, [r4, #24]
  67:.\BackBone.c  **** }
 163              		.loc 1 67 0
 164 0006 0121     		mov	r1, #1
 165              	.LVL16:
  64:.\BackBone.c  **** 	Accelerometer.AccelerometerData[3] = RMS;
 166              		.loc 1 64 0
 167 0008 E261     		str	r2, [r4, #28]
  67:.\BackBone.c  **** }
 168              		.loc 1 67 0
 169 000a 044A     		ldr	r2, .L21+4
 170              	.LVL17:
  65:.\BackBone.c  **** 	
 171              		.loc 1 65 0
 172 000c 2362     		str	r3, [r4, #32]
  67:.\BackBone.c  **** }
 173              		.loc 1 67 0
 174 000e 1378     		ldrb	r3, [r2]
 175              	.LVL18:
  62:.\BackBone.c  **** 	Accelerometer.AccelerometerData[1] = YAxis;	
 176              		.loc 1 62 0
 177 0010 6061     		str	r0, [r4, #20]
  67:.\BackBone.c  **** }
 178              		.loc 1 67 0
 179 0012 0B43     		orr	r3, r1
 180 0014 1370     		strb	r3, [r2]
 181              	.LVL19:
 182              		.loc 1 68 0
 183 0016 10BD     		pop	{r4, pc}
 184              	.L22:
 185              		.align	2
 186              	.L21:
 187 0018 00000000 		.word	.LANCHOR0
 188 001c 00000000 		.word	BackBoneFlags
 189              		.cfi_endproc
 190              	.LFE40:
 191              		.size	BackBone_SetAccelerometerData, .-BackBone_SetAccelerometerData
 192              		.section	.text.BackBone_SetGyroscopeData,"ax",%progbits
 193              		.align	1
 194              		.global	BackBone_SetGyroscopeData
 195              		.code	16
 196              		.thumb_func
 197              		.type	BackBone_SetGyroscopeData, %function
 198              	BackBone_SetGyroscopeData:
 199              	.LFB41:
  69:.\BackBone.c  **** 
  70:.\BackBone.c  **** void BackBone_SetGyroscopeData(float XAxis, float YAxis, float ZAxis)
  71:.\BackBone.c  **** {
 200              		.loc 1 71 0
 201              		.cfi_startproc
 202              	.LVL20:
  72:.\BackBone.c  **** 	Gyroscope.GyroscopeData[0] = XAxis;
 203              		.loc 1 72 0
 204 0000 044B     		ldr	r3, .L24
ARM GAS  C:\Users\ADMINI~1\AppData\Local\Temp\ccjzDKl9.s 			page 6


  73:.\BackBone.c  **** 	Gyroscope.GyroscopeData[1] = YAxis;
  74:.\BackBone.c  **** 	Gyroscope.GyroscopeData[2] = ZAxis;
  75:.\BackBone.c  **** 	
  76:.\BackBone.c  **** 	BackBoneFlags |= GYRO_DATA_NEW;
  77:.\BackBone.c  **** }
 205              		.loc 1 77 0
 206              		@ sp needed
  73:.\BackBone.c  **** 	Gyroscope.GyroscopeData[1] = YAxis;
 207              		.loc 1 73 0
 208 0002 9962     		str	r1, [r3, #40]
  76:.\BackBone.c  **** }
 209              		.loc 1 76 0
 210 0004 0221     		mov	r1, #2
 211              	.LVL21:
  74:.\BackBone.c  **** 	
 212              		.loc 1 74 0
 213 0006 DA62     		str	r2, [r3, #44]
  76:.\BackBone.c  **** }
 214              		.loc 1 76 0
 215 0008 034A     		ldr	r2, .L24+4
 216              	.LVL22:
  72:.\BackBone.c  **** 	Gyroscope.GyroscopeData[1] = YAxis;
 217              		.loc 1 72 0
 218 000a 5862     		str	r0, [r3, #36]
  76:.\BackBone.c  **** }
 219              		.loc 1 76 0
 220 000c 1378     		ldrb	r3, [r2]
 221              	.LVL23:
 222 000e 0B43     		orr	r3, r1
 223 0010 1370     		strb	r3, [r2]
 224              		.loc 1 77 0
 225 0012 7047     		bx	lr
 226              	.L25:
 227              		.align	2
 228              	.L24:
 229 0014 00000000 		.word	.LANCHOR0
 230 0018 00000000 		.word	BackBoneFlags
 231              		.cfi_endproc
 232              	.LFE41:
 233              		.size	BackBone_SetGyroscopeData, .-BackBone_SetGyroscopeData
 234              		.section	.text.BackBone_GetStepCount,"ax",%progbits
 235              		.align	1
 236              		.global	BackBone_GetStepCount
 237              		.code	16
 238              		.thumb_func
 239              		.type	BackBone_GetStepCount, %function
 240              	BackBone_GetStepCount:
 241              	.LFB42:
  78:.\BackBone.c  **** 
  79:.\BackBone.c  **** uint32 BackBone_GetStepCount(void)
  80:.\BackBone.c  **** {
 242              		.loc 1 80 0
 243              		.cfi_startproc
  81:.\BackBone.c  **** 	return Pedometer.StepCount;
 244              		.loc 1 81 0
 245 0000 014B     		ldr	r3, .L27
  82:.\BackBone.c  **** }	
ARM GAS  C:\Users\ADMINI~1\AppData\Local\Temp\ccjzDKl9.s 			page 7


 246              		.loc 1 82 0
 247              		@ sp needed
  81:.\BackBone.c  **** 	return Pedometer.StepCount;
 248              		.loc 1 81 0
 249 0002 186B     		ldr	r0, [r3, #48]
 250              		.loc 1 82 0
 251 0004 7047     		bx	lr
 252              	.L28:
 253 0006 C046     		.align	2
 254              	.L27:
 255 0008 00000000 		.word	.LANCHOR0
 256              		.cfi_endproc
 257              	.LFE42:
 258              		.size	BackBone_GetStepCount, .-BackBone_GetStepCount
 259              		.section	.text.BackBone_SetStepCount,"ax",%progbits
 260              		.align	1
 261              		.global	BackBone_SetStepCount
 262              		.code	16
 263              		.thumb_func
 264              		.type	BackBone_SetStepCount, %function
 265              	BackBone_SetStepCount:
 266              	.LFB43:
  83:.\BackBone.c  **** 
  84:.\BackBone.c  **** void BackBone_SetStepCount(uint32 Count)
  85:.\BackBone.c  **** {
 267              		.loc 1 85 0
 268              		.cfi_startproc
 269              	.LVL24:
  86:.\BackBone.c  **** 	Pedometer.StepCount = Count;
  87:.\BackBone.c  **** 	BackBoneFlags |= PEDO_DATA_NEW;
 270              		.loc 1 87 0
 271 0000 0421     		mov	r1, #4
  86:.\BackBone.c  **** 	Pedometer.StepCount = Count;
 272              		.loc 1 86 0
 273 0002 034B     		ldr	r3, .L30
 274              		.loc 1 87 0
 275 0004 034A     		ldr	r2, .L30+4
  86:.\BackBone.c  **** 	Pedometer.StepCount = Count;
 276              		.loc 1 86 0
 277 0006 1863     		str	r0, [r3, #48]
 278              		.loc 1 87 0
 279 0008 1378     		ldrb	r3, [r2]
  88:.\BackBone.c  **** }
 280              		.loc 1 88 0
 281              		@ sp needed
  87:.\BackBone.c  **** }
 282              		.loc 1 87 0
 283 000a 0B43     		orr	r3, r1
 284 000c 1370     		strb	r3, [r2]
 285              		.loc 1 88 0
 286 000e 7047     		bx	lr
 287              	.L31:
 288              		.align	2
 289              	.L30:
 290 0010 00000000 		.word	.LANCHOR0
 291 0014 00000000 		.word	BackBoneFlags
 292              		.cfi_endproc
ARM GAS  C:\Users\ADMINI~1\AppData\Local\Temp\ccjzDKl9.s 			page 8


 293              	.LFE43:
 294              		.size	BackBone_SetStepCount, .-BackBone_SetStepCount
 295              		.section	.text.BackBone_Task,"ax",%progbits
 296              		.align	1
 297              		.global	BackBone_Task
 298              		.code	16
 299              		.thumb_func
 300              		.type	BackBone_Task, %function
 301              	BackBone_Task:
 302              	.LFB44:
  89:.\BackBone.c  **** 
  90:.\BackBone.c  **** void BackBone_Task(void)
  91:.\BackBone.c  **** {
 303              		.loc 1 91 0
 304              		.cfi_startproc
 305 0000 08B5     		push	{r3, lr}
 306              		.cfi_def_cfa_offset 8
 307              		.cfi_offset 3, -8
 308              		.cfi_offset 14, -4
  92:.\BackBone.c  **** 	SendAllNotifications();
 309              		.loc 1 92 0
 310 0002 FFF7FEFF 		bl	SendAllNotifications
 311              	.LVL25:
  93:.\BackBone.c  **** }
 312              		.loc 1 93 0
 313              		@ sp needed
 314 0006 08BD     		pop	{r3, pc}
 315              		.cfi_endproc
 316              	.LFE44:
 317              		.size	BackBone_Task, .-BackBone_Task
 318              		.comm	BackBoneFlags,1,1
 319              		.global	Pedometer
 320              		.global	ConfigData
 321              		.global	Gyroscope
 322              		.global	Accelerometer
 323              		.bss
 324              		.align	2
 325              		.set	.LANCHOR0,. + 0
 326              		.type	ConfigData, %object
 327              		.size	ConfigData, 20
 328              	ConfigData:
 329 0000 00000000 		.space	20
 329      00000000 
 329      00000000 
 329      00000000 
 329      00000000 
 330              		.type	Accelerometer, %object
 331              		.size	Accelerometer, 16
 332              	Accelerometer:
 333 0014 00000000 		.space	16
 333      00000000 
 333      00000000 
 333      00000000 
 334              		.type	Gyroscope, %object
 335              		.size	Gyroscope, 12
 336              	Gyroscope:
 337 0024 00000000 		.space	12
ARM GAS  C:\Users\ADMINI~1\AppData\Local\Temp\ccjzDKl9.s 			page 9


 337      00000000 
 337      00000000 
 338              		.type	Pedometer, %object
 339              		.size	Pedometer, 4
 340              	Pedometer:
 341 0030 00000000 		.space	4
 342              		.text
 343              	.Letext0:
 344              		.file 2 "Generated_Source\\PSoC4/cytypes.h"
 345              		.file 3 "./BackBone.h"
 346              		.file 4 "./BLEApplications.h"