ARM GAS  C:\Users\ADMINI~1\AppData\Local\Temp\ccmaOpTc.s 			page 1


   1              		.cpu cortex-m0
   2              		.fpu softvfp
   3              		.eabi_attribute 20, 1
   4              		.eabi_attribute 21, 1
   5              		.eabi_attribute 23, 3
   6              		.eabi_attribute 24, 1
   7              		.eabi_attribute 25, 1
   8              		.eabi_attribute 26, 1
   9              		.eabi_attribute 30, 4
  10              		.eabi_attribute 34, 0
  11              		.eabi_attribute 18, 4
  12              		.code	16
  13              		.file	"bas.c"
  14              		.text
  15              	.Ltext0:
  16              		.cfi_sections	.debug_frame
  17              		.section	.text.BasCallBack,"ax",%progbits
  18              		.align	1
  19              		.global	BasCallBack
  20              		.code	16
  21              		.thumb_func
  22              		.type	BasCallBack, %function
  23              	BasCallBack:
  24              	.LFB37:
  25              		.file 1 ".\\bas.c"
   1:.\bas.c       **** /*******************************************************************************
   2:.\bas.c       **** * File Name: bas.c
   3:.\bas.c       **** *
   4:.\bas.c       **** * Version: 1.0
   5:.\bas.c       **** *
   6:.\bas.c       **** * Description:
   7:.\bas.c       **** *  This file contains BAS callback handler function.
   8:.\bas.c       **** *
   9:.\bas.c       **** * Hardware Dependency:
  10:.\bas.c       **** *  CY8CKIT-042 BLE
  11:.\bas.c       **** * 
  12:.\bas.c       **** ********************************************************************************
  13:.\bas.c       **** * Copyright 2015, Cypress Semiconductor Corporation.  All rights reserved.
  14:.\bas.c       **** * You may use this file only in accordance with the license, terms, conditions,
  15:.\bas.c       **** * disclaimers, and limitations in the end user license agreement accompanying
  16:.\bas.c       **** * the software package with which this file was provided.
  17:.\bas.c       **** *******************************************************************************/
  18:.\bas.c       **** 
  19:.\bas.c       **** #include "common.h"
  20:.\bas.c       **** #include "bas.h"
  21:.\bas.c       **** #include <OTAMandatory.h>
  22:.\bas.c       **** 
  23:.\bas.c       **** uint16 batterySimulationNotify = 0u;
  24:.\bas.c       **** uint16 batteryMeasureNotify = 0u;
  25:.\bas.c       **** 
  26:.\bas.c       **** 
  27:.\bas.c       **** #define VDD					(3100u)
  28:.\bas.c       **** #define ADC_MAX_COUNTS		(2048u)
  29:.\bas.c       **** 
  30:.\bas.c       **** /*******************************************************************************
  31:.\bas.c       **** * Function Name: BasCallBack()
  32:.\bas.c       **** ********************************************************************************
ARM GAS  C:\Users\ADMINI~1\AppData\Local\Temp\ccmaOpTc.s 			page 2


  33:.\bas.c       **** *
  34:.\bas.c       **** * Summary:
  35:.\bas.c       **** *   This is an event callback function to receive service specific events from 
  36:.\bas.c       **** *   Battery Service.
  37:.\bas.c       **** *
  38:.\bas.c       **** * Parameters:
  39:.\bas.c       **** *  event - the event code
  40:.\bas.c       **** *  *eventParam - the event parameters
  41:.\bas.c       **** *
  42:.\bas.c       **** * Return:
  43:.\bas.c       **** *  None.
  44:.\bas.c       **** *
  45:.\bas.c       **** ********************************************************************************/
  46:.\bas.c       **** void BasCallBack(uint32 event, void *eventParam)
  47:.\bas.c       **** {
  26              		.loc 1 47 0
  27              		.cfi_startproc
  28              	.LVL0:
  48:.\bas.c       ****     uint8 locServiceIndex;
  49:.\bas.c       ****     
  50:.\bas.c       ****     locServiceIndex = ((CYBLE_BAS_CHAR_VALUE_T *)eventParam)->serviceIndex;
  51:.\bas.c       ****     DBG_PRINTF("BAS event: %lx, ", event);
  52:.\bas.c       ****     
  53:.\bas.c       ****     switch(event)
  29              		.loc 1 53 0
  30 0000 2422     		mov	r2, #36
  31 0002 FF32     		add	r2, r2, #255
  50:.\bas.c       ****     DBG_PRINTF("BAS event: %lx, ", event);
  32              		.loc 1 50 0
  33 0004 8B78     		ldrb	r3, [r1, #2]
  34              	.LVL1:
  35              		.loc 1 53 0
  36 0006 9042     		cmp	r0, r2
  37 0008 03D0     		beq	.L3
  38 000a 0132     		add	r2, r2, #1
  39 000c 9042     		cmp	r0, r2
  40 000e 06D0     		beq	.L4
  41 0010 09E0     		b	.L1
  42              	.L3:
  54:.\bas.c       ****     {
  55:.\bas.c       ****         case CYBLE_EVT_BASS_NOTIFICATION_ENABLED:
  56:.\bas.c       ****             DBG_PRINTF("CYBLE_EVT_BASS_NOTIFICATION_ENABLED: %x \r\n", locServiceIndex);
  57:.\bas.c       **** //            if(CYBLE_BATTERY_SERVICE_SIMULATE_SERVICE_INDEX == locServiceIndex)
  58:.\bas.c       **** //            {
  59:.\bas.c       **** //                batterySimulationNotify = ENABLED;
  60:.\bas.c       **** //            }
  61:.\bas.c       ****             if(CYBLE_BATTERY_SERVICE_MEASURE_SERVICE_INDEX == locServiceIndex)
  43              		.loc 1 61 0
  44 0012 002B     		cmp	r3, #0
  45 0014 07D1     		bne	.L1
  62:.\bas.c       ****             {
  63:.\bas.c       ****                 batteryMeasureNotify = ENABLED;
  46              		.loc 1 63 0
  47 0016 0122     		mov	r2, #1
  48 0018 034B     		ldr	r3, .L6
  49              	.LVL2:
  50 001a 1A80     		strh	r2, [r3]
ARM GAS  C:\Users\ADMINI~1\AppData\Local\Temp\ccmaOpTc.s 			page 3


  51              	.LVL3:
  52 001c 03E0     		b	.L1
  53              	.LVL4:
  54              	.L4:
  64:.\bas.c       ****             }
  65:.\bas.c       ****             break;
  66:.\bas.c       ****                 
  67:.\bas.c       ****         case CYBLE_EVT_BASS_NOTIFICATION_DISABLED:
  68:.\bas.c       ****             DBG_PRINTF("CYBLE_EVT_BASS_NOTIFICATION_DISABLED: %x \r\n", locServiceIndex);
  69:.\bas.c       **** //            if(CYBLE_BATTERY_SERVICE_SIMULATE_SERVICE_INDEX == locServiceIndex)
  70:.\bas.c       **** //            {
  71:.\bas.c       **** //                batterySimulationNotify = DISABLED;
  72:.\bas.c       **** //            }
  73:.\bas.c       ****             if(CYBLE_BATTERY_SERVICE_MEASURE_SERVICE_INDEX == locServiceIndex)
  55              		.loc 1 73 0
  56 001e 002B     		cmp	r3, #0
  57 0020 01D1     		bne	.L1
  74:.\bas.c       ****             {
  75:.\bas.c       ****                 batteryMeasureNotify = DISABLED;
  58              		.loc 1 75 0
  59 0022 014A     		ldr	r2, .L6
  60 0024 1380     		strh	r3, [r2]
  61              	.LVL5:
  62              	.L1:
  76:.\bas.c       ****             }
  77:.\bas.c       ****             break;
  78:.\bas.c       ****         case CYBLE_EVT_BASC_NOTIFICATION:
  79:.\bas.c       ****             break;
  80:.\bas.c       ****         case CYBLE_EVT_BASC_READ_CHAR_RESPONSE:
  81:.\bas.c       ****             break;
  82:.\bas.c       ****         case CYBLE_EVT_BASC_READ_DESCR_RESPONSE:
  83:.\bas.c       ****             break;
  84:.\bas.c       ****         case CYBLE_EVT_BASC_WRITE_DESCR_RESPONSE:
  85:.\bas.c       ****             break;
  86:.\bas.c       **** 		default:
  87:.\bas.c       ****             DBG_PRINTF("Not supported event\r\n");
  88:.\bas.c       **** 			break;
  89:.\bas.c       ****     }
  90:.\bas.c       **** }
  63              		.loc 1 90 0
  64              		@ sp needed
  65 0026 7047     		bx	lr
  66              	.L7:
  67              		.align	2
  68              	.L6:
  69 0028 00000000 		.word	.LANCHOR0
  70              		.cfi_endproc
  71              	.LFE37:
  72              		.size	BasCallBack, .-BasCallBack
  73              		.global	__aeabi_idiv
  74              		.section	.text.MeasureBattery,"ax",%progbits
  75              		.align	1
  76              		.global	MeasureBattery
  77              		.code	16
  78              		.thumb_func
  79              		.type	MeasureBattery, %function
  80              	MeasureBattery:
ARM GAS  C:\Users\ADMINI~1\AppData\Local\Temp\ccmaOpTc.s 			page 4


  81              	.LFB38:
  91:.\bas.c       **** 
  92:.\bas.c       **** 
  93:.\bas.c       **** /*******************************************************************************
  94:.\bas.c       **** * Function Name: MeasureBattery()
  95:.\bas.c       **** ********************************************************************************
  96:.\bas.c       **** *
  97:.\bas.c       **** * Summary:
  98:.\bas.c       **** *   This function measures the battery voltage and send it to the client.
  99:.\bas.c       **** *
 100:.\bas.c       **** *******************************************************************************/
 101:.\bas.c       **** void MeasureBattery(void)
 102:.\bas.c       **** {
  82              		.loc 1 102 0
  83              		.cfi_startproc
  84 0000 30B5     		push	{r4, r5, lr}
  85              		.cfi_def_cfa_offset 12
  86              		.cfi_offset 4, -12
  87              		.cfi_offset 5, -8
  88              		.cfi_offset 14, -4
 103:.\bas.c       **** 	int16 adcResult;
 104:.\bas.c       ****     int32 mvolts;
 105:.\bas.c       **** 	uint32 sarControlReg;
 106:.\bas.c       ****     uint8 batteryLevel;
 107:.\bas.c       ****     CYBLE_API_RESULT_T apiResult;
 108:.\bas.c       ****     
 109:.\bas.c       ****     static uint32 batteryTimer = BATTERY_TIMEOUT;
 110:.\bas.c       ****     
 111:.\bas.c       ****     if(--batteryTimer == 0u) 
  89              		.loc 1 111 0
  90 0002 2D4B     		ldr	r3, .L25
 102:.\bas.c       **** 	int16 adcResult;
  91              		.loc 1 102 0
  92 0004 85B0     		sub	sp, sp, #20
  93              		.cfi_def_cfa_offset 32
  94              		.loc 1 111 0
  95 0006 1A68     		ldr	r2, [r3]
  96 0008 551E     		sub	r5, r2, #1
  97 000a 002D     		cmp	r5, #0
  98 000c 01D0     		beq	.L9
  99 000e 1D60     		str	r5, [r3]
 100 0010 4FE0     		b	.L8
 101              	.L9:
 112:.\bas.c       ****     {
 113:.\bas.c       ****         batteryTimer = BATTERY_TIMEOUT;
 102              		.loc 1 113 0
 103 0012 2A4A     		ldr	r2, .L25+4
 104 0014 0F24     		mov	r4, #15
 105 0016 1A60     		str	r2, [r3]
 114:.\bas.c       ****         
 115:.\bas.c       ****     	ADC_StartConvert();
 106              		.loc 1 115 0
 107 0018 FFF7FEFF 		bl	ADC_StartConvert
 108              	.LVL6:
 116:.\bas.c       ****     	ADC_IsEndConversion(ADC_WAIT_FOR_RESULT);
 109              		.loc 1 116 0
 110 001c 0220     		mov	r0, #2
ARM GAS  C:\Users\ADMINI~1\AppData\Local\Temp\ccmaOpTc.s 			page 5


 111 001e FFF7FEFF 		bl	ADC_IsEndConversion
 112              	.LVL7:
 117:.\bas.c       **** 
 118:.\bas.c       ****         adcResult = ADC_GetResult16(ADC_BATTERY_CHANNEL);
 113              		.loc 1 118 0
 114 0022 281C     		mov	r0, r5
 115 0024 FFF7FEFF 		bl	ADC_GetResult16
 116              	.LVL8:
 119:.\bas.c       **** 
 120:.\bas.c       **** 		/* Calculate input voltage by using ratio of ADC counts from reference
 121:.\bas.c       ****     	*  and ADC Full Scale counts. 
 122:.\bas.c       ****         */
 123:.\bas.c       ****     	mvolts = (adcResult * VDD * 2) / ADC_MAX_COUNTS;
 117              		.loc 1 123 0
 118 0028 254B     		ldr	r3, .L25+8
 119 002a 6C44     		add	r4, r4, sp
 120 002c 5843     		mul	r0, r3
 121              	.LVL9:
 124:.\bas.c       ****         
 125:.\bas.c       ****         /* Convert battery level voltage to percentage using linear approximation
 126:.\bas.c       ****         *  divided into two sections according to typical performance of 
 127:.\bas.c       ****         *  CR2033 battery specification:
 128:.\bas.c       ****         *  3V - 100%
 129:.\bas.c       ****         *  2.8V - 29%
 130:.\bas.c       ****         *  2.0V - 0%
 131:.\bas.c       ****         */
 132:.\bas.c       ****         if(mvolts < MEASURE_BATTERY_MIN)
 122              		.loc 1 132 0
 123 002e 254B     		ldr	r3, .L25+12
 123:.\bas.c       ****         
 124              		.loc 1 123 0
 125 0030 C00A     		lsr	r0, r0, #11
 126              	.LVL10:
 127              		.loc 1 132 0
 128 0032 9842     		cmp	r0, r3
 129 0034 01D8     		bhi	.L11
 133:.\bas.c       ****         {
 134:.\bas.c       ****             batteryLevel = 0;
 130              		.loc 1 134 0
 131 0036 2570     		strb	r5, [r4]
 132 0038 1BE0     		b	.L12
 133              	.L11:
 135:.\bas.c       ****         }
 136:.\bas.c       ****         else if(mvolts < MEASURE_BATTERY_MID)
 134              		.loc 1 136 0
 135 003a 234B     		ldr	r3, .L25+16
 136 003c 9842     		cmp	r0, r3
 137 003e 08D8     		bhi	.L13
 137:.\bas.c       ****         {
 138:.\bas.c       ****             batteryLevel = (mvolts - MEASURE_BATTERY_MIN) * MEASURE_BATTERY_MID_PERCENT / 
 138              		.loc 1 138 0
 139 0040 224B     		ldr	r3, .L25+20
 140 0042 FA21     		mov	r1, #250
 141 0044 C018     		add	r0, r0, r3
 142              	.LVL11:
 143 0046 2823     		mov	r3, #40
 144 0048 4900     		lsl	r1, r1, #1
ARM GAS  C:\Users\ADMINI~1\AppData\Local\Temp\ccmaOpTc.s 			page 6


 145 004a 5843     		mul	r0, r3
 146              	.LVL12:
 147 004c FFF7FEFF 		bl	__aeabi_idiv
 148              	.LVL13:
 149 0050 0BE0     		b	.L23
 150              	.LVL14:
 151              	.L13:
 139:.\bas.c       ****                            (MEASURE_BATTERY_MID - MEASURE_BATTERY_MIN); 
 140:.\bas.c       ****         }
 141:.\bas.c       ****         else if(mvolts < MEASURE_BATTERY_MAX)
 152              		.loc 1 141 0
 153 0052 1F4B     		ldr	r3, .L25+24
 154 0054 9842     		cmp	r0, r3
 155 0056 0ADC     		bgt	.L14
 142:.\bas.c       ****         {
 143:.\bas.c       ****             batteryLevel = MEASURE_BATTERY_MID_PERCENT +
 144:.\bas.c       ****                            (mvolts - MEASURE_BATTERY_MID) * (100 - MEASURE_BATTERY_MID_PERCENT) / 
 156              		.loc 1 144 0
 157 0058 1E4B     		ldr	r3, .L25+28
 158 005a AF21     		mov	r1, #175
 159 005c C018     		add	r0, r0, r3
 160              	.LVL15:
 161 005e 3C23     		mov	r3, #60
 162 0060 8900     		lsl	r1, r1, #2
 163 0062 5843     		mul	r0, r3
 164              	.LVL16:
 165 0064 FFF7FEFF 		bl	__aeabi_idiv
 166              	.LVL17:
 143:.\bas.c       ****                            (mvolts - MEASURE_BATTERY_MID) * (100 - MEASURE_BATTERY_MID_PERCENT) / 
 167              		.loc 1 143 0
 168 0068 2830     		add	r0, r0, #40
 169              	.L23:
 170 006a 2070     		strb	r0, [r4]
 171 006c 01E0     		b	.L12
 172              	.LVL18:
 173              	.L14:
 145:.\bas.c       ****                            (MEASURE_BATTERY_MAX - MEASURE_BATTERY_MID); 
 146:.\bas.c       ****         }
 147:.\bas.c       ****         else
 148:.\bas.c       ****         {
 149:.\bas.c       ****             batteryLevel = CYBLE_BAS_MAX_BATTERY_LEVEL_VALUE;
 174              		.loc 1 149 0
 175 006e 6423     		mov	r3, #100
 176 0070 2370     		strb	r3, [r4]
 177              	.LVL19:
 178              	.L12:
 150:.\bas.c       ****         }
 151:.\bas.c       ****         
 152:.\bas.c       ****         if(batteryLevel < LOW_BATTERY_LIMIT)
 179              		.loc 1 152 0
 180 0072 2378     		ldrb	r3, [r4]
 153:.\bas.c       ****         {
 154:.\bas.c       ****             LowPower_LED_Write(LED_ON);
 181              		.loc 1 154 0
 182 0074 0020     		mov	r0, #0
 152:.\bas.c       ****         {
 183              		.loc 1 152 0
ARM GAS  C:\Users\ADMINI~1\AppData\Local\Temp\ccmaOpTc.s 			page 7


 184 0076 092B     		cmp	r3, #9
 185 0078 00D9     		bls	.L24
 155:.\bas.c       ****         }
 156:.\bas.c       ****         else
 157:.\bas.c       ****         {
 158:.\bas.c       ****             LowPower_LED_Write(LED_OFF);
 186              		.loc 1 158 0
 187 007a 0120     		mov	r0, #1
 188              	.L24:
 189 007c FFF7FEFF 		bl	LowPower_LED_Write
 190              	.LVL20:
 159:.\bas.c       ****         }
 160:.\bas.c       ****         
 161:.\bas.c       ****         if(batteryMeasureNotify == ENABLED)
 191              		.loc 1 161 0
 192 0080 154D     		ldr	r5, .L25+32
 193 0082 2B88     		ldrh	r3, [r5]
 194 0084 012B     		cmp	r3, #1
 195 0086 0AD1     		bne	.L17
 162:.\bas.c       ****         {
 163:.\bas.c       ****             /* Update Battery Level characteristic value and send Notification */
 164:.\bas.c       ****             apiResult = CyBle_BassSendNotification(cyBle_connHandle, CYBLE_BATTERY_SERVICE_MEASURE_
 196              		.loc 1 164 0
 197 0088 1449     		ldr	r1, .L25+36
 198 008a 0094     		str	r4, [sp]
 199 008c 0A78     		ldrb	r2, [r1]
 200 008e 4878     		ldrb	r0, [r1, #1]
 201 0090 0021     		mov	r1, #0
 202 0092 0002     		lsl	r0, r0, #8
 203 0094 1043     		orr	r0, r2
 204 0096 0A1C     		mov	r2, r1
 205 0098 FFF7FEFF 		bl	CyBle_BassSendNotification
 206              	.LVL21:
 207 009c 05E0     		b	.L18
 208              	.LVL22:
 209              	.L17:
 165:.\bas.c       ****                 CYBLE_BAS_BATTERY_LEVEL, sizeof(batteryLevel), &batteryLevel);
 166:.\bas.c       ****         }
 167:.\bas.c       ****         else
 168:.\bas.c       ****         {
 169:.\bas.c       ****             /* Update Battery Level characteristic value */
 170:.\bas.c       ****             apiResult = CyBle_BassSetCharacteristicValue(CYBLE_BATTERY_SERVICE_MEASURE_SERVICE_INDE
 210              		.loc 1 170 0
 211 009e 0020     		mov	r0, #0
 212 00a0 0122     		mov	r2, #1
 213 00a2 011C     		mov	r1, r0
 214 00a4 231C     		mov	r3, r4
 215 00a6 FFF7FEFF 		bl	CyBle_BassSetCharacteristicValue
 216              	.LVL23:
 217              	.L18:
 171:.\bas.c       ****                 CYBLE_BAS_BATTERY_LEVEL, sizeof(batteryLevel), &batteryLevel);
 172:.\bas.c       ****         }
 173:.\bas.c       ****             
 174:.\bas.c       ****         if(apiResult != CYBLE_ERROR_OK)
 218              		.loc 1 174 0
 219 00aa 0028     		cmp	r0, #0
 220 00ac 01D0     		beq	.L8
ARM GAS  C:\Users\ADMINI~1\AppData\Local\Temp\ccmaOpTc.s 			page 8


 175:.\bas.c       ****         {
 176:.\bas.c       ****             DBG_PRINTF("API Error: %x \r\n", apiResult);
 177:.\bas.c       ****             batteryMeasureNotify = DISABLED;
 221              		.loc 1 177 0
 222 00ae 0023     		mov	r3, #0
 223 00b0 2B80     		strh	r3, [r5]
 224              	.LVL24:
 225              	.L8:
 178:.\bas.c       ****         }
 179:.\bas.c       ****         else
 180:.\bas.c       ****         {
 181:.\bas.c       ****             DBG_PRINTF("MeasureBatteryLevelUpdate: %d \r\n",batteryLevel);
 182:.\bas.c       ****         }
 183:.\bas.c       ****     }
 184:.\bas.c       **** }
 226              		.loc 1 184 0
 227 00b2 05B0     		add	sp, sp, #20
 228              		@ sp needed
 229 00b4 30BD     		pop	{r4, r5, pc}
 230              	.L26:
 231 00b6 C046     		.align	2
 232              	.L25:
 233 00b8 00000000 		.word	.LANCHOR1
 234 00bc B80B0000 		.word	3000
 235 00c0 38180000 		.word	6200
 236 00c4 B70B0000 		.word	2999
 237 00c8 AB0D0000 		.word	3499
 238 00cc 48F4FFFF 		.word	-3000
 239 00d0 67100000 		.word	4199
 240 00d4 54F2FFFF 		.word	-3500
 241 00d8 00000000 		.word	.LANCHOR0
 242 00dc 00000000 		.word	cyBle_connHandle
 243              		.cfi_endproc
 244              	.LFE38:
 245              		.size	MeasureBattery, .-MeasureBattery
 246              		.global	batteryMeasureNotify
 247              		.global	batterySimulationNotify
 248              		.data
 249              		.align	2
 250              		.set	.LANCHOR1,. + 0
 251              		.type	batteryTimer.8198, %object
 252              		.size	batteryTimer.8198, 4
 253              	batteryTimer.8198:
 254 0000 B80B0000 		.word	3000
 255              		.bss
 256              		.align	1
 257              		.set	.LANCHOR0,. + 0
 258              		.type	batteryMeasureNotify, %object
 259              		.size	batteryMeasureNotify, 2
 260              	batteryMeasureNotify:
 261 0000 0000     		.space	2
 262              		.type	batterySimulationNotify, %object
 263              		.size	batterySimulationNotify, 2
 264              	batterySimulationNotify:
 265 0002 0000     		.space	2
 266              		.text
 267              	.Letext0:
ARM GAS  C:\Users\ADMINI~1\AppData\Local\Temp\ccmaOpTc.s 			page 9


 268              		.file 2 "Generated_Source\\PSoC4/cytypes.h"
 269              		.file 3 "./..\\BLE_OTA_FixedStack_Bootloader01.cydsn\\Generated_Source\\PSoC4\\CyBle_Stack.h"
 270              		.file 4 "./..\\BLE_OTA_FixedStack_Bootloader01.cydsn\\Generated_Source\\PSoC4\\CyBle_StackGatt.h"
 271              		.file 5 "./..\\BLE_OTA_FixedStack_Bootloader01.cydsn\\Generated_Source\\PSoC4\\cyble_bas.h"
 272              		.file 6 "./..\\BLE_OTA_FixedStack_Bootloader01.cydsn\\Generated_Source\\PSoC4\\cyble_dis.h"
 273              		.file 7 "./..\\BLE_OTA_FixedStack_Bootloader01.cydsn\\Generated_Source\\PSoC4\\cyble_eventhandler.
 274              		.file 8 "Generated_Source\\PSoC4/ADC.h"
 275              		.file 9 "Generated_Source\\PSoC4/LowPower_LED.h"