ARM GAS  C:\Users\ADMINI~1\AppData\Local\Temp\ccIYPr3z.s 			page 1


   1              		.cpu cortex-m0
   2              		.fpu softvfp
   3              		.eabi_attribute 20, 1
   4              		.eabi_attribute 21, 1
   5              		.eabi_attribute 23, 3
   6              		.eabi_attribute 24, 1
   7              		.eabi_attribute 25, 1
   8              		.eabi_attribute 26, 1
   9              		.eabi_attribute 30, 4
  10              		.eabi_attribute 34, 0
  11              		.eabi_attribute 18, 4
  12              		.code	16
  13              		.file	"BLE.c"
  14              		.text
  15              	.Ltext0:
  16              		.cfi_sections	.debug_frame
  17              		.section	.text.CyBle_ChangeAdLocalName,"ax",%progbits
  18              		.align	1
  19              		.code	16
  20              		.thumb_func
  21              		.type	CyBle_ChangeAdLocalName, %function
  22              	CyBle_ChangeAdLocalName:
  23              	.LFB9:
  24              		.file 1 ".\\Generated_Source\\PSoC4\\BLE.c"
   1:.\Generated_Source\PSoC4/BLE.c **** /***************************************************************************//**
   2:.\Generated_Source\PSoC4/BLE.c **** * \file CYBLE.c
   3:.\Generated_Source\PSoC4/BLE.c **** * \version 3.10
   4:.\Generated_Source\PSoC4/BLE.c **** * 
   5:.\Generated_Source\PSoC4/BLE.c **** * \brief
   6:.\Generated_Source\PSoC4/BLE.c **** *  This file contains the source code for the Common APIs of the BLE Component.
   7:.\Generated_Source\PSoC4/BLE.c **** * 
   8:.\Generated_Source\PSoC4/BLE.c **** ********************************************************************************
   9:.\Generated_Source\PSoC4/BLE.c **** * \copyright
  10:.\Generated_Source\PSoC4/BLE.c **** * Copyright 2014-2016, Cypress Semiconductor Corporation.  All rights reserved.
  11:.\Generated_Source\PSoC4/BLE.c **** * You may use this file only in accordance with the license, terms, conditions,
  12:.\Generated_Source\PSoC4/BLE.c **** * disclaimers, and limitations in the end user license agreement accompanying
  13:.\Generated_Source\PSoC4/BLE.c **** * the software package with which this file was provided.
  14:.\Generated_Source\PSoC4/BLE.c **** *******************************************************************************/
  15:.\Generated_Source\PSoC4/BLE.c **** 
  16:.\Generated_Source\PSoC4/BLE.c **** #include "BLE_eventHandler.h"
  17:.\Generated_Source\PSoC4/BLE.c **** #include "BLE_HAL_PVT.h"
  18:.\Generated_Source\PSoC4/BLE.c **** #include <stdlib.h>
  19:.\Generated_Source\PSoC4/BLE.c **** 
  20:.\Generated_Source\PSoC4/BLE.c **** 
  21:.\Generated_Source\PSoC4/BLE.c **** /***************************************
  22:.\Generated_Source\PSoC4/BLE.c **** * Function Prototypes
  23:.\Generated_Source\PSoC4/BLE.c **** ***************************************/
  24:.\Generated_Source\PSoC4/BLE.c **** 
  25:.\Generated_Source\PSoC4/BLE.c **** #if(CYBLE_GATT_ROLE_SERVER)
  26:.\Generated_Source\PSoC4/BLE.c ****     #if(CYBLE_GAP_ROLE_PERIPHERAL)
  27:.\Generated_Source\PSoC4/BLE.c ****         static void CyBle_ChangeAdLocalName(const char8 name[], uint8 dest);
  28:.\Generated_Source\PSoC4/BLE.c ****     #endif /* (CYBLE_GAP_ROLE_PERIPHERAL) */
  29:.\Generated_Source\PSoC4/BLE.c **** #endif /* (CYBLE_GATT_ROLE_SERVER) */
  30:.\Generated_Source\PSoC4/BLE.c ****     
  31:.\Generated_Source\PSoC4/BLE.c **** 
  32:.\Generated_Source\PSoC4/BLE.c **** /***************************************
  33:.\Generated_Source\PSoC4/BLE.c **** * Global Variables
ARM GAS  C:\Users\ADMINI~1\AppData\Local\Temp\ccIYPr3z.s 			page 2


  34:.\Generated_Source\PSoC4/BLE.c **** ***************************************/
  35:.\Generated_Source\PSoC4/BLE.c **** 
  36:.\Generated_Source\PSoC4/BLE.c **** /* Indicates whether the BLE has been initialized. The variable is initialized to
  37:.\Generated_Source\PSoC4/BLE.c ****    0 and set to 1 the first time CyBle_Start() is called. This allows the component
  38:.\Generated_Source\PSoC4/BLE.c ****    to restart without reinitialization after the first call to the CyBle_Start() 
  39:.\Generated_Source\PSoC4/BLE.c ****    routine. If reinitialization of the component is required, the variable should 
  40:.\Generated_Source\PSoC4/BLE.c ****    be set to 0 before the CyBle_Start() routine is called. Alternatively, the BLE
  41:.\Generated_Source\PSoC4/BLE.c ****    can be reinitialized by calling the CyBle_Init() function.
  42:.\Generated_Source\PSoC4/BLE.c **** */
  43:.\Generated_Source\PSoC4/BLE.c **** uint8  cyBle_initVar = 0u;
  44:.\Generated_Source\PSoC4/BLE.c **** 
  45:.\Generated_Source\PSoC4/BLE.c **** /* Allocate RAM memory for stack. This buffer could be reused by application when 
  46:.\Generated_Source\PSoC4/BLE.c ****    BLE component is stopped. For export mode buffer is allocated in heap.
  47:.\Generated_Source\PSoC4/BLE.c **** */
  48:.\Generated_Source\PSoC4/BLE.c **** #if(CYBLE_SHARING_MODE_EXPORT)
  49:.\Generated_Source\PSoC4/BLE.c ****     
  50:.\Generated_Source\PSoC4/BLE.c **** uint8 *cyBle_stackMemoryRam = NULL;
  51:.\Generated_Source\PSoC4/BLE.c **** 
  52:.\Generated_Source\PSoC4/BLE.c **** #else
  53:.\Generated_Source\PSoC4/BLE.c **** 
  54:.\Generated_Source\PSoC4/BLE.c **** CYBLE_CYALIGNED_BEGIN CY_NOINIT uint8 cyBle_stackMemoryRam[CYBLE_STACK_RAM_SIZE] CYBLE_CYALIGNED_EN
  55:.\Generated_Source\PSoC4/BLE.c **** 
  56:.\Generated_Source\PSoC4/BLE.c **** #endif  /* CYBLE_SHARING_MODE_EXPORT */
  57:.\Generated_Source\PSoC4/BLE.c **** 
  58:.\Generated_Source\PSoC4/BLE.c **** #if(CYBLE_GAP_ROLE_PERIPHERAL || CYBLE_GAP_ROLE_BROADCASTER)
  59:.\Generated_Source\PSoC4/BLE.c **** 
  60:.\Generated_Source\PSoC4/BLE.c **** CYBLE_GAPP_DISC_PARAM_T cyBle_discoveryParam =
  61:.\Generated_Source\PSoC4/BLE.c **** {
  62:.\Generated_Source\PSoC4/BLE.c ****     0x0120u,    /* uint16 advertising_interval_min */
  63:.\Generated_Source\PSoC4/BLE.c ****     0x0140u,    /* uint16 advertising_interval_max */
  64:.\Generated_Source\PSoC4/BLE.c ****     CYBLE_GAPP_CONNECTABLE_UNDIRECTED_ADV, /* uint8 advertising_type */
  65:.\Generated_Source\PSoC4/BLE.c ****     0x00u,      /* uint8 own_addr_type */
  66:.\Generated_Source\PSoC4/BLE.c ****     0x00u,      /* uint8 direct_addr_type */
  67:.\Generated_Source\PSoC4/BLE.c ****     {0x00u, 0x00u, 0x00u, 0x50u, 0xA0u, 0x00u}, /* uint8* direct_addr */
  68:.\Generated_Source\PSoC4/BLE.c ****     0x07u,      /* uint8 advertising_channel_map */
  69:.\Generated_Source\PSoC4/BLE.c ****     0x00u,      /* uint8 advertising_filter_policy */
  70:.\Generated_Source\PSoC4/BLE.c **** };
  71:.\Generated_Source\PSoC4/BLE.c **** 
  72:.\Generated_Source\PSoC4/BLE.c **** CYBLE_GAPP_DISC_DATA_T cyBle_discoveryData =
  73:.\Generated_Source\PSoC4/BLE.c **** {
  74:.\Generated_Source\PSoC4/BLE.c ****     { 0x02u, 0x01u, 0x06u, 0x09u, 0x09u, 0x42u, 0x61u,
  75:.\Generated_Source\PSoC4/BLE.c ****     0x63u, 0x6Bu, 0x62u, 0x6Fu, 0x6Eu, 0x65u, 0x05u, 0x03u,
  76:.\Generated_Source\PSoC4/BLE.c ****     0x0Au, 0x18u, 0x0Fu, 0x18u, 0x00u, 0x00u, 0x00u, 0x00u,
  77:.\Generated_Source\PSoC4/BLE.c ****     0x00u, 0x00u, 0x00u, 0x00u, 0x00u, 0x00u, 0x00u, 0x00u }, /* uint8 advertising_data[CYBLE_MAX_A
  78:.\Generated_Source\PSoC4/BLE.c ****     0x13u,      /* uint8 adv_data_length */
  79:.\Generated_Source\PSoC4/BLE.c **** };
  80:.\Generated_Source\PSoC4/BLE.c **** 
  81:.\Generated_Source\PSoC4/BLE.c **** CYBLE_GAPP_SCAN_RSP_DATA_T cyBle_scanRspData =
  82:.\Generated_Source\PSoC4/BLE.c **** {
  83:.\Generated_Source\PSoC4/BLE.c ****     { 0x09u, 0x09u, 0x42u, 0x61u, 0x63u, 0x6Bu, 0x62u,
  84:.\Generated_Source\PSoC4/BLE.c ****     0x6Fu, 0x6Eu, 0x65u, 0x03u, 0x02u, 0x0Au, 0x18u, 0x00u,
  85:.\Generated_Source\PSoC4/BLE.c ****     0x00u, 0x00u, 0x00u, 0x00u, 0x00u, 0x00u, 0x00u, 0x00u,
  86:.\Generated_Source\PSoC4/BLE.c ****     0x00u, 0x00u, 0x00u, 0x00u, 0x00u, 0x00u, 0x00u, 0x00u }, /* uint8 scan_rsp_data[CYBLE_MAX_SCAN
  87:.\Generated_Source\PSoC4/BLE.c ****     0x0Eu,      /* uint8 scan_rsp_data_length */
  88:.\Generated_Source\PSoC4/BLE.c **** };
  89:.\Generated_Source\PSoC4/BLE.c **** 
  90:.\Generated_Source\PSoC4/BLE.c **** /* This variable of type CYBLE_GAPP_DISC_MODE_INFO_T is present only when 
ARM GAS  C:\Users\ADMINI~1\AppData\Local\Temp\ccIYPr3z.s 			page 3


  91:.\Generated_Source\PSoC4/BLE.c ****    the BLE component is configured for Peripheral GAP role or Central and 
  92:.\Generated_Source\PSoC4/BLE.c ****    Peripheral GAP role. It contains the Advertisement settings and also the 
  93:.\Generated_Source\PSoC4/BLE.c ****    Advertisement and Scan response data parameters entered in the customizer.
  94:.\Generated_Source\PSoC4/BLE.c ****    This variable can be used by advanced users to change Advertisement settings,
  95:.\Generated_Source\PSoC4/BLE.c ****    Advertisement or Scan response data in runtime. 
  96:.\Generated_Source\PSoC4/BLE.c **** */
  97:.\Generated_Source\PSoC4/BLE.c **** CYBLE_GAPP_DISC_MODE_INFO_T cyBle_discoveryModeInfo =
  98:.\Generated_Source\PSoC4/BLE.c **** {
  99:.\Generated_Source\PSoC4/BLE.c ****     0x02u,      /* uint8 discMode */
 100:.\Generated_Source\PSoC4/BLE.c ****     &cyBle_discoveryParam,
 101:.\Generated_Source\PSoC4/BLE.c ****     &cyBle_discoveryData,
 102:.\Generated_Source\PSoC4/BLE.c ****     &cyBle_scanRspData,
 103:.\Generated_Source\PSoC4/BLE.c ****     0x001Eu,    /* uint16 advTo */
 104:.\Generated_Source\PSoC4/BLE.c **** };
 105:.\Generated_Source\PSoC4/BLE.c **** 
 106:.\Generated_Source\PSoC4/BLE.c **** 
 107:.\Generated_Source\PSoC4/BLE.c **** #endif /* CYBLE_GAP_ROLE_PERIPHERAL || CYBLE_GAP_ROLE_BROADCASTER */
 108:.\Generated_Source\PSoC4/BLE.c **** 
 109:.\Generated_Source\PSoC4/BLE.c **** #if(CYBLE_GAP_ROLE_CENTRAL)
 110:.\Generated_Source\PSoC4/BLE.c ****     
 111:.\Generated_Source\PSoC4/BLE.c **** CYBLE_GAPC_CONN_PARAM_T cyBle_connectionParameters;
 112:.\Generated_Source\PSoC4/BLE.c **** 
 113:.\Generated_Source\PSoC4/BLE.c **** /* Connecting timeout is set to 30 seconds in CyBle_Init function. 
 114:.\Generated_Source\PSoC4/BLE.c ****    Not zero value starts timer in CyBle_GapcConnectDevice API.
 115:.\Generated_Source\PSoC4/BLE.c **** */
 116:.\Generated_Source\PSoC4/BLE.c **** uint16 cyBle_connectingTimeout;
 117:.\Generated_Source\PSoC4/BLE.c ****     
 118:.\Generated_Source\PSoC4/BLE.c **** #endif /* CYBLE_GAP_ROLE_CENTRAL */
 119:.\Generated_Source\PSoC4/BLE.c **** 
 120:.\Generated_Source\PSoC4/BLE.c **** #if(CYBLE_GAP_ROLE_CENTRAL || CYBLE_GAP_ROLE_OBSERVER)
 121:.\Generated_Source\PSoC4/BLE.c ****     
 122:.\Generated_Source\PSoC4/BLE.c **** 
 123:.\Generated_Source\PSoC4/BLE.c ****     
 124:.\Generated_Source\PSoC4/BLE.c **** #endif /* CYBLE_GAP_ROLE_CENTRAL || CYBLE_GAP_ROLE_OBSERVER */
 125:.\Generated_Source\PSoC4/BLE.c **** 
 126:.\Generated_Source\PSoC4/BLE.c **** #if((CYBLE_GAP_ROLE_PERIPHERAL || CYBLE_GAP_ROLE_CENTRAL) && (CYBLE_BONDING_REQUIREMENT == CYBLE_BO
 127:.\Generated_Source\PSoC4/BLE.c **** 
 128:.\Generated_Source\PSoC4/BLE.c **** uint8 cyBle_peerBonding;
 129:.\Generated_Source\PSoC4/BLE.c **** uint8 cyBle_pendingFlashWrite;
 130:.\Generated_Source\PSoC4/BLE.c ****     
 131:.\Generated_Source\PSoC4/BLE.c **** #if(CYBLE_GATT_DB_CCCD_COUNT != 0u)
 132:.\Generated_Source\PSoC4/BLE.c ****     static uint8 cyBle_pendingFlashClearCccdHandle;
 133:.\Generated_Source\PSoC4/BLE.c **** #endif /* CYBLE_GATT_DB_CCCD_COUNT != 0u */
 134:.\Generated_Source\PSoC4/BLE.c ****     
 135:.\Generated_Source\PSoC4/BLE.c **** #endif  /* (CYBLE_BONDING_REQUIREMENT == CYBLE_BONDING_YES) */
 136:.\Generated_Source\PSoC4/BLE.c **** 
 137:.\Generated_Source\PSoC4/BLE.c **** CYBLE_CALLBACK_T CyBle_ApplCallback;
 138:.\Generated_Source\PSoC4/BLE.c **** CYBLE_GAP_BD_ADDR_T cyBle_deviceAddress = {{0x00u, 0x00u, 0x00u, 0x50u, 0xA0u, 0x00u}, 0x00u };
 139:.\Generated_Source\PSoC4/BLE.c **** CYBLE_GAP_BD_ADDR_T * cyBle_sflashDeviceAddress = CYBLE_SFLASH_DEVICE_ADDRESS_PTR;
 140:.\Generated_Source\PSoC4/BLE.c **** 
 141:.\Generated_Source\PSoC4/BLE.c **** 
 142:.\Generated_Source\PSoC4/BLE.c **** /******************************************************************************
 143:.\Generated_Source\PSoC4/BLE.c **** * Function Name: CyBle_Init
 144:.\Generated_Source\PSoC4/BLE.c **** ***************************************************************************//**
 145:.\Generated_Source\PSoC4/BLE.c **** *
 146:.\Generated_Source\PSoC4/BLE.c **** *   Initializes the component with the parameters set in the customizer.
 147:.\Generated_Source\PSoC4/BLE.c **** * 
ARM GAS  C:\Users\ADMINI~1\AppData\Local\Temp\ccIYPr3z.s 			page 4


 148:.\Generated_Source\PSoC4/BLE.c **** *  \return
 149:.\Generated_Source\PSoC4/BLE.c **** *   None
 150:.\Generated_Source\PSoC4/BLE.c **** * 
 151:.\Generated_Source\PSoC4/BLE.c **** ******************************************************************************/
 152:.\Generated_Source\PSoC4/BLE.c **** void CyBle_Init(void)
 153:.\Generated_Source\PSoC4/BLE.c **** {
 154:.\Generated_Source\PSoC4/BLE.c ****     cyBle_eventHandlerFlag = 0u;
 155:.\Generated_Source\PSoC4/BLE.c ****     cyBle_busyStatus = CYBLE_STACK_STATE_FREE;
 156:.\Generated_Source\PSoC4/BLE.c **** 
 157:.\Generated_Source\PSoC4/BLE.c ****     #if(CYBLE_GAP_ROLE_PERIPHERAL || CYBLE_GAP_ROLE_BROADCASTER) 
 158:.\Generated_Source\PSoC4/BLE.c ****         cyBle_advertisingIntervalType = CYBLE_ADVERTISING_FAST; 
 159:.\Generated_Source\PSoC4/BLE.c ****     #endif /* (CYBLE_GAP_ROLE_PERIPHERAL || CYBLE_GAP_ROLE_BROADCASTER)  */
 160:.\Generated_Source\PSoC4/BLE.c ****     #if(CYBLE_GAP_ROLE_CENTRAL || CYBLE_GAP_ROLE_OBSERVER)
 161:.\Generated_Source\PSoC4/BLE.c ****         cyBle_scanningIntervalType = CYBLE_SCANNING_FAST; 
 162:.\Generated_Source\PSoC4/BLE.c ****     #endif /* (CYBLE_GAP_ROLE_CENTRAL || CYBLE_GAP_ROLE_OBSERVER) */
 163:.\Generated_Source\PSoC4/BLE.c ****         
 164:.\Generated_Source\PSoC4/BLE.c ****     /* Init default connection parameters. 
 165:.\Generated_Source\PSoC4/BLE.c ****        Application may change it before initiating a connection */
 166:.\Generated_Source\PSoC4/BLE.c ****     #if(CYBLE_GAP_ROLE_CENTRAL)
 167:.\Generated_Source\PSoC4/BLE.c ****         cyBle_connectionParameters.scanIntv = cyBle_discoveryInfo.scanIntv;
 168:.\Generated_Source\PSoC4/BLE.c ****         cyBle_connectionParameters.scanWindow = cyBle_discoveryInfo.scanWindow;
 169:.\Generated_Source\PSoC4/BLE.c ****         cyBle_connectionParameters.ownAddrType = cyBle_discoveryInfo.ownAddrType;
 170:.\Generated_Source\PSoC4/BLE.c ****         cyBle_connectionParameters.initiatorFilterPolicy = cyBle_discoveryInfo.scanFilterPolicy;
 171:.\Generated_Source\PSoC4/BLE.c ****         cyBle_connectionParameters.connIntvMin = CYBLE_GAPC_CONNECTION_INTERVAL_MIN;
 172:.\Generated_Source\PSoC4/BLE.c ****         cyBle_connectionParameters.connIntvMax = CYBLE_GAPC_CONNECTION_INTERVAL_MAX;
 173:.\Generated_Source\PSoC4/BLE.c ****         cyBle_connectionParameters.connLatency = CYBLE_GAPC_CONNECTION_SLAVE_LATENCY;
 174:.\Generated_Source\PSoC4/BLE.c ****         cyBle_connectionParameters.supervisionTO = CYBLE_GAPC_CONNECTION_TIME_OUT;
 175:.\Generated_Source\PSoC4/BLE.c ****         cyBle_connectionParameters.minCeLength = 0x0000u;
 176:.\Generated_Source\PSoC4/BLE.c ****         cyBle_connectionParameters.maxCeLength = 0xFFFFu;
 177:.\Generated_Source\PSoC4/BLE.c ****         
 178:.\Generated_Source\PSoC4/BLE.c ****         cyBle_connectingTimeout = CYBLE_GAPC_CONNECTING_TIMEOUT;
 179:.\Generated_Source\PSoC4/BLE.c ****     #endif /* CYBLE_GAP_ROLE_CENTRAL */
 180:.\Generated_Source\PSoC4/BLE.c **** 
 181:.\Generated_Source\PSoC4/BLE.c ****     CyBle_ServiceInit();
 182:.\Generated_Source\PSoC4/BLE.c **** 
 183:.\Generated_Source\PSoC4/BLE.c ****     #if((CYBLE_GAP_ROLE_PERIPHERAL || CYBLE_GAP_ROLE_CENTRAL) && (CYBLE_BONDING_REQUIREMENT == CYBL
 184:.\Generated_Source\PSoC4/BLE.c ****         cyBle_pendingFlashWrite = 0u;
 185:.\Generated_Source\PSoC4/BLE.c ****         cyBle_peerBonding = CYBLE_GAP_BONDING_NONE;
 186:.\Generated_Source\PSoC4/BLE.c ****     #endif  /* (CYBLE_BONDING_REQUIREMENT == CYBLE_BONDING_YES) */
 187:.\Generated_Source\PSoC4/BLE.c **** 
 188:.\Generated_Source\PSoC4/BLE.c **** }
 189:.\Generated_Source\PSoC4/BLE.c **** 
 190:.\Generated_Source\PSoC4/BLE.c **** 
 191:.\Generated_Source\PSoC4/BLE.c **** /******************************************************************************
 192:.\Generated_Source\PSoC4/BLE.c **** * Function Name: CyBle_ServiceInit
 193:.\Generated_Source\PSoC4/BLE.c **** ***************************************************************************//**
 194:.\Generated_Source\PSoC4/BLE.c **** * 
 195:.\Generated_Source\PSoC4/BLE.c **** *  Initializes all included services.
 196:.\Generated_Source\PSoC4/BLE.c **** * 
 197:.\Generated_Source\PSoC4/BLE.c **** * \return
 198:.\Generated_Source\PSoC4/BLE.c **** *  None
 199:.\Generated_Source\PSoC4/BLE.c **** * 
 200:.\Generated_Source\PSoC4/BLE.c **** ******************************************************************************/
 201:.\Generated_Source\PSoC4/BLE.c **** void CyBle_ServiceInit(void)
 202:.\Generated_Source\PSoC4/BLE.c **** {
 203:.\Generated_Source\PSoC4/BLE.c ****     #if(CYBLE_GATT_ROLE_CLIENT)
 204:.\Generated_Source\PSoC4/BLE.c ****         /* Check service range before clearing to support partial discovery */
ARM GAS  C:\Users\ADMINI~1\AppData\Local\Temp\ccIYPr3z.s 			page 5


 205:.\Generated_Source\PSoC4/BLE.c ****         if(cyBle_serverInfo[CYBLE_SRVI_GAP].range.startHandle == CYBLE_GATT_INVALID_ATTR_HANDLE_VAL
 206:.\Generated_Source\PSoC4/BLE.c ****         {
 207:.\Generated_Source\PSoC4/BLE.c ****             (void)memset(&cyBle_gapc, 0, sizeof(cyBle_gapc));
 208:.\Generated_Source\PSoC4/BLE.c ****         }
 209:.\Generated_Source\PSoC4/BLE.c ****         if(cyBle_serverInfo[CYBLE_SRVI_GATT].range.startHandle == CYBLE_GATT_INVALID_ATTR_HANDLE_VA
 210:.\Generated_Source\PSoC4/BLE.c ****         {
 211:.\Generated_Source\PSoC4/BLE.c ****             (void)memset(&cyBle_gattc, 0, sizeof(cyBle_gattc));
 212:.\Generated_Source\PSoC4/BLE.c ****         }
 213:.\Generated_Source\PSoC4/BLE.c ****     #endif /* CYBLE_GATT_ROLE_CLIENT */
 214:.\Generated_Source\PSoC4/BLE.c ****     
 215:.\Generated_Source\PSoC4/BLE.c **** 	#ifdef CYBLE_ANCS
 216:.\Generated_Source\PSoC4/BLE.c ****         CyBle_AncsInit();
 217:.\Generated_Source\PSoC4/BLE.c ****     #endif /* CYBLE_ANCS */
 218:.\Generated_Source\PSoC4/BLE.c **** 	
 219:.\Generated_Source\PSoC4/BLE.c ****     #ifdef CYBLE_ANS
 220:.\Generated_Source\PSoC4/BLE.c ****         CyBle_AnsInit();
 221:.\Generated_Source\PSoC4/BLE.c ****     #endif /* CYBLE_ANS */
 222:.\Generated_Source\PSoC4/BLE.c ****     
 223:.\Generated_Source\PSoC4/BLE.c ****     #ifdef CYBLE_BAS
 224:.\Generated_Source\PSoC4/BLE.c ****         CyBle_BasInit();
 225:.\Generated_Source\PSoC4/BLE.c ****     #endif /* CYBLE_BAS */
 226:.\Generated_Source\PSoC4/BLE.c ****     
 227:.\Generated_Source\PSoC4/BLE.c ****     #ifdef CYBLE_BCS
 228:.\Generated_Source\PSoC4/BLE.c ****         CyBle_BcsInit();
 229:.\Generated_Source\PSoC4/BLE.c ****     #endif /* CYBLE_BCS */
 230:.\Generated_Source\PSoC4/BLE.c **** 
 231:.\Generated_Source\PSoC4/BLE.c ****     #ifdef CYBLE_BLS
 232:.\Generated_Source\PSoC4/BLE.c ****         CyBle_BlsInit();
 233:.\Generated_Source\PSoC4/BLE.c ****     #endif /* CYBLE_BLS */
 234:.\Generated_Source\PSoC4/BLE.c ****     
 235:.\Generated_Source\PSoC4/BLE.c ****     #ifdef CYBLE_BMS
 236:.\Generated_Source\PSoC4/BLE.c ****         CyBle_BmsInit();
 237:.\Generated_Source\PSoC4/BLE.c ****     #endif /* CYBLE_BMS */
 238:.\Generated_Source\PSoC4/BLE.c ****     
 239:.\Generated_Source\PSoC4/BLE.c ****     #ifdef CYBLE_CGMS
 240:.\Generated_Source\PSoC4/BLE.c ****         CyBle_CgmsInit();
 241:.\Generated_Source\PSoC4/BLE.c ****     #endif /* CYBLE_CGMS */
 242:.\Generated_Source\PSoC4/BLE.c **** 
 243:.\Generated_Source\PSoC4/BLE.c ****     #ifdef CYBLE_CPS
 244:.\Generated_Source\PSoC4/BLE.c ****         CyBle_CpsInit();
 245:.\Generated_Source\PSoC4/BLE.c ****     #endif /* CYBLE_CPS */
 246:.\Generated_Source\PSoC4/BLE.c **** 
 247:.\Generated_Source\PSoC4/BLE.c ****     #ifdef CYBLE_CSCS
 248:.\Generated_Source\PSoC4/BLE.c ****         CyBle_CscsInit();
 249:.\Generated_Source\PSoC4/BLE.c ****     #endif /* CYBLE_CSCS */
 250:.\Generated_Source\PSoC4/BLE.c ****     
 251:.\Generated_Source\PSoC4/BLE.c ****     #ifdef CYBLE_CTS
 252:.\Generated_Source\PSoC4/BLE.c ****         CyBle_CtsInit();
 253:.\Generated_Source\PSoC4/BLE.c ****     #endif /* CYBLE_CTS */
 254:.\Generated_Source\PSoC4/BLE.c **** 
 255:.\Generated_Source\PSoC4/BLE.c ****     #ifdef CYBLE_CUSTOM
 256:.\Generated_Source\PSoC4/BLE.c ****         CyBle_CustomInit();
 257:.\Generated_Source\PSoC4/BLE.c ****     #endif /* CYBLE_CUSTOM */
 258:.\Generated_Source\PSoC4/BLE.c **** 
 259:.\Generated_Source\PSoC4/BLE.c ****     #ifdef CYBLE_DIS
 260:.\Generated_Source\PSoC4/BLE.c ****         CyBle_DisInit();
 261:.\Generated_Source\PSoC4/BLE.c ****     #endif /* CYBLE_DIS */
ARM GAS  C:\Users\ADMINI~1\AppData\Local\Temp\ccIYPr3z.s 			page 6


 262:.\Generated_Source\PSoC4/BLE.c **** 
 263:.\Generated_Source\PSoC4/BLE.c ****     #ifdef CYBLE_ESS
 264:.\Generated_Source\PSoC4/BLE.c ****         CyBle_EssInit();
 265:.\Generated_Source\PSoC4/BLE.c ****     #endif /* CYBLE_ESS */
 266:.\Generated_Source\PSoC4/BLE.c ****     
 267:.\Generated_Source\PSoC4/BLE.c ****     #ifdef CYBLE_GLS
 268:.\Generated_Source\PSoC4/BLE.c ****         CyBle_GlsInit();
 269:.\Generated_Source\PSoC4/BLE.c ****     #endif /* CYBLE_GLS */
 270:.\Generated_Source\PSoC4/BLE.c ****     
 271:.\Generated_Source\PSoC4/BLE.c ****     #ifdef CYBLE_HIDS
 272:.\Generated_Source\PSoC4/BLE.c ****         CyBle_HidsInit();
 273:.\Generated_Source\PSoC4/BLE.c ****     #endif /* CYBLE_HIDS */
 274:.\Generated_Source\PSoC4/BLE.c **** 
 275:.\Generated_Source\PSoC4/BLE.c ****     #ifdef CYBLE_HPS
 276:.\Generated_Source\PSoC4/BLE.c ****         CyBle_HpsInit();
 277:.\Generated_Source\PSoC4/BLE.c ****     #endif /* CYBLE_HPS */
 278:.\Generated_Source\PSoC4/BLE.c **** 
 279:.\Generated_Source\PSoC4/BLE.c ****     #ifdef CYBLE_HRS
 280:.\Generated_Source\PSoC4/BLE.c ****         CyBle_HrsInit();
 281:.\Generated_Source\PSoC4/BLE.c ****     #endif /* CYBLE_HRS */
 282:.\Generated_Source\PSoC4/BLE.c ****     
 283:.\Generated_Source\PSoC4/BLE.c ****     #ifdef CYBLE_HTS
 284:.\Generated_Source\PSoC4/BLE.c ****         CyBle_HtsInit();
 285:.\Generated_Source\PSoC4/BLE.c ****     #endif /* CYBLE_RSCS */
 286:.\Generated_Source\PSoC4/BLE.c **** 
 287:.\Generated_Source\PSoC4/BLE.c ****     #ifdef CYBLE_IAS
 288:.\Generated_Source\PSoC4/BLE.c ****         CyBle_IasInit();
 289:.\Generated_Source\PSoC4/BLE.c ****     #endif /* CYBLE_IAS */
 290:.\Generated_Source\PSoC4/BLE.c **** 
 291:.\Generated_Source\PSoC4/BLE.c ****     #ifdef CYBLE_IPS
 292:.\Generated_Source\PSoC4/BLE.c ****         CyBle_IpsInit();
 293:.\Generated_Source\PSoC4/BLE.c ****     #endif /* CYBLE_IPS */
 294:.\Generated_Source\PSoC4/BLE.c ****     
 295:.\Generated_Source\PSoC4/BLE.c ****     #ifdef CYBLE_LLS
 296:.\Generated_Source\PSoC4/BLE.c ****         CyBle_LlsInit();
 297:.\Generated_Source\PSoC4/BLE.c ****     #endif /* CYBLE_LLS */
 298:.\Generated_Source\PSoC4/BLE.c **** 
 299:.\Generated_Source\PSoC4/BLE.c ****     #ifdef CYBLE_LNS
 300:.\Generated_Source\PSoC4/BLE.c ****         CyBle_LnsInit();
 301:.\Generated_Source\PSoC4/BLE.c ****     #endif /* CYBLE_LNS */
 302:.\Generated_Source\PSoC4/BLE.c ****     
 303:.\Generated_Source\PSoC4/BLE.c ****     #ifdef CYBLE_NDCS
 304:.\Generated_Source\PSoC4/BLE.c ****         CyBle_NdcsInit();
 305:.\Generated_Source\PSoC4/BLE.c ****     #endif /* CYBLE_NDCS */
 306:.\Generated_Source\PSoC4/BLE.c ****     
 307:.\Generated_Source\PSoC4/BLE.c ****     #ifdef CYBLE_PASS
 308:.\Generated_Source\PSoC4/BLE.c ****         CyBle_PassInit();
 309:.\Generated_Source\PSoC4/BLE.c ****     #endif /* CYBLE_PASS */
 310:.\Generated_Source\PSoC4/BLE.c ****     
 311:.\Generated_Source\PSoC4/BLE.c ****     #ifdef CYBLE_RSCS
 312:.\Generated_Source\PSoC4/BLE.c ****         CyBle_RscsInit();
 313:.\Generated_Source\PSoC4/BLE.c ****     #endif /* CYBLE_RSCS */
 314:.\Generated_Source\PSoC4/BLE.c **** 
 315:.\Generated_Source\PSoC4/BLE.c ****     #ifdef CYBLE_RTUS
 316:.\Generated_Source\PSoC4/BLE.c ****         CyBle_RtusInit();
 317:.\Generated_Source\PSoC4/BLE.c ****     #endif /* CYBLE_RTUS */
 318:.\Generated_Source\PSoC4/BLE.c **** 
ARM GAS  C:\Users\ADMINI~1\AppData\Local\Temp\ccIYPr3z.s 			page 7


 319:.\Generated_Source\PSoC4/BLE.c ****     #ifdef CYBLE_SCPS
 320:.\Generated_Source\PSoC4/BLE.c ****         CyBle_ScpsInit();
 321:.\Generated_Source\PSoC4/BLE.c ****     #endif /* CYBLE_SCPS */
 322:.\Generated_Source\PSoC4/BLE.c ****     
 323:.\Generated_Source\PSoC4/BLE.c ****     #ifdef CYBLE_TPS
 324:.\Generated_Source\PSoC4/BLE.c ****         CyBle_TpsInit();
 325:.\Generated_Source\PSoC4/BLE.c ****     #endif /* CYBLE_TPS */
 326:.\Generated_Source\PSoC4/BLE.c ****     
 327:.\Generated_Source\PSoC4/BLE.c ****     #ifdef CYBLE_UDS
 328:.\Generated_Source\PSoC4/BLE.c ****         CyBle_UdsInit();
 329:.\Generated_Source\PSoC4/BLE.c ****     #endif /* CYBLE_UDS */
 330:.\Generated_Source\PSoC4/BLE.c **** 
 331:.\Generated_Source\PSoC4/BLE.c ****     #ifdef CYBLE_WPTS
 332:.\Generated_Source\PSoC4/BLE.c ****         CyBle_WptsInit();
 333:.\Generated_Source\PSoC4/BLE.c ****     #endif /* CYBLE_WPTS */
 334:.\Generated_Source\PSoC4/BLE.c **** 
 335:.\Generated_Source\PSoC4/BLE.c ****     #ifdef CYBLE_WSS
 336:.\Generated_Source\PSoC4/BLE.c ****         CyBle_WssInit();
 337:.\Generated_Source\PSoC4/BLE.c ****     #endif /* CYBLE_WSS */
 338:.\Generated_Source\PSoC4/BLE.c **** }
 339:.\Generated_Source\PSoC4/BLE.c **** 
 340:.\Generated_Source\PSoC4/BLE.c **** 
 341:.\Generated_Source\PSoC4/BLE.c **** /******************************************************************************
 342:.\Generated_Source\PSoC4/BLE.c **** * Function Name: CyBle_Start
 343:.\Generated_Source\PSoC4/BLE.c **** ***************************************************************************//**
 344:.\Generated_Source\PSoC4/BLE.c **** * 
 345:.\Generated_Source\PSoC4/BLE.c **** *  This function initializes the BLE Stack, which consists of the BLE Stack 
 346:.\Generated_Source\PSoC4/BLE.c **** *  Manager, BLE Controller, and BLE Host modules. It takes care of initializing
 347:.\Generated_Source\PSoC4/BLE.c **** *  the Profile layer, schedulers, Timer and other platform related
 348:.\Generated_Source\PSoC4/BLE.c **** *  resources required for the BLE component. It also registers the callback 
 349:.\Generated_Source\PSoC4/BLE.c **** *  function for BLE events that will be registered in the BLE stack.
 350:.\Generated_Source\PSoC4/BLE.c **** * 
 351:.\Generated_Source\PSoC4/BLE.c **** *  Note that this function does not reset the BLE Stack.
 352:.\Generated_Source\PSoC4/BLE.c **** * 
 353:.\Generated_Source\PSoC4/BLE.c **** *  For HCI-Mode of operation, this function will not initialize the BLE Host 
 354:.\Generated_Source\PSoC4/BLE.c **** *  module.
 355:.\Generated_Source\PSoC4/BLE.c **** * 
 356:.\Generated_Source\PSoC4/BLE.c **** *  Calling this function results in the generation of CYBLE_EVT_STACK_ON event
 357:.\Generated_Source\PSoC4/BLE.c **** *  on successful initialization of the BLE Stack.
 358:.\Generated_Source\PSoC4/BLE.c **** * 
 359:.\Generated_Source\PSoC4/BLE.c **** *  \param callbackFunc: Event callback function to receive events from BLE stack.
 360:.\Generated_Source\PSoC4/BLE.c **** *   CYBLE_CALLBACK_T is a function pointer type.
 361:.\Generated_Source\PSoC4/BLE.c **** * 
 362:.\Generated_Source\PSoC4/BLE.c **** * \return
 363:.\Generated_Source\PSoC4/BLE.c **** *  CYBLE_API_RESULT_T : Return value indicates if the function succeeded or 
 364:.\Generated_Source\PSoC4/BLE.c **** *  failed. Following are the possible error codes.
 365:.\Generated_Source\PSoC4/BLE.c **** * 
 366:.\Generated_Source\PSoC4/BLE.c **** *   <table>
 367:.\Generated_Source\PSoC4/BLE.c **** *  	  <tr>
 368:.\Generated_Source\PSoC4/BLE.c **** *       <th>Error codes</th>
 369:.\Generated_Source\PSoC4/BLE.c **** *       <th>Description</th>
 370:.\Generated_Source\PSoC4/BLE.c **** *     </tr>
 371:.\Generated_Source\PSoC4/BLE.c **** *     <tr>
 372:.\Generated_Source\PSoC4/BLE.c **** *       <td>CYBLE_ERROR_OK</td>
 373:.\Generated_Source\PSoC4/BLE.c **** *       <td>On successful operation.</td>
 374:.\Generated_Source\PSoC4/BLE.c **** *     </tr>
 375:.\Generated_Source\PSoC4/BLE.c **** *     <tr>
ARM GAS  C:\Users\ADMINI~1\AppData\Local\Temp\ccIYPr3z.s 			page 8


 376:.\Generated_Source\PSoC4/BLE.c **** *       <td>CYBLE_ERROR_INVALID_PARAMETER</td>
 377:.\Generated_Source\PSoC4/BLE.c **** *       <td>On passing a NULL pointer to the function when the BLE stack is not built in HCI mode. 
 378:.\Generated_Source\PSoC4/BLE.c **** *			CYBLE_ERROR_INVALID_PARAMETER is never returned in HCI mode.</td>
 379:.\Generated_Source\PSoC4/BLE.c **** *     </tr>
 380:.\Generated_Source\PSoC4/BLE.c **** *     <tr>
 381:.\Generated_Source\PSoC4/BLE.c **** *       <td>CYBLE_ERROR_REPEATED_ATTEMPTS</td>
 382:.\Generated_Source\PSoC4/BLE.c **** *       <td>On invoking this function more than once without calling CyBle_Shutdown() 
 383:.\Generated_Source\PSoC4/BLE.c **** *           function between calls to this function.</td>
 384:.\Generated_Source\PSoC4/BLE.c **** *     </tr>
 385:.\Generated_Source\PSoC4/BLE.c **** *     <tr>
 386:.\Generated_Source\PSoC4/BLE.c **** *       <td>CYBLE_ERROR_MEMORY_ALLOCATION_FAILED</td>
 387:.\Generated_Source\PSoC4/BLE.c **** *       <td>There is insufficient memory available.</td>
 388:.\Generated_Source\PSoC4/BLE.c **** *     </tr>
 389:.\Generated_Source\PSoC4/BLE.c **** *   </table>
 390:.\Generated_Source\PSoC4/BLE.c **** * 
 391:.\Generated_Source\PSoC4/BLE.c **** *  \globalvars
 392:.\Generated_Source\PSoC4/BLE.c **** *   The CyBle_initVar variable is used to indicate initial
 393:.\Generated_Source\PSoC4/BLE.c **** *   configuration of this component. The variable is initialized to zero (0u)
 394:.\Generated_Source\PSoC4/BLE.c **** *   and set to one (1u) the first time CyBle_Start() is called. This
 395:.\Generated_Source\PSoC4/BLE.c **** *   allows for component initialization without re-initialization in all
 396:.\Generated_Source\PSoC4/BLE.c **** *   subsequent calls to the CyBle_Start() routine.
 397:.\Generated_Source\PSoC4/BLE.c **** * 
 398:.\Generated_Source\PSoC4/BLE.c **** ******************************************************************************/
 399:.\Generated_Source\PSoC4/BLE.c **** CYBLE_API_RESULT_T CyBle_Start(CYBLE_CALLBACK_T callbackFunc)
 400:.\Generated_Source\PSoC4/BLE.c **** {
 401:.\Generated_Source\PSoC4/BLE.c ****     CYBLE_API_RESULT_T apiResult = CYBLE_ERROR_OK;
 402:.\Generated_Source\PSoC4/BLE.c ****     
 403:.\Generated_Source\PSoC4/BLE.c ****     #if(CYBLE_MODE_PROFILE)
 404:.\Generated_Source\PSoC4/BLE.c ****     
 405:.\Generated_Source\PSoC4/BLE.c ****     CYBLE_STK_APP_DATA_BUFF_T cyBle_stackDataBuff[CYBLE_STACK_APP_MIN_POOL] = 
 406:.\Generated_Source\PSoC4/BLE.c ****     {
 407:.\Generated_Source\PSoC4/BLE.c ****         {CYBLE_GATT_MTU_PLUS_L2CAP_MEM_EXT, CYBLE_GATT_MTU_BUFF_COUNT + CYBLE_GATT_MAX_ATTR_BUFF_CO
 408:.\Generated_Source\PSoC4/BLE.c ****         {CYBLE_L2CAP_PSM_PLUS_L2CAP_MEM_EXT, CYBLE_L2CAP_PSM_COUNT},
 409:.\Generated_Source\PSoC4/BLE.c ****         {CYBLE_L2CAP_CBFC_PLUS_L2CAP_MEM_EXT, 2u * CYBLE_L2CAP_LOGICAL_CHANNEL_COUNT},
 410:.\Generated_Source\PSoC4/BLE.c ****         {CYBLE_L2CAP_MTU_PLUS_L2CAP_MEM_EXT, CYBLE_L2CAP_LOGICAL_CHANNEL_COUNT},
 411:.\Generated_Source\PSoC4/BLE.c ****         {CYBLE_L2CAP_MPS_PLUS_L2CAP_MEM_EXT, CYBLE_L2CAP_LOGICAL_CHANNEL_COUNT * (CYBLE_L2CAP_MTU_M
 412:.\Generated_Source\PSoC4/BLE.c ****     }; 
 413:.\Generated_Source\PSoC4/BLE.c **** 
 414:.\Generated_Source\PSoC4/BLE.c ****     #endif /* CYBLE_MODE_PROFILE */
 415:.\Generated_Source\PSoC4/BLE.c ****     
 416:.\Generated_Source\PSoC4/BLE.c ****     /* If not initialized then initialize all the required hardware and software */
 417:.\Generated_Source\PSoC4/BLE.c ****     if(cyBle_initVar == 0u)
 418:.\Generated_Source\PSoC4/BLE.c ****     {
 419:.\Generated_Source\PSoC4/BLE.c ****         CyBle_Init();
 420:.\Generated_Source\PSoC4/BLE.c ****         cyBle_initVar = 1u;
 421:.\Generated_Source\PSoC4/BLE.c ****     }
 422:.\Generated_Source\PSoC4/BLE.c ****     
 423:.\Generated_Source\PSoC4/BLE.c ****     if(callbackFunc != NULL)
 424:.\Generated_Source\PSoC4/BLE.c ****     {
 425:.\Generated_Source\PSoC4/BLE.c ****         CyBle_ApplCallback = callbackFunc;
 426:.\Generated_Source\PSoC4/BLE.c ****         
 427:.\Generated_Source\PSoC4/BLE.c ****     #if(CYBLE_SHARING_MODE_EXPORT)
 428:.\Generated_Source\PSoC4/BLE.c ****         if(cyBle_stackMemoryRam == NULL)
 429:.\Generated_Source\PSoC4/BLE.c ****         {
 430:.\Generated_Source\PSoC4/BLE.c ****             cyBle_stackMemoryRam = (uint8 *)malloc(CYBLE_STACK_RAM_SIZE);
 431:.\Generated_Source\PSoC4/BLE.c ****             if(cyBle_stackMemoryRam == NULL)
 432:.\Generated_Source\PSoC4/BLE.c ****             {
ARM GAS  C:\Users\ADMINI~1\AppData\Local\Temp\ccIYPr3z.s 			page 9


 433:.\Generated_Source\PSoC4/BLE.c ****                 apiResult = CYBLE_ERROR_MEMORY_ALLOCATION_FAILED;
 434:.\Generated_Source\PSoC4/BLE.c ****             }
 435:.\Generated_Source\PSoC4/BLE.c ****         }
 436:.\Generated_Source\PSoC4/BLE.c ****     #endif /* CYBLE_SHARING_MODE_EXPORT */
 437:.\Generated_Source\PSoC4/BLE.c ****         if(apiResult == CYBLE_ERROR_OK)
 438:.\Generated_Source\PSoC4/BLE.c ****         {
 439:.\Generated_Source\PSoC4/BLE.c ****             CYBLE_DLE_CONFIG_PARAM_T dleConfigParams;
 440:.\Generated_Source\PSoC4/BLE.c ****             CYBLE_PRIVACY_1_2_CONFIG_PARAM_T privacyConfigParams;
 441:.\Generated_Source\PSoC4/BLE.c ****             CYBLE_STACK_CONFIG_PARAM_T stackConfig;
 442:.\Generated_Source\PSoC4/BLE.c ****             uint16 featureHeapReq;
 443:.\Generated_Source\PSoC4/BLE.c ****             
 444:.\Generated_Source\PSoC4/BLE.c ****             stackConfig.privacyConfig = &privacyConfigParams;
 445:.\Generated_Source\PSoC4/BLE.c ****             stackConfig.dleConfig = &dleConfigParams;
 446:.\Generated_Source\PSoC4/BLE.c ****             
 447:.\Generated_Source\PSoC4/BLE.c ****             /* Configure default BLE 4.1 features and enabled 4.2 features */
 448:.\Generated_Source\PSoC4/BLE.c ****             stackConfig.feature_mask = CYBLE_DLE_FEATURE | CYBLE_LL_PRIVACY_FEATURE | 
 449:.\Generated_Source\PSoC4/BLE.c ****                                        CYBLE_SECURE_CONN_FEATURE;
 450:.\Generated_Source\PSoC4/BLE.c **** 
 451:.\Generated_Source\PSoC4/BLE.c ****             /* Configure DLE */
 452:.\Generated_Source\PSoC4/BLE.c ****             dleConfigParams.dleMaxTxCapability = CYBLE_LL_MAX_TX_PAYLOAD_SIZE;
 453:.\Generated_Source\PSoC4/BLE.c ****             dleConfigParams.dleMaxRxCapability = CYBLE_LL_MAX_RX_PAYLOAD_SIZE;
 454:.\Generated_Source\PSoC4/BLE.c ****             dleConfigParams.dleNumTxBuffer = CYBLE_LL_DEFAULT_NUM_ACL_TX_PACKETS;
 455:.\Generated_Source\PSoC4/BLE.c ****         #if(CYBLE_DLE_FEATURE_ENABLED)
 456:.\Generated_Source\PSoC4/BLE.c ****             CyBle_EnableDleFeature();              /* Enable DLE code in stack */
 457:.\Generated_Source\PSoC4/BLE.c ****         #endif /* CYBLE_DLE_FEATURE_ENABLED */
 458:.\Generated_Source\PSoC4/BLE.c ****         
 459:.\Generated_Source\PSoC4/BLE.c ****             /* Configure LL Privacy */
 460:.\Generated_Source\PSoC4/BLE.c ****             privacyConfigParams.resolvingListSize = CYBLE_MAX_RESOLVABLE_DEVICES;
 461:.\Generated_Source\PSoC4/BLE.c ****         #if(CYBLE_LL_PRIVACY_FEATURE_ENABLED)
 462:.\Generated_Source\PSoC4/BLE.c ****             CyBle_EnablePrivacyFeature();          /* Enable LL Privacy code in stack */
 463:.\Generated_Source\PSoC4/BLE.c ****         #endif /* CYBLE_LL_PRIVACY_FEATURE_ENABLED */
 464:.\Generated_Source\PSoC4/BLE.c **** 
 465:.\Generated_Source\PSoC4/BLE.c ****             apiResult = CyBle_StackSetFeatureConfig(&stackConfig, &featureHeapReq);
 466:.\Generated_Source\PSoC4/BLE.c ****             }
 467:.\Generated_Source\PSoC4/BLE.c ****     
 468:.\Generated_Source\PSoC4/BLE.c ****         if(apiResult == CYBLE_ERROR_OK)
 469:.\Generated_Source\PSoC4/BLE.c ****         {
 470:.\Generated_Source\PSoC4/BLE.c ****             
 471:.\Generated_Source\PSoC4/BLE.c ****         #if(CYBLE_MODE_PROFILE)
 472:.\Generated_Source\PSoC4/BLE.c ****             #if(CYBLE_BONDING_REQUIREMENT == CYBLE_BONDING_YES)
 473:.\Generated_Source\PSoC4/BLE.c ****                 apiResult = CyBle_StackInit(&CyBle_EventHandler, cyBle_stackMemoryRam, 
 474:.\Generated_Source\PSoC4/BLE.c ****                     CYBLE_STACK_RAM_SIZE - CYBLE_GATT_PREPARE_WRITE_BUFF_LEN, cyBle_stackDataBuff, 
 475:.\Generated_Source\PSoC4/BLE.c ****                     CYBLE_STACK_APP_MIN_POOL, cyBle_flashStorage.stackFlashptr, CYBLE_STACK_FLASH_S
 476:.\Generated_Source\PSoC4/BLE.c ****             #else
 477:.\Generated_Source\PSoC4/BLE.c ****                 apiResult = CyBle_StackInit(&CyBle_EventHandler, cyBle_stackMemoryRam, 
 478:.\Generated_Source\PSoC4/BLE.c ****                     CYBLE_STACK_RAM_SIZE - CYBLE_GATT_PREPARE_WRITE_BUFF_LEN, cyBle_stackDataBuff, 
 479:.\Generated_Source\PSoC4/BLE.c ****                     CYBLE_STACK_APP_MIN_POOL, NULL, 0u);
 480:.\Generated_Source\PSoC4/BLE.c ****             #endif  /* CYBLE_BONDING_REQUIREMENT == CYBLE_BONDING_YES */
 481:.\Generated_Source\PSoC4/BLE.c ****         #else
 482:.\Generated_Source\PSoC4/BLE.c ****             apiResult = CyBle_StackInit(&CyBle_EventHandler, cyBle_stackMemoryRam, CYBLE_STACK_RAM_
 483:.\Generated_Source\PSoC4/BLE.c ****                 NULL, 0u, NULL, 0u);
 484:.\Generated_Source\PSoC4/BLE.c ****         #endif /* CYBLE_MODE_PROFILE */
 485:.\Generated_Source\PSoC4/BLE.c **** 
 486:.\Generated_Source\PSoC4/BLE.c ****             if(apiResult == CYBLE_ERROR_OK)
 487:.\Generated_Source\PSoC4/BLE.c ****             {
 488:.\Generated_Source\PSoC4/BLE.c ****                 CyBle_SetState(CYBLE_STATE_INITIALIZING);
 489:.\Generated_Source\PSoC4/BLE.c ****                 
ARM GAS  C:\Users\ADMINI~1\AppData\Local\Temp\ccIYPr3z.s 			page 10


 490:.\Generated_Source\PSoC4/BLE.c ****             #if (CYBLE_GATT_ROLE_CLIENT)
 491:.\Generated_Source\PSoC4/BLE.c ****                 CyBle_SetClientState(CYBLE_CLIENT_STATE_DISCONNECTED);
 492:.\Generated_Source\PSoC4/BLE.c ****             #endif /* CYBLE_GATT_ROLE_CLIENT */
 493:.\Generated_Source\PSoC4/BLE.c ****                 
 494:.\Generated_Source\PSoC4/BLE.c ****             #if(CYBLE_GATT_ROLE_SERVER)
 495:.\Generated_Source\PSoC4/BLE.c ****                 apiResult = CyBle_GattsDbRegister(cyBle_gattDB, CYBLE_GATT_DB_INDEX_COUNT, CYBLE_GA
 496:.\Generated_Source\PSoC4/BLE.c ****             #endif /* CYBLE_GATT_ROLE_SERVER */
 497:.\Generated_Source\PSoC4/BLE.c ****             }
 498:.\Generated_Source\PSoC4/BLE.c ****         }
 499:.\Generated_Source\PSoC4/BLE.c ****     }
 500:.\Generated_Source\PSoC4/BLE.c ****     else
 501:.\Generated_Source\PSoC4/BLE.c ****     {
 502:.\Generated_Source\PSoC4/BLE.c ****         apiResult = CYBLE_ERROR_INVALID_PARAMETER;
 503:.\Generated_Source\PSoC4/BLE.c ****     }
 504:.\Generated_Source\PSoC4/BLE.c **** 
 505:.\Generated_Source\PSoC4/BLE.c ****     return (apiResult);
 506:.\Generated_Source\PSoC4/BLE.c **** }
 507:.\Generated_Source\PSoC4/BLE.c **** 
 508:.\Generated_Source\PSoC4/BLE.c **** 
 509:.\Generated_Source\PSoC4/BLE.c **** /******************************************************************************
 510:.\Generated_Source\PSoC4/BLE.c **** * Function Name: CyBle_Stop
 511:.\Generated_Source\PSoC4/BLE.c **** ***************************************************************************//**
 512:.\Generated_Source\PSoC4/BLE.c **** * 
 513:.\Generated_Source\PSoC4/BLE.c **** *  This function stops any ongoing operation in the BLE Stack and forces the 
 514:.\Generated_Source\PSoC4/BLE.c **** *  BLE Stack to shut down. The only function that can be called after calling
 515:.\Generated_Source\PSoC4/BLE.c **** *  this function is CyBle_Start(). 
 516:.\Generated_Source\PSoC4/BLE.c **** * 
 517:.\Generated_Source\PSoC4/BLE.c **** * \return
 518:.\Generated_Source\PSoC4/BLE.c **** *  None
 519:.\Generated_Source\PSoC4/BLE.c **** * 
 520:.\Generated_Source\PSoC4/BLE.c **** ******************************************************************************/
 521:.\Generated_Source\PSoC4/BLE.c **** void CyBle_Stop(void)
 522:.\Generated_Source\PSoC4/BLE.c **** {
 523:.\Generated_Source\PSoC4/BLE.c ****     CyBle_Shutdown();                         /* Stop all ongoing activities */
 524:.\Generated_Source\PSoC4/BLE.c ****     CyBle_SetState(CYBLE_STATE_STOPPED);
 525:.\Generated_Source\PSoC4/BLE.c ****     #if(CYBLE_SHARING_MODE_EXPORT)
 526:.\Generated_Source\PSoC4/BLE.c ****         if(cyBle_stackMemoryRam != NULL)
 527:.\Generated_Source\PSoC4/BLE.c ****         {
 528:.\Generated_Source\PSoC4/BLE.c ****             free(cyBle_stackMemoryRam);
 529:.\Generated_Source\PSoC4/BLE.c ****         }
 530:.\Generated_Source\PSoC4/BLE.c ****     #endif /* CYBLE_SHARING_MODE_EXPORT */
 531:.\Generated_Source\PSoC4/BLE.c **** }
 532:.\Generated_Source\PSoC4/BLE.c **** 
 533:.\Generated_Source\PSoC4/BLE.c **** 
 534:.\Generated_Source\PSoC4/BLE.c **** #if((CYBLE_GAP_ROLE_PERIPHERAL || CYBLE_GAP_ROLE_CENTRAL) && (CYBLE_BONDING_REQUIREMENT == CYBLE_BO
 535:.\Generated_Source\PSoC4/BLE.c **** 
 536:.\Generated_Source\PSoC4/BLE.c ****     
 537:.\Generated_Source\PSoC4/BLE.c **** /******************************************************************************
 538:.\Generated_Source\PSoC4/BLE.c **** * Function Name: CyBle_StoreBondingData
 539:.\Generated_Source\PSoC4/BLE.c **** ***************************************************************************//**
 540:.\Generated_Source\PSoC4/BLE.c **** * 
 541:.\Generated_Source\PSoC4/BLE.c **** *  This function writes the new bonding data from RAM to the dedicated Flash 
 542:.\Generated_Source\PSoC4/BLE.c **** *  location as defined by the component. It performs data comparing between RAM
 543:.\Generated_Source\PSoC4/BLE.c **** *  and Flash before writing to Flash. If there is no change between RAM and Flash
 544:.\Generated_Source\PSoC4/BLE.c **** *  data, then no write is performed. It writes only one flash row in one call.
 545:.\Generated_Source\PSoC4/BLE.c **** *  Application should keep calling this function till API return CYBLE_ERROR_OK. 
 546:.\Generated_Source\PSoC4/BLE.c **** *  This function is available only when Bonding requirement is selected in
ARM GAS  C:\Users\ADMINI~1\AppData\Local\Temp\ccIYPr3z.s 			page 11


 547:.\Generated_Source\PSoC4/BLE.c **** *  Security settings.    
 548:.\Generated_Source\PSoC4/BLE.c **** * 
 549:.\Generated_Source\PSoC4/BLE.c **** *  \param isForceWrite:  If value is set to 0, then stack will check if flash write 
 550:.\Generated_Source\PSoC4/BLE.c **** *                 is permissible. 
 551:.\Generated_Source\PSoC4/BLE.c **** *  
 552:.\Generated_Source\PSoC4/BLE.c **** * \return
 553:.\Generated_Source\PSoC4/BLE.c **** *  Return value is of type CYBLE_API_RESULT_T.
 554:.\Generated_Source\PSoC4/BLE.c **** *
 555:.\Generated_Source\PSoC4/BLE.c **** *   Errors codes                         | Description
 556:.\Generated_Source\PSoC4/BLE.c **** *   ----------------------------------   | ------------------------------------
 557:.\Generated_Source\PSoC4/BLE.c **** *   CYBLE_ERROR_OK                       | On successful operation
 558:.\Generated_Source\PSoC4/BLE.c **** *   CYBLE_ERROR_FLASH_WRITE_NOT_PERMITED | Flash Write is not complete
 559:.\Generated_Source\PSoC4/BLE.c **** *    
 560:.\Generated_Source\PSoC4/BLE.c **** *  \sideeffect
 561:.\Generated_Source\PSoC4/BLE.c **** *   For BLE devices with 128K of Flash memory this API will automatically 
 562:.\Generated_Source\PSoC4/BLE.c **** *   modify the clock settings for the device.
 563:.\Generated_Source\PSoC4/BLE.c **** *   Writing to flash requires changes to be done to the IMO (set to 48 MHz)
 564:.\Generated_Source\PSoC4/BLE.c **** *   and HFCLK (source set to IMO) settings. The configuration is restored before
 565:.\Generated_Source\PSoC4/BLE.c **** *   returning. This will impact the operation of most of the hardware in the
 566:.\Generated_Source\PSoC4/BLE.c **** *   device.
 567:.\Generated_Source\PSoC4/BLE.c **** * 
 568:.\Generated_Source\PSoC4/BLE.c **** *  \globalvars
 569:.\Generated_Source\PSoC4/BLE.c **** *   The cyBle_pendingFlashWrite variable is used to detect status
 570:.\Generated_Source\PSoC4/BLE.c **** *   of pending write to flash operation for stack data and CCCD.
 571:.\Generated_Source\PSoC4/BLE.c **** *   This API automatically clears pending bits after write operation complete.
 572:.\Generated_Source\PSoC4/BLE.c **** *     
 573:.\Generated_Source\PSoC4/BLE.c **** ******************************************************************************/
 574:.\Generated_Source\PSoC4/BLE.c **** CYBLE_API_RESULT_T CyBle_StoreBondingData(uint8 isForceWrite)
 575:.\Generated_Source\PSoC4/BLE.c **** {
 576:.\Generated_Source\PSoC4/BLE.c ****     CYBLE_API_RESULT_T apiResult = CYBLE_ERROR_OK;
 577:.\Generated_Source\PSoC4/BLE.c ****     
 578:.\Generated_Source\PSoC4/BLE.c ****     /* Store Stack data */
 579:.\Generated_Source\PSoC4/BLE.c ****     if((cyBle_pendingFlashWrite & CYBLE_PENDING_STACK_FLASH_WRITE_BIT) != 0u)
 580:.\Generated_Source\PSoC4/BLE.c ****     {
 581:.\Generated_Source\PSoC4/BLE.c ****         apiResult = CyBle_StoreStackData(isForceWrite);
 582:.\Generated_Source\PSoC4/BLE.c ****         if(apiResult == CYBLE_ERROR_OK)
 583:.\Generated_Source\PSoC4/BLE.c ****         {
 584:.\Generated_Source\PSoC4/BLE.c ****             cyBle_pendingFlashWrite &= (uint8)~CYBLE_PENDING_STACK_FLASH_WRITE_BIT;
 585:.\Generated_Source\PSoC4/BLE.c ****             /* Change apiResult if there are more pending data to store */
 586:.\Generated_Source\PSoC4/BLE.c ****             if((cyBle_pendingFlashWrite & CYBLE_PENDING_CCCD_FLASH_WRITE_BIT) != 0u)
 587:.\Generated_Source\PSoC4/BLE.c ****             {
 588:.\Generated_Source\PSoC4/BLE.c ****                 apiResult = CYBLE_ERROR_FLASH_WRITE_NOT_PERMITED;
 589:.\Generated_Source\PSoC4/BLE.c ****             }
 590:.\Generated_Source\PSoC4/BLE.c ****         }
 591:.\Generated_Source\PSoC4/BLE.c ****     }
 592:.\Generated_Source\PSoC4/BLE.c **** #if(CYBLE_GATT_DB_CCCD_COUNT != 0u)
 593:.\Generated_Source\PSoC4/BLE.c ****     /* Store CCCD values */
 594:.\Generated_Source\PSoC4/BLE.c ****     if( ((apiResult == CYBLE_ERROR_OK) || (isForceWrite != 0u)) && 
 595:.\Generated_Source\PSoC4/BLE.c ****         ((cyBle_pendingFlashWrite & CYBLE_PENDING_CCCD_FLASH_WRITE_BIT) != 0u) &&
 596:.\Generated_Source\PSoC4/BLE.c ****         (cyBle_connHandle.bdHandle <= CYBLE_GAP_MAX_BONDED_DEVICE))
 597:.\Generated_Source\PSoC4/BLE.c ****     {
 598:.\Generated_Source\PSoC4/BLE.c ****         apiResult = CyBle_StoreAppData(cyBle_attValuesCCCD, cyBle_flashStorage.attValuesCCCDFlashMe
 599:.\Generated_Source\PSoC4/BLE.c ****                         cyBle_connHandle.bdHandle], CYBLE_GATT_DB_CCCD_COUNT, isForceWrite);
 600:.\Generated_Source\PSoC4/BLE.c ****         if(apiResult == CYBLE_ERROR_OK)
 601:.\Generated_Source\PSoC4/BLE.c ****         {
 602:.\Generated_Source\PSoC4/BLE.c ****             cyBle_pendingFlashWrite &= (uint8)~CYBLE_PENDING_CCCD_FLASH_WRITE_BIT;
 603:.\Generated_Source\PSoC4/BLE.c ****         }
ARM GAS  C:\Users\ADMINI~1\AppData\Local\Temp\ccIYPr3z.s 			page 12


 604:.\Generated_Source\PSoC4/BLE.c ****     }
 605:.\Generated_Source\PSoC4/BLE.c ****     /* Clear requested CCCD values */
 606:.\Generated_Source\PSoC4/BLE.c ****     if( ((apiResult == CYBLE_ERROR_OK) || (isForceWrite != 0u)) && 
 607:.\Generated_Source\PSoC4/BLE.c ****         ((cyBle_pendingFlashWrite & CYBLE_PENDING_CCCD_FLASH_CLEAR_MASK) != 0u) )
 608:.\Generated_Source\PSoC4/BLE.c ****     {
 609:.\Generated_Source\PSoC4/BLE.c ****         if((cyBle_pendingFlashWrite & CYBLE_PENDING_CCCD_FLASH_CLEAR_ALL_BIT) != 0u)
 610:.\Generated_Source\PSoC4/BLE.c ****         {
 611:.\Generated_Source\PSoC4/BLE.c ****             /* Remove cccd values for all bonded devices */
 612:.\Generated_Source\PSoC4/BLE.c ****             uint8 defaultValuesCCCD[CYBLE_GAP_MAX_BONDED_DEVICE + 1u][CYBLE_GATT_DB_CCCD_COUNT];
 613:.\Generated_Source\PSoC4/BLE.c ****             
 614:.\Generated_Source\PSoC4/BLE.c ****             (void)memset(defaultValuesCCCD, 0, sizeof(defaultValuesCCCD));
 615:.\Generated_Source\PSoC4/BLE.c **** 
 616:.\Generated_Source\PSoC4/BLE.c ****             apiResult = CyBle_StoreAppData((uint8 *)defaultValuesCCCD, 
 617:.\Generated_Source\PSoC4/BLE.c ****                 (const uint8 *)cyBle_flashStorage.attValuesCCCDFlashMemory, sizeof(defaultValuesCCC
 618:.\Generated_Source\PSoC4/BLE.c ****             if(apiResult == CYBLE_ERROR_OK)
 619:.\Generated_Source\PSoC4/BLE.c ****             {
 620:.\Generated_Source\PSoC4/BLE.c ****                 cyBle_pendingFlashWrite &= (uint8)~CYBLE_PENDING_CCCD_FLASH_CLEAR_ALL_BIT;
 621:.\Generated_Source\PSoC4/BLE.c ****             }
 622:.\Generated_Source\PSoC4/BLE.c ****         }
 623:.\Generated_Source\PSoC4/BLE.c ****         else /* Remove cccd values for particular device */
 624:.\Generated_Source\PSoC4/BLE.c ****         {
 625:.\Generated_Source\PSoC4/BLE.c ****             uint8 defaultValuesCCCD[CYBLE_GATT_DB_CCCD_COUNT] = {0u};
 626:.\Generated_Source\PSoC4/BLE.c ****             
 627:.\Generated_Source\PSoC4/BLE.c ****             apiResult = CyBle_StoreAppData(defaultValuesCCCD, cyBle_flashStorage.attValuesCCCDFlash
 628:.\Generated_Source\PSoC4/BLE.c ****                                     cyBle_pendingFlashClearCccdHandle], CYBLE_GATT_DB_CCCD_COUNT, i
 629:.\Generated_Source\PSoC4/BLE.c ****             if(apiResult == CYBLE_ERROR_OK)
 630:.\Generated_Source\PSoC4/BLE.c ****             {
 631:.\Generated_Source\PSoC4/BLE.c ****                 cyBle_pendingFlashWrite &= (uint8)~CYBLE_PENDING_CCCD_FLASH_CLEAR_BIT;
 632:.\Generated_Source\PSoC4/BLE.c ****             }
 633:.\Generated_Source\PSoC4/BLE.c ****         }
 634:.\Generated_Source\PSoC4/BLE.c ****     }
 635:.\Generated_Source\PSoC4/BLE.c **** #endif /* CYBLE_GATT_DB_CCCD_COUNT != 0u */
 636:.\Generated_Source\PSoC4/BLE.c ****     return(apiResult);
 637:.\Generated_Source\PSoC4/BLE.c **** }
 638:.\Generated_Source\PSoC4/BLE.c **** 
 639:.\Generated_Source\PSoC4/BLE.c **** 
 640:.\Generated_Source\PSoC4/BLE.c **** /******************************************************************************
 641:.\Generated_Source\PSoC4/BLE.c **** * Function Name: CyBle_GapRemoveBondedDevice
 642:.\Generated_Source\PSoC4/BLE.c **** ***************************************************************************//**
 643:.\Generated_Source\PSoC4/BLE.c **** * 
 644:.\Generated_Source\PSoC4/BLE.c **** *  This function marks the device untrusted. It removes the bonding information
 645:.\Generated_Source\PSoC4/BLE.c **** *  of the device including CCCD values. This function removes device from the
 646:.\Generated_Source\PSoC4/BLE.c **** *  white list also when autopopulate white list with bonded devices option is
 647:.\Generated_Source\PSoC4/BLE.c **** *  enabled.
 648:.\Generated_Source\PSoC4/BLE.c **** * 
 649:.\Generated_Source\PSoC4/BLE.c **** *  This function is available only when Bonding requirement is selected in
 650:.\Generated_Source\PSoC4/BLE.c **** *  Security settings.    
 651:.\Generated_Source\PSoC4/BLE.c **** *
 652:.\Generated_Source\PSoC4/BLE.c **** *  \param bdAddr: Pointer to peer device address, of type CYBLE_GAP_BD_ADDR_T.
 653:.\Generated_Source\PSoC4/BLE.c **** *                 If device address is set to 0, then all devices shall be
 654:.\Generated_Source\PSoC4/BLE.c **** *                 removed from trusted list and white list.
 655:.\Generated_Source\PSoC4/BLE.c **** *
 656:.\Generated_Source\PSoC4/BLE.c **** * \return
 657:.\Generated_Source\PSoC4/BLE.c **** *  CYBLE_API_RESULT_T : Return value indicates if the function succeeded or
 658:.\Generated_Source\PSoC4/BLE.c **** *  failed. Following are the possible error codes.
 659:.\Generated_Source\PSoC4/BLE.c **** *
 660:.\Generated_Source\PSoC4/BLE.c **** *   Errors codes                     | Description
ARM GAS  C:\Users\ADMINI~1\AppData\Local\Temp\ccIYPr3z.s 			page 13


 661:.\Generated_Source\PSoC4/BLE.c **** *   ---------------------------------| ------------------------------------
 662:.\Generated_Source\PSoC4/BLE.c **** *   CYBLE_ERROR_OK                   | On successful operation.
 663:.\Generated_Source\PSoC4/BLE.c **** *   CYBLE_ERROR_INVALID_PARAMETER    | On specifying NULL as input parameter for 'bdAddr'.
 664:.\Generated_Source\PSoC4/BLE.c **** *   CYBLE_ERROR_INVALID_OPERATION    | Whitelist is already in use or there is pending write to fla
 665:.\Generated_Source\PSoC4/BLE.c **** *   CYBLE_ERROR_NO_DEVICE_ENTITY     | Device does not exist in the bond list.
 666:.\Generated_Source\PSoC4/BLE.c **** *
 667:.\Generated_Source\PSoC4/BLE.c **** *  \globalvars
 668:.\Generated_Source\PSoC4/BLE.c **** *   The bdHandle is set in cyBle_pendingFlashWrite variable to indicate that
 669:.\Generated_Source\PSoC4/BLE.c **** *   data should be stored to flash by CyBle_StoreBondingData afterwards. 
 670:.\Generated_Source\PSoC4/BLE.c **** *     
 671:.\Generated_Source\PSoC4/BLE.c **** ******************************************************************************/
 672:.\Generated_Source\PSoC4/BLE.c **** CYBLE_API_RESULT_T CyBle_GapRemoveBondedDevice(CYBLE_GAP_BD_ADDR_T* bdAddr)
 673:.\Generated_Source\PSoC4/BLE.c **** {
 674:.\Generated_Source\PSoC4/BLE.c ****     CYBLE_API_RESULT_T apiResult = CYBLE_ERROR_OK;
 675:.\Generated_Source\PSoC4/BLE.c ****     
 676:.\Generated_Source\PSoC4/BLE.c ****     if(cyBle_pendingFlashWrite == 0u)
 677:.\Generated_Source\PSoC4/BLE.c ****     {
 678:.\Generated_Source\PSoC4/BLE.c ****         
 679:.\Generated_Source\PSoC4/BLE.c ****     #if(CYBLE_GATT_DB_CCCD_COUNT != 0u)
 680:.\Generated_Source\PSoC4/BLE.c ****         /* Request to clear CCCD values which will be done by CyBle_StoreBondingData API */
 681:.\Generated_Source\PSoC4/BLE.c ****         uint8 bDevHandle;
 682:.\Generated_Source\PSoC4/BLE.c ****         CYBLE_GAP_BD_ADDR_T invalidBdAddr = {{0u,0u,0u,0u,0u,0u}, 0u};
 683:.\Generated_Source\PSoC4/BLE.c **** 
 684:.\Generated_Source\PSoC4/BLE.c ****         if(memcmp(((uint8 *) &(bdAddr->bdAddr)), ((uint8 *) &(invalidBdAddr.bdAddr)), CYBLE_GAP_BD_
 685:.\Generated_Source\PSoC4/BLE.c **** 	    {
 686:.\Generated_Source\PSoC4/BLE.c ****             /* Request to remove all bonded devices by cyBle_StoreBondingData API */
 687:.\Generated_Source\PSoC4/BLE.c ****             cyBle_pendingFlashWrite |= CYBLE_PENDING_CCCD_FLASH_CLEAR_ALL_BIT;
 688:.\Generated_Source\PSoC4/BLE.c ****         }
 689:.\Generated_Source\PSoC4/BLE.c ****         else
 690:.\Generated_Source\PSoC4/BLE.c ****         {
 691:.\Generated_Source\PSoC4/BLE.c ****             /* Get the BD handle from Address */
 692:.\Generated_Source\PSoC4/BLE.c ****             apiResult = CyBle_GapGetPeerBdHandle(&bDevHandle, bdAddr);
 693:.\Generated_Source\PSoC4/BLE.c ****             if(apiResult == CYBLE_ERROR_OK)
 694:.\Generated_Source\PSoC4/BLE.c ****             {
 695:.\Generated_Source\PSoC4/BLE.c ****                 /* Store BD handle to clear cccd values by CyBle_StoreBondingData API */
 696:.\Generated_Source\PSoC4/BLE.c ****                 cyBle_pendingFlashWrite |= CYBLE_PENDING_CCCD_FLASH_CLEAR_BIT;
 697:.\Generated_Source\PSoC4/BLE.c ****                 cyBle_pendingFlashClearCccdHandle = bDevHandle;
 698:.\Generated_Source\PSoC4/BLE.c ****             }
 699:.\Generated_Source\PSoC4/BLE.c ****         }
 700:.\Generated_Source\PSoC4/BLE.c ****         if(apiResult == CYBLE_ERROR_OK)
 701:.\Generated_Source\PSoC4/BLE.c ****         {
 702:.\Generated_Source\PSoC4/BLE.c ****             #if(CYBLE_AUTO_POPULATE_WHITELIST != 0u)
 703:.\Generated_Source\PSoC4/BLE.c ****                 apiResult = CyBle_GapRemoveDeviceFromWhiteList(bdAddr);
 704:.\Generated_Source\PSoC4/BLE.c ****             #else
 705:.\Generated_Source\PSoC4/BLE.c ****                 apiResult = CyBle_GapRemDeviceFromBondList(bdAddr);
 706:.\Generated_Source\PSoC4/BLE.c ****             #endif
 707:.\Generated_Source\PSoC4/BLE.c ****         }
 708:.\Generated_Source\PSoC4/BLE.c ****     #endif /* CYBLE_GATT_DB_CCCD_COUNT != 0u */
 709:.\Generated_Source\PSoC4/BLE.c ****     }
 710:.\Generated_Source\PSoC4/BLE.c ****     else
 711:.\Generated_Source\PSoC4/BLE.c ****     {
 712:.\Generated_Source\PSoC4/BLE.c ****         apiResult = CYBLE_ERROR_INVALID_OPERATION;
 713:.\Generated_Source\PSoC4/BLE.c ****     }
 714:.\Generated_Source\PSoC4/BLE.c ****     
 715:.\Generated_Source\PSoC4/BLE.c ****     return(apiResult);
 716:.\Generated_Source\PSoC4/BLE.c **** }
 717:.\Generated_Source\PSoC4/BLE.c **** 
ARM GAS  C:\Users\ADMINI~1\AppData\Local\Temp\ccIYPr3z.s 			page 14


 718:.\Generated_Source\PSoC4/BLE.c **** 
 719:.\Generated_Source\PSoC4/BLE.c **** #endif /* (CYBLE_GAP_ROLE_PERIPHERAL || CYBLE_GAP_ROLE_CENTRAL) && (CYBLE_BONDING_REQUIREMENT == CY
 720:.\Generated_Source\PSoC4/BLE.c **** 
 721:.\Generated_Source\PSoC4/BLE.c **** 
 722:.\Generated_Source\PSoC4/BLE.c **** #if(CYBLE_GAP_ROLE_PERIPHERAL || CYBLE_GAP_ROLE_BROADCASTER)
 723:.\Generated_Source\PSoC4/BLE.c **** 
 724:.\Generated_Source\PSoC4/BLE.c ****     /******************************************************************************
 725:.\Generated_Source\PSoC4/BLE.c ****     *  Function Name: CyBle_GappStartAdvertisement
 726:.\Generated_Source\PSoC4/BLE.c ****     ***************************************************************************//**
 727:.\Generated_Source\PSoC4/BLE.c ****     *     
 728:.\Generated_Source\PSoC4/BLE.c ****     *  This function is used to start the advertisement using the advertisement data 
 729:.\Generated_Source\PSoC4/BLE.c ****     *  set in the component customizer's GUI. After invoking this API, the device 
 730:.\Generated_Source\PSoC4/BLE.c ****     *  will be available for connection by the devices configured for GAP central 
 731:.\Generated_Source\PSoC4/BLE.c ****     *  role. It is only included if the device is configured for GAP Peripheral or 
 732:.\Generated_Source\PSoC4/BLE.c ****     *  GAP Peripheral + Central role.
 733:.\Generated_Source\PSoC4/BLE.c ****     *  
 734:.\Generated_Source\PSoC4/BLE.c ****     *  On start of advertisement, GAP Peripheral receives the
 735:.\Generated_Source\PSoC4/BLE.c ****     *  CYBLE_EVT_GAPP_ADVERTISEMENT_START_STOP event. The following events are 
 736:.\Generated_Source\PSoC4/BLE.c ****     *  possible on invoking this function:
 737:.\Generated_Source\PSoC4/BLE.c ****     *  
 738:.\Generated_Source\PSoC4/BLE.c ****     *  * CYBLE_EVT_GAP_DEVICE_CONNECTED - If the device connects to a GAP Central and 
 739:.\Generated_Source\PSoC4/BLE.c ****     *    Link Layer Privacy is disabled in component customizer.
 740:.\Generated_Source\PSoC4/BLE.c ****     *  * CYBLE_EVT_GAP_ENHANCE_CONN_COMPLETE - If the device connects to a GAP Central and 
 741:.\Generated_Source\PSoC4/BLE.c ****     *    Link Layer Privacy is enabled in component customizer.
 742:.\Generated_Source\PSoC4/BLE.c ****     *  * CYBLE_EVT_TIMEOUT: If no device in GAP Central mode connects to this 
 743:.\Generated_Source\PSoC4/BLE.c ****     *                       device within the specified timeout limit. Stack 
 744:.\Generated_Source\PSoC4/BLE.c ****     *                       automatically initiate stop advertising when Slow 
 745:.\Generated_Source\PSoC4/BLE.c ****     *                       advertising was initiated, or starts Slow advertising
 746:.\Generated_Source\PSoC4/BLE.c ****     *                       after Fast advertising timeout occur.
 747:.\Generated_Source\PSoC4/BLE.c ****     *  * CYBLE_EVT_GAPP_ADVERTISEMENT_START_STOP: If device started or stopped
 748:.\Generated_Source\PSoC4/BLE.c ****     *                                               advertising. Use CyBle_GetState()
 749:.\Generated_Source\PSoC4/BLE.c ****     *                                               to determine the state. Sequential 
 750:.\Generated_Source\PSoC4/BLE.c ****     *                                               advertising could be started when
 751:.\Generated_Source\PSoC4/BLE.c ****     *                                               CYBLE_STATE_DISCONNECTED state is
 752:.\Generated_Source\PSoC4/BLE.c ****     *                                               returned.
 753:.\Generated_Source\PSoC4/BLE.c ****     * 
 754:.\Generated_Source\PSoC4/BLE.c ****     *  \param advertisingIntervalType: Fast or slow advertising interval with timings
 755:.\Generated_Source\PSoC4/BLE.c ****     *                                 entered in Advertising settings section of the
 756:.\Generated_Source\PSoC4/BLE.c ****     *                                 customizer.
 757:.\Generated_Source\PSoC4/BLE.c ****     *  * CYBLE_ADVERTISING_FAST   0x00u
 758:.\Generated_Source\PSoC4/BLE.c ****     *  * CYBLE_ADVERTISING_SLOW   0x01u
 759:.\Generated_Source\PSoC4/BLE.c ****     *  * CYBLE_ADVERTISING_CUSTOM 0x02u
 760:.\Generated_Source\PSoC4/BLE.c ****     * 
 761:.\Generated_Source\PSoC4/BLE.c ****     * \return
 762:.\Generated_Source\PSoC4/BLE.c ****     *  CYBLE_API_RESULT_T : Return value indicates if the function succeeded or
 763:.\Generated_Source\PSoC4/BLE.c ****     *  failed. Following are the possible error codes.
 764:.\Generated_Source\PSoC4/BLE.c ****     * 
 765:.\Generated_Source\PSoC4/BLE.c ****     *   Errors codes                      |  Description
 766:.\Generated_Source\PSoC4/BLE.c ****     *   --------------------------------- |  --------------------------------
 767:.\Generated_Source\PSoC4/BLE.c ****     *   CYBLE_ERROR_OK                    |  On successful operation.
 768:.\Generated_Source\PSoC4/BLE.c ****     *   CYBLE_ERROR_INVALID_PARAMETER     |  On passing an invalid parameter.
 769:.\Generated_Source\PSoC4/BLE.c ****     *   CYBLE_ERROR_INVALID_STATE         |  On calling this API not in Disconnected state.
 770:.\Generated_Source\PSoC4/BLE.c ****     *
 771:.\Generated_Source\PSoC4/BLE.c ****     * 
 772:.\Generated_Source\PSoC4/BLE.c ****     *******************************************************************************/
 773:.\Generated_Source\PSoC4/BLE.c ****     CYBLE_API_RESULT_T CyBle_GappStartAdvertisement(uint8 advertisingIntervalType)
 774:.\Generated_Source\PSoC4/BLE.c ****     {
ARM GAS  C:\Users\ADMINI~1\AppData\Local\Temp\ccIYPr3z.s 			page 15


 775:.\Generated_Source\PSoC4/BLE.c ****         CYBLE_API_RESULT_T apiResult;
 776:.\Generated_Source\PSoC4/BLE.c ****         
 777:.\Generated_Source\PSoC4/BLE.c ****         if(advertisingIntervalType > CYBLE_ADVERTISING_CUSTOM)
 778:.\Generated_Source\PSoC4/BLE.c ****         {
 779:.\Generated_Source\PSoC4/BLE.c ****             apiResult = CYBLE_ERROR_INVALID_PARAMETER;
 780:.\Generated_Source\PSoC4/BLE.c ****         }
 781:.\Generated_Source\PSoC4/BLE.c ****         else if((CYBLE_STATE_DISCONNECTED == CyBle_GetState()) && ((cyBle_eventHandlerFlag & CYBLE_
 782:.\Generated_Source\PSoC4/BLE.c ****         {   
 783:.\Generated_Source\PSoC4/BLE.c ****             if(advertisingIntervalType == CYBLE_ADVERTISING_FAST)
 784:.\Generated_Source\PSoC4/BLE.c ****             {
 785:.\Generated_Source\PSoC4/BLE.c ****                 cyBle_discoveryModeInfo.advTo = CYBLE_FAST_ADV_TIMEOUT;
 786:.\Generated_Source\PSoC4/BLE.c ****                 cyBle_discoveryModeInfo.advParam->advIntvMin = CYBLE_FAST_ADV_INT_MIN;
 787:.\Generated_Source\PSoC4/BLE.c ****                 cyBle_discoveryModeInfo.advParam->advIntvMax = CYBLE_FAST_ADV_INT_MAX;
 788:.\Generated_Source\PSoC4/BLE.c ****             }
 789:.\Generated_Source\PSoC4/BLE.c ****             else if(advertisingIntervalType == CYBLE_ADVERTISING_SLOW)
 790:.\Generated_Source\PSoC4/BLE.c ****             {
 791:.\Generated_Source\PSoC4/BLE.c ****                 cyBle_discoveryModeInfo.advTo = CYBLE_SLOW_ADV_TIMEOUT;
 792:.\Generated_Source\PSoC4/BLE.c ****                 cyBle_discoveryModeInfo.advParam->advIntvMin = CYBLE_SLOW_ADV_INT_MIN;
 793:.\Generated_Source\PSoC4/BLE.c ****                 cyBle_discoveryModeInfo.advParam->advIntvMax = CYBLE_SLOW_ADV_INT_MAX;
 794:.\Generated_Source\PSoC4/BLE.c ****             }       
 795:.\Generated_Source\PSoC4/BLE.c ****             else /* Do not update advertising intervals */
 796:.\Generated_Source\PSoC4/BLE.c ****             {
 797:.\Generated_Source\PSoC4/BLE.c ****             }
 798:.\Generated_Source\PSoC4/BLE.c ****             cyBle_advertisingIntervalType = advertisingIntervalType;
 799:.\Generated_Source\PSoC4/BLE.c ****             apiResult = CyBle_GappEnterDiscoveryMode(&cyBle_discoveryModeInfo);
 800:.\Generated_Source\PSoC4/BLE.c ****         
 801:.\Generated_Source\PSoC4/BLE.c ****             if(CYBLE_ERROR_OK == apiResult)
 802:.\Generated_Source\PSoC4/BLE.c ****             {
 803:.\Generated_Source\PSoC4/BLE.c ****                 cyBle_eventHandlerFlag |= CYBLE_START_FLAG;
 804:.\Generated_Source\PSoC4/BLE.c ****             }
 805:.\Generated_Source\PSoC4/BLE.c ****         }
 806:.\Generated_Source\PSoC4/BLE.c ****         else
 807:.\Generated_Source\PSoC4/BLE.c ****         {
 808:.\Generated_Source\PSoC4/BLE.c ****             apiResult = CYBLE_ERROR_INVALID_STATE;
 809:.\Generated_Source\PSoC4/BLE.c ****         }
 810:.\Generated_Source\PSoC4/BLE.c **** 
 811:.\Generated_Source\PSoC4/BLE.c ****         return (apiResult);
 812:.\Generated_Source\PSoC4/BLE.c ****     }
 813:.\Generated_Source\PSoC4/BLE.c **** 
 814:.\Generated_Source\PSoC4/BLE.c ****     
 815:.\Generated_Source\PSoC4/BLE.c ****     /******************************************************************************
 816:.\Generated_Source\PSoC4/BLE.c ****     * Function Name: CyBle_GappStopAdvertisement
 817:.\Generated_Source\PSoC4/BLE.c ****     ***************************************************************************//**
 818:.\Generated_Source\PSoC4/BLE.c ****     * 
 819:.\Generated_Source\PSoC4/BLE.c ****     *   This function can be used to exit from discovery mode. After the execution 
 820:.\Generated_Source\PSoC4/BLE.c ****     *   of this function, there will no longer be any advertisements. On stopping 
 821:.\Generated_Source\PSoC4/BLE.c ****     *   advertising, GAP Peripheral receives CYBLE_EVT_GAPP_ADVERTISEMENT_START_STOP
 822:.\Generated_Source\PSoC4/BLE.c ****     *   event. It is expected that the application layer tracks the function call 
 823:.\Generated_Source\PSoC4/BLE.c ****     *   performed before occurrence of this event as this event can occur on making 
 824:.\Generated_Source\PSoC4/BLE.c ****     *   a call to Cy_BleGappStartAdvertisement(), CyBle_GappEnterDiscoveryMode(), 
 825:.\Generated_Source\PSoC4/BLE.c ****     *   or CyBle_GappStartAdvertisement() functions as well.
 826:.\Generated_Source\PSoC4/BLE.c ****     *   
 827:.\Generated_Source\PSoC4/BLE.c ****     *   The following event occurs on invoking this function:
 828:.\Generated_Source\PSoC4/BLE.c ****     *   * CYBLE_EVT_GAPP_ADVERTISEMENT_START_STOP
 829:.\Generated_Source\PSoC4/BLE.c ****     * 
 830:.\Generated_Source\PSoC4/BLE.c ****     *  \return
 831:.\Generated_Source\PSoC4/BLE.c ****     *   None
ARM GAS  C:\Users\ADMINI~1\AppData\Local\Temp\ccIYPr3z.s 			page 16


 832:.\Generated_Source\PSoC4/BLE.c ****     * 
 833:.\Generated_Source\PSoC4/BLE.c ****     *******************************************************************************/
 834:.\Generated_Source\PSoC4/BLE.c ****     void CyBle_GappStopAdvertisement(void)
 835:.\Generated_Source\PSoC4/BLE.c ****     {
 836:.\Generated_Source\PSoC4/BLE.c ****         CyBle_GappExitDiscoveryMode();
 837:.\Generated_Source\PSoC4/BLE.c ****         cyBle_eventHandlerFlag |= CYBLE_STOP_FLAG;
 838:.\Generated_Source\PSoC4/BLE.c ****     }
 839:.\Generated_Source\PSoC4/BLE.c ****     
 840:.\Generated_Source\PSoC4/BLE.c ****     
 841:.\Generated_Source\PSoC4/BLE.c ****     /******************************************************************************
 842:.\Generated_Source\PSoC4/BLE.c ****     * Function Name: CyBle_ChangeAdDeviceAddress
 843:.\Generated_Source\PSoC4/BLE.c ****     ***************************************************************************//**
 844:.\Generated_Source\PSoC4/BLE.c ****     * 
 845:.\Generated_Source\PSoC4/BLE.c ****     *  This API is used to set the Bluetooth device address into the advertisement 
 846:.\Generated_Source\PSoC4/BLE.c ****     *  or scan response data structure.
 847:.\Generated_Source\PSoC4/BLE.c ****     * 
 848:.\Generated_Source\PSoC4/BLE.c ****     *  \param bdAddr: Bluetooth Device address. The variable is of type CYBLE_GAP_BD_ADDR_T
 849:.\Generated_Source\PSoC4/BLE.c ****     *  \param dest: 0 - selects advertisement structure, not zero value selects scan 
 850:.\Generated_Source\PSoC4/BLE.c ****     *               response structure.
 851:.\Generated_Source\PSoC4/BLE.c ****     * 
 852:.\Generated_Source\PSoC4/BLE.c ****     * \return
 853:.\Generated_Source\PSoC4/BLE.c ****     *  None
 854:.\Generated_Source\PSoC4/BLE.c ****     *  
 855:.\Generated_Source\PSoC4/BLE.c ****     *******************************************************************************/
 856:.\Generated_Source\PSoC4/BLE.c ****     void CyBle_ChangeAdDeviceAddress(const CYBLE_GAP_BD_ADDR_T* bdAddr, uint8 dest)
 857:.\Generated_Source\PSoC4/BLE.c ****     {
 858:.\Generated_Source\PSoC4/BLE.c ****         uint8 i;
 859:.\Generated_Source\PSoC4/BLE.c ****         uint8 *destBuffer = NULL;
 860:.\Generated_Source\PSoC4/BLE.c ****         
 861:.\Generated_Source\PSoC4/BLE.c ****         if(dest == 0u)      /* Destination - advertising structure */
 862:.\Generated_Source\PSoC4/BLE.c ****         {
 863:.\Generated_Source\PSoC4/BLE.c ****             #ifdef CYBLE_ADV_PKT_INDEX_BLUETOOTH_DEVICE_ADDRESS
 864:.\Generated_Source\PSoC4/BLE.c ****                 destBuffer = &cyBle_discoveryData.advData[CYBLE_ADV_PKT_INDEX_BLUETOOTH_DEVICE_ADDR
 865:.\Generated_Source\PSoC4/BLE.c ****             #endif /* CYBLE_ADV_PKT_INDEX_BLUETOOTH_DEVICE_ADDRESS */
 866:.\Generated_Source\PSoC4/BLE.c ****         }
 867:.\Generated_Source\PSoC4/BLE.c ****         else                /* Destination - scan response structure */
 868:.\Generated_Source\PSoC4/BLE.c ****         {
 869:.\Generated_Source\PSoC4/BLE.c ****             #ifdef CYBLE_SCN_PKT_INDEX_BLUETOOTH_DEVICE_ADDRESS
 870:.\Generated_Source\PSoC4/BLE.c ****                 destBuffer = &cyBle_scanRspData.scanRspData[CYBLE_SCN_PKT_INDEX_BLUETOOTH_DEVICE_AD
 871:.\Generated_Source\PSoC4/BLE.c ****             #endif /* CYBLE_SCN_PKT_INDEX_BLUETOOTH_DEVICE_ADDRESS */    
 872:.\Generated_Source\PSoC4/BLE.c ****         }
 873:.\Generated_Source\PSoC4/BLE.c ****         
 874:.\Generated_Source\PSoC4/BLE.c ****         if(destBuffer != NULL)
 875:.\Generated_Source\PSoC4/BLE.c ****         {
 876:.\Generated_Source\PSoC4/BLE.c ****             /* Update Device Address type */
 877:.\Generated_Source\PSoC4/BLE.c ****             destBuffer[0u] = bdAddr->type;
 878:.\Generated_Source\PSoC4/BLE.c ****             
 879:.\Generated_Source\PSoC4/BLE.c ****             for(i = 0u; i < CYBLE_GAP_BD_ADDR_SIZE; i++)
 880:.\Generated_Source\PSoC4/BLE.c ****             {
 881:.\Generated_Source\PSoC4/BLE.c ****                 destBuffer[i + 1u] = bdAddr->bdAddr[i];
 882:.\Generated_Source\PSoC4/BLE.c ****             }
 883:.\Generated_Source\PSoC4/BLE.c ****         }
 884:.\Generated_Source\PSoC4/BLE.c ****     }
 885:.\Generated_Source\PSoC4/BLE.c ****   
 886:.\Generated_Source\PSoC4/BLE.c **** #endif /* CYBLE_GAP_ROLE_PERIPHERAL || CYBLE_GAP_ROLE_BROADCASTER */
 887:.\Generated_Source\PSoC4/BLE.c **** 
 888:.\Generated_Source\PSoC4/BLE.c **** 
ARM GAS  C:\Users\ADMINI~1\AppData\Local\Temp\ccIYPr3z.s 			page 17


 889:.\Generated_Source\PSoC4/BLE.c **** #if(CYBLE_GAP_ROLE_CENTRAL || CYBLE_GAP_ROLE_OBSERVER)
 890:.\Generated_Source\PSoC4/BLE.c **** 
 891:.\Generated_Source\PSoC4/BLE.c ****     /******************************************************************************
 892:.\Generated_Source\PSoC4/BLE.c ****     * Function Name: CyBle_GapcStartScan
 893:.\Generated_Source\PSoC4/BLE.c ****     ***************************************************************************//**
 894:.\Generated_Source\PSoC4/BLE.c ****     * 
 895:.\Generated_Source\PSoC4/BLE.c ****     *   This function is used for discovering GAP peripheral devices that are 
 896:.\Generated_Source\PSoC4/BLE.c ****     *   available for connection. It performs the scanning routine using the 
 897:.\Generated_Source\PSoC4/BLE.c ****     *   parameters entered in the component's customizer.
 898:.\Generated_Source\PSoC4/BLE.c ****     *   
 899:.\Generated_Source\PSoC4/BLE.c ****     *   As soon as the discovery operation starts, CYBLE_EVT_GAPC_SCAN_START_STOP 
 900:.\Generated_Source\PSoC4/BLE.c ****     *   event is generated. The CYBLE_EVT_GAPC_SCAN_PROGRESS_RESULT event is 
 901:.\Generated_Source\PSoC4/BLE.c ****     *   generated when a GAP peripheral device is located. There are three discovery
 902:.\Generated_Source\PSoC4/BLE.c ****     *   procedures can be selected in the customizer's GUI:
 903:.\Generated_Source\PSoC4/BLE.c ****     *   
 904:.\Generated_Source\PSoC4/BLE.c ****     *   * Observation procedure: A device performing the observer role receives only
 905:.\Generated_Source\PSoC4/BLE.c ****     *                            advertisement data from devices irrespective of 
 906:.\Generated_Source\PSoC4/BLE.c ****     *                            their discoverable mode settings. Advertisement 
 907:.\Generated_Source\PSoC4/BLE.c ****     *                            data received is provided by the event,      
 908:.\Generated_Source\PSoC4/BLE.c ****     *                            CYBLE_EVT_GAPC_SCAN_PROGRESS_RESULT. This procedure
 909:.\Generated_Source\PSoC4/BLE.c ****     *                            requires the scanType sub parameter to be passive
 910:.\Generated_Source\PSoC4/BLE.c ****     *                            scanning. 
 911:.\Generated_Source\PSoC4/BLE.c ****     *   
 912:.\Generated_Source\PSoC4/BLE.c ****     *   * Limited Discovery procedure: A device performing the limited discovery
 913:.\Generated_Source\PSoC4/BLE.c ****     *                                  procedure receives advertisement data and 
 914:.\Generated_Source\PSoC4/BLE.c ****     *                                  scan# response data from devices in the 
 915:.\Generated_Source\PSoC4/BLE.c ****     *                                  limited discoverable mode only. Received data
 916:.\Generated_Source\PSoC4/BLE.c ****     *                                  is provided by the event, 
 917:.\Generated_Source\PSoC4/BLE.c ****     *                                  CYBLE_EVT_GAPC_SCAN_PROGRESS_RESULT. This 
 918:.\Generated_Source\PSoC4/BLE.c ****     *                                  procedure requires the scanType sub-parameter 
 919:.\Generated_Source\PSoC4/BLE.c ****     *                                  to be active scanning.
 920:.\Generated_Source\PSoC4/BLE.c ****     *   
 921:.\Generated_Source\PSoC4/BLE.c ****     *   * General Discovery procedure: A device performing the general discovery 
 922:.\Generated_Source\PSoC4/BLE.c ****     *                                  procedure receives the advertisement data and
 923:.\Generated_Source\PSoC4/BLE.c ****     *                                  scan response data from devices in both 
 924:.\Generated_Source\PSoC4/BLE.c ****     *                                  limited discoverable mode and the general 
 925:.\Generated_Source\PSoC4/BLE.c ****     *                                  discoverable mode. Received data is provided
 926:.\Generated_Source\PSoC4/BLE.c ****     *                                  by the event,
 927:.\Generated_Source\PSoC4/BLE.c ****     *                                  CYBLE_EVT_GAPC_SCAN_PROGRESS_RESULT. This 
 928:.\Generated_Source\PSoC4/BLE.c ****     *                                  procedure requires the scanType sub-parameter
 929:.\Generated_Source\PSoC4/BLE.c ****     *                                  to be active scanning.
 930:.\Generated_Source\PSoC4/BLE.c ****     *   
 931:.\Generated_Source\PSoC4/BLE.c ****     *   Every Advertisement / Scan response packet received results in a new event, 
 932:.\Generated_Source\PSoC4/BLE.c ****     *   CYBLE_EVT_GAPC_SCAN_PROGRESS_RESULT.
 933:.\Generated_Source\PSoC4/BLE.c ****     *   If 'scanTo' sub-parameter is a non-zero value, then upon commencement of 
 934:.\Generated_Source\PSoC4/BLE.c ****     *   discovery procedure and elapsed time = 'scanTo', CYBLE_EVT_TIMEOUT event
 935:.\Generated_Source\PSoC4/BLE.c ****     *   is generated with the event parameter indicating CYBLE_GAP_SCAN_TO.
 936:.\Generated_Source\PSoC4/BLE.c ****     *   Possible generated events are:
 937:.\Generated_Source\PSoC4/BLE.c ****     *   * CYBLE_EVT_GAPC_SCAN_START_STOP: If a device started or stopped scanning. 
 938:.\Generated_Source\PSoC4/BLE.c ****     *                                     Use CyBle_GetState() to determine the 
 939:.\Generated_Source\PSoC4/BLE.c ****     *                                     state. Sequential scanning could be 
 940:.\Generated_Source\PSoC4/BLE.c ****     *                                     started when CYBLE_STATE_DISCONNECTED 
 941:.\Generated_Source\PSoC4/BLE.c ****     *                                     state is returned. 
 942:.\Generated_Source\PSoC4/BLE.c ****     *   * CYBLE_EVT_GAPC_SCAN_PROGRESS_RESULT 
 943:.\Generated_Source\PSoC4/BLE.c ****     *   * CYBLE_EVT_TIMEOUT (CYBLE_GAP_SCAN_TO)
 944:.\Generated_Source\PSoC4/BLE.c ****     * 
 945:.\Generated_Source\PSoC4/BLE.c ****     *   \param scanningIntervalType:  Fast or slow scanning interval with
ARM GAS  C:\Users\ADMINI~1\AppData\Local\Temp\ccIYPr3z.s 			page 18


 946:.\Generated_Source\PSoC4/BLE.c ****     *       timings entered in Scan settings section of the customizer.
 947:.\Generated_Source\PSoC4/BLE.c ****     * 	  * CYBLE_SCANNING_FAST   0x00u
 948:.\Generated_Source\PSoC4/BLE.c ****     * 	  * CYBLE_SCANNING_SLOW   0x01u
 949:.\Generated_Source\PSoC4/BLE.c ****     * 	  * CYBLE_SCANNING_CUSTOM 0x02u
 950:.\Generated_Source\PSoC4/BLE.c ****     * 
 951:.\Generated_Source\PSoC4/BLE.c ****     * \return
 952:.\Generated_Source\PSoC4/BLE.c ****     *  CYBLE_API_RESULT_T : Return value indicates if the function succeeded or
 953:.\Generated_Source\PSoC4/BLE.c ****     *  failed. Following are the possible error codes.
 954:.\Generated_Source\PSoC4/BLE.c ****     *
 955:.\Generated_Source\PSoC4/BLE.c ****     *   Errors codes                       | Description
 956:.\Generated_Source\PSoC4/BLE.c ****     *   ---------------------------------- | -----------------------------------
 957:.\Generated_Source\PSoC4/BLE.c ****     *   CYBLE_ERROR_OK                     | On successful operation.
 958:.\Generated_Source\PSoC4/BLE.c ****     *   CYBLE_ERROR_STACK_INTERNAL         | An error occurred in the BLE stack.
 959:.\Generated_Source\PSoC4/BLE.c ****     *   CYBLE_ERROR_INVALID_PARAMETER      | On passing an invalid parameter.
 960:.\Generated_Source\PSoC4/BLE.c ****     *  
 961:.\Generated_Source\PSoC4/BLE.c ****     *******************************************************************************/
 962:.\Generated_Source\PSoC4/BLE.c ****     CYBLE_API_RESULT_T CyBle_GapcStartScan(uint8 scanningIntervalType)
 963:.\Generated_Source\PSoC4/BLE.c ****     {
 964:.\Generated_Source\PSoC4/BLE.c ****         CYBLE_API_RESULT_T apiResult;
 965:.\Generated_Source\PSoC4/BLE.c **** 
 966:.\Generated_Source\PSoC4/BLE.c ****         if(scanningIntervalType > CYBLE_SCANNING_CUSTOM)
 967:.\Generated_Source\PSoC4/BLE.c ****         {
 968:.\Generated_Source\PSoC4/BLE.c ****             apiResult = CYBLE_ERROR_INVALID_PARAMETER;
 969:.\Generated_Source\PSoC4/BLE.c ****         }
 970:.\Generated_Source\PSoC4/BLE.c ****         else
 971:.\Generated_Source\PSoC4/BLE.c ****         {
 972:.\Generated_Source\PSoC4/BLE.c ****             if(scanningIntervalType == CYBLE_SCANNING_FAST)
 973:.\Generated_Source\PSoC4/BLE.c ****             {
 974:.\Generated_Source\PSoC4/BLE.c ****                 cyBle_discoveryInfo.scanTo = CYBLE_FAST_SCAN_TIMEOUT;
 975:.\Generated_Source\PSoC4/BLE.c ****                 cyBle_discoveryInfo.scanIntv = CYBLE_FAST_SCAN_INTERVAL;
 976:.\Generated_Source\PSoC4/BLE.c ****                 cyBle_discoveryInfo.scanWindow = CYBLE_FAST_SCAN_WINDOW;
 977:.\Generated_Source\PSoC4/BLE.c ****             }
 978:.\Generated_Source\PSoC4/BLE.c ****             else if(scanningIntervalType == CYBLE_SCANNING_SLOW)
 979:.\Generated_Source\PSoC4/BLE.c ****             {
 980:.\Generated_Source\PSoC4/BLE.c ****                 cyBle_discoveryInfo.scanTo = CYBLE_SLOW_SCAN_TIMEOUT;
 981:.\Generated_Source\PSoC4/BLE.c ****                 cyBle_discoveryInfo.scanIntv = CYBLE_SLOW_SCAN_INTERVAL;
 982:.\Generated_Source\PSoC4/BLE.c ****                 cyBle_discoveryInfo.scanWindow = CYBLE_SLOW_SCAN_WINDOW;
 983:.\Generated_Source\PSoC4/BLE.c ****             }       
 984:.\Generated_Source\PSoC4/BLE.c ****             else /* Do not update scanning intervals */
 985:.\Generated_Source\PSoC4/BLE.c ****             {
 986:.\Generated_Source\PSoC4/BLE.c ****             }
 987:.\Generated_Source\PSoC4/BLE.c ****             
 988:.\Generated_Source\PSoC4/BLE.c ****             cyBle_scanningIntervalType = scanningIntervalType;
 989:.\Generated_Source\PSoC4/BLE.c ****             apiResult = CyBle_GapcStartDiscovery(&cyBle_discoveryInfo);
 990:.\Generated_Source\PSoC4/BLE.c ****         
 991:.\Generated_Source\PSoC4/BLE.c ****             if(CYBLE_ERROR_OK == apiResult)
 992:.\Generated_Source\PSoC4/BLE.c ****             {
 993:.\Generated_Source\PSoC4/BLE.c ****                 cyBle_eventHandlerFlag |= CYBLE_START_FLAG;
 994:.\Generated_Source\PSoC4/BLE.c ****             }
 995:.\Generated_Source\PSoC4/BLE.c ****         }
 996:.\Generated_Source\PSoC4/BLE.c ****        
 997:.\Generated_Source\PSoC4/BLE.c ****         return (apiResult);
 998:.\Generated_Source\PSoC4/BLE.c ****     }
 999:.\Generated_Source\PSoC4/BLE.c ****     
1000:.\Generated_Source\PSoC4/BLE.c ****     
1001:.\Generated_Source\PSoC4/BLE.c ****     /******************************************************************************
1002:.\Generated_Source\PSoC4/BLE.c ****     * Function Name: CyBle_GapcStopScan
ARM GAS  C:\Users\ADMINI~1\AppData\Local\Temp\ccIYPr3z.s 			page 19


1003:.\Generated_Source\PSoC4/BLE.c ****     ***************************************************************************//**
1004:.\Generated_Source\PSoC4/BLE.c ****     * 
1005:.\Generated_Source\PSoC4/BLE.c ****     *   This function used to stop the discovery of devices. On stopping discovery
1006:.\Generated_Source\PSoC4/BLE.c ****     *   operation, CYBLE_EVT_GAPC_SCAN_START_STOP event is generated. Application
1007:.\Generated_Source\PSoC4/BLE.c ****     *   layer needs to keep track of the function call made before receiving this
1008:.\Generated_Source\PSoC4/BLE.c ****     *   event to associate this event with either the start or stop discovery
1009:.\Generated_Source\PSoC4/BLE.c ****     *   function.
1010:.\Generated_Source\PSoC4/BLE.c ****     * 
1011:.\Generated_Source\PSoC4/BLE.c ****     *   Possible events generated are:
1012:.\Generated_Source\PSoC4/BLE.c ****     *    * CYBLE_EVT_GAPC_SCAN_START_STOP
1013:.\Generated_Source\PSoC4/BLE.c ****     * 
1014:.\Generated_Source\PSoC4/BLE.c ****     *  \return
1015:.\Generated_Source\PSoC4/BLE.c ****     *   None
1016:.\Generated_Source\PSoC4/BLE.c ****     * 
1017:.\Generated_Source\PSoC4/BLE.c ****     *******************************************************************************/
1018:.\Generated_Source\PSoC4/BLE.c ****     void CyBle_GapcStopScan(void)
1019:.\Generated_Source\PSoC4/BLE.c ****     {
1020:.\Generated_Source\PSoC4/BLE.c ****         CyBle_GapcStopDiscovery();
1021:.\Generated_Source\PSoC4/BLE.c ****         
1022:.\Generated_Source\PSoC4/BLE.c ****         cyBle_eventHandlerFlag |= CYBLE_STOP_FLAG;
1023:.\Generated_Source\PSoC4/BLE.c ****     }
1024:.\Generated_Source\PSoC4/BLE.c **** 
1025:.\Generated_Source\PSoC4/BLE.c ****     
1026:.\Generated_Source\PSoC4/BLE.c **** #endif /* CYBLE_GAP_ROLE_CENTRAL || CYBLE_GAP_ROLE_OBSERVER */
1027:.\Generated_Source\PSoC4/BLE.c **** 
1028:.\Generated_Source\PSoC4/BLE.c **** 
1029:.\Generated_Source\PSoC4/BLE.c **** #if(CYBLE_GAP_ROLE_CENTRAL)
1030:.\Generated_Source\PSoC4/BLE.c **** 
1031:.\Generated_Source\PSoC4/BLE.c ****     /******************************************************************************
1032:.\Generated_Source\PSoC4/BLE.c ****     * Function Name: CyBle_GapcConnectDevice
1033:.\Generated_Source\PSoC4/BLE.c ****     ***************************************************************************//**
1034:.\Generated_Source\PSoC4/BLE.c ****     * 
1035:.\Generated_Source\PSoC4/BLE.c ****     *  This function is used to send a connection request to the remote device with
1036:.\Generated_Source\PSoC4/BLE.c ****     *  the connection parameters set in the component customizer. This function needs
1037:.\Generated_Source\PSoC4/BLE.c ****     *  to be called only once after the target device is discovered by 
1038:.\Generated_Source\PSoC4/BLE.c ****     *  CyBle_GapcStartScan() and further scanning has stopped. Scanning is 
1039:.\Generated_Source\PSoC4/BLE.c ****     *  successfully stopped on invoking CyBle_GapcStopScan() and then receiving the
1040:.\Generated_Source\PSoC4/BLE.c ****     *  event CYBLE_EVT_GAPC_SCAN_START_STOP with sub-parameter 'success' = 0x01u.
1041:.\Generated_Source\PSoC4/BLE.c ****     *  
1042:.\Generated_Source\PSoC4/BLE.c ****     *  On successful connection, the following events are generated at the GAP 
1043:.\Generated_Source\PSoC4/BLE.c ****     *  Central device (as well as the GAP Peripheral device), in the following order.
1044:.\Generated_Source\PSoC4/BLE.c ****     *  * CYBLE_EVT_GATT_CONNECT_IND
1045:.\Generated_Source\PSoC4/BLE.c ****     *  * CYBLE_EVT_GAP_DEVICE_CONNECTED - If the device connects to a GAP Central and 
1046:.\Generated_Source\PSoC4/BLE.c ****     *    Link Layer Privacy is disabled in component customizer.
1047:.\Generated_Source\PSoC4/BLE.c ****     *  * CYBLE_EVT_GAP_ENHANCE_CONN_COMPLETE - If the device connects to a GAP Central and 
1048:.\Generated_Source\PSoC4/BLE.c ****     *    Link Layer Privacy is enabled in component customizer.
1049:.\Generated_Source\PSoC4/BLE.c ****     *  * CYBLE_EVT_GAP_DEVICE_CONNECTED
1050:.\Generated_Source\PSoC4/BLE.c ****     *  
1051:.\Generated_Source\PSoC4/BLE.c ****     *  A procedure is considered to have timed out if a connection response packet is 
1052:.\Generated_Source\PSoC4/BLE.c ****     *  not received within time set by cyBle_connectingTimeout global variable
1053:.\Generated_Source\PSoC4/BLE.c ****     *  (30 seconds by default). CYBLE_EVT_TIMEOUT event with CYBLE_GENERIC_TO parameter
1054:.\Generated_Source\PSoC4/BLE.c ****     *  will indicate about connection procedure timeout. Connection will automatically
1055:.\Generated_Source\PSoC4/BLE.c ****     *  be canceled and state will be changed to CYBLE_STATE_DISCONNECTED.
1056:.\Generated_Source\PSoC4/BLE.c ****     * 
1057:.\Generated_Source\PSoC4/BLE.c ****     *  \param address: The device address of the remote device to connect to. 
1058:.\Generated_Source\PSoC4/BLE.c ****     *  
1059:.\Generated_Source\PSoC4/BLE.c ****     * \return
ARM GAS  C:\Users\ADMINI~1\AppData\Local\Temp\ccIYPr3z.s 			page 20


1060:.\Generated_Source\PSoC4/BLE.c ****     *  CYBLE_API_RESULT_T : Return value indicates if the function succeeded or 
1061:.\Generated_Source\PSoC4/BLE.c ****     *  failed. Following are the possible error codes.
1062:.\Generated_Source\PSoC4/BLE.c ****     *
1063:.\Generated_Source\PSoC4/BLE.c ****     *   Errors codes                       | Description
1064:.\Generated_Source\PSoC4/BLE.c ****     *   ------------                       | -----------
1065:.\Generated_Source\PSoC4/BLE.c ****     *   CYBLE_ERROR_OK                     | On successful operation.
1066:.\Generated_Source\PSoC4/BLE.c ****     *   CYBLE_ERROR_STACK_INTERNAL         | On error occurred in the BLE stack.
1067:.\Generated_Source\PSoC4/BLE.c ****     *   CYBLE_ERROR_INVALID_PARAMETER      | On passing an invalid parameter.
1068:.\Generated_Source\PSoC4/BLE.c ****     *   CYBLE_ERROR_INVALID_STATE          | On calling this API not in Disconnected state.
1069:.\Generated_Source\PSoC4/BLE.c ****     *  
1070:.\Generated_Source\PSoC4/BLE.c ****     ******************************************************************************/
1071:.\Generated_Source\PSoC4/BLE.c ****     CYBLE_API_RESULT_T CyBle_GapcConnectDevice(const CYBLE_GAP_BD_ADDR_T * address)
1072:.\Generated_Source\PSoC4/BLE.c ****     {
1073:.\Generated_Source\PSoC4/BLE.c ****         CYBLE_API_RESULT_T apiResult;
1074:.\Generated_Source\PSoC4/BLE.c ****         uint8 i;
1075:.\Generated_Source\PSoC4/BLE.c **** 
1076:.\Generated_Source\PSoC4/BLE.c ****         if(CyBle_GetState() != CYBLE_STATE_DISCONNECTED)
1077:.\Generated_Source\PSoC4/BLE.c ****         {
1078:.\Generated_Source\PSoC4/BLE.c ****             apiResult = CYBLE_ERROR_INVALID_STATE;
1079:.\Generated_Source\PSoC4/BLE.c ****         }
1080:.\Generated_Source\PSoC4/BLE.c ****         else if(address == NULL)
1081:.\Generated_Source\PSoC4/BLE.c ****         {
1082:.\Generated_Source\PSoC4/BLE.c ****             apiResult = CYBLE_ERROR_INVALID_PARAMETER;
1083:.\Generated_Source\PSoC4/BLE.c ****         }
1084:.\Generated_Source\PSoC4/BLE.c ****         else
1085:.\Generated_Source\PSoC4/BLE.c ****         {
1086:.\Generated_Source\PSoC4/BLE.c ****             for(i = 0u; i < CYBLE_GAP_BD_ADDR_SIZE; i++)
1087:.\Generated_Source\PSoC4/BLE.c ****             {
1088:.\Generated_Source\PSoC4/BLE.c ****                 cyBle_connectionParameters.peerBdAddr[i] = address->bdAddr[i];
1089:.\Generated_Source\PSoC4/BLE.c ****             }
1090:.\Generated_Source\PSoC4/BLE.c ****             cyBle_connectionParameters.peerAddrType = address -> type;
1091:.\Generated_Source\PSoC4/BLE.c ****             apiResult = CyBle_GapcInitConnection(&cyBle_connectionParameters);
1092:.\Generated_Source\PSoC4/BLE.c ****             
1093:.\Generated_Source\PSoC4/BLE.c ****             if(apiResult == CYBLE_ERROR_OK)
1094:.\Generated_Source\PSoC4/BLE.c ****             {
1095:.\Generated_Source\PSoC4/BLE.c ****                 CyBle_SetState(CYBLE_STATE_CONNECTING);
1096:.\Generated_Source\PSoC4/BLE.c ****                 if(cyBle_connectingTimeout != 0u)
1097:.\Generated_Source\PSoC4/BLE.c ****                 {
1098:.\Generated_Source\PSoC4/BLE.c ****                     (void)CyBle_StartTimer(cyBle_connectingTimeout);
1099:.\Generated_Source\PSoC4/BLE.c ****                 }
1100:.\Generated_Source\PSoC4/BLE.c ****             }
1101:.\Generated_Source\PSoC4/BLE.c ****         }
1102:.\Generated_Source\PSoC4/BLE.c ****         return (apiResult);
1103:.\Generated_Source\PSoC4/BLE.c ****     }
1104:.\Generated_Source\PSoC4/BLE.c ****     
1105:.\Generated_Source\PSoC4/BLE.c **** 
1106:.\Generated_Source\PSoC4/BLE.c ****     /******************************************************************************
1107:.\Generated_Source\PSoC4/BLE.c ****     * Function Name: CyBle_GapcCancelDeviceConnection
1108:.\Generated_Source\PSoC4/BLE.c ****     ***************************************************************************//**
1109:.\Generated_Source\PSoC4/BLE.c ****     * 
1110:.\Generated_Source\PSoC4/BLE.c ****     *  This function cancels a previously initiated connection with the remote 
1111:.\Generated_Source\PSoC4/BLE.c ****     *  device. It is a blocking function. No event is generated on calling this 
1112:.\Generated_Source\PSoC4/BLE.c ****     *  function. If the devices are already connected then this function should not
1113:.\Generated_Source\PSoC4/BLE.c ****     *  be used. If you intend to disconnect from an existing connection, the function
1114:.\Generated_Source\PSoC4/BLE.c ****     *  CyBle_GapDisconnect() should be used.
1115:.\Generated_Source\PSoC4/BLE.c ****     * 
1116:.\Generated_Source\PSoC4/BLE.c ****     * \return
ARM GAS  C:\Users\ADMINI~1\AppData\Local\Temp\ccIYPr3z.s 			page 21


1117:.\Generated_Source\PSoC4/BLE.c ****     *  CYBLE_API_RESULT_T : Return value indicates if the function succeeded or 
1118:.\Generated_Source\PSoC4/BLE.c ****     *  failed. Following are the possible error codes.
1119:.\Generated_Source\PSoC4/BLE.c ****     *
1120:.\Generated_Source\PSoC4/BLE.c ****     *   Errors codes                       | Description
1121:.\Generated_Source\PSoC4/BLE.c ****     *   ---------------------------------- | --------------------------------------
1122:.\Generated_Source\PSoC4/BLE.c ****     *   CYBLE_ERROR_OK                     | On successful operation.
1123:.\Generated_Source\PSoC4/BLE.c ****     *   CYBLE_ERROR_STACK_INTERNAL         | An error occurred in the BLE stack.
1124:.\Generated_Source\PSoC4/BLE.c ****     *   CYBLE_ERROR_INVALID_STATE          | On calling this API not in Connecting state.
1125:.\Generated_Source\PSoC4/BLE.c ****     *  
1126:.\Generated_Source\PSoC4/BLE.c ****     *******************************************************************************/
1127:.\Generated_Source\PSoC4/BLE.c ****     CYBLE_API_RESULT_T CyBle_GapcCancelDeviceConnection(void)
1128:.\Generated_Source\PSoC4/BLE.c ****     {
1129:.\Generated_Source\PSoC4/BLE.c ****         CYBLE_API_RESULT_T apiResult;
1130:.\Generated_Source\PSoC4/BLE.c ****         
1131:.\Generated_Source\PSoC4/BLE.c ****         if(CyBle_GetState() != CYBLE_STATE_CONNECTING)
1132:.\Generated_Source\PSoC4/BLE.c ****         {
1133:.\Generated_Source\PSoC4/BLE.c ****             apiResult = CYBLE_ERROR_INVALID_STATE;
1134:.\Generated_Source\PSoC4/BLE.c ****         }
1135:.\Generated_Source\PSoC4/BLE.c ****         else 
1136:.\Generated_Source\PSoC4/BLE.c ****         {
1137:.\Generated_Source\PSoC4/BLE.c ****             apiResult = CyBle_GapcCancelConnection();
1138:.\Generated_Source\PSoC4/BLE.c ****             
1139:.\Generated_Source\PSoC4/BLE.c ****             if(cyBle_connectingTimeout != 0u)
1140:.\Generated_Source\PSoC4/BLE.c ****             {
1141:.\Generated_Source\PSoC4/BLE.c ****                 (void)CyBle_StopTimer();
1142:.\Generated_Source\PSoC4/BLE.c ****             }
1143:.\Generated_Source\PSoC4/BLE.c **** 
1144:.\Generated_Source\PSoC4/BLE.c ****             if(apiResult == CYBLE_ERROR_OK)
1145:.\Generated_Source\PSoC4/BLE.c ****             {
1146:.\Generated_Source\PSoC4/BLE.c ****                 CyBle_SetState(CYBLE_STATE_DISCONNECTED);
1147:.\Generated_Source\PSoC4/BLE.c ****             }
1148:.\Generated_Source\PSoC4/BLE.c ****         }
1149:.\Generated_Source\PSoC4/BLE.c ****         return (apiResult);
1150:.\Generated_Source\PSoC4/BLE.c ****     }    
1151:.\Generated_Source\PSoC4/BLE.c **** 
1152:.\Generated_Source\PSoC4/BLE.c ****     
1153:.\Generated_Source\PSoC4/BLE.c **** #endif /* CYBLE_GAP_ROLE_CENTRAL */
1154:.\Generated_Source\PSoC4/BLE.c **** 
1155:.\Generated_Source\PSoC4/BLE.c **** 
1156:.\Generated_Source\PSoC4/BLE.c **** #if(CYBLE_GATT_ROLE_SERVER)
1157:.\Generated_Source\PSoC4/BLE.c **** 
1158:.\Generated_Source\PSoC4/BLE.c **** #if(CYBLE_GAP_ROLE_PERIPHERAL)
1159:.\Generated_Source\PSoC4/BLE.c **** 
1160:.\Generated_Source\PSoC4/BLE.c ****         /******************************************************************************
1161:.\Generated_Source\PSoC4/BLE.c ****         * Function Name: CyBle_ChangeAdLocalName
1162:.\Generated_Source\PSoC4/BLE.c ****         ***************************************************************************//**
1163:.\Generated_Source\PSoC4/BLE.c ****         *  This API is used to set the local device name in the advertisement or scan 
1164:.\Generated_Source\PSoC4/BLE.c ****         *  response data structure.
1165:.\Generated_Source\PSoC4/BLE.c ****         * 
1166:.\Generated_Source\PSoC4/BLE.c ****         *  \param name: The local device name string to be set in advertisement data 
1167:.\Generated_Source\PSoC4/BLE.c ****         *            structure.
1168:.\Generated_Source\PSoC4/BLE.c ****         *  \param dest: 0 - advertisement structure, not zero value selects scan response
1169:.\Generated_Source\PSoC4/BLE.c ****         *              structure.
1170:.\Generated_Source\PSoC4/BLE.c ****         * 
1171:.\Generated_Source\PSoC4/BLE.c ****         * \return
1172:.\Generated_Source\PSoC4/BLE.c ****         *  None
1173:.\Generated_Source\PSoC4/BLE.c ****         *  
ARM GAS  C:\Users\ADMINI~1\AppData\Local\Temp\ccIYPr3z.s 			page 22


1174:.\Generated_Source\PSoC4/BLE.c ****         *******************************************************************************/
1175:.\Generated_Source\PSoC4/BLE.c ****         static void CyBle_ChangeAdLocalName(const char8 name[], uint8 dest)
1176:.\Generated_Source\PSoC4/BLE.c ****         {
  25              		.loc 1 1176 0
  26              		.cfi_startproc
  27              	.LVL0:
  28 0000 70B5     		push	{r4, r5, r6, lr}
  29              		.cfi_def_cfa_offset 16
  30              		.cfi_offset 4, -16
  31              		.cfi_offset 5, -12
  32              		.cfi_offset 6, -8
  33              		.cfi_offset 14, -4
  34 0002 1C4B     		ldr	r3, .L21
1177:.\Generated_Source\PSoC4/BLE.c ****             uint8 i;
1178:.\Generated_Source\PSoC4/BLE.c ****             uint8 flag = 0u;
1179:.\Generated_Source\PSoC4/BLE.c ****             uint8 adLength = 0u;
1180:.\Generated_Source\PSoC4/BLE.c ****             uint8 byteCounter = 0u;
1181:.\Generated_Source\PSoC4/BLE.c ****             uint8 *destBuffer;
1182:.\Generated_Source\PSoC4/BLE.c ****             uint8 maxLength;
1183:.\Generated_Source\PSoC4/BLE.c ****             
1184:.\Generated_Source\PSoC4/BLE.c ****             if(dest == 0u)      /* Destination - advertising structure */
  35              		.loc 1 1184 0
  36 0004 0029     		cmp	r1, #0
  37 0006 05D1     		bne	.L2
  38              	.LVL1:
1185:.\Generated_Source\PSoC4/BLE.c ****             {
1186:.\Generated_Source\PSoC4/BLE.c ****                 destBuffer = cyBle_discoveryData.advData;
1187:.\Generated_Source\PSoC4/BLE.c ****                 maxLength = cyBle_discoveryData.advDataLen;
  39              		.loc 1 1187 0
  40 0008 DE7F     		ldrb	r6, [r3, #31]
  41              	.LVL2:
  42              	.L17:
1186:.\Generated_Source\PSoC4/BLE.c ****                 maxLength = cyBle_discoveryData.advDataLen;
  43              		.loc 1 1186 0
  44 000a 191C     		mov	r1, r3
  45              	.LVL3:
1188:.\Generated_Source\PSoC4/BLE.c ****             }
1189:.\Generated_Source\PSoC4/BLE.c ****             else                /* Destination - scan response structure */
1190:.\Generated_Source\PSoC4/BLE.c ****             {
1191:.\Generated_Source\PSoC4/BLE.c ****                 destBuffer = cyBle_scanRspData.scanRspData;
1192:.\Generated_Source\PSoC4/BLE.c ****                 maxLength = cyBle_scanRspData.scanRspDataLen;
1193:.\Generated_Source\PSoC4/BLE.c ****             }
1194:.\Generated_Source\PSoC4/BLE.c ****             
1195:.\Generated_Source\PSoC4/BLE.c ****             while((byteCounter < maxLength) && (0u == flag))
1196:.\Generated_Source\PSoC4/BLE.c ****             {
1197:.\Generated_Source\PSoC4/BLE.c ****                 adLength = destBuffer[byteCounter];
1198:.\Generated_Source\PSoC4/BLE.c ****                 
1199:.\Generated_Source\PSoC4/BLE.c ****                 if(0u != adLength)
1200:.\Generated_Source\PSoC4/BLE.c ****                 {
1201:.\Generated_Source\PSoC4/BLE.c ****                     /* Increment byte counter so it can point to AD type */
1202:.\Generated_Source\PSoC4/BLE.c ****                     byteCounter++;
1203:.\Generated_Source\PSoC4/BLE.c ****                     
1204:.\Generated_Source\PSoC4/BLE.c ****                     if((CYBLE_SHORT_LOCAL_NAME == destBuffer[byteCounter]) || 
1205:.\Generated_Source\PSoC4/BLE.c ****                        (CYBLE_COMPLETE_LOCAL_NAME == destBuffer[byteCounter]))
1206:.\Generated_Source\PSoC4/BLE.c ****                     {
1207:.\Generated_Source\PSoC4/BLE.c ****                         /* Start of the Local Name AD type was fount. Set flag and exit the loop. *
1208:.\Generated_Source\PSoC4/BLE.c ****                         flag = 1u;
ARM GAS  C:\Users\ADMINI~1\AppData\Local\Temp\ccIYPr3z.s 			page 23


  46              		.loc 1 1208 0
  47 000c 0023     		mov	r3, #0
  48 000e 1A1C     		mov	r2, r3
  49 0010 1C1C     		mov	r4, r3
  50 0012 11E0     		b	.L3
  51              	.LVL4:
  52              	.L2:
1192:.\Generated_Source\PSoC4/BLE.c ****             }
  53              		.loc 1 1192 0
  54 0014 1A1C     		mov	r2, r3
  55 0016 3F32     		add	r2, r2, #63
  56 0018 1678     		ldrb	r6, [r2]
  57              	.LVL5:
1191:.\Generated_Source\PSoC4/BLE.c ****                 maxLength = cyBle_scanRspData.scanRspDataLen;
  58              		.loc 1 1191 0
  59 001a 2033     		add	r3, r3, #32
  60 001c F5E7     		b	.L17
  61              	.LVL6:
  62              	.L19:
1195:.\Generated_Source\PSoC4/BLE.c ****             {
  63              		.loc 1 1195 0 discriminator 1
  64 001e 002C     		cmp	r4, #0
  65 0020 11D1     		bne	.L10
1197:.\Generated_Source\PSoC4/BLE.c ****                 
  66              		.loc 1 1197 0
  67 0022 CA5C     		ldrb	r2, [r1, r3]
  68              	.LVL7:
1199:.\Generated_Source\PSoC4/BLE.c ****                 {
  69              		.loc 1 1199 0
  70 0024 002A     		cmp	r2, #0
  71 0026 24D0     		beq	.L1
1202:.\Generated_Source\PSoC4/BLE.c ****                     
  72              		.loc 1 1202 0
  73 0028 0133     		add	r3, r3, #1
  74              	.LVL8:
  75 002a DBB2     		uxtb	r3, r3
  76              	.LVL9:
1204:.\Generated_Source\PSoC4/BLE.c ****                        (CYBLE_COMPLETE_LOCAL_NAME == destBuffer[byteCounter]))
  77              		.loc 1 1204 0
  78 002c CD5C     		ldrb	r5, [r1, r3]
  79 002e 083D     		sub	r5, r5, #8
  80 0030 012D     		cmp	r5, #1
  81 0032 04D9     		bls	.L16
1209:.\Generated_Source\PSoC4/BLE.c ****                     }
1210:.\Generated_Source\PSoC4/BLE.c ****                     else
1211:.\Generated_Source\PSoC4/BLE.c ****                     {
1212:.\Generated_Source\PSoC4/BLE.c ****                         byteCounter += adLength;
  82              		.loc 1 1212 0
  83 0034 D318     		add	r3, r2, r3
  84              	.LVL10:
  85 0036 DBB2     		uxtb	r3, r3
  86              	.LVL11:
  87              	.L3:
1195:.\Generated_Source\PSoC4/BLE.c ****             {
  88              		.loc 1 1195 0
  89 0038 B342     		cmp	r3, r6
  90 003a F0D3     		bcc	.L19
ARM GAS  C:\Users\ADMINI~1\AppData\Local\Temp\ccIYPr3z.s 			page 24


  91 003c 01E0     		b	.L7
  92              	.L16:
1208:.\Generated_Source\PSoC4/BLE.c ****                     }
  93              		.loc 1 1208 0
  94 003e 0124     		mov	r4, #1
  95              	.LVL12:
  96 0040 FAE7     		b	.L3
  97              	.LVL13:
  98              	.L7:
1213:.\Generated_Source\PSoC4/BLE.c ****                     }
1214:.\Generated_Source\PSoC4/BLE.c ****                 }
1215:.\Generated_Source\PSoC4/BLE.c ****                 else
1216:.\Generated_Source\PSoC4/BLE.c ****                 {
1217:.\Generated_Source\PSoC4/BLE.c ****                     /* The end of advertisement data structure was encountered though exit the loop
1218:.\Generated_Source\PSoC4/BLE.c ****                     break;
1219:.\Generated_Source\PSoC4/BLE.c ****                 }
1220:.\Generated_Source\PSoC4/BLE.c ****             }
1221:.\Generated_Source\PSoC4/BLE.c ****             
1222:.\Generated_Source\PSoC4/BLE.c ****             if(0u != flag)
  99              		.loc 1 1222 0
 100 0042 002C     		cmp	r4, #0
 101 0044 15D0     		beq	.L1
 102              	.L10:
1223:.\Generated_Source\PSoC4/BLE.c ****             {
1224:.\Generated_Source\PSoC4/BLE.c ****                 /* Reuse "adLength" to hold location of the last character of local name in 
1225:.\Generated_Source\PSoC4/BLE.c ****                    AD structure. */
1226:.\Generated_Source\PSoC4/BLE.c ****                 adLength += byteCounter;
 103              		.loc 1 1226 0
 104 0046 D218     		add	r2, r2, r3
 105              	.LVL14:
1227:.\Generated_Source\PSoC4/BLE.c ****                 
1228:.\Generated_Source\PSoC4/BLE.c ****                 /* Increment byte counter to point to start of the local Name string */
1229:.\Generated_Source\PSoC4/BLE.c ****                 byteCounter++;
 106              		.loc 1 1229 0
 107 0048 0133     		add	r3, r3, #1
 108              	.LVL15:
 109 004a DBB2     		uxtb	r3, r3
1226:.\Generated_Source\PSoC4/BLE.c ****                 
 110              		.loc 1 1226 0
 111 004c D4B2     		uxtb	r4, r2
 112              	.LVL16:
1230:.\Generated_Source\PSoC4/BLE.c ****                 
1231:.\Generated_Source\PSoC4/BLE.c ****                 for(i = byteCounter; ((i < (adLength)) && (CYBLE_NULL_CHARCTER != name[i - byteCoun
 113              		.loc 1 1231 0
 114 004e 1A1C     		mov	r2, r3
 115 0050 06E0     		b	.L9
 116              	.LVL17:
 117              	.L20:
 118              		.loc 1 1231 0 is_stmt 0 discriminator 3
 119 0052 D51A     		sub	r5, r2, r3
 120 0054 455D     		ldrb	r5, [r0, r5]
 121 0056 002D     		cmp	r5, #0
 122 0058 04D0     		beq	.L14
1232:.\Generated_Source\PSoC4/BLE.c ****                 {
1233:.\Generated_Source\PSoC4/BLE.c ****                     destBuffer[i] = (uint8)name[i - byteCounter];
 123              		.loc 1 1233 0 is_stmt 1 discriminator 4
 124 005a 8D54     		strb	r5, [r1, r2]
ARM GAS  C:\Users\ADMINI~1\AppData\Local\Temp\ccIYPr3z.s 			page 25


1231:.\Generated_Source\PSoC4/BLE.c ****                 {
 125              		.loc 1 1231 0 discriminator 4
 126 005c 0132     		add	r2, r2, #1
 127              	.LVL18:
 128 005e D2B2     		uxtb	r2, r2
 129              	.LVL19:
 130              	.L9:
1231:.\Generated_Source\PSoC4/BLE.c ****                 {
 131              		.loc 1 1231 0 is_stmt 0 discriminator 1
 132 0060 A242     		cmp	r2, r4
 133 0062 F6D3     		bcc	.L20
 134              	.LVL20:
 135              	.L14:
1234:.\Generated_Source\PSoC4/BLE.c ****                 }
1235:.\Generated_Source\PSoC4/BLE.c ****                 
1236:.\Generated_Source\PSoC4/BLE.c ****                 /* This loop handles the case when new local name is shorted than old one.
1237:.\Generated_Source\PSoC4/BLE.c ****                    In this case all remaining characters should be null characters. */
1238:.\Generated_Source\PSoC4/BLE.c ****                 while(adLength > i)
 136              		.loc 1 1238 0 is_stmt 1
 137 0064 9442     		cmp	r4, r2
 138 0066 04D9     		bls	.L1
1239:.\Generated_Source\PSoC4/BLE.c ****                 {
1240:.\Generated_Source\PSoC4/BLE.c ****                     /* Terminate string */
1241:.\Generated_Source\PSoC4/BLE.c ****                     destBuffer[i] = (uint8)CYBLE_NULL_CHARCTER;
 139              		.loc 1 1241 0
 140 0068 0023     		mov	r3, #0
 141 006a 8B54     		strb	r3, [r1, r2]
1242:.\Generated_Source\PSoC4/BLE.c ****                     i++;
 142              		.loc 1 1242 0
 143 006c 0132     		add	r2, r2, #1
 144              	.LVL21:
 145 006e D2B2     		uxtb	r2, r2
 146              	.LVL22:
 147 0070 F8E7     		b	.L14
 148              	.LVL23:
 149              	.L1:
1243:.\Generated_Source\PSoC4/BLE.c ****                 }
1244:.\Generated_Source\PSoC4/BLE.c ****             }
1245:.\Generated_Source\PSoC4/BLE.c ****         }
 150              		.loc 1 1245 0
 151              		@ sp needed
 152              	.LVL24:
 153 0072 70BD     		pop	{r4, r5, r6, pc}
 154              	.L22:
 155              		.align	2
 156              	.L21:
 157 0074 00000000 		.word	.LANCHOR0
 158              		.cfi_endproc
 159              	.LFE9:
 160              		.size	CyBle_ChangeAdLocalName, .-CyBle_ChangeAdLocalName
 161              		.section	.text.CyBle_ServiceInit,"ax",%progbits
 162              		.align	1
 163              		.global	CyBle_ServiceInit
 164              		.code	16
 165              		.thumb_func
 166              		.type	CyBle_ServiceInit, %function
 167              	CyBle_ServiceInit:
ARM GAS  C:\Users\ADMINI~1\AppData\Local\Temp\ccIYPr3z.s 			page 26


 168              	.LFB3:
 202:.\Generated_Source\PSoC4/BLE.c ****     #if(CYBLE_GATT_ROLE_CLIENT)
 169              		.loc 1 202 0
 170              		.cfi_startproc
 171 0000 08B5     		push	{r3, lr}
 172              		.cfi_def_cfa_offset 8
 173              		.cfi_offset 3, -8
 174              		.cfi_offset 14, -4
 224:.\Generated_Source\PSoC4/BLE.c ****     #endif /* CYBLE_BAS */
 175              		.loc 1 224 0
 176 0002 FFF7FEFF 		bl	CyBle_BasInit
 177              	.LVL25:
 338:.\Generated_Source\PSoC4/BLE.c **** 
 178              		.loc 1 338 0
 179              		@ sp needed
 256:.\Generated_Source\PSoC4/BLE.c ****     #endif /* CYBLE_CUSTOM */
 180              		.loc 1 256 0
 181 0006 FFF7FEFF 		bl	CyBle_CustomInit
 182              	.LVL26:
 260:.\Generated_Source\PSoC4/BLE.c ****     #endif /* CYBLE_DIS */
 183              		.loc 1 260 0
 184 000a FFF7FEFF 		bl	CyBle_DisInit
 185              	.LVL27:
 338:.\Generated_Source\PSoC4/BLE.c **** 
 186              		.loc 1 338 0
 187 000e 08BD     		pop	{r3, pc}
 188              		.cfi_endproc
 189              	.LFE3:
 190              		.size	CyBle_ServiceInit, .-CyBle_ServiceInit
 191              		.section	.text.CyBle_Init,"ax",%progbits
 192              		.align	1
 193              		.global	CyBle_Init
 194              		.code	16
 195              		.thumb_func
 196              		.type	CyBle_Init, %function
 197              	CyBle_Init:
 198              	.LFB2:
 153:.\Generated_Source\PSoC4/BLE.c ****     cyBle_eventHandlerFlag = 0u;
 199              		.loc 1 153 0
 200              		.cfi_startproc
 201 0000 08B5     		push	{r3, lr}
 202              		.cfi_def_cfa_offset 8
 203              		.cfi_offset 3, -8
 204              		.cfi_offset 14, -4
 154:.\Generated_Source\PSoC4/BLE.c ****     cyBle_busyStatus = CYBLE_STACK_STATE_FREE;
 205              		.loc 1 154 0
 206 0002 0023     		mov	r3, #0
 207 0004 044A     		ldr	r2, .L25
 188:.\Generated_Source\PSoC4/BLE.c **** 
 208              		.loc 1 188 0
 209              		@ sp needed
 154:.\Generated_Source\PSoC4/BLE.c ****     cyBle_busyStatus = CYBLE_STACK_STATE_FREE;
 210              		.loc 1 154 0
 211 0006 1370     		strb	r3, [r2]
 155:.\Generated_Source\PSoC4/BLE.c **** 
 212              		.loc 1 155 0
 213 0008 044A     		ldr	r2, .L25+4
ARM GAS  C:\Users\ADMINI~1\AppData\Local\Temp\ccIYPr3z.s 			page 27


 214 000a 1370     		strb	r3, [r2]
 158:.\Generated_Source\PSoC4/BLE.c ****     #endif /* (CYBLE_GAP_ROLE_PERIPHERAL || CYBLE_GAP_ROLE_BROADCASTER)  */
 215              		.loc 1 158 0
 216 000c 044A     		ldr	r2, .L25+8
 217 000e 1370     		strb	r3, [r2]
 181:.\Generated_Source\PSoC4/BLE.c **** 
 218              		.loc 1 181 0
 219 0010 FFF7FEFF 		bl	CyBle_ServiceInit
 220              	.LVL28:
 188:.\Generated_Source\PSoC4/BLE.c **** 
 221              		.loc 1 188 0
 222 0014 08BD     		pop	{r3, pc}
 223              	.L26:
 224 0016 C046     		.align	2
 225              	.L25:
 226 0018 00000000 		.word	cyBle_eventHandlerFlag
 227 001c 00000000 		.word	cyBle_busyStatus
 228 0020 00000000 		.word	cyBle_advertisingIntervalType
 229              		.cfi_endproc
 230              	.LFE2:
 231              		.size	CyBle_Init, .-CyBle_Init
 232              		.section	.text.CyBle_Start,"ax",%progbits
 233              		.align	1
 234              		.global	CyBle_Start
 235              		.code	16
 236              		.thumb_func
 237              		.type	CyBle_Start, %function
 238              	CyBle_Start:
 239              	.LFB4:
 400:.\Generated_Source\PSoC4/BLE.c ****     CYBLE_API_RESULT_T apiResult = CYBLE_ERROR_OK;
 240              		.loc 1 400 0
 241              		.cfi_startproc
 242              	.LVL29:
 243 0000 30B5     		push	{r4, r5, lr}
 244              		.cfi_def_cfa_offset 12
 245              		.cfi_offset 4, -12
 246              		.cfi_offset 5, -8
 247              		.cfi_offset 14, -4
 248 0002 91B0     		sub	sp, sp, #68
 249              		.cfi_def_cfa_offset 80
 400:.\Generated_Source\PSoC4/BLE.c ****     CYBLE_API_RESULT_T apiResult = CYBLE_ERROR_OK;
 250              		.loc 1 400 0
 251 0004 041C     		mov	r4, r0
 405:.\Generated_Source\PSoC4/BLE.c ****     {
 252              		.loc 1 405 0
 253 0006 1E49     		ldr	r1, .L31
 254 0008 0BA8     		add	r0, sp, #44
 255              	.LVL30:
 256 000a 1422     		mov	r2, #20
 257 000c FFF7FEFF 		bl	memcpy
 258              	.LVL31:
 417:.\Generated_Source\PSoC4/BLE.c ****     {
 259              		.loc 1 417 0
 260 0010 1C4D     		ldr	r5, .L31+4
 261 0012 2B78     		ldrb	r3, [r5]
 262 0014 002B     		cmp	r3, #0
 263 0016 03D1     		bne	.L28
ARM GAS  C:\Users\ADMINI~1\AppData\Local\Temp\ccIYPr3z.s 			page 28


 419:.\Generated_Source\PSoC4/BLE.c ****         cyBle_initVar = 1u;
 264              		.loc 1 419 0
 265 0018 FFF7FEFF 		bl	CyBle_Init
 266              	.LVL32:
 420:.\Generated_Source\PSoC4/BLE.c ****     }
 267              		.loc 1 420 0
 268 001c 0123     		mov	r3, #1
 269 001e 2B70     		strb	r3, [r5]
 270              	.L28:
 502:.\Generated_Source\PSoC4/BLE.c ****     }
 271              		.loc 1 502 0
 272 0020 0120     		mov	r0, #1
 423:.\Generated_Source\PSoC4/BLE.c ****     {
 273              		.loc 1 423 0
 274 0022 002C     		cmp	r4, #0
 275 0024 29D0     		beq	.L29
 425:.\Generated_Source\PSoC4/BLE.c ****         
 276              		.loc 1 425 0
 277 0026 184B     		ldr	r3, .L31+8
 278              	.LBB2:
 448:.\Generated_Source\PSoC4/BLE.c ****                                        CYBLE_SECURE_CONN_FEATURE;
 279              		.loc 1 448 0
 280 0028 0021     		mov	r1, #0
 281              	.LBE2:
 425:.\Generated_Source\PSoC4/BLE.c ****         
 282              		.loc 1 425 0
 283 002a 1C60     		str	r4, [r3]
 284              	.LBB3:
 452:.\Generated_Source\PSoC4/BLE.c ****             dleConfigParams.dleMaxRxCapability = CYBLE_LL_MAX_RX_PAYLOAD_SIZE;
 285              		.loc 1 452 0
 286 002c 1B24     		mov	r4, #27
 287              	.LVL33:
 444:.\Generated_Source\PSoC4/BLE.c ****             stackConfig.dleConfig = &dleConfigParams;
 288              		.loc 1 444 0
 289 002e 08A8     		add	r0, sp, #32
 290 0030 05AA     		add	r2, sp, #20
 445:.\Generated_Source\PSoC4/BLE.c ****             
 291              		.loc 1 445 0
 292 0032 06AB     		add	r3, sp, #24
 448:.\Generated_Source\PSoC4/BLE.c ****                                        CYBLE_SECURE_CONN_FEATURE;
 293              		.loc 1 448 0
 294 0034 0181     		strh	r1, [r0, #8]
 460:.\Generated_Source\PSoC4/BLE.c ****         #if(CYBLE_LL_PRIVACY_FEATURE_ENABLED)
 295              		.loc 1 460 0
 296 0036 1170     		strb	r1, [r2]
 465:.\Generated_Source\PSoC4/BLE.c ****             }
 297              		.loc 1 465 0
 298 0038 1631     		add	r1, r1, #22
 452:.\Generated_Source\PSoC4/BLE.c ****             dleConfigParams.dleMaxRxCapability = CYBLE_LL_MAX_RX_PAYLOAD_SIZE;
 299              		.loc 1 452 0
 300 003a 1C80     		strh	r4, [r3]
 453:.\Generated_Source\PSoC4/BLE.c ****             dleConfigParams.dleNumTxBuffer = CYBLE_LL_DEFAULT_NUM_ACL_TX_PACKETS;
 301              		.loc 1 453 0
 302 003c 5C80     		strh	r4, [r3, #2]
 465:.\Generated_Source\PSoC4/BLE.c ****             }
 303              		.loc 1 465 0
 304 003e 6944     		add	r1, r1, sp
ARM GAS  C:\Users\ADMINI~1\AppData\Local\Temp\ccIYPr3z.s 			page 29


 454:.\Generated_Source\PSoC4/BLE.c ****         #if(CYBLE_DLE_FEATURE_ENABLED)
 305              		.loc 1 454 0
 306 0040 173C     		sub	r4, r4, #23
 444:.\Generated_Source\PSoC4/BLE.c ****             stackConfig.dleConfig = &dleConfigParams;
 307              		.loc 1 444 0
 308 0042 4260     		str	r2, [r0, #4]
 445:.\Generated_Source\PSoC4/BLE.c ****             
 309              		.loc 1 445 0
 310 0044 0893     		str	r3, [sp, #32]
 454:.\Generated_Source\PSoC4/BLE.c ****         #if(CYBLE_DLE_FEATURE_ENABLED)
 311              		.loc 1 454 0
 312 0046 1C71     		strb	r4, [r3, #4]
 465:.\Generated_Source\PSoC4/BLE.c ****             }
 313              		.loc 1 465 0
 314 0048 FFF7FEFF 		bl	CyBle_StackSetFeatureConfig
 315              	.LVL34:
 316              	.LBE3:
 468:.\Generated_Source\PSoC4/BLE.c ****         {
 317              		.loc 1 468 0
 318 004c 0028     		cmp	r0, #0
 319 004e 14D1     		bne	.L29
 477:.\Generated_Source\PSoC4/BLE.c ****                     CYBLE_STACK_RAM_SIZE - CYBLE_GATT_PREPARE_WRITE_BUFF_LEN, cyBle_stackDataBuff, 
 320              		.loc 1 477 0
 321 0050 0523     		mov	r3, #5
 322 0052 AE22     		mov	r2, #174
 323 0054 0093     		str	r3, [sp]
 324 0056 0190     		str	r0, [sp, #4]
 325 0058 0290     		str	r0, [sp, #8]
 326 005a 0C49     		ldr	r1, .L31+12
 327 005c 0C48     		ldr	r0, .L31+16
 328              	.LVL35:
 329 005e 1201     		lsl	r2, r2, #4
 330 0060 0BAB     		add	r3, sp, #44
 331 0062 FFF7FEFF 		bl	CyBle_StackInit
 332              	.LVL36:
 486:.\Generated_Source\PSoC4/BLE.c ****             {
 333              		.loc 1 486 0
 334 0066 0028     		cmp	r0, #0
 335 0068 07D1     		bne	.L29
 488:.\Generated_Source\PSoC4/BLE.c ****                 
 336              		.loc 1 488 0
 337 006a 0122     		mov	r2, #1
 338 006c 094B     		ldr	r3, .L31+20
 495:.\Generated_Source\PSoC4/BLE.c ****             #endif /* CYBLE_GATT_ROLE_SERVER */
 339              		.loc 1 495 0
 340 006e 0A48     		ldr	r0, .L31+24
 341              	.LVL37:
 488:.\Generated_Source\PSoC4/BLE.c ****                 
 342              		.loc 1 488 0
 343 0070 1A70     		strb	r2, [r3]
 495:.\Generated_Source\PSoC4/BLE.c ****             #endif /* CYBLE_GATT_ROLE_SERVER */
 344              		.loc 1 495 0
 345 0072 3021     		mov	r1, #48
 346 0074 8F32     		add	r2, r2, #143
 347 0076 FFF7FEFF 		bl	CyBle_GattsDbRegister
 348              	.LVL38:
 349              	.L29:
ARM GAS  C:\Users\ADMINI~1\AppData\Local\Temp\ccIYPr3z.s 			page 30


 506:.\Generated_Source\PSoC4/BLE.c **** 
 350              		.loc 1 506 0
 351 007a 11B0     		add	sp, sp, #68
 352              		@ sp needed
 353 007c 30BD     		pop	{r4, r5, pc}
 354              	.L32:
 355 007e C046     		.align	2
 356              	.L31:
 357 0080 00000000 		.word	.LANCHOR1
 358 0084 00000000 		.word	.LANCHOR2
 359 0088 00000000 		.word	CyBle_ApplCallback
 360 008c 00000000 		.word	.LANCHOR3
 361 0090 00000000 		.word	CyBle_EventHandler
 362 0094 00000000 		.word	cyBle_state
 363 0098 00000000 		.word	cyBle_gattDB
 364              		.cfi_endproc
 365              	.LFE4:
 366              		.size	CyBle_Start, .-CyBle_Start
 367              		.section	.text.CyBle_Stop,"ax",%progbits
 368              		.align	1
 369              		.global	CyBle_Stop
 370              		.code	16
 371              		.thumb_func
 372              		.type	CyBle_Stop, %function
 373              	CyBle_Stop:
 374              	.LFB5:
 522:.\Generated_Source\PSoC4/BLE.c ****     CyBle_Shutdown();                         /* Stop all ongoing activities */
 375              		.loc 1 522 0
 376              		.cfi_startproc
 377 0000 08B5     		push	{r3, lr}
 378              		.cfi_def_cfa_offset 8
 379              		.cfi_offset 3, -8
 380              		.cfi_offset 14, -4
 523:.\Generated_Source\PSoC4/BLE.c ****     CyBle_SetState(CYBLE_STATE_STOPPED);
 381              		.loc 1 523 0
 382 0002 FFF7FEFF 		bl	CyBle_Shutdown
 383              	.LVL39:
 524:.\Generated_Source\PSoC4/BLE.c ****     #if(CYBLE_SHARING_MODE_EXPORT)
 384              		.loc 1 524 0
 385 0006 0022     		mov	r2, #0
 386 0008 014B     		ldr	r3, .L34
 531:.\Generated_Source\PSoC4/BLE.c **** 
 387              		.loc 1 531 0
 388              		@ sp needed
 524:.\Generated_Source\PSoC4/BLE.c ****     #if(CYBLE_SHARING_MODE_EXPORT)
 389              		.loc 1 524 0
 390 000a 1A70     		strb	r2, [r3]
 531:.\Generated_Source\PSoC4/BLE.c **** 
 391              		.loc 1 531 0
 392 000c 08BD     		pop	{r3, pc}
 393              	.L35:
 394 000e C046     		.align	2
 395              	.L34:
 396 0010 00000000 		.word	cyBle_state
 397              		.cfi_endproc
 398              	.LFE5:
 399              		.size	CyBle_Stop, .-CyBle_Stop
ARM GAS  C:\Users\ADMINI~1\AppData\Local\Temp\ccIYPr3z.s 			page 31


 400              		.section	.text.CyBle_GappStartAdvertisement,"ax",%progbits
 401              		.align	1
 402              		.global	CyBle_GappStartAdvertisement
 403              		.code	16
 404              		.thumb_func
 405              		.type	CyBle_GappStartAdvertisement, %function
 406              	CyBle_GappStartAdvertisement:
 407              	.LFB6:
 774:.\Generated_Source\PSoC4/BLE.c ****         CYBLE_API_RESULT_T apiResult;
 408              		.loc 1 774 0
 409              		.cfi_startproc
 410              	.LVL40:
 411 0000 021C     		mov	r2, r0
 412 0002 10B5     		push	{r4, lr}
 413              		.cfi_def_cfa_offset 8
 414              		.cfi_offset 4, -8
 415              		.cfi_offset 14, -4
 779:.\Generated_Source\PSoC4/BLE.c ****         }
 416              		.loc 1 779 0
 417 0004 0120     		mov	r0, #1
 418              	.LVL41:
 777:.\Generated_Source\PSoC4/BLE.c ****         {
 419              		.loc 1 777 0
 420 0006 022A     		cmp	r2, #2
 421 0008 30D8     		bhi	.L37
 781:.\Generated_Source\PSoC4/BLE.c ****         {   
 422              		.loc 1 781 0
 423 000a 194B     		ldr	r3, .L44
 424 000c 1B78     		ldrb	r3, [r3]
 425 000e 042B     		cmp	r3, #4
 426 0010 2AD1     		bne	.L42
 781:.\Generated_Source\PSoC4/BLE.c ****         {   
 427              		.loc 1 781 0 is_stmt 0 discriminator 1
 428 0012 184C     		ldr	r4, .L44+4
 429 0014 2178     		ldrb	r1, [r4]
 430 0016 1942     		tst	r1, r3
 431 0018 26D1     		bne	.L42
 432 001a 174B     		ldr	r3, .L44+8
 783:.\Generated_Source\PSoC4/BLE.c ****             {
 433              		.loc 1 783 0 is_stmt 1
 434 001c 002A     		cmp	r2, #0
 435 001e 09D1     		bne	.L38
 785:.\Generated_Source\PSoC4/BLE.c ****                 cyBle_discoveryModeInfo.advParam->advIntvMin = CYBLE_FAST_ADV_INT_MIN;
 436              		.loc 1 785 0
 437 0020 191C     		mov	r1, r3
 438 0022 1D30     		add	r0, r0, #29
 439 0024 5031     		add	r1, r1, #80
 440 0026 0880     		strh	r0, [r1]
 786:.\Generated_Source\PSoC4/BLE.c ****                 cyBle_discoveryModeInfo.advParam->advIntvMax = CYBLE_FAST_ADV_INT_MAX;
 441              		.loc 1 786 0
 442 0028 596C     		ldr	r1, [r3, #68]
 443 002a 0330     		add	r0, r0, #3
 444 002c FF30     		add	r0, r0, #255
 445 002e 0880     		strh	r0, [r1]
 787:.\Generated_Source\PSoC4/BLE.c ****             }
 446              		.loc 1 787 0
 447 0030 2030     		add	r0, r0, #32
ARM GAS  C:\Users\ADMINI~1\AppData\Local\Temp\ccIYPr3z.s 			page 32


 448 0032 0BE0     		b	.L43
 449              	.L38:
 789:.\Generated_Source\PSoC4/BLE.c ****             {
 450              		.loc 1 789 0
 451 0034 012A     		cmp	r2, #1
 452 0036 0AD1     		bne	.L39
 791:.\Generated_Source\PSoC4/BLE.c ****                 cyBle_discoveryModeInfo.advParam->advIntvMin = CYBLE_SLOW_ADV_INT_MIN;
 453              		.loc 1 791 0
 454 0038 191C     		mov	r1, r3
 455 003a 9620     		mov	r0, #150
 456 003c 5031     		add	r1, r1, #80
 457 003e 0880     		strh	r0, [r1]
 792:.\Generated_Source\PSoC4/BLE.c ****                 cyBle_discoveryModeInfo.advParam->advIntvMax = CYBLE_SLOW_ADV_INT_MAX;
 458              		.loc 1 792 0
 459 0040 C820     		mov	r0, #200
 460 0042 596C     		ldr	r1, [r3, #68]
 461 0044 C000     		lsl	r0, r0, #3
 462 0046 0880     		strh	r0, [r1]
 793:.\Generated_Source\PSoC4/BLE.c ****             }       
 463              		.loc 1 793 0
 464 0048 FA20     		mov	r0, #250
 465 004a 0001     		lsl	r0, r0, #4
 466              	.L43:
 467 004c 4880     		strh	r0, [r1, #2]
 468              	.L39:
 798:.\Generated_Source\PSoC4/BLE.c ****             apiResult = CyBle_GappEnterDiscoveryMode(&cyBle_discoveryModeInfo);
 469              		.loc 1 798 0
 470 004e 0B49     		ldr	r1, .L44+12
 799:.\Generated_Source\PSoC4/BLE.c ****         
 471              		.loc 1 799 0
 472 0050 4033     		add	r3, r3, #64
 473 0052 181C     		mov	r0, r3
 798:.\Generated_Source\PSoC4/BLE.c ****             apiResult = CyBle_GappEnterDiscoveryMode(&cyBle_discoveryModeInfo);
 474              		.loc 1 798 0
 475 0054 0A70     		strb	r2, [r1]
 799:.\Generated_Source\PSoC4/BLE.c ****         
 476              		.loc 1 799 0
 477 0056 FFF7FEFF 		bl	CyBle_GappEnterDiscoveryMode
 478              	.LVL42:
 801:.\Generated_Source\PSoC4/BLE.c ****             {
 479              		.loc 1 801 0
 480 005a 0028     		cmp	r0, #0
 481 005c 06D1     		bne	.L37
 803:.\Generated_Source\PSoC4/BLE.c ****             }
 482              		.loc 1 803 0
 483 005e 0422     		mov	r2, #4
 484 0060 2378     		ldrb	r3, [r4]
 485 0062 1343     		orr	r3, r2
 486 0064 2370     		strb	r3, [r4]
 487 0066 01E0     		b	.L37
 488              	.LVL43:
 489              	.L42:
 808:.\Generated_Source\PSoC4/BLE.c ****         }
 490              		.loc 1 808 0
 491 0068 0420     		mov	r0, #4
 492 006a FF30     		add	r0, r0, #255
 493              	.L37:
ARM GAS  C:\Users\ADMINI~1\AppData\Local\Temp\ccIYPr3z.s 			page 33


 494              	.LVL44:
 812:.\Generated_Source\PSoC4/BLE.c **** 
 495              		.loc 1 812 0
 496              		@ sp needed
 497 006c 10BD     		pop	{r4, pc}
 498              	.L45:
 499 006e C046     		.align	2
 500              	.L44:
 501 0070 00000000 		.word	cyBle_state
 502 0074 00000000 		.word	cyBle_eventHandlerFlag
 503 0078 00000000 		.word	.LANCHOR0
 504 007c 00000000 		.word	cyBle_advertisingIntervalType
 505              		.cfi_endproc
 506              	.LFE6:
 507              		.size	CyBle_GappStartAdvertisement, .-CyBle_GappStartAdvertisement
 508              		.section	.text.CyBle_GappStopAdvertisement,"ax",%progbits
 509              		.align	1
 510              		.global	CyBle_GappStopAdvertisement
 511              		.code	16
 512              		.thumb_func
 513              		.type	CyBle_GappStopAdvertisement, %function
 514              	CyBle_GappStopAdvertisement:
 515              	.LFB7:
 835:.\Generated_Source\PSoC4/BLE.c ****         CyBle_GappExitDiscoveryMode();
 516              		.loc 1 835 0
 517              		.cfi_startproc
 518 0000 08B5     		push	{r3, lr}
 519              		.cfi_def_cfa_offset 8
 520              		.cfi_offset 3, -8
 521              		.cfi_offset 14, -4
 836:.\Generated_Source\PSoC4/BLE.c ****         cyBle_eventHandlerFlag |= CYBLE_STOP_FLAG;
 522              		.loc 1 836 0
 523 0002 FFF7FEFF 		bl	CyBle_GappExitDiscoveryMode
 524              	.LVL45:
 837:.\Generated_Source\PSoC4/BLE.c ****     }
 525              		.loc 1 837 0
 526 0006 0821     		mov	r1, #8
 527 0008 024A     		ldr	r2, .L47
 838:.\Generated_Source\PSoC4/BLE.c ****     
 528              		.loc 1 838 0
 529              		@ sp needed
 837:.\Generated_Source\PSoC4/BLE.c ****     }
 530              		.loc 1 837 0
 531 000a 1378     		ldrb	r3, [r2]
 532 000c 0B43     		orr	r3, r1
 533 000e 1370     		strb	r3, [r2]
 838:.\Generated_Source\PSoC4/BLE.c ****     
 534              		.loc 1 838 0
 535 0010 08BD     		pop	{r3, pc}
 536              	.L48:
 537 0012 C046     		.align	2
 538              	.L47:
 539 0014 00000000 		.word	cyBle_eventHandlerFlag
 540              		.cfi_endproc
 541              	.LFE7:
 542              		.size	CyBle_GappStopAdvertisement, .-CyBle_GappStopAdvertisement
 543              		.section	.text.CyBle_ChangeAdDeviceAddress,"ax",%progbits
ARM GAS  C:\Users\ADMINI~1\AppData\Local\Temp\ccIYPr3z.s 			page 34


 544              		.align	1
 545              		.global	CyBle_ChangeAdDeviceAddress
 546              		.code	16
 547              		.thumb_func
 548              		.type	CyBle_ChangeAdDeviceAddress, %function
 549              	CyBle_ChangeAdDeviceAddress:
 550              	.LFB8:
 857:.\Generated_Source\PSoC4/BLE.c ****         uint8 i;
 551              		.loc 1 857 0
 552              		.cfi_startproc
 553              	.LVL46:
 884:.\Generated_Source\PSoC4/BLE.c ****   
 554              		.loc 1 884 0
 555              		@ sp needed
 556 0000 7047     		bx	lr
 557              		.cfi_endproc
 558              	.LFE8:
 559              		.size	CyBle_ChangeAdDeviceAddress, .-CyBle_ChangeAdDeviceAddress
 560              		.section	.text.CyBle_GapSetLocalName,"ax",%progbits
 561              		.align	1
 562              		.global	CyBle_GapSetLocalName
 563              		.code	16
 564              		.thumb_func
 565              		.type	CyBle_GapSetLocalName, %function
 566              	CyBle_GapSetLocalName:
 567              	.LFB10:
1246:.\Generated_Source\PSoC4/BLE.c ****         
1247:.\Generated_Source\PSoC4/BLE.c **** #endif /* (CYBLE_GAP_ROLE_PERIPHERAL) */  
1248:.\Generated_Source\PSoC4/BLE.c ****     
1249:.\Generated_Source\PSoC4/BLE.c ****     
1250:.\Generated_Source\PSoC4/BLE.c ****     /******************************************************************************
1251:.\Generated_Source\PSoC4/BLE.c ****     * Function Name: CyBle_GapSetLocalName
1252:.\Generated_Source\PSoC4/BLE.c ****     ***************************************************************************//**
1253:.\Generated_Source\PSoC4/BLE.c ****     *  This API is used to set the local device name - a Characteristic of the 
1254:.\Generated_Source\PSoC4/BLE.c ****     *  GAP Service. If the characteristic length entered in the component customizer
1255:.\Generated_Source\PSoC4/BLE.c ****     *  is shorter than the string specified by the "name" parameter, the local device
1256:.\Generated_Source\PSoC4/BLE.c ****     *  name will be cut to the length specified in the customizer.
1257:.\Generated_Source\PSoC4/BLE.c ****     * 
1258:.\Generated_Source\PSoC4/BLE.c ****     *  \param name: The local device name string. The name string to be written as
1259:.\Generated_Source\PSoC4/BLE.c ****     *              the local device name. It represents a UTF-8 encoded User
1260:.\Generated_Source\PSoC4/BLE.c ****     *              Friendly Descriptive Name for the device. The length of the local
1261:.\Generated_Source\PSoC4/BLE.c ****     *              device string is entered into the component customizer and it can
1262:.\Generated_Source\PSoC4/BLE.c ****     *              be set to a value from 0 to 248 bytes. If the name contained in
1263:.\Generated_Source\PSoC4/BLE.c ****     *              the parameter is shorter than the length from the customizer, the
1264:.\Generated_Source\PSoC4/BLE.c ****     *              end of the name is indicated by a NULL octet (0x00).
1265:.\Generated_Source\PSoC4/BLE.c ****     * 
1266:.\Generated_Source\PSoC4/BLE.c ****     * \return
1267:.\Generated_Source\PSoC4/BLE.c ****     *  CYBLE_API_RESULT_T : Return value indicates if the function succeeded or 
1268:.\Generated_Source\PSoC4/BLE.c ****     *  failed. Following are the possible error codes.
1269:.\Generated_Source\PSoC4/BLE.c ****     *
1270:.\Generated_Source\PSoC4/BLE.c ****     *   Errors codes                       | Description
1271:.\Generated_Source\PSoC4/BLE.c ****     *   ------------                       | -----------
1272:.\Generated_Source\PSoC4/BLE.c ****     *   CYBLE_ERROR_OK                     | Function completed successfully.
1273:.\Generated_Source\PSoC4/BLE.c ****     *   CYBLE_ERROR_INVALID_PARAMETER      | On specifying NULL as input parameter
1274:.\Generated_Source\PSoC4/BLE.c ****     *  
1275:.\Generated_Source\PSoC4/BLE.c ****     *******************************************************************************/
1276:.\Generated_Source\PSoC4/BLE.c ****     CYBLE_API_RESULT_T CyBle_GapSetLocalName(const char8 name[])
ARM GAS  C:\Users\ADMINI~1\AppData\Local\Temp\ccIYPr3z.s 			page 35


1277:.\Generated_Source\PSoC4/BLE.c ****     {
 568              		.loc 1 1277 0
 569              		.cfi_startproc
 570              	.LVL47:
 571 0000 10B5     		push	{r4, lr}
 572              		.cfi_def_cfa_offset 8
 573              		.cfi_offset 4, -8
 574              		.cfi_offset 14, -4
1278:.\Generated_Source\PSoC4/BLE.c ****         CYBLE_API_RESULT_T apiResult = CYBLE_ERROR_OK;
1279:.\Generated_Source\PSoC4/BLE.c ****         uint8 i;
1280:.\Generated_Source\PSoC4/BLE.c ****         char8 *ptr;
1281:.\Generated_Source\PSoC4/BLE.c ****         uint8 charLen;
1282:.\Generated_Source\PSoC4/BLE.c **** 
1283:.\Generated_Source\PSoC4/BLE.c ****         if(NULL != name)
1284:.\Generated_Source\PSoC4/BLE.c ****         {
1285:.\Generated_Source\PSoC4/BLE.c ****             /* Get the pointer to the Device Name characteristic  */
1286:.\Generated_Source\PSoC4/BLE.c ****             ptr = (char8 *) CYBLE_GATT_DB_ATTR_GET_ATTR_GEN_PTR(CYBLE_GAP_DEVICE_NAME_INDEX + 1u);
1287:.\Generated_Source\PSoC4/BLE.c **** 
1288:.\Generated_Source\PSoC4/BLE.c ****             /* First need to get the maximum length of the characteristic data in the GATT
1289:.\Generated_Source\PSoC4/BLE.c ****                 database to make sure there is enough place for the data. The length
1290:.\Generated_Source\PSoC4/BLE.c ****                 can't be longer than 248, so only the LSB of 16 bit of length is to
1291:.\Generated_Source\PSoC4/BLE.c ****                 be used. */
1292:.\Generated_Source\PSoC4/BLE.c ****             charLen = (uint8)CYBLE_GATT_DB_ATTR_GET_ATTR_GEN_MAX_LEN(CYBLE_GAP_DEVICE_NAME_INDEX + 
1293:.\Generated_Source\PSoC4/BLE.c **** 
1294:.\Generated_Source\PSoC4/BLE.c ****             /* Copy name into characteristic */
1295:.\Generated_Source\PSoC4/BLE.c ****             for(i = 0u; ((i < charLen) && (CYBLE_NULL_CHARCTER != name[i])); i++)
1296:.\Generated_Source\PSoC4/BLE.c ****             {
1297:.\Generated_Source\PSoC4/BLE.c ****                 ptr[i] = name[i];
1298:.\Generated_Source\PSoC4/BLE.c ****             }
1299:.\Generated_Source\PSoC4/BLE.c **** 
1300:.\Generated_Source\PSoC4/BLE.c ****             if(i < charLen)
1301:.\Generated_Source\PSoC4/BLE.c ****             {
1302:.\Generated_Source\PSoC4/BLE.c ****                 /* Terminate string */
1303:.\Generated_Source\PSoC4/BLE.c ****                 ptr[i] = CYBLE_NULL_CHARCTER;
1304:.\Generated_Source\PSoC4/BLE.c ****             }
1305:.\Generated_Source\PSoC4/BLE.c ****             
1306:.\Generated_Source\PSoC4/BLE.c ****             /* Set new actual length */
1307:.\Generated_Source\PSoC4/BLE.c ****             
1308:.\Generated_Source\PSoC4/BLE.c ****             /* Update device name in advertising and scan response structure */
1309:.\Generated_Source\PSoC4/BLE.c ****             #if(CYBLE_GAP_ROLE_PERIPHERAL)
1310:.\Generated_Source\PSoC4/BLE.c ****                 CyBle_ChangeAdLocalName(name, 0u);
1311:.\Generated_Source\PSoC4/BLE.c ****                 CyBle_ChangeAdLocalName(name, 1u);
1312:.\Generated_Source\PSoC4/BLE.c ****             #endif /* (CYBLE_GAP_ROLE_PERIPHERAL) */
1313:.\Generated_Source\PSoC4/BLE.c ****         }
1314:.\Generated_Source\PSoC4/BLE.c ****         else
1315:.\Generated_Source\PSoC4/BLE.c ****         {
1316:.\Generated_Source\PSoC4/BLE.c ****             apiResult = CYBLE_ERROR_INVALID_PARAMETER;
 575              		.loc 1 1316 0
 576 0002 0123     		mov	r3, #1
1283:.\Generated_Source\PSoC4/BLE.c ****         {
 577              		.loc 1 1283 0
 578 0004 0028     		cmp	r0, #0
 579 0006 18D0     		beq	.L57
1286:.\Generated_Source\PSoC4/BLE.c **** 
 580              		.loc 1 1286 0
 581 0008 0D4B     		ldr	r3, .L60
 582 000a 9A6B     		ldr	r2, [r3, #56]
ARM GAS  C:\Users\ADMINI~1\AppData\Local\Temp\ccIYPr3z.s 			page 36


1292:.\Generated_Source\PSoC4/BLE.c **** 
 583              		.loc 1 1292 0
 584 000c 998E     		ldrh	r1, [r3, #52]
1295:.\Generated_Source\PSoC4/BLE.c ****             {
 585              		.loc 1 1295 0
 586 000e 0023     		mov	r3, #0
1286:.\Generated_Source\PSoC4/BLE.c **** 
 587              		.loc 1 1286 0
 588 0010 5468     		ldr	r4, [r2, #4]
 589              	.LVL48:
1292:.\Generated_Source\PSoC4/BLE.c **** 
 590              		.loc 1 1292 0
 591 0012 C9B2     		uxtb	r1, r1
 592              	.LVL49:
 593              	.L52:
1295:.\Generated_Source\PSoC4/BLE.c ****             {
 594              		.loc 1 1295 0 discriminator 1
 595 0014 DAB2     		uxtb	r2, r3
 596 0016 8A42     		cmp	r2, r1
 597 0018 06D2     		bcs	.L53
1295:.\Generated_Source\PSoC4/BLE.c ****             {
 598              		.loc 1 1295 0 is_stmt 0 discriminator 3
 599 001a C25C     		ldrb	r2, [r0, r3]
 600 001c 002A     		cmp	r2, #0
 601 001e 02D0     		beq	.L59
1297:.\Generated_Source\PSoC4/BLE.c ****             }
 602              		.loc 1 1297 0 is_stmt 1 discriminator 4
 603 0020 E254     		strb	r2, [r4, r3]
 604              	.LVL50:
 605 0022 0133     		add	r3, r3, #1
 606              	.LVL51:
 607 0024 F6E7     		b	.L52
 608              	.LVL52:
 609              	.L59:
1303:.\Generated_Source\PSoC4/BLE.c ****             }
 610              		.loc 1 1303 0
 611 0026 E254     		strb	r2, [r4, r3]
 612              	.L53:
 613 0028 041C     		mov	r4, r0
 614              	.LVL53:
1310:.\Generated_Source\PSoC4/BLE.c ****                 CyBle_ChangeAdLocalName(name, 1u);
 615              		.loc 1 1310 0
 616 002a 0021     		mov	r1, #0
 617              	.LVL54:
 618 002c FFF7FEFF 		bl	CyBle_ChangeAdLocalName
 619              	.LVL55:
1311:.\Generated_Source\PSoC4/BLE.c ****             #endif /* (CYBLE_GAP_ROLE_PERIPHERAL) */
 620              		.loc 1 1311 0
 621 0030 201C     		mov	r0, r4
 622 0032 0121     		mov	r1, #1
 623 0034 FFF7FEFF 		bl	CyBle_ChangeAdLocalName
 624              	.LVL56:
1278:.\Generated_Source\PSoC4/BLE.c ****         uint8 i;
 625              		.loc 1 1278 0
 626 0038 0023     		mov	r3, #0
 627              	.LVL57:
 628              	.L57:
ARM GAS  C:\Users\ADMINI~1\AppData\Local\Temp\ccIYPr3z.s 			page 37


1317:.\Generated_Source\PSoC4/BLE.c ****         }
1318:.\Generated_Source\PSoC4/BLE.c ****         
1319:.\Generated_Source\PSoC4/BLE.c ****         return(apiResult);
1320:.\Generated_Source\PSoC4/BLE.c ****     }
 629              		.loc 1 1320 0
 630 003a 181C     		mov	r0, r3
 631              		@ sp needed
 632 003c 10BD     		pop	{r4, pc}
 633              	.L61:
 634 003e C046     		.align	2
 635              	.L60:
 636 0040 00000000 		.word	cyBle_gattDB
 637              		.cfi_endproc
 638              	.LFE10:
 639              		.size	CyBle_GapSetLocalName, .-CyBle_GapSetLocalName
 640              		.section	.text.CyBle_GapGetLocalName,"ax",%progbits
 641              		.align	1
 642              		.global	CyBle_GapGetLocalName
 643              		.code	16
 644              		.thumb_func
 645              		.type	CyBle_GapGetLocalName, %function
 646              	CyBle_GapGetLocalName:
 647              	.LFB11:
1321:.\Generated_Source\PSoC4/BLE.c **** 
1322:.\Generated_Source\PSoC4/BLE.c **** 
1323:.\Generated_Source\PSoC4/BLE.c ****     /******************************************************************************
1324:.\Generated_Source\PSoC4/BLE.c ****     * Function Name: CyBle_GapGetLocalName
1325:.\Generated_Source\PSoC4/BLE.c ****     ***************************************************************************//**
1326:.\Generated_Source\PSoC4/BLE.c ****     *  
1327:.\Generated_Source\PSoC4/BLE.c ****     *  This API is used to read the local device name - a Characteristic of the 
1328:.\Generated_Source\PSoC4/BLE.c ****     *  GAP Service.
1329:.\Generated_Source\PSoC4/BLE.c ****     * 
1330:.\Generated_Source\PSoC4/BLE.c ****     * \param name: The local device name string. Used to read the local name to the
1331:.\Generated_Source\PSoC4/BLE.c ****     *             given string array. It represents a UTF-8 encoded User Friendly 
1332:.\Generated_Source\PSoC4/BLE.c ****     *             Descriptive Name for the device. The length of the local device
1333:.\Generated_Source\PSoC4/BLE.c ****     *             string is entered into the component customizer and it can be set
1334:.\Generated_Source\PSoC4/BLE.c ****     *             to a value from 0 to 248 bytes. If the name contained in the
1335:.\Generated_Source\PSoC4/BLE.c ****     *             parameter is shorter than the length from the customizer, the end
1336:.\Generated_Source\PSoC4/BLE.c ****     *             of the name is indicated by a NULL octet (0x00).
1337:.\Generated_Source\PSoC4/BLE.c ****     * 
1338:.\Generated_Source\PSoC4/BLE.c ****     * \return
1339:.\Generated_Source\PSoC4/BLE.c ****     *  CYBLE_API_RESULT_T : Return value indicates if the function succeeded or 
1340:.\Generated_Source\PSoC4/BLE.c ****     *  failed. Following are the possible error codes.
1341:.\Generated_Source\PSoC4/BLE.c ****     *
1342:.\Generated_Source\PSoC4/BLE.c ****     *   Errors codes                       | Description
1343:.\Generated_Source\PSoC4/BLE.c ****     *   ------------                       | -----------
1344:.\Generated_Source\PSoC4/BLE.c ****     *   CYBLE_ERROR_OK                     | Function completed successfully.
1345:.\Generated_Source\PSoC4/BLE.c ****     *   CYBLE_ERROR_INVALID_PARAMETER      | On specifying NULL as input parameter
1346:.\Generated_Source\PSoC4/BLE.c ****     *
1347:.\Generated_Source\PSoC4/BLE.c ****     *******************************************************************************/
1348:.\Generated_Source\PSoC4/BLE.c ****     CYBLE_API_RESULT_T CyBle_GapGetLocalName(char8 name[])
1349:.\Generated_Source\PSoC4/BLE.c ****     {
 648              		.loc 1 1349 0
 649              		.cfi_startproc
 650              	.LVL58:
 651 0000 021C     		mov	r2, r0
 652 0002 30B5     		push	{r4, r5, lr}
ARM GAS  C:\Users\ADMINI~1\AppData\Local\Temp\ccIYPr3z.s 			page 38


 653              		.cfi_def_cfa_offset 12
 654              		.cfi_offset 4, -12
 655              		.cfi_offset 5, -8
 656              		.cfi_offset 14, -4
1350:.\Generated_Source\PSoC4/BLE.c ****         CYBLE_API_RESULT_T apiResult = CYBLE_ERROR_OK;
1351:.\Generated_Source\PSoC4/BLE.c ****         uint8 charLen;
1352:.\Generated_Source\PSoC4/BLE.c ****         uint8 i;
1353:.\Generated_Source\PSoC4/BLE.c ****         char8 *ptr;
1354:.\Generated_Source\PSoC4/BLE.c **** 
1355:.\Generated_Source\PSoC4/BLE.c ****         if(NULL != name)
1356:.\Generated_Source\PSoC4/BLE.c ****         {
1357:.\Generated_Source\PSoC4/BLE.c ****             /* Get the pointer to the Device Name characteristic  */
1358:.\Generated_Source\PSoC4/BLE.c ****             ptr = (char8 *) CYBLE_GATT_DB_ATTR_GET_ATTR_GEN_PTR(CYBLE_GAP_DEVICE_NAME_INDEX + 1u);
1359:.\Generated_Source\PSoC4/BLE.c **** 
1360:.\Generated_Source\PSoC4/BLE.c ****             /* First need to get the length of the characteristic data in the GATT
1361:.\Generated_Source\PSoC4/BLE.c ****                 database to make sure there is enough place for the data. The length
1362:.\Generated_Source\PSoC4/BLE.c ****                 can't be longer than 248, so only the LSB of 16 bit of length is to
1363:.\Generated_Source\PSoC4/BLE.c ****                 be used. */
1364:.\Generated_Source\PSoC4/BLE.c ****             charLen = (uint8)CYBLE_GATT_DB_ATTR_GET_ATTR_GEN_LEN(CYBLE_GAP_DEVICE_NAME_INDEX + 1u);
1365:.\Generated_Source\PSoC4/BLE.c **** 
1366:.\Generated_Source\PSoC4/BLE.c ****             /* Copy name from characteristic */
1367:.\Generated_Source\PSoC4/BLE.c ****             for(i = 0u; ((i < charLen) && (CYBLE_NULL_CHARCTER != ptr[i])); i++)
1368:.\Generated_Source\PSoC4/BLE.c ****             {
1369:.\Generated_Source\PSoC4/BLE.c ****                 name[i] = ptr[i];
1370:.\Generated_Source\PSoC4/BLE.c ****             }
1371:.\Generated_Source\PSoC4/BLE.c **** 
1372:.\Generated_Source\PSoC4/BLE.c ****             /* Terminate string */
1373:.\Generated_Source\PSoC4/BLE.c ****             name[i] = CYBLE_NULL_CHARCTER;
1374:.\Generated_Source\PSoC4/BLE.c ****         }
1375:.\Generated_Source\PSoC4/BLE.c ****         else
1376:.\Generated_Source\PSoC4/BLE.c ****         {
1377:.\Generated_Source\PSoC4/BLE.c ****             apiResult = CYBLE_ERROR_INVALID_PARAMETER;
 657              		.loc 1 1377 0
 658 0004 0120     		mov	r0, #1
 659              	.LVL59:
1355:.\Generated_Source\PSoC4/BLE.c ****         {
 660              		.loc 1 1355 0
 661 0006 002A     		cmp	r2, #0
 662 0008 11D0     		beq	.L63
1358:.\Generated_Source\PSoC4/BLE.c **** 
 663              		.loc 1 1358 0
 664 000a 094B     		ldr	r3, .L69
 665 000c 9B6B     		ldr	r3, [r3, #56]
 666 000e 5C68     		ldr	r4, [r3, #4]
 667              	.LVL60:
1364:.\Generated_Source\PSoC4/BLE.c **** 
 668              		.loc 1 1364 0
 669 0010 1D78     		ldrb	r5, [r3]
 670              	.LVL61:
1367:.\Generated_Source\PSoC4/BLE.c ****             {
 671              		.loc 1 1367 0
 672 0012 0023     		mov	r3, #0
 673              	.LVL62:
 674              	.L64:
 675 0014 D9B2     		uxtb	r1, r3
 676              	.LVL63:
1367:.\Generated_Source\PSoC4/BLE.c ****             {
ARM GAS  C:\Users\ADMINI~1\AppData\Local\Temp\ccIYPr3z.s 			page 39


 677              		.loc 1 1367 0 is_stmt 0 discriminator 1
 678 0016 A942     		cmp	r1, r5
 679 0018 03D3     		bcc	.L65
 680              	.L67:
1373:.\Generated_Source\PSoC4/BLE.c ****         }
 681              		.loc 1 1373 0 is_stmt 1
 682 001a 0023     		mov	r3, #0
 683 001c 5354     		strb	r3, [r2, r1]
1350:.\Generated_Source\PSoC4/BLE.c ****         uint8 charLen;
 684              		.loc 1 1350 0
 685 001e 181C     		mov	r0, r3
 686 0020 05E0     		b	.L63
 687              	.L65:
1367:.\Generated_Source\PSoC4/BLE.c ****             {
 688              		.loc 1 1367 0 discriminator 3
 689 0022 E05C     		ldrb	r0, [r4, r3]
 690 0024 0028     		cmp	r0, #0
 691 0026 F8D0     		beq	.L67
1369:.\Generated_Source\PSoC4/BLE.c ****             }
 692              		.loc 1 1369 0 discriminator 4
 693 0028 D054     		strb	r0, [r2, r3]
 694              	.LVL64:
 695 002a 0133     		add	r3, r3, #1
 696              	.LVL65:
 697 002c F2E7     		b	.L64
 698              	.LVL66:
 699              	.L63:
1378:.\Generated_Source\PSoC4/BLE.c ****         }
1379:.\Generated_Source\PSoC4/BLE.c ****         
1380:.\Generated_Source\PSoC4/BLE.c ****         return(apiResult);
1381:.\Generated_Source\PSoC4/BLE.c ****     }
 700              		.loc 1 1381 0
 701              		@ sp needed
 702 002e 30BD     		pop	{r4, r5, pc}
 703              	.L70:
 704              		.align	2
 705              	.L69:
 706 0030 00000000 		.word	cyBle_gattDB
 707              		.cfi_endproc
 708              	.LFE11:
 709              		.size	CyBle_GapGetLocalName, .-CyBle_GapGetLocalName
 710              		.section	.text.CyBle_Get16ByPtr,"ax",%progbits
 711              		.align	1
 712              		.global	CyBle_Get16ByPtr
 713              		.code	16
 714              		.thumb_func
 715              		.type	CyBle_Get16ByPtr, %function
 716              	CyBle_Get16ByPtr:
 717              	.LFB12:
1382:.\Generated_Source\PSoC4/BLE.c **** 
1383:.\Generated_Source\PSoC4/BLE.c **** #endif /* (CYBLE_GATT_ROLE_SERVER) */
1384:.\Generated_Source\PSoC4/BLE.c **** 
1385:.\Generated_Source\PSoC4/BLE.c **** 
1386:.\Generated_Source\PSoC4/BLE.c **** /******************************************************************************
1387:.\Generated_Source\PSoC4/BLE.c **** * Function Name: CyBle_Get16ByPtr
1388:.\Generated_Source\PSoC4/BLE.c **** ***************************************************************************//**
1389:.\Generated_Source\PSoC4/BLE.c **** * 
ARM GAS  C:\Users\ADMINI~1\AppData\Local\Temp\ccIYPr3z.s 			page 40


1390:.\Generated_Source\PSoC4/BLE.c **** *  Returns the two-bytes value by using a pointer to the LSB.
1391:.\Generated_Source\PSoC4/BLE.c **** * 
1392:.\Generated_Source\PSoC4/BLE.c **** *  \param ptr: Pointer to the LSB of two-bytes data (little endian).
1393:.\Generated_Source\PSoC4/BLE.c **** * 
1394:.\Generated_Source\PSoC4/BLE.c **** *  \return
1395:.\Generated_Source\PSoC4/BLE.c **** *  uint16: Two-bytes data.
1396:.\Generated_Source\PSoC4/BLE.c **** * 
1397:.\Generated_Source\PSoC4/BLE.c **** ******************************************************************************/
1398:.\Generated_Source\PSoC4/BLE.c **** uint16 CyBle_Get16ByPtr(const uint8 ptr[])
1399:.\Generated_Source\PSoC4/BLE.c **** {
 718              		.loc 1 1399 0
 719              		.cfi_startproc
 720              	.LVL67:
1400:.\Generated_Source\PSoC4/BLE.c ****     return ((uint16) ptr[0u] | ((uint16) (((uint16) ptr[1u]) << 8u)));
 721              		.loc 1 1400 0
 722 0000 4378     		ldrb	r3, [r0, #1]
 723 0002 0078     		ldrb	r0, [r0]
 724              	.LVL68:
 725 0004 1B02     		lsl	r3, r3, #8
 726 0006 1843     		orr	r0, r3
1401:.\Generated_Source\PSoC4/BLE.c **** }
 727              		.loc 1 1401 0
 728              		@ sp needed
 729 0008 7047     		bx	lr
 730              		.cfi_endproc
 731              	.LFE12:
 732              		.size	CyBle_Get16ByPtr, .-CyBle_Get16ByPtr
 733              		.section	.text.CyBle_Set16ByPtr,"ax",%progbits
 734              		.align	1
 735              		.global	CyBle_Set16ByPtr
 736              		.code	16
 737              		.thumb_func
 738              		.type	CyBle_Set16ByPtr, %function
 739              	CyBle_Set16ByPtr:
 740              	.LFB13:
1402:.\Generated_Source\PSoC4/BLE.c **** 
1403:.\Generated_Source\PSoC4/BLE.c **** 
1404:.\Generated_Source\PSoC4/BLE.c **** /******************************************************************************
1405:.\Generated_Source\PSoC4/BLE.c **** * Function Name: CyBle_Set16ByPtr
1406:.\Generated_Source\PSoC4/BLE.c **** ***************************************************************************//**
1407:.\Generated_Source\PSoC4/BLE.c **** * 
1408:.\Generated_Source\PSoC4/BLE.c **** *  Sets the two-bytes value by using a pointer to the LSB.
1409:.\Generated_Source\PSoC4/BLE.c **** * 
1410:.\Generated_Source\PSoC4/BLE.c **** *  \param ptr:    Pointer to the LSB of two-bytes data (little endian).
1411:.\Generated_Source\PSoC4/BLE.c **** *  \param value:  Two-bytes data to be written.
1412:.\Generated_Source\PSoC4/BLE.c **** * 
1413:.\Generated_Source\PSoC4/BLE.c **** *  \return
1414:.\Generated_Source\PSoC4/BLE.c **** *  None
1415:.\Generated_Source\PSoC4/BLE.c **** * 
1416:.\Generated_Source\PSoC4/BLE.c **** ******************************************************************************/
1417:.\Generated_Source\PSoC4/BLE.c **** void CyBle_Set16ByPtr(uint8 ptr[], uint16 value)
1418:.\Generated_Source\PSoC4/BLE.c **** {
 741              		.loc 1 1418 0
 742              		.cfi_startproc
 743              	.LVL69:
1419:.\Generated_Source\PSoC4/BLE.c ****     ptr[0u] = (uint8) value;
 744              		.loc 1 1419 0
ARM GAS  C:\Users\ADMINI~1\AppData\Local\Temp\ccIYPr3z.s 			page 41


 745 0000 0170     		strb	r1, [r0]
1420:.\Generated_Source\PSoC4/BLE.c ****     ptr[1u] = (uint8) (value >> 8u);
 746              		.loc 1 1420 0
 747 0002 090A     		lsr	r1, r1, #8
 748              	.LVL70:
 749 0004 4170     		strb	r1, [r0, #1]
1421:.\Generated_Source\PSoC4/BLE.c **** }
 750              		.loc 1 1421 0
 751              		@ sp needed
 752 0006 7047     		bx	lr
 753              		.cfi_endproc
 754              	.LFE13:
 755              		.size	CyBle_Set16ByPtr, .-CyBle_Set16ByPtr
 756              		.global	cyBle_sflashDeviceAddress
 757              		.global	cyBle_deviceAddress
 758              		.comm	CyBle_ApplCallback,4,4
 759              		.global	cyBle_discoveryModeInfo
 760              		.global	cyBle_scanRspData
 761              		.global	cyBle_discoveryData
 762              		.global	cyBle_discoveryParam
 763              		.global	cyBle_stackMemoryRam
 764              		.global	cyBle_initVar
 765              		.section	.rodata
 766              		.align	1
 767              		.set	.LANCHOR1,. + 0
 768              	.LC0:
 769 0000 2400     		.short	36
 770 0002 03       		.byte	3
 771 0003 00       		.space	1
 772 0004 3000     		.short	48
 773 0006 01       		.byte	1
 774 0007 00       		.space	1
 775 0008 2800     		.short	40
 776 000a 02       		.byte	2
 777 000b 00       		.space	1
 778 000c 2400     		.short	36
 779 000e 01       		.byte	1
 780 000f 00       		.space	1
 781 0010 2400     		.short	36
 782 0012 01       		.byte	1
 783 0013 00       		.space	1
 784              		.data
 785              		.align	2
 786              		.set	.LANCHOR0,. + 0
 787              		.type	cyBle_discoveryData, %object
 788              		.size	cyBle_discoveryData, 32
 789              	cyBle_discoveryData:
 790 0000 02       		.byte	2
 791 0001 01       		.byte	1
 792 0002 06       		.byte	6
 793 0003 09       		.byte	9
 794 0004 09       		.byte	9
 795 0005 42       		.byte	66
 796 0006 61       		.byte	97
 797 0007 63       		.byte	99
 798 0008 6B       		.byte	107
 799 0009 62       		.byte	98
ARM GAS  C:\Users\ADMINI~1\AppData\Local\Temp\ccIYPr3z.s 			page 42


 800 000a 6F       		.byte	111
 801 000b 6E       		.byte	110
 802 000c 65       		.byte	101
 803 000d 05       		.byte	5
 804 000e 03       		.byte	3
 805 000f 0A       		.byte	10
 806 0010 18       		.byte	24
 807 0011 0F       		.byte	15
 808 0012 18       		.byte	24
 809 0013 00       		.byte	0
 810 0014 00       		.byte	0
 811 0015 00       		.byte	0
 812 0016 00       		.byte	0
 813 0017 00       		.byte	0
 814 0018 00       		.byte	0
 815 0019 00       		.byte	0
 816 001a 00       		.byte	0
 817 001b 00       		.byte	0
 818 001c 00       		.byte	0
 819 001d 00       		.byte	0
 820 001e 00       		.byte	0
 821 001f 13       		.byte	19
 822              		.type	cyBle_scanRspData, %object
 823              		.size	cyBle_scanRspData, 32
 824              	cyBle_scanRspData:
 825 0020 09       		.byte	9
 826 0021 09       		.byte	9
 827 0022 42       		.byte	66
 828 0023 61       		.byte	97
 829 0024 63       		.byte	99
 830 0025 6B       		.byte	107
 831 0026 62       		.byte	98
 832 0027 6F       		.byte	111
 833 0028 6E       		.byte	110
 834 0029 65       		.byte	101
 835 002a 03       		.byte	3
 836 002b 02       		.byte	2
 837 002c 0A       		.byte	10
 838 002d 18       		.byte	24
 839 002e 00       		.byte	0
 840 002f 00       		.byte	0
 841 0030 00       		.byte	0
 842 0031 00       		.byte	0
 843 0032 00       		.byte	0
 844 0033 00       		.byte	0
 845 0034 00       		.byte	0
 846 0035 00       		.byte	0
 847 0036 00       		.byte	0
 848 0037 00       		.byte	0
 849 0038 00       		.byte	0
 850 0039 00       		.byte	0
 851 003a 00       		.byte	0
 852 003b 00       		.byte	0
 853 003c 00       		.byte	0
 854 003d 00       		.byte	0
 855 003e 00       		.byte	0
 856 003f 0E       		.byte	14
ARM GAS  C:\Users\ADMINI~1\AppData\Local\Temp\ccIYPr3z.s 			page 43


 857              		.type	cyBle_discoveryModeInfo, %object
 858              		.size	cyBle_discoveryModeInfo, 20
 859              	cyBle_discoveryModeInfo:
 860 0040 02       		.byte	2
 861 0041 000000   		.space	3
 862 0044 00000000 		.word	cyBle_discoveryParam
 863 0048 00000000 		.word	cyBle_discoveryData
 864 004c 00000000 		.word	cyBle_scanRspData
 865 0050 1E00     		.short	30
 866 0052 0000     		.space	2
 867              		.type	cyBle_sflashDeviceAddress, %object
 868              		.size	cyBle_sflashDeviceAddress, 4
 869              	cyBle_sflashDeviceAddress:
 870 0054 00F2FF0F 		.word	268431872
 871              		.type	cyBle_deviceAddress, %object
 872              		.size	cyBle_deviceAddress, 7
 873              	cyBle_deviceAddress:
 874 0058 00       		.byte	0
 875 0059 00       		.byte	0
 876 005a 00       		.byte	0
 877 005b 50       		.byte	80
 878 005c A0       		.byte	-96
 879 005d 00       		.byte	0
 880 005e 00       		.byte	0
 881 005f 00       		.space	1
 882              		.type	cyBle_discoveryParam, %object
 883              		.size	cyBle_discoveryParam, 16
 884              	cyBle_discoveryParam:
 885 0060 2001     		.short	288
 886 0062 4001     		.short	320
 887 0064 00       		.byte	0
 888 0065 00       		.byte	0
 889 0066 00       		.byte	0
 890 0067 00       		.byte	0
 891 0068 00       		.byte	0
 892 0069 00       		.byte	0
 893 006a 50       		.byte	80
 894 006b A0       		.byte	-96
 895 006c 00       		.byte	0
 896 006d 07       		.byte	7
 897 006e 00       		.byte	0
 898 006f 00       		.space	1
 899              		.section	.noinit,"aw",%progbits
 900              		.align	3
 901              		.set	.LANCHOR3,. + 0
 902              		.type	cyBle_stackMemoryRam, %object
 903              		.size	cyBle_stackMemoryRam, 3056
 904              	cyBle_stackMemoryRam:
 905 0000 00000000 		.space	3056
 905      00000000 
 905      00000000 
 905      00000000 
 905      00000000 
 906              		.bss
 907              		.set	.LANCHOR2,. + 0
 908              		.type	cyBle_initVar, %object
 909              		.size	cyBle_initVar, 1
ARM GAS  C:\Users\ADMINI~1\AppData\Local\Temp\ccIYPr3z.s 			page 44


 910              	cyBle_initVar:
 911 0000 00       		.space	1
 912              		.text
 913              	.Letext0:
 914              		.file 2 ".\\Generated_Source\\PSoC4\\cytypes.h"
 915              		.file 3 ".\\Generated_Source\\PSoC4\\BLE_Stack.h"
 916              		.file 4 ".\\Generated_Source\\PSoC4\\BLE_StackGap.h"
 917              		.file 5 ".\\Generated_Source\\PSoC4\\BLE_StackGattDb.h"
 918              		.file 6 ".\\Generated_Source\\PSoC4\\BLE.h"
 919              		.file 7 ".\\Generated_Source\\PSoC4\\BLE_dis.h"
 920              		.file 8 ".\\Generated_Source\\PSoC4\\BLE_eventHandler.h"
 921              		.file 9 ".\\Generated_Source\\PSoC4\\BLE_gatt.h"
 922              		.file 10 ".\\Generated_Source\\PSoC4\\BLE_bas.h"
 923              		.file 11 ".\\Generated_Source\\PSoC4\\BLE_custom.h"