ARM GAS  C:\Users\ADMINI~1\AppData\Local\Temp\cc2ReiUL.s 			page 1


   1              		.cpu cortex-m0
   2              		.fpu softvfp
   3              		.eabi_attribute 20, 1
   4              		.eabi_attribute 21, 1
   5              		.eabi_attribute 23, 3
   6              		.eabi_attribute 24, 1
   7              		.eabi_attribute 25, 1
   8              		.eabi_attribute 26, 1
   9              		.eabi_attribute 30, 4
  10              		.eabi_attribute 34, 0
  11              		.eabi_attribute 18, 4
  12              		.code	16
  13              		.file	"BLEApplications.c"
  14              		.text
  15              	.Ltext0:
  16              		.cfi_sections	.debug_frame
  17              		.section	.text.CustomEventHandler,"ax",%progbits
  18              		.align	1
  19              		.global	CustomEventHandler
  20              		.code	16
  21              		.thumb_func
  22              		.type	CustomEventHandler, %function
  23              	CustomEventHandler:
  24              	.LFB37:
  25              		.file 1 ".\\BLEApplications.c"
   1:.\BLEApplications.c **** /******************************************************************************
   2:.\BLEApplications.c **** * Project Name		: PSoC_4_BLE_CapSense_Slider_LED
   3:.\BLEApplications.c **** * File Name			: BLEApplications.c
   4:.\BLEApplications.c **** * Version 			: 1.0
   5:.\BLEApplications.c **** * Device Used		: CY8C4247LQI-BL483
   6:.\BLEApplications.c **** * Software Used		: PSoC Creator 3.3 SP1
   7:.\BLEApplications.c **** * Compiler    		: ARM GCC 4.9.3, ARM MDK Generic
   8:.\BLEApplications.c **** * Related Hardware	: CY8CKIT-042-BLE Bluetooth Low Energy Pioneer Kit 
   9:.\BLEApplications.c **** * Owner             : ROIT
  10:.\BLEApplications.c **** *
  11:.\BLEApplications.c **** ********************************************************************************
  12:.\BLEApplications.c **** * Copyright (2015-16), Cypress Semiconductor Corporation. All Rights Reserved.
  13:.\BLEApplications.c **** ********************************************************************************
  14:.\BLEApplications.c **** * This software is owned by Cypress Semiconductor Corporation (Cypress)
  15:.\BLEApplications.c **** * and is protected by and subject to worldwide patent protection (United
  16:.\BLEApplications.c **** * States and foreign), United States copyright laws and international treaty
  17:.\BLEApplications.c **** * provisions. Cypress hereby grants to licensee a personal, non-exclusive,
  18:.\BLEApplications.c **** * non-transferable license to copy, use, modify, create derivative works of,
  19:.\BLEApplications.c **** * and compile the Cypress Source Code and derivative works for the sole
  20:.\BLEApplications.c **** * purpose of creating custom software in support of licensee product to be
  21:.\BLEApplications.c **** * used only in conjunction with a Cypress integrated circuit as specified in
  22:.\BLEApplications.c **** * the applicable agreement. Any reproduction, modification, translation,
  23:.\BLEApplications.c **** * compilation, or representation of this software except as specified above 
  24:.\BLEApplications.c **** * is prohibited without the express written permission of Cypress.
  25:.\BLEApplications.c **** *
  26:.\BLEApplications.c **** * Disclaimer: CYPRESS MAKES NO WARRANTY OF ANY KIND, EXPRESS OR IMPLIED, WITH 
  27:.\BLEApplications.c **** * REGARD TO THIS MATERIAL, INCLUDING, BUT NOT LIMITED TO, THE IMPLIED 
  28:.\BLEApplications.c **** * WARRANTIES OF MERCHANTABILITY AND FITNESS FOR A PARTICULAR PURPOSE.
  29:.\BLEApplications.c **** * Cypress reserves the right to make changes without further notice to the 
  30:.\BLEApplications.c **** * materials described herein. Cypress does not assume any liability arising out 
  31:.\BLEApplications.c **** * of the application or use of any product or circuit described herein. Cypress 
  32:.\BLEApplications.c **** * does not authorize its products for use as critical components in life-support 
ARM GAS  C:\Users\ADMINI~1\AppData\Local\Temp\cc2ReiUL.s 			page 2


  33:.\BLEApplications.c **** * systems where a malfunction or failure may reasonably be expected to result in 
  34:.\BLEApplications.c **** * significant injury to the user. The inclusion of Cypress' product in a life-
  35:.\BLEApplications.c **** * support systems application implies that the manufacturer assumes all risk of 
  36:.\BLEApplications.c **** * such use and in doing so indemnifies Cypress against all charges. 
  37:.\BLEApplications.c **** *
  38:.\BLEApplications.c **** * Use of this Software may be limited by and subject to the applicable Cypress
  39:.\BLEApplications.c **** * software license agreement. 
  40:.\BLEApplications.c **** *******************************************************************************/
  41:.\BLEApplications.c **** #include <main.h>
  42:.\BLEApplications.c **** #include <BLEApplications.h>
  43:.\BLEApplications.c **** #include <OTAMandatory.h>
  44:.\BLEApplications.c **** 
  45:.\BLEApplications.c **** /**************************Variable Declarations*****************************/
  46:.\BLEApplications.c **** static const uint8 EnterBootloaderKey[8] = {0x11, 0x22, 0x33, 0x44, 0x55, 0x66, 0x77, 0x88};
  47:.\BLEApplications.c **** 
  48:.\BLEApplications.c **** /* 'connectionHandle' stores connection parameters */
  49:.\BLEApplications.c **** CYBLE_CONN_HANDLE_T  connectionHandle;
  50:.\BLEApplications.c **** 
  51:.\BLEApplications.c **** /*This flag is set when the Central device writes to CCCD (Client Characteristic 
  52:.\BLEApplications.c **** * Configuration Descriptor) of the CapSense slider Characteristic to enable 
  53:.\BLEApplications.c **** * notifications */
  54:.\BLEApplications.c **** uint8 SendAccelNotifications = FALSE;
  55:.\BLEApplications.c **** uint8 SendGyroNotifications = FALSE;
  56:.\BLEApplications.c **** uint8 SendPedometerNotifications = FALSE;
  57:.\BLEApplications.c **** uint8 SendVersionInfoNotifications = FALSE;
  58:.\BLEApplications.c **** 
  59:.\BLEApplications.c **** /* This flag is used by application to know whether a Central 
  60:.\BLEApplications.c **** * device has been connected. This is updated in BLE event callback 
  61:.\BLEApplications.c **** * function*/
  62:.\BLEApplications.c **** uint8 deviceConnected = FALSE;
  63:.\BLEApplications.c **** 
  64:.\BLEApplications.c **** /* 'restartAdvertisement' flag provided the present state of power mode in firmware */
  65:.\BLEApplications.c **** uint8 restartAdvertisement = FALSE;
  66:.\BLEApplications.c **** 
  67:.\BLEApplications.c **** /* This flag is used to let application send a L2CAP connection update request
  68:.\BLEApplications.c **** * to Central device */
  69:.\BLEApplications.c **** static uint8 isConnectionUpdateRequested = TRUE;
  70:.\BLEApplications.c **** 
  71:.\BLEApplications.c **** /* Connection Parameter update values. This values are used by the BLE component
  72:.\BLEApplications.c **** * to update the connector parameter, including connection interval, to desired 
  73:.\BLEApplications.c **** * value */
  74:.\BLEApplications.c **** static CYBLE_GAP_CONN_UPDATE_PARAM_T ConnectionParam =
  75:.\BLEApplications.c **** {
  76:.\BLEApplications.c ****     CONN_PARAM_UPDATE_MIN_CONN_INTERVAL,  		      
  77:.\BLEApplications.c ****     CONN_PARAM_UPDATE_MAX_CONN_INTERVAL,		       
  78:.\BLEApplications.c ****     CONN_PARAM_UPDATE_SLAVE_LATENCY,			    
  79:.\BLEApplications.c ****     CONN_PARAM_UPDATE_SUPRV_TIMEOUT 			         	
  80:.\BLEApplications.c **** };
  81:.\BLEApplications.c **** 
  82:.\BLEApplications.c **** /* This flag is used to switch between CPU Deep Sleep and Sleep, depending on
  83:.\BLEApplications.c **** * the status of RGB LED color values received. This method allows to conserve 
  84:.\BLEApplications.c **** * more power while LED usage */
  85:.\BLEApplications.c **** uint8 shut_down_led = TRUE;
  86:.\BLEApplications.c **** 
  87:.\BLEApplications.c **** /* Status flag for the Stack Busy state. This flag is used to notify the application 
  88:.\BLEApplications.c **** * whether there is stack buffer free to push more data or not */
  89:.\BLEApplications.c **** uint8 busyStatus = 0;
ARM GAS  C:\Users\ADMINI~1\AppData\Local\Temp\cc2ReiUL.s 			page 3


  90:.\BLEApplications.c **** 
  91:.\BLEApplications.c **** /* Local variable to store the current CCCD value */
  92:.\BLEApplications.c **** uint8 CapSenseCCCDvalue[2];
  93:.\BLEApplications.c **** uint8 RGBCCCDvalue[2];
  94:.\BLEApplications.c **** uint8 AccelCCCDValue[2];
  95:.\BLEApplications.c **** uint8 GyroCCCDValue[2];
  96:.\BLEApplications.c **** uint8 PedometerCCCDValue[2];
  97:.\BLEApplications.c **** uint8 VersionInfoCCCDValue[2];
  98:.\BLEApplications.c **** 
  99:.\BLEApplications.c **** /* Handle value to update the CCCD */
 100:.\BLEApplications.c **** CYBLE_GATT_HANDLE_VALUE_PAIR_T AccelNotificationHandle;
 101:.\BLEApplications.c **** CYBLE_GATT_HANDLE_VALUE_PAIR_T GyroNotificationHandle;
 102:.\BLEApplications.c **** CYBLE_GATT_HANDLE_VALUE_PAIR_T PedometerNotificationHandle;
 103:.\BLEApplications.c **** CYBLE_GATT_HANDLE_VALUE_PAIR_T VersionInfoNotificationHandle;
 104:.\BLEApplications.c **** 
 105:.\BLEApplications.c **** /****************************************************************************/
 106:.\BLEApplications.c **** 
 107:.\BLEApplications.c **** /*******************************************************************************
 108:.\BLEApplications.c **** * Function Name: CustomEventHandler
 109:.\BLEApplications.c **** ********************************************************************************
 110:.\BLEApplications.c **** * Summary:
 111:.\BLEApplications.c **** *        Call back event function to handle various events from BLE stack
 112:.\BLEApplications.c **** *
 113:.\BLEApplications.c **** * Parameters:
 114:.\BLEApplications.c **** *  event:		event returned
 115:.\BLEApplications.c **** *  eventParam:	link to value of the events returned
 116:.\BLEApplications.c **** *
 117:.\BLEApplications.c **** * Return:
 118:.\BLEApplications.c **** *  void
 119:.\BLEApplications.c **** *
 120:.\BLEApplications.c **** *******************************************************************************/
 121:.\BLEApplications.c **** void CustomEventHandler(uint32 event, void * eventParam)
 122:.\BLEApplications.c **** {
  26              		.loc 1 122 0
  27              		.cfi_startproc
  28              	.LVL0:
  29 0000 38B5     		push	{r3, r4, r5, lr}
  30              		.cfi_def_cfa_offset 16
  31              		.cfi_offset 3, -16
  32              		.cfi_offset 4, -12
  33              		.cfi_offset 5, -8
  34              		.cfi_offset 14, -4
  35              		.loc 1 122 0
  36 0002 0C1C     		mov	r4, r1
 123:.\BLEApplications.c **** 	uint8 i;
 124:.\BLEApplications.c **** 	uint8 KeyMatch = 0;
 125:.\BLEApplications.c **** 	
 126:.\BLEApplications.c **** 	/* Local variable to store the data received as part of the Write request 
 127:.\BLEApplications.c **** 	* events */
 128:.\BLEApplications.c **** 	CYBLE_GATTS_WRITE_REQ_PARAM_T *wrReqParam;
 129:.\BLEApplications.c **** 
 130:.\BLEApplications.c ****     switch(event)
  37              		.loc 1 130 0
  38 0004 2828     		cmp	r0, #40
  39 0006 28D0     		beq	.L3
  40 0008 0AD8     		bhi	.L4
  41 000a 0528     		cmp	r0, #5
ARM GAS  C:\Users\ADMINI~1\AppData\Local\Temp\cc2ReiUL.s 			page 4


  42 000c 00D1     		bne	.LCB19
  43 000e E2E0     		b	.L5	@long jump
  44              	.LCB19:
  45 0010 2628     		cmp	r0, #38
  46 0012 1AD0     		beq	.L6
  47 0014 0128     		cmp	r0, #1
  48 0016 00D0     		beq	.LCB23
  49 0018 E0E0     		b	.L1	@long jump
  50              	.LCB23:
 131:.\BLEApplications.c ****     {
 132:.\BLEApplications.c ****         case CYBLE_EVT_STACK_ON:
 133:.\BLEApplications.c **** 			/* This event is received when component is Started */
 134:.\BLEApplications.c **** 			
 135:.\BLEApplications.c **** 			/* Set restartAdvertisement flag to allow calling Advertisement 
 136:.\BLEApplications.c **** 			* API from main function */
 137:.\BLEApplications.c **** 			restartAdvertisement = TRUE;
  51              		.loc 1 137 0
  52 001a 714B     		ldr	r3, .L39
  53 001c 1870     		strb	r0, [r3]
 138:.\BLEApplications.c **** 			
 139:.\BLEApplications.c **** 			break;
  54              		.loc 1 139 0
  55 001e DDE0     		b	.L1
  56              	.L4:
 130:.\BLEApplications.c ****     {
  57              		.loc 1 130 0
  58 0020 4228     		cmp	r0, #66
  59 0022 20D0     		beq	.L8
  60 0024 09D8     		bhi	.L9
  61 0026 4128     		cmp	r0, #65
  62 0028 00D0     		beq	.LCB35
  63 002a D7E0     		b	.L1	@long jump
  64              	.LCB35:
 140:.\BLEApplications.c **** 			
 141:.\BLEApplications.c **** 		case CYBLE_EVT_TIMEOUT:
 142:.\BLEApplications.c **** 			/* Event Handling for Timeout  */
 143:.\BLEApplications.c **** 	
 144:.\BLEApplications.c **** 			break;
 145:.\BLEApplications.c ****         
 146:.\BLEApplications.c **** 		/**********************************************************
 147:.\BLEApplications.c ****         *                       GAP Events
 148:.\BLEApplications.c ****         ***********************************************************/
 149:.\BLEApplications.c **** 		case CYBLE_EVT_GAPP_ADVERTISEMENT_START_STOP:
 150:.\BLEApplications.c **** 			
 151:.\BLEApplications.c **** 			/* If the current BLE state is Disconnected, then the Advertisement
 152:.\BLEApplications.c **** 			* Start Stop event implies that advertisement has stopped */
 153:.\BLEApplications.c **** 			if(CyBle_GetState() == CYBLE_STATE_DISCONNECTED)
 154:.\BLEApplications.c **** 			{
 155:.\BLEApplications.c **** 				/* Set restartAdvertisement flag to allow calling Advertisement 
 156:.\BLEApplications.c **** 				* API from main function */
 157:.\BLEApplications.c **** 				restartAdvertisement = TRUE;
 158:.\BLEApplications.c **** 			}
 159:.\BLEApplications.c **** 			break;
 160:.\BLEApplications.c **** 			
 161:.\BLEApplications.c **** 		case CYBLE_EVT_GAP_DEVICE_CONNECTED: 					
 162:.\BLEApplications.c **** 			/* This event is received when device is connected over GAP layer */
 163:.\BLEApplications.c **** 			break;
ARM GAS  C:\Users\ADMINI~1\AppData\Local\Temp\cc2ReiUL.s 			page 5


 164:.\BLEApplications.c **** 
 165:.\BLEApplications.c **** 			
 166:.\BLEApplications.c ****         case CYBLE_EVT_GAP_DEVICE_DISCONNECTED:
 167:.\BLEApplications.c **** 			/* This event is received when device is disconnected */
 168:.\BLEApplications.c **** 			
 169:.\BLEApplications.c **** 			/* Set restartAdvertisement flag to allow calling Advertisement 
 170:.\BLEApplications.c **** 			* API from main function */
 171:.\BLEApplications.c **** 			restartAdvertisement = TRUE;
 172:.\BLEApplications.c **** 			
 173:.\BLEApplications.c **** 			/* Set flag to allow system to go to Deep Sleep */
 174:.\BLEApplications.c **** 			shut_down_led = TRUE;
 175:.\BLEApplications.c **** 			break;
 176:.\BLEApplications.c ****         
 177:.\BLEApplications.c **** 		/**********************************************************
 178:.\BLEApplications.c ****         *                       GATT Events
 179:.\BLEApplications.c ****         ***********************************************************/
 180:.\BLEApplications.c ****         case CYBLE_EVT_GATT_CONNECT_IND:
 181:.\BLEApplications.c **** 			/* This event is received when device is connected over GATT level */
 182:.\BLEApplications.c **** 			
 183:.\BLEApplications.c **** 			/* Update attribute handle on GATT Connection*/
 184:.\BLEApplications.c ****             connectionHandle = *(CYBLE_CONN_HANDLE_T  *)eventParam;
  65              		.loc 1 184 0
  66 002c 0222     		mov	r2, #2
  67 002e 6D48     		ldr	r0, .L39+4
  68              	.LVL1:
  69 0030 FFF7FEFF 		bl	memcpy
  70              	.LVL2:
 185:.\BLEApplications.c **** 			
 186:.\BLEApplications.c **** 			/* This flag is used in application to check connection status */
 187:.\BLEApplications.c **** 			deviceConnected = TRUE;
  71              		.loc 1 187 0
  72 0034 0122     		mov	r2, #1
  73 0036 6A4B     		ldr	r3, .L39
  74 0038 CBE0     		b	.L37
  75              	.LVL3:
  76              	.L9:
 130:.\BLEApplications.c ****     {
  77              		.loc 1 130 0
  78 003a 4C28     		cmp	r0, #76
  79 003c 1ED0     		beq	.L11
  80 003e 7128     		cmp	r0, #113
  81 0040 00D0     		beq	.LCB53
  82 0042 CBE0     		b	.L1	@long jump
  83              	.LCB53:
 188:.\BLEApplications.c **** 			
 189:.\BLEApplications.c **** 			break;
 190:.\BLEApplications.c ****         
 191:.\BLEApplications.c ****         case CYBLE_EVT_GATT_DISCONNECT_IND:
 192:.\BLEApplications.c **** 			/* This event is received when device is disconnected */
 193:.\BLEApplications.c **** 			
 194:.\BLEApplications.c **** 			/* Update deviceConnected flag*/
 195:.\BLEApplications.c **** 			deviceConnected = FALSE;
 196:.\BLEApplications.c **** 			
 197:.\BLEApplications.c **** 			/* Reset CapSense notification flag to prevent further notifications
 198:.\BLEApplications.c **** 			 * being sent to Central device after next connection. */
 199:.\BLEApplications.c **** 			SendAccelNotifications = FALSE;
 200:.\BLEApplications.c **** 			SendGyroNotifications = FALSE;
ARM GAS  C:\Users\ADMINI~1\AppData\Local\Temp\cc2ReiUL.s 			page 6


 201:.\BLEApplications.c **** 			SendPedometerNotifications = FALSE;
 202:.\BLEApplications.c **** 			
 203:.\BLEApplications.c **** 			/* Reset the isConnectionUpdateRequested flag to allow sending
 204:.\BLEApplications.c **** 			* connection parameter update request in next connection */
 205:.\BLEApplications.c **** 			isConnectionUpdateRequested = TRUE;
 206:.\BLEApplications.c **** 			
 207:.\BLEApplications.c **** 			/* Set the flag to allow system to go to Deep Sleep */
 208:.\BLEApplications.c **** 			shut_down_led = TRUE;
 209:.\BLEApplications.c **** 			
 210:.\BLEApplications.c **** 			break;
 211:.\BLEApplications.c ****             
 212:.\BLEApplications.c ****         case CYBLE_EVT_GATTS_WRITE_REQ:
 213:.\BLEApplications.c **** 		{
 214:.\BLEApplications.c **** 			/* This event is received when Central device sends a Write command on an Attribute */
 215:.\BLEApplications.c ****             wrReqParam = (CYBLE_GATTS_WRITE_REQ_PARAM_T *) eventParam;
 216:.\BLEApplications.c **** 
 217:.\BLEApplications.c **** 			if(CYBLE_BACKBONE_ACCELEROMETER_CLIENT_CHARACTERISTIC_CONFIGURATION_DESC_HANDLE == wrReqParam->h
 218:.\BLEApplications.c **** 			{
 219:.\BLEApplications.c **** 				if(wrReqParam->handleValPair.value.val[CYBLE_BACKBONE_ACCELEROMETER_CLIENT_CHARACTERISTIC_CONFI
 220:.\BLEApplications.c **** 				{
 221:.\BLEApplications.c **** 					SendAccelNotifications = TRUE;	
 222:.\BLEApplications.c **** 				}
 223:.\BLEApplications.c **** 				else if(wrReqParam->handleValPair.value.val[CYBLE_BACKBONE_ACCELEROMETER_CLIENT_CHARACTERISTIC_
 224:.\BLEApplications.c **** 				{
 225:.\BLEApplications.c **** 					SendAccelNotifications = FALSE;	
 226:.\BLEApplications.c **** 				}
 227:.\BLEApplications.c **** 				else
 228:.\BLEApplications.c **** 				{
 229:.\BLEApplications.c **** 				}
 230:.\BLEApplications.c **** 				
 231:.\BLEApplications.c **** 				AccelCCCDValue[0] = SendAccelNotifications;
 232:.\BLEApplications.c **** 				AccelCCCDValue[1] = 0x00;
 233:.\BLEApplications.c **** 				
 234:.\BLEApplications.c **** 				AccelNotificationHandle.attrHandle = CYBLE_BACKBONE_ACCELEROMETER_CLIENT_CHARACTERISTIC_CONFIGU
 235:.\BLEApplications.c **** 				AccelNotificationHandle.value.val = AccelCCCDValue;
 236:.\BLEApplications.c **** 				AccelNotificationHandle.value.len = ACCEL_DATA_LEN;
 237:.\BLEApplications.c **** 				
 238:.\BLEApplications.c **** 				CyBle_GattsWriteAttributeValue(&AccelNotificationHandle, ZERO, &connectionHandle, CYBLE_GATT_DB
 239:.\BLEApplications.c **** 			}
 240:.\BLEApplications.c **** 			
 241:.\BLEApplications.c **** 			if(CYBLE_BACKBONE_GYROSCOPE_CLIENT_CHARACTERISTIC_CONFIGURATION_DESC_HANDLE == wrReqParam->handl
 242:.\BLEApplications.c **** 			{
 243:.\BLEApplications.c **** 				if(wrReqParam->handleValPair.value.val[CYBLE_BACKBONE_GYROSCOPE_CLIENT_CHARACTERISTIC_CONFIGURA
 244:.\BLEApplications.c **** 				{
 245:.\BLEApplications.c **** 					SendGyroNotifications = TRUE;	
 246:.\BLEApplications.c **** 				}
 247:.\BLEApplications.c **** 				else if (wrReqParam->handleValPair.value.val[CYBLE_BACKBONE_GYROSCOPE_CLIENT_CHARACTERISTIC_CON
 248:.\BLEApplications.c **** 				{
 249:.\BLEApplications.c **** 					SendGyroNotifications = FALSE;	
 250:.\BLEApplications.c **** 				}
 251:.\BLEApplications.c **** 				else
 252:.\BLEApplications.c **** 				{
 253:.\BLEApplications.c **** 				}
 254:.\BLEApplications.c **** 				
 255:.\BLEApplications.c **** 				GyroCCCDValue[0] = SendGyroNotifications;
 256:.\BLEApplications.c **** 				GyroCCCDValue[1] = 0x00;
 257:.\BLEApplications.c **** 				
ARM GAS  C:\Users\ADMINI~1\AppData\Local\Temp\cc2ReiUL.s 			page 7


 258:.\BLEApplications.c **** 				GyroNotificationHandle.attrHandle = CYBLE_BACKBONE_GYROSCOPE_CLIENT_CHARACTERISTIC_CONFIGURATIO
 259:.\BLEApplications.c **** 				GyroNotificationHandle.value.val = GyroCCCDValue;
 260:.\BLEApplications.c **** 				GyroNotificationHandle.value.len = GYRO_DATA_LEN;
 261:.\BLEApplications.c **** 				
 262:.\BLEApplications.c **** 				CyBle_GattsWriteAttributeValue(&GyroNotificationHandle, ZERO, &connectionHandle, CYBLE_GATT_DB_
 263:.\BLEApplications.c **** 			}
 264:.\BLEApplications.c **** 			
 265:.\BLEApplications.c **** 			if(CYBLE_BACKBONE_PEDOMETER_CLIENT_CHARACTERISTIC_CONFIGURATION_DESC_HANDLE == wrReqParam->handl
 266:.\BLEApplications.c **** 			{
 267:.\BLEApplications.c **** 				if(wrReqParam->handleValPair.value.val[CYBLE_BACKBONE_PEDOMETER_CHARACTERISTIC_USER_DESCRIPTION
 268:.\BLEApplications.c **** 				{
 269:.\BLEApplications.c **** 					SendPedometerNotifications = TRUE;	
 270:.\BLEApplications.c **** 				}
 271:.\BLEApplications.c **** 				else if (wrReqParam->handleValPair.value.val[CYBLE_BACKBONE_PEDOMETER_CHARACTERISTIC_USER_DESCR
 272:.\BLEApplications.c **** 				{
 273:.\BLEApplications.c **** 					SendPedometerNotifications = FALSE;
 274:.\BLEApplications.c **** 				}
 275:.\BLEApplications.c **** 				else
 276:.\BLEApplications.c **** 				{
 277:.\BLEApplications.c **** 				}
 278:.\BLEApplications.c **** 				
 279:.\BLEApplications.c **** 				PedometerCCCDValue[0] = SendPedometerNotifications;
 280:.\BLEApplications.c **** 				PedometerCCCDValue[1] = 0x00;
 281:.\BLEApplications.c **** 				
 282:.\BLEApplications.c **** 				PedometerNotificationHandle.attrHandle = CYBLE_BACKBONE_PEDOMETER_CLIENT_CHARACTERISTIC_CONFIGU
 283:.\BLEApplications.c **** 				PedometerNotificationHandle.value.val = PedometerCCCDValue;
 284:.\BLEApplications.c **** 				PedometerNotificationHandle.value.len = PEDOMETER_DATA_LEN;
 285:.\BLEApplications.c **** 				
 286:.\BLEApplications.c **** 				CyBle_GattsWriteAttributeValue(&PedometerNotificationHandle, ZERO, &connectionHandle, CYBLE_GAT
 287:.\BLEApplications.c **** 			}
 288:.\BLEApplications.c **** 			
 289:.\BLEApplications.c **** 			if(CYBLE_BACKBONE_VERSION_CLIENT_CHARACTERISTIC_CONFIGURATION_DESC_HANDLE == wrReqParam->handleV
 290:.\BLEApplications.c **** 			{
 291:.\BLEApplications.c **** 				if(wrReqParam->handleValPair.value.val[CYBLE_BACKBONE_ACCELEROMETER_CLIENT_CHARACTERISTIC_CONFI
 292:.\BLEApplications.c **** 				{
 293:.\BLEApplications.c **** 					SendVersionInfoNotifications = TRUE;	
 294:.\BLEApplications.c **** 				}
 295:.\BLEApplications.c **** 				else if(wrReqParam->handleValPair.value.val[CYBLE_BACKBONE_ACCELEROMETER_CLIENT_CHARACTERISTIC_
 296:.\BLEApplications.c **** 				{
 297:.\BLEApplications.c **** 					SendVersionInfoNotifications = FALSE;	
 298:.\BLEApplications.c **** 				}
 299:.\BLEApplications.c **** 				else
 300:.\BLEApplications.c **** 				{
 301:.\BLEApplications.c **** 				}
 302:.\BLEApplications.c **** 				
 303:.\BLEApplications.c **** 				VersionInfoCCCDValue[0] = SendVersionInfoNotifications;
 304:.\BLEApplications.c **** 				VersionInfoCCCDValue[1] = 0x00;
 305:.\BLEApplications.c **** 				
 306:.\BLEApplications.c **** 				VersionInfoNotificationHandle.attrHandle = CYBLE_BACKBONE_VERSION_CLIENT_CHARACTERISTIC_CONFIGU
 307:.\BLEApplications.c **** 				VersionInfoNotificationHandle.value.val = VersionInfoCCCDValue;
 308:.\BLEApplications.c **** 				AccelNotificationHandle.value.len = VERSION_INFO_DATA_LEN;
 309:.\BLEApplications.c **** 				
 310:.\BLEApplications.c **** 				CyBle_GattsWriteAttributeValue(&VersionInfoNotificationHandle, ZERO, &connectionHandle, CYBLE_G
 311:.\BLEApplications.c **** 				
 312:.\BLEApplications.c **** 				BackBoneFlags |= VERSION_DATA_NEW;
 313:.\BLEApplications.c **** 			}
 314:.\BLEApplications.c **** 
ARM GAS  C:\Users\ADMINI~1\AppData\Local\Temp\cc2ReiUL.s 			page 8


 315:.\BLEApplications.c **** 			/* */
 316:.\BLEApplications.c **** 			if(CYBLE_BACKBONE_CONFIGDATA_CHAR_HANDLE == wrReqParam->handleValPair.attrHandle)
 317:.\BLEApplications.c **** 			{
 318:.\BLEApplications.c **** 				  BackBone_SetConfigData(wrReqParam->handleValPair.value.val, CONFIG_DATA_LEN);
 319:.\BLEApplications.c **** 			}
 320:.\BLEApplications.c **** 
 321:.\BLEApplications.c **** 			if(CYBLE_BACKBONE_WRITE_DATA_CHAR_HANDLE == wrReqParam->handleValPair.attrHandle)
 322:.\BLEApplications.c **** 			{
 323:.\BLEApplications.c **** 				BLEWriteData[0] = wrReqParam->handleValPair.value.val[0];
 324:.\BLEApplications.c **** 				BLEWriteData[1] = wrReqParam->handleValPair.value.val[1];
 325:.\BLEApplications.c **** 				BLEWriteData[2] = wrReqParam->handleValPair.value.val[2];
 326:.\BLEApplications.c **** 				BLEWriteData[3] = wrReqParam->handleValPair.value.val[3];
 327:.\BLEApplications.c **** 				
 328:.\BLEApplications.c **** 				MotorPWMDutyCycle = BLEWriteData[1];
 329:.\BLEApplications.c **** 				
 330:.\BLEApplications.c **** 				if(BLEWriteData[0] != 0)
 331:.\BLEApplications.c **** 				{
 332:.\BLEApplications.c **** 					MotorFlag = 1;
 333:.\BLEApplications.c **** 					MotorPWM_Start();
 334:.\BLEApplications.c **** 					
 335:.\BLEApplications.c **** 					MotorPWM_WriteCompare(MotorPWMDutyCycle);
 336:.\BLEApplications.c **** 				}
 337:.\BLEApplications.c **** 				else
 338:.\BLEApplications.c **** 				{
 339:.\BLEApplications.c **** 					MotorFlag = 0;
 340:.\BLEApplications.c **** 					MotorPWM_Stop();
 341:.\BLEApplications.c **** 				}
 342:.\BLEApplications.c **** 			}
 343:.\BLEApplications.c **** 			
 344:.\BLEApplications.c **** 			if(CYBLE_BACKBONE_ENTERBOOTLOADER_CHAR_HANDLE == wrReqParam->handleValPair.attrHandle)
 345:.\BLEApplications.c **** 			{
 346:.\BLEApplications.c **** 				KeyMatch = 1;
 347:.\BLEApplications.c **** 				
 348:.\BLEApplications.c **** 				for(i=0; i<8; i++)
 349:.\BLEApplications.c **** 				{
 350:.\BLEApplications.c **** 					if (wrReqParam->handleValPair.value.val[i] != EnterBootloaderKey[i])
 351:.\BLEApplications.c **** 					{
 352:.\BLEApplications.c **** 						KeyMatch = 0;
 353:.\BLEApplications.c **** 						break;
 354:.\BLEApplications.c **** 					}
 355:.\BLEApplications.c **** 				}
 356:.\BLEApplications.c **** 				
 357:.\BLEApplications.c **** 				if(KeyMatch)
 358:.\BLEApplications.c **** 				{
 359:.\BLEApplications.c **** 		            MotorPWM_Stop();
 360:.\BLEApplications.c **** 					BootloaderSwitch();
 361:.\BLEApplications.c **** 				}
 362:.\BLEApplications.c **** 			}
 363:.\BLEApplications.c **** 
 364:.\BLEApplications.c **** 			/* Send the response to the write request received. */
 365:.\BLEApplications.c **** 			CyBle_GattsWriteRsp(connectionHandle);
 366:.\BLEApplications.c **** 			
 367:.\BLEApplications.c **** 			break;
 368:.\BLEApplications.c **** 		}
 369:.\BLEApplications.c **** 			
 370:.\BLEApplications.c **** 		case CYBLE_EVT_L2CAP_CONN_PARAM_UPDATE_RSP:
 371:.\BLEApplications.c **** 				/* If L2CAP connection parameter update response received, reset application flag */
ARM GAS  C:\Users\ADMINI~1\AppData\Local\Temp\cc2ReiUL.s 			page 9


 372:.\BLEApplications.c ****             	isConnectionUpdateRequested = FALSE;
  84              		.loc 1 372 0
  85 0044 0022     		mov	r2, #0
  86 0046 684B     		ldr	r3, .L39+8
  87 0048 C3E0     		b	.L37
  88              	.L6:
 153:.\BLEApplications.c **** 			{
  89              		.loc 1 153 0
  90 004a 684B     		ldr	r3, .L39+12
  91 004c 1B78     		ldrb	r3, [r3]
  92 004e 042B     		cmp	r3, #4
  93 0050 00D0     		beq	.LCB63
  94 0052 C3E0     		b	.L1	@long jump
  95              	.LCB63:
 157:.\BLEApplications.c **** 			}
  96              		.loc 1 157 0
  97 0054 0122     		mov	r2, #1
  98 0056 624B     		ldr	r3, .L39
  99 0058 0EE0     		b	.L36
 100              	.L3:
 171:.\BLEApplications.c **** 			
 101              		.loc 1 171 0
 102 005a 0123     		mov	r3, #1
 103 005c 604A     		ldr	r2, .L39
 104 005e 1370     		strb	r3, [r2]
 174:.\BLEApplications.c **** 			break;
 105              		.loc 1 174 0
 106 0060 614A     		ldr	r2, .L39+8
 107 0062 1370     		strb	r3, [r2]
 175:.\BLEApplications.c ****         
 108              		.loc 1 175 0
 109 0064 BAE0     		b	.L1
 110              	.L8:
 195:.\BLEApplications.c **** 			
 111              		.loc 1 195 0
 112 0066 0022     		mov	r2, #0
 113 0068 5D4B     		ldr	r3, .L39
 114 006a 5A70     		strb	r2, [r3, #1]
 199:.\BLEApplications.c **** 			SendGyroNotifications = FALSE;
 115              		.loc 1 199 0
 116 006c 9A70     		strb	r2, [r3, #2]
 200:.\BLEApplications.c **** 			SendPedometerNotifications = FALSE;
 117              		.loc 1 200 0
 118 006e DA70     		strb	r2, [r3, #3]
 201:.\BLEApplications.c **** 			
 119              		.loc 1 201 0
 120 0070 1A71     		strb	r2, [r3, #4]
 205:.\BLEApplications.c **** 			
 121              		.loc 1 205 0
 122 0072 5D4B     		ldr	r3, .L39+8
 123 0074 0132     		add	r2, r2, #1
 124 0076 5A70     		strb	r2, [r3, #1]
 125              	.L36:
 208:.\BLEApplications.c **** 			
 126              		.loc 1 208 0
 127 0078 1A70     		strb	r2, [r3]
 210:.\BLEApplications.c ****             
ARM GAS  C:\Users\ADMINI~1\AppData\Local\Temp\cc2ReiUL.s 			page 10


 128              		.loc 1 210 0
 129 007a AFE0     		b	.L1
 130              	.L11:
 131              	.LVL4:
 217:.\BLEApplications.c **** 			{
 132              		.loc 1 217 0
 133 007c 8B89     		ldrh	r3, [r1, #12]
 134 007e 1F2B     		cmp	r3, #31
 135 0080 16D1     		bne	.L13
 219:.\BLEApplications.c **** 				{
 136              		.loc 1 219 0
 137 0082 4B68     		ldr	r3, [r1, #4]
 138 0084 564A     		ldr	r2, .L39
 139 0086 1B78     		ldrb	r3, [r3]
 140 0088 012B     		cmp	r3, #1
 141 008a 01D0     		beq	.L32
 223:.\BLEApplications.c **** 				{
 142              		.loc 1 223 0
 143 008c 002B     		cmp	r3, #0
 144 008e 00D1     		bne	.L15
 145              	.L32:
 225:.\BLEApplications.c **** 				}
 146              		.loc 1 225 0
 147 0090 9370     		strb	r3, [r2, #2]
 148              	.L15:
 232:.\BLEApplications.c **** 				
 149              		.loc 1 232 0
 150 0092 0021     		mov	r1, #0
 151              	.LVL5:
 231:.\BLEApplications.c **** 				AccelCCCDValue[1] = 0x00;
 152              		.loc 1 231 0
 153 0094 564B     		ldr	r3, .L39+16
 234:.\BLEApplications.c **** 				AccelNotificationHandle.value.val = AccelCCCDValue;
 154              		.loc 1 234 0
 155 0096 5748     		ldr	r0, .L39+20
 156              	.LVL6:
 231:.\BLEApplications.c **** 				AccelCCCDValue[1] = 0x00;
 157              		.loc 1 231 0
 158 0098 9278     		ldrb	r2, [r2, #2]
 232:.\BLEApplications.c **** 				
 159              		.loc 1 232 0
 160 009a 5970     		strb	r1, [r3, #1]
 231:.\BLEApplications.c **** 				AccelCCCDValue[1] = 0x00;
 161              		.loc 1 231 0
 162 009c 1A70     		strb	r2, [r3]
 235:.\BLEApplications.c **** 				AccelNotificationHandle.value.len = ACCEL_DATA_LEN;
 163              		.loc 1 235 0
 164 009e 0360     		str	r3, [r0]
 234:.\BLEApplications.c **** 				AccelNotificationHandle.value.val = AccelCCCDValue;
 165              		.loc 1 234 0
 166 00a0 1F22     		mov	r2, #31
 236:.\BLEApplications.c **** 				
 167              		.loc 1 236 0
 168 00a2 1023     		mov	r3, #16
 234:.\BLEApplications.c **** 				AccelNotificationHandle.value.val = AccelCCCDValue;
 169              		.loc 1 234 0
 170 00a4 0281     		strh	r2, [r0, #8]
ARM GAS  C:\Users\ADMINI~1\AppData\Local\Temp\cc2ReiUL.s 			page 11


 236:.\BLEApplications.c **** 				
 171              		.loc 1 236 0
 172 00a6 8380     		strh	r3, [r0, #4]
 238:.\BLEApplications.c **** 			}
 173              		.loc 1 238 0
 174 00a8 4E4A     		ldr	r2, .L39+4
 175 00aa 3033     		add	r3, r3, #48
 176 00ac FFF7FEFF 		bl	CyBle_GattsWriteAttributeValue
 177              	.LVL7:
 178              	.L13:
 241:.\BLEApplications.c **** 			{
 179              		.loc 1 241 0
 180 00b0 A389     		ldrh	r3, [r4, #12]
 181 00b2 232B     		cmp	r3, #35
 182 00b4 16D1     		bne	.L16
 243:.\BLEApplications.c **** 				{
 183              		.loc 1 243 0
 184 00b6 6368     		ldr	r3, [r4, #4]
 185 00b8 494A     		ldr	r2, .L39
 186 00ba 1B78     		ldrb	r3, [r3]
 187 00bc 012B     		cmp	r3, #1
 188 00be 01D0     		beq	.L33
 247:.\BLEApplications.c **** 				{
 189              		.loc 1 247 0
 190 00c0 002B     		cmp	r3, #0
 191 00c2 00D1     		bne	.L18
 192              	.L33:
 249:.\BLEApplications.c **** 				}
 193              		.loc 1 249 0
 194 00c4 D370     		strb	r3, [r2, #3]
 195              	.L18:
 256:.\BLEApplications.c **** 				
 196              		.loc 1 256 0
 197 00c6 0021     		mov	r1, #0
 255:.\BLEApplications.c **** 				GyroCCCDValue[1] = 0x00;
 198              		.loc 1 255 0
 199 00c8 4B4B     		ldr	r3, .L39+24
 258:.\BLEApplications.c **** 				GyroNotificationHandle.value.val = GyroCCCDValue;
 200              		.loc 1 258 0
 201 00ca 4C48     		ldr	r0, .L39+28
 255:.\BLEApplications.c **** 				GyroCCCDValue[1] = 0x00;
 202              		.loc 1 255 0
 203 00cc D278     		ldrb	r2, [r2, #3]
 256:.\BLEApplications.c **** 				
 204              		.loc 1 256 0
 205 00ce 5970     		strb	r1, [r3, #1]
 255:.\BLEApplications.c **** 				GyroCCCDValue[1] = 0x00;
 206              		.loc 1 255 0
 207 00d0 1A70     		strb	r2, [r3]
 259:.\BLEApplications.c **** 				GyroNotificationHandle.value.len = GYRO_DATA_LEN;
 208              		.loc 1 259 0
 209 00d2 0360     		str	r3, [r0]
 258:.\BLEApplications.c **** 				GyroNotificationHandle.value.val = GyroCCCDValue;
 210              		.loc 1 258 0
 211 00d4 2322     		mov	r2, #35
 260:.\BLEApplications.c **** 				
 212              		.loc 1 260 0
ARM GAS  C:\Users\ADMINI~1\AppData\Local\Temp\cc2ReiUL.s 			page 12


 213 00d6 0C23     		mov	r3, #12
 258:.\BLEApplications.c **** 				GyroNotificationHandle.value.val = GyroCCCDValue;
 214              		.loc 1 258 0
 215 00d8 0281     		strh	r2, [r0, #8]
 260:.\BLEApplications.c **** 				
 216              		.loc 1 260 0
 217 00da 8380     		strh	r3, [r0, #4]
 262:.\BLEApplications.c **** 			}
 218              		.loc 1 262 0
 219 00dc 414A     		ldr	r2, .L39+4
 220 00de 3433     		add	r3, r3, #52
 221 00e0 FFF7FEFF 		bl	CyBle_GattsWriteAttributeValue
 222              	.LVL8:
 223              	.L16:
 265:.\BLEApplications.c **** 			{
 224              		.loc 1 265 0
 225 00e4 A389     		ldrh	r3, [r4, #12]
 226 00e6 272B     		cmp	r3, #39
 227 00e8 16D1     		bne	.L19
 267:.\BLEApplications.c **** 				{
 228              		.loc 1 267 0
 229 00ea 6368     		ldr	r3, [r4, #4]
 230 00ec 3C4A     		ldr	r2, .L39
 231 00ee 5B78     		ldrb	r3, [r3, #1]
 232 00f0 012B     		cmp	r3, #1
 233 00f2 01D0     		beq	.L34
 271:.\BLEApplications.c **** 				{
 234              		.loc 1 271 0
 235 00f4 002B     		cmp	r3, #0
 236 00f6 00D1     		bne	.L21
 237              	.L34:
 273:.\BLEApplications.c **** 				}
 238              		.loc 1 273 0
 239 00f8 1371     		strb	r3, [r2, #4]
 240              	.L21:
 280:.\BLEApplications.c **** 				
 241              		.loc 1 280 0
 242 00fa 0021     		mov	r1, #0
 279:.\BLEApplications.c **** 				PedometerCCCDValue[1] = 0x00;
 243              		.loc 1 279 0
 244 00fc 404B     		ldr	r3, .L39+32
 282:.\BLEApplications.c **** 				PedometerNotificationHandle.value.val = PedometerCCCDValue;
 245              		.loc 1 282 0
 246 00fe 4148     		ldr	r0, .L39+36
 279:.\BLEApplications.c **** 				PedometerCCCDValue[1] = 0x00;
 247              		.loc 1 279 0
 248 0100 1279     		ldrb	r2, [r2, #4]
 280:.\BLEApplications.c **** 				
 249              		.loc 1 280 0
 250 0102 5970     		strb	r1, [r3, #1]
 279:.\BLEApplications.c **** 				PedometerCCCDValue[1] = 0x00;
 251              		.loc 1 279 0
 252 0104 1A70     		strb	r2, [r3]
 283:.\BLEApplications.c **** 				PedometerNotificationHandle.value.len = PEDOMETER_DATA_LEN;
 253              		.loc 1 283 0
 254 0106 0360     		str	r3, [r0]
 282:.\BLEApplications.c **** 				PedometerNotificationHandle.value.val = PedometerCCCDValue;
ARM GAS  C:\Users\ADMINI~1\AppData\Local\Temp\cc2ReiUL.s 			page 13


 255              		.loc 1 282 0
 256 0108 2722     		mov	r2, #39
 284:.\BLEApplications.c **** 				
 257              		.loc 1 284 0
 258 010a 0423     		mov	r3, #4
 282:.\BLEApplications.c **** 				PedometerNotificationHandle.value.val = PedometerCCCDValue;
 259              		.loc 1 282 0
 260 010c 0281     		strh	r2, [r0, #8]
 284:.\BLEApplications.c **** 				
 261              		.loc 1 284 0
 262 010e 8380     		strh	r3, [r0, #4]
 286:.\BLEApplications.c **** 			}
 263              		.loc 1 286 0
 264 0110 344A     		ldr	r2, .L39+4
 265 0112 3C33     		add	r3, r3, #60
 266 0114 FFF7FEFF 		bl	CyBle_GattsWriteAttributeValue
 267              	.LVL9:
 268              	.L19:
 289:.\BLEApplications.c **** 			{
 269              		.loc 1 289 0
 270 0118 A389     		ldrh	r3, [r4, #12]
 271 011a 342B     		cmp	r3, #52
 272 011c 1CD1     		bne	.L22
 291:.\BLEApplications.c **** 				{
 273              		.loc 1 291 0
 274 011e 6368     		ldr	r3, [r4, #4]
 275 0120 2F4A     		ldr	r2, .L39
 276 0122 1B78     		ldrb	r3, [r3]
 277 0124 012B     		cmp	r3, #1
 278 0126 01D0     		beq	.L35
 295:.\BLEApplications.c **** 				{
 279              		.loc 1 295 0
 280 0128 002B     		cmp	r3, #0
 281 012a 00D1     		bne	.L24
 282              	.L35:
 297:.\BLEApplications.c **** 				}
 283              		.loc 1 297 0
 284 012c 5371     		strb	r3, [r2, #5]
 285              	.L24:
 303:.\BLEApplications.c **** 				VersionInfoCCCDValue[1] = 0x00;
 286              		.loc 1 303 0
 287 012e 364B     		ldr	r3, .L39+40
 288 0130 5279     		ldrb	r2, [r2, #5]
 304:.\BLEApplications.c **** 				
 289              		.loc 1 304 0
 290 0132 0021     		mov	r1, #0
 303:.\BLEApplications.c **** 				VersionInfoCCCDValue[1] = 0x00;
 291              		.loc 1 303 0
 292 0134 1A70     		strb	r2, [r3]
 306:.\BLEApplications.c **** 				VersionInfoNotificationHandle.value.val = VersionInfoCCCDValue;
 293              		.loc 1 306 0
 294 0136 3422     		mov	r2, #52
 295 0138 3448     		ldr	r0, .L39+44
 304:.\BLEApplications.c **** 				
 296              		.loc 1 304 0
 297 013a 5970     		strb	r1, [r3, #1]
 307:.\BLEApplications.c **** 				AccelNotificationHandle.value.len = VERSION_INFO_DATA_LEN;
ARM GAS  C:\Users\ADMINI~1\AppData\Local\Temp\cc2ReiUL.s 			page 14


 298              		.loc 1 307 0
 299 013c 0360     		str	r3, [r0]
 308:.\BLEApplications.c **** 				
 300              		.loc 1 308 0
 301 013e 2D4B     		ldr	r3, .L39+20
 306:.\BLEApplications.c **** 				VersionInfoNotificationHandle.value.val = VersionInfoCCCDValue;
 302              		.loc 1 306 0
 303 0140 0281     		strh	r2, [r0, #8]
 308:.\BLEApplications.c **** 				
 304              		.loc 1 308 0
 305 0142 303A     		sub	r2, r2, #48
 306 0144 9A80     		strh	r2, [r3, #4]
 310:.\BLEApplications.c **** 				
 307              		.loc 1 310 0
 308 0146 274A     		ldr	r2, .L39+4
 309 0148 4023     		mov	r3, #64
 310 014a FFF7FEFF 		bl	CyBle_GattsWriteAttributeValue
 311              	.LVL10:
 312:.\BLEApplications.c **** 			}
 312              		.loc 1 312 0
 313 014e 0821     		mov	r1, #8
 314 0150 2F4A     		ldr	r2, .L39+48
 315 0152 1378     		ldrb	r3, [r2]
 316 0154 0B43     		orr	r3, r1
 317 0156 1370     		strb	r3, [r2]
 318              	.L22:
 316:.\BLEApplications.c **** 			{
 319              		.loc 1 316 0
 320 0158 A389     		ldrh	r3, [r4, #12]
 321 015a 2A2B     		cmp	r3, #42
 322 015c 03D1     		bne	.L25
 318:.\BLEApplications.c **** 			}
 323              		.loc 1 318 0
 324 015e 6068     		ldr	r0, [r4, #4]
 325 0160 1221     		mov	r1, #18
 326 0162 FFF7FEFF 		bl	BackBone_SetConfigData
 327              	.LVL11:
 328              	.L25:
 321:.\BLEApplications.c **** 			{
 329              		.loc 1 321 0
 330 0166 A389     		ldrh	r3, [r4, #12]
 331 0168 1A2B     		cmp	r3, #26
 332 016a 19D1     		bne	.L26
 323:.\BLEApplications.c **** 				BLEWriteData[1] = wrReqParam->handleValPair.value.val[1];
 333              		.loc 1 323 0
 334 016c 6268     		ldr	r2, [r4, #4]
 335 016e 294B     		ldr	r3, .L39+52
 336 0170 1178     		ldrb	r1, [r2]
 337 0172 1970     		strb	r1, [r3]
 324:.\BLEApplications.c **** 				BLEWriteData[2] = wrReqParam->handleValPair.value.val[2];
 338              		.loc 1 324 0
 339 0174 5078     		ldrb	r0, [r2, #1]
 340 0176 5870     		strb	r0, [r3, #1]
 325:.\BLEApplications.c **** 				BLEWriteData[3] = wrReqParam->handleValPair.value.val[3];
 341              		.loc 1 325 0
 342 0178 9578     		ldrb	r5, [r2, #2]
 343 017a 9D70     		strb	r5, [r3, #2]
ARM GAS  C:\Users\ADMINI~1\AppData\Local\Temp\cc2ReiUL.s 			page 15


 326:.\BLEApplications.c **** 				
 344              		.loc 1 326 0
 345 017c D278     		ldrb	r2, [r2, #3]
 328:.\BLEApplications.c **** 				
 346              		.loc 1 328 0
 347 017e 264D     		ldr	r5, .L39+56
 326:.\BLEApplications.c **** 				
 348              		.loc 1 326 0
 349 0180 DA70     		strb	r2, [r3, #3]
 328:.\BLEApplications.c **** 				
 350              		.loc 1 328 0
 351 0182 2880     		strh	r0, [r5]
 352 0184 254B     		ldr	r3, .L39+60
 330:.\BLEApplications.c **** 				{
 353              		.loc 1 330 0
 354 0186 0029     		cmp	r1, #0
 355 0188 07D0     		beq	.L27
 332:.\BLEApplications.c **** 					MotorPWM_Start();
 356              		.loc 1 332 0
 357 018a 0122     		mov	r2, #1
 358 018c 1A70     		strb	r2, [r3]
 333:.\BLEApplications.c **** 					
 359              		.loc 1 333 0
 360 018e FFF7FEFF 		bl	MotorPWM_Start
 361              	.LVL12:
 335:.\BLEApplications.c **** 				}
 362              		.loc 1 335 0
 363 0192 2888     		ldrh	r0, [r5]
 364 0194 FFF7FEFF 		bl	MotorPWM_WriteCompare
 365              	.LVL13:
 366 0198 02E0     		b	.L26
 367              	.L27:
 339:.\BLEApplications.c **** 					MotorPWM_Stop();
 368              		.loc 1 339 0
 369 019a 1970     		strb	r1, [r3]
 340:.\BLEApplications.c **** 				}
 370              		.loc 1 340 0
 371 019c FFF7FEFF 		bl	MotorPWM_Stop
 372              	.LVL14:
 373              	.L26:
 344:.\BLEApplications.c **** 			{
 374              		.loc 1 344 0
 375 01a0 A389     		ldrh	r3, [r4, #12]
 376 01a2 2E2B     		cmp	r3, #46
 377 01a4 0DD1     		bne	.L28
 350:.\BLEApplications.c **** 					{
 378              		.loc 1 350 0
 379 01a6 0023     		mov	r3, #0
 380 01a8 6268     		ldr	r2, [r4, #4]
 381              	.L29:
 382              	.LVL15:
 383 01aa 1D49     		ldr	r1, .L39+64
 384 01ac D05C     		ldrb	r0, [r2, r3]
 385 01ae 595C     		ldrb	r1, [r3, r1]
 386 01b0 8842     		cmp	r0, r1
 387 01b2 06D1     		bne	.L28
 388              	.LVL16:
ARM GAS  C:\Users\ADMINI~1\AppData\Local\Temp\cc2ReiUL.s 			page 16


 389 01b4 0133     		add	r3, r3, #1
 390              	.LVL17:
 348:.\BLEApplications.c **** 				{
 391              		.loc 1 348 0 discriminator 2
 392 01b6 082B     		cmp	r3, #8
 393 01b8 F7D1     		bne	.L29
 394              	.LVL18:
 359:.\BLEApplications.c **** 					BootloaderSwitch();
 395              		.loc 1 359 0
 396 01ba FFF7FEFF 		bl	MotorPWM_Stop
 397              	.LVL19:
 360:.\BLEApplications.c **** 				}
 398              		.loc 1 360 0
 399 01be FFF7FEFF 		bl	BootloaderSwitch
 400              	.LVL20:
 401              	.L28:
 365:.\BLEApplications.c **** 			
 402              		.loc 1 365 0
 403 01c2 084A     		ldr	r2, .L39+4
 404 01c4 5078     		ldrb	r0, [r2, #1]
 405 01c6 1378     		ldrb	r3, [r2]
 406 01c8 0002     		lsl	r0, r0, #8
 407 01ca 1843     		orr	r0, r3
 408 01cc FFF7FEFF 		bl	CyBle_GattsWriteRsp
 409              	.LVL21:
 367:.\BLEApplications.c **** 		}
 410              		.loc 1 367 0
 411 01d0 04E0     		b	.L1
 412              	.LVL22:
 413              	.L37:
 414              		.loc 1 372 0
 415 01d2 5A70     		strb	r2, [r3, #1]
 373:.\BLEApplications.c ****             break;
 416              		.loc 1 373 0
 417 01d4 02E0     		b	.L1
 418              	.LVL23:
 419              	.L5:
 374:.\BLEApplications.c **** 			
 375:.\BLEApplications.c **** 		case CYBLE_EVT_STACK_BUSY_STATUS:
 376:.\BLEApplications.c **** 			/* This event is generated when the internal stack buffer is full and no more
 377:.\BLEApplications.c **** 			* data can be accepted or the stack has buffer available and can accept data.
 378:.\BLEApplications.c **** 			* This event is used by application to prevent pushing lot of data to stack. */
 379:.\BLEApplications.c **** 			
 380:.\BLEApplications.c **** 			/* Extract the present stack status */
 381:.\BLEApplications.c ****             busyStatus = * (uint8*)eventParam;
 420              		.loc 1 381 0
 421 01d6 0A78     		ldrb	r2, [r1]
 422 01d8 014B     		ldr	r3, .L39
 423 01da 9A71     		strb	r2, [r3, #6]
 424              	.LVL24:
 425              	.L1:
 382:.\BLEApplications.c ****             break;
 383:.\BLEApplications.c **** 			
 384:.\BLEApplications.c ****         default:
 385:.\BLEApplications.c **** 
 386:.\BLEApplications.c ****        	 	break;
 387:.\BLEApplications.c ****     }   	/* switch(event) */
ARM GAS  C:\Users\ADMINI~1\AppData\Local\Temp\cc2ReiUL.s 			page 17


 388:.\BLEApplications.c **** }
 426              		.loc 1 388 0
 427              		@ sp needed
 428              	.LVL25:
 429 01dc 38BD     		pop	{r3, r4, r5, pc}
 430              	.L40:
 431 01de C046     		.align	2
 432              	.L39:
 433 01e0 00000000 		.word	.LANCHOR0
 434 01e4 00000000 		.word	connectionHandle
 435 01e8 00000000 		.word	.LANCHOR1
 436 01ec 00000000 		.word	cyBle_state
 437 01f0 00000000 		.word	AccelCCCDValue
 438 01f4 00000000 		.word	AccelNotificationHandle
 439 01f8 00000000 		.word	GyroCCCDValue
 440 01fc 00000000 		.word	GyroNotificationHandle
 441 0200 00000000 		.word	PedometerCCCDValue
 442 0204 00000000 		.word	PedometerNotificationHandle
 443 0208 00000000 		.word	VersionInfoCCCDValue
 444 020c 00000000 		.word	VersionInfoNotificationHandle
 445 0210 00000000 		.word	BackBoneFlags
 446 0214 00000000 		.word	BLEWriteData
 447 0218 00000000 		.word	MotorPWMDutyCycle
 448 021c 00000000 		.word	MotorFlag
 449 0220 00000000 		.word	.LANCHOR2
 450              		.cfi_endproc
 451              	.LFE37:
 452              		.size	CustomEventHandler, .-CustomEventHandler
 453              		.section	.text.SendAllNotifications,"ax",%progbits
 454              		.align	1
 455              		.global	SendAllNotifications
 456              		.code	16
 457              		.thumb_func
 458              		.type	SendAllNotifications, %function
 459              	SendAllNotifications:
 460              	.LFB38:
 389:.\BLEApplications.c **** 
 390:.\BLEApplications.c **** void SendAllNotifications(void)
 391:.\BLEApplications.c **** {
 461              		.loc 1 391 0
 462              		.cfi_startproc
 463 0000 30B5     		push	{r4, r5, lr}
 464              		.cfi_def_cfa_offset 12
 465              		.cfi_offset 4, -12
 466              		.cfi_offset 5, -8
 467              		.cfi_offset 14, -4
 392:.\BLEApplications.c **** 	CYBLE_GATTS_HANDLE_VALUE_NTF_T NotificationHandle;
 393:.\BLEApplications.c **** 
 394:.\BLEApplications.c **** 	if(BackBoneFlags & ACCEL_DATA_NEW)
 468              		.loc 1 394 0
 469 0002 0125     		mov	r5, #1
 470 0004 324C     		ldr	r4, .L58
 391:.\BLEApplications.c **** 	CYBLE_GATTS_HANDLE_VALUE_NTF_T NotificationHandle;
 471              		.loc 1 391 0
 472 0006 85B0     		sub	sp, sp, #20
 473              		.cfi_def_cfa_offset 32
 474              		.loc 1 394 0
ARM GAS  C:\Users\ADMINI~1\AppData\Local\Temp\cc2ReiUL.s 			page 18


 475 0008 2378     		ldrb	r3, [r4]
 476 000a 2B42     		tst	r3, r5
 477 000c 14D0     		beq	.L42
 395:.\BLEApplications.c **** 	{
 396:.\BLEApplications.c **** 		if(busyStatus == CYBLE_STACK_STATE_FREE)
 478              		.loc 1 396 0
 479 000e 314B     		ldr	r3, .L58+4
 480 0010 9B79     		ldrb	r3, [r3, #6]
 481 0012 002B     		cmp	r3, #0
 482 0014 10D1     		bne	.L42
 397:.\BLEApplications.c **** 		{
 398:.\BLEApplications.c **** 			NotificationHandle.attrHandle = CYBLE_BACKBONE_ACCELEROMETER_CHAR_HANDLE;
 483              		.loc 1 398 0
 484 0016 01A9     		add	r1, sp, #4
 485 0018 1E33     		add	r3, r3, #30
 486 001a 0B81     		strh	r3, [r1, #8]
 399:.\BLEApplications.c **** 			NotificationHandle.value.val = Accelerometer.RawData;
 487              		.loc 1 399 0
 488 001c 2E4B     		ldr	r3, .L58+8
 400:.\BLEApplications.c **** 			NotificationHandle.value.len = ACCEL_DATA_LEN;
 401:.\BLEApplications.c **** 			
 402:.\BLEApplications.c **** 			/* Send the updated handle as part of attribute for notifications */
 403:.\BLEApplications.c **** 			CyBle_GattsNotification(connectionHandle,&NotificationHandle);
 489              		.loc 1 403 0
 490 001e 2F4A     		ldr	r2, .L58+12
 399:.\BLEApplications.c **** 			NotificationHandle.value.val = Accelerometer.RawData;
 491              		.loc 1 399 0
 492 0020 0193     		str	r3, [sp, #4]
 400:.\BLEApplications.c **** 			NotificationHandle.value.len = ACCEL_DATA_LEN;
 493              		.loc 1 400 0
 494 0022 1023     		mov	r3, #16
 495              		.loc 1 403 0
 496 0024 5078     		ldrb	r0, [r2, #1]
 400:.\BLEApplications.c **** 			NotificationHandle.value.len = ACCEL_DATA_LEN;
 497              		.loc 1 400 0
 498 0026 8B80     		strh	r3, [r1, #4]
 499              		.loc 1 403 0
 500 0028 1378     		ldrb	r3, [r2]
 501 002a 0002     		lsl	r0, r0, #8
 502 002c 1843     		orr	r0, r3
 503 002e FFF7FEFF 		bl	CyBle_GattsNotification
 504              	.LVL26:
 404:.\BLEApplications.c **** 			
 405:.\BLEApplications.c **** 			BackBoneFlags &= ~ACCEL_DATA_NEW;
 505              		.loc 1 405 0
 506 0032 2378     		ldrb	r3, [r4]
 507 0034 AB43     		bic	r3, r5
 508 0036 2370     		strb	r3, [r4]
 509              	.L42:
 406:.\BLEApplications.c **** 		}
 407:.\BLEApplications.c **** 	}
 408:.\BLEApplications.c **** 	
 409:.\BLEApplications.c **** 	if(BackBoneFlags & GYRO_DATA_NEW)
 510              		.loc 1 409 0
 511 0038 0225     		mov	r5, #2
 512 003a 2378     		ldrb	r3, [r4]
 513 003c 2B42     		tst	r3, r5
ARM GAS  C:\Users\ADMINI~1\AppData\Local\Temp\cc2ReiUL.s 			page 19


 514 003e 14D0     		beq	.L43
 410:.\BLEApplications.c **** 	{
 411:.\BLEApplications.c **** 		if(busyStatus == CYBLE_STACK_STATE_FREE)
 515              		.loc 1 411 0
 516 0040 244B     		ldr	r3, .L58+4
 517 0042 9B79     		ldrb	r3, [r3, #6]
 518 0044 002B     		cmp	r3, #0
 519 0046 10D1     		bne	.L43
 412:.\BLEApplications.c **** 		{
 413:.\BLEApplications.c **** 			NotificationHandle.attrHandle = CYBLE_BACKBONE_GYROSCOPE_CHAR_HANDLE;
 520              		.loc 1 413 0
 521 0048 01A9     		add	r1, sp, #4
 522 004a 2233     		add	r3, r3, #34
 523 004c 0B81     		strh	r3, [r1, #8]
 414:.\BLEApplications.c **** 			NotificationHandle.value.val = Gyroscope.RawData;
 524              		.loc 1 414 0
 525 004e 244B     		ldr	r3, .L58+16
 415:.\BLEApplications.c **** 			NotificationHandle.value.len = GYRO_DATA_LEN;
 416:.\BLEApplications.c **** 			
 417:.\BLEApplications.c **** 			/* Send the updated handle as part of attribute for notifications */
 418:.\BLEApplications.c **** 			CyBle_GattsNotification(connectionHandle,&NotificationHandle);
 526              		.loc 1 418 0
 527 0050 224A     		ldr	r2, .L58+12
 414:.\BLEApplications.c **** 			NotificationHandle.value.val = Gyroscope.RawData;
 528              		.loc 1 414 0
 529 0052 0193     		str	r3, [sp, #4]
 415:.\BLEApplications.c **** 			NotificationHandle.value.len = GYRO_DATA_LEN;
 530              		.loc 1 415 0
 531 0054 0C23     		mov	r3, #12
 532              		.loc 1 418 0
 533 0056 5078     		ldrb	r0, [r2, #1]
 415:.\BLEApplications.c **** 			NotificationHandle.value.len = GYRO_DATA_LEN;
 534              		.loc 1 415 0
 535 0058 8B80     		strh	r3, [r1, #4]
 536              		.loc 1 418 0
 537 005a 1378     		ldrb	r3, [r2]
 538 005c 0002     		lsl	r0, r0, #8
 539 005e 1843     		orr	r0, r3
 540 0060 FFF7FEFF 		bl	CyBle_GattsNotification
 541              	.LVL27:
 419:.\BLEApplications.c **** 			
 420:.\BLEApplications.c **** 			BackBoneFlags &= ~GYRO_DATA_NEW;
 542              		.loc 1 420 0
 543 0064 2378     		ldrb	r3, [r4]
 544 0066 AB43     		bic	r3, r5
 545 0068 2370     		strb	r3, [r4]
 546              	.L43:
 421:.\BLEApplications.c **** 		}
 422:.\BLEApplications.c **** 	}
 423:.\BLEApplications.c **** 	
 424:.\BLEApplications.c **** 	if(BackBoneFlags & PEDO_DATA_NEW)
 547              		.loc 1 424 0
 548 006a 0425     		mov	r5, #4
 549 006c 2378     		ldrb	r3, [r4]
 550 006e 2B42     		tst	r3, r5
 551 0070 13D0     		beq	.L44
 425:.\BLEApplications.c **** 	{
ARM GAS  C:\Users\ADMINI~1\AppData\Local\Temp\cc2ReiUL.s 			page 20


 426:.\BLEApplications.c **** 		if(busyStatus == CYBLE_STACK_STATE_FREE)
 552              		.loc 1 426 0
 553 0072 184B     		ldr	r3, .L58+4
 554 0074 9B79     		ldrb	r3, [r3, #6]
 555 0076 002B     		cmp	r3, #0
 556 0078 0FD1     		bne	.L44
 427:.\BLEApplications.c **** 		{
 428:.\BLEApplications.c **** 			NotificationHandle.attrHandle = CYBLE_BACKBONE_PEDOMETER_CHAR_HANDLE;
 557              		.loc 1 428 0
 558 007a 01A9     		add	r1, sp, #4
 429:.\BLEApplications.c **** 			NotificationHandle.value.val = Pedometer.RawData;
 430:.\BLEApplications.c **** 			NotificationHandle.value.len = PEDOMETER_DATA_LEN;
 431:.\BLEApplications.c **** 			
 432:.\BLEApplications.c **** 			/* Send the updated handle as part of attribute for notifications */
 433:.\BLEApplications.c **** 			CyBle_GattsNotification(connectionHandle,&NotificationHandle);
 559              		.loc 1 433 0
 560 007c 174A     		ldr	r2, .L58+12
 428:.\BLEApplications.c **** 			NotificationHandle.value.val = Pedometer.RawData;
 561              		.loc 1 428 0
 562 007e 2633     		add	r3, r3, #38
 563 0080 0B81     		strh	r3, [r1, #8]
 429:.\BLEApplications.c **** 			NotificationHandle.value.val = Pedometer.RawData;
 564              		.loc 1 429 0
 565 0082 184B     		ldr	r3, .L58+20
 566              		.loc 1 433 0
 567 0084 5078     		ldrb	r0, [r2, #1]
 429:.\BLEApplications.c **** 			NotificationHandle.value.val = Pedometer.RawData;
 568              		.loc 1 429 0
 569 0086 0193     		str	r3, [sp, #4]
 570              		.loc 1 433 0
 571 0088 1378     		ldrb	r3, [r2]
 572 008a 0002     		lsl	r0, r0, #8
 573 008c 1843     		orr	r0, r3
 430:.\BLEApplications.c **** 			
 574              		.loc 1 430 0
 575 008e 8D80     		strh	r5, [r1, #4]
 576              		.loc 1 433 0
 577 0090 FFF7FEFF 		bl	CyBle_GattsNotification
 578              	.LVL28:
 434:.\BLEApplications.c **** 			
 435:.\BLEApplications.c **** 			BackBoneFlags &= ~PEDO_DATA_NEW;
 579              		.loc 1 435 0
 580 0094 2378     		ldrb	r3, [r4]
 581 0096 AB43     		bic	r3, r5
 582 0098 2370     		strb	r3, [r4]
 583              	.L44:
 436:.\BLEApplications.c **** 		}
 437:.\BLEApplications.c **** 	}
 438:.\BLEApplications.c **** 	
 439:.\BLEApplications.c **** 	if(BackBoneFlags & VERSION_DATA_NEW)
 584              		.loc 1 439 0
 585 009a 0825     		mov	r5, #8
 586 009c 2378     		ldrb	r3, [r4]
 587 009e 2B42     		tst	r3, r5
 588 00a0 14D0     		beq	.L41
 440:.\BLEApplications.c **** 	{
 441:.\BLEApplications.c **** 		if(busyStatus == CYBLE_STACK_STATE_FREE)
ARM GAS  C:\Users\ADMINI~1\AppData\Local\Temp\cc2ReiUL.s 			page 21


 589              		.loc 1 441 0
 590 00a2 0C4B     		ldr	r3, .L58+4
 591 00a4 9B79     		ldrb	r3, [r3, #6]
 592 00a6 002B     		cmp	r3, #0
 593 00a8 10D1     		bne	.L41
 442:.\BLEApplications.c **** 		{
 443:.\BLEApplications.c **** 			NotificationHandle.attrHandle = CYBLE_BACKBONE_VERSION_CHAR_HANDLE;
 594              		.loc 1 443 0
 595 00aa 01A9     		add	r1, sp, #4
 596 00ac 3233     		add	r3, r3, #50
 444:.\BLEApplications.c **** 			NotificationHandle.value.val = VersionString;
 445:.\BLEApplications.c **** 			NotificationHandle.value.len = sizeof(VersionString);
 446:.\BLEApplications.c **** 			
 447:.\BLEApplications.c **** 			/* Send the updated handle as part of attribute for notifications */
 448:.\BLEApplications.c **** 			CyBle_GattsNotification(connectionHandle,&NotificationHandle);
 597              		.loc 1 448 0
 598 00ae 0B4A     		ldr	r2, .L58+12
 443:.\BLEApplications.c **** 			NotificationHandle.value.val = VersionString;
 599              		.loc 1 443 0
 600 00b0 0B81     		strh	r3, [r1, #8]
 444:.\BLEApplications.c **** 			NotificationHandle.value.val = VersionString;
 601              		.loc 1 444 0
 602 00b2 0D4B     		ldr	r3, .L58+24
 603              		.loc 1 448 0
 604 00b4 5078     		ldrb	r0, [r2, #1]
 444:.\BLEApplications.c **** 			NotificationHandle.value.val = VersionString;
 605              		.loc 1 444 0
 606 00b6 0193     		str	r3, [sp, #4]
 445:.\BLEApplications.c **** 			
 607              		.loc 1 445 0
 608 00b8 0423     		mov	r3, #4
 609              		.loc 1 448 0
 610 00ba A840     		lsl	r0, r0, r5
 445:.\BLEApplications.c **** 			
 611              		.loc 1 445 0
 612 00bc 8B80     		strh	r3, [r1, #4]
 613              		.loc 1 448 0
 614 00be 1378     		ldrb	r3, [r2]
 615 00c0 1843     		orr	r0, r3
 616 00c2 FFF7FEFF 		bl	CyBle_GattsNotification
 617              	.LVL29:
 449:.\BLEApplications.c **** 			
 450:.\BLEApplications.c **** 			BackBoneFlags &= ~VERSION_DATA_NEW;
 618              		.loc 1 450 0
 619 00c6 2378     		ldrb	r3, [r4]
 620 00c8 AB43     		bic	r3, r5
 621 00ca 2370     		strb	r3, [r4]
 622              	.L41:
 451:.\BLEApplications.c **** 		}
 452:.\BLEApplications.c **** 	}
 453:.\BLEApplications.c **** }
 623              		.loc 1 453 0
 624 00cc 05B0     		add	sp, sp, #20
 625              		@ sp needed
 626 00ce 30BD     		pop	{r4, r5, pc}
 627              	.L59:
 628              		.align	2
ARM GAS  C:\Users\ADMINI~1\AppData\Local\Temp\cc2ReiUL.s 			page 22


 629              	.L58:
 630 00d0 00000000 		.word	BackBoneFlags
 631 00d4 00000000 		.word	.LANCHOR0
 632 00d8 00000000 		.word	Accelerometer
 633 00dc 00000000 		.word	connectionHandle
 634 00e0 00000000 		.word	Gyroscope
 635 00e4 00000000 		.word	Pedometer
 636 00e8 00000000 		.word	VersionString
 637              		.cfi_endproc
 638              	.LFE38:
 639              		.size	SendAllNotifications, .-SendAllNotifications
 640              		.section	.text.SendDataOverVersionInfoNotification,"ax",%progbits
 641              		.align	1
 642              		.global	SendDataOverVersionInfoNotification
 643              		.code	16
 644              		.thumb_func
 645              		.type	SendDataOverVersionInfoNotification, %function
 646              	SendDataOverVersionInfoNotification:
 647              	.LFB39:
 454:.\BLEApplications.c **** 
 455:.\BLEApplications.c **** /*******************************************************************************
 456:.\BLEApplications.c **** * Function Name: SendDataOverVersionInfoNotification
 457:.\BLEApplications.c **** ********************************************************************************
 458:.\BLEApplications.c **** * Summary:
 459:.\BLEApplications.c **** *        Send version information BLE notification
 460:.\BLEApplications.c **** *
 461:.\BLEApplications.c **** * Parameters:
 462:.\BLEApplications.c **** *  void	
 463:.\BLEApplications.c **** *
 464:.\BLEApplications.c **** * Return:
 465:.\BLEApplications.c **** *  void
 466:.\BLEApplications.c **** *
 467:.\BLEApplications.c **** *******************************************************************************/
 468:.\BLEApplications.c **** void SendDataOverVersionInfoNotification(void)
 469:.\BLEApplications.c **** {
 648              		.loc 1 469 0
 649              		.cfi_startproc
 650 0000 1FB5     		push	{r0, r1, r2, r3, r4, lr}
 651              		.cfi_def_cfa_offset 24
 652              		.cfi_offset 0, -24
 653              		.cfi_offset 1, -20
 654              		.cfi_offset 2, -16
 655              		.cfi_offset 3, -12
 656              		.cfi_offset 4, -8
 657              		.cfi_offset 14, -4
 470:.\BLEApplications.c **** 	/* 'CapSensenotificationHandle' stores CapSense notification data parameters */
 471:.\BLEApplications.c **** 	CYBLE_GATTS_HANDLE_VALUE_NTF_T		VersionInfoHandle;	
 472:.\BLEApplications.c **** 	
 473:.\BLEApplications.c **** 	/* If stack is not busy, then send the notification */
 474:.\BLEApplications.c **** 	if(busyStatus == CYBLE_STACK_STATE_FREE)
 658              		.loc 1 474 0
 659 0002 0A4B     		ldr	r3, .L62
 660 0004 9B79     		ldrb	r3, [r3, #6]
 661 0006 002B     		cmp	r3, #0
 662 0008 0DD1     		bne	.L60
 475:.\BLEApplications.c **** 	{
 476:.\BLEApplications.c **** 		/* Update notification handle with CapSense slider data*/
ARM GAS  C:\Users\ADMINI~1\AppData\Local\Temp\cc2ReiUL.s 			page 23


 477:.\BLEApplications.c **** 		VersionInfoHandle.attrHandle = CYBLE_BACKBONE_VERSION_CHAR_HANDLE;				
 663              		.loc 1 477 0
 664 000a 01A9     		add	r1, sp, #4
 665 000c 3233     		add	r3, r3, #50
 666 000e 0B81     		strh	r3, [r1, #8]
 478:.\BLEApplications.c **** 		VersionInfoHandle.value.val = VersionString;
 667              		.loc 1 478 0
 668 0010 074B     		ldr	r3, .L62+4
 479:.\BLEApplications.c **** 		VersionInfoHandle.value.len = sizeof(VersionString);
 480:.\BLEApplications.c **** 		
 481:.\BLEApplications.c **** 		/* Send the updated handle as part of attribute for notifications */
 482:.\BLEApplications.c **** 		CyBle_GattsNotification(connectionHandle,&VersionInfoHandle);
 669              		.loc 1 482 0
 670 0012 084A     		ldr	r2, .L62+8
 478:.\BLEApplications.c **** 		VersionInfoHandle.value.val = VersionString;
 671              		.loc 1 478 0
 672 0014 0193     		str	r3, [sp, #4]
 479:.\BLEApplications.c **** 		VersionInfoHandle.value.len = sizeof(VersionString);
 673              		.loc 1 479 0
 674 0016 0423     		mov	r3, #4
 675              		.loc 1 482 0
 676 0018 5078     		ldrb	r0, [r2, #1]
 479:.\BLEApplications.c **** 		VersionInfoHandle.value.len = sizeof(VersionString);
 677              		.loc 1 479 0
 678 001a 8B80     		strh	r3, [r1, #4]
 679              		.loc 1 482 0
 680 001c 1378     		ldrb	r3, [r2]
 681 001e 0002     		lsl	r0, r0, #8
 682 0020 1843     		orr	r0, r3
 683 0022 FFF7FEFF 		bl	CyBle_GattsNotification
 684              	.LVL30:
 685              	.L60:
 483:.\BLEApplications.c **** 	}
 484:.\BLEApplications.c **** }
 686              		.loc 1 484 0
 687 0026 05B0     		add	sp, sp, #20
 688              		@ sp needed
 689 0028 00BD     		pop	{pc}
 690              	.L63:
 691 002a C046     		.align	2
 692              	.L62:
 693 002c 00000000 		.word	.LANCHOR0
 694 0030 00000000 		.word	VersionString
 695 0034 00000000 		.word	connectionHandle
 696              		.cfi_endproc
 697              	.LFE39:
 698              		.size	SendDataOverVersionInfoNotification, .-SendDataOverVersionInfoNotification
 699              		.section	.text.UpdateConnectionParam,"ax",%progbits
 700              		.align	1
 701              		.global	UpdateConnectionParam
 702              		.code	16
 703              		.thumb_func
 704              		.type	UpdateConnectionParam, %function
 705              	UpdateConnectionParam:
 706              	.LFB40:
 485:.\BLEApplications.c **** 
 486:.\BLEApplications.c **** /*******************************************************************************
ARM GAS  C:\Users\ADMINI~1\AppData\Local\Temp\cc2ReiUL.s 			page 24


 487:.\BLEApplications.c **** * Function Name: UpdateConnectionParam
 488:.\BLEApplications.c **** ********************************************************************************
 489:.\BLEApplications.c **** * Summary:
 490:.\BLEApplications.c **** *        Send the Connection Update Request to Client device after connection 
 491:.\BLEApplications.c **** * and modify theconnection interval for low power operation.
 492:.\BLEApplications.c **** *
 493:.\BLEApplications.c **** * Parameters:
 494:.\BLEApplications.c **** *	void
 495:.\BLEApplications.c **** *
 496:.\BLEApplications.c **** * Return:
 497:.\BLEApplications.c **** *  void
 498:.\BLEApplications.c **** *
 499:.\BLEApplications.c **** *******************************************************************************/
 500:.\BLEApplications.c **** void UpdateConnectionParam(void)
 501:.\BLEApplications.c **** {
 707              		.loc 1 501 0
 708              		.cfi_startproc
 709 0000 08B5     		push	{r3, lr}
 710              		.cfi_def_cfa_offset 8
 711              		.cfi_offset 3, -8
 712              		.cfi_offset 14, -4
 502:.\BLEApplications.c **** 	/* If device is connected and Update connection parameter not updated yet,
 503:.\BLEApplications.c **** 	* then send the Connection Parameter Update request to Client. */
 504:.\BLEApplications.c ****     if(deviceConnected && isConnectionUpdateRequested)
 713              		.loc 1 504 0
 714 0002 084B     		ldr	r3, .L72
 715 0004 5B78     		ldrb	r3, [r3, #1]
 716 0006 002B     		cmp	r3, #0
 717 0008 0AD0     		beq	.L64
 718              		.loc 1 504 0 is_stmt 0 discriminator 1
 719 000a 0749     		ldr	r1, .L72+4
 720 000c 4B78     		ldrb	r3, [r1, #1]
 721 000e 002B     		cmp	r3, #0
 722 0010 06D0     		beq	.L64
 505:.\BLEApplications.c **** 	{
 506:.\BLEApplications.c **** 		/* Reset the flag to indicate that connection Update request has been sent */
 507:.\BLEApplications.c **** 		isConnectionUpdateRequested = FALSE;
 723              		.loc 1 507 0 is_stmt 1
 724 0012 0023     		mov	r3, #0
 725 0014 4B70     		strb	r3, [r1, #1]
 508:.\BLEApplications.c **** 		
 509:.\BLEApplications.c **** 		/* Send Connection Update request with set Parameter */
 510:.\BLEApplications.c **** 		CyBle_L2capLeConnectionParamUpdateRequest(connectionHandle.bdHandle, &ConnectionParam);
 726              		.loc 1 510 0
 727 0016 054B     		ldr	r3, .L72+8
 728 0018 0231     		add	r1, r1, #2
 729 001a 1878     		ldrb	r0, [r3]
 730 001c FFF7FEFF 		bl	CyBle_L2capLeConnectionParamUpdateRequest
 731              	.LVL31:
 732              	.L64:
 511:.\BLEApplications.c **** 	}
 512:.\BLEApplications.c **** }
 733              		.loc 1 512 0
 734              		@ sp needed
 735 0020 08BD     		pop	{r3, pc}
 736              	.L73:
 737 0022 C046     		.align	2
ARM GAS  C:\Users\ADMINI~1\AppData\Local\Temp\cc2ReiUL.s 			page 25


 738              	.L72:
 739 0024 00000000 		.word	.LANCHOR0
 740 0028 00000000 		.word	.LANCHOR1
 741 002c 00000000 		.word	connectionHandle
 742              		.cfi_endproc
 743              	.LFE40:
 744              		.size	UpdateConnectionParam, .-UpdateConnectionParam
 745              		.section	.text.WDT_INT_Handler,"ax",%progbits
 746              		.align	1
 747              		.global	WDT_INT_Handler
 748              		.code	16
 749              		.thumb_func
 750              		.type	WDT_INT_Handler, %function
 751              	WDT_INT_Handler:
 752              	.LFB41:
 513:.\BLEApplications.c **** 
 514:.\BLEApplications.c **** 
 515:.\BLEApplications.c **** 
 516:.\BLEApplications.c **** /*******************************************************************************
 517:.\BLEApplications.c **** * Function Name: WDT_INT_Handler
 518:.\BLEApplications.c **** ********************************************************************************
 519:.\BLEApplications.c **** * Summary:
 520:.\BLEApplications.c **** *        Watchdog interrupt routine for controlling LED status in connected state
 521:.\BLEApplications.c **** *
 522:.\BLEApplications.c **** * Parameters:
 523:.\BLEApplications.c **** *  void
 524:.\BLEApplications.c **** *
 525:.\BLEApplications.c **** * Return:
 526:.\BLEApplications.c **** *  void
 527:.\BLEApplications.c **** *
 528:.\BLEApplications.c **** *******************************************************************************/
 529:.\BLEApplications.c **** void WDT_INT_Handler(void)
 530:.\BLEApplications.c **** {
 753              		.loc 1 530 0
 754              		.cfi_startproc
 531:.\BLEApplications.c **** //	/* If the Interrupt source is Counter 0 match, then process */
 532:.\BLEApplications.c **** //	if(CySysWdtGetInterruptSource() & CY_SYS_WDT_COUNTER0_INT)
 533:.\BLEApplications.c **** //	{
 534:.\BLEApplications.c **** //		/* Clear Watchdog Interrupt from Counter 0 */
 535:.\BLEApplications.c **** //		CySysWdtClearInterrupt(CY_SYS_WDT_COUNTER0_INT);
 536:.\BLEApplications.c **** //		
 537:.\BLEApplications.c **** //		/* If switch_off_status_led is TRUE, then the Connection status LED 
 538:.\BLEApplications.c **** //		* is ON and it is required to shut it down after 3 seconds */
 539:.\BLEApplications.c **** //		if(switch_off_status_led)
 540:.\BLEApplications.c **** //		{
 541:.\BLEApplications.c **** //			/* If timer ticks for Connection ON LED period has expired, then switch
 542:.\BLEApplications.c **** //			* off LED */
 543:.\BLEApplications.c **** //			if(timer_tick == FALSE)
 544:.\BLEApplications.c **** //			{
 545:.\BLEApplications.c **** //				/* Switch of Status LED */
 546:.\BLEApplications.c **** //				PrISM_1_WritePulse0(RGB_LED_OFF);
 547:.\BLEApplications.c **** //				
 548:.\BLEApplications.c **** //				/* Set the drive mode of LED to Analog HiZ to prevent leakage current */
 549:.\BLEApplications.c **** //				RED_SetDriveMode(RED_DM_ALG_HIZ);
 550:.\BLEApplications.c **** //				
 551:.\BLEApplications.c **** //				/* Reset the Flag */
 552:.\BLEApplications.c **** //				switch_off_status_led = FALSE;
ARM GAS  C:\Users\ADMINI~1\AppData\Local\Temp\cc2ReiUL.s 			page 26


 553:.\BLEApplications.c **** //				
 554:.\BLEApplications.c **** //			}
 555:.\BLEApplications.c **** //			else
 556:.\BLEApplications.c **** //			{
 557:.\BLEApplications.c **** //				/* Decrement timer_tick as counting method */
 558:.\BLEApplications.c **** //				timer_tick--;
 559:.\BLEApplications.c **** //			}
 560:.\BLEApplications.c **** //		}
 561:.\BLEApplications.c **** //		/* If the LED activity for Connection LED ON is completed, then firmware is 
 562:.\BLEApplications.c **** //		* allowed to do timing for RGB LED Control operation after connection. This 
 563:.\BLEApplications.c **** //		* operation keeps the RGB LED ON for determined time (default 3 seconds) from
 564:.\BLEApplications.c **** //		* the last time RGB LED data was sent. This ensures that continuous usage of 
 565:.\BLEApplications.c **** //		* the kit in RGB mode does not consume too much power */
 566:.\BLEApplications.c **** //		else
 567:.\BLEApplications.c **** //		{
 568:.\BLEApplications.c **** //			/* After displaying color for predetermined time, switch off 
 569:.\BLEApplications.c **** //			* the LEDs to save power */
 570:.\BLEApplications.c **** //			if(FALSE == led_timer)
 571:.\BLEApplications.c **** //			{
 572:.\BLEApplications.c **** //				/* Set the flag to indicate to the Low power mode function that system 
 573:.\BLEApplications.c **** //				* can be put to Deep Sleep as no LED operation is required */
 574:.\BLEApplications.c **** //				shut_down_led= TRUE;
 575:.\BLEApplications.c **** //				
 576:.\BLEApplications.c **** //				/* Shut down LEDs*/
 577:.\BLEApplications.c **** //				RED_SetDriveMode(RED_DM_ALG_HIZ);
 578:.\BLEApplications.c **** //				GREEN_SetDriveMode(GREEN_DM_ALG_HIZ);
 579:.\BLEApplications.c **** //				BLUE_SetDriveMode(BLUE_DM_ALG_HIZ);
 580:.\BLEApplications.c **** //			}
 581:.\BLEApplications.c **** //			else
 582:.\BLEApplications.c **** //			{	
 583:.\BLEApplications.c **** //				/* Decrement the led_timer as counting method for RGB LED Control. During
 584:.\BLEApplications.c **** //				* this period, the PrISM is active and drives the signal to display the 
 585:.\BLEApplications.c **** //				* appropriate color */
 586:.\BLEApplications.c **** //				led_timer--;
 587:.\BLEApplications.c **** //			}
 588:.\BLEApplications.c **** //		}
 589:.\BLEApplications.c **** //		
 590:.\BLEApplications.c **** //		/* Unlock the WDT registers for modification */
 591:.\BLEApplications.c **** //		CySysWdtUnlock();
 592:.\BLEApplications.c **** //		
 593:.\BLEApplications.c **** //		/* Disable Counter 0 to allow modifications */
 594:.\BLEApplications.c **** //		CySysWdtDisable(CY_SYS_WDT_COUNTER0_MASK);
 595:.\BLEApplications.c **** //		
 596:.\BLEApplications.c **** //		/* Reset Counter 0 and give ~3 LFCLK cycles to take effect */
 597:.\BLEApplications.c **** //		CySysWdtResetCounters(CY_SYS_WDT_COUNTER0_RESET);
 598:.\BLEApplications.c **** //		CyDelayUs(WATCHDOG_REG_UPDATE_WAIT_TIME);
 599:.\BLEApplications.c **** //		
 600:.\BLEApplications.c **** //		/* Write the Counter 0 match value for 1 second and give ~3 LFCLK
 601:.\BLEApplications.c **** //		* cycles to take effect */
 602:.\BLEApplications.c **** //		CySysWdtWriteMatch(CY_SYS_WDT_COUNTER0, WATCHDOG_ONE_SEC_COUNT_VAL);
 603:.\BLEApplications.c **** //		CyDelayUs(WATCHDOG_REG_UPDATE_WAIT_TIME);
 604:.\BLEApplications.c **** //		
 605:.\BLEApplications.c **** //		/* Enable Watchdog Counter 0 */
 606:.\BLEApplications.c **** //		CySysWdtEnable(CY_SYS_WDT_COUNTER0_MASK);
 607:.\BLEApplications.c **** //		
 608:.\BLEApplications.c **** //		/* Lock Watchdog to prevent any further change */
 609:.\BLEApplications.c **** //	    CySysWdtLock();
ARM GAS  C:\Users\ADMINI~1\AppData\Local\Temp\cc2ReiUL.s 			page 27


 610:.\BLEApplications.c **** //	}
 611:.\BLEApplications.c **** }
 755              		.loc 1 611 0
 756              		@ sp needed
 757 0000 7047     		bx	lr
 758              		.cfi_endproc
 759              	.LFE41:
 760              		.size	WDT_INT_Handler, .-WDT_INT_Handler
 761              		.section	.text.InitializeWatchdog,"ax",%progbits
 762              		.align	1
 763              		.global	InitializeWatchdog
 764              		.code	16
 765              		.thumb_func
 766              		.type	InitializeWatchdog, %function
 767              	InitializeWatchdog:
 768              	.LFB42:
 612:.\BLEApplications.c **** 
 613:.\BLEApplications.c **** /*******************************************************************************
 614:.\BLEApplications.c **** * Function Name: InitializeWatchdog
 615:.\BLEApplications.c **** ********************************************************************************
 616:.\BLEApplications.c **** * Summary:
 617:.\BLEApplications.c **** *        Reset watchdog timer
 618:.\BLEApplications.c **** *
 619:.\BLEApplications.c **** * Parameters:
 620:.\BLEApplications.c **** *  void
 621:.\BLEApplications.c **** *
 622:.\BLEApplications.c **** * Return:
 623:.\BLEApplications.c **** *  void
 624:.\BLEApplications.c **** *
 625:.\BLEApplications.c **** *******************************************************************************/
 626:.\BLEApplications.c **** void InitializeWatchdog(void)
 627:.\BLEApplications.c **** {
 769              		.loc 1 627 0
 770              		.cfi_startproc
 628:.\BLEApplications.c **** //	/* Unlock the WDT registers for modification */
 629:.\BLEApplications.c **** //	CySysWdtUnlock(); 
 630:.\BLEApplications.c **** //	
 631:.\BLEApplications.c **** //	/* Write Mode for Counter 0 as Interrupt on Match */
 632:.\BLEApplications.c **** //    CySysWdtWriteMode(CY_SYS_WDT_COUNTER0, CY_SYS_WDT_MODE_INT);
 633:.\BLEApplications.c **** //	
 634:.\BLEApplications.c **** //	/* Set Clear on Match for Counter 0*/
 635:.\BLEApplications.c **** //	CySysWdtWriteClearOnMatch(CY_SYS_WDT_COUNTER0, TRUE);
 636:.\BLEApplications.c **** //    
 637:.\BLEApplications.c **** //	/* Set Watchdog interrupt to lower priority */
 638:.\BLEApplications.c **** //	CyIntSetPriority(WATCHDOG_INT_VEC_NUM, WATCHDOG_INT_VEC_PRIORITY);
 639:.\BLEApplications.c **** //	
 640:.\BLEApplications.c **** //	/* Enable Watchdog Interrupt using Interrupt number */
 641:.\BLEApplications.c **** //    CyIntEnable(WATCHDOG_INT_VEC_NUM);
 642:.\BLEApplications.c **** //	
 643:.\BLEApplications.c **** //	/* Write the match value equal to 1 second in Counter 0 */
 644:.\BLEApplications.c **** //	CySysWdtWriteMatch(CY_SYS_WDT_COUNTER0, WATCHDOG_ONE_SEC_COUNT_VAL);
 645:.\BLEApplications.c **** //    
 646:.\BLEApplications.c **** //	/* Enable Counter 0 */
 647:.\BLEApplications.c **** //    CySysWdtEnable(CY_SYS_WDT_COUNTER0_MASK);
 648:.\BLEApplications.c **** //	
 649:.\BLEApplications.c **** //	/* Lock Watchdog to prevent further changes */
 650:.\BLEApplications.c **** //    CySysWdtLock();
ARM GAS  C:\Users\ADMINI~1\AppData\Local\Temp\cc2ReiUL.s 			page 28


 651:.\BLEApplications.c **** }
 771              		.loc 1 651 0
 772              		@ sp needed
 773 0000 7047     		bx	lr
 774              		.cfi_endproc
 775              	.LFE42:
 776              		.size	InitializeWatchdog, .-InitializeWatchdog
 777              		.comm	VersionInfoNotificationHandle,12,4
 778              		.comm	PedometerNotificationHandle,12,4
 779              		.comm	GyroNotificationHandle,12,4
 780              		.comm	AccelNotificationHandle,12,4
 781              		.comm	VersionInfoCCCDValue,2,1
 782              		.comm	PedometerCCCDValue,2,1
 783              		.comm	GyroCCCDValue,2,1
 784              		.comm	AccelCCCDValue,2,1
 785              		.comm	RGBCCCDvalue,2,1
 786              		.comm	CapSenseCCCDvalue,2,1
 787              		.global	busyStatus
 788              		.global	shut_down_led
 789              		.global	restartAdvertisement
 790              		.global	deviceConnected
 791              		.global	SendVersionInfoNotifications
 792              		.global	SendPedometerNotifications
 793              		.global	SendGyroNotifications
 794              		.global	SendAccelNotifications
 795              		.comm	connectionHandle,2,1
 796              		.section	.rodata
 797              		.set	.LANCHOR2,. + 0
 798              		.type	EnterBootloaderKey, %object
 799              		.size	EnterBootloaderKey, 8
 800              	EnterBootloaderKey:
 801 0000 11       		.byte	17
 802 0001 22       		.byte	34
 803 0002 33       		.byte	51
 804 0003 44       		.byte	68
 805 0004 55       		.byte	85
 806 0005 66       		.byte	102
 807 0006 77       		.byte	119
 808 0007 88       		.byte	-120
 809              		.data
 810              		.align	1
 811              		.set	.LANCHOR1,. + 0
 812              		.type	shut_down_led, %object
 813              		.size	shut_down_led, 1
 814              	shut_down_led:
 815 0000 01       		.byte	1
 816              		.type	isConnectionUpdateRequested, %object
 817              		.size	isConnectionUpdateRequested, 1
 818              	isConnectionUpdateRequested:
 819 0001 01       		.byte	1
 820              		.type	ConnectionParam, %object
 821              		.size	ConnectionParam, 8
 822              	ConnectionParam:
 823 0002 3200     		.short	50
 824 0004 3400     		.short	52
 825 0006 0400     		.short	4
 826 0008 C800     		.short	200
ARM GAS  C:\Users\ADMINI~1\AppData\Local\Temp\cc2ReiUL.s 			page 29


 827              		.bss
 828              		.set	.LANCHOR0,. + 0
 829              		.type	restartAdvertisement, %object
 830              		.size	restartAdvertisement, 1
 831              	restartAdvertisement:
 832 0000 00       		.space	1
 833              		.type	deviceConnected, %object
 834              		.size	deviceConnected, 1
 835              	deviceConnected:
 836 0001 00       		.space	1
 837              		.type	SendAccelNotifications, %object
 838              		.size	SendAccelNotifications, 1
 839              	SendAccelNotifications:
 840 0002 00       		.space	1
 841              		.type	SendGyroNotifications, %object
 842              		.size	SendGyroNotifications, 1
 843              	SendGyroNotifications:
 844 0003 00       		.space	1
 845              		.type	SendPedometerNotifications, %object
 846              		.size	SendPedometerNotifications, 1
 847              	SendPedometerNotifications:
 848 0004 00       		.space	1
 849              		.type	SendVersionInfoNotifications, %object
 850              		.size	SendVersionInfoNotifications, 1
 851              	SendVersionInfoNotifications:
 852 0005 00       		.space	1
 853              		.type	busyStatus, %object
 854              		.size	busyStatus, 1
 855              	busyStatus:
 856 0006 00       		.space	1
 857              		.text
 858              	.Letext0:
 859              		.file 2 "Generated_Source\\PSoC4/cytypes.h"
 860              		.file 3 "./BackBone.h"
 861              		.file 4 "./..\\BLE_OTA_FixedStack_Bootloader01.cydsn\\Generated_Source\\PSoC4\\CyBle_Stack.h"
 862              		.file 5 "./..\\BLE_OTA_FixedStack_Bootloader01.cydsn\\Generated_Source\\PSoC4\\CyBle_StackGap.h"
 863              		.file 6 "./..\\BLE_OTA_FixedStack_Bootloader01.cydsn\\Generated_Source\\PSoC4\\CyBle_StackGatt.h"
 864              		.file 7 "./..\\BLE_OTA_FixedStack_Bootloader01.cydsn\\Generated_Source\\PSoC4\\CyBle_StackGattServ
 865              		.file 8 "./..\\BLE_OTA_FixedStack_Bootloader01.cydsn\\Generated_Source\\PSoC4\\cyble_dis.h"
 866              		.file 9 "./..\\BLE_OTA_FixedStack_Bootloader01.cydsn\\Generated_Source\\PSoC4\\cyble_eventhandler.
 867              		.file 10 "./main.h"
 868              		.file 11 "Generated_Source\\PSoC4/MotorPWM.h"
 869              		.file 12 "./..\\BLE_OTA_FixedStack_Bootloader01.cydsn\\Generated_Source\\PSoC4\\CyBle_StackGattDb.
 870              		.file 13 "./..\\BLE_OTA_FixedStack_Bootloader01.cydsn\\Generated_Source\\PSoC4\\CyBle_StackL2cap.h
 871              		.file 14 "./OTAMandatory.h"