ARM GAS  C:\Users\ADMINI~1\AppData\Local\Temp\cctxdVhJ.s 			page 1


   1              		.cpu cortex-m0
   2              		.fpu softvfp
   3              		.eabi_attribute 20, 1
   4              		.eabi_attribute 21, 1
   5              		.eabi_attribute 23, 3
   6              		.eabi_attribute 24, 1
   7              		.eabi_attribute 25, 1
   8              		.eabi_attribute 26, 1
   9              		.eabi_attribute 30, 4
  10              		.eabi_attribute 34, 0
  11              		.eabi_attribute 18, 4
  12              		.code	16
  13              		.file	"cyfitter_cfg.c"
  14              		.text
  15              	.Ltext0:
  16              		.cfi_sections	.debug_frame
  17              		.section	.text.SetAnalogRoutingPumps,"ax",%progbits
  18              		.align	1
  19              		.global	SetAnalogRoutingPumps
  20              		.code	16
  21              		.thumb_func
  22              		.type	SetAnalogRoutingPumps, %function
  23              	SetAnalogRoutingPumps:
  24              	.LFB8:
  25              		.file 1 ".\\Generated_Source\\PSoC4\\cyfitter_cfg.c"
   1:.\Generated_Source\PSoC4/cyfitter_cfg.c **** /*******************************************************************************
   2:.\Generated_Source\PSoC4/cyfitter_cfg.c **** * File Name: cyfitter_cfg.c
   3:.\Generated_Source\PSoC4/cyfitter_cfg.c **** * 
   4:.\Generated_Source\PSoC4/cyfitter_cfg.c **** * PSoC Creator  3.3 CP3
   5:.\Generated_Source\PSoC4/cyfitter_cfg.c **** *
   6:.\Generated_Source\PSoC4/cyfitter_cfg.c **** * Description:
   7:.\Generated_Source\PSoC4/cyfitter_cfg.c **** * This file contains device initialization code.
   8:.\Generated_Source\PSoC4/cyfitter_cfg.c **** * Except for the user defined sections in CyClockStartupError(), this file should not be modified.
   9:.\Generated_Source\PSoC4/cyfitter_cfg.c **** * This file is automatically generated by PSoC Creator.
  10:.\Generated_Source\PSoC4/cyfitter_cfg.c **** *
  11:.\Generated_Source\PSoC4/cyfitter_cfg.c **** ********************************************************************************
  12:.\Generated_Source\PSoC4/cyfitter_cfg.c **** * Copyright (c) 2007-2016 Cypress Semiconductor.  All rights reserved.
  13:.\Generated_Source\PSoC4/cyfitter_cfg.c **** * You may use this file only in accordance with the license, terms, conditions, 
  14:.\Generated_Source\PSoC4/cyfitter_cfg.c **** * disclaimers, and limitations in the end user license agreement accompanying 
  15:.\Generated_Source\PSoC4/cyfitter_cfg.c **** * the software package with which this file was provided.
  16:.\Generated_Source\PSoC4/cyfitter_cfg.c **** ********************************************************************************/
  17:.\Generated_Source\PSoC4/cyfitter_cfg.c **** 
  18:.\Generated_Source\PSoC4/cyfitter_cfg.c **** #include <string.h>
  19:.\Generated_Source\PSoC4/cyfitter_cfg.c **** #include "cytypes.h"
  20:.\Generated_Source\PSoC4/cyfitter_cfg.c **** #include "cydevice_trm.h"
  21:.\Generated_Source\PSoC4/cyfitter_cfg.c **** #include "cyfitter.h"
  22:.\Generated_Source\PSoC4/cyfitter_cfg.c **** #include "CyLib.h"
  23:.\Generated_Source\PSoC4/cyfitter_cfg.c **** #include "cyfitter_cfg.h"
  24:.\Generated_Source\PSoC4/cyfitter_cfg.c **** 
  25:.\Generated_Source\PSoC4/cyfitter_cfg.c **** 
  26:.\Generated_Source\PSoC4/cyfitter_cfg.c **** #if defined(__GNUC__) || defined(__ARMCC_VERSION)
  27:.\Generated_Source\PSoC4/cyfitter_cfg.c ****     #define CYPACKED 
  28:.\Generated_Source\PSoC4/cyfitter_cfg.c ****     #define CYPACKED_ATTR __attribute__ ((packed))
  29:.\Generated_Source\PSoC4/cyfitter_cfg.c ****     #define CYALIGNED __attribute__ ((aligned))
  30:.\Generated_Source\PSoC4/cyfitter_cfg.c ****     #define CY_CFG_UNUSED __attribute__ ((unused))
  31:.\Generated_Source\PSoC4/cyfitter_cfg.c ****     #ifndef CY_CFG_SECTION
  32:.\Generated_Source\PSoC4/cyfitter_cfg.c ****         #define CY_CFG_SECTION __attribute__ ((section(".psocinit")))
ARM GAS  C:\Users\ADMINI~1\AppData\Local\Temp\cctxdVhJ.s 			page 2


  33:.\Generated_Source\PSoC4/cyfitter_cfg.c ****     #endif
  34:.\Generated_Source\PSoC4/cyfitter_cfg.c ****     
  35:.\Generated_Source\PSoC4/cyfitter_cfg.c ****     #if defined(__ARMCC_VERSION)
  36:.\Generated_Source\PSoC4/cyfitter_cfg.c ****         #define CY_CFG_MEMORY_BARRIER() __memory_changed()
  37:.\Generated_Source\PSoC4/cyfitter_cfg.c ****     #else
  38:.\Generated_Source\PSoC4/cyfitter_cfg.c ****         #define CY_CFG_MEMORY_BARRIER() __sync_synchronize()
  39:.\Generated_Source\PSoC4/cyfitter_cfg.c ****     #endif
  40:.\Generated_Source\PSoC4/cyfitter_cfg.c ****     
  41:.\Generated_Source\PSoC4/cyfitter_cfg.c **** #elif defined(__ICCARM__)
  42:.\Generated_Source\PSoC4/cyfitter_cfg.c ****     #include <intrinsics.h>
  43:.\Generated_Source\PSoC4/cyfitter_cfg.c **** 
  44:.\Generated_Source\PSoC4/cyfitter_cfg.c ****     #define CYPACKED __packed
  45:.\Generated_Source\PSoC4/cyfitter_cfg.c ****     #define CYPACKED_ATTR 
  46:.\Generated_Source\PSoC4/cyfitter_cfg.c ****     #define CYALIGNED _Pragma("data_alignment=4")
  47:.\Generated_Source\PSoC4/cyfitter_cfg.c ****     #define CY_CFG_UNUSED _Pragma("diag_suppress=Pe177")
  48:.\Generated_Source\PSoC4/cyfitter_cfg.c ****     #define CY_CFG_SECTION _Pragma("location=\".psocinit\"")
  49:.\Generated_Source\PSoC4/cyfitter_cfg.c ****     
  50:.\Generated_Source\PSoC4/cyfitter_cfg.c ****     #define CY_CFG_MEMORY_BARRIER() __DMB()
  51:.\Generated_Source\PSoC4/cyfitter_cfg.c ****     
  52:.\Generated_Source\PSoC4/cyfitter_cfg.c **** #else
  53:.\Generated_Source\PSoC4/cyfitter_cfg.c ****     #error Unsupported toolchain
  54:.\Generated_Source\PSoC4/cyfitter_cfg.c **** #endif
  55:.\Generated_Source\PSoC4/cyfitter_cfg.c **** 
  56:.\Generated_Source\PSoC4/cyfitter_cfg.c **** 
  57:.\Generated_Source\PSoC4/cyfitter_cfg.c **** CY_CFG_UNUSED
  58:.\Generated_Source\PSoC4/cyfitter_cfg.c **** static void CYMEMZERO(void *s, size_t n);
  59:.\Generated_Source\PSoC4/cyfitter_cfg.c **** CY_CFG_UNUSED
  60:.\Generated_Source\PSoC4/cyfitter_cfg.c **** static void CYMEMZERO(void *s, size_t n)
  61:.\Generated_Source\PSoC4/cyfitter_cfg.c **** {
  62:.\Generated_Source\PSoC4/cyfitter_cfg.c **** 	(void)memset(s, 0, n);
  63:.\Generated_Source\PSoC4/cyfitter_cfg.c **** }
  64:.\Generated_Source\PSoC4/cyfitter_cfg.c **** CY_CFG_UNUSED
  65:.\Generated_Source\PSoC4/cyfitter_cfg.c **** static void CYCONFIGCPY(void *dest, const void *src, size_t n);
  66:.\Generated_Source\PSoC4/cyfitter_cfg.c **** CY_CFG_UNUSED
  67:.\Generated_Source\PSoC4/cyfitter_cfg.c **** static void CYCONFIGCPY(void *dest, const void *src, size_t n)
  68:.\Generated_Source\PSoC4/cyfitter_cfg.c **** {
  69:.\Generated_Source\PSoC4/cyfitter_cfg.c **** 	(void)memcpy(dest, src, n);
  70:.\Generated_Source\PSoC4/cyfitter_cfg.c **** }
  71:.\Generated_Source\PSoC4/cyfitter_cfg.c **** CY_CFG_UNUSED
  72:.\Generated_Source\PSoC4/cyfitter_cfg.c **** static void CYCONFIGCPYCODE(void *dest, const void *src, size_t n);
  73:.\Generated_Source\PSoC4/cyfitter_cfg.c **** CY_CFG_UNUSED
  74:.\Generated_Source\PSoC4/cyfitter_cfg.c **** static void CYCONFIGCPYCODE(void *dest, const void *src, size_t n)
  75:.\Generated_Source\PSoC4/cyfitter_cfg.c **** {
  76:.\Generated_Source\PSoC4/cyfitter_cfg.c **** 	(void)memcpy(dest, src, n);
  77:.\Generated_Source\PSoC4/cyfitter_cfg.c **** }
  78:.\Generated_Source\PSoC4/cyfitter_cfg.c **** 
  79:.\Generated_Source\PSoC4/cyfitter_cfg.c **** 
  80:.\Generated_Source\PSoC4/cyfitter_cfg.c **** 
  81:.\Generated_Source\PSoC4/cyfitter_cfg.c **** /* Clock startup error codes                                                   */
  82:.\Generated_Source\PSoC4/cyfitter_cfg.c **** #define CYCLOCKSTART_NO_ERROR    0u
  83:.\Generated_Source\PSoC4/cyfitter_cfg.c **** #define CYCLOCKSTART_XTAL_ERROR  1u
  84:.\Generated_Source\PSoC4/cyfitter_cfg.c **** #define CYCLOCKSTART_32KHZ_ERROR 2u
  85:.\Generated_Source\PSoC4/cyfitter_cfg.c **** #define CYCLOCKSTART_PLL_ERROR   3u
  86:.\Generated_Source\PSoC4/cyfitter_cfg.c **** 
  87:.\Generated_Source\PSoC4/cyfitter_cfg.c **** #ifdef CY_NEED_CYCLOCKSTARTUPERROR
  88:.\Generated_Source\PSoC4/cyfitter_cfg.c **** /*******************************************************************************
  89:.\Generated_Source\PSoC4/cyfitter_cfg.c **** * Function Name: CyClockStartupError
ARM GAS  C:\Users\ADMINI~1\AppData\Local\Temp\cctxdVhJ.s 			page 3


  90:.\Generated_Source\PSoC4/cyfitter_cfg.c **** ********************************************************************************
  91:.\Generated_Source\PSoC4/cyfitter_cfg.c **** * Summary:
  92:.\Generated_Source\PSoC4/cyfitter_cfg.c **** *  If an error is encountered during clock configuration (crystal startup error,
  93:.\Generated_Source\PSoC4/cyfitter_cfg.c **** *  PLL lock error, etc.), the system will end up here.  Unless reimplemented by
  94:.\Generated_Source\PSoC4/cyfitter_cfg.c **** *  the customer, this function will stop in an infinite loop.
  95:.\Generated_Source\PSoC4/cyfitter_cfg.c **** *
  96:.\Generated_Source\PSoC4/cyfitter_cfg.c **** * Parameters:
  97:.\Generated_Source\PSoC4/cyfitter_cfg.c **** *   void
  98:.\Generated_Source\PSoC4/cyfitter_cfg.c **** *
  99:.\Generated_Source\PSoC4/cyfitter_cfg.c **** * Return:
 100:.\Generated_Source\PSoC4/cyfitter_cfg.c **** *   void
 101:.\Generated_Source\PSoC4/cyfitter_cfg.c **** *
 102:.\Generated_Source\PSoC4/cyfitter_cfg.c **** *******************************************************************************/
 103:.\Generated_Source\PSoC4/cyfitter_cfg.c **** CY_CFG_UNUSED
 104:.\Generated_Source\PSoC4/cyfitter_cfg.c **** static void CyClockStartupError(uint8 errorCode);
 105:.\Generated_Source\PSoC4/cyfitter_cfg.c **** CY_CFG_UNUSED
 106:.\Generated_Source\PSoC4/cyfitter_cfg.c **** static void CyClockStartupError(uint8 errorCode)
 107:.\Generated_Source\PSoC4/cyfitter_cfg.c **** {
 108:.\Generated_Source\PSoC4/cyfitter_cfg.c ****     /* To remove the compiler warning if errorCode not used.                */
 109:.\Generated_Source\PSoC4/cyfitter_cfg.c ****     errorCode = errorCode;
 110:.\Generated_Source\PSoC4/cyfitter_cfg.c **** 
 111:.\Generated_Source\PSoC4/cyfitter_cfg.c ****     /* `#START CyClockStartupError` */
 112:.\Generated_Source\PSoC4/cyfitter_cfg.c **** 
 113:.\Generated_Source\PSoC4/cyfitter_cfg.c ****     /* If we have a clock startup error (bad MHz crystal, PLL lock, etc.),  */
 114:.\Generated_Source\PSoC4/cyfitter_cfg.c ****     /* we will end up here to allow the customer to implement something to  */
 115:.\Generated_Source\PSoC4/cyfitter_cfg.c ****     /* deal with the clock condition.                                       */
 116:.\Generated_Source\PSoC4/cyfitter_cfg.c **** 
 117:.\Generated_Source\PSoC4/cyfitter_cfg.c ****     /* `#END` */
 118:.\Generated_Source\PSoC4/cyfitter_cfg.c **** 
 119:.\Generated_Source\PSoC4/cyfitter_cfg.c ****     /* If nothing else, stop here since the clocks have not started         */
 120:.\Generated_Source\PSoC4/cyfitter_cfg.c ****     /* correctly.                                                           */
 121:.\Generated_Source\PSoC4/cyfitter_cfg.c ****     while(1) {}
 122:.\Generated_Source\PSoC4/cyfitter_cfg.c **** }
 123:.\Generated_Source\PSoC4/cyfitter_cfg.c **** #endif
 124:.\Generated_Source\PSoC4/cyfitter_cfg.c **** 
 125:.\Generated_Source\PSoC4/cyfitter_cfg.c **** #define CY_CFG_BASE_ADDR_COUNT 8u
 126:.\Generated_Source\PSoC4/cyfitter_cfg.c **** CYPACKED typedef struct
 127:.\Generated_Source\PSoC4/cyfitter_cfg.c **** {
 128:.\Generated_Source\PSoC4/cyfitter_cfg.c **** 	uint8 offset;
 129:.\Generated_Source\PSoC4/cyfitter_cfg.c **** 	uint8 value;
 130:.\Generated_Source\PSoC4/cyfitter_cfg.c **** } CYPACKED_ATTR cy_cfg_addrvalue_t;
 131:.\Generated_Source\PSoC4/cyfitter_cfg.c **** 
 132:.\Generated_Source\PSoC4/cyfitter_cfg.c **** 
 133:.\Generated_Source\PSoC4/cyfitter_cfg.c **** 
 134:.\Generated_Source\PSoC4/cyfitter_cfg.c **** /*******************************************************************************
 135:.\Generated_Source\PSoC4/cyfitter_cfg.c **** * Function Name: cfg_write_bytes32
 136:.\Generated_Source\PSoC4/cyfitter_cfg.c **** ********************************************************************************
 137:.\Generated_Source\PSoC4/cyfitter_cfg.c **** * Summary:
 138:.\Generated_Source\PSoC4/cyfitter_cfg.c **** *  This function is used for setting up the chip configuration areas that
 139:.\Generated_Source\PSoC4/cyfitter_cfg.c **** *  contain relatively sparse data.
 140:.\Generated_Source\PSoC4/cyfitter_cfg.c **** *
 141:.\Generated_Source\PSoC4/cyfitter_cfg.c **** * Parameters:
 142:.\Generated_Source\PSoC4/cyfitter_cfg.c **** *   void
 143:.\Generated_Source\PSoC4/cyfitter_cfg.c **** *
 144:.\Generated_Source\PSoC4/cyfitter_cfg.c **** * Return:
 145:.\Generated_Source\PSoC4/cyfitter_cfg.c **** *   void
 146:.\Generated_Source\PSoC4/cyfitter_cfg.c **** *
ARM GAS  C:\Users\ADMINI~1\AppData\Local\Temp\cctxdVhJ.s 			page 4


 147:.\Generated_Source\PSoC4/cyfitter_cfg.c **** *******************************************************************************/
 148:.\Generated_Source\PSoC4/cyfitter_cfg.c **** static void cfg_write_bytes32(const uint32 addr_table[], const cy_cfg_addrvalue_t data_table[]);
 149:.\Generated_Source\PSoC4/cyfitter_cfg.c **** static void cfg_write_bytes32(const uint32 addr_table[], const cy_cfg_addrvalue_t data_table[])
 150:.\Generated_Source\PSoC4/cyfitter_cfg.c **** {
 151:.\Generated_Source\PSoC4/cyfitter_cfg.c **** 	/* For 32-bit little-endian architectures */
 152:.\Generated_Source\PSoC4/cyfitter_cfg.c **** 	uint32 i, j = 0u;
 153:.\Generated_Source\PSoC4/cyfitter_cfg.c **** 	for (i = 0u; i < CY_CFG_BASE_ADDR_COUNT; i++)
 154:.\Generated_Source\PSoC4/cyfitter_cfg.c **** 	{
 155:.\Generated_Source\PSoC4/cyfitter_cfg.c **** 		uint32 baseAddr = addr_table[i];
 156:.\Generated_Source\PSoC4/cyfitter_cfg.c **** 		uint8 count = (uint8)baseAddr;
 157:.\Generated_Source\PSoC4/cyfitter_cfg.c **** 		baseAddr &= 0xFFFFFF00u;
 158:.\Generated_Source\PSoC4/cyfitter_cfg.c **** 		while (count != 0u)
 159:.\Generated_Source\PSoC4/cyfitter_cfg.c **** 		{
 160:.\Generated_Source\PSoC4/cyfitter_cfg.c **** 			CY_SET_XTND_REG8((void CYFAR *)(baseAddr + data_table[j].offset), data_table[j].value);
 161:.\Generated_Source\PSoC4/cyfitter_cfg.c **** 			j++;
 162:.\Generated_Source\PSoC4/cyfitter_cfg.c **** 			count--;
 163:.\Generated_Source\PSoC4/cyfitter_cfg.c **** 		}
 164:.\Generated_Source\PSoC4/cyfitter_cfg.c **** 	}
 165:.\Generated_Source\PSoC4/cyfitter_cfg.c **** }
 166:.\Generated_Source\PSoC4/cyfitter_cfg.c **** 
 167:.\Generated_Source\PSoC4/cyfitter_cfg.c **** 
 168:.\Generated_Source\PSoC4/cyfitter_cfg.c **** /*******************************************************************************
 169:.\Generated_Source\PSoC4/cyfitter_cfg.c **** * Function Name: ClockSetup
 170:.\Generated_Source\PSoC4/cyfitter_cfg.c **** ********************************************************************************
 171:.\Generated_Source\PSoC4/cyfitter_cfg.c **** *
 172:.\Generated_Source\PSoC4/cyfitter_cfg.c **** * Summary:
 173:.\Generated_Source\PSoC4/cyfitter_cfg.c **** *   Performs the initialization of all of the clocks in the device based on the
 174:.\Generated_Source\PSoC4/cyfitter_cfg.c **** *   settings in the Clock tab of the DWR.  This includes enabling the requested
 175:.\Generated_Source\PSoC4/cyfitter_cfg.c **** *   clocks and setting the necessary dividers to produce the desired frequency. 
 176:.\Generated_Source\PSoC4/cyfitter_cfg.c **** *
 177:.\Generated_Source\PSoC4/cyfitter_cfg.c **** * Parameters:
 178:.\Generated_Source\PSoC4/cyfitter_cfg.c **** *   void
 179:.\Generated_Source\PSoC4/cyfitter_cfg.c **** *
 180:.\Generated_Source\PSoC4/cyfitter_cfg.c **** * Return:
 181:.\Generated_Source\PSoC4/cyfitter_cfg.c **** *   void
 182:.\Generated_Source\PSoC4/cyfitter_cfg.c **** *
 183:.\Generated_Source\PSoC4/cyfitter_cfg.c **** *******************************************************************************/
 184:.\Generated_Source\PSoC4/cyfitter_cfg.c **** static void ClockSetup(void);
 185:.\Generated_Source\PSoC4/cyfitter_cfg.c **** CY_CFG_SECTION
 186:.\Generated_Source\PSoC4/cyfitter_cfg.c **** static void ClockSetup(void)
 187:.\Generated_Source\PSoC4/cyfitter_cfg.c **** {
 188:.\Generated_Source\PSoC4/cyfitter_cfg.c **** 
 189:.\Generated_Source\PSoC4/cyfitter_cfg.c **** 	/* Set Flash Cycles based on max possible frequency in case a glitch occurs during ClockSetup(). *
 190:.\Generated_Source\PSoC4/cyfitter_cfg.c **** 	CY_SET_REG32((void CYXDATA *)(CYREG_CPUSS_FLASH_CTL), (0x0012u));
 191:.\Generated_Source\PSoC4/cyfitter_cfg.c **** 
 192:.\Generated_Source\PSoC4/cyfitter_cfg.c **** 	/* Start the WCO */
 193:.\Generated_Source\PSoC4/cyfitter_cfg.c **** 	CySysClkWcoStart();
 194:.\Generated_Source\PSoC4/cyfitter_cfg.c **** 	CyDelayCycles(12000000u); /* WCO may take up to 500ms to start */
 195:.\Generated_Source\PSoC4/cyfitter_cfg.c **** 	(void)CySysClkWcoSetPowerMode(CY_SYS_CLK_WCO_LPM);    /* Switch to the low power mode */
 196:.\Generated_Source\PSoC4/cyfitter_cfg.c **** 
 197:.\Generated_Source\PSoC4/cyfitter_cfg.c **** 	/* Setup and trim IMO based on desired frequency. */
 198:.\Generated_Source\PSoC4/cyfitter_cfg.c **** 	CySysClkWriteImoFreq(48u);
 199:.\Generated_Source\PSoC4/cyfitter_cfg.c **** 	/* CYDEV_CLK_ILO_CONFIG Starting address: CYDEV_CLK_ILO_CONFIG */
 200:.\Generated_Source\PSoC4/cyfitter_cfg.c **** 	CY_SET_XTND_REG32((void CYFAR *)(CYREG_CLK_ILO_CONFIG), 0x80000006u);
 201:.\Generated_Source\PSoC4/cyfitter_cfg.c **** 
 202:.\Generated_Source\PSoC4/cyfitter_cfg.c **** 	/* CYDEV_WDT_CONFIG Starting address: CYDEV_WDT_CONFIG */
 203:.\Generated_Source\PSoC4/cyfitter_cfg.c **** 	CY_SET_XTND_REG32((void CYFAR *)(CYREG_WDT_CONFIG), 0x40000000u);
ARM GAS  C:\Users\ADMINI~1\AppData\Local\Temp\cctxdVhJ.s 			page 5


 204:.\Generated_Source\PSoC4/cyfitter_cfg.c **** 
 205:.\Generated_Source\PSoC4/cyfitter_cfg.c **** 
 206:.\Generated_Source\PSoC4/cyfitter_cfg.c **** 	/* Enable fast start mode for XO */
 207:.\Generated_Source\PSoC4/cyfitter_cfg.c **** 	CY_SET_REG32((void*)CYREG_BLE_BLERD_BB_XO, CY_GET_REG32((void*)CYREG_BLE_BLERD_BB_XO) | (uint32)0x
 208:.\Generated_Source\PSoC4/cyfitter_cfg.c **** 	CY_SET_XTND_REG32((void CYFAR *)(CYREG_BLE_BLERD_BB_XO_CAPTRIM), 0x00002D6Au);
 209:.\Generated_Source\PSoC4/cyfitter_cfg.c **** 	/* Disable Crystal Stable Interrupt before enabling ECO */
 210:.\Generated_Source\PSoC4/cyfitter_cfg.c **** 	CY_SET_REG32((void*)CYREG_BLE_BLESS_LL_DSM_CTRL, CY_GET_REG32((void*)CYREG_BLE_BLESS_LL_DSM_CTRL) 
 211:.\Generated_Source\PSoC4/cyfitter_cfg.c **** 	/* Start the ECO and do not check status since it is not needed for HFCLK */
 212:.\Generated_Source\PSoC4/cyfitter_cfg.c **** 	(void)CySysClkEcoStart(2000u);
 213:.\Generated_Source\PSoC4/cyfitter_cfg.c **** 	CyDelayUs(1500u); /* Wait to stabalize */
 214:.\Generated_Source\PSoC4/cyfitter_cfg.c **** 
 215:.\Generated_Source\PSoC4/cyfitter_cfg.c **** 	/* Setup phase aligned clocks */
 216:.\Generated_Source\PSoC4/cyfitter_cfg.c **** 	CY_SET_REG32((void *)CYREG_PERI_DIV_16_CTL3, 0x0001DF00u);
 217:.\Generated_Source\PSoC4/cyfitter_cfg.c **** 	CY_SET_REG32((void *)CYREG_PERI_DIV_CMD, 0x8000FF43u);
 218:.\Generated_Source\PSoC4/cyfitter_cfg.c **** 	CY_SET_REG32((void *)CYREG_PERI_DIV_16_CTL2, 0x00002F00u);
 219:.\Generated_Source\PSoC4/cyfitter_cfg.c **** 	CY_SET_REG32((void *)CYREG_PERI_DIV_CMD, 0x8000FF42u);
 220:.\Generated_Source\PSoC4/cyfitter_cfg.c **** 	CY_SET_REG32((void *)CYREG_PERI_DIV_16_CTL1, 0x00001D00u);
 221:.\Generated_Source\PSoC4/cyfitter_cfg.c **** 	CY_SET_REG32((void *)CYREG_PERI_DIV_CMD, 0x8000FF41u);
 222:.\Generated_Source\PSoC4/cyfitter_cfg.c **** 	CY_SET_REG32((void *)CYREG_PERI_DIV_16_CTL0, 0x00000500u);
 223:.\Generated_Source\PSoC4/cyfitter_cfg.c **** 	CY_SET_REG32((void *)CYREG_PERI_DIV_CMD, 0x8000FF40u);
 224:.\Generated_Source\PSoC4/cyfitter_cfg.c **** 
 225:.\Generated_Source\PSoC4/cyfitter_cfg.c **** 	/* CYDEV_CLK_IMO_CONFIG Starting address: CYDEV_CLK_IMO_CONFIG */
 226:.\Generated_Source\PSoC4/cyfitter_cfg.c **** 	CY_SET_XTND_REG32((void CYFAR *)(CYREG_CLK_IMO_CONFIG), 0x82000000u);
 227:.\Generated_Source\PSoC4/cyfitter_cfg.c **** 
 228:.\Generated_Source\PSoC4/cyfitter_cfg.c **** 	/* CYDEV_CLK_SELECT Starting address: CYDEV_CLK_SELECT */
 229:.\Generated_Source\PSoC4/cyfitter_cfg.c **** 	CY_SET_XTND_REG32((void CYFAR *)(CYREG_CLK_SELECT), 0x00080000u);
 230:.\Generated_Source\PSoC4/cyfitter_cfg.c **** 
 231:.\Generated_Source\PSoC4/cyfitter_cfg.c **** 	/* CYDEV_PERI_PCLK_CTL11 Starting address: CYDEV_PERI_PCLK_CTL11 */
 232:.\Generated_Source\PSoC4/cyfitter_cfg.c **** 	CY_SET_XTND_REG32((void CYFAR *)(CYREG_PERI_PCLK_CTL11), 0x00000043u);
 233:.\Generated_Source\PSoC4/cyfitter_cfg.c **** 
 234:.\Generated_Source\PSoC4/cyfitter_cfg.c **** 	/* CYDEV_PERI_PCLK_CTL7 Starting address: CYDEV_PERI_PCLK_CTL7 */
 235:.\Generated_Source\PSoC4/cyfitter_cfg.c **** 	CY_SET_XTND_REG32((void CYFAR *)(CYREG_PERI_PCLK_CTL7), 0x00000042u);
 236:.\Generated_Source\PSoC4/cyfitter_cfg.c **** 
 237:.\Generated_Source\PSoC4/cyfitter_cfg.c **** 	/* CYDEV_PERI_PCLK_CTL6 Starting address: CYDEV_PERI_PCLK_CTL6 */
 238:.\Generated_Source\PSoC4/cyfitter_cfg.c **** 	CY_SET_XTND_REG32((void CYFAR *)(CYREG_PERI_PCLK_CTL6), 0x00000041u);
 239:.\Generated_Source\PSoC4/cyfitter_cfg.c **** 
 240:.\Generated_Source\PSoC4/cyfitter_cfg.c **** 	/* CYDEV_PERI_PCLK_CTL2 Starting address: CYDEV_PERI_PCLK_CTL2 */
 241:.\Generated_Source\PSoC4/cyfitter_cfg.c **** 	CY_SET_XTND_REG32((void CYFAR *)(CYREG_PERI_PCLK_CTL2), 0x00000040u);
 242:.\Generated_Source\PSoC4/cyfitter_cfg.c **** 
 243:.\Generated_Source\PSoC4/cyfitter_cfg.c **** 	CY_SET_XTND_REG32((void CYFAR *)(CYREG_WDT_CONFIG), 0x40000000u);
 244:.\Generated_Source\PSoC4/cyfitter_cfg.c **** }
 245:.\Generated_Source\PSoC4/cyfitter_cfg.c **** 
 246:.\Generated_Source\PSoC4/cyfitter_cfg.c **** 
 247:.\Generated_Source\PSoC4/cyfitter_cfg.c **** /* Analog API Functions */
 248:.\Generated_Source\PSoC4/cyfitter_cfg.c **** 
 249:.\Generated_Source\PSoC4/cyfitter_cfg.c **** 
 250:.\Generated_Source\PSoC4/cyfitter_cfg.c **** /*******************************************************************************
 251:.\Generated_Source\PSoC4/cyfitter_cfg.c **** * Function Name: AnalogSetDefault
 252:.\Generated_Source\PSoC4/cyfitter_cfg.c **** ********************************************************************************
 253:.\Generated_Source\PSoC4/cyfitter_cfg.c **** *
 254:.\Generated_Source\PSoC4/cyfitter_cfg.c **** * Summary:
 255:.\Generated_Source\PSoC4/cyfitter_cfg.c **** *  Sets up the analog portions of the chip to default values based on chip
 256:.\Generated_Source\PSoC4/cyfitter_cfg.c **** *  configuration options from the project.
 257:.\Generated_Source\PSoC4/cyfitter_cfg.c **** *
 258:.\Generated_Source\PSoC4/cyfitter_cfg.c **** * Parameters:
 259:.\Generated_Source\PSoC4/cyfitter_cfg.c **** *  void
 260:.\Generated_Source\PSoC4/cyfitter_cfg.c **** *
ARM GAS  C:\Users\ADMINI~1\AppData\Local\Temp\cctxdVhJ.s 			page 6


 261:.\Generated_Source\PSoC4/cyfitter_cfg.c **** * Return:
 262:.\Generated_Source\PSoC4/cyfitter_cfg.c **** *  void
 263:.\Generated_Source\PSoC4/cyfitter_cfg.c **** *
 264:.\Generated_Source\PSoC4/cyfitter_cfg.c **** *******************************************************************************/
 265:.\Generated_Source\PSoC4/cyfitter_cfg.c **** static void AnalogSetDefault(void);
 266:.\Generated_Source\PSoC4/cyfitter_cfg.c **** static void AnalogSetDefault(void)
 267:.\Generated_Source\PSoC4/cyfitter_cfg.c **** {
 268:.\Generated_Source\PSoC4/cyfitter_cfg.c **** 	CY_SET_XTND_REG32((void CYFAR *)CYREG_CTBM0_DFT_CTRL, 0x00000003u);
 269:.\Generated_Source\PSoC4/cyfitter_cfg.c **** 	CY_SET_XTND_REG32((void CYFAR *)CYREG_CTBM1_DFT_CTRL, 0x00000003u);
 270:.\Generated_Source\PSoC4/cyfitter_cfg.c **** 	CY_SET_XTND_REG32((void CYFAR *)CYREG_SAR_CTRL, 0x80000000u);
 271:.\Generated_Source\PSoC4/cyfitter_cfg.c **** 	CY_SET_XTND_REG32((void CYFAR *)CYREG_SAR_MUX_SWITCH0, 0x00000010u);
 272:.\Generated_Source\PSoC4/cyfitter_cfg.c **** 	CY_SET_XTND_REG32((void CYFAR *)CYREG_PASS_DSAB_DSAB_CTRL, 0x00000000u);
 273:.\Generated_Source\PSoC4/cyfitter_cfg.c **** 	SetAnalogRoutingPumps(1);
 274:.\Generated_Source\PSoC4/cyfitter_cfg.c **** }
 275:.\Generated_Source\PSoC4/cyfitter_cfg.c **** 
 276:.\Generated_Source\PSoC4/cyfitter_cfg.c **** 
 277:.\Generated_Source\PSoC4/cyfitter_cfg.c **** /*******************************************************************************
 278:.\Generated_Source\PSoC4/cyfitter_cfg.c **** * Function Name: SetAnalogRoutingPumps
 279:.\Generated_Source\PSoC4/cyfitter_cfg.c **** ********************************************************************************
 280:.\Generated_Source\PSoC4/cyfitter_cfg.c **** *
 281:.\Generated_Source\PSoC4/cyfitter_cfg.c **** * Summary:
 282:.\Generated_Source\PSoC4/cyfitter_cfg.c **** * Enables or disables the analog pumps feeding analog routing switches.
 283:.\Generated_Source\PSoC4/cyfitter_cfg.c **** * Intended to be called at startup, based on the Vdda system configuration;
 284:.\Generated_Source\PSoC4/cyfitter_cfg.c **** * may be called during operation when the user informs us that the Vdda voltage crossed the pump th
 285:.\Generated_Source\PSoC4/cyfitter_cfg.c **** *
 286:.\Generated_Source\PSoC4/cyfitter_cfg.c **** * Parameters:
 287:.\Generated_Source\PSoC4/cyfitter_cfg.c **** *  enabled - 1 to enable the pumps, 0 to disable the pumps
 288:.\Generated_Source\PSoC4/cyfitter_cfg.c **** *
 289:.\Generated_Source\PSoC4/cyfitter_cfg.c **** * Return:
 290:.\Generated_Source\PSoC4/cyfitter_cfg.c **** *  void
 291:.\Generated_Source\PSoC4/cyfitter_cfg.c **** *
 292:.\Generated_Source\PSoC4/cyfitter_cfg.c **** *******************************************************************************/
 293:.\Generated_Source\PSoC4/cyfitter_cfg.c **** void SetAnalogRoutingPumps(uint8 enabled)
 294:.\Generated_Source\PSoC4/cyfitter_cfg.c **** {
  26              		.loc 1 294 0
  27              		.cfi_startproc
  28              	.LVL0:
 295:.\Generated_Source\PSoC4/cyfitter_cfg.c **** 	uint32 regValue = CY_GET_XTND_REG32((void *)(CYREG_SAR_PUMP_CTRL));
  29              		.loc 1 295 0
  30 0000 054A     		ldr	r2, .L5
  31 0002 1368     		ldr	r3, [r2]
  32              	.LVL1:
 296:.\Generated_Source\PSoC4/cyfitter_cfg.c **** 	if (enabled != 0u)
  33              		.loc 1 296 0
  34 0004 0028     		cmp	r0, #0
  35 0006 03D0     		beq	.L2
 297:.\Generated_Source\PSoC4/cyfitter_cfg.c **** 	{
 298:.\Generated_Source\PSoC4/cyfitter_cfg.c **** 		regValue |= 0x80000000u;
  36              		.loc 1 298 0
  37 0008 8021     		mov	r1, #128
  38 000a 0906     		lsl	r1, r1, #24
  39 000c 0B43     		orr	r3, r1
  40              	.LVL2:
  41 000e 01E0     		b	.L3
  42              	.L2:
 299:.\Generated_Source\PSoC4/cyfitter_cfg.c **** 	}
 300:.\Generated_Source\PSoC4/cyfitter_cfg.c **** 	else
ARM GAS  C:\Users\ADMINI~1\AppData\Local\Temp\cctxdVhJ.s 			page 7


 301:.\Generated_Source\PSoC4/cyfitter_cfg.c **** 	{
 302:.\Generated_Source\PSoC4/cyfitter_cfg.c **** 		regValue &= ~0x80000000u;
  43              		.loc 1 302 0
  44 0010 5B00     		lsl	r3, r3, #1
  45              	.LVL3:
  46 0012 5B08     		lsr	r3, r3, #1
  47              	.LVL4:
  48              	.L3:
 303:.\Generated_Source\PSoC4/cyfitter_cfg.c **** 	}
 304:.\Generated_Source\PSoC4/cyfitter_cfg.c **** 	CY_SET_XTND_REG32((void *)(CYREG_SAR_PUMP_CTRL), regValue);
  49              		.loc 1 304 0
  50 0014 1360     		str	r3, [r2]
 305:.\Generated_Source\PSoC4/cyfitter_cfg.c **** }
  51              		.loc 1 305 0
  52              		@ sp needed
  53 0016 7047     		bx	lr
  54              	.L6:
  55              		.align	2
  56              	.L5:
  57 0018 80033A40 		.word	1077543808
  58              		.cfi_endproc
  59              	.LFE8:
  60              		.size	SetAnalogRoutingPumps, .-SetAnalogRoutingPumps
  61              		.section	.psocinit,"ax",%progbits
  62              		.align	1
  63              		.global	cyfitter_cfg
  64              		.code	16
  65              		.thumb_func
  66              		.type	cyfitter_cfg, %function
  67              	cyfitter_cfg:
  68              	.LFB9:
 306:.\Generated_Source\PSoC4/cyfitter_cfg.c **** 
 307:.\Generated_Source\PSoC4/cyfitter_cfg.c **** #define CY_AMUX_UNUSED CYREG_CM0_ROM_DWT
 308:.\Generated_Source\PSoC4/cyfitter_cfg.c **** 
 309:.\Generated_Source\PSoC4/cyfitter_cfg.c **** 
 310:.\Generated_Source\PSoC4/cyfitter_cfg.c **** /*******************************************************************************
 311:.\Generated_Source\PSoC4/cyfitter_cfg.c **** * Function Name: cyfitter_cfg
 312:.\Generated_Source\PSoC4/cyfitter_cfg.c **** ********************************************************************************
 313:.\Generated_Source\PSoC4/cyfitter_cfg.c **** * Summary:
 314:.\Generated_Source\PSoC4/cyfitter_cfg.c **** *  This function is called by the start-up code for the selected device. It
 315:.\Generated_Source\PSoC4/cyfitter_cfg.c **** *  performs all of the necessary device configuration based on the design
 316:.\Generated_Source\PSoC4/cyfitter_cfg.c **** *  settings.  This includes settings from the Design Wide Resources (DWR) such
 317:.\Generated_Source\PSoC4/cyfitter_cfg.c **** *  as Clocks and Pins as well as any component configuration that is necessary.
 318:.\Generated_Source\PSoC4/cyfitter_cfg.c **** *
 319:.\Generated_Source\PSoC4/cyfitter_cfg.c **** * Parameters:  
 320:.\Generated_Source\PSoC4/cyfitter_cfg.c **** *   void
 321:.\Generated_Source\PSoC4/cyfitter_cfg.c **** *
 322:.\Generated_Source\PSoC4/cyfitter_cfg.c **** * Return:
 323:.\Generated_Source\PSoC4/cyfitter_cfg.c **** *   void
 324:.\Generated_Source\PSoC4/cyfitter_cfg.c **** *
 325:.\Generated_Source\PSoC4/cyfitter_cfg.c **** *******************************************************************************/
 326:.\Generated_Source\PSoC4/cyfitter_cfg.c **** CY_CFG_SECTION
 327:.\Generated_Source\PSoC4/cyfitter_cfg.c **** void cyfitter_cfg(void)
 328:.\Generated_Source\PSoC4/cyfitter_cfg.c **** {
  69              		.loc 1 328 0
  70              		.cfi_startproc
  71 0000 F8B5     		push	{r3, r4, r5, r6, r7, lr}
ARM GAS  C:\Users\ADMINI~1\AppData\Local\Temp\cctxdVhJ.s 			page 8


  72              		.cfi_def_cfa_offset 24
  73              		.cfi_offset 3, -24
  74              		.cfi_offset 4, -20
  75              		.cfi_offset 5, -16
  76              		.cfi_offset 6, -12
  77              		.cfi_offset 7, -8
  78              		.cfi_offset 14, -4
 329:.\Generated_Source\PSoC4/cyfitter_cfg.c **** 	/* Disable interrupts by default. Let user enable if/when they want. */
 330:.\Generated_Source\PSoC4/cyfitter_cfg.c **** 	CyGlobalIntDisable;
  79              		.loc 1 330 0
  80              	@ 330 ".\Generated_Source\PSoC4\cyfitter_cfg.c" 1
  81 0002 72B6     		CPSID   i
  82              	@ 0 "" 2
 331:.\Generated_Source\PSoC4/cyfitter_cfg.c **** 
 332:.\Generated_Source\PSoC4/cyfitter_cfg.c **** 	CY_SET_XTND_REG32((void CYFAR *)(CYREG_BLE_BLESS_LL_DSM_CTRL), 0x00000000u);
  83              		.loc 1 332 0
  84              		.code	16
  85 0004 0025     		mov	r5, #0
 333:.\Generated_Source\PSoC4/cyfitter_cfg.c **** 
 334:.\Generated_Source\PSoC4/cyfitter_cfg.c **** 	/* Enable the clock in the interrupt controller for the routed interrupts */
 335:.\Generated_Source\PSoC4/cyfitter_cfg.c **** 	CY_SET_REG8((void *)CYREG_UDB_UDBIF_INT_CLK_CTL, 0x01u);
  86              		.loc 1 335 0
  87 0006 0122     		mov	r2, #1
  88 0008 724B     		ldr	r3, .L12
 332:.\Generated_Source\PSoC4/cyfitter_cfg.c **** 
  89              		.loc 1 332 0
  90 000a 734C     		ldr	r4, .L12+4
  91              	.LBB14:
  92              	.LBB15:
  93              	.LBB16:
  94              	.LBB17:
  62:.\Generated_Source\PSoC4/cyfitter_cfg.c **** }
  95              		.loc 1 62 0
  96 000c 291C     		mov	r1, r5
  97              	.LBE17:
  98              	.LBE16:
  99              	.LBE15:
 100              	.LBE14:
 332:.\Generated_Source\PSoC4/cyfitter_cfg.c **** 
 101              		.loc 1 332 0
 102 000e 2560     		str	r5, [r4]
 103              		.loc 1 335 0
 104 0010 1A70     		strb	r2, [r3]
 105              	.LVL5:
 106              	.LBB24:
 107              	.LBB20:
 108              	.LBB19:
 109              	.LBB18:
  62:.\Generated_Source\PSoC4/cyfitter_cfg.c **** }
 110              		.loc 1 62 0
 111 0012 8022     		mov	r2, #128
 112 0014 7148     		ldr	r0, .L12+8
 113 0016 D200     		lsl	r2, r2, #3
 114 0018 FFF7FEFF 		bl	memset
 115              	.LVL6:
 116 001c 8022     		mov	r2, #128
 117 001e 291C     		mov	r1, r5
ARM GAS  C:\Users\ADMINI~1\AppData\Local\Temp\cctxdVhJ.s 			page 9


 118 0020 6F48     		ldr	r0, .L12+12
 119 0022 D200     		lsl	r2, r2, #3
 120 0024 FFF7FEFF 		bl	memset
 121              	.LVL7:
 122 0028 291C     		mov	r1, r5
 123              	.LVL8:
 124              	.L10:
 125              	.LBE18:
 126              	.LBE19:
 127              	.LBE20:
 128              	.LBB21:
 129              	.LBB22:
 130              	.LBB23:
 155:.\Generated_Source\PSoC4/cyfitter_cfg.c **** 		uint8 count = (uint8)baseAddr;
 131              		.loc 1 155 0
 132 002a 6E4F     		ldr	r7, .L12+16
 157:.\Generated_Source\PSoC4/cyfitter_cfg.c **** 		while (count != 0u)
 133              		.loc 1 157 0
 134 002c FF20     		mov	r0, #255
 155:.\Generated_Source\PSoC4/cyfitter_cfg.c **** 		uint8 count = (uint8)baseAddr;
 135              		.loc 1 155 0
 136 002e CA59     		ldr	r2, [r1, r7]
 137              	.LVL9:
 138 0030 6B00     		lsl	r3, r5, #1
 157:.\Generated_Source\PSoC4/cyfitter_cfg.c **** 		while (count != 0u)
 139              		.loc 1 157 0
 140 0032 161C     		mov	r6, r2
 141 0034 8643     		bic	r6, r0
 142              	.LVL10:
 143 0036 1040     		and	r0, r2
 144 0038 2D18     		add	r5, r5, r0
 145              	.LVL11:
 146 003a 6A00     		lsl	r2, r5, #1
 147              	.LVL12:
 148 003c 2037     		add	r7, r7, #32
 149              	.LVL13:
 150 003e 0133     		add	r3, r3, #1
 151 0040 0132     		add	r2, r2, #1
 152 0042 FB18     		add	r3, r7, r3
 153 0044 BA18     		add	r2, r7, r2
 154              	.LVL14:
 155              	.L8:
 158:.\Generated_Source\PSoC4/cyfitter_cfg.c **** 		{
 156              		.loc 1 158 0
 157 0046 9342     		cmp	r3, r2
 158 0048 06D0     		beq	.L11
 159 004a 581E     		sub	r0, r3, #1
 160:.\Generated_Source\PSoC4/cyfitter_cfg.c **** 			j++;
 160              		.loc 1 160 0
 161 004c 0078     		ldrb	r0, [r0]
 162 004e 1F78     		ldrb	r7, [r3]
 163 0050 8019     		add	r0, r0, r6
 164 0052 0770     		strb	r7, [r0]
 165 0054 0233     		add	r3, r3, #2
 166 0056 F6E7     		b	.L8
 167              	.L11:
 168              	.LVL15:
ARM GAS  C:\Users\ADMINI~1\AppData\Local\Temp\cctxdVhJ.s 			page 10


 169 0058 0431     		add	r1, r1, #4
 170              	.LBE23:
 153:.\Generated_Source\PSoC4/cyfitter_cfg.c **** 	{
 171              		.loc 1 153 0
 172 005a 2029     		cmp	r1, #32
 173 005c E5D1     		bne	.L10
 174              	.LBE22:
 175              	.LBE21:
 336:.\Generated_Source\PSoC4/cyfitter_cfg.c **** 	{
 337:.\Generated_Source\PSoC4/cyfitter_cfg.c **** 		static const uint32 CYCODE cy_cfg_addr_table[] = {
 338:.\Generated_Source\PSoC4/cyfitter_cfg.c **** 			0x400F0001u, /* Base address: 0x400F0000 Count: 1 */
 339:.\Generated_Source\PSoC4/cyfitter_cfg.c **** 			0x400F303Cu, /* Base address: 0x400F3000 Count: 60 */
 340:.\Generated_Source\PSoC4/cyfitter_cfg.c **** 			0x400F311Cu, /* Base address: 0x400F3100 Count: 28 */
 341:.\Generated_Source\PSoC4/cyfitter_cfg.c **** 			0x400F3302u, /* Base address: 0x400F3300 Count: 2 */
 342:.\Generated_Source\PSoC4/cyfitter_cfg.c **** 			0x400F4002u, /* Base address: 0x400F4000 Count: 2 */
 343:.\Generated_Source\PSoC4/cyfitter_cfg.c **** 			0x400F4105u, /* Base address: 0x400F4100 Count: 5 */
 344:.\Generated_Source\PSoC4/cyfitter_cfg.c **** 			0x400F4304u, /* Base address: 0x400F4300 Count: 4 */
 345:.\Generated_Source\PSoC4/cyfitter_cfg.c **** 			0x400F6002u, /* Base address: 0x400F6000 Count: 2 */
 346:.\Generated_Source\PSoC4/cyfitter_cfg.c **** 		};
 347:.\Generated_Source\PSoC4/cyfitter_cfg.c **** 
 348:.\Generated_Source\PSoC4/cyfitter_cfg.c **** 		static const cy_cfg_addrvalue_t CYCODE cy_cfg_data_table[] = {
 349:.\Generated_Source\PSoC4/cyfitter_cfg.c **** 			{0x81u, 0x0Du},
 350:.\Generated_Source\PSoC4/cyfitter_cfg.c **** 			{0x40u, 0x30u},
 351:.\Generated_Source\PSoC4/cyfitter_cfg.c **** 			{0x41u, 0x04u},
 352:.\Generated_Source\PSoC4/cyfitter_cfg.c **** 			{0x49u, 0xFFu},
 353:.\Generated_Source\PSoC4/cyfitter_cfg.c **** 			{0x4Au, 0xFFu},
 354:.\Generated_Source\PSoC4/cyfitter_cfg.c **** 			{0x4Bu, 0xFFu},
 355:.\Generated_Source\PSoC4/cyfitter_cfg.c **** 			{0x4Du, 0xA0u},
 356:.\Generated_Source\PSoC4/cyfitter_cfg.c **** 			{0x4Fu, 0x04u},
 357:.\Generated_Source\PSoC4/cyfitter_cfg.c **** 			{0x50u, 0x18u},
 358:.\Generated_Source\PSoC4/cyfitter_cfg.c **** 			{0x5Au, 0x04u},
 359:.\Generated_Source\PSoC4/cyfitter_cfg.c **** 			{0x5Fu, 0x01u},
 360:.\Generated_Source\PSoC4/cyfitter_cfg.c **** 			{0x60u, 0x40u},
 361:.\Generated_Source\PSoC4/cyfitter_cfg.c **** 			{0x62u, 0xC0u},
 362:.\Generated_Source\PSoC4/cyfitter_cfg.c **** 			{0x64u, 0x40u},
 363:.\Generated_Source\PSoC4/cyfitter_cfg.c **** 			{0x65u, 0x40u},
 364:.\Generated_Source\PSoC4/cyfitter_cfg.c **** 			{0x66u, 0xC0u},
 365:.\Generated_Source\PSoC4/cyfitter_cfg.c **** 			{0x68u, 0xC0u},
 366:.\Generated_Source\PSoC4/cyfitter_cfg.c **** 			{0x6Au, 0xC0u},
 367:.\Generated_Source\PSoC4/cyfitter_cfg.c **** 			{0x6Cu, 0xC0u},
 368:.\Generated_Source\PSoC4/cyfitter_cfg.c **** 			{0x6Eu, 0xC0u},
 369:.\Generated_Source\PSoC4/cyfitter_cfg.c **** 			{0x82u, 0x02u},
 370:.\Generated_Source\PSoC4/cyfitter_cfg.c **** 			{0x83u, 0x01u},
 371:.\Generated_Source\PSoC4/cyfitter_cfg.c **** 			{0x96u, 0x06u},
 372:.\Generated_Source\PSoC4/cyfitter_cfg.c **** 			{0x9Eu, 0x0Cu},
 373:.\Generated_Source\PSoC4/cyfitter_cfg.c **** 			{0xADu, 0x01u},
 374:.\Generated_Source\PSoC4/cyfitter_cfg.c **** 			{0xAEu, 0x01u},
 375:.\Generated_Source\PSoC4/cyfitter_cfg.c **** 			{0xB0u, 0x08u},
 376:.\Generated_Source\PSoC4/cyfitter_cfg.c **** 			{0xB2u, 0x01u},
 377:.\Generated_Source\PSoC4/cyfitter_cfg.c **** 			{0xB4u, 0x02u},
 378:.\Generated_Source\PSoC4/cyfitter_cfg.c **** 			{0xB6u, 0x04u},
 379:.\Generated_Source\PSoC4/cyfitter_cfg.c **** 			{0xB7u, 0x01u},
 380:.\Generated_Source\PSoC4/cyfitter_cfg.c **** 			{0xBEu, 0x10u},
 381:.\Generated_Source\PSoC4/cyfitter_cfg.c **** 			{0xC0u, 0x30u},
 382:.\Generated_Source\PSoC4/cyfitter_cfg.c **** 			{0xC1u, 0x04u},
 383:.\Generated_Source\PSoC4/cyfitter_cfg.c **** 			{0xC5u, 0xD0u},
 384:.\Generated_Source\PSoC4/cyfitter_cfg.c **** 			{0xC6u, 0x02u},
ARM GAS  C:\Users\ADMINI~1\AppData\Local\Temp\cctxdVhJ.s 			page 11


 385:.\Generated_Source\PSoC4/cyfitter_cfg.c **** 			{0xC7u, 0x10u},
 386:.\Generated_Source\PSoC4/cyfitter_cfg.c **** 			{0xC8u, 0x26u},
 387:.\Generated_Source\PSoC4/cyfitter_cfg.c **** 			{0xC9u, 0xFFu},
 388:.\Generated_Source\PSoC4/cyfitter_cfg.c **** 			{0xCAu, 0xFFu},
 389:.\Generated_Source\PSoC4/cyfitter_cfg.c **** 			{0xCBu, 0xFFu},
 390:.\Generated_Source\PSoC4/cyfitter_cfg.c **** 			{0xCDu, 0xAFu},
 391:.\Generated_Source\PSoC4/cyfitter_cfg.c **** 			{0xCEu, 0x0Fu},
 392:.\Generated_Source\PSoC4/cyfitter_cfg.c **** 			{0xCFu, 0x04u},
 393:.\Generated_Source\PSoC4/cyfitter_cfg.c **** 			{0xD0u, 0x18u},
 394:.\Generated_Source\PSoC4/cyfitter_cfg.c **** 			{0xD2u, 0x80u},
 395:.\Generated_Source\PSoC4/cyfitter_cfg.c **** 			{0xD4u, 0x05u},
 396:.\Generated_Source\PSoC4/cyfitter_cfg.c **** 			{0xD8u, 0x04u},
 397:.\Generated_Source\PSoC4/cyfitter_cfg.c **** 			{0xD9u, 0x04u},
 398:.\Generated_Source\PSoC4/cyfitter_cfg.c **** 			{0xDAu, 0x04u},
 399:.\Generated_Source\PSoC4/cyfitter_cfg.c **** 			{0xDBu, 0x04u},
 400:.\Generated_Source\PSoC4/cyfitter_cfg.c **** 			{0xDFu, 0x01u},
 401:.\Generated_Source\PSoC4/cyfitter_cfg.c **** 			{0xE0u, 0x40u},
 402:.\Generated_Source\PSoC4/cyfitter_cfg.c **** 			{0xE2u, 0xC0u},
 403:.\Generated_Source\PSoC4/cyfitter_cfg.c **** 			{0xE4u, 0x40u},
 404:.\Generated_Source\PSoC4/cyfitter_cfg.c **** 			{0xE5u, 0x40u},
 405:.\Generated_Source\PSoC4/cyfitter_cfg.c **** 			{0xE6u, 0xC0u},
 406:.\Generated_Source\PSoC4/cyfitter_cfg.c **** 			{0xE8u, 0xC0u},
 407:.\Generated_Source\PSoC4/cyfitter_cfg.c **** 			{0xEAu, 0xC0u},
 408:.\Generated_Source\PSoC4/cyfitter_cfg.c **** 			{0xECu, 0xC0u},
 409:.\Generated_Source\PSoC4/cyfitter_cfg.c **** 			{0xEEu, 0xC0u},
 410:.\Generated_Source\PSoC4/cyfitter_cfg.c **** 			{0x06u, 0x80u},
 411:.\Generated_Source\PSoC4/cyfitter_cfg.c **** 			{0x0Du, 0x08u},
 412:.\Generated_Source\PSoC4/cyfitter_cfg.c **** 			{0x0Fu, 0x02u},
 413:.\Generated_Source\PSoC4/cyfitter_cfg.c **** 			{0x17u, 0x40u},
 414:.\Generated_Source\PSoC4/cyfitter_cfg.c **** 			{0x1Cu, 0x10u},
 415:.\Generated_Source\PSoC4/cyfitter_cfg.c **** 			{0x1Du, 0x08u},
 416:.\Generated_Source\PSoC4/cyfitter_cfg.c **** 			{0x1Eu, 0x08u},
 417:.\Generated_Source\PSoC4/cyfitter_cfg.c **** 			{0x1Fu, 0x42u},
 418:.\Generated_Source\PSoC4/cyfitter_cfg.c **** 			{0x26u, 0x40u},
 419:.\Generated_Source\PSoC4/cyfitter_cfg.c **** 			{0x2Fu, 0x02u},
 420:.\Generated_Source\PSoC4/cyfitter_cfg.c **** 			{0x3Fu, 0x02u},
 421:.\Generated_Source\PSoC4/cyfitter_cfg.c **** 			{0x40u, 0x10u},
 422:.\Generated_Source\PSoC4/cyfitter_cfg.c **** 			{0x42u, 0x80u},
 423:.\Generated_Source\PSoC4/cyfitter_cfg.c **** 			{0x45u, 0x08u},
 424:.\Generated_Source\PSoC4/cyfitter_cfg.c **** 			{0x46u, 0x80u},
 425:.\Generated_Source\PSoC4/cyfitter_cfg.c **** 			{0x4Fu, 0x01u},
 426:.\Generated_Source\PSoC4/cyfitter_cfg.c **** 			{0x56u, 0x80u},
 427:.\Generated_Source\PSoC4/cyfitter_cfg.c **** 			{0x57u, 0x01u},
 428:.\Generated_Source\PSoC4/cyfitter_cfg.c **** 			{0x5Eu, 0x88u},
 429:.\Generated_Source\PSoC4/cyfitter_cfg.c **** 			{0x5Fu, 0x01u},
 430:.\Generated_Source\PSoC4/cyfitter_cfg.c **** 			{0x77u, 0x40u},
 431:.\Generated_Source\PSoC4/cyfitter_cfg.c **** 			{0xC0u, 0x10u},
 432:.\Generated_Source\PSoC4/cyfitter_cfg.c **** 			{0xC2u, 0xA0u},
 433:.\Generated_Source\PSoC4/cyfitter_cfg.c **** 			{0xC4u, 0x80u},
 434:.\Generated_Source\PSoC4/cyfitter_cfg.c **** 			{0xCAu, 0x10u},
 435:.\Generated_Source\PSoC4/cyfitter_cfg.c **** 			{0xCEu, 0x80u},
 436:.\Generated_Source\PSoC4/cyfitter_cfg.c **** 			{0xD0u, 0xC3u},
 437:.\Generated_Source\PSoC4/cyfitter_cfg.c **** 			{0xD6u, 0xD0u},
 438:.\Generated_Source\PSoC4/cyfitter_cfg.c **** 			{0xAFu, 0x40u},
 439:.\Generated_Source\PSoC4/cyfitter_cfg.c **** 			{0xE2u, 0x10u},
 440:.\Generated_Source\PSoC4/cyfitter_cfg.c **** 			{0x62u, 0x08u},
 441:.\Generated_Source\PSoC4/cyfitter_cfg.c **** 			{0xD8u, 0x40u},
ARM GAS  C:\Users\ADMINI~1\AppData\Local\Temp\cctxdVhJ.s 			page 12


 442:.\Generated_Source\PSoC4/cyfitter_cfg.c **** 			{0x73u, 0x02u},
 443:.\Generated_Source\PSoC4/cyfitter_cfg.c **** 			{0x8Fu, 0x02u},
 444:.\Generated_Source\PSoC4/cyfitter_cfg.c **** 			{0xAEu, 0x08u},
 445:.\Generated_Source\PSoC4/cyfitter_cfg.c **** 			{0xDCu, 0x20u},
 446:.\Generated_Source\PSoC4/cyfitter_cfg.c **** 			{0xEAu, 0x10u},
 447:.\Generated_Source\PSoC4/cyfitter_cfg.c **** 			{0x11u, 0x02u},
 448:.\Generated_Source\PSoC4/cyfitter_cfg.c **** 			{0x8Du, 0x01u},
 449:.\Generated_Source\PSoC4/cyfitter_cfg.c **** 			{0xC4u, 0x08u},
 450:.\Generated_Source\PSoC4/cyfitter_cfg.c **** 			{0xE2u, 0x08u},
 451:.\Generated_Source\PSoC4/cyfitter_cfg.c **** 			{0x10u, 0x01u},
 452:.\Generated_Source\PSoC4/cyfitter_cfg.c **** 			{0x11u, 0x01u},
 453:.\Generated_Source\PSoC4/cyfitter_cfg.c **** 		};
 454:.\Generated_Source\PSoC4/cyfitter_cfg.c **** 
 455:.\Generated_Source\PSoC4/cyfitter_cfg.c **** 
 456:.\Generated_Source\PSoC4/cyfitter_cfg.c **** 
 457:.\Generated_Source\PSoC4/cyfitter_cfg.c **** 		CYPACKED typedef struct {
 458:.\Generated_Source\PSoC4/cyfitter_cfg.c **** 			void CYFAR *address;
 459:.\Generated_Source\PSoC4/cyfitter_cfg.c **** 			uint16 size;
 460:.\Generated_Source\PSoC4/cyfitter_cfg.c **** 		} CYPACKED_ATTR cfg_memset_t;
 461:.\Generated_Source\PSoC4/cyfitter_cfg.c **** 
 462:.\Generated_Source\PSoC4/cyfitter_cfg.c **** 		static const cfg_memset_t CYCODE cfg_memset_list [] = {
 463:.\Generated_Source\PSoC4/cyfitter_cfg.c **** 			/* address, size */
 464:.\Generated_Source\PSoC4/cyfitter_cfg.c **** 			{(void CYFAR *)(CYDEV_UDB_P0_U0_BASE), 1024u},
 465:.\Generated_Source\PSoC4/cyfitter_cfg.c **** 			{(void CYFAR *)(CYDEV_UDB_DSI0_BASE), 1024u},
 466:.\Generated_Source\PSoC4/cyfitter_cfg.c **** 		};
 467:.\Generated_Source\PSoC4/cyfitter_cfg.c **** 
 468:.\Generated_Source\PSoC4/cyfitter_cfg.c **** 		uint8 CYDATA i;
 469:.\Generated_Source\PSoC4/cyfitter_cfg.c **** 
 470:.\Generated_Source\PSoC4/cyfitter_cfg.c **** 		/* Zero out critical memory blocks before beginning configuration */
 471:.\Generated_Source\PSoC4/cyfitter_cfg.c **** 		for (i = 0u; i < (sizeof(cfg_memset_list)/sizeof(cfg_memset_list[0])); i++)
 472:.\Generated_Source\PSoC4/cyfitter_cfg.c **** 		{
 473:.\Generated_Source\PSoC4/cyfitter_cfg.c **** 			const cfg_memset_t CYCODE * CYDATA ms = &cfg_memset_list[i];
 474:.\Generated_Source\PSoC4/cyfitter_cfg.c **** 			CYMEMZERO(ms->address, (size_t)(uint32)(ms->size));
 475:.\Generated_Source\PSoC4/cyfitter_cfg.c **** 		}
 476:.\Generated_Source\PSoC4/cyfitter_cfg.c **** 
 477:.\Generated_Source\PSoC4/cyfitter_cfg.c **** 		cfg_write_bytes32(cy_cfg_addr_table, cy_cfg_data_table);
 478:.\Generated_Source\PSoC4/cyfitter_cfg.c **** 
 479:.\Generated_Source\PSoC4/cyfitter_cfg.c **** 		/* Perform normal device configuration. Order is not critical for these items. */
 480:.\Generated_Source\PSoC4/cyfitter_cfg.c **** 		CY_SET_XTND_REG16((void CYFAR *)(CYREG_UDB_BCTL0_DRV), 0x0100u);
 176              		.loc 1 480 0
 177 005e 8022     		mov	r2, #128
 481:.\Generated_Source\PSoC4/cyfitter_cfg.c **** 		CY_SET_XTND_REG8((void CYFAR *)(CYREG_UDB_BCTL0_DRV + 0x2u), 0x01u);
 178              		.loc 1 481 0
 179 0060 0125     		mov	r5, #1
 180              	.LVL16:
 480:.\Generated_Source\PSoC4/cyfitter_cfg.c **** 		CY_SET_XTND_REG8((void CYFAR *)(CYREG_UDB_BCTL0_DRV + 0x2u), 0x01u);
 181              		.loc 1 480 0
 182 0062 614B     		ldr	r3, .L12+20
 183 0064 5200     		lsl	r2, r2, #1
 184 0066 1A80     		strh	r2, [r3]
 185              		.loc 1 481 0
 186 0068 604B     		ldr	r3, .L12+24
 482:.\Generated_Source\PSoC4/cyfitter_cfg.c **** 
 483:.\Generated_Source\PSoC4/cyfitter_cfg.c **** 		/* HSIOM Starting address: CYDEV_HSIOM_BASE */
 484:.\Generated_Source\PSoC4/cyfitter_cfg.c **** 		CY_SET_XTND_REG32((void CYFAR *)(CYDEV_HSIOM_BASE), 0xEE030000u);
 187              		.loc 1 484 0
 188 006a 614A     		ldr	r2, .L12+28
ARM GAS  C:\Users\ADMINI~1\AppData\Local\Temp\cctxdVhJ.s 			page 13


 481:.\Generated_Source\PSoC4/cyfitter_cfg.c **** 
 189              		.loc 1 481 0
 190 006c 1D70     		strb	r5, [r3]
 191              		.loc 1 484 0
 192 006e 614B     		ldr	r3, .L12+32
 485:.\Generated_Source\PSoC4/cyfitter_cfg.c **** 		CY_SET_XTND_REG32((void CYFAR *)(CYREG_HSIOM_PORT_SEL5), 0x000000EEu);
 486:.\Generated_Source\PSoC4/cyfitter_cfg.c **** 
 487:.\Generated_Source\PSoC4/cyfitter_cfg.c **** 		/* UDB_PA_0 Starting address: CYDEV_UDB_PA0_BASE */
 488:.\Generated_Source\PSoC4/cyfitter_cfg.c **** 		CY_SET_XTND_REG32((void CYFAR *)(CYDEV_UDB_PA0_BASE), 0x00990000u);
 489:.\Generated_Source\PSoC4/cyfitter_cfg.c **** 		CY_SET_XTND_REG32((void CYFAR *)(CYREG_UDB_PA0_CFG8), 0x02000000u);
 193              		.loc 1 489 0
 194 0070 8021     		mov	r1, #128
 484:.\Generated_Source\PSoC4/cyfitter_cfg.c **** 		CY_SET_XTND_REG32((void CYFAR *)(CYREG_HSIOM_PORT_SEL5), 0x000000EEu);
 195              		.loc 1 484 0
 196 0072 1A60     		str	r2, [r3]
 485:.\Generated_Source\PSoC4/cyfitter_cfg.c **** 		CY_SET_XTND_REG32((void CYFAR *)(CYREG_HSIOM_PORT_SEL5), 0x000000EEu);
 197              		.loc 1 485 0
 198 0074 EE22     		mov	r2, #238
 199 0076 604B     		ldr	r3, .L12+36
 200              		.loc 1 489 0
 201 0078 8904     		lsl	r1, r1, #18
 485:.\Generated_Source\PSoC4/cyfitter_cfg.c **** 		CY_SET_XTND_REG32((void CYFAR *)(CYREG_HSIOM_PORT_SEL5), 0x000000EEu);
 202              		.loc 1 485 0
 203 007a 1A60     		str	r2, [r3]
 488:.\Generated_Source\PSoC4/cyfitter_cfg.c **** 		CY_SET_XTND_REG32((void CYFAR *)(CYREG_UDB_PA0_CFG8), 0x02000000u);
 204              		.loc 1 488 0
 205 007c 9923     		mov	r3, #153
 206 007e 5F4A     		ldr	r2, .L12+40
 207 0080 1B04     		lsl	r3, r3, #16
 208 0082 1360     		str	r3, [r2]
 209              		.loc 1 489 0
 210 0084 5E4A     		ldr	r2, .L12+44
 490:.\Generated_Source\PSoC4/cyfitter_cfg.c **** 
 491:.\Generated_Source\PSoC4/cyfitter_cfg.c **** 		/* UDB_PA_1 Starting address: CYDEV_UDB_PA1_BASE */
 492:.\Generated_Source\PSoC4/cyfitter_cfg.c **** 		CY_SET_XTND_REG32((void CYFAR *)(CYDEV_UDB_PA1_BASE), 0x00990000u);
 493:.\Generated_Source\PSoC4/cyfitter_cfg.c **** 		CY_SET_XTND_REG32((void CYFAR *)(CYREG_UDB_PA1_CFG4), 0x10000000u);
 494:.\Generated_Source\PSoC4/cyfitter_cfg.c **** 
 495:.\Generated_Source\PSoC4/cyfitter_cfg.c **** 		/* UDB_PA_3 Starting address: CYDEV_UDB_PA3_BASE */
 496:.\Generated_Source\PSoC4/cyfitter_cfg.c **** 		CY_SET_XTND_REG32((void CYFAR *)(CYDEV_UDB_PA3_BASE), 0x00990000u);
 497:.\Generated_Source\PSoC4/cyfitter_cfg.c **** 
 498:.\Generated_Source\PSoC4/cyfitter_cfg.c **** 		/* INT_SELECT Starting address: CYDEV_CPUSS_INT_SEL */
 499:.\Generated_Source\PSoC4/cyfitter_cfg.c **** 		CY_SET_XTND_REG32((void CYFAR *)(CYREG_CPUSS_INT_SEL), 0x00000004u);
 500:.\Generated_Source\PSoC4/cyfitter_cfg.c **** 
 501:.\Generated_Source\PSoC4/cyfitter_cfg.c **** 		/* Enable digital routing */
 502:.\Generated_Source\PSoC4/cyfitter_cfg.c **** 		CY_SET_XTND_REG8((void *)CYREG_UDB_UDBIF_BANK_CTL, CY_GET_XTND_REG8((void *)CYREG_UDB_UDBIF_BANK_
 503:.\Generated_Source\PSoC4/cyfitter_cfg.c **** 
 504:.\Generated_Source\PSoC4/cyfitter_cfg.c **** 		/* Enable UDB array */
 505:.\Generated_Source\PSoC4/cyfitter_cfg.c **** 		CY_SET_XTND_REG8((void *)CYREG_UDB_UDBIF_WAIT_CFG, (uint8)((CY_GET_XTND_REG8((void *)CYREG_UDB_UD
 211              		.loc 1 505 0
 212 0086 3C20     		mov	r0, #60
 489:.\Generated_Source\PSoC4/cyfitter_cfg.c **** 
 213              		.loc 1 489 0
 214 0088 1160     		str	r1, [r2]
 493:.\Generated_Source\PSoC4/cyfitter_cfg.c **** 
 215              		.loc 1 493 0
 216 008a 8021     		mov	r1, #128
 492:.\Generated_Source\PSoC4/cyfitter_cfg.c **** 		CY_SET_XTND_REG32((void CYFAR *)(CYREG_UDB_PA1_CFG4), 0x10000000u);
ARM GAS  C:\Users\ADMINI~1\AppData\Local\Temp\cctxdVhJ.s 			page 14


 217              		.loc 1 492 0
 218 008c 5D4A     		ldr	r2, .L12+48
 493:.\Generated_Source\PSoC4/cyfitter_cfg.c **** 
 219              		.loc 1 493 0
 220 008e 4905     		lsl	r1, r1, #21
 492:.\Generated_Source\PSoC4/cyfitter_cfg.c **** 		CY_SET_XTND_REG32((void CYFAR *)(CYREG_UDB_PA1_CFG4), 0x10000000u);
 221              		.loc 1 492 0
 222 0090 1360     		str	r3, [r2]
 493:.\Generated_Source\PSoC4/cyfitter_cfg.c **** 
 223              		.loc 1 493 0
 224 0092 5D4A     		ldr	r2, .L12+52
 225              	.LBE24:
 506:.\Generated_Source\PSoC4/cyfitter_cfg.c **** 		CY_SET_XTND_REG8((void *)CYREG_UDB_UDBIF_BANK_CTL, (uint8)(CY_GET_XTND_REG8((void *)CYREG_UDB_UDB
 507:.\Generated_Source\PSoC4/cyfitter_cfg.c **** 	}
 508:.\Generated_Source\PSoC4/cyfitter_cfg.c **** 
 509:.\Generated_Source\PSoC4/cyfitter_cfg.c **** 	/* Perform second pass device configuration. These items must be configured in specific order afte
 510:.\Generated_Source\PSoC4/cyfitter_cfg.c **** 	/* IOPINS0_0 Starting address: CYDEV_GPIO_PRT0_BASE */
 511:.\Generated_Source\PSoC4/cyfitter_cfg.c **** 	CY_SET_XTND_REG32((void CYFAR *)(CYDEV_GPIO_PRT0_BASE), 0x00000010u);
 512:.\Generated_Source\PSoC4/cyfitter_cfg.c **** 	CY_SET_XTND_REG32((void CYFAR *)(CYREG_GPIO_PRT0_PC), 0x00D86000u);
 513:.\Generated_Source\PSoC4/cyfitter_cfg.c **** 
 514:.\Generated_Source\PSoC4/cyfitter_cfg.c **** 	/* IOPINS0_1 Starting address: CYDEV_GPIO_PRT1_BASE */
 515:.\Generated_Source\PSoC4/cyfitter_cfg.c **** 	CY_SET_XTND_REG32((void CYFAR *)(CYDEV_GPIO_PRT1_BASE), 0x00000030u);
 226              		.loc 1 515 0
 227 0094 3027     		mov	r7, #48
 228              	.LBB25:
 493:.\Generated_Source\PSoC4/cyfitter_cfg.c **** 
 229              		.loc 1 493 0
 230 0096 1160     		str	r1, [r2]
 496:.\Generated_Source\PSoC4/cyfitter_cfg.c **** 
 231              		.loc 1 496 0
 232 0098 5C4A     		ldr	r2, .L12+56
 502:.\Generated_Source\PSoC4/cyfitter_cfg.c **** 
 233              		.loc 1 502 0
 234 009a 0221     		mov	r1, #2
 496:.\Generated_Source\PSoC4/cyfitter_cfg.c **** 
 235              		.loc 1 496 0
 236 009c 1360     		str	r3, [r2]
 499:.\Generated_Source\PSoC4/cyfitter_cfg.c **** 
 237              		.loc 1 499 0
 238 009e 0422     		mov	r2, #4
 239 00a0 5B4B     		ldr	r3, .L12+60
 240              	.LBE25:
 516:.\Generated_Source\PSoC4/cyfitter_cfg.c **** 	CY_SET_XTND_REG32((void CYFAR *)(CYREG_GPIO_PRT1_PC), 0x000F2000u);
 517:.\Generated_Source\PSoC4/cyfitter_cfg.c **** 	CY_SET_XTND_REG32((void CYFAR *)(CYREG_GPIO_PRT1_INTR_CFG), 0x00001000u);
 518:.\Generated_Source\PSoC4/cyfitter_cfg.c **** 
 519:.\Generated_Source\PSoC4/cyfitter_cfg.c **** 	/* IOPINS0_3 Starting address: CYDEV_GPIO_PRT3_BASE */
 520:.\Generated_Source\PSoC4/cyfitter_cfg.c **** 	CY_SET_XTND_REG32((void CYFAR *)(CYDEV_GPIO_PRT3_BASE), 0x000000D0u);
 521:.\Generated_Source\PSoC4/cyfitter_cfg.c **** 	CY_SET_XTND_REG32((void CYFAR *)(CYREG_GPIO_PRT3_PC), 0x00D80000u);
 522:.\Generated_Source\PSoC4/cyfitter_cfg.c **** 	CY_SET_XTND_REG32((void CYFAR *)(CYREG_GPIO_PRT3_PC2), 0x00000010u);
 523:.\Generated_Source\PSoC4/cyfitter_cfg.c **** 
 524:.\Generated_Source\PSoC4/cyfitter_cfg.c **** 	/* IOPINS0_5 Starting address: CYDEV_GPIO_PRT5_BASE */
 525:.\Generated_Source\PSoC4/cyfitter_cfg.c **** 	CY_SET_XTND_REG32((void CYFAR *)(CYDEV_GPIO_PRT5_BASE), 0x00000003u);
 241              		.loc 1 525 0
 242 00a2 0326     		mov	r6, #3
 243              	.LVL17:
 244              	.LBB26:
 499:.\Generated_Source\PSoC4/cyfitter_cfg.c **** 
ARM GAS  C:\Users\ADMINI~1\AppData\Local\Temp\cctxdVhJ.s 			page 15


 245              		.loc 1 499 0
 246 00a4 1A60     		str	r2, [r3]
 502:.\Generated_Source\PSoC4/cyfitter_cfg.c **** 
 247              		.loc 1 502 0
 248 00a6 5B4A     		ldr	r2, .L12+64
 249              	.LBE26:
 526:.\Generated_Source\PSoC4/cyfitter_cfg.c **** 	CY_SET_XTND_REG32((void CYFAR *)(CYREG_GPIO_PRT5_PC), 0x00000024u);
 527:.\Generated_Source\PSoC4/cyfitter_cfg.c **** 
 528:.\Generated_Source\PSoC4/cyfitter_cfg.c **** 
 529:.\Generated_Source\PSoC4/cyfitter_cfg.c **** 	/* Setup clocks based on selections from Clock DWR */
 530:.\Generated_Source\PSoC4/cyfitter_cfg.c **** 	ClockSetup();
 531:.\Generated_Source\PSoC4/cyfitter_cfg.c **** 
 532:.\Generated_Source\PSoC4/cyfitter_cfg.c **** 	/* Perform basic analog initialization to defaults */
 533:.\Generated_Source\PSoC4/cyfitter_cfg.c **** 	AnalogSetDefault();
 534:.\Generated_Source\PSoC4/cyfitter_cfg.c **** 
 535:.\Generated_Source\PSoC4/cyfitter_cfg.c **** }
 250              		.loc 1 535 0
 251              		@ sp needed
 252              	.LBB27:
 502:.\Generated_Source\PSoC4/cyfitter_cfg.c **** 
 253              		.loc 1 502 0
 254 00a8 1378     		ldrb	r3, [r2]
 255 00aa 0B43     		orr	r3, r1
 505:.\Generated_Source\PSoC4/cyfitter_cfg.c **** 		CY_SET_XTND_REG8((void *)CYREG_UDB_UDBIF_BANK_CTL, (uint8)(CY_GET_XTND_REG8((void *)CYREG_UDB_UDB
 256              		.loc 1 505 0
 257 00ac 5A49     		ldr	r1, .L12+68
 502:.\Generated_Source\PSoC4/cyfitter_cfg.c **** 
 258              		.loc 1 502 0
 259 00ae 1370     		strb	r3, [r2]
 505:.\Generated_Source\PSoC4/cyfitter_cfg.c **** 		CY_SET_XTND_REG8((void *)CYREG_UDB_UDBIF_BANK_CTL, (uint8)(CY_GET_XTND_REG8((void *)CYREG_UDB_UDB
 260              		.loc 1 505 0
 261 00b0 0B78     		ldrb	r3, [r1]
 262 00b2 8343     		bic	r3, r0
 263 00b4 2838     		sub	r0, r0, #40
 264 00b6 0343     		orr	r3, r0
 265 00b8 0B70     		strb	r3, [r1]
 506:.\Generated_Source\PSoC4/cyfitter_cfg.c **** 	}
 266              		.loc 1 506 0
 267 00ba 1621     		mov	r1, #22
 268 00bc 1378     		ldrb	r3, [r2]
 269 00be 0B43     		orr	r3, r1
 270 00c0 1370     		strb	r3, [r2]
 271              	.LBE27:
 511:.\Generated_Source\PSoC4/cyfitter_cfg.c **** 	CY_SET_XTND_REG32((void CYFAR *)(CYREG_GPIO_PRT0_PC), 0x00D86000u);
 272              		.loc 1 511 0
 273 00c2 1022     		mov	r2, #16
 274 00c4 554B     		ldr	r3, .L12+72
 275 00c6 1A60     		str	r2, [r3]
 512:.\Generated_Source\PSoC4/cyfitter_cfg.c **** 
 276              		.loc 1 512 0
 277 00c8 554A     		ldr	r2, .L12+76
 278 00ca 564B     		ldr	r3, .L12+80
 279 00cc 1A60     		str	r2, [r3]
 516:.\Generated_Source\PSoC4/cyfitter_cfg.c **** 	CY_SET_XTND_REG32((void CYFAR *)(CYREG_GPIO_PRT1_INTR_CFG), 0x00001000u);
 280              		.loc 1 516 0
 281 00ce F222     		mov	r2, #242
 515:.\Generated_Source\PSoC4/cyfitter_cfg.c **** 	CY_SET_XTND_REG32((void CYFAR *)(CYREG_GPIO_PRT1_PC), 0x000F2000u);
ARM GAS  C:\Users\ADMINI~1\AppData\Local\Temp\cctxdVhJ.s 			page 16


 282              		.loc 1 515 0
 283 00d0 554B     		ldr	r3, .L12+84
 516:.\Generated_Source\PSoC4/cyfitter_cfg.c **** 	CY_SET_XTND_REG32((void CYFAR *)(CYREG_GPIO_PRT1_INTR_CFG), 0x00001000u);
 284              		.loc 1 516 0
 285 00d2 1203     		lsl	r2, r2, #12
 515:.\Generated_Source\PSoC4/cyfitter_cfg.c **** 	CY_SET_XTND_REG32((void CYFAR *)(CYREG_GPIO_PRT1_PC), 0x000F2000u);
 286              		.loc 1 515 0
 287 00d4 1F60     		str	r7, [r3]
 516:.\Generated_Source\PSoC4/cyfitter_cfg.c **** 	CY_SET_XTND_REG32((void CYFAR *)(CYREG_GPIO_PRT1_INTR_CFG), 0x00001000u);
 288              		.loc 1 516 0
 289 00d6 554B     		ldr	r3, .L12+88
 290 00d8 1A60     		str	r2, [r3]
 517:.\Generated_Source\PSoC4/cyfitter_cfg.c **** 
 291              		.loc 1 517 0
 292 00da 8022     		mov	r2, #128
 293 00dc 544B     		ldr	r3, .L12+92
 294 00de 5201     		lsl	r2, r2, #5
 295 00e0 1A60     		str	r2, [r3]
 520:.\Generated_Source\PSoC4/cyfitter_cfg.c **** 	CY_SET_XTND_REG32((void CYFAR *)(CYREG_GPIO_PRT3_PC), 0x00D80000u);
 296              		.loc 1 520 0
 297 00e2 D022     		mov	r2, #208
 298 00e4 534B     		ldr	r3, .L12+96
 299 00e6 1A60     		str	r2, [r3]
 521:.\Generated_Source\PSoC4/cyfitter_cfg.c **** 	CY_SET_XTND_REG32((void CYFAR *)(CYREG_GPIO_PRT3_PC2), 0x00000010u);
 300              		.loc 1 521 0
 301 00e8 D822     		mov	r2, #216
 302 00ea 534B     		ldr	r3, .L12+100
 303 00ec 1204     		lsl	r2, r2, #16
 304 00ee 1A60     		str	r2, [r3]
 522:.\Generated_Source\PSoC4/cyfitter_cfg.c **** 
 305              		.loc 1 522 0
 306 00f0 1022     		mov	r2, #16
 307 00f2 524B     		ldr	r3, .L12+104
 308 00f4 1A60     		str	r2, [r3]
 525:.\Generated_Source\PSoC4/cyfitter_cfg.c **** 	CY_SET_XTND_REG32((void CYFAR *)(CYREG_GPIO_PRT5_PC), 0x00000024u);
 309              		.loc 1 525 0
 310 00f6 524B     		ldr	r3, .L12+108
 526:.\Generated_Source\PSoC4/cyfitter_cfg.c **** 
 311              		.loc 1 526 0
 312 00f8 1432     		add	r2, r2, #20
 525:.\Generated_Source\PSoC4/cyfitter_cfg.c **** 	CY_SET_XTND_REG32((void CYFAR *)(CYREG_GPIO_PRT5_PC), 0x00000024u);
 313              		.loc 1 525 0
 314 00fa 1E60     		str	r6, [r3]
 526:.\Generated_Source\PSoC4/cyfitter_cfg.c **** 
 315              		.loc 1 526 0
 316 00fc 514B     		ldr	r3, .L12+112
 317 00fe 1A60     		str	r2, [r3]
 318              	.LBB28:
 319              	.LBB29:
 190:.\Generated_Source\PSoC4/cyfitter_cfg.c **** 
 320              		.loc 1 190 0
 321 0100 514B     		ldr	r3, .L12+116
 322 0102 123A     		sub	r2, r2, #18
 323 0104 1A60     		str	r2, [r3]
 193:.\Generated_Source\PSoC4/cyfitter_cfg.c **** 	CyDelayCycles(12000000u); /* WCO may take up to 500ms to start */
 324              		.loc 1 193 0
 325 0106 FFF7FEFF 		bl	CySysClkWcoStart
ARM GAS  C:\Users\ADMINI~1\AppData\Local\Temp\cctxdVhJ.s 			page 17


 326              	.LVL18:
 194:.\Generated_Source\PSoC4/cyfitter_cfg.c **** 	(void)CySysClkWcoSetPowerMode(CY_SYS_CLK_WCO_LPM);    /* Switch to the low power mode */
 327              		.loc 1 194 0
 328 010a 5048     		ldr	r0, .L12+120
 329 010c FFF7FEFF 		bl	CyDelayCycles
 330              	.LVL19:
 195:.\Generated_Source\PSoC4/cyfitter_cfg.c **** 
 331              		.loc 1 195 0
 332 0110 281C     		mov	r0, r5
 333 0112 FFF7FEFF 		bl	CySysClkWcoSetPowerMode
 334              	.LVL20:
 198:.\Generated_Source\PSoC4/cyfitter_cfg.c **** 	/* CYDEV_CLK_ILO_CONFIG Starting address: CYDEV_CLK_ILO_CONFIG */
 335              		.loc 1 198 0
 336 0116 381C     		mov	r0, r7
 337 0118 FFF7FEFF 		bl	CySysClkWriteImoFreq
 338              	.LVL21:
 200:.\Generated_Source\PSoC4/cyfitter_cfg.c **** 
 339              		.loc 1 200 0
 340 011c 4C4A     		ldr	r2, .L12+124
 341 011e 4D4B     		ldr	r3, .L12+128
 207:.\Generated_Source\PSoC4/cyfitter_cfg.c **** 	CY_SET_XTND_REG32((void CYFAR *)(CYREG_BLE_BLERD_BB_XO_CAPTRIM), 0x00002D6Au);
 342              		.loc 1 207 0
 343 0120 0221     		mov	r1, #2
 200:.\Generated_Source\PSoC4/cyfitter_cfg.c **** 
 344              		.loc 1 200 0
 345 0122 1A60     		str	r2, [r3]
 203:.\Generated_Source\PSoC4/cyfitter_cfg.c **** 
 346              		.loc 1 203 0
 347 0124 8023     		mov	r3, #128
 348 0126 4C4F     		ldr	r7, .L12+132
 207:.\Generated_Source\PSoC4/cyfitter_cfg.c **** 	CY_SET_XTND_REG32((void CYFAR *)(CYREG_BLE_BLERD_BB_XO_CAPTRIM), 0x00002D6Au);
 349              		.loc 1 207 0
 350 0128 4C4A     		ldr	r2, .L12+136
 203:.\Generated_Source\PSoC4/cyfitter_cfg.c **** 
 351              		.loc 1 203 0
 352 012a DB05     		lsl	r3, r3, #23
 353 012c 3B60     		str	r3, [r7]
 207:.\Generated_Source\PSoC4/cyfitter_cfg.c **** 	CY_SET_XTND_REG32((void CYFAR *)(CYREG_BLE_BLERD_BB_XO_CAPTRIM), 0x00002D6Au);
 354              		.loc 1 207 0
 355 012e 1368     		ldr	r3, [r2]
 212:.\Generated_Source\PSoC4/cyfitter_cfg.c **** 	CyDelayUs(1500u); /* Wait to stabalize */
 356              		.loc 1 212 0
 357 0130 FA20     		mov	r0, #250
 207:.\Generated_Source\PSoC4/cyfitter_cfg.c **** 	CY_SET_XTND_REG32((void CYFAR *)(CYREG_BLE_BLERD_BB_XO_CAPTRIM), 0x00002D6Au);
 358              		.loc 1 207 0
 359 0132 0B43     		orr	r3, r1
 360 0134 1360     		str	r3, [r2]
 208:.\Generated_Source\PSoC4/cyfitter_cfg.c **** 	/* Disable Crystal Stable Interrupt before enabling ECO */
 361              		.loc 1 208 0
 362 0136 4A4A     		ldr	r2, .L12+140
 363 0138 4A4B     		ldr	r3, .L12+144
 212:.\Generated_Source\PSoC4/cyfitter_cfg.c **** 	CyDelayUs(1500u); /* Wait to stabalize */
 364              		.loc 1 212 0
 365 013a C000     		lsl	r0, r0, #3
 208:.\Generated_Source\PSoC4/cyfitter_cfg.c **** 	/* Disable Crystal Stable Interrupt before enabling ECO */
 366              		.loc 1 208 0
 367 013c 1A60     		str	r2, [r3]
ARM GAS  C:\Users\ADMINI~1\AppData\Local\Temp\cctxdVhJ.s 			page 18


 210:.\Generated_Source\PSoC4/cyfitter_cfg.c **** 	/* Start the ECO and do not check status since it is not needed for HFCLK */
 368              		.loc 1 210 0
 369 013e 0822     		mov	r2, #8
 370 0140 2368     		ldr	r3, [r4]
 371 0142 9343     		bic	r3, r2
 372 0144 2360     		str	r3, [r4]
 212:.\Generated_Source\PSoC4/cyfitter_cfg.c **** 	CyDelayUs(1500u); /* Wait to stabalize */
 373              		.loc 1 212 0
 374 0146 FFF7FEFF 		bl	CySysClkEcoStart
 375              	.LVL22:
 213:.\Generated_Source\PSoC4/cyfitter_cfg.c **** 
 376              		.loc 1 213 0
 377 014a 4748     		ldr	r0, .L12+148
 378 014c FFF7FEFF 		bl	CyDelayUs
 379              	.LVL23:
 218:.\Generated_Source\PSoC4/cyfitter_cfg.c **** 	CY_SET_REG32((void *)CYREG_PERI_DIV_CMD, 0x8000FF42u);
 380              		.loc 1 218 0
 381 0150 BC21     		mov	r1, #188
 216:.\Generated_Source\PSoC4/cyfitter_cfg.c **** 	CY_SET_REG32((void *)CYREG_PERI_DIV_CMD, 0x8000FF43u);
 382              		.loc 1 216 0
 383 0152 464A     		ldr	r2, .L12+152
 384 0154 464B     		ldr	r3, .L12+156
 218:.\Generated_Source\PSoC4/cyfitter_cfg.c **** 	CY_SET_REG32((void *)CYREG_PERI_DIV_CMD, 0x8000FF42u);
 385              		.loc 1 218 0
 386 0156 8901     		lsl	r1, r1, #6
 216:.\Generated_Source\PSoC4/cyfitter_cfg.c **** 	CY_SET_REG32((void *)CYREG_PERI_DIV_CMD, 0x8000FF43u);
 387              		.loc 1 216 0
 388 0158 1A60     		str	r2, [r3]
 217:.\Generated_Source\PSoC4/cyfitter_cfg.c **** 	CY_SET_REG32((void *)CYREG_PERI_DIV_16_CTL2, 0x00002F00u);
 389              		.loc 1 217 0
 390 015a 464B     		ldr	r3, .L12+160
 391 015c 464A     		ldr	r2, .L12+164
 392              	.LBE29:
 393              	.LBE28:
 394              	.LBB32:
 395              	.LBB33:
 273:.\Generated_Source\PSoC4/cyfitter_cfg.c **** }
 396              		.loc 1 273 0
 397 015e 281C     		mov	r0, r5
 398              	.LBE33:
 399              	.LBE32:
 400              	.LBB36:
 401              	.LBB30:
 217:.\Generated_Source\PSoC4/cyfitter_cfg.c **** 	CY_SET_REG32((void *)CYREG_PERI_DIV_16_CTL2, 0x00002F00u);
 402              		.loc 1 217 0
 403 0160 1A60     		str	r2, [r3]
 218:.\Generated_Source\PSoC4/cyfitter_cfg.c **** 	CY_SET_REG32((void *)CYREG_PERI_DIV_CMD, 0x8000FF42u);
 404              		.loc 1 218 0
 405 0162 464A     		ldr	r2, .L12+168
 406 0164 1160     		str	r1, [r2]
 220:.\Generated_Source\PSoC4/cyfitter_cfg.c **** 	CY_SET_REG32((void *)CYREG_PERI_DIV_CMD, 0x8000FF41u);
 407              		.loc 1 220 0
 408 0166 E821     		mov	r1, #232
 219:.\Generated_Source\PSoC4/cyfitter_cfg.c **** 	CY_SET_REG32((void *)CYREG_PERI_DIV_16_CTL1, 0x00001D00u);
 409              		.loc 1 219 0
 410 0168 454A     		ldr	r2, .L12+172
 220:.\Generated_Source\PSoC4/cyfitter_cfg.c **** 	CY_SET_REG32((void *)CYREG_PERI_DIV_CMD, 0x8000FF41u);
ARM GAS  C:\Users\ADMINI~1\AppData\Local\Temp\cctxdVhJ.s 			page 19


 411              		.loc 1 220 0
 412 016a 4901     		lsl	r1, r1, #5
 219:.\Generated_Source\PSoC4/cyfitter_cfg.c **** 	CY_SET_REG32((void *)CYREG_PERI_DIV_16_CTL1, 0x00001D00u);
 413              		.loc 1 219 0
 414 016c 1A60     		str	r2, [r3]
 220:.\Generated_Source\PSoC4/cyfitter_cfg.c **** 	CY_SET_REG32((void *)CYREG_PERI_DIV_CMD, 0x8000FF41u);
 415              		.loc 1 220 0
 416 016e 454A     		ldr	r2, .L12+176
 417 0170 1160     		str	r1, [r2]
 222:.\Generated_Source\PSoC4/cyfitter_cfg.c **** 	CY_SET_REG32((void *)CYREG_PERI_DIV_CMD, 0x8000FF40u);
 418              		.loc 1 222 0
 419 0172 A021     		mov	r1, #160
 221:.\Generated_Source\PSoC4/cyfitter_cfg.c **** 	CY_SET_REG32((void *)CYREG_PERI_DIV_16_CTL0, 0x00000500u);
 420              		.loc 1 221 0
 421 0174 444A     		ldr	r2, .L12+180
 222:.\Generated_Source\PSoC4/cyfitter_cfg.c **** 	CY_SET_REG32((void *)CYREG_PERI_DIV_CMD, 0x8000FF40u);
 422              		.loc 1 222 0
 423 0176 C900     		lsl	r1, r1, #3
 221:.\Generated_Source\PSoC4/cyfitter_cfg.c **** 	CY_SET_REG32((void *)CYREG_PERI_DIV_16_CTL0, 0x00000500u);
 424              		.loc 1 221 0
 425 0178 1A60     		str	r2, [r3]
 222:.\Generated_Source\PSoC4/cyfitter_cfg.c **** 	CY_SET_REG32((void *)CYREG_PERI_DIV_CMD, 0x8000FF40u);
 426              		.loc 1 222 0
 427 017a 444A     		ldr	r2, .L12+184
 428 017c 1160     		str	r1, [r2]
 223:.\Generated_Source\PSoC4/cyfitter_cfg.c **** 
 429              		.loc 1 223 0
 430 017e 444A     		ldr	r2, .L12+188
 431 0180 1A60     		str	r2, [r3]
 226:.\Generated_Source\PSoC4/cyfitter_cfg.c **** 
 432              		.loc 1 226 0
 433 0182 8222     		mov	r2, #130
 434 0184 434B     		ldr	r3, .L12+192
 435 0186 1206     		lsl	r2, r2, #24
 436 0188 1A60     		str	r2, [r3]
 229:.\Generated_Source\PSoC4/cyfitter_cfg.c **** 
 437              		.loc 1 229 0
 438 018a 8022     		mov	r2, #128
 439 018c 424B     		ldr	r3, .L12+196
 440 018e 1203     		lsl	r2, r2, #12
 441 0190 1A60     		str	r2, [r3]
 232:.\Generated_Source\PSoC4/cyfitter_cfg.c **** 
 442              		.loc 1 232 0
 443 0192 4322     		mov	r2, #67
 444 0194 414B     		ldr	r3, .L12+200
 445 0196 1A60     		str	r2, [r3]
 235:.\Generated_Source\PSoC4/cyfitter_cfg.c **** 
 446              		.loc 1 235 0
 447 0198 414B     		ldr	r3, .L12+204
 448 019a 013A     		sub	r2, r2, #1
 449 019c 1A60     		str	r2, [r3]
 238:.\Generated_Source\PSoC4/cyfitter_cfg.c **** 
 450              		.loc 1 238 0
 451 019e 414B     		ldr	r3, .L12+208
 452 01a0 013A     		sub	r2, r2, #1
 453 01a2 1A60     		str	r2, [r3]
 241:.\Generated_Source\PSoC4/cyfitter_cfg.c **** 
ARM GAS  C:\Users\ADMINI~1\AppData\Local\Temp\cctxdVhJ.s 			page 20


 454              		.loc 1 241 0
 455 01a4 404B     		ldr	r3, .L12+212
 456 01a6 013A     		sub	r2, r2, #1
 457 01a8 1A60     		str	r2, [r3]
 243:.\Generated_Source\PSoC4/cyfitter_cfg.c **** }
 458              		.loc 1 243 0
 459 01aa 8023     		mov	r3, #128
 460              	.LBE30:
 461              	.LBE36:
 462              	.LBB37:
 463              	.LBB34:
 270:.\Generated_Source\PSoC4/cyfitter_cfg.c **** 	CY_SET_XTND_REG32((void CYFAR *)CYREG_SAR_MUX_SWITCH0, 0x00000010u);
 464              		.loc 1 270 0
 465 01ac 8022     		mov	r2, #128
 466              	.LBE34:
 467              	.LBE37:
 468              	.LBB38:
 469              	.LBB31:
 243:.\Generated_Source\PSoC4/cyfitter_cfg.c **** }
 470              		.loc 1 243 0
 471 01ae DB05     		lsl	r3, r3, #23
 472 01b0 3B60     		str	r3, [r7]
 473              	.LBE31:
 474              	.LBE38:
 475              	.LBB39:
 476              	.LBB35:
 268:.\Generated_Source\PSoC4/cyfitter_cfg.c **** 	CY_SET_XTND_REG32((void CYFAR *)CYREG_CTBM1_DFT_CTRL, 0x00000003u);
 477              		.loc 1 268 0
 478 01b2 3E4B     		ldr	r3, .L12+216
 270:.\Generated_Source\PSoC4/cyfitter_cfg.c **** 	CY_SET_XTND_REG32((void CYFAR *)CYREG_SAR_MUX_SWITCH0, 0x00000010u);
 479              		.loc 1 270 0
 480 01b4 1206     		lsl	r2, r2, #24
 268:.\Generated_Source\PSoC4/cyfitter_cfg.c **** 	CY_SET_XTND_REG32((void CYFAR *)CYREG_CTBM1_DFT_CTRL, 0x00000003u);
 481              		.loc 1 268 0
 482 01b6 1E60     		str	r6, [r3]
 269:.\Generated_Source\PSoC4/cyfitter_cfg.c **** 	CY_SET_XTND_REG32((void CYFAR *)CYREG_SAR_CTRL, 0x80000000u);
 483              		.loc 1 269 0
 484 01b8 3D4B     		ldr	r3, .L12+220
 485 01ba 1E60     		str	r6, [r3]
 270:.\Generated_Source\PSoC4/cyfitter_cfg.c **** 	CY_SET_XTND_REG32((void CYFAR *)CYREG_SAR_MUX_SWITCH0, 0x00000010u);
 486              		.loc 1 270 0
 487 01bc 3D4B     		ldr	r3, .L12+224
 488 01be 1A60     		str	r2, [r3]
 271:.\Generated_Source\PSoC4/cyfitter_cfg.c **** 	CY_SET_XTND_REG32((void CYFAR *)CYREG_PASS_DSAB_DSAB_CTRL, 0x00000000u);
 489              		.loc 1 271 0
 490 01c0 1022     		mov	r2, #16
 491 01c2 3D4B     		ldr	r3, .L12+228
 492 01c4 1A60     		str	r2, [r3]
 272:.\Generated_Source\PSoC4/cyfitter_cfg.c **** 	SetAnalogRoutingPumps(1);
 493              		.loc 1 272 0
 494 01c6 0022     		mov	r2, #0
 495 01c8 3C4B     		ldr	r3, .L12+232
 496 01ca 1A60     		str	r2, [r3]
 273:.\Generated_Source\PSoC4/cyfitter_cfg.c **** }
 497              		.loc 1 273 0
 498 01cc FFF7FEFF 		bl	SetAnalogRoutingPumps
 499              	.LVL24:
ARM GAS  C:\Users\ADMINI~1\AppData\Local\Temp\cctxdVhJ.s 			page 21


 500              	.LBE35:
 501              	.LBE39:
 502              		.loc 1 535 0
 503 01d0 F8BD     		pop	{r3, r4, r5, r6, r7, pc}
 504              	.L13:
 505 01d2 C046     		.align	2
 506              	.L12:
 507 01d4 1C700F40 		.word	1074753564
 508 01d8 6CF02E40 		.word	1076818028
 509 01dc 00300F40 		.word	1074737152
 510 01e0 00400F40 		.word	1074741248
 511 01e4 00000000 		.word	.LANCHOR0
 512 01e8 00600F40 		.word	1074749440
 513 01ec 02600F40 		.word	1074749442
 514 01f0 000003EE 		.word	-301793280
 515 01f4 00000240 		.word	1073872896
 516 01f8 00050240 		.word	1073874176
 517 01fc 00500F40 		.word	1074745344
 518 0200 08500F40 		.word	1074745352
 519 0204 10500F40 		.word	1074745360
 520 0208 14500F40 		.word	1074745364
 521 020c 30500F40 		.word	1074745392
 522 0210 20001040 		.word	1074790432
 523 0214 00700F40 		.word	1074753536
 524 0218 01700F40 		.word	1074753537
 525 021c 00000440 		.word	1074003968
 526 0220 0060D800 		.word	14180352
 527 0224 08000440 		.word	1074003976
 528 0228 00010440 		.word	1074004224
 529 022c 08010440 		.word	1074004232
 530 0230 0C010440 		.word	1074004236
 531 0234 00030440 		.word	1074004736
 532 0238 08030440 		.word	1074004744
 533 023c 18030440 		.word	1074004760
 534 0240 00050440 		.word	1074005248
 535 0244 08050440 		.word	1074005256
 536 0248 30001040 		.word	1074790448
 537 024c 001BB700 		.word	12000000
 538 0250 06000080 		.word	-2147483642
 539 0254 04010B40 		.word	1074462980
 540 0258 0C020B40 		.word	1074463244
 541 025c 78002E40 		.word	1076756600
 542 0260 6A2D0000 		.word	11626
 543 0264 7C002E40 		.word	1076756604
 544 0268 DC050000 		.word	1500
 545 026c 00DF0100 		.word	122624
 546 0270 0C030140 		.word	1073808140
 547 0274 00000140 		.word	1073807360
 548 0278 43FF0080 		.word	-2147418301
 549 027c 08030140 		.word	1073808136
 550 0280 42FF0080 		.word	-2147418302
 551 0284 04030140 		.word	1073808132
 552 0288 41FF0080 		.word	-2147418303
 553 028c 00030140 		.word	1073808128
 554 0290 40FF0080 		.word	-2147418304
 555 0294 08010B40 		.word	1074462984
 556 0298 00010B40 		.word	1074462976
ARM GAS  C:\Users\ADMINI~1\AppData\Local\Temp\cctxdVhJ.s 			page 22


 557 029c 2C010140 		.word	1073807660
 558 02a0 1C010140 		.word	1073807644
 559 02a4 18010140 		.word	1073807640
 560 02a8 08010140 		.word	1073807624
 561 02ac 30003040 		.word	1076887600
 562 02b0 30003140 		.word	1076953136
 563 02b4 00003A40 		.word	1077542912
 564 02b8 00033A40 		.word	1077543680
 565 02bc 000E3F40 		.word	1077874176
 566              		.cfi_endproc
 567              	.LFE9:
 568              		.size	cyfitter_cfg, .-cyfitter_cfg
 569              		.section	.rodata
 570              		.align	2
 571              		.set	.LANCHOR0,. + 0
 572              		.type	cy_cfg_addr_table.4781, %object
 573              		.size	cy_cfg_addr_table.4781, 32
 574              	cy_cfg_addr_table.4781:
 575 0000 01000F40 		.word	1074724865
 576 0004 3C300F40 		.word	1074737212
 577 0008 1C310F40 		.word	1074737436
 578 000c 02330F40 		.word	1074737922
 579 0010 02400F40 		.word	1074741250
 580 0014 05410F40 		.word	1074741509
 581 0018 04430F40 		.word	1074742020
 582 001c 02600F40 		.word	1074749442
 583              		.type	cy_cfg_data_table.4782, %object
 584              		.size	cy_cfg_data_table.4782, 208
 585              	cy_cfg_data_table.4782:
 586 0020 81       		.byte	-127
 587 0021 0D       		.byte	13
 588 0022 40       		.byte	64
 589 0023 30       		.byte	48
 590 0024 41       		.byte	65
 591 0025 04       		.byte	4
 592 0026 49       		.byte	73
 593 0027 FF       		.byte	-1
 594 0028 4A       		.byte	74
 595 0029 FF       		.byte	-1
 596 002a 4B       		.byte	75
 597 002b FF       		.byte	-1
 598 002c 4D       		.byte	77
 599 002d A0       		.byte	-96
 600 002e 4F       		.byte	79
 601 002f 04       		.byte	4
 602 0030 50       		.byte	80
 603 0031 18       		.byte	24
 604 0032 5A       		.byte	90
 605 0033 04       		.byte	4
 606 0034 5F       		.byte	95
 607 0035 01       		.byte	1
 608 0036 60       		.byte	96
 609 0037 40       		.byte	64
 610 0038 62       		.byte	98
 611 0039 C0       		.byte	-64
 612 003a 64       		.byte	100
 613 003b 40       		.byte	64
ARM GAS  C:\Users\ADMINI~1\AppData\Local\Temp\cctxdVhJ.s 			page 23


 614 003c 65       		.byte	101
 615 003d 40       		.byte	64
 616 003e 66       		.byte	102
 617 003f C0       		.byte	-64
 618 0040 68       		.byte	104
 619 0041 C0       		.byte	-64
 620 0042 6A       		.byte	106
 621 0043 C0       		.byte	-64
 622 0044 6C       		.byte	108
 623 0045 C0       		.byte	-64
 624 0046 6E       		.byte	110
 625 0047 C0       		.byte	-64
 626 0048 82       		.byte	-126
 627 0049 02       		.byte	2
 628 004a 83       		.byte	-125
 629 004b 01       		.byte	1
 630 004c 96       		.byte	-106
 631 004d 06       		.byte	6
 632 004e 9E       		.byte	-98
 633 004f 0C       		.byte	12
 634 0050 AD       		.byte	-83
 635 0051 01       		.byte	1
 636 0052 AE       		.byte	-82
 637 0053 01       		.byte	1
 638 0054 B0       		.byte	-80
 639 0055 08       		.byte	8
 640 0056 B2       		.byte	-78
 641 0057 01       		.byte	1
 642 0058 B4       		.byte	-76
 643 0059 02       		.byte	2
 644 005a B6       		.byte	-74
 645 005b 04       		.byte	4
 646 005c B7       		.byte	-73
 647 005d 01       		.byte	1
 648 005e BE       		.byte	-66
 649 005f 10       		.byte	16
 650 0060 C0       		.byte	-64
 651 0061 30       		.byte	48
 652 0062 C1       		.byte	-63
 653 0063 04       		.byte	4
 654 0064 C5       		.byte	-59
 655 0065 D0       		.byte	-48
 656 0066 C6       		.byte	-58
 657 0067 02       		.byte	2
 658 0068 C7       		.byte	-57
 659 0069 10       		.byte	16
 660 006a C8       		.byte	-56
 661 006b 26       		.byte	38
 662 006c C9       		.byte	-55
 663 006d FF       		.byte	-1
 664 006e CA       		.byte	-54
 665 006f FF       		.byte	-1
 666 0070 CB       		.byte	-53
 667 0071 FF       		.byte	-1
 668 0072 CD       		.byte	-51
 669 0073 AF       		.byte	-81
 670 0074 CE       		.byte	-50
ARM GAS  C:\Users\ADMINI~1\AppData\Local\Temp\cctxdVhJ.s 			page 24


 671 0075 0F       		.byte	15
 672 0076 CF       		.byte	-49
 673 0077 04       		.byte	4
 674 0078 D0       		.byte	-48
 675 0079 18       		.byte	24
 676 007a D2       		.byte	-46
 677 007b 80       		.byte	-128
 678 007c D4       		.byte	-44
 679 007d 05       		.byte	5
 680 007e D8       		.byte	-40
 681 007f 04       		.byte	4
 682 0080 D9       		.byte	-39
 683 0081 04       		.byte	4
 684 0082 DA       		.byte	-38
 685 0083 04       		.byte	4
 686 0084 DB       		.byte	-37
 687 0085 04       		.byte	4
 688 0086 DF       		.byte	-33
 689 0087 01       		.byte	1
 690 0088 E0       		.byte	-32
 691 0089 40       		.byte	64
 692 008a E2       		.byte	-30
 693 008b C0       		.byte	-64
 694 008c E4       		.byte	-28
 695 008d 40       		.byte	64
 696 008e E5       		.byte	-27
 697 008f 40       		.byte	64
 698 0090 E6       		.byte	-26
 699 0091 C0       		.byte	-64
 700 0092 E8       		.byte	-24
 701 0093 C0       		.byte	-64
 702 0094 EA       		.byte	-22
 703 0095 C0       		.byte	-64
 704 0096 EC       		.byte	-20
 705 0097 C0       		.byte	-64
 706 0098 EE       		.byte	-18
 707 0099 C0       		.byte	-64
 708 009a 06       		.byte	6
 709 009b 80       		.byte	-128
 710 009c 0D       		.byte	13
 711 009d 08       		.byte	8
 712 009e 0F       		.byte	15
 713 009f 02       		.byte	2
 714 00a0 17       		.byte	23
 715 00a1 40       		.byte	64
 716 00a2 1C       		.byte	28
 717 00a3 10       		.byte	16
 718 00a4 1D       		.byte	29
 719 00a5 08       		.byte	8
 720 00a6 1E       		.byte	30
 721 00a7 08       		.byte	8
 722 00a8 1F       		.byte	31
 723 00a9 42       		.byte	66
 724 00aa 26       		.byte	38
 725 00ab 40       		.byte	64
 726 00ac 2F       		.byte	47
 727 00ad 02       		.byte	2
ARM GAS  C:\Users\ADMINI~1\AppData\Local\Temp\cctxdVhJ.s 			page 25


 728 00ae 3F       		.byte	63
 729 00af 02       		.byte	2
 730 00b0 40       		.byte	64
 731 00b1 10       		.byte	16
 732 00b2 42       		.byte	66
 733 00b3 80       		.byte	-128
 734 00b4 45       		.byte	69
 735 00b5 08       		.byte	8
 736 00b6 46       		.byte	70
 737 00b7 80       		.byte	-128
 738 00b8 4F       		.byte	79
 739 00b9 01       		.byte	1
 740 00ba 56       		.byte	86
 741 00bb 80       		.byte	-128
 742 00bc 57       		.byte	87
 743 00bd 01       		.byte	1
 744 00be 5E       		.byte	94
 745 00bf 88       		.byte	-120
 746 00c0 5F       		.byte	95
 747 00c1 01       		.byte	1
 748 00c2 77       		.byte	119
 749 00c3 40       		.byte	64
 750 00c4 C0       		.byte	-64
 751 00c5 10       		.byte	16
 752 00c6 C2       		.byte	-62
 753 00c7 A0       		.byte	-96
 754 00c8 C4       		.byte	-60
 755 00c9 80       		.byte	-128
 756 00ca CA       		.byte	-54
 757 00cb 10       		.byte	16
 758 00cc CE       		.byte	-50
 759 00cd 80       		.byte	-128
 760 00ce D0       		.byte	-48
 761 00cf C3       		.byte	-61
 762 00d0 D6       		.byte	-42
 763 00d1 D0       		.byte	-48
 764 00d2 AF       		.byte	-81
 765 00d3 40       		.byte	64
 766 00d4 E2       		.byte	-30
 767 00d5 10       		.byte	16
 768 00d6 62       		.byte	98
 769 00d7 08       		.byte	8
 770 00d8 D8       		.byte	-40
 771 00d9 40       		.byte	64
 772 00da 73       		.byte	115
 773 00db 02       		.byte	2
 774 00dc 8F       		.byte	-113
 775 00dd 02       		.byte	2
 776 00de AE       		.byte	-82
 777 00df 08       		.byte	8
 778 00e0 DC       		.byte	-36
 779 00e1 20       		.byte	32
 780 00e2 EA       		.byte	-22
 781 00e3 10       		.byte	16
 782 00e4 11       		.byte	17
 783 00e5 02       		.byte	2
 784 00e6 8D       		.byte	-115
ARM GAS  C:\Users\ADMINI~1\AppData\Local\Temp\cctxdVhJ.s 			page 26


 785 00e7 01       		.byte	1
 786 00e8 C4       		.byte	-60
 787 00e9 08       		.byte	8
 788 00ea E2       		.byte	-30
 789 00eb 08       		.byte	8
 790 00ec 10       		.byte	16
 791 00ed 01       		.byte	1
 792 00ee 11       		.byte	17
 793 00ef 01       		.byte	1
 794              		.text
 795              	.Letext0:
 796              		.file 2 "c:\\program files (x86)\\cypress\\psoc creator\\3.3\\psoc creator\\import\\gnu\\arm\\4.9.
 797              		.file 3 ".\\Generated_Source\\PSoC4\\cytypes.h"
 798              		.file 4 ".\\Generated_Source\\PSoC4\\CyLib.h"
 799              		.file 5 ".\\Generated_Source\\PSoC4\\CyLFClk.h"