ARM GAS  C:\Users\ADMINI~1\AppData\Local\Temp\ccc8KVI9.s 			page 1


   1              		.cpu cortex-m0
   2              		.fpu softvfp
   3              		.eabi_attribute 20, 1
   4              		.eabi_attribute 21, 1
   5              		.eabi_attribute 23, 3
   6              		.eabi_attribute 24, 1
   7              		.eabi_attribute 25, 1
   8              		.eabi_attribute 26, 1
   9              		.eabi_attribute 30, 4
  10              		.eabi_attribute 34, 0
  11              		.eabi_attribute 18, 4
  12              		.code	16
  13              		.file	"i2c_comm.c"
  14              		.text
  15              	.Ltext0:
  16              		.cfi_sections	.debug_frame
  17              		.section	.text.I2CComm_Init,"ax",%progbits
  18              		.align	1
  19              		.global	I2CComm_Init
  20              		.code	16
  21              		.thumb_func
  22              		.type	I2CComm_Init, %function
  23              	I2CComm_Init:
  24              	.LFB37:
  25              		.file 1 ".\\i2c_comm.c"
   1:.\i2c_comm.c  **** /* ========================================
   2:.\i2c_comm.c  ****  *
   3:.\i2c_comm.c  ****  * Copyright YOUR COMPANY, THE YEAR
   4:.\i2c_comm.c  ****  * All Rights Reserved
   5:.\i2c_comm.c  ****  * UNPUBLISHED, LICENSED SOFTWARE.
   6:.\i2c_comm.c  ****  *
   7:.\i2c_comm.c  ****  * CONFIDENTIAL AND PROPRIETARY INFORMATION
   8:.\i2c_comm.c  ****  * WHICH IS THE PROPERTY OF your company.
   9:.\i2c_comm.c  ****  *
  10:.\i2c_comm.c  ****  * ========================================
  11:.\i2c_comm.c  **** */
  12:.\i2c_comm.c  **** #include <project.h>
  13:.\i2c_comm.c  **** #include <i2c_comm.h>
  14:.\i2c_comm.c  **** #include <timeout.h>
  15:.\i2c_comm.c  **** #include <.\20648_driver\common\inv_mems_drv_hook.h>
  16:.\i2c_comm.c  **** 
  17:.\i2c_comm.c  **** uint8 CommErrorFlags = 0;
  18:.\i2c_comm.c  **** uint8 I2CTimeout = 0;
  19:.\i2c_comm.c  **** uint8 BrixCommErrorCount = 0;
  20:.\i2c_comm.c  **** uint8 KeypadCommErrorCount = 0;
  21:.\i2c_comm.c  **** uint8 CyFiCommErrorCount = 0;
  22:.\i2c_comm.c  **** 
  23:.\i2c_comm.c  **** void I2CComm_Init(void)
  24:.\i2c_comm.c  **** {
  26              		.loc 1 24 0
  27              		.cfi_startproc
  28 0000 08B5     		push	{r3, lr}
  29              		.cfi_def_cfa_offset 8
  30              		.cfi_offset 3, -8
  31              		.cfi_offset 14, -4
  25:.\i2c_comm.c  **** 	I2C_Start();	
  32              		.loc 1 25 0
ARM GAS  C:\Users\ADMINI~1\AppData\Local\Temp\ccc8KVI9.s 			page 2


  33 0002 FFF7FEFF 		bl	I2C_Start
  34              	.LVL0:
  26:.\i2c_comm.c  **** }
  35              		.loc 1 26 0
  36              		@ sp needed
  37 0006 08BD     		pop	{r3, pc}
  38              		.cfi_endproc
  39              	.LFE37:
  40              		.size	I2CComm_Init, .-I2CComm_Init
  41              		.section	.text.I2CComm_WriteBuffer,"ax",%progbits
  42              		.align	1
  43              		.global	I2CComm_WriteBuffer
  44              		.code	16
  45              		.thumb_func
  46              		.type	I2CComm_WriteBuffer, %function
  47              	I2CComm_WriteBuffer:
  48              	.LFB38:
  27:.\i2c_comm.c  **** 
  28:.\i2c_comm.c  **** /****************************************************************************** 
  29:.\i2c_comm.c  **** * Function Name: I2CComm_WriteBuffer
  30:.\i2c_comm.c  **** *******************************************************************************
  31:.\i2c_comm.c  **** *
  32:.\i2c_comm.c  **** * Summary:
  33:.\i2c_comm.c  **** *  This function writes to an I2C Slave.  After initializing an I2C write,
  34:.\i2c_comm.c  **** *  the function waits till the write completes successfully, or if a timeout or
  35:.\i2c_comm.c  **** *  error occurs.  The function returns the status of the transfer
  36:.\i2c_comm.c  **** *  
  37:.\i2c_comm.c  **** *
  38:.\i2c_comm.c  **** * Parameters:  
  39:.\i2c_comm.c  **** *  SlaveAddr - 7 bit Slave address
  40:.\i2c_comm.c  **** *  SourceBuffer - Pointer to the buffer which contains the data to be written to slave
  41:.\i2c_comm.c  **** *  DataCount - Number of bytes to be written
  42:.\i2c_comm.c  **** *  Timeout - Timeout value in ms
  43:.\i2c_comm.c  **** *
  44:.\i2c_comm.c  **** * Return: 
  45:.\i2c_comm.c  **** *  Status of the write
  46:.\i2c_comm.c  **** *    COMM_ERROR - If there is an error in the read
  47:.\i2c_comm.c  **** *	 COMM_SUCCESS - If the read was successful
  48:.\i2c_comm.c  **** *
  49:.\i2c_comm.c  **** *******************************************************************************/
  50:.\i2c_comm.c  **** int16 I2CComm_WriteBuffer(uint8 SlaveAddr, uint8* SourceBuffer, uint8 DataCount, uint8 Timeout, uin
  51:.\i2c_comm.c  **** {
  49              		.loc 1 51 0
  50              		.cfi_startproc
  51              	.LVL1:
  52 0000 F7B5     		push	{r0, r1, r2, r4, r5, r6, r7, lr}
  53              		.cfi_def_cfa_offset 32
  54              		.cfi_offset 0, -32
  55              		.cfi_offset 1, -28
  56              		.cfi_offset 2, -24
  57              		.cfi_offset 4, -20
  58              		.cfi_offset 5, -16
  59              		.cfi_offset 6, -12
  60              		.cfi_offset 7, -8
  61              		.cfi_offset 14, -4
  62              		.loc 1 51 0
  63 0002 1F1C     		mov	r7, r3
ARM GAS  C:\Users\ADMINI~1\AppData\Local\Temp\ccc8KVI9.s 			page 3


  64 0004 0D1C     		mov	r5, r1
  65 0006 061C     		mov	r6, r0
  66 0008 08AB     		add	r3, sp, #32
  67              	.LVL2:
  68 000a 1C78     		ldrb	r4, [r3]
  69 000c 0192     		str	r2, [sp, #4]
  70              	.LVL3:
  52:.\i2c_comm.c  **** 	uint8 I2CStatus = 0;
  53:.\i2c_comm.c  **** 	int16 Status = COMM_ERROR;
  54:.\i2c_comm.c  **** 
  55:.\i2c_comm.c  **** 	/* Enable the I2C timeout */
  56:.\i2c_comm.c  **** 	Timeout_Start();
  71              		.loc 1 56 0
  72 000e FFF7FEFF 		bl	Timeout_Start
  73              	.LVL4:
  57:.\i2c_comm.c  **** 	I2CCommTimeout_Enable(Timeout);
  74              		.loc 1 57 0
  75 0012 381C     		mov	r0, r7
  76 0014 FFF7FEFF 		bl	I2CCommTimeout_Enable
  77              	.LVL5:
  58:.\i2c_comm.c  **** 	I2CCommTimeout_ClearFlag();
  78              		.loc 1 58 0
  79 0018 FFF7FEFF 		bl	I2CCommTimeout_ClearFlag
  80              	.LVL6:
  59:.\i2c_comm.c  **** 	
  60:.\i2c_comm.c  **** 	/* Initialize I2C Write */
  61:.\i2c_comm.c  **** 	I2C_I2CMasterWriteBuf(SlaveAddr, SourceBuffer, DataCount, Mode);
  81              		.loc 1 61 0
  82 001c 301C     		mov	r0, r6
  83 001e 291C     		mov	r1, r5
  84 0020 019A     		ldr	r2, [sp, #4]
  85 0022 231C     		mov	r3, r4
  86 0024 FFF7FEFF 		bl	I2C_I2CMasterWriteBuf
  87              	.LVL7:
  88              	.L4:
  62:.\i2c_comm.c  **** 	
  63:.\i2c_comm.c  **** 	/* In a loop read the I2C Master status till one of these conditions occur
  64:.\i2c_comm.c  **** 	   1. There is an error in the transfer - like Slave NAK, lost arbitration etc
  65:.\i2c_comm.c  **** 	   2. Transfer completed successfully
  66:.\i2c_comm.c  **** 	   3. Transfer timed out	*/
  67:.\i2c_comm.c  **** 	do
  68:.\i2c_comm.c  **** 	{
  69:.\i2c_comm.c  **** 		I2CStatus = I2C_I2CMasterStatus();
  89              		.loc 1 69 0 discriminator 3
  90 0028 FFF7FEFF 		bl	I2C_I2CMasterStatus
  91              	.LVL8:
  70:.\i2c_comm.c  **** 	}while((!(I2CStatus & I2C_I2C_MSTAT_WR_CMPLT)) && (!(TimeoutErrorFlags & I2C_TIMEOUT)) && (!(I2CSt
  92              		.loc 1 70 0 discriminator 3
  93 002c 0223     		mov	r3, #2
  94 002e 1840     		and	r0, r3
  95              	.LVL9:
  96 0030 041E     		sub	r4, r0, #0
  97 0032 03D1     		bne	.L3
  98              		.loc 1 70 0 is_stmt 0 discriminator 1
  99 0034 0A4B     		ldr	r3, .L10
 100 0036 1B78     		ldrb	r3, [r3]
 101 0038 DB07     		lsl	r3, r3, #31
ARM GAS  C:\Users\ADMINI~1\AppData\Local\Temp\ccc8KVI9.s 			page 4


 102 003a F5D5     		bpl	.L4
 103              	.L3:
  71:.\i2c_comm.c  **** 
  72:.\i2c_comm.c  **** 	/* Disable I2C Timeout counter and clear the master status bits */
  73:.\i2c_comm.c  **** 	Timeout_Stop();
 104              		.loc 1 73 0 is_stmt 1
 105 003c FFF7FEFF 		bl	Timeout_Stop
 106              	.LVL10:
  74:.\i2c_comm.c  **** 	I2CCommTimeout_Disable();
 107              		.loc 1 74 0
 108 0040 FFF7FEFF 		bl	I2CCommTimeout_Disable
 109              	.LVL11:
  75:.\i2c_comm.c  **** 	I2C_I2CMasterClearStatus();
 110              		.loc 1 75 0
 111 0044 FFF7FEFF 		bl	I2C_I2CMasterClearStatus
 112              	.LVL12:
  76:.\i2c_comm.c  **** 
  77:.\i2c_comm.c  **** 	/* Check what caused us to exit the while loop before */
  78:.\i2c_comm.c  **** 	/* If the write completed successfully, set status to success */
  79:.\i2c_comm.c  **** 	if (I2CStatus & I2C_I2C_MSTAT_WR_CMPLT)
  80:.\i2c_comm.c  **** 	{
  81:.\i2c_comm.c  **** 		Status = COMM_SUCCESS;
 113              		.loc 1 81 0
 114 0048 0023     		mov	r3, #0
  79:.\i2c_comm.c  **** 	{
 115              		.loc 1 79 0
 116 004a 9C42     		cmp	r4, r3
 117 004c 06D1     		bne	.L5
 118              	.LVL13:
 119              	.LBB4:
 120              	.LBB5:
  82:.\i2c_comm.c  **** 	}
  83:.\i2c_comm.c  **** 	/* If there was an error in transfer, set status to error */
  84:.\i2c_comm.c  **** 	else if (I2CStatus & I2C_I2C_MSTAT_ERR_XFER)
  85:.\i2c_comm.c  **** 	{
  86:.\i2c_comm.c  **** 		Status = COMM_ERROR;
  87:.\i2c_comm.c  **** 		// Do we stop and start I2C here?
  88:.\i2c_comm.c  **** 	}
  89:.\i2c_comm.c  **** 	/* If there was a timeout, set status to error */
  90:.\i2c_comm.c  **** 	else if (TimeoutErrorFlags & I2C_TIMEOUT)
 121              		.loc 1 90 0
 122 004e 044B     		ldr	r3, .L10
 123 0050 1B78     		ldrb	r3, [r3]
 124 0052 DB07     		lsl	r3, r3, #31
 125 0054 01D5     		bpl	.L7
 126              	.LVL14:
  91:.\i2c_comm.c  **** 	{
  92:.\i2c_comm.c  **** 		Status = COMM_ERROR;
  93:.\i2c_comm.c  **** 		I2CCommTimeout_ClearFlag();
 127              		.loc 1 93 0
 128 0056 FFF7FEFF 		bl	I2CCommTimeout_ClearFlag
 129              	.LVL15:
 130              	.L7:
  90:.\i2c_comm.c  **** 	{
 131              		.loc 1 90 0
 132 005a 024B     		ldr	r3, .L10+4
 133              	.LVL16:
ARM GAS  C:\Users\ADMINI~1\AppData\Local\Temp\ccc8KVI9.s 			page 5


 134              	.L5:
 135              	.LBE5:
 136              	.LBE4:
  94:.\i2c_comm.c  **** 	}
  95:.\i2c_comm.c  **** 
  96:.\i2c_comm.c  **** 	return Status;
 137              		.loc 1 96 0
 138 005c 18B2     		sxth	r0, r3
  97:.\i2c_comm.c  **** }
 139              		.loc 1 97 0
 140              		@ sp needed
 141              	.LVL17:
 142 005e FEBD     		pop	{r1, r2, r3, r4, r5, r6, r7, pc}
 143              	.L11:
 144              		.align	2
 145              	.L10:
 146 0060 00000000 		.word	TimeoutErrorFlags
 147 0064 FFFF0000 		.word	65535
 148              		.cfi_endproc
 149              	.LFE38:
 150              		.size	I2CComm_WriteBuffer, .-I2CComm_WriteBuffer
 151              		.section	.text.I2CComm_ReadBuffer,"ax",%progbits
 152              		.align	1
 153              		.global	I2CComm_ReadBuffer
 154              		.code	16
 155              		.thumb_func
 156              		.type	I2CComm_ReadBuffer, %function
 157              	I2CComm_ReadBuffer:
 158              	.LFB39:
  98:.\i2c_comm.c  **** 
  99:.\i2c_comm.c  **** /****************************************************************************** 
 100:.\i2c_comm.c  **** * Function Name: I2CComm_ReadBuffer
 101:.\i2c_comm.c  **** *******************************************************************************
 102:.\i2c_comm.c  **** *
 103:.\i2c_comm.c  **** * Summary:
 104:.\i2c_comm.c  **** *  This function reads from an I2C Slave.  After initializing an I2C read,
 105:.\i2c_comm.c  **** *  the function waits till the read completes successfully, or if a timeout or
 106:.\i2c_comm.c  **** *  error occurs.  The function returns the status of the transfer
 107:.\i2c_comm.c  **** *  
 108:.\i2c_comm.c  **** *
 109:.\i2c_comm.c  **** * Parameters:  
 110:.\i2c_comm.c  **** *  SlaveAddr - 7 bit Slave address
 111:.\i2c_comm.c  **** *  DestinationBuffer - Pointer to the buffer where the read bytes have to be saved
 112:.\i2c_comm.c  **** *  DataCount - Number of bytes to be read
 113:.\i2c_comm.c  **** *  Timeout - Timeout value in ms
 114:.\i2c_comm.c  **** *
 115:.\i2c_comm.c  **** * Return: 
 116:.\i2c_comm.c  **** *  Status of the read
 117:.\i2c_comm.c  **** *    COMM_ERROR - If there is an error in the read
 118:.\i2c_comm.c  **** *	 COMM_SUCCESS - If the read was successful
 119:.\i2c_comm.c  **** *
 120:.\i2c_comm.c  **** *******************************************************************************/
 121:.\i2c_comm.c  **** int16 I2CComm_ReadBuffer(uint8 SlaveAddr, uint8* DestinationBuffer, uint8 DataCount, uint8 Timeout,
 122:.\i2c_comm.c  **** {
 159              		.loc 1 122 0
 160              		.cfi_startproc
 161              	.LVL18:
ARM GAS  C:\Users\ADMINI~1\AppData\Local\Temp\ccc8KVI9.s 			page 6


 162 0000 F7B5     		push	{r0, r1, r2, r4, r5, r6, r7, lr}
 163              		.cfi_def_cfa_offset 32
 164              		.cfi_offset 0, -32
 165              		.cfi_offset 1, -28
 166              		.cfi_offset 2, -24
 167              		.cfi_offset 4, -20
 168              		.cfi_offset 5, -16
 169              		.cfi_offset 6, -12
 170              		.cfi_offset 7, -8
 171              		.cfi_offset 14, -4
 172              		.loc 1 122 0
 173 0002 1F1C     		mov	r7, r3
 174 0004 0D1C     		mov	r5, r1
 175 0006 061C     		mov	r6, r0
 176 0008 08AB     		add	r3, sp, #32
 177              	.LVL19:
 178 000a 1C78     		ldrb	r4, [r3]
 179 000c 0192     		str	r2, [sp, #4]
 180              	.LVL20:
 123:.\i2c_comm.c  **** 	uint8 I2CStatus = 0;
 124:.\i2c_comm.c  **** 	int16 Status = COMM_ERROR;
 125:.\i2c_comm.c  **** 
 126:.\i2c_comm.c  **** 	/* Enable I2C timeout */
 127:.\i2c_comm.c  **** 	Timeout_Start();
 181              		.loc 1 127 0
 182 000e FFF7FEFF 		bl	Timeout_Start
 183              	.LVL21:
 128:.\i2c_comm.c  **** 	I2CCommTimeout_Enable(Timeout);
 184              		.loc 1 128 0
 185 0012 381C     		mov	r0, r7
 186 0014 FFF7FEFF 		bl	I2CCommTimeout_Enable
 187              	.LVL22:
 129:.\i2c_comm.c  **** 	I2CCommTimeout_ClearFlag();
 188              		.loc 1 129 0
 189 0018 FFF7FEFF 		bl	I2CCommTimeout_ClearFlag
 190              	.LVL23:
 130:.\i2c_comm.c  **** 	
 131:.\i2c_comm.c  **** 	/* Initialize I2C Read */
 132:.\i2c_comm.c  **** 	I2C_I2CMasterReadBuf(SlaveAddr, DestinationBuffer, DataCount, Mode);
 191              		.loc 1 132 0
 192 001c 301C     		mov	r0, r6
 193 001e 291C     		mov	r1, r5
 194 0020 019A     		ldr	r2, [sp, #4]
 195 0022 231C     		mov	r3, r4
 196 0024 FFF7FEFF 		bl	I2C_I2CMasterReadBuf
 197              	.LVL24:
 198              	.L14:
 133:.\i2c_comm.c  **** 	
 134:.\i2c_comm.c  **** 	/* In a loop read the I2C Master status till one of these conditions occur
 135:.\i2c_comm.c  **** 	   1. There is an error in the transfer - like Slave NAK, lost arbitration etc
 136:.\i2c_comm.c  **** 	   2. Transfer completed successfully
 137:.\i2c_comm.c  **** 	   3. Transfer timed out	*/
 138:.\i2c_comm.c  **** 	do
 139:.\i2c_comm.c  **** 	{
 140:.\i2c_comm.c  **** 		I2CStatus = I2C_I2CMasterStatus();
 199              		.loc 1 140 0 discriminator 3
 200 0028 FFF7FEFF 		bl	I2C_I2CMasterStatus
ARM GAS  C:\Users\ADMINI~1\AppData\Local\Temp\ccc8KVI9.s 			page 7


 201              	.LVL25:
 141:.\i2c_comm.c  **** 	}while((!(I2CStatus & I2C_I2C_MSTAT_RD_CMPLT)) && (!(TimeoutErrorFlags & I2C_TIMEOUT)) && (!(I2CSt
 202              		.loc 1 141 0 discriminator 3
 203 002c 0123     		mov	r3, #1
 204 002e 1840     		and	r0, r3
 205              	.LVL26:
 206 0030 041E     		sub	r4, r0, #0
 207 0032 04D1     		bne	.L16
 208              		.loc 1 141 0 is_stmt 0 discriminator 1
 209 0034 0B4A     		ldr	r2, .L20
 210 0036 1278     		ldrb	r2, [r2]
 211 0038 1A42     		tst	r2, r3
 212 003a F5D0     		beq	.L14
 213 003c 00E0     		b	.L13
 214              	.L16:
 215 003e 1C1C     		mov	r4, r3
 216              	.L13:
 142:.\i2c_comm.c  **** 
 143:.\i2c_comm.c  **** 	/* Stop the timeout counter and clear the I2C status flags */
 144:.\i2c_comm.c  **** 	Timeout_Stop();
 217              		.loc 1 144 0 is_stmt 1
 218 0040 FFF7FEFF 		bl	Timeout_Stop
 219              	.LVL27:
 145:.\i2c_comm.c  **** 	I2CCommTimeout_Disable();
 220              		.loc 1 145 0
 221 0044 FFF7FEFF 		bl	I2CCommTimeout_Disable
 222              	.LVL28:
 146:.\i2c_comm.c  **** 	I2C_I2CMasterClearStatus();
 223              		.loc 1 146 0
 224 0048 FFF7FEFF 		bl	I2C_I2CMasterClearStatus
 225              	.LVL29:
 147:.\i2c_comm.c  **** 
 148:.\i2c_comm.c  **** 	/* Check what caused us to exit the while loop before */
 149:.\i2c_comm.c  **** 	/* If read completed successfully, set status to success */
 150:.\i2c_comm.c  **** 	if (I2CStatus & I2C_I2C_MSTAT_RD_CMPLT)
 151:.\i2c_comm.c  **** 	{
 152:.\i2c_comm.c  **** 		Status = COMM_SUCCESS;
 226              		.loc 1 152 0
 227 004c 0023     		mov	r3, #0
 150:.\i2c_comm.c  **** 	{
 228              		.loc 1 150 0
 229 004e 9C42     		cmp	r4, r3
 230 0050 06D1     		bne	.L15
 231              	.LVL30:
 232              	.LBB8:
 233              	.LBB9:
 153:.\i2c_comm.c  **** 	}
 154:.\i2c_comm.c  **** 	/* If there was an error in transfer, set status to error */
 155:.\i2c_comm.c  **** 	else if (I2CStatus & I2C_I2C_MSTAT_ERR_XFER)
 156:.\i2c_comm.c  **** 	{
 157:.\i2c_comm.c  **** 		Status = COMM_ERROR;
 158:.\i2c_comm.c  **** 		// Do we stop and start I2C here?
 159:.\i2c_comm.c  **** 	}
 160:.\i2c_comm.c  **** 	/* If there was a timeout, set status to error */
 161:.\i2c_comm.c  **** 	else if (TimeoutErrorFlags & I2C_TIMEOUT)
 234              		.loc 1 161 0
 235 0052 044B     		ldr	r3, .L20
ARM GAS  C:\Users\ADMINI~1\AppData\Local\Temp\ccc8KVI9.s 			page 8


 236 0054 1B78     		ldrb	r3, [r3]
 237 0056 DB07     		lsl	r3, r3, #31
 238 0058 01D5     		bpl	.L18
 239              	.LVL31:
 162:.\i2c_comm.c  **** 	{
 163:.\i2c_comm.c  **** 		Status = COMM_ERROR;
 164:.\i2c_comm.c  **** 		I2CCommTimeout_ClearFlag();
 240              		.loc 1 164 0
 241 005a FFF7FEFF 		bl	I2CCommTimeout_ClearFlag
 242              	.LVL32:
 243              	.L18:
 161:.\i2c_comm.c  **** 	{
 244              		.loc 1 161 0
 245 005e 024B     		ldr	r3, .L20+4
 246              	.LVL33:
 247              	.L15:
 248              	.LBE9:
 249              	.LBE8:
 165:.\i2c_comm.c  **** 	}
 166:.\i2c_comm.c  **** 	
 167:.\i2c_comm.c  **** 	/* Return the status */
 168:.\i2c_comm.c  **** 	return Status;
 250              		.loc 1 168 0
 251 0060 18B2     		sxth	r0, r3
 169:.\i2c_comm.c  **** }
 252              		.loc 1 169 0
 253              		@ sp needed
 254              	.LVL34:
 255 0062 FEBD     		pop	{r1, r2, r3, r4, r5, r6, r7, pc}
 256              	.L21:
 257              		.align	2
 258              	.L20:
 259 0064 00000000 		.word	TimeoutErrorFlags
 260 0068 FFFF0000 		.word	65535
 261              		.cfi_endproc
 262              	.LFE39:
 263              		.size	I2CComm_ReadBuffer, .-I2CComm_ReadBuffer
 264              		.section	.text.Sensors_I2C_WriteRegister,"ax",%progbits
 265              		.align	1
 266              		.global	Sensors_I2C_WriteRegister
 267              		.code	16
 268              		.thumb_func
 269              		.type	Sensors_I2C_WriteRegister, %function
 270              	Sensors_I2C_WriteRegister:
 271              	.LFB40:
 170:.\i2c_comm.c  **** 
 171:.\i2c_comm.c  **** 
 172:.\i2c_comm.c  **** int Sensors_I2C_WriteRegister(unsigned char slave_addr, unsigned char reg_addr, unsigned short len,
 173:.\i2c_comm.c  **** {
 272              		.loc 1 173 0
 273              		.cfi_startproc
 274              	.LVL35:
 275 0000 70B5     		push	{r4, r5, r6, lr}
 276              		.cfi_def_cfa_offset 16
 277              		.cfi_offset 4, -16
 278              		.cfi_offset 5, -12
 279              		.cfi_offset 6, -8
ARM GAS  C:\Users\ADMINI~1\AppData\Local\Temp\ccc8KVI9.s 			page 9


 280              		.cfi_offset 14, -4
 281 0002 0C1C     		mov	r4, r1
 174:.\i2c_comm.c  **** 	int Status = COMM_ERROR;
 175:.\i2c_comm.c  **** 	uint8 I2CBuffer[INV_MAX_SERIAL_WRITE + 1];
 176:.\i2c_comm.c  **** 	uint8 i;
 177:.\i2c_comm.c  **** 	uint8* ptr = data_ptr;
 282              		.loc 1 177 0
 283 0004 1D1C     		mov	r5, r3
 173:.\i2c_comm.c  **** 	int Status = COMM_ERROR;
 284              		.loc 1 173 0
 285 0006 88B0     		sub	sp, sp, #32
 286              		.cfi_def_cfa_offset 48
 178:.\i2c_comm.c  **** 	
 179:.\i2c_comm.c  **** 	/* Copy the address byte and the data bytes to the I2C buffer */
 180:.\i2c_comm.c  **** 	I2CBuffer[0] = reg_addr;
 287              		.loc 1 180 0
 288 0008 03A9     		add	r1, sp, #12
 289              	.LVL36:
 290 000a 0C70     		strb	r4, [r1]
 291              	.LVL37:
 292              	.L23:
 293 000c EC1A     		sub	r4, r5, r3
 294 000e E4B2     		uxtb	r4, r4
 295              	.LVL38:
 181:.\i2c_comm.c  **** 	for(i = 0; i < len; i++)
 296              		.loc 1 181 0 discriminator 1
 297 0010 9442     		cmp	r4, r2
 298 0012 04D2     		bcs	.L25
 182:.\i2c_comm.c  **** 	{
 183:.\i2c_comm.c  **** 		I2CBuffer[i+1] = *ptr;
 299              		.loc 1 183 0 discriminator 3
 300 0014 2E78     		ldrb	r6, [r5]
 301 0016 0C19     		add	r4, r1, r4
 302              	.LVL39:
 303 0018 6670     		strb	r6, [r4, #1]
 184:.\i2c_comm.c  **** 		ptr++;
 304              		.loc 1 184 0 discriminator 3
 305 001a 0135     		add	r5, r5, #1
 306              	.LVL40:
 307 001c F6E7     		b	.L23
 308              	.LVL41:
 309              	.L25:
 185:.\i2c_comm.c  **** 	}
 186:.\i2c_comm.c  **** 	
 187:.\i2c_comm.c  **** 	/* Write the register address and data to the ICM20648 device */
 188:.\i2c_comm.c  **** 	Status = I2CComm_WriteBuffer(slave_addr, I2CBuffer, (len+1), 25, I2C_I2C_MODE_COMPLETE_XFER);
 310              		.loc 1 188 0
 311 001e 0023     		mov	r3, #0
 312              	.LVL42:
 313 0020 0132     		add	r2, r2, #1
 314              	.LVL43:
 315 0022 0093     		str	r3, [sp]
 316 0024 D2B2     		uxtb	r2, r2
 317 0026 1933     		add	r3, r3, #25
 318 0028 FFF7FEFF 		bl	I2CComm_WriteBuffer
 319              	.LVL44:
 189:.\i2c_comm.c  **** 	
ARM GAS  C:\Users\ADMINI~1\AppData\Local\Temp\ccc8KVI9.s 			page 10


 190:.\i2c_comm.c  **** //	/* Write the register address and data to the ICM20648 device */
 191:.\i2c_comm.c  **** //	Status = I2CComm_WriteBuffer(slave_addr, &reg_addr, 1, 25, I2C_I2C_MODE_COMPLETE_XFER);
 192:.\i2c_comm.c  **** //	
 193:.\i2c_comm.c  **** //	/* Check if register address write is success. If yes write the data */
 194:.\i2c_comm.c  **** //	if(Status == COMM_SUCCESS)
 195:.\i2c_comm.c  **** //	{
 196:.\i2c_comm.c  **** //		Status = I2CComm_WriteBuffer(slave_addr, data_ptr, len, 20, I2C_I2C_MODE_COMPLETE_XFER);
 197:.\i2c_comm.c  **** //	}
 198:.\i2c_comm.c  **** //	
 199:.\i2c_comm.c  **** 	return Status;  
 200:.\i2c_comm.c  **** }
 320              		.loc 1 200 0
 321 002c 08B0     		add	sp, sp, #32
 322              		@ sp needed
 323              	.LVL45:
 324              	.LVL46:
 325 002e 70BD     		pop	{r4, r5, r6, pc}
 326              		.cfi_endproc
 327              	.LFE40:
 328              		.size	Sensors_I2C_WriteRegister, .-Sensors_I2C_WriteRegister
 329              		.section	.text.Sensors_I2C_ReadRegister,"ax",%progbits
 330              		.align	1
 331              		.global	Sensors_I2C_ReadRegister
 332              		.code	16
 333              		.thumb_func
 334              		.type	Sensors_I2C_ReadRegister, %function
 335              	Sensors_I2C_ReadRegister:
 336              	.LFB41:
 201:.\i2c_comm.c  **** 
 202:.\i2c_comm.c  **** int Sensors_I2C_ReadRegister(unsigned char slave_addr, unsigned char reg_addr, unsigned short len, 
 203:.\i2c_comm.c  **** {
 337              		.loc 1 203 0
 338              		.cfi_startproc
 339              	.LVL47:
 340 0000 F0B5     		push	{r4, r5, r6, r7, lr}
 341              		.cfi_def_cfa_offset 20
 342              		.cfi_offset 4, -20
 343              		.cfi_offset 5, -16
 344              		.cfi_offset 6, -12
 345              		.cfi_offset 7, -8
 346              		.cfi_offset 14, -4
 347 0002 1F1C     		mov	r7, r3
 348 0004 0F23     		mov	r3, #15
 349              	.LVL48:
 350 0006 151C     		mov	r5, r2
 204:.\i2c_comm.c  **** 	int Status = COMM_ERROR;
 205:.\i2c_comm.c  **** 
 206:.\i2c_comm.c  **** 	/* First write the register address to the ICM20648 device */
 207:.\i2c_comm.c  **** 	Status = I2CComm_WriteBuffer(slave_addr, &reg_addr, 1, 5, I2C_I2C_MODE_NO_STOP);
 351              		.loc 1 207 0
 352 0008 0222     		mov	r2, #2
 353              	.LVL49:
 203:.\i2c_comm.c  **** 	int Status = COMM_ERROR;
 354              		.loc 1 203 0
 355 000a 85B0     		sub	sp, sp, #20
 356              		.cfi_def_cfa_offset 40
 203:.\i2c_comm.c  **** 	int Status = COMM_ERROR;
ARM GAS  C:\Users\ADMINI~1\AppData\Local\Temp\ccc8KVI9.s 			page 11


 357              		.loc 1 203 0
 358 000c 6B44     		add	r3, r3, sp
 359 000e 1970     		strb	r1, [r3]
 360              		.loc 1 207 0
 361 0010 0092     		str	r2, [sp]
 362 0012 191C     		mov	r1, r3
 363              	.LVL50:
 364 0014 013A     		sub	r2, r2, #1
 365 0016 0523     		mov	r3, #5
 203:.\i2c_comm.c  **** 	int Status = COMM_ERROR;
 366              		.loc 1 203 0
 367 0018 061C     		mov	r6, r0
 368              		.loc 1 207 0
 369 001a FFF7FEFF 		bl	I2CComm_WriteBuffer
 370              	.LVL51:
 371 001e 041E     		sub	r4, r0, #0
 372              	.LVL52:
 208:.\i2c_comm.c  **** 
 209:.\i2c_comm.c  **** 	/* Check if register address write is success. If yes read the data */
 210:.\i2c_comm.c  **** 	if(Status == COMM_SUCCESS)
 373              		.loc 1 210 0
 374 0020 09D1     		bne	.L27
 211:.\i2c_comm.c  **** 	{
 212:.\i2c_comm.c  **** 		Status = I2CComm_ReadBuffer(slave_addr, data_ptr, len, 20, I2C_I2C_MODE_REPEAT_START);
 375              		.loc 1 212 0
 376 0022 0123     		mov	r3, #1
 377 0024 EAB2     		uxtb	r2, r5
 378 0026 0093     		str	r3, [sp]
 379 0028 301C     		mov	r0, r6
 380              	.LVL53:
 381 002a 391C     		mov	r1, r7
 382 002c 1333     		add	r3, r3, #19
 383 002e FFF7FEFF 		bl	I2CComm_ReadBuffer
 384              	.LVL54:
 385 0032 041C     		mov	r4, r0
 386              	.LVL55:
 387 0034 01E0     		b	.L28
 388              	.L27:
 213:.\i2c_comm.c  **** 	}
 214:.\i2c_comm.c  **** 	else
 215:.\i2c_comm.c  **** 	{
 216:.\i2c_comm.c  **** 		I2C_I2CMasterSendStop();
 389              		.loc 1 216 0
 390 0036 FFF7FEFF 		bl	I2C_I2CMasterSendStop
 391              	.LVL56:
 392              	.L28:
 217:.\i2c_comm.c  **** 	}
 218:.\i2c_comm.c  **** 	
 219:.\i2c_comm.c  **** 	return Status;
 220:.\i2c_comm.c  **** }
 393              		.loc 1 220 0
 394 003a 201C     		mov	r0, r4
 395 003c 05B0     		add	sp, sp, #20
 396              		@ sp needed
 397              	.LVL57:
 398              	.LVL58:
 399 003e F0BD     		pop	{r4, r5, r6, r7, pc}
ARM GAS  C:\Users\ADMINI~1\AppData\Local\Temp\ccc8KVI9.s 			page 12


 400              		.cfi_endproc
 401              	.LFE41:
 402              		.size	Sensors_I2C_ReadRegister, .-Sensors_I2C_ReadRegister
 403              		.global	CyFiCommErrorCount
 404              		.global	KeypadCommErrorCount
 405              		.global	BrixCommErrorCount
 406              		.global	I2CTimeout
 407              		.global	CommErrorFlags
 408              		.bss
 409              		.type	CyFiCommErrorCount, %object
 410              		.size	CyFiCommErrorCount, 1
 411              	CyFiCommErrorCount:
 412 0000 00       		.space	1
 413              		.type	KeypadCommErrorCount, %object
 414              		.size	KeypadCommErrorCount, 1
 415              	KeypadCommErrorCount:
 416 0001 00       		.space	1
 417              		.type	BrixCommErrorCount, %object
 418              		.size	BrixCommErrorCount, 1
 419              	BrixCommErrorCount:
 420 0002 00       		.space	1
 421              		.type	I2CTimeout, %object
 422              		.size	I2CTimeout, 1
 423              	I2CTimeout:
 424 0003 00       		.space	1
 425              		.type	CommErrorFlags, %object
 426              		.size	CommErrorFlags, 1
 427              	CommErrorFlags:
 428 0004 00       		.space	1
 429              		.text
 430              	.Letext0:
 431              		.file 2 "Generated_Source\\PSoC4/cytypes.h"
 432              		.file 3 "./timeout.h"
 433              		.file 4 "Generated_Source\\PSoC4/I2C.h"
 434              		.file 5 "Generated_Source\\PSoC4/I2C_I2C.h"