ARM GAS  C:\Users\ADMINI~1\AppData\Local\Temp\ccPHzW0f.s 			page 1


   1              		.cpu cortex-m0
   2              		.fpu softvfp
   3              		.eabi_attribute 20, 1
   4              		.eabi_attribute 21, 1
   5              		.eabi_attribute 23, 3
   6              		.eabi_attribute 24, 1
   7              		.eabi_attribute 25, 1
   8              		.eabi_attribute 26, 1
   9              		.eabi_attribute 30, 4
  10              		.eabi_attribute 34, 0
  11              		.eabi_attribute 18, 4
  12              		.code	16
  13              		.file	"inv.c"
  14              		.text
  15              	.Ltext0:
  16              		.cfi_sections	.debug_frame
  17              		.section	.text.INVN_INT_InterruptHandler,"ax",%progbits
  18              		.align	1
  19              		.global	INVN_INT_InterruptHandler
  20              		.code	16
  21              		.thumb_func
  22              		.type	INVN_INT_InterruptHandler, %function
  23              	INVN_INT_InterruptHandler:
  24              	.LFB42:
  25              		.file 1 ".\\inv.c"
   1:.\inv.c       **** /* ========================================
   2:.\inv.c       ****  *
   3:.\inv.c       ****  * Copyright YOUR COMPANY, THE YEAR
   4:.\inv.c       ****  * All Rights Reserved
   5:.\inv.c       ****  * UNPUBLISHED, LICENSED SOFTWARE.
   6:.\inv.c       ****  *
   7:.\inv.c       ****  * CONFIDENTIAL AND PROPRIETARY INFORMATION
   8:.\inv.c       ****  * WHICH IS THE PROPERTY OF your company.
   9:.\inv.c       ****  *
  10:.\inv.c       ****  * ========================================
  11:.\inv.c       **** */
  12:.\inv.c       **** #include <project.h>
  13:.\inv.c       **** #include <inv.h>
  14:.\inv.c       **** #include ".\20648_driver\invn\inv_mems.h"
  15:.\inv.c       **** #include <BackBone.h>
  16:.\inv.c       **** 
  17:.\inv.c       **** static uint16 inv_flags = 0;
  18:.\inv.c       **** 
  19:.\inv.c       **** struct hal_s_ hal = { 0 };
  20:.\inv.c       **** 
  21:.\inv.c       **** int self_test_result = 0;
  22:.\inv.c       **** int dmp_bias[9] = { 0 };
  23:.\inv.c       **** 
  24:.\inv.c       **** unsigned short accel_data_was_set = 0;
  25:.\inv.c       **** unsigned short gyro_data_was_set = 0;
  26:.\inv.c       **** unsigned short raw_gyro_data_was_set = 0;
  27:.\inv.c       **** unsigned short compass_data_was_set = 0;
  28:.\inv.c       **** unsigned short raw_compass_data_was_set = 0;
  29:.\inv.c       **** unsigned short quat6_data_was_set = 0;
  30:.\inv.c       **** unsigned short quat9_data_was_set = 0;
  31:.\inv.c       **** unsigned short rv_quat_was_set = 0;
  32:.\inv.c       **** unsigned short gmrv_quat_was_set = 0;
ARM GAS  C:\Users\ADMINI~1\AppData\Local\Temp\ccPHzW0f.s 			page 2


  33:.\inv.c       **** unsigned short bac_data_was_set = 0;
  34:.\inv.c       **** unsigned short flip_data_was_set = 0;
  35:.\inv.c       **** unsigned short tilt_data_was_set = 0;
  36:.\inv.c       **** 
  37:.\inv.c       **** 
  38:.\inv.c       **** float grv_float[4];
  39:.\inv.c       **** signed long cube_grv[4] = { 0, 0, 0, 0 };
  40:.\inv.c       **** float accel_float[3];
  41:.\inv.c       **** float rv_float[4];
  42:.\inv.c       **** signed long cube_rv[4] = { 0, 0, 0, 0 };
  43:.\inv.c       **** float gyro_float[3];
  44:.\inv.c       **** float gyro_raw_float[3];
  45:.\inv.c       **** float gyro_bias_float[3];
  46:.\inv.c       **** long previous_bias[3];
  47:.\inv.c       **** float compass_float[3];
  48:.\inv.c       **** float compass_raw_float[3];
  49:.\inv.c       **** float compass_bias[3];
  50:.\inv.c       **** float gmrv_float[4];
  51:.\inv.c       **** signed long cube_gmrv[4] = { 0, 0, 0, 0 };
  52:.\inv.c       **** int accel_accuracy = 0;
  53:.\inv.c       **** int gyro_accuracy = 0;
  54:.\inv.c       **** int rv_accuracy = 0;
  55:.\inv.c       **** int compass_accuracy = 0;
  56:.\inv.c       **** int gmrv_accuracy = 0;
  57:.\inv.c       **** long long ts = 0;
  58:.\inv.c       **** signed long result_quat[4] = { 0, 0, 0, 0 };
  59:.\inv.c       **** int a_average[3] = { 0, 0, 0 };
  60:.\inv.c       **** int g_average[3] = { 0, 0, 0 };
  61:.\inv.c       **** unsigned long steps = 0;
  62:.\inv.c       **** uint16_t bac_state = 0;
  63:.\inv.c       **** uint8_t tilt_state = 0;
  64:.\inv.c       **** long bac_ts = 0;
  65:.\inv.c       **** uint16_t flip_pickup = 0;
  66:.\inv.c       **** uint8_t step_detected = 0;
  67:.\inv.c       **** float current_output_rate = 5;
  68:.\inv.c       **** 
  69:.\inv.c       **** signed char ACCEL_GYRO_ORIENTATION[] = {0,-1,0,1,0,0,0,0,1};
  70:.\inv.c       **** 
  71:.\inv.c       **** /* Change the COMPASS_SLAVE_ID to the correct ID of compass used. You can find the defines in inv_m
  72:.\inv.c       **** const unsigned char COMPASS_SLAVE_ID = HW_AK09912; 
  73:.\inv.c       **** 
  74:.\inv.c       **** /* Change COMPASS_CHIP_ADDR to 0x0C for ICM20698 which uses internal AKM 9916 */
  75:.\inv.c       **** /* Change COMPASS_CHIP_ADDR to 0x0E for other AKM 9912/9911/9913/8963*/
  76:.\inv.c       **** const unsigned char COMPASS_CHIP_ADDR = 0x0E;
  77:.\inv.c       **** const unsigned char PRESSURE_CHIP_ADDR = 0x00;
  78:.\inv.c       **** 
  79:.\inv.c       **** signed char COMPASS_ORIENTATION[] = {0,-1,0,1,0,0,0,0,1};
  80:.\inv.c       **** 
  81:.\inv.c       **** long SOFT_IRON_MATRIX[] = {1073741824,0,0,0,1073741824,0,0,0,1073741824};
  82:.\inv.c       **** 
  83:.\inv.c       **** char tst[INV_TST_LEN] = { 0 };
  84:.\inv.c       **** 
  85:.\inv.c       **** /* Every time new gyro data is available, this function is called in an
  86:.\inv.c       **** * ISR context. In this example, it sets a flag protecting the FIFO read
  87:.\inv.c       **** * function.
  88:.\inv.c       **** */
  89:.\inv.c       **** void gyro_data_ready_cb(void)
ARM GAS  C:\Users\ADMINI~1\AppData\Local\Temp\ccPHzW0f.s 			page 3


  90:.\inv.c       **** {
  91:.\inv.c       **** 	hal.new_gyro = 1;
  92:.\inv.c       **** }
  93:.\inv.c       **** 
  94:.\inv.c       **** CY_ISR(INVN_INT_InterruptHandler)
  95:.\inv.c       **** {
  26              		.loc 1 95 0
  27              		.cfi_startproc
  28              	.LBB4:
  29              	.LBB5:
  91:.\inv.c       **** }
  30              		.loc 1 91 0
  31 0000 0122     		mov	r2, #1
  32              	.LBE5:
  33              	.LBE4:
  34              		.loc 1 95 0
  35 0002 08B5     		push	{r3, lr}
  36              		.cfi_def_cfa_offset 8
  37              		.cfi_offset 3, -8
  38              		.cfi_offset 14, -4
  39              	.LBB8:
  40              	.LBB6:
  91:.\inv.c       **** }
  41              		.loc 1 91 0
  42 0004 024B     		ldr	r3, .L2
  43              	.LBE6:
  44              	.LBE8:
  96:.\inv.c       **** 	gyro_data_ready_cb();
  97:.\inv.c       **** 	INVN_INT_ClearInterrupt();
  98:.\inv.c       **** }
  45              		.loc 1 98 0
  46              		@ sp needed
  47              	.LBB9:
  48              	.LBB7:
  91:.\inv.c       **** }
  49              		.loc 1 91 0
  50 0006 1A73     		strb	r2, [r3, #12]
  51              	.LBE7:
  52              	.LBE9:
  97:.\inv.c       **** }
  53              		.loc 1 97 0
  54 0008 FFF7FEFF 		bl	INVN_INT_ClearInterrupt
  55              	.LVL0:
  56              		.loc 1 98 0
  57 000c 08BD     		pop	{r3, pc}
  58              	.L3:
  59 000e C046     		.align	2
  60              	.L2:
  61 0010 00000000 		.word	.LANCHOR0
  62              		.cfi_endproc
  63              	.LFE42:
  64              		.size	INVN_INT_InterruptHandler, .-INVN_INT_InterruptHandler
  65              		.section	.text.gyro_data_ready_cb,"ax",%progbits
  66              		.align	1
  67              		.global	gyro_data_ready_cb
  68              		.code	16
  69              		.thumb_func
ARM GAS  C:\Users\ADMINI~1\AppData\Local\Temp\ccPHzW0f.s 			page 4


  70              		.type	gyro_data_ready_cb, %function
  71              	gyro_data_ready_cb:
  72              	.LFB41:
  90:.\inv.c       **** 	hal.new_gyro = 1;
  73              		.loc 1 90 0
  74              		.cfi_startproc
  91:.\inv.c       **** }
  75              		.loc 1 91 0
  76 0000 0122     		mov	r2, #1
  77 0002 014B     		ldr	r3, .L5
  92:.\inv.c       **** 
  78              		.loc 1 92 0
  79              		@ sp needed
  91:.\inv.c       **** }
  80              		.loc 1 91 0
  81 0004 1A73     		strb	r2, [r3, #12]
  92:.\inv.c       **** 
  82              		.loc 1 92 0
  83 0006 7047     		bx	lr
  84              	.L6:
  85              		.align	2
  86              	.L5:
  87 0008 00000000 		.word	.LANCHOR0
  88              		.cfi_endproc
  89              	.LFE41:
  90              		.size	gyro_data_ready_cb, .-gyro_data_ready_cb
  91              		.section	.text.inv_get_status,"ax",%progbits
  92              		.align	1
  93              		.global	inv_get_status
  94              		.code	16
  95              		.thumb_func
  96              		.type	inv_get_status, %function
  97              	inv_get_status:
  98              	.LFB44:
  99:.\inv.c       **** 
 100:.\inv.c       **** inv_error_t inv_start(void)
 101:.\inv.c       **** {
 102:.\inv.c       ****     inv_error_t result;
 103:.\inv.c       **** 
 104:.\inv.c       **** 	/* Start I2C Master */
 105:.\inv.c       **** 	I2C_Start();
 106:.\inv.c       **** 	
 107:.\inv.c       **** 	/* Initialize the 60248 device */
 108:.\inv.c       **** 	// inv_set_chip_to_body_axis_quaternion(ACCEL_GYRO_ORIENTATION, 0.0);
 109:.\inv.c       **** 	result = inv_initialize_lower_driver(SERIAL_INTERFACE_I2C, 0);
 110:.\inv.c       **** 	if(result == 0)
 111:.\inv.c       **** 	{
 112:.\inv.c       **** 		inv_flags &= ~INV_ERROR_INIT;
 113:.\inv.c       **** 	}
 114:.\inv.c       **** 	else
 115:.\inv.c       **** 	{
 116:.\inv.c       **** 		inv_flags |= INV_ERROR_INIT;
 117:.\inv.c       **** 	}
 118:.\inv.c       **** 	
 119:.\inv.c       **** 	
 120:.\inv.c       **** 	/* Perform 60248 self test and update bias values */
 121:.\inv.c       **** 	result = inv_perform_selftest();
ARM GAS  C:\Users\ADMINI~1\AppData\Local\Temp\ccPHzW0f.s 			page 5


 122:.\inv.c       **** 	if(result == 0)
 123:.\inv.c       **** 	{
 124:.\inv.c       **** 		inv_flags &= ~INV_ERROR_SELF_TEST;
 125:.\inv.c       **** 	}
 126:.\inv.c       **** 	else
 127:.\inv.c       **** 	{
 128:.\inv.c       **** 		inv_flags |= INV_ERROR_SELF_TEST;
 129:.\inv.c       **** 	}
 130:.\inv.c       **** 
 131:.\inv.c       **** 	/* Enable accelerometer */
 132:.\inv.c       **** 	dmp_reset_fifo();
 133:.\inv.c       **** 	hal.report |= PRINT_ACCEL;
 134:.\inv.c       ****     inv_enable_sensor(ANDROID_SENSOR_ACCELEROMETER, !!(hal.report & PRINT_ACCEL));
 135:.\inv.c       ****     dmp_reset_odr_counters();
 136:.\inv.c       **** 	
 137:.\inv.c       **** 	/* Enable Gyroscope */
 138:.\inv.c       **** 	dmp_reset_fifo();
 139:.\inv.c       **** 	hal.report |= PRINT_GYRO;
 140:.\inv.c       ****     inv_enable_sensor(ANDROID_SENSOR_GYROSCOPE, !!(hal.report & PRINT_GYRO));
 141:.\inv.c       ****     dmp_reset_odr_counters();
 142:.\inv.c       **** 
 143:.\inv.c       **** 	/* Enable Step Detector */
 144:.\inv.c       **** 	dmp_reset_fifo();
 145:.\inv.c       **** 	hal.report |= PRINT_STEP_DETECTOR;
 146:.\inv.c       ****     inv_enable_sensor(ANDROID_SENSOR_STEP_COUNTER, !!(hal.report & PRINT_STEP_DETECTOR));
 147:.\inv.c       ****     dmp_reset_odr_counters();
 148:.\inv.c       **** 
 149:.\inv.c       **** 	/* Enable Step Counter */
 150:.\inv.c       **** 	dmp_reset_fifo();
 151:.\inv.c       **** 	hal.report |= PRINT_STEP_COUNTER;
 152:.\inv.c       ****     inv_enable_sensor(ANDROID_SENSOR_STEP_COUNTER, !!(hal.report & PRINT_STEP_COUNTER));
 153:.\inv.c       ****     dmp_reset_odr_counters();
 154:.\inv.c       **** 
 155:.\inv.c       **** //	dmp_reset_fifo();
 156:.\inv.c       **** //	hal.report |= PRINT_TILT;
 157:.\inv.c       **** //	inv_enable_sensor(ANDROID_SENSOR_WAKEUP_TILT_DETECTOR, !!(hal.report & PRINT_TILT));
 158:.\inv.c       **** //	dmp_reset_odr_counters();
 159:.\inv.c       **** 
 160:.\inv.c       **** 	/* Set output rate */
 161:.\inv.c       **** 	set_output_rates(5);
 162:.\inv.c       **** 	
 163:.\inv.c       **** 	/* Set up the INT1 pin ISR */ 
 164:.\inv.c       **** 	isr_INVN_INT_StartEx(INVN_INT_InterruptHandler);
 165:.\inv.c       **** 	
 166:.\inv.c       **** 	return result;
 167:.\inv.c       **** }
 168:.\inv.c       **** 
 169:.\inv.c       **** uint16 inv_get_status(void)
 170:.\inv.c       **** {
  99              		.loc 1 170 0
 100              		.cfi_startproc
 171:.\inv.c       **** 	return inv_flags;
 101              		.loc 1 171 0
 102 0000 014B     		ldr	r3, .L8
 172:.\inv.c       **** }
 103              		.loc 1 172 0
 104              		@ sp needed
ARM GAS  C:\Users\ADMINI~1\AppData\Local\Temp\ccPHzW0f.s 			page 6


 171:.\inv.c       **** 	return inv_flags;
 105              		.loc 1 171 0
 106 0002 188A     		ldrh	r0, [r3, #16]
 107              		.loc 1 172 0
 108 0004 7047     		bx	lr
 109              	.L9:
 110 0006 C046     		.align	2
 111              	.L8:
 112 0008 00000000 		.word	.LANCHOR0
 113              		.cfi_endproc
 114              	.LFE44:
 115              		.size	inv_get_status, .-inv_get_status
 116              		.global	__aeabi_fdiv
 117              		.global	__aeabi_f2uiz
 118              		.section	.text.set_output_rates,"ax",%progbits
 119              		.align	1
 120              		.global	set_output_rates
 121              		.code	16
 122              		.thumb_func
 123              		.type	set_output_rates, %function
 124              	set_output_rates:
 125              	.LFB45:
 173:.\inv.c       **** 
 174:.\inv.c       **** inv_error_t set_output_rates(float rate)
 175:.\inv.c       **** {
 126              		.loc 1 175 0
 127              		.cfi_startproc
 128              	.LVL1:
 129 0000 F8B5     		push	{r3, r4, r5, r6, r7, lr}
 130              		.cfi_def_cfa_offset 24
 131              		.cfi_offset 3, -24
 132              		.cfi_offset 4, -20
 133              		.cfi_offset 5, -16
 134              		.cfi_offset 6, -12
 135              		.cfi_offset 7, -8
 136              		.cfi_offset 14, -4
 176:.\inv.c       **** 	unsigned short base_rate = 1125; 
 177:.\inv.c       **** 	inv_error_t result=0;
 178:.\inv.c       **** 	
 179:.\inv.c       **** 	dmp_reset_fifo();
 180:.\inv.c       **** 	
 181:.\inv.c       **** 	if (hal.report & PRINT_ACCEL)
 137              		.loc 1 181 0
 138 0002 0127     		mov	r7, #1
 175:.\inv.c       **** 	unsigned short base_rate = 1125; 
 139              		.loc 1 175 0
 140 0004 061C     		add	r6, r0, #0
 179:.\inv.c       **** 	
 141              		.loc 1 179 0
 142 0006 FFF7FEFF 		bl	dmp_reset_fifo
 143              	.LVL2:
 144              		.loc 1 181 0
 145 000a 2E4D     		ldr	r5, .L35
 177:.\inv.c       **** 	
 146              		.loc 1 177 0
 147 000c 0024     		mov	r4, #0
 148              		.loc 1 181 0
ARM GAS  C:\Users\ADMINI~1\AppData\Local\Temp\ccPHzW0f.s 			page 7


 149 000e 2B68     		ldr	r3, [r5]
 150 0010 3B42     		tst	r3, r7
 151 0012 0AD0     		beq	.L11
 182:.\inv.c       **** 	{
 183:.\inv.c       **** 		result |= inv_set_odr(ANDROID_SENSOR_ACCELEROMETER, (unsigned short)(base_rate / rate));
 152              		.loc 1 183 0
 153 0014 311C     		add	r1, r6, #0
 154 0016 2C48     		ldr	r0, .L35+4
 155 0018 FFF7FEFF 		bl	__aeabi_fdiv
 156              	.LVL3:
 157 001c FFF7FEFF 		bl	__aeabi_f2uiz
 158              	.LVL4:
 159 0020 81B2     		uxth	r1, r0
 160 0022 381C     		mov	r0, r7
 161 0024 FFF7FEFF 		bl	inv_set_odr
 162              	.LVL5:
 163 0028 041C     		mov	r4, r0
 164              	.LVL6:
 165              	.L11:
 184:.\inv.c       **** 	}
 185:.\inv.c       **** 	
 186:.\inv.c       **** 	if (hal.report & PRINT_GYRO)
 166              		.loc 1 186 0
 167 002a 2B68     		ldr	r3, [r5]
 168 002c 9B07     		lsl	r3, r3, #30
 169 002e 0AD5     		bpl	.L12
 187:.\inv.c       **** 	{
 188:.\inv.c       **** 		result |= inv_set_odr(ANDROID_SENSOR_GYROSCOPE, (unsigned short)(base_rate / rate));
 170              		.loc 1 188 0
 171 0030 311C     		add	r1, r6, #0
 172 0032 2548     		ldr	r0, .L35+4
 173 0034 FFF7FEFF 		bl	__aeabi_fdiv
 174              	.LVL7:
 175 0038 FFF7FEFF 		bl	__aeabi_f2uiz
 176              	.LVL8:
 177 003c 81B2     		uxth	r1, r0
 178 003e 0420     		mov	r0, #4
 179 0040 FFF7FEFF 		bl	inv_set_odr
 180              	.LVL9:
 181 0044 0443     		orr	r4, r0
 182              	.LVL10:
 183              	.L12:
 189:.\inv.c       **** 	}
 190:.\inv.c       **** 	
 191:.\inv.c       **** 	if (hal.report & PRINT_RAW_GYRO)
 184              		.loc 1 191 0
 185 0046 2B68     		ldr	r3, [r5]
 186 0048 5B07     		lsl	r3, r3, #29
 187 004a 0AD5     		bpl	.L13
 192:.\inv.c       **** 	{
 193:.\inv.c       **** 		result |= inv_set_odr(ANDROID_SENSOR_GYROSCOPE_UNCALIBRATED, (unsigned short)(base_rate / rate));
 188              		.loc 1 193 0
 189 004c 311C     		add	r1, r6, #0
 190 004e 1E48     		ldr	r0, .L35+4
 191 0050 FFF7FEFF 		bl	__aeabi_fdiv
 192              	.LVL11:
 193 0054 FFF7FEFF 		bl	__aeabi_f2uiz
ARM GAS  C:\Users\ADMINI~1\AppData\Local\Temp\ccPHzW0f.s 			page 8


 194              	.LVL12:
 195 0058 81B2     		uxth	r1, r0
 196 005a 1020     		mov	r0, #16
 197 005c FFF7FEFF 		bl	inv_set_odr
 198              	.LVL13:
 199 0060 0443     		orr	r4, r0
 200              	.LVL14:
 201              	.L13:
 194:.\inv.c       **** 	}
 195:.\inv.c       **** 	
 196:.\inv.c       **** //	if (hal.report & PRINT_GRV)
 197:.\inv.c       **** //	{
 198:.\inv.c       **** //		result |= inv_set_odr(ANDROID_SENSOR_GAME_ROTATION_VECTOR, (unsigned short)(base_rate / rate));
 199:.\inv.c       **** //	}
 200:.\inv.c       **** //	
 201:.\inv.c       **** //	if (hal.report & PRINT_CUBE_GRV)
 202:.\inv.c       **** //	{
 203:.\inv.c       **** //		result |= inv_set_odr(ANDROID_SENSOR_GAME_ROTATION_VECTOR, (unsigned short)(base_rate / rate));
 204:.\inv.c       **** //	}
 205:.\inv.c       **** //	
 206:.\inv.c       **** 	if (hal.report & PRINT_STEP_DETECTOR)
 202              		.loc 1 206 0
 203 0062 2B68     		ldr	r3, [r5]
 204 0064 1B05     		lsl	r3, r3, #20
 205 0066 0AD5     		bpl	.L14
 207:.\inv.c       **** 	{
 208:.\inv.c       **** 		result |= inv_set_odr(ANDROID_SENSOR_STEP_DETECTOR, (unsigned short)(base_rate / rate));
 206              		.loc 1 208 0
 207 0068 311C     		add	r1, r6, #0
 208 006a 1748     		ldr	r0, .L35+4
 209 006c FFF7FEFF 		bl	__aeabi_fdiv
 210              	.LVL15:
 211 0070 FFF7FEFF 		bl	__aeabi_f2uiz
 212              	.LVL16:
 213 0074 81B2     		uxth	r1, r0
 214 0076 1220     		mov	r0, #18
 215 0078 FFF7FEFF 		bl	inv_set_odr
 216              	.LVL17:
 217 007c 0443     		orr	r4, r0
 218              	.LVL18:
 219              	.L14:
 209:.\inv.c       **** 	}
 210:.\inv.c       **** 	
 211:.\inv.c       **** //	if (hal.report & PRINT_SMD)
 212:.\inv.c       **** //	{
 213:.\inv.c       **** //		result |= inv_set_odr(ANDROID_SENSOR_WAKEUP_SIGNIFICANT_MOTION, (unsigned short)(base_rate / ra
 214:.\inv.c       **** //	}
 215:.\inv.c       **** //	
 216:.\inv.c       **** 	if (hal.report & PRINT_STEP_COUNTER)
 220              		.loc 1 216 0
 221 007e 2B68     		ldr	r3, [r5]
 222 0080 5B05     		lsl	r3, r3, #21
 223 0082 0AD5     		bpl	.L15
 217:.\inv.c       **** 	{
 218:.\inv.c       **** 		result |= inv_set_odr(ANDROID_SENSOR_STEP_COUNTER, (unsigned short)(base_rate / rate));
 224              		.loc 1 218 0
 225 0084 311C     		add	r1, r6, #0
ARM GAS  C:\Users\ADMINI~1\AppData\Local\Temp\ccPHzW0f.s 			page 9


 226 0086 1048     		ldr	r0, .L35+4
 227 0088 FFF7FEFF 		bl	__aeabi_fdiv
 228              	.LVL19:
 229 008c FFF7FEFF 		bl	__aeabi_f2uiz
 230              	.LVL20:
 231 0090 81B2     		uxth	r1, r0
 232 0092 1320     		mov	r0, #19
 233 0094 FFF7FEFF 		bl	inv_set_odr
 234              	.LVL21:
 235 0098 0443     		orr	r4, r0
 236              	.LVL22:
 237              	.L15:
 219:.\inv.c       **** 	}
 220:.\inv.c       **** 	
 221:.\inv.c       **** //	if (hal.report & PRINT_LINEAR_ACCEL)
 222:.\inv.c       **** //	{
 223:.\inv.c       **** //		result |= inv_set_odr(ANDROID_SENSOR_LINEAR_ACCELERATION, (unsigned short)(base_rate / rate));
 224:.\inv.c       **** //	}
 225:.\inv.c       **** //	
 226:.\inv.c       **** //	if (hal.report & PRINT_GRAVITY)
 227:.\inv.c       **** //	{
 228:.\inv.c       **** //		result |= inv_set_odr(ANDROID_SENSOR_GRAVITY, (unsigned short)(base_rate / rate));
 229:.\inv.c       **** //	}
 230:.\inv.c       **** //	
 231:.\inv.c       **** //	if (hal.report & PRINT_COMPASS)
 232:.\inv.c       **** //	{
 233:.\inv.c       **** //		result |= inv_set_odr(ANDROID_SENSOR_GEOMAGNETIC_FIELD, (unsigned short)(base_rate / rate));
 234:.\inv.c       **** //	}
 235:.\inv.c       **** //	
 236:.\inv.c       **** //	if (hal.report & PRINT_RAW_COMPASS)
 237:.\inv.c       **** //	{
 238:.\inv.c       **** //		result |= inv_set_odr(ANDROID_SENSOR_MAGNETIC_FIELD_UNCALIBRATED, (unsigned short)(base_rate / 
 239:.\inv.c       **** //	}
 240:.\inv.c       **** //	
 241:.\inv.c       **** //	if (hal.report & PRINT_RV)
 242:.\inv.c       **** //	{
 243:.\inv.c       **** //		result |= inv_set_odr(ANDROID_SENSOR_ROTATION_VECTOR, (unsigned short)(base_rate / rate));
 244:.\inv.c       **** //	}
 245:.\inv.c       **** //	
 246:.\inv.c       **** //	if (hal.report & PRINT_GEOMAG)
 247:.\inv.c       **** //	{
 248:.\inv.c       **** //		result |= inv_set_odr(ANDROID_SENSOR_GEOMAGNETIC_ROTATION_VECTOR, (unsigned short)(base_rate / 
 249:.\inv.c       **** //	}
 250:.\inv.c       **** //	
 251:.\inv.c       **** //	if (hal.report & PRINT_BAC)
 252:.\inv.c       **** //	{
 253:.\inv.c       **** //		result |= inv_set_odr(ANDROID_SENSOR_ACTIVITY_CLASSIFICATON, (unsigned short)(base_rate / rate)
 254:.\inv.c       **** //	}
 255:.\inv.c       **** //	
 256:.\inv.c       **** 	if (hal.report & PRINT_TILT)
 238              		.loc 1 256 0
 239 009a 2B68     		ldr	r3, [r5]
 240 009c 5B02     		lsl	r3, r3, #9
 241 009e 0AD5     		bpl	.L16
 257:.\inv.c       **** 	{
 258:.\inv.c       **** 		result |= inv_set_odr(ANDROID_SENSOR_WAKEUP_TILT_DETECTOR, (unsigned short)(base_rate / rate));
 242              		.loc 1 258 0
ARM GAS  C:\Users\ADMINI~1\AppData\Local\Temp\ccPHzW0f.s 			page 10


 243 00a0 311C     		add	r1, r6, #0
 244 00a2 0948     		ldr	r0, .L35+4
 245 00a4 FFF7FEFF 		bl	__aeabi_fdiv
 246              	.LVL23:
 247 00a8 FFF7FEFF 		bl	__aeabi_f2uiz
 248              	.LVL24:
 249 00ac 81B2     		uxth	r1, r0
 250 00ae 2920     		mov	r0, #41
 251 00b0 FFF7FEFF 		bl	inv_set_odr
 252              	.LVL25:
 253 00b4 0443     		orr	r4, r0
 254              	.LVL26:
 255              	.L16:
 259:.\inv.c       **** 	}
 260:.\inv.c       **** //	
 261:.\inv.c       **** //	if (hal.report & PRINT_FLIP_PICKUP)
 262:.\inv.c       **** //	{
 263:.\inv.c       **** //		result |= inv_set_odr(ANDROID_SENSOR_FLIP_PICKUP, (unsigned short)(base_rate / rate));
 264:.\inv.c       **** //	}
 265:.\inv.c       **** //	
 266:.\inv.c       **** //	if (hal.report & PRINT_CUBE_RV)
 267:.\inv.c       **** //	{
 268:.\inv.c       **** //		result |= inv_set_odr(ANDROID_SENSOR_ROTATION_VECTOR, (unsigned short)(base_rate / rate));
 269:.\inv.c       **** //	}
 270:.\inv.c       **** //	
 271:.\inv.c       **** //	if (hal.report & PRINT_CUBE_GEOMAG)
 272:.\inv.c       **** //	{
 273:.\inv.c       **** //		result |= inv_set_odr(ANDROID_SENSOR_GEOMAGNETIC_ROTATION_VECTOR, (unsigned short)(base_rate / 
 274:.\inv.c       **** //	}
 275:.\inv.c       **** //	
 276:.\inv.c       **** //	if (hal.report & PRINT_ORIENT)
 277:.\inv.c       **** //	{
 278:.\inv.c       **** //		result |= inv_set_odr(ANDROID_SENSOR_ORIENTATION, (unsigned short)(base_rate / rate));
 279:.\inv.c       **** //	}
 280:.\inv.c       **** 	
 281:.\inv.c       **** 	current_output_rate = rate;
 256              		.loc 1 281 0
 257 00b6 054B     		ldr	r3, .L35+8
 282:.\inv.c       **** 	
 283:.\inv.c       **** 	dmp_reset_odr_counters();
 284:.\inv.c       **** 	
 285:.\inv.c       **** 	return result;
 286:.\inv.c       **** }
 258              		.loc 1 286 0
 259              		@ sp needed
 281:.\inv.c       **** 	
 260              		.loc 1 281 0
 261 00b8 1E60     		str	r6, [r3]
 283:.\inv.c       **** 	
 262              		.loc 1 283 0
 263 00ba FFF7FEFF 		bl	dmp_reset_odr_counters
 264              	.LVL27:
 265              		.loc 1 286 0
 266 00be 201C     		mov	r0, r4
 267              	.LVL28:
 268              	.LVL29:
 269 00c0 F8BD     		pop	{r3, r4, r5, r6, r7, pc}
ARM GAS  C:\Users\ADMINI~1\AppData\Local\Temp\ccPHzW0f.s 			page 11


 270              	.L36:
 271 00c2 C046     		.align	2
 272              	.L35:
 273 00c4 00000000 		.word	.LANCHOR0
 274 00c8 00A08C44 		.word	1150066688
 275 00cc 00000000 		.word	.LANCHOR1
 276              		.cfi_endproc
 277              	.LFE45:
 278              		.size	set_output_rates, .-set_output_rates
 279              		.section	.text.handle_char_input,"ax",%progbits
 280              		.align	1
 281              		.global	handle_char_input
 282              		.code	16
 283              		.thumb_func
 284              		.type	handle_char_input, %function
 285              	handle_char_input:
 286              	.LFB46:
 287:.\inv.c       **** 
 288:.\inv.c       **** int handle_char_input(char c)
 289:.\inv.c       **** {
 287              		.loc 1 289 0
 288              		.cfi_startproc
 289              	.LVL30:
 290:.\inv.c       **** //#if (MEMS_CHIP != HW_ICM20609)
 291:.\inv.c       **** //        inv_error_t result;
 292:.\inv.c       **** //#endif
 293:.\inv.c       **** //
 294:.\inv.c       **** //	switch (c)
 295:.\inv.c       **** //	{
 296:.\inv.c       **** //	case 'a':
 297:.\inv.c       **** //		dmp_reset_fifo();
 298:.\inv.c       **** //		hal.report ^= PRINT_ACCEL;
 299:.\inv.c       **** //                inv_enable_sensor(ANDROID_SENSOR_ACCELEROMETER, !!(hal.report & PRINT_ACCEL));
 300:.\inv.c       **** //                dmp_reset_odr_counters();
 301:.\inv.c       **** //                if(hal.report & PRINT_ACCEL) set_output_rates(current_output_rate);
 302:.\inv.c       **** //		//INV_SPRINTF(tst, INV_TST_LEN, "ACCEL....output toggled, now is: %s.\r\n", (hal.report & PRINT
 303:.\inv.c       **** //		break;
 304:.\inv.c       **** //	case 'g':
 305:.\inv.c       **** //		dmp_reset_fifo();
 306:.\inv.c       **** //		hal.report ^= PRINT_GYRO;
 307:.\inv.c       **** //		inv_enable_sensor(ANDROID_SENSOR_GYROSCOPE, !!(hal.report & PRINT_GYRO));
 308:.\inv.c       **** //                dmp_reset_odr_counters();
 309:.\inv.c       **** //                if(hal.report & PRINT_GYRO) set_output_rates(current_output_rate);
 310:.\inv.c       **** //		//INV_SPRINTF(tst, INV_TST_LEN, "GYRO....output toggled, now is: %s.\r\n", (hal.report & PRINT_
 311:.\inv.c       **** //		break;
 312:.\inv.c       **** //	case 'G':
 313:.\inv.c       **** //		dmp_reset_fifo();
 314:.\inv.c       **** //		hal.report ^= PRINT_RAW_GYRO;
 315:.\inv.c       **** //		inv_enable_sensor(ANDROID_SENSOR_GYROSCOPE_UNCALIBRATED, !!(hal.report & PRINT_RAW_GYRO));
 316:.\inv.c       **** //                dmp_reset_odr_counters();
 317:.\inv.c       **** //                if(hal.report & PRINT_RAW_GYRO) set_output_rates(current_output_rate);
 318:.\inv.c       **** //		//INV_SPRINTF(tst, INV_TST_LEN, "RAW GYRO....output toggled, now is: %s.\r\n", (hal.report & PR
 319:.\inv.c       **** //		break;
 320:.\inv.c       **** //#if (MEMS_CHIP != HW_ICM20609)
 321:.\inv.c       **** //        case 'c':
 322:.\inv.c       **** //		dmp_reset_fifo();
 323:.\inv.c       **** //		hal.report ^= PRINT_COMPASS;
ARM GAS  C:\Users\ADMINI~1\AppData\Local\Temp\ccPHzW0f.s 			page 12


 324:.\inv.c       **** //		inv_enable_sensor(ANDROID_SENSOR_GEOMAGNETIC_FIELD, !!(hal.report & PRINT_COMPASS));
 325:.\inv.c       **** //                dmp_reset_odr_counters();
 326:.\inv.c       **** //                if(hal.report & PRINT_COMPASS) set_output_rates(current_output_rate);
 327:.\inv.c       **** //		if (hal.report & PRINT_COMPASS)
 328:.\inv.c       **** //			result = inv_resume_akm();
 329:.\inv.c       **** //		else
 330:.\inv.c       **** //			result = inv_suspend_akm();
 331:.\inv.c       **** //		//if (result)
 332:.\inv.c       **** //		//	print_data_console("Compass resume/suspend error \n");
 333:.\inv.c       **** //		//INV_SPRINTF(tst, INV_TST_LEN, "Compass....output toggled, now is: %s.\r\n", (hal.report & PRI
 334:.\inv.c       **** //		break;
 335:.\inv.c       **** //	case 'C':
 336:.\inv.c       **** //		dmp_reset_fifo();
 337:.\inv.c       **** //		hal.report ^= PRINT_RAW_COMPASS;
 338:.\inv.c       **** //		inv_enable_sensor(ANDROID_SENSOR_MAGNETIC_FIELD_UNCALIBRATED, !!(hal.report & PRINT_RAW_COMPASS
 339:.\inv.c       **** //                dmp_reset_odr_counters();
 340:.\inv.c       **** //                if(hal.report & PRINT_RAW_COMPASS) set_output_rates(current_output_rate);
 341:.\inv.c       **** //		if (hal.report & PRINT_RAW_COMPASS)
 342:.\inv.c       **** //			result = inv_resume_akm();
 343:.\inv.c       **** //		else
 344:.\inv.c       **** //			result = inv_suspend_akm();
 345:.\inv.c       **** //		//if (result)
 346:.\inv.c       **** //		//	print_data_console("Compass resume/suspend error \n");
 347:.\inv.c       **** //		//INV_SPRINTF(tst, INV_TST_LEN, "Raw Compass....output toggled, now is: %s.\r\n", (hal.report &
 348:.\inv.c       **** //		break;
 349:.\inv.c       **** //#endif
 350:.\inv.c       **** //	case 'r':
 351:.\inv.c       **** //		dmp_reset_fifo();
 352:.\inv.c       **** //		hal.report ^= PRINT_GRV;
 353:.\inv.c       **** //		inv_enable_sensor(ANDROID_SENSOR_GAME_ROTATION_VECTOR, !!(hal.report & PRINT_GRV));
 354:.\inv.c       **** //                dmp_reset_odr_counters();
 355:.\inv.c       **** //                if(hal.report & PRINT_GRV) set_output_rates(current_output_rate);
 356:.\inv.c       **** //		//INV_SPRINTF(tst, INV_TST_LEN, "Game RV....output toggled, now is: %s.\r\n", (hal.report & PRI
 357:.\inv.c       **** //        //        print_command_console(tst);
 358:.\inv.c       **** //                break;
 359:.\inv.c       **** //        case 'q':
 360:.\inv.c       **** //		dmp_reset_fifo();
 361:.\inv.c       **** //		hal.report ^= PRINT_CUBE_GRV;
 362:.\inv.c       **** //		inv_enable_sensor(ANDROID_SENSOR_GAME_ROTATION_VECTOR, !!(hal.report & PRINT_CUBE_GRV));
 363:.\inv.c       **** //                dmp_reset_odr_counters();
 364:.\inv.c       **** //		if(hal.report & PRINT_CUBE_GRV) set_output_rates(current_output_rate);
 365:.\inv.c       **** //		//INV_SPRINTF(tst, INV_TST_LEN, "Cube Game RV....output toggled, now is: %s.\r\n", (hal.report 
 366:.\inv.c       **** //		//print_command_console(tst);
 367:.\inv.c       **** //		break;
 368:.\inv.c       **** //        
 369:.\inv.c       **** //		case 'd':
 370:.\inv.c       **** //		dmp_reset_fifo();
 371:.\inv.c       **** //		hal.report ^= PRINT_STEP_DETECTOR;
 372:.\inv.c       **** //		inv_enable_sensor(ANDROID_SENSOR_STEP_DETECTOR, !!(hal.report & PRINT_STEP_DETECTOR));
 373:.\inv.c       **** //                dmp_reset_odr_counters();
 374:.\inv.c       **** //#if (MEMS_CHIP == HW_ICM20609)
 375:.\inv.c       **** //                if(hal.report & PRINT_STEP_DETECTOR) set_output_rates(50);
 376:.\inv.c       **** //#elif (MEMS_CHIP == HW_ICM20630)
 377:.\inv.c       **** //                if(hal.report & PRINT_STEP_DETECTOR) set_output_rates(51);
 378:.\inv.c       **** //#else                 
 379:.\inv.c       **** //		// pedometer always runs at half the rate of BAC, to run pedometer at 56Hz, run BAC at 112Hz as
 380:.\inv.c       **** //		if(hal.report & PRINT_STEP_DETECTOR) set_output_rates(112.5);
ARM GAS  C:\Users\ADMINI~1\AppData\Local\Temp\ccPHzW0f.s 			page 13


 381:.\inv.c       **** //#endif
 382:.\inv.c       **** //		//INV_SPRINTF(tst, INV_TST_LEN, "Step Detector....output toggled, now is: %s.\r\n", (hal.report
 383:.\inv.c       **** //		//print_command_console(tst);
 384:.\inv.c       **** //		break;
 385:.\inv.c       **** //	case 'm':
 386:.\inv.c       **** //		dmp_reset_fifo();
 387:.\inv.c       **** //		hal.report ^= PRINT_SMD;
 388:.\inv.c       **** //		inv_enable_sensor(ANDROID_SENSOR_WAKEUP_SIGNIFICANT_MOTION, !!(hal.report & PRINT_SMD));
 389:.\inv.c       **** //                dmp_reset_odr_counters();
 390:.\inv.c       **** //#if (MEMS_CHIP == HW_ICM20609)
 391:.\inv.c       **** //                if(hal.report & PRINT_SMD) set_output_rates(50);
 392:.\inv.c       **** //#else               
 393:.\inv.c       **** //		// pedometer always runs at half the rate of BAC, to run pedometer at 56Hz, run BAC at 112Hz as
 394:.\inv.c       **** //		if(hal.report & PRINT_SMD) set_output_rates(112.5);
 395:.\inv.c       **** //#endif
 396:.\inv.c       **** //		//INV_SPRINTF(tst, INV_TST_LEN, "SMD....output toggled, now is: %s.\r\n", (hal.report & PRINT_S
 397:.\inv.c       **** //		//print_command_console(tst);
 398:.\inv.c       **** //		break;
 399:.\inv.c       **** //
 400:.\inv.c       **** //	case 'p':
 401:.\inv.c       **** //		dmp_reset_fifo();
 402:.\inv.c       **** //		hal.report ^= PRINT_STEP_COUNTER;
 403:.\inv.c       **** //		inv_enable_sensor(ANDROID_SENSOR_STEP_COUNTER, !!(hal.report & PRINT_STEP_COUNTER));
 404:.\inv.c       **** //                dmp_reset_odr_counters();
 405:.\inv.c       **** //#if (MEMS_CHIP == HW_ICM20609)
 406:.\inv.c       **** //                if(hal.report & PRINT_STEP_COUNTER) set_output_rates(50);
 407:.\inv.c       **** //#else                 
 408:.\inv.c       **** //		// pedometer always runs at half the rate of BAC, to run pedometer at 56Hz, run BAC at 112Hz as
 409:.\inv.c       **** //		if(hal.report & PRINT_STEP_COUNTER) set_output_rates(112.5);
 410:.\inv.c       **** //#endif
 411:.\inv.c       **** //		//INV_SPRINTF(tst, INV_TST_LEN, "Step Counter....output toggled, now is: %s.\r\n", (hal.report 
 412:.\inv.c       **** //		//print_command_console(tst);
 413:.\inv.c       **** //		break;
 414:.\inv.c       **** //#if (MEMS_CHIP != HW_ICM20609)
 415:.\inv.c       **** //	case 'R':
 416:.\inv.c       **** //		dmp_reset_fifo();
 417:.\inv.c       **** //		hal.report ^= PRINT_RV;
 418:.\inv.c       **** //		inv_enable_sensor(ANDROID_SENSOR_ROTATION_VECTOR, !!(hal.report & PRINT_RV));
 419:.\inv.c       **** //                dmp_reset_odr_counters();
 420:.\inv.c       **** //		if(hal.report & PRINT_RV) set_output_rates(current_output_rate);
 421:.\inv.c       **** //		//INV_SPRINTF(tst, INV_TST_LEN, "RV....output toggled, now is: %s.\r\n", (hal.report & PRINT_RV
 422:.\inv.c       **** //		//print_command_console(tst);
 423:.\inv.c       **** //		break;
 424:.\inv.c       **** //	case 'e':
 425:.\inv.c       **** //		dmp_reset_fifo();
 426:.\inv.c       **** //		hal.report ^= PRINT_GEOMAG;
 427:.\inv.c       **** //		inv_enable_sensor(ANDROID_SENSOR_GEOMAGNETIC_ROTATION_VECTOR, !!(hal.report & PRINT_GEOMAG));
 428:.\inv.c       **** //                dmp_reset_odr_counters();
 429:.\inv.c       **** //		if(hal.report & PRINT_GEOMAG) set_output_rates(current_output_rate);
 430:.\inv.c       **** //		//INV_SPRINTF(tst, INV_TST_LEN, "GeoMAG RV....output toggled, now is: %s.\r\n", (hal.report & P
 431:.\inv.c       **** //		//print_command_console(tst);
 432:.\inv.c       **** //		break;
 433:.\inv.c       **** //#if (MEMS_CHIP != HW_ICM20630)
 434:.\inv.c       **** //	case 'b':
 435:.\inv.c       **** //		dmp_reset_fifo();
 436:.\inv.c       **** //                if(!(hal.report & PRINT_BAC))
 437:.\inv.c       **** //                    dmp_reset_bac_states();
ARM GAS  C:\Users\ADMINI~1\AppData\Local\Temp\ccPHzW0f.s 			page 14


 438:.\inv.c       **** //		hal.report ^= PRINT_BAC;
 439:.\inv.c       **** //		inv_enable_sensor(ANDROID_SENSOR_ACTIVITY_CLASSIFICATON, !!(hal.report & PRINT_BAC));
 440:.\inv.c       **** //                dmp_reset_odr_counters();
 441:.\inv.c       **** //		if(hal.report & PRINT_BAC) set_output_rates(112.5);
 442:.\inv.c       **** //		//INV_SPRINTF(tst, INV_TST_LEN, "BAC....output toggled, now is: %s.\r\n", (hal.report & PRINT_B
 443:.\inv.c       **** //		break;
 444:.\inv.c       **** //	case 'T':
 445:.\inv.c       **** //		dmp_reset_fifo();
 446:.\inv.c       **** //		hal.report ^= PRINT_TILT;
 447:.\inv.c       **** //		inv_enable_sensor(ANDROID_SENSOR_WAKEUP_TILT_DETECTOR, !!(hal.report & PRINT_TILT));
 448:.\inv.c       **** //                dmp_reset_odr_counters();
 449:.\inv.c       **** //		if(hal.report & PRINT_TILT) set_output_rates(112.5);
 450:.\inv.c       **** //		//INV_SPRINTF(tst, INV_TST_LEN, "Tilt....output toggled, now is: %s.\r\n", (hal.report & PRINT_
 451:.\inv.c       **** //		break;
 452:.\inv.c       **** //	case 'F':
 453:.\inv.c       **** //		dmp_reset_fifo();
 454:.\inv.c       **** //		hal.report ^= PRINT_FLIP_PICKUP;
 455:.\inv.c       **** //		inv_enable_sensor(ANDROID_SENSOR_FLIP_PICKUP, !!(hal.report & PRINT_FLIP_PICKUP));
 456:.\inv.c       **** //                dmp_reset_odr_counters();
 457:.\inv.c       **** //		if(hal.report & PRINT_FLIP_PICKUP) set_output_rates(112.5);
 458:.\inv.c       **** //		//INV_SPRINTF(tst, INV_TST_LEN, "Flip Pickup....output toggled, now is: %s.\r\n", (hal.report &
 459:.\inv.c       **** //		break;
 460:.\inv.c       **** //#endif
 461:.\inv.c       **** //#endif            
 462:.\inv.c       **** //	
 463:.\inv.c       **** //        case '0':
 464:.\inv.c       **** //          set_output_rates(1);
 465:.\inv.c       **** //          current_output_rate = 1;
 466:.\inv.c       **** //          break;
 467:.\inv.c       **** //        case '1':
 468:.\inv.c       **** //          set_output_rates(5);
 469:.\inv.c       **** //          current_output_rate = 5;
 470:.\inv.c       **** //          break;
 471:.\inv.c       **** //        case '2':
 472:.\inv.c       **** //          set_output_rates(15);
 473:.\inv.c       **** //          current_output_rate = 15;
 474:.\inv.c       **** //          break;
 475:.\inv.c       **** //        case '3':
 476:.\inv.c       **** //#if (MEMS_CHIP==HW_ICM20609)
 477:.\inv.c       **** //          set_output_rates(50);
 478:.\inv.c       **** //          current_output_rate = 50;
 479:.\inv.c       **** //#elif (MEMS_CHIP==HW_ICM20648)
 480:.\inv.c       **** //          set_output_rates(30);
 481:.\inv.c       **** //          current_output_rate = 30;
 482:.\inv.c       **** //#endif
 483:.\inv.c       **** //          break;
 484:.\inv.c       **** //        case '4':
 485:.\inv.c       **** //#if (MEMS_CHIP==HW_ICM20609)
 486:.\inv.c       **** //          set_output_rates(100);
 487:.\inv.c       **** //          current_output_rate = 100;
 488:.\inv.c       **** //#elif (MEMS_CHIP==HW_ICM20648)
 489:.\inv.c       **** //          set_output_rates(51);
 490:.\inv.c       **** //          current_output_rate = 51;
 491:.\inv.c       **** //#endif
 492:.\inv.c       **** //          break;
 493:.\inv.c       **** //#if (MEMS_CHIP==HW_ICM20648)          
 494:.\inv.c       **** //        case '5':
ARM GAS  C:\Users\ADMINI~1\AppData\Local\Temp\ccPHzW0f.s 			page 15


 495:.\inv.c       **** //          set_output_rates(56.5);
 496:.\inv.c       **** //          current_output_rate = 56.5;
 497:.\inv.c       **** //          break;
 498:.\inv.c       **** //        case '6':
 499:.\inv.c       **** //          set_output_rates(60);
 500:.\inv.c       **** //          current_output_rate = 60;
 501:.\inv.c       **** //          break;
 502:.\inv.c       **** //        case '7':
 503:.\inv.c       **** //          set_output_rates(102);
 504:.\inv.c       **** //          current_output_rate = 102;
 505:.\inv.c       **** //          break;
 506:.\inv.c       **** //        case '8':
 507:.\inv.c       **** //          set_output_rates(112.5);
 508:.\inv.c       **** //          current_output_rate = 112.5;
 509:.\inv.c       **** //          break;
 510:.\inv.c       **** //        case '9':
 511:.\inv.c       **** //          set_output_rates(225);
 512:.\inv.c       **** //          current_output_rate = 225;
 513:.\inv.c       **** //          break;
 514:.\inv.c       **** //                
 515:.\inv.c       **** //	case 'k':
 516:.\inv.c       **** //		//INV_SPRINTF(tst, INV_TST_LEN, "Getting the DMP biases...\r\n"); print_data_console(tst);
 517:.\inv.c       **** //		memset(dmp_bias, 0, sizeof(dmp_bias));
 518:.\inv.c       **** //		dmp_get_bias(dmp_bias);
 519:.\inv.c       **** //		//INV_SPRINTF(tst, INV_TST_LEN, "DMP   Accel Bias: X=%d, Y=%d, Z=%d\r\n", dmp_bias[0], dmp_bias
 520:.\inv.c       **** //		//INV_SPRINTF(tst, INV_TST_LEN, "DMP   Gyro  Bias: X=%d, Y=%d, Z=%d\r\n", dmp_bias[3], dmp_bias
 521:.\inv.c       **** //		break;
 522:.\inv.c       **** //
 523:.\inv.c       **** //	case 'Q':
 524:.\inv.c       **** //		dmp_reset_fifo();
 525:.\inv.c       **** //		hal.report ^= PRINT_CUBE_RV;
 526:.\inv.c       **** //		inv_enable_sensor(ANDROID_SENSOR_ROTATION_VECTOR, !!(hal.report & PRINT_CUBE_RV));
 527:.\inv.c       **** //                dmp_reset_odr_counters();
 528:.\inv.c       **** //		if (hal.report & PRINT_CUBE_RV) set_output_rates(current_output_rate);
 529:.\inv.c       **** //		//INV_SPRINTF(tst, INV_TST_LEN, "Cube RV....output toggled, now is: %s.\r\n", (hal.report & PRI
 530:.\inv.c       **** //		//print_command_console(tst);
 531:.\inv.c       **** //		break;
 532:.\inv.c       **** //	case '@':
 533:.\inv.c       **** //		dmp_reset_fifo();
 534:.\inv.c       **** //		hal.report ^= PRINT_CUBE_GEOMAG;
 535:.\inv.c       **** //		inv_enable_sensor(ANDROID_SENSOR_GEOMAGNETIC_ROTATION_VECTOR, !!(hal.report & PRINT_CUBE_GEOMAG
 536:.\inv.c       **** //                dmp_reset_odr_counters();
 537:.\inv.c       **** //		if (hal.report & PRINT_CUBE_GEOMAG) set_output_rates(current_output_rate);
 538:.\inv.c       **** //		//INV_SPRINTF(tst, INV_TST_LEN, "Cube GeoMAG RV....output toggled, now is: %s.\r\n", (hal.repor
 539:.\inv.c       **** //		//print_command_console(tst);
 540:.\inv.c       **** //		break;
 541:.\inv.c       **** //#endif
 542:.\inv.c       **** //	
 543:.\inv.c       **** //	case 'v':
 544:.\inv.c       **** //                dmp_reset_fifo();
 545:.\inv.c       **** //		hal.report ^= PRINT_GRAVITY;
 546:.\inv.c       **** //		inv_enable_sensor(ANDROID_SENSOR_GRAVITY, !!(hal.report & PRINT_GRAVITY));
 547:.\inv.c       **** //                dmp_reset_odr_counters();
 548:.\inv.c       **** //                if (hal.report & PRINT_GRAVITY) set_output_rates(current_output_rate);
 549:.\inv.c       **** //		//INV_SPRINTF(tst, INV_TST_LEN, "Gravity....output toggled, now is: %s.\r\n", (hal.report & PRI
 550:.\inv.c       **** //		//print_command_console(tst);
 551:.\inv.c       **** //		break;
ARM GAS  C:\Users\ADMINI~1\AppData\Local\Temp\ccPHzW0f.s 			page 16


 552:.\inv.c       **** //	case 'l':
 553:.\inv.c       **** //                dmp_reset_fifo();
 554:.\inv.c       **** //		hal.report ^= PRINT_LINEAR_ACCEL;
 555:.\inv.c       **** //		inv_enable_sensor(ANDROID_SENSOR_LINEAR_ACCELERATION, !!(hal.report & PRINT_LINEAR_ACCEL));
 556:.\inv.c       **** //                dmp_reset_odr_counters();
 557:.\inv.c       **** //                if (hal.report & PRINT_LINEAR_ACCEL) set_output_rates(current_output_rate);
 558:.\inv.c       **** //		//INV_SPRINTF(tst, INV_TST_LEN, "Linear Accel....output toggled, now is: %s.\r\n", (hal.report 
 559:.\inv.c       **** //		//print_command_console(tst);
 560:.\inv.c       **** //		break;
 561:.\inv.c       **** //#if (MEMS_CHIP != HW_ICM20609)
 562:.\inv.c       **** //	case 'o':
 563:.\inv.c       **** //                dmp_reset_fifo();
 564:.\inv.c       **** //		hal.report ^= PRINT_ORIENT;
 565:.\inv.c       **** //		inv_enable_sensor(ANDROID_SENSOR_ORIENTATION, !!(hal.report & PRINT_ORIENT));
 566:.\inv.c       **** //                dmp_reset_odr_counters();
 567:.\inv.c       **** //                if (hal.report & PRINT_ORIENT) set_output_rates(current_output_rate);
 568:.\inv.c       **** //		//INV_SPRINTF(tst, INV_TST_LEN, "Orientation....output toggled, now is: %s.\r\n", (hal.report &
 569:.\inv.c       **** //		//print_command_console(tst);
 570:.\inv.c       **** //		break;
 571:.\inv.c       **** //
 572:.\inv.c       **** //	case 't':
 573:.\inv.c       **** //		dmp_reset_fifo();
 574:.\inv.c       **** //		{
 575:.\inv.c       **** //			int sensors_bias[9] = { 0, 0, 0, 0, 0, 0, 0, 0, 0 };
 576:.\inv.c       **** //			char pass_str[] = { "PASS" };
 577:.\inv.c       **** //			char fail_str[] = { "FAIL" };
 578:.\inv.c       **** //
 579:.\inv.c       **** //		//	INV_SPRINTF(tst, INV_TST_LEN, "Selftest...Started\r\n");
 580:.\inv.c       **** //		//	print_command_console(tst);
 581:.\inv.c       **** //
 582:.\inv.c       **** //			self_test_result = inv_mems_run_selftest();
 583:.\inv.c       **** //			//            self_test_result = 0x4 | 0x0 | 0x0;
 584:.\inv.c       **** //			dmp_get_bias_20648(sensors_bias);
 585:.\inv.c       **** //
 586:.\inv.c       **** //			dmp_bias[0] = a_average[0] * (1 << 11);   // Change from LSB to format expected by DMP
 587:.\inv.c       **** //			dmp_bias[1] = a_average[1] * (1 << 11);
 588:.\inv.c       **** //			dmp_bias[2] = (a_average[2] - 16384)*(1 << 11); //remove the gravity and scale (FSR=2 in selft
 589:.\inv.c       **** //			int scale = 2000 / 250; //self-test uses 250dps FSR, main() set the FSR to 2000dps
 590:.\inv.c       **** //			dmp_bias[3] = (g_average[0] / scale)*(1 << 15);
 591:.\inv.c       **** //			dmp_bias[4] = (g_average[1] / scale)*(1 << 15);
 592:.\inv.c       **** //			dmp_bias[5] = (g_average[2] / scale)*(1 << 15);
 593:.\inv.c       **** //
 594:.\inv.c       **** //		//	INV_SPRINTF(tst, INV_TST_LEN, "Selftest...Done...Ret=%d\r\n", self_test_result);
 595:.\inv.c       **** //		//	print_command_console(tst);
 596:.\inv.c       **** ////			INV_SPRINTF(tst, INV_TST_LEN, "Result: Compass=%s, Accel=%s, Gyro=%s\r\n", (self_test_result
 597:.\inv.c       **** ////			print_command_console(tst);
 598:.\inv.c       **** ////			INV_SPRINTF(tst, INV_TST_LEN, "Accel Average (LSB@FSR 2g)\r\n");
 599:.\inv.c       **** ////			print_command_console(tst);
 600:.\inv.c       **** ////			INV_SPRINTF(tst, INV_TST_LEN, "\tX:%d Y:%d Z:%d\r\n", a_average[0], a_average[1], a_average[
 601:.\inv.c       **** ////			print_command_console(tst);
 602:.\inv.c       **** ////			INV_SPRINTF(tst, INV_TST_LEN, "Gyro Average (LSB@FSR 250dps)\r\n");
 603:.\inv.c       **** ////			print_command_console(tst);
 604:.\inv.c       **** ////			INV_SPRINTF(tst, INV_TST_LEN, "\tX:%d Y:%d Z:%d\r\n", g_average[0], g_average[1], g_average[
 605:.\inv.c       **** ////			print_command_console(tst);
 606:.\inv.c       **** ////			INV_SPRINTF(tst, INV_TST_LEN, "Factory Cal - Accel DMP biases: \tX:%d Y:%d Z:%d\r\n", dmp_bi
 607:.\inv.c       **** ////			print_command_console(tst);
 608:.\inv.c       **** ////			INV_SPRINTF(tst, INV_TST_LEN, "Factory Cal - Gyro DMP biases:  \tX:%d Y:%d Z:%d\r\n", dmp_bi
ARM GAS  C:\Users\ADMINI~1\AppData\Local\Temp\ccPHzW0f.s 			page 17


 609:.\inv.c       **** ////			print_command_console(tst);
 610:.\inv.c       **** //
 611:.\inv.c       **** //			if ((self_test_result & 0x3) == 0x3) {//Acc-Gyro self-test is passed already      
 612:.\inv.c       **** ////				INV_SPRINTF(tst, INV_TST_LEN, "\r\nSetting the DMP biases with one-axis factory calibration
 613:.\inv.c       **** //				dmp_set_bias_20648(dmp_bias); //update the DMP biases
 614:.\inv.c       **** //			}
 615:.\inv.c       **** //                        
 616:.\inv.c       **** ////                        print_command_console("\n\n**RESTART BOARD**\n");
 617:.\inv.c       **** //
 618:.\inv.c       **** //		}
 619:.\inv.c       **** //		break;
 620:.\inv.c       **** //#endif
 621:.\inv.c       **** //		//case SHOW_COMMANDS:
 622:.\inv.c       **** //	default:
 623:.\inv.c       **** ////	print_command_console("\r\n");
 624:.\inv.c       **** ////        print_command_console("Press 'a' to toggle ACCEL output....................\r\n");     
 625:.\inv.c       **** ////        print_command_console("Press 'g' to toggle Gyro output.....................\r\n");
 626:.\inv.c       **** ////        print_command_console("Press 'G' to toggle Raw Gyro output.................\r\n");     
 627:.\inv.c       **** ////        print_command_console("Press 'p' to toggle Step Counter output.............\r\n");     
 628:.\inv.c       **** ////        print_command_console("Press 'd' to toggle Step Detector output............\r\n");
 629:.\inv.c       **** ////        print_command_console("Press 'm' to toggle SMD Significant Motion output...\r\n");
 630:.\inv.c       **** //#if (MEMS_CHIP != HW_ICM20609)        
 631:.\inv.c       **** ////        print_command_console("Press 'c' to toggle Compass output..................\r\n"); 
 632:.\inv.c       **** ////        print_command_console("Press 'C' to toggle Raw Compass output..............\r\n");
 633:.\inv.c       **** //#endif
 634:.\inv.c       **** //#if (MEMS_CHIP != HW_ICM20630)
 635:.\inv.c       **** //#if (MEMS_CHIP != HW_ICM20609)
 636:.\inv.c       **** ////        print_command_console("Press 'b' to toggle Basic Activity Classifier output...\r\n");
 637:.\inv.c       **** ////        print_command_console("Press 'T' to toggle Tilt output...\r\n");
 638:.\inv.c       **** ////        print_command_console("Press 'F' to toggle Flip Pickup output...\r\n");
 639:.\inv.c       **** //#endif
 640:.\inv.c       **** //#endif
 641:.\inv.c       **** ////        print_command_console("Press 'r' to toggle Game Rotation Vector output.....\r\n");     
 642:.\inv.c       **** //#if (MEMS_CHIP != HW_ICM20609)        
 643:.\inv.c       **** ////        print_command_console("Press 'R' to toggle Rotation Vector output..........\r\n");
 644:.\inv.c       **** ////        print_command_console("Press 'e' to toggle GeoMag Vector output............\r\n");
 645:.\inv.c       **** //#if defined MEMS_AUGMENTED_SENSORS
 646:.\inv.c       **** //        print_command_console("Press 'l' to toggle Linear Acceleration output............\r\n");
 647:.\inv.c       **** //        print_command_console("Press 'v' to toggle Gravity output............\r\n");
 648:.\inv.c       **** //        print_command_console("Press 'o' to toggle Orientation output............\r\n");
 649:.\inv.c       **** //#endif
 650:.\inv.c       **** //
 651:.\inv.c       **** ////        print_command_console("Press 't' to invoke Self test.......................\r\n");
 652:.\inv.c       **** ////        print_command_console("Press 'k' to get the DMP Biases.................\r\n");
 653:.\inv.c       **** //#endif
 654:.\inv.c       **** ////        print_command_console("Press '0' to set ODR @ 1Hz..........................\r\n");
 655:.\inv.c       **** ////        print_command_console("Press '1' to set ODR @ 5Hz..........................\r\n");
 656:.\inv.c       **** ////	print_command_console("Press '2' to set ODR @ 15Hz.........................\r\n");
 657:.\inv.c       **** //#if (MEMS_CHIP == HW_ICM20609) 
 658:.\inv.c       **** //        print_command_console("Press '3' to set ODR @ 50Hz.........................\r\n");
 659:.\inv.c       **** //        print_command_console("Press '4' to set ODR @ 100Hz.........................\r\n");
 660:.\inv.c       **** //        print_command_console("Press '5' to set ODR @ 200Hz.........................\r\n");
 661:.\inv.c       **** //#endif
 662:.\inv.c       **** //#if (MEMS_CHIP != HW_ICM20609)         
 663:.\inv.c       **** ////        print_command_console("Press '3' to set ODR @ 30Hz.........................\r\n");
 664:.\inv.c       **** ////        print_command_console("Press '4' to set ODR @ 51Hz.........................\r\n");
 665:.\inv.c       **** ////        print_command_console("Press '5' to set ODR @ 56Hz.........................\r\n");
ARM GAS  C:\Users\ADMINI~1\AppData\Local\Temp\ccPHzW0f.s 			page 18


 666:.\inv.c       **** ////        print_command_console("Press '6' to set ODR @ 60Hz.........................\r\n");
 667:.\inv.c       **** ////        print_command_console("Press '7' to set ODR @ 102Hz.........................\r\n");
 668:.\inv.c       **** ////        print_command_console("Press '8' to set ODR @ 112Hz.........................\r\n");
 669:.\inv.c       **** ////        print_command_console("Press '9' to set ODR @ 225Hz.........................\r\n");
 670:.\inv.c       **** ////        print_command_console("Press 'Q' to toggle Cube Rotation Vector output........\r\n");
 671:.\inv.c       **** ////        print_command_console("Press '@' to toggle Cube GeoMAG Vector output..........\r\n");  
 672:.\inv.c       **** //#endif
 673:.\inv.c       **** ////        print_command_console("Press 'q' to toggle Cube Game Rotation Vector output...\r\n");
 674:.\inv.c       **** ////        print_command_console("\r\n");
 675:.\inv.c       **** //        break;
 676:.\inv.c       **** //	}
 677:.\inv.c       **** 
 678:.\inv.c       **** 	return 1;
 679:.\inv.c       **** }
 290              		.loc 1 679 0
 291 0000 0120     		mov	r0, #1
 292              	.LVL31:
 293              		@ sp needed
 294 0002 7047     		bx	lr
 295              		.cfi_endproc
 296              	.LFE46:
 297              		.size	handle_char_input, .-handle_char_input
 298              		.section	.text.inv_perform_selftest,"ax",%progbits
 299              		.align	1
 300              		.global	inv_perform_selftest
 301              		.code	16
 302              		.thumb_func
 303              		.type	inv_perform_selftest, %function
 304              	inv_perform_selftest:
 305              	.LFB47:
 680:.\inv.c       **** 
 681:.\inv.c       **** inv_error_t inv_perform_selftest(void)
 682:.\inv.c       **** {
 306              		.loc 1 682 0
 307              		.cfi_startproc
 308 0000 10B5     		push	{r4, lr}
 309              		.cfi_def_cfa_offset 8
 310              		.cfi_offset 4, -8
 311              		.cfi_offset 14, -4
 312 0002 8AB0     		sub	sp, sp, #40
 313              		.cfi_def_cfa_offset 48
 683:.\inv.c       **** 	inv_error_t status;
 684:.\inv.c       **** 	dmp_reset_fifo();
 314              		.loc 1 684 0
 315 0004 FFF7FEFF 		bl	dmp_reset_fifo
 316              	.LVL32:
 685:.\inv.c       **** 	int sensors_bias[9] = { 0, 0, 0, 0, 0, 0, 0, 0, 0 };
 317              		.loc 1 685 0
 318 0008 2422     		mov	r2, #36
 319 000a 0021     		mov	r1, #0
 320 000c 01A8     		add	r0, sp, #4
 321 000e FFF7FEFF 		bl	memset
 322              	.LVL33:
 686:.\inv.c       **** 	int scale = 2000 / 250; //self-test uses 250dps FSR, main() set the FSR to 2000dps
 687:.\inv.c       **** 
 688:.\inv.c       **** 	self_test_result = inv_mems_run_selftest();
 323              		.loc 1 688 0
ARM GAS  C:\Users\ADMINI~1\AppData\Local\Temp\ccPHzW0f.s 			page 19


 324 0012 FFF7FEFF 		bl	inv_mems_run_selftest
 325              	.LVL34:
 326 0016 1A4C     		ldr	r4, .L41
 327 0018 6061     		str	r0, [r4, #20]
 689:.\inv.c       **** 	dmp_get_bias_20648(sensors_bias);
 328              		.loc 1 689 0
 329 001a 01A8     		add	r0, sp, #4
 330 001c FFF7FEFF 		bl	dmp_get_bias_20648
 331              	.LVL35:
 690:.\inv.c       **** 
 691:.\inv.c       **** 	dmp_bias[0] = a_average[0] * (1 << 11);   // Change from LSB to format expected by DMP
 332              		.loc 1 691 0
 333 0020 E36B     		ldr	r3, [r4, #60]
 692:.\inv.c       **** 	dmp_bias[1] = a_average[1] * (1 << 11);
 693:.\inv.c       **** 	dmp_bias[2] = (a_average[2] - 16384)*(1 << 11); //remove the gravity and scale (FSR=2 in selftest)
 334              		.loc 1 693 0
 335 0022 184A     		ldr	r2, .L41+4
 691:.\inv.c       **** 	dmp_bias[1] = a_average[1] * (1 << 11);
 336              		.loc 1 691 0
 337 0024 DB02     		lsl	r3, r3, #11
 338 0026 A361     		str	r3, [r4, #24]
 692:.\inv.c       **** 	dmp_bias[1] = a_average[1] * (1 << 11);
 339              		.loc 1 692 0
 340 0028 236C     		ldr	r3, [r4, #64]
 341 002a DB02     		lsl	r3, r3, #11
 342 002c E361     		str	r3, [r4, #28]
 343              		.loc 1 693 0
 344 002e 636C     		ldr	r3, [r4, #68]
 345 0030 9B18     		add	r3, r3, r2
 346 0032 DB02     		lsl	r3, r3, #11
 347 0034 2362     		str	r3, [r4, #32]
 694:.\inv.c       **** 	dmp_bias[3] = (g_average[0] / scale)*(1 << 15);
 348              		.loc 1 694 0
 349 0036 A36C     		ldr	r3, [r4, #72]
 350 0038 DA17     		asr	r2, r3, #31
 351 003a 520F     		lsr	r2, r2, #29
 352 003c D318     		add	r3, r2, r3
 353 003e DB10     		asr	r3, r3, #3
 354 0040 DB03     		lsl	r3, r3, #15
 355 0042 6362     		str	r3, [r4, #36]
 695:.\inv.c       **** 	dmp_bias[4] = (g_average[1] / scale)*(1 << 15);
 356              		.loc 1 695 0
 357 0044 E36C     		ldr	r3, [r4, #76]
 358 0046 DA17     		asr	r2, r3, #31
 359 0048 520F     		lsr	r2, r2, #29
 360 004a D318     		add	r3, r2, r3
 361 004c DB10     		asr	r3, r3, #3
 362 004e DB03     		lsl	r3, r3, #15
 363 0050 A362     		str	r3, [r4, #40]
 696:.\inv.c       **** 	dmp_bias[5] = (g_average[2] / scale)*(1 << 15);
 364              		.loc 1 696 0
 365 0052 236D     		ldr	r3, [r4, #80]
 366 0054 DA17     		asr	r2, r3, #31
 367 0056 520F     		lsr	r2, r2, #29
 368 0058 D318     		add	r3, r2, r3
 369 005a DB10     		asr	r3, r3, #3
 370 005c DB03     		lsl	r3, r3, #15
ARM GAS  C:\Users\ADMINI~1\AppData\Local\Temp\ccPHzW0f.s 			page 20


 371 005e E362     		str	r3, [r4, #44]
 697:.\inv.c       **** 
 698:.\inv.c       **** 	//Acc-Gyro self-test is passed already      
 699:.\inv.c       **** 	if ((self_test_result & 0x3) == 0x3) 
 372              		.loc 1 699 0
 373 0060 0323     		mov	r3, #3
 374 0062 6269     		ldr	r2, [r4, #20]
 375 0064 1340     		and	r3, r2
 376 0066 032B     		cmp	r3, #3
 377 0068 05D1     		bne	.L40
 700:.\inv.c       **** 	{
 701:.\inv.c       **** 		//update the DMP biases
 702:.\inv.c       **** 		dmp_set_bias_20648(dmp_bias); 
 378              		.loc 1 702 0
 379 006a 201C     		mov	r0, r4
 380 006c 1830     		add	r0, r0, #24
 381 006e FFF7FEFF 		bl	dmp_set_bias_20648
 382              	.LVL36:
 703:.\inv.c       **** 		status = 0;
 383              		.loc 1 703 0
 384 0072 0020     		mov	r0, #0
 385 0074 01E0     		b	.L39
 386              	.LVL37:
 387              	.L40:
 704:.\inv.c       **** 	}
 705:.\inv.c       **** 	else
 706:.\inv.c       **** 	{
 707:.\inv.c       **** 		status = -1;
 388              		.loc 1 707 0
 389 0076 0120     		mov	r0, #1
 390 0078 4042     		neg	r0, r0
 391              	.L39:
 392              	.LVL38:
 708:.\inv.c       **** 	}
 709:.\inv.c       **** 	
 710:.\inv.c       **** 	return status;
 711:.\inv.c       **** }
 393              		.loc 1 711 0
 394 007a 0AB0     		add	sp, sp, #40
 395              		@ sp needed
 396 007c 10BD     		pop	{r4, pc}
 397              	.L42:
 398 007e C046     		.align	2
 399              	.L41:
 400 0080 00000000 		.word	.LANCHOR0
 401 0084 00C0FFFF 		.word	-16384
 402              		.cfi_endproc
 403              	.LFE47:
 404              		.size	inv_perform_selftest, .-inv_perform_selftest
 405              		.section	.text.inv_start,"ax",%progbits
 406              		.align	1
 407              		.global	inv_start
 408              		.code	16
 409              		.thumb_func
 410              		.type	inv_start, %function
 411              	inv_start:
 412              	.LFB43:
ARM GAS  C:\Users\ADMINI~1\AppData\Local\Temp\ccPHzW0f.s 			page 21


 101:.\inv.c       ****     inv_error_t result;
 413              		.loc 1 101 0
 414              		.cfi_startproc
 415 0000 70B5     		push	{r4, r5, r6, lr}
 416              		.cfi_def_cfa_offset 16
 417              		.cfi_offset 4, -16
 418              		.cfi_offset 5, -12
 419              		.cfi_offset 6, -8
 420              		.cfi_offset 14, -4
 105:.\inv.c       **** 	
 421              		.loc 1 105 0
 422 0002 FFF7FEFF 		bl	I2C_Start
 423              	.LVL39:
 109:.\inv.c       **** 	if(result == 0)
 424              		.loc 1 109 0
 425 0006 0120     		mov	r0, #1
 426 0008 0021     		mov	r1, #0
 427 000a FFF7FEFF 		bl	inv_initialize_lower_driver
 428              	.LVL40:
 429 000e 274C     		ldr	r4, .L50
 430 0010 0122     		mov	r2, #1
 112:.\inv.c       **** 	}
 431              		.loc 1 112 0
 432 0012 238A     		ldrh	r3, [r4, #16]
 110:.\inv.c       **** 	{
 433              		.loc 1 110 0
 434 0014 0028     		cmp	r0, #0
 435 0016 01D1     		bne	.L44
 112:.\inv.c       **** 	}
 436              		.loc 1 112 0
 437 0018 9343     		bic	r3, r2
 438 001a 00E0     		b	.L48
 439              	.L44:
 116:.\inv.c       **** 	}
 440              		.loc 1 116 0
 441 001c 1343     		orr	r3, r2
 442              	.L48:
 443 001e 2382     		strh	r3, [r4, #16]
 121:.\inv.c       **** 	if(result == 0)
 444              		.loc 1 121 0
 445 0020 FFF7FEFF 		bl	inv_perform_selftest
 446              	.LVL41:
 447 0024 0222     		mov	r2, #2
 448 0026 061C     		mov	r6, r0
 449              	.LVL42:
 124:.\inv.c       **** 	}
 450              		.loc 1 124 0
 451 0028 238A     		ldrh	r3, [r4, #16]
 122:.\inv.c       **** 	{
 452              		.loc 1 122 0
 453 002a 0028     		cmp	r0, #0
 454 002c 01D1     		bne	.L46
 124:.\inv.c       **** 	}
 455              		.loc 1 124 0
 456 002e 9343     		bic	r3, r2
 457 0030 00E0     		b	.L49
 458              	.L46:
ARM GAS  C:\Users\ADMINI~1\AppData\Local\Temp\ccPHzW0f.s 			page 22


 128:.\inv.c       **** 	}
 459              		.loc 1 128 0
 460 0032 1343     		orr	r3, r2
 461              	.L49:
 133:.\inv.c       ****     inv_enable_sensor(ANDROID_SENSOR_ACCELEROMETER, !!(hal.report & PRINT_ACCEL));
 462              		.loc 1 133 0
 463 0034 0125     		mov	r5, #1
 128:.\inv.c       **** 	}
 464              		.loc 1 128 0
 465 0036 2382     		strh	r3, [r4, #16]
 132:.\inv.c       **** 	hal.report |= PRINT_ACCEL;
 466              		.loc 1 132 0
 467 0038 FFF7FEFF 		bl	dmp_reset_fifo
 468              	.LVL43:
 133:.\inv.c       ****     inv_enable_sensor(ANDROID_SENSOR_ACCELEROMETER, !!(hal.report & PRINT_ACCEL));
 469              		.loc 1 133 0
 470 003c 2368     		ldr	r3, [r4]
 134:.\inv.c       ****     dmp_reset_odr_counters();
 471              		.loc 1 134 0
 472 003e 291C     		mov	r1, r5
 133:.\inv.c       ****     inv_enable_sensor(ANDROID_SENSOR_ACCELEROMETER, !!(hal.report & PRINT_ACCEL));
 473              		.loc 1 133 0
 474 0040 2B43     		orr	r3, r5
 134:.\inv.c       ****     dmp_reset_odr_counters();
 475              		.loc 1 134 0
 476 0042 281C     		mov	r0, r5
 133:.\inv.c       ****     inv_enable_sensor(ANDROID_SENSOR_ACCELEROMETER, !!(hal.report & PRINT_ACCEL));
 477              		.loc 1 133 0
 478 0044 2360     		str	r3, [r4]
 134:.\inv.c       ****     dmp_reset_odr_counters();
 479              		.loc 1 134 0
 480 0046 FFF7FEFF 		bl	inv_enable_sensor
 481              	.LVL44:
 135:.\inv.c       **** 	
 482              		.loc 1 135 0
 483 004a FFF7FEFF 		bl	dmp_reset_odr_counters
 484              	.LVL45:
 138:.\inv.c       **** 	hal.report |= PRINT_GYRO;
 485              		.loc 1 138 0
 486 004e FFF7FEFF 		bl	dmp_reset_fifo
 487              	.LVL46:
 139:.\inv.c       ****     inv_enable_sensor(ANDROID_SENSOR_GYROSCOPE, !!(hal.report & PRINT_GYRO));
 488              		.loc 1 139 0
 489 0052 0223     		mov	r3, #2
 490 0054 2268     		ldr	r2, [r4]
 140:.\inv.c       ****     dmp_reset_odr_counters();
 491              		.loc 1 140 0
 492 0056 291C     		mov	r1, r5
 139:.\inv.c       ****     inv_enable_sensor(ANDROID_SENSOR_GYROSCOPE, !!(hal.report & PRINT_GYRO));
 493              		.loc 1 139 0
 494 0058 1343     		orr	r3, r2
 140:.\inv.c       ****     dmp_reset_odr_counters();
 495              		.loc 1 140 0
 496 005a 0420     		mov	r0, #4
 139:.\inv.c       ****     inv_enable_sensor(ANDROID_SENSOR_GYROSCOPE, !!(hal.report & PRINT_GYRO));
 497              		.loc 1 139 0
 498 005c 2360     		str	r3, [r4]
ARM GAS  C:\Users\ADMINI~1\AppData\Local\Temp\ccPHzW0f.s 			page 23


 140:.\inv.c       ****     dmp_reset_odr_counters();
 499              		.loc 1 140 0
 500 005e FFF7FEFF 		bl	inv_enable_sensor
 501              	.LVL47:
 141:.\inv.c       **** 
 502              		.loc 1 141 0
 503 0062 FFF7FEFF 		bl	dmp_reset_odr_counters
 504              	.LVL48:
 144:.\inv.c       **** 	hal.report |= PRINT_STEP_DETECTOR;
 505              		.loc 1 144 0
 506 0066 FFF7FEFF 		bl	dmp_reset_fifo
 507              	.LVL49:
 145:.\inv.c       ****     inv_enable_sensor(ANDROID_SENSOR_STEP_COUNTER, !!(hal.report & PRINT_STEP_DETECTOR));
 508              		.loc 1 145 0
 509 006a 8023     		mov	r3, #128
 510 006c 2268     		ldr	r2, [r4]
 511 006e 1B01     		lsl	r3, r3, #4
 512 0070 1343     		orr	r3, r2
 146:.\inv.c       ****     dmp_reset_odr_counters();
 513              		.loc 1 146 0
 514 0072 291C     		mov	r1, r5
 515 0074 1320     		mov	r0, #19
 145:.\inv.c       ****     inv_enable_sensor(ANDROID_SENSOR_STEP_COUNTER, !!(hal.report & PRINT_STEP_DETECTOR));
 516              		.loc 1 145 0
 517 0076 2360     		str	r3, [r4]
 146:.\inv.c       ****     dmp_reset_odr_counters();
 518              		.loc 1 146 0
 519 0078 FFF7FEFF 		bl	inv_enable_sensor
 520              	.LVL50:
 147:.\inv.c       **** 
 521              		.loc 1 147 0
 522 007c FFF7FEFF 		bl	dmp_reset_odr_counters
 523              	.LVL51:
 150:.\inv.c       **** 	hal.report |= PRINT_STEP_COUNTER;
 524              		.loc 1 150 0
 525 0080 FFF7FEFF 		bl	dmp_reset_fifo
 526              	.LVL52:
 151:.\inv.c       ****     inv_enable_sensor(ANDROID_SENSOR_STEP_COUNTER, !!(hal.report & PRINT_STEP_COUNTER));
 527              		.loc 1 151 0
 528 0084 8023     		mov	r3, #128
 529 0086 2268     		ldr	r2, [r4]
 530 0088 DB00     		lsl	r3, r3, #3
 531 008a 1343     		orr	r3, r2
 152:.\inv.c       ****     dmp_reset_odr_counters();
 532              		.loc 1 152 0
 533 008c 291C     		mov	r1, r5
 534 008e 1320     		mov	r0, #19
 151:.\inv.c       ****     inv_enable_sensor(ANDROID_SENSOR_STEP_COUNTER, !!(hal.report & PRINT_STEP_COUNTER));
 535              		.loc 1 151 0
 536 0090 2360     		str	r3, [r4]
 152:.\inv.c       ****     dmp_reset_odr_counters();
 537              		.loc 1 152 0
 538 0092 FFF7FEFF 		bl	inv_enable_sensor
 539              	.LVL53:
 153:.\inv.c       **** 
 540              		.loc 1 153 0
 541 0096 FFF7FEFF 		bl	dmp_reset_odr_counters
ARM GAS  C:\Users\ADMINI~1\AppData\Local\Temp\ccPHzW0f.s 			page 24


 542              	.LVL54:
 161:.\inv.c       **** 	
 543              		.loc 1 161 0
 544 009a 0548     		ldr	r0, .L50+4
 545 009c FFF7FEFF 		bl	set_output_rates
 546              	.LVL55:
 164:.\inv.c       **** 	
 547              		.loc 1 164 0
 548 00a0 0448     		ldr	r0, .L50+8
 549 00a2 FFF7FEFF 		bl	isr_INVN_INT_StartEx
 550              	.LVL56:
 167:.\inv.c       **** 
 551              		.loc 1 167 0
 552              		@ sp needed
 553 00a6 301C     		mov	r0, r6
 554              	.LVL57:
 555 00a8 70BD     		pop	{r4, r5, r6, pc}
 556              	.L51:
 557 00aa C046     		.align	2
 558              	.L50:
 559 00ac 00000000 		.word	.LANCHOR0
 560 00b0 0000A040 		.word	1084227584
 561 00b4 00000000 		.word	INVN_INT_InterruptHandler
 562              		.cfi_endproc
 563              	.LFE43:
 564              		.size	inv_start, .-inv_start
 565              		.section	.text.process_sensor_output,"ax",%progbits
 566              		.align	1
 567              		.global	process_sensor_output
 568              		.code	16
 569              		.thumb_func
 570              		.type	process_sensor_output, %function
 571              	process_sensor_output:
 572              	.LFB48:
 712:.\inv.c       **** 
 713:.\inv.c       **** void process_sensor_output()
 714:.\inv.c       **** {
 573              		.loc 1 714 0
 574              		.cfi_startproc
 575 0000 10B5     		push	{r4, lr}
 576              		.cfi_def_cfa_offset 8
 577              		.cfi_offset 4, -8
 578              		.cfi_offset 14, -4
 579 0002 86B0     		sub	sp, sp, #24
 580              		.cfi_def_cfa_offset 32
 715:.\inv.c       **** 	
 716:.\inv.c       **** 	signed long  long_quat[3] = { 0 };
 581              		.loc 1 716 0
 582 0004 6846     		mov	r0, sp
 583 0006 0021     		mov	r1, #0
 584 0008 0C22     		mov	r2, #12
 585 000a FFF7FEFF 		bl	memset
 586              	.LVL58:
 717:.\inv.c       **** 
 718:.\inv.c       **** 	if (hal.report & PRINT_ACCEL) {
 587              		.loc 1 718 0
 588 000e 344C     		ldr	r4, .L87
ARM GAS  C:\Users\ADMINI~1\AppData\Local\Temp\ccPHzW0f.s 			page 25


 589 0010 2368     		ldr	r3, [r4]
 590 0012 DA07     		lsl	r2, r3, #31
 591 0014 0FD5     		bpl	.L53
 719:.\inv.c       **** 		if (accel_data_was_set == 1) {
 592              		.loc 1 719 0
 593 0016 221C     		mov	r2, r4
 594 0018 5432     		add	r2, r2, #84
 595 001a 1288     		ldrh	r2, [r2]
 596 001c 012A     		cmp	r2, #1
 597 001e 0AD1     		bne	.L53
 720:.\inv.c       **** 			if (self_test_result && (accel_accuracy == 0)) //self-test is done already
 598              		.loc 1 720 0
 599 0020 6169     		ldr	r1, [r4, #20]
 600 0022 0029     		cmp	r1, #0
 601 0024 03D0     		beq	.L54
 602              		.loc 1 720 0 is_stmt 0 discriminator 1
 603 0026 A16D     		ldr	r1, [r4, #88]
 604 0028 0029     		cmp	r1, #0
 605 002a 00D1     		bne	.L54
 721:.\inv.c       **** 				accel_accuracy = 1; //accuracy reaches intermediate level after one-axis factory cal--yd
 606              		.loc 1 721 0 is_stmt 1
 607 002c A265     		str	r2, [r4, #88]
 608              	.L54:
 722:.\inv.c       **** 			//INV_SPRINTF(tst, INV_TST_LEN, "Accel Data\t %8.5f, %8.5f, %8.5f, %d, %lld\r\n", accel_float[0]
 723:.\inv.c       **** 			accel_data_was_set = 0;
 609              		.loc 1 723 0
 610 002e 221C     		mov	r2, r4
 611 0030 0021     		mov	r1, #0
 612 0032 5432     		add	r2, r2, #84
 613 0034 1180     		strh	r1, [r2]
 614              	.L53:
 724:.\inv.c       **** 		}
 725:.\inv.c       **** 	}
 726:.\inv.c       **** 
 727:.\inv.c       **** 	if (hal.report & PRINT_GYRO) {
 615              		.loc 1 727 0
 616 0036 9A07     		lsl	r2, r3, #30
 617 0038 0FD5     		bpl	.L55
 728:.\inv.c       **** 		if (gyro_data_was_set == 1) {
 618              		.loc 1 728 0
 619 003a 221C     		mov	r2, r4
 620 003c 5C32     		add	r2, r2, #92
 621 003e 1288     		ldrh	r2, [r2]
 622 0040 012A     		cmp	r2, #1
 623 0042 0AD1     		bne	.L55
 729:.\inv.c       **** 			if (self_test_result && (gyro_accuracy == 0)) //self-test is done already
 624              		.loc 1 729 0
 625 0044 6169     		ldr	r1, [r4, #20]
 626 0046 0029     		cmp	r1, #0
 627 0048 03D0     		beq	.L56
 628              		.loc 1 729 0 is_stmt 0 discriminator 1
 629 004a 216E     		ldr	r1, [r4, #96]
 630 004c 0029     		cmp	r1, #0
 631 004e 00D1     		bne	.L56
 730:.\inv.c       **** 				gyro_accuracy = 1; //accuracy reaches intermediate level after one-axis factory cal--yd
 632              		.loc 1 730 0 is_stmt 1
 633 0050 2266     		str	r2, [r4, #96]
ARM GAS  C:\Users\ADMINI~1\AppData\Local\Temp\ccPHzW0f.s 			page 26


 634              	.L56:
 731:.\inv.c       ****                         //INV_SPRINTF(tst, INV_TST_LEN, "Gyro Data\t %7.5f, %7.5f, %7.5f, %d, %lld\
 732:.\inv.c       **** 			gyro_data_was_set = 0;
 635              		.loc 1 732 0
 636 0052 221C     		mov	r2, r4
 637 0054 0021     		mov	r1, #0
 638 0056 5C32     		add	r2, r2, #92
 639 0058 1180     		strh	r1, [r2]
 640              	.L55:
 733:.\inv.c       **** 		}
 734:.\inv.c       **** 	}
 735:.\inv.c       **** 
 736:.\inv.c       **** //	if (hal.report & PRINT_RAW_GYRO) {
 737:.\inv.c       **** //#if ((MEMS_CHIP == HW_ICM30630) || (MEMS_CHIP == HW_ICM20648) || (MEMS_CHIP == HW_ICM20609))
 738:.\inv.c       **** //		if (raw_gyro_data_was_set == 1) {
 739:.\inv.c       **** //			//INV_SPRINTF(tst, INV_TST_LEN, "Raw Gyro Data\t %7.5f, %7.5f, %7.5f,%d, %lld\r\n", gyro_raw_f
 740:.\inv.c       **** //            //            INV_SPRINTF(tst, INV_TST_LEN, "Gyro Bias\t %7.5f, %7.5f, %7.5f\r\n", gy
 741:.\inv.c       **** //			raw_gyro_data_was_set = 0;
 742:.\inv.c       **** //		}
 743:.\inv.c       **** //#endif
 744:.\inv.c       **** //	}
 745:.\inv.c       **** //
 746:.\inv.c       **** 	if (quat6_data_was_set == 1){
 641              		.loc 1 746 0
 642 005a 221C     		mov	r2, r4
 643 005c 6432     		add	r2, r2, #100
 644 005e 1288     		ldrh	r2, [r2]
 645 0060 012A     		cmp	r2, #1
 646 0062 0DD1     		bne	.L57
 747:.\inv.c       **** 		if (hal.report & PRINT_GRV) {
 748:.\inv.c       **** 			//INV_SPRINTF(tst, INV_TST_LEN, "Game RV\t %7.5f, %7.5f, %7.5f, %7.5f, %lld\r\n", grv_float[0], 
 749:.\inv.c       **** 			//print_data_console(tst);
 750:.\inv.c       ****                 }
 751:.\inv.c       ****                 if (hal.report & PRINT_CUBE_GRV) {
 647              		.loc 1 751 0
 648 0064 DB03     		lsl	r3, r3, #15
 649 0066 07D5     		bpl	.L58
 752:.\inv.c       **** 			dmp_get_6quaternion(long_quat);
 650              		.loc 1 752 0
 651 0068 6846     		mov	r0, sp
 652 006a FFF7FEFF 		bl	dmp_get_6quaternion
 653              	.LVL59:
 753:.\inv.c       **** 			inv_compute_scalar_part(long_quat, result_quat);
 654              		.loc 1 753 0
 655 006e 211C     		mov	r1, r4
 656 0070 6846     		mov	r0, sp
 657 0072 6831     		add	r1, r1, #104
 658 0074 FFF7FEFF 		bl	inv_compute_scalar_part
 659              	.LVL60:
 660              	.L58:
 754:.\inv.c       **** 			//send_data_packet(PACKET_TYPE_QUAT, (void *)result_quat);
 755:.\inv.c       ****                 }
 756:.\inv.c       **** #if (MEMS_CHIP != HW_ICM20609)                
 757:.\inv.c       **** #if defined MEMS_AUGMENTED_SENSORS       
 758:.\inv.c       **** 		if (hal.report & PRINT_GRAVITY) {
 759:.\inv.c       **** 			INV_SPRINTF(tst, INV_TST_LEN, "Gravity\t %7.5f, %7.5f, %7.5f, %lld\r\n", gravityFloat[0], gravit
 760:.\inv.c       **** 			print_data_console(tst);
ARM GAS  C:\Users\ADMINI~1\AppData\Local\Temp\ccPHzW0f.s 			page 27


 761:.\inv.c       **** 		}
 762:.\inv.c       **** 		if (hal.report & PRINT_LINEAR_ACCEL) {
 763:.\inv.c       **** 			INV_SPRINTF(tst, INV_TST_LEN, "LinearAcc\t %7.5f, %7.5f, %7.5f, %lld\r\n", linAccFloat[0], linAc
 764:.\inv.c       **** 			print_data_console(tst);
 765:.\inv.c       **** 		}
 766:.\inv.c       ****                 
 767:.\inv.c       **** #endif      
 768:.\inv.c       **** #endif
 769:.\inv.c       ****                 quat6_data_was_set = 0;
 661              		.loc 1 769 0
 662 0078 231C     		mov	r3, r4
 663 007a 0022     		mov	r2, #0
 664 007c 6433     		add	r3, r3, #100
 665 007e 1A80     		strh	r2, [r3]
 666              	.L57:
 770:.\inv.c       **** 	}
 771:.\inv.c       **** #if (MEMS_CHIP != HW_ICM20609)
 772:.\inv.c       **** //        if (hal.report & PRINT_COMPASS) {
 773:.\inv.c       **** //		if (compass_data_was_set == 1) {
 774:.\inv.c       **** //			//INV_SPRINTF(tst, INV_TST_LEN, "Compass Data\t %7.5f, %7.5f, %7.5f,\t%d, %lld\r\n", compass_f
 775:.\inv.c       **** //			compass_data_was_set = 0;
 776:.\inv.c       **** //		}
 777:.\inv.c       **** //	}
 778:.\inv.c       **** //
 779:.\inv.c       **** //	if (hal.report & PRINT_RAW_COMPASS) {
 780:.\inv.c       **** //		if (raw_compass_data_was_set == 1) {
 781:.\inv.c       **** //			//INV_SPRINTF(tst, INV_TST_LEN, "Raw Compass Data\t %7.5f, %7.5f, %7.5f,\t%d, %lld\r\n", compa
 782:.\inv.c       **** //			//INV_SPRINTF(tst, INV_TST_LEN, "Compass Bias\t %7.3f, %7.3f, %7.3f\r\n", compass_bias[0], com
 783:.\inv.c       **** //			raw_compass_data_was_set = 0;
 784:.\inv.c       **** //		}
 785:.\inv.c       **** //	}
 786:.\inv.c       **** //
 787:.\inv.c       **** 		
 788:.\inv.c       **** 	if (quat9_data_was_set == 1) {
 667              		.loc 1 788 0
 668 0080 231C     		mov	r3, r4
 669 0082 7833     		add	r3, r3, #120
 670 0084 1B88     		ldrh	r3, [r3]
 671 0086 012B     		cmp	r3, #1
 672 0088 0ED1     		bne	.L59
 789:.\inv.c       **** 		if (hal.report & PRINT_RV) {
 790:.\inv.c       **** 			//INV_SPRINTF(tst, INV_TST_LEN, "RV\t %7.5f, %7.5f, %7.5f, %7.5f, %d, %lld\r\n", rv_float[0], rv
 791:.\inv.c       **** 			//print_data_console(tst);
 792:.\inv.c       **** 		}
 793:.\inv.c       **** 		if (hal.report &  PRINT_CUBE_RV) {
 673              		.loc 1 793 0
 674 008a 2368     		ldr	r3, [r4]
 675 008c 9B03     		lsl	r3, r3, #14
 676 008e 0BD5     		bpl	.L59
 677              	.LBB10:
 794:.\inv.c       ****                   long temp_long_quat[3];
 795:.\inv.c       **** 			dmp_get_9quaternion(long_quat);
 678              		.loc 1 795 0
 679 0090 6846     		mov	r0, sp
 680 0092 FFF7FEFF 		bl	dmp_get_9quaternion
 681              	.LVL61:
 796:.\inv.c       ****                         inv_convert_rotation_vector_1(long_quat, temp_long_quat);
ARM GAS  C:\Users\ADMINI~1\AppData\Local\Temp\ccPHzW0f.s 			page 28


 682              		.loc 1 796 0
 683 0096 6846     		mov	r0, sp
 684 0098 03A9     		add	r1, sp, #12
 685 009a FFF7FEFF 		bl	inv_convert_rotation_vector_1
 686              	.LVL62:
 797:.\inv.c       **** 			inv_compute_scalar_part(temp_long_quat, result_quat);
 687              		.loc 1 797 0
 688 009e 211C     		mov	r1, r4
 689 00a0 03A8     		add	r0, sp, #12
 690 00a2 6831     		add	r1, r1, #104
 691 00a4 FFF7FEFF 		bl	inv_compute_scalar_part
 692              	.LVL63:
 693              	.L59:
 694              	.LBE10:
 798:.\inv.c       **** 			//send_data_packet(PACKET_TYPE_QUAT, (void *)result_quat);
 799:.\inv.c       **** 
 800:.\inv.c       **** 		}
 801:.\inv.c       **** #if defined MEMS_AUGMENTED_SENSORS
 802:.\inv.c       **** 		if (hal.report & PRINT_ORIENT) {
 803:.\inv.c       **** 			INV_SPRINTF(tst, INV_TST_LEN, "Orientation\t %7.5f, %7.5f, %7.5f, %lld\r\n", orientationFloat[0]
 804:.\inv.c       **** 			print_data_console(tst);
 805:.\inv.c       **** 		}
 806:.\inv.c       **** 		quat9_data_was_set = 0;
 807:.\inv.c       **** #endif
 808:.\inv.c       **** 	}
 809:.\inv.c       ****       
 810:.\inv.c       **** 	if (gmrv_quat_was_set == 1) {
 695              		.loc 1 810 0
 696 00a8 231C     		mov	r3, r4
 697 00aa 7A33     		add	r3, r3, #122
 698 00ac 1A88     		ldrh	r2, [r3]
 699 00ae 012A     		cmp	r2, #1
 700 00b0 01D1     		bne	.L60
 811:.\inv.c       **** 		if (hal.report & PRINT_GEOMAG)
 812:.\inv.c       **** 		{
 813:.\inv.c       **** 			//INV_SPRINTF(tst, INV_TST_LEN, "GeoMAG RV\t %7.5f, %7.5f, %7.5f, %7.5f, %d, %lld\r\n", gmrv_flo
 814:.\inv.c       **** 			//print_data_console(tst);
 815:.\inv.c       **** 		}
 816:.\inv.c       ****                 if (hal.report & PRINT_CUBE_GEOMAG) {
 817:.\inv.c       **** 			//send_data_packet(PACKET_TYPE_QUAT, (void *)cube_gmrv);
 818:.\inv.c       **** 		}
 819:.\inv.c       ****                 gmrv_quat_was_set = 0;
 701              		.loc 1 819 0
 702 00b2 0022     		mov	r2, #0
 703 00b4 1A80     		strh	r2, [r3]
 704              	.L60:
 820:.\inv.c       **** 	}
 821:.\inv.c       **** 
 822:.\inv.c       **** //	if (hal.report & PRINT_BAC) {
 823:.\inv.c       **** //		if (bac_data_was_set == 1)
 824:.\inv.c       **** //		{
 825:.\inv.c       **** //			//INV_SPRINTF(tst, INV_TST_LEN, "BAC Ts:\t %ld\r\n", bac_ts);
 826:.\inv.c       **** //			//print_data_console(tst);
 827:.\inv.c       **** ////			if ((bac_state >> 8) & BAC_DRIVE)
 828:.\inv.c       **** ////				print_data_console("\t Enter Drive\r\n");
 829:.\inv.c       **** ////			if ((bac_state >> 8) & BAC_WALK)
 830:.\inv.c       **** ////				print_data_console("\t Enter Walk\r\n");
ARM GAS  C:\Users\ADMINI~1\AppData\Local\Temp\ccPHzW0f.s 			page 29


 831:.\inv.c       **** ////			if ((bac_state >> 8) & BAC_RUN)
 832:.\inv.c       **** ////				print_data_console("\t Enter Run\r\n");
 833:.\inv.c       **** ////			if ((bac_state >> 8) & BAC_BIKE)
 834:.\inv.c       **** ////				print_data_console("\t Enter Bike\r\n");
 835:.\inv.c       **** ////			if ((bac_state >> 8) & BAC_TILT)
 836:.\inv.c       **** ////				print_data_console("\t Enter Tilt\r\n");
 837:.\inv.c       **** ////			if ((bac_state >> 8) & BAC_STILL)
 838:.\inv.c       **** ////				print_data_console("\t Enter Still\r\n");
 839:.\inv.c       **** ////			if (bac_state & BAC_DRIVE)
 840:.\inv.c       **** ////				print_data_console("\t Exit Drive\r\n");
 841:.\inv.c       **** ////			if (bac_state & BAC_WALK)
 842:.\inv.c       **** ////				print_data_console("\t Exit Walk\r\n");
 843:.\inv.c       **** ////			if (bac_state & BAC_RUN)
 844:.\inv.c       **** ////				print_data_console("\t Exit Run\r\n");
 845:.\inv.c       **** ////			if (bac_state & BAC_BIKE)
 846:.\inv.c       **** ////				print_data_console("\t Exit Bike\r\n");
 847:.\inv.c       **** ////			if (bac_state & BAC_TILT)
 848:.\inv.c       **** ////				print_data_console("\t Exit tilt\r\n");
 849:.\inv.c       **** ////			if (bac_state & BAC_STILL)
 850:.\inv.c       **** ////				print_data_console("\t Exit Still\r\n");
 851:.\inv.c       **** //
 852:.\inv.c       **** //			bac_data_was_set = 0;
 853:.\inv.c       **** //			//bac_prev_ts = ts;
 854:.\inv.c       **** //		}
 855:.\inv.c       **** //	}
 856:.\inv.c       **** //
 857:.\inv.c       **** //	if (hal.report & PRINT_FLIP_PICKUP) {
 858:.\inv.c       **** //		if (flip_data_was_set == 1) {
 859:.\inv.c       **** //			if (flip_pickup == 1){}
 860:.\inv.c       **** //			//	print_data_console("\t Flip Detected\r\n");
 861:.\inv.c       **** //			else if (flip_pickup == 2){}
 862:.\inv.c       **** //			//	print_data_console("\t Pickup Detected\r\n");
 863:.\inv.c       **** //			flip_data_was_set = 0;
 864:.\inv.c       **** //		}
 865:.\inv.c       **** //	}
 866:.\inv.c       **** //
 867:.\inv.c       **** 	if (hal.report & PRINT_TILT) {
 705              		.loc 1 867 0
 706 00b6 2368     		ldr	r3, [r4]
 707 00b8 5A02     		lsl	r2, r3, #9
 708 00ba 06D5     		bpl	.L61
 868:.\inv.c       **** 		if (tilt_data_was_set == 1) {
 709              		.loc 1 868 0
 710 00bc 221C     		mov	r2, r4
 711 00be 7C32     		add	r2, r2, #124
 712 00c0 1188     		ldrh	r1, [r2]
 713 00c2 0129     		cmp	r1, #1
 714 00c4 01D1     		bne	.L61
 869:.\inv.c       **** 			if (tilt_state == 2){}
 870:.\inv.c       **** 			//	print_data_console("\t Tilt Started\r\n");
 871:.\inv.c       **** 			else if (tilt_state == 1){}
 872:.\inv.c       **** 			//	print_data_console("\t Tilt Ended\r\n");
 873:.\inv.c       **** 			tilt_data_was_set = 0;
 715              		.loc 1 873 0
 716 00c6 0021     		mov	r1, #0
 717 00c8 1180     		strh	r1, [r2]
 718              	.L61:
ARM GAS  C:\Users\ADMINI~1\AppData\Local\Temp\ccPHzW0f.s 			page 30


 874:.\inv.c       **** 		}
 875:.\inv.c       **** 	}
 876:.\inv.c       **** #endif     
 877:.\inv.c       ****         if (hal.report & PRINT_STEP_DETECTOR) {
 719              		.loc 1 877 0
 720 00ca 1B05     		lsl	r3, r3, #20
 721 00cc 05D5     		bpl	.L52
 878:.\inv.c       ****                 if (step_detected == 1)
 722              		.loc 1 878 0
 723 00ce 7E34     		add	r4, r4, #126
 724 00d0 2378     		ldrb	r3, [r4]
 725 00d2 012B     		cmp	r3, #1
 726 00d4 01D1     		bne	.L52
 879:.\inv.c       ****                 //    print_data_console("Step Detected>>>>\r\n");
 880:.\inv.c       ****                 step_detected = 0;
 727              		.loc 1 880 0
 728 00d6 0023     		mov	r3, #0
 729 00d8 2370     		strb	r3, [r4]
 730              	.L52:
 881:.\inv.c       ****         }
 882:.\inv.c       **** 
 883:.\inv.c       **** 	
 884:.\inv.c       **** }
 731              		.loc 1 884 0
 732 00da 06B0     		add	sp, sp, #24
 733              		@ sp needed
 734 00dc 10BD     		pop	{r4, pc}
 735              	.L88:
 736 00de C046     		.align	2
 737              	.L87:
 738 00e0 00000000 		.word	.LANCHOR0
 739              		.cfi_endproc
 740              	.LFE48:
 741              		.size	process_sensor_output, .-process_sensor_output
 742              		.global	__aeabi_ldivmod
 743              		.global	__aeabi_i2f
 744              		.global	__aeabi_fadd
 745              		.global	__aeabi_fmul
 746              		.global	__aeabi_fsub
 747              		.global	__aeabi_f2iz
 748              		.section	.text.fifo_handler,"ax",%progbits
 749              		.align	1
 750              		.global	fifo_handler
 751              		.code	16
 752              		.thumb_func
 753              		.type	fifo_handler, %function
 754              	fifo_handler:
 755              	.LFB49:
 885:.\inv.c       **** 
 886:.\inv.c       **** void fifo_handler()
 887:.\inv.c       **** {
 756              		.loc 1 887 0
 757              		.cfi_startproc
 758 0000 F0B5     		push	{r4, r5, r6, r7, lr}
 759              		.cfi_def_cfa_offset 20
 760              		.cfi_offset 4, -20
 761              		.cfi_offset 5, -16
ARM GAS  C:\Users\ADMINI~1\AppData\Local\Temp\ccPHzW0f.s 			page 31


 762              		.cfi_offset 6, -12
 763              		.cfi_offset 7, -8
 764              		.cfi_offset 14, -4
 888:.\inv.c       **** 	short              int_read_back = 0;
 765              		.loc 1 888 0
 766 0002 0025     		mov	r5, #0
 887:.\inv.c       **** 	short              int_read_back = 0;
 767              		.loc 1 887 0
 768 0004 ADB0     		sub	sp, sp, #180
 769              		.cfi_def_cfa_offset 200
 770              		.loc 1 888 0
 771 0006 02AB     		add	r3, sp, #8
 772 0008 1D80     		strh	r5, [r3]
 889:.\inv.c       **** 	unsigned short     header = 0, header2 = 0;
 773              		.loc 1 889 0
 774 000a 9C1C     		add	r4, r3, #2
 775 000c 03AB     		add	r3, sp, #12
 776 000e 1D80     		strh	r5, [r3]
 890:.\inv.c       **** 	int data_left_in_fifo = 0;
 891:.\inv.c       **** 	short short_data[3] = { 0 };
 892:.\inv.c       **** 	signed long  long_data[3] = { 0 };
 777              		.loc 1 892 0
 778 0010 291C     		mov	r1, r5
 891:.\inv.c       **** 	signed long  long_data[3] = { 0 };
 779              		.loc 1 891 0
 780 0012 05AB     		add	r3, sp, #20
 781              		.loc 1 892 0
 782 0014 0C22     		mov	r2, #12
 783 0016 07A8     		add	r0, sp, #28
 891:.\inv.c       **** 	signed long  long_data[3] = { 0 };
 784              		.loc 1 891 0
 785 0018 9D80     		strh	r5, [r3, #4]
 889:.\inv.c       **** 	unsigned short     header = 0, header2 = 0;
 786              		.loc 1 889 0
 787 001a 2580     		strh	r5, [r4]
 890:.\inv.c       **** 	int data_left_in_fifo = 0;
 788              		.loc 1 890 0
 789 001c 0495     		str	r5, [sp, #16]
 891:.\inv.c       **** 	signed long  long_data[3] = { 0 };
 790              		.loc 1 891 0
 791 001e 0595     		str	r5, [sp, #20]
 792              		.loc 1 892 0
 793 0020 FFF7FEFF 		bl	memset
 794              	.LVL64:
 893:.\inv.c       **** 	signed long  long_quat[3] = { 0 };
 795              		.loc 1 893 0
 796 0024 291C     		mov	r1, r5
 797 0026 0C22     		mov	r2, #12
 798 0028 0AA8     		add	r0, sp, #40
 799 002a FFF7FEFF 		bl	memset
 800              	.LVL65:
 894:.\inv.c       **** 	static mpu_time_t lastIrqTimeUs = 0;
 895:.\inv.c       **** 	static mpu_time_t currentIrqTimeUs = 0;
 896:.\inv.c       **** 	unsigned short sample_cnt_array[GENERAL_SENSORS_MAX] = { 0 };
 801              		.loc 1 896 0
 802 002e 6222     		mov	r2, #98
 803 0030 291C     		mov	r1, r5
ARM GAS  C:\Users\ADMINI~1\AppData\Local\Temp\ccPHzW0f.s 			page 32


 804 0032 13A8     		add	r0, sp, #76
 805 0034 FFF7FEFF 		bl	memset
 806              	.LVL66:
 897:.\inv.c       ****         
 898:.\inv.c       **** 	// Process Incoming INT and Get/Pack FIFO Data
 899:.\inv.c       **** 	inv_identify_interrupt(&int_read_back);
 807              		.loc 1 899 0
 808 0038 02A8     		add	r0, sp, #8
 809 003a FFF7FEFF 		bl	inv_identify_interrupt
 810              	.LVL67:
 900:.\inv.c       **** #if (MEMS_CHIP != HW_ICM20609)
 901:.\inv.c       **** 	if (int_read_back & (BIT_MSG_DMP_INT | BIT_MSG_DMP_INT_0 | BIT_MSG_DMP_INT_2 | BIT_MSG_DMP_INT_5))
 811              		.loc 1 901 0
 812 003e 02AB     		add	r3, sp, #8
 813 0040 1A88     		ldrh	r2, [r3]
 814 0042 D84B     		ldr	r3, .L178
 815 0044 1A42     		tst	r2, r3
 816 0046 00D1     		bne	.LCB728
 817 0048 DEE1     		b	.L89	@long jump
 818              	.LCB728:
 819              	.LBB11:
 902:.\inv.c       **** #else
 903:.\inv.c       ****         if (int_read_back & BIT_DMP_INT_CI)
 904:.\inv.c       **** #endif
 905:.\inv.c       ****         {
 906:.\inv.c       **** 		// Read FIFO contents and parse it.
 907:.\inv.c       **** 		unsigned short total_sample_cnt = 0;
 820              		.loc 1 907 0
 821 004a 02AB     		add	r3, sp, #8
 822 004c DD80     		strh	r5, [r3, #6]
 823              	.L99:
 908:.\inv.c       **** 		//currentIrqTimeUs = inv_get_tick_count();	
 909:.\inv.c       ****                         
 910:.\inv.c       ****                         do {
 911:.\inv.c       **** 			
 912:.\inv.c       ****         
 913:.\inv.c       **** 			if (inv_mems_fifo_swmirror(&data_left_in_fifo, &total_sample_cnt, sample_cnt_array))
 824              		.loc 1 913 0
 825 004e 02AB     		add	r3, sp, #8
 826 0050 9E1D     		add	r6, r3, #6
 827 0052 04A8     		add	r0, sp, #16
 828 0054 311C     		mov	r1, r6
 829 0056 13AA     		add	r2, sp, #76
 830 0058 FFF7FEFF 		bl	inv_mems_fifo_swmirror
 831              	.LVL68:
 832 005c 071E     		sub	r7, r0, #0
 833 005e 04D0     		beq	.L91
 834              	.L98:
 914:.\inv.c       ****                           break;
 915:.\inv.c       ****                         
 916:.\inv.c       **** 			if (lastIrqTimeUs != 0)
 917:.\inv.c       **** 				ts = (currentIrqTimeUs - lastIrqTimeUs) / total_sample_cnt;
 918:.\inv.c       ****                         
 919:.\inv.c       **** 			lastIrqTimeUs = currentIrqTimeUs;
 920:.\inv.c       ****                         while (total_sample_cnt--){
 921:.\inv.c       **** 				if (inv_mems_fifo_pop(&header, &header2, &data_left_in_fifo))
 922:.\inv.c       **** 					break;
ARM GAS  C:\Users\ADMINI~1\AppData\Local\Temp\ccPHzW0f.s 			page 33


 923:.\inv.c       **** 
 924:.\inv.c       **** 				if (header & ACCEL_SET) {
 925:.\inv.c       **** 					float scale;
 926:.\inv.c       **** 
 927:.\inv.c       **** 					accel_data_was_set = 1;
 928:.\inv.c       **** 					dmp_get_accel(long_data);
 929:.\inv.c       **** 
 930:.\inv.c       **** 					accel_accuracy = inv_get_accel_accuracy();
 931:.\inv.c       **** 					scale = (1 << inv_get_accel_fullscale()) * 2.f / (1L << 30); // Convert from raw units to g's
 932:.\inv.c       **** 					scale *= 9.80665f; // Convert to m/s^2
 933:.\inv.c       **** 					inv_convert_dmp3_to_body(long_data, scale, accel_float);
 934:.\inv.c       **** 					
 935:.\inv.c       **** 					BackBone_SetAccelerometerData(accel_float[0], accel_float[1], accel_float[2], 0);
 936:.\inv.c       **** 				}
 937:.\inv.c       **** 
 938:.\inv.c       **** 
 939:.\inv.c       **** 				if (header & GYRO_SET) {
 940:.\inv.c       **** 					float scale;
 941:.\inv.c       **** 					signed long  raw_data[3] = { 0 };
 942:.\inv.c       **** #if ((MEMS_CHIP == HW_ICM30630) || (MEMS_CHIP == HW_ICM20648) || (MEMS_CHIP == HW_ICM20609))
 943:.\inv.c       **** 					signed long  bias_data[3] = { 0 };
 944:.\inv.c       **** #endif
 945:.\inv.c       **** 
 946:.\inv.c       **** 					raw_gyro_data_was_set = 1;
 947:.\inv.c       **** 					dmp_get_raw_gyro(short_data);
 948:.\inv.c       ****                                         scale = (1 << inv_get_gyro_fullscale()) * 250.f / (1L << 15
 949:.\inv.c       **** 					scale *= (float)M_PI / 180.f; // Convert to radian.
 950:.\inv.c       ****                                         raw_data[0] = (long)short_data[0];
 951:.\inv.c       ****                                         raw_data[1] = (long)short_data[1];
 952:.\inv.c       ****                                         raw_data[2] = (long)short_data[2];
 953:.\inv.c       ****                                         inv_convert_dmp3_to_body(raw_data, scale, gyro_raw_float);
 954:.\inv.c       **** 					
 955:.\inv.c       **** 					BackBone_SetGyroscopeData(gyro_float[0], gyro_float[1], gyro_float[2]);
 956:.\inv.c       **** 										
 957:.\inv.c       **** 										
 958:.\inv.c       **** #if ((MEMS_CHIP == HW_ICM30630) || (MEMS_CHIP == HW_ICM20648))
 959:.\inv.c       ****                                       // We have gyro bias data in raw units, scaled by 2^5
 960:.\inv.c       ****                                         scale = (1 << inv_get_gyro_fullscale()) * 250.f / (1L << 20
 961:.\inv.c       **** 					scale *= (float)M_PI / 180.f; // Convert to radian.
 962:.\inv.c       **** 					dmp_get_gyro_bias(short_data);
 963:.\inv.c       **** 					bias_data[0] = (long)short_data[0];
 964:.\inv.c       **** 					bias_data[1] = (long)short_data[1];
 965:.\inv.c       **** 					bias_data[2] = (long)short_data[2];
 966:.\inv.c       **** 					inv_convert_dmp3_to_body(bias_data, scale, gyro_bias_float);
 967:.\inv.c       **** 
 968:.\inv.c       ****                                       if(hal.report & PRINT_GYRO){
 969:.\inv.c       **** 					// shift to Q20 to do all operations in Q20
 970:.\inv.c       **** 					raw_data[0] = raw_data[0] << 5;
 971:.\inv.c       **** 					raw_data[1] = raw_data[1] << 5;
 972:.\inv.c       **** 					raw_data[2] = raw_data[2] << 5;
 973:.\inv.c       **** 					inv_mems_dmp_get_calibrated_gyro(long_data, raw_data, bias_data);
 974:.\inv.c       **** 					inv_convert_dmp3_to_body(long_data, scale, gyro_float);
 975:.\inv.c       ****                                         gyro_data_was_set = 1;
 976:.\inv.c       ****                                       }
 977:.\inv.c       ****                                       gyro_accuracy = inv_get_gyro_accuracy();
 978:.\inv.c       ****                                       
 979:.\inv.c       **** #elif (MEMS_CHIP == HW_ICM20609)           
ARM GAS  C:\Users\ADMINI~1\AppData\Local\Temp\ccPHzW0f.s 			page 34


 980:.\inv.c       ****                                       dmp_get_gyro_bias(bias_data);
 981:.\inv.c       ****                                         scale = (1 << inv_get_gyro_fullscale()) * 250.f / (1L << 20
 982:.\inv.c       **** 					scale *= (float)M_PI / 180.f; // Convert to radian.
 983:.\inv.c       ****                                         inv_convert_dmp3_to_body(bias_data, scale, gyro_bias_float)
 984:.\inv.c       ****                                         
 985:.\inv.c       ****                                       if(hal.report & PRINT_GYRO){                                 
 986:.\inv.c       ****                                         inv_mems_dmp_get_calibrated_gyro(long_data, short_data, bia
 987:.\inv.c       **** 					// shift to Q30 to do all operations in Q30
 988:.\inv.c       **** 					scale = (1 << inv_get_gyro_fullscale()) * 250.f / (1L << 30); // From raw to dps
 989:.\inv.c       **** 					scale *= (float)M_PI / 180.f; // Convert to radian.
 990:.\inv.c       **** 					
 991:.\inv.c       **** 					inv_convert_dmp3_to_body(long_data, scale, gyro_float);
 992:.\inv.c       ****                                         
 993:.\inv.c       ****                                         gyro_data_was_set = 1;
 994:.\inv.c       ****                                       }
 995:.\inv.c       ****                                       if((bias_data[0] != 0) && (bias_data[1] != 0) && (bias_data[2
 996:.\inv.c       ****                                         gyro_accuracy = 3;
 997:.\inv.c       **** #endif
 998:.\inv.c       **** 				}
 999:.\inv.c       **** 
1000:.\inv.c       **** 				if (header & GYRO_CALIBR_SET) {
1001:.\inv.c       **** #if ((MEMS_CHIP != HW_ICM30630) && (MEMS_CHIP != HW_ICM20648))
1002:.\inv.c       **** 					float scale;
1003:.\inv.c       **** 					gyro_data_was_set = 1;
1004:.\inv.c       **** 					dmp_get_calibrated_gyro(long_data);
1005:.\inv.c       **** 
1006:.\inv.c       **** 					gyro_accuracy = inv_get_gyro_accuracy();
1007:.\inv.c       **** 					// We have gyro data in raw units, scaled by 2^15
1008:.\inv.c       **** 					scale = (1 << inv_get_gyro_fullscale()) * 250.f / (1L << 30); // From raw to dps
1009:.\inv.c       **** 					scale *= (float)M_PI / 180.f; // Convert to radian.
1010:.\inv.c       **** 					inv_convert_dmp3_to_body(long_data, scale, gyro_float);
1011:.\inv.c       **** #endif
1012:.\inv.c       **** 				}
1013:.\inv.c       **** #if (MEMS_CHIP != HW_ICM20609)
1014:.\inv.c       **** 				if (header & CPASS_CALIBR_SET) {
1015:.\inv.c       **** 					float scale;
1016:.\inv.c       **** 					compass_data_was_set = 1;
1017:.\inv.c       **** 					dmp_get_calibrated_compass(long_data);
1018:.\inv.c       **** 					compass_accuracy = inv_get_mag_accuracy();
1019:.\inv.c       **** 					scale = 1.52587890625e-005f; //COMPASS_CONVERSION
1020:.\inv.c       **** 					inv_convert_dmp3_to_body(long_data, scale, compass_float);
1021:.\inv.c       **** 				}
1022:.\inv.c       **** 
1023:.\inv.c       **** 				if (header & CPASS_SET) {
1024:.\inv.c       **** 					// Raw compass [DMP]
1025:.\inv.c       **** 					dmp_get_raw_compass(long_data);
1026:.\inv.c       **** 					compass_raw_float[0] = long_data[0] * 1.52587890625e-005f;
1027:.\inv.c       **** 					compass_raw_float[1] = long_data[1] * 1.52587890625e-005f;
1028:.\inv.c       **** 					compass_raw_float[2] = long_data[2] * 1.52587890625e-005f;
1029:.\inv.c       ****                                         compass_bias[0] = compass_raw_float[0] - compass_float[0];
1030:.\inv.c       ****                                         compass_bias[1] = compass_raw_float[1] - compass_float[1];
1031:.\inv.c       ****                                         compass_bias[2] = compass_raw_float[2] - compass_float[2];
1032:.\inv.c       **** 					raw_compass_data_was_set = 1;
1033:.\inv.c       **** 				}
1034:.\inv.c       **** #endif
1035:.\inv.c       **** 
1036:.\inv.c       **** 				if (header & QUAT6_SET) {
ARM GAS  C:\Users\ADMINI~1\AppData\Local\Temp\ccPHzW0f.s 			page 35


1037:.\inv.c       **** 					quat6_data_was_set = 1;
1038:.\inv.c       **** 					
1039:.\inv.c       **** 					dmp_get_6quaternion(long_quat);
1040:.\inv.c       ****                                         inv_convert_rotation_vector(long_quat, grv_float);
1041:.\inv.c       **** #if defined MEMS_AUGMENTED_SENSORS
1042:.\inv.c       ****                                         long gravityQ16[3], temp_gravityQ16[3];
1043:.\inv.c       **** 					long linAccQ16[3];
1044:.\inv.c       **** 					long accelQ16[3];
1045:.\inv.c       ****                                         /*Calculate Gravity*/
1046:.\inv.c       ****                                           inv_convert_rotation_vector_1(long_quat, temp_gravityQ16)
1047:.\inv.c       ****                                           inv_mems_augmented_sensors_get_gravity(gravityQ16, temp_g
1048:.\inv.c       ****                                           gravityFloat[0] = inv_q16_to_float(gravityQ16[0]);
1049:.\inv.c       ****                                           gravityFloat[1] = inv_q16_to_float(gravityQ16[1]);
1050:.\inv.c       ****                                           gravityFloat[2] = inv_q16_to_float(gravityQ16[2]);
1051:.\inv.c       ****                                         /*Calculate Linear Acceleration*/
1052:.\inv.c       ****                                           accelQ16[0] = (int32_t)((float)(accel_float[0])*(1ULL << 
1053:.\inv.c       ****                                           accelQ16[1] = (int32_t)((float)(accel_float[1])*(1ULL << 
1054:.\inv.c       ****                                           accelQ16[2] = (int32_t)((float)(accel_float[2])*(1ULL << 
1055:.\inv.c       ****                                           inv_mems_augmented_sensors_get_linearacceleration(linAccQ
1056:.\inv.c       ****                                           linAccFloat[0] = inv_q16_to_float(linAccQ16[0]);
1057:.\inv.c       ****                                           linAccFloat[1] = inv_q16_to_float(linAccQ16[1]);
1058:.\inv.c       ****                                           linAccFloat[2] = inv_q16_to_float(linAccQ16[2]);
1059:.\inv.c       **** #endif                
1060:.\inv.c       **** 				}
1061:.\inv.c       **** #if (MEMS_CHIP != HW_ICM20609)
1062:.\inv.c       **** 				/* 9axis orientation quaternion sample available from DMP FIFO */
1063:.\inv.c       **** 				if (header & QUAT9_SET) {
1064:.\inv.c       **** #if defined MEMS_AUGMENTED_SENSORS
1065:.\inv.c       **** 					long orientationQ16[3],temp_orientationQ16[3];
1066:.\inv.c       **** #endif
1067:.\inv.c       **** 
1068:.\inv.c       **** 					quat9_data_was_set = 1;
1069:.\inv.c       **** 					dmp_get_9quaternion(long_quat);
1070:.\inv.c       **** #if (MEMS_CHIP == HW_ICM20630 || MEMS_CHIP == HW_ICM20648)
1071:.\inv.c       **** 					rv_accuracy = (int)((float)inv_get_rv_accuracy() / (float)(1ULL << (29)));
1072:.\inv.c       **** #else
1073:.\inv.c       **** 					compass_accuracy = inv_get_mag_accuracy();
1074:.\inv.c       **** #endif
1075:.\inv.c       **** 					inv_convert_rotation_vector(long_quat, rv_float);
1076:.\inv.c       **** 
1077:.\inv.c       **** #if defined MEMS_AUGMENTED_SENSORS
1078:.\inv.c       ****                                         if(hal.report & PRINT_ORIENT){
1079:.\inv.c       ****                                           inv_convert_rotation_vector_1(long_quat, temp_orientation
1080:.\inv.c       ****                                           inv_mems_augmented_sensors_get_orientation(orientationQ16
1081:.\inv.c       ****                                           orientationFloat[0] = inv_q16_to_float(orientationQ16[0])
1082:.\inv.c       ****                                           orientationFloat[1] = inv_q16_to_float(orientationQ16[1])
1083:.\inv.c       ****                                           orientationFloat[2] = inv_q16_to_float(orientationQ16[2])
1084:.\inv.c       ****                                         }
1085:.\inv.c       **** #endif
1086:.\inv.c       **** 				}
1087:.\inv.c       **** 
1088:.\inv.c       **** #if (MEMS_CHIP == HW_ICM20648) 
1089:.\inv.c       **** 				/* 6axis AM orientation quaternion sample available from DMP FIFO */
1090:.\inv.c       **** 				if (header & GEOMAG_SET) {
1091:.\inv.c       **** 					/* Read 6 axis quaternion out of DMP FIFO in Q30 and convert it to Android format */
1092:.\inv.c       **** 					dmp_get_gmrvquaternion(long_quat);
1093:.\inv.c       ****                                         if(hal.report & PRINT_CUBE_GEOMAG)
ARM GAS  C:\Users\ADMINI~1\AppData\Local\Temp\ccPHzW0f.s 			page 36


1094:.\inv.c       ****                                                 inv_compute_scalar_part(long_quat, cube_gmrv);
1095:.\inv.c       ****                                         if(hal.report & PRINT_GEOMAG){
1096:.\inv.c       ****                                                 inv_convert_rotation_vector(long_quat, gmrv_float);
1097:.\inv.c       ****                                                 /* Read geomagnetic rotation vector heading accurac
1098:.\inv.c       ****                                                 gmrv_accuracy = (int)((float)inv_get_gmrv_accuracy(
1099:.\inv.c       ****                                         }
1100:.\inv.c       ****                                         gmrv_quat_was_set = 1;
1101:.\inv.c       **** 				}
1102:.\inv.c       **** #endif
1103:.\inv.c       **** 
1104:.\inv.c       ****                                 
1105:.\inv.c       **** #if (MEMS_CHIP == HW_ICM20645e) || (MEMS_CHIP == HW_ICM20648) 
1106:.\inv.c       **** 				/* Activity recognition sample available from DMP FIFO */
1107:.\inv.c       **** 				if (header2 & ACT_RECOG_SET) {
1108:.\inv.c       **** 					/* Read activity type and associated timestamp out of DMP FIFO
1109:.\inv.c       **** 					activity type is a set of 2 bytes :
1110:.\inv.c       **** 					- high byte indicates activity start
1111:.\inv.c       **** 					- low byte indicates activity end */
1112:.\inv.c       **** 					dmp_get_bac_state(&bac_state);
1113:.\inv.c       **** 					dmp_get_bac_ts(&bac_ts);
1114:.\inv.c       **** 
1115:.\inv.c       **** 					if (hal.report & PRINT_TILT) {
1116:.\inv.c       **** 						/* Tilt information is inside BAC, so extract it out */
1117:.\inv.c       **** 
1118:.\inv.c       **** 						/* Check if bit tilt is set for activity start byte */
1119:.\inv.c       **** 						if ((bac_state >> 8) & BAC_TILT) {
1120:.\inv.c       **** 							/* Start of tilt detected */
1121:.\inv.c       **** 							tilt_state = 2;
1122:.\inv.c       **** 						}
1123:.\inv.c       **** 						/* Check if bit tilt is set for activity end byte */
1124:.\inv.c       **** 						else if (bac_state & BAC_TILT) {
1125:.\inv.c       **** 							/* End of tilt detected */
1126:.\inv.c       **** 							tilt_state = 1;
1127:.\inv.c       **** 						}
1128:.\inv.c       **** 
1129:.\inv.c       **** 					}
1130:.\inv.c       **** 
1131:.\inv.c       **** 					if (hal.report & PRINT_BAC)
1132:.\inv.c       **** 						bac_data_was_set = 1;
1133:.\inv.c       **** 					if (hal.report & PRINT_TILT)
1134:.\inv.c       **** 						tilt_data_was_set = 1;
1135:.\inv.c       **** 				}
1136:.\inv.c       **** 
1137:.\inv.c       **** 				if (header2 & FLIP_PICKUP_SET) {
1138:.\inv.c       **** 					if (hal.report & PRINT_FLIP_PICKUP) {
1139:.\inv.c       **** 						dmp_get_flip_pickup_state(&flip_pickup);
1140:.\inv.c       **** 						flip_data_was_set = 1;
1141:.\inv.c       **** 					}
1142:.\inv.c       **** 				}
1143:.\inv.c       **** #endif
1144:.\inv.c       **** #endif
1145:.\inv.c       **** 
1146:.\inv.c       **** 				process_sensor_output();
1147:.\inv.c       **** 			}
1148:.\inv.c       **** 			if (!data_left_in_fifo)
1149:.\inv.c       **** 				break;
1150:.\inv.c       **** 
ARM GAS  C:\Users\ADMINI~1\AppData\Local\Temp\ccPHzW0f.s 			page 37


1151:.\inv.c       **** 		} while (data_left_in_fifo);
1152:.\inv.c       **** 
1153:.\inv.c       **** #if (MEMS_CHIP == HW_ICM20609)                
1154:.\inv.c       **** 		if (int_read_back & DMP_INT_SMD) {
1155:.\inv.c       ****                   if (hal.report & PRINT_SMD){
1156:.\inv.c       **** 				print_command_console(">> SMD Interrupt *********\r\n");
1157:.\inv.c       ****                   }
1158:.\inv.c       ****                         
1159:.\inv.c       **** 		}
1160:.\inv.c       **** #endif
1161:.\inv.c       **** #if (MEMS_CHIP != HW_ICM20609)                
1162:.\inv.c       ****                 if (int_read_back & BIT_MSG_DMP_INT_3) {
1163:.\inv.c       **** #else
1164:.\inv.c       **** 		if (int_read_back & DMP_INT_PED) {
1165:.\inv.c       **** #endif                  
1166:.\inv.c       ****                   if (hal.report & PRINT_STEP_DETECTOR){
1167:.\inv.c       **** //				print_command_console("Step Detected>>>>>>>\r\n");
1168:.\inv.c       ****                                 
1169:.\inv.c       ****                   }
1170:.\inv.c       ****                 }
1171:.\inv.c       **** #if (MEMS_CHIP != HW_ICM20609)                
1172:.\inv.c       ****                 if (header & PED_STEPDET_SET){
 835              		.loc 1 1172 0
 836 0060 2388     		ldrh	r3, [r4]
 837 0062 DB06     		lsl	r3, r3, #27
 838 0064 00D5     		bpl	.LCB750
 839 0066 BDE1     		b	.L92	@long jump
 840              	.LCB750:
 841 0068 CEE1     		b	.L89
 842              	.L91:
 916:.\inv.c       **** 				ts = (currentIrqTimeUs - lastIrqTimeUs) / total_sample_cnt;
 843              		.loc 1 916 0
 844 006a CF4D     		ldr	r5, .L178+4
 845 006c 2A68     		ldr	r2, [r5]
 846 006e 6B68     		ldr	r3, [r5, #4]
 847 0070 111C     		mov	r1, r2
 848 0072 1943     		orr	r1, r3
 849 0074 08D0     		beq	.L94
 917:.\inv.c       ****                         
 850              		.loc 1 917 0
 851 0076 0021     		mov	r1, #0
 852 0078 5042     		neg	r0, r2
 853 007a 9941     		sbc	r1, r3
 854 007c 3288     		ldrh	r2, [r6]
 855 007e 3B1C     		mov	r3, r7
 856 0080 FFF7FEFF 		bl	__aeabi_ldivmod
 857              	.LVL69:
 858 0084 A860     		str	r0, [r5, #8]
 859 0086 E960     		str	r1, [r5, #12]
 860              	.L94:
 919:.\inv.c       ****                         while (total_sample_cnt--){
 861              		.loc 1 919 0
 862 0088 0022     		mov	r2, #0
 863 008a 0023     		mov	r3, #0
 864 008c 2A60     		str	r2, [r5]
 865 008e 6B60     		str	r3, [r5, #4]
 866              	.L96:
ARM GAS  C:\Users\ADMINI~1\AppData\Local\Temp\ccPHzW0f.s 			page 38


 920:.\inv.c       **** 				if (inv_mems_fifo_pop(&header, &header2, &data_left_in_fifo))
 867              		.loc 1 920 0
 868 0090 02AB     		add	r3, sp, #8
 869 0092 9A1D     		add	r2, r3, #6
 870 0094 DB88     		ldrh	r3, [r3, #6]
 871 0096 591E     		sub	r1, r3, #1
 872 0098 1180     		strh	r1, [r2]
 873 009a 002B     		cmp	r3, #0
 874 009c 06D0     		beq	.L118
 921:.\inv.c       **** 					break;
 875              		.loc 1 921 0
 876 009e 201C     		mov	r0, r4
 877 00a0 03A9     		add	r1, sp, #12
 878 00a2 04AA     		add	r2, sp, #16
 879 00a4 FFF7FEFF 		bl	inv_mems_fifo_pop
 880              	.LVL70:
 881 00a8 0028     		cmp	r0, #0
 882 00aa 03D0     		beq	.L97
 883              	.L118:
1148:.\inv.c       **** 				break;
 884              		.loc 1 1148 0
 885 00ac 049B     		ldr	r3, [sp, #16]
 886 00ae 002B     		cmp	r3, #0
 887 00b0 CDD1     		bne	.L99
 888 00b2 D5E7     		b	.L98
 889              	.L97:
 924:.\inv.c       **** 					float scale;
 890              		.loc 1 924 0
 891 00b4 0022     		mov	r2, #0
 892 00b6 A35E     		ldrsh	r3, [r4, r2]
 893 00b8 002B     		cmp	r3, #0
 894 00ba 26DA     		bge	.L100
 895              	.LBB12:
 927:.\inv.c       **** 					dmp_get_accel(long_data);
 896              		.loc 1 927 0
 897 00bc BB4E     		ldr	r6, .L178+8
 898 00be 0125     		mov	r5, #1
 899 00c0 331C     		mov	r3, r6
 928:.\inv.c       **** 
 900              		.loc 1 928 0
 901 00c2 07A8     		add	r0, sp, #28
 927:.\inv.c       **** 					dmp_get_accel(long_data);
 902              		.loc 1 927 0
 903 00c4 5433     		add	r3, r3, #84
 904 00c6 1D80     		strh	r5, [r3]
 928:.\inv.c       **** 
 905              		.loc 1 928 0
 906 00c8 FFF7FEFF 		bl	dmp_get_accel
 907              	.LVL71:
 930:.\inv.c       **** 					scale = (1 << inv_get_accel_fullscale()) * 2.f / (1L << 30); // Convert from raw units to g's
 908              		.loc 1 930 0
 909 00cc FFF7FEFF 		bl	inv_get_accel_accuracy
 910              	.LVL72:
 911 00d0 B065     		str	r0, [r6, #88]
 931:.\inv.c       **** 					scale *= 9.80665f; // Convert to m/s^2
 912              		.loc 1 931 0
 913 00d2 FFF7FEFF 		bl	inv_get_accel_fullscale
ARM GAS  C:\Users\ADMINI~1\AppData\Local\Temp\ccPHzW0f.s 			page 39


 914              	.LVL73:
 915 00d6 8540     		lsl	r5, r5, r0
 916 00d8 281C     		mov	r0, r5
 917 00da FFF7FEFF 		bl	__aeabi_i2f
 918              	.LVL74:
 919 00de 011C     		add	r1, r0, #0
 920 00e0 FFF7FEFF 		bl	__aeabi_fadd
 921              	.LVL75:
 922 00e4 C221     		mov	r1, #194
 923 00e6 8905     		lsl	r1, r1, #22
 924 00e8 FFF7FEFF 		bl	__aeabi_fmul
 925              	.LVL76:
 932:.\inv.c       **** 					inv_convert_dmp3_to_body(long_data, scale, accel_float);
 926              		.loc 1 932 0
 927 00ec B049     		ldr	r1, .L178+12
 928 00ee FFF7FEFF 		bl	__aeabi_fmul
 929              	.LVL77:
 933:.\inv.c       **** 					
 930              		.loc 1 933 0
 931 00f2 B04D     		ldr	r5, .L178+16
 932:.\inv.c       **** 					inv_convert_dmp3_to_body(long_data, scale, accel_float);
 932              		.loc 1 932 0
 933 00f4 011C     		add	r1, r0, #0
 933:.\inv.c       **** 					
 934              		.loc 1 933 0
 935 00f6 2A1C     		mov	r2, r5
 936 00f8 07A8     		add	r0, sp, #28
 937 00fa FFF7FEFF 		bl	inv_convert_dmp3_to_body
 938              	.LVL78:
 935:.\inv.c       **** 				}
 939              		.loc 1 935 0
 940 00fe 2868     		ldr	r0, [r5]
 941 0100 6968     		ldr	r1, [r5, #4]
 942 0102 AA68     		ldr	r2, [r5, #8]
 943 0104 0023     		mov	r3, #0
 944 0106 FFF7FEFF 		bl	BackBone_SetAccelerometerData
 945              	.LVL79:
 946              	.L100:
 947              	.LBE12:
 939:.\inv.c       **** 					float scale;
 948              		.loc 1 939 0
 949 010a 2388     		ldrh	r3, [r4]
 950 010c 5B04     		lsl	r3, r3, #17
 951 010e 76D5     		bpl	.L101
 952              	.LBB13:
 946:.\inv.c       **** 					dmp_get_raw_gyro(short_data);
 953              		.loc 1 946 0
 954 0110 0126     		mov	r6, #1
 941:.\inv.c       **** #if ((MEMS_CHIP == HW_ICM30630) || (MEMS_CHIP == HW_ICM20648) || (MEMS_CHIP == HW_ICM20609))
 955              		.loc 1 941 0
 956 0112 0021     		mov	r1, #0
 957 0114 0C22     		mov	r2, #12
 958 0116 0DA8     		add	r0, sp, #52
 959 0118 FFF7FEFF 		bl	memset
 960              	.LVL80:
 943:.\inv.c       **** #endif
 961              		.loc 1 943 0
ARM GAS  C:\Users\ADMINI~1\AppData\Local\Temp\ccPHzW0f.s 			page 40


 962 011c 0C22     		mov	r2, #12
 963 011e 0021     		mov	r1, #0
 964 0120 10A8     		add	r0, sp, #64
 965 0122 FFF7FEFF 		bl	memset
 966              	.LVL81:
 947:.\inv.c       ****                                         scale = (1 << inv_get_gyro_fullscale()) * 250.f / (1L << 15
 967              		.loc 1 947 0
 968 0126 05AD     		add	r5, sp, #20
 946:.\inv.c       **** 					dmp_get_raw_gyro(short_data);
 969              		.loc 1 946 0
 970 0128 9F4B     		ldr	r3, .L178+4
 947:.\inv.c       ****                                         scale = (1 << inv_get_gyro_fullscale()) * 250.f / (1L << 15
 971              		.loc 1 947 0
 972 012a 281C     		mov	r0, r5
 946:.\inv.c       **** 					dmp_get_raw_gyro(short_data);
 973              		.loc 1 946 0
 974 012c 1E82     		strh	r6, [r3, #16]
 947:.\inv.c       ****                                         scale = (1 << inv_get_gyro_fullscale()) * 250.f / (1L << 15
 975              		.loc 1 947 0
 976 012e FFF7FEFF 		bl	dmp_get_raw_gyro
 977              	.LVL82:
 948:.\inv.c       **** 					scale *= (float)M_PI / 180.f; // Convert to radian.
 978              		.loc 1 948 0
 979 0132 FFF7FEFF 		bl	inv_get_gyro_fullscale
 980              	.LVL83:
 981 0136 331C     		mov	r3, r6
 982 0138 8340     		lsl	r3, r3, r0
 983 013a 181C     		mov	r0, r3
 984 013c FFF7FEFF 		bl	__aeabi_i2f
 985              	.LVL84:
 986 0140 9D49     		ldr	r1, .L178+20
 987 0142 FFF7FEFF 		bl	__aeabi_fmul
 988              	.LVL85:
 989 0146 E021     		mov	r1, #224
 990 0148 8905     		lsl	r1, r1, #22
 991 014a FFF7FEFF 		bl	__aeabi_fmul
 992              	.LVL86:
 950:.\inv.c       ****                                         raw_data[1] = (long)short_data[1];
 993              		.loc 1 950 0
 994 014e 0022     		mov	r2, #0
 995 0150 AB5E     		ldrsh	r3, [r5, r2]
 949:.\inv.c       ****                                         raw_data[0] = (long)short_data[0];
 996              		.loc 1 949 0
 997 0152 9A49     		ldr	r1, .L178+24
 950:.\inv.c       ****                                         raw_data[1] = (long)short_data[1];
 998              		.loc 1 950 0
 999 0154 0D93     		str	r3, [sp, #52]
 951:.\inv.c       ****                                         raw_data[2] = (long)short_data[2];
 1000              		.loc 1 951 0
 1001 0156 0222     		mov	r2, #2
 1002 0158 AB5E     		ldrsh	r3, [r5, r2]
 1003 015a 0E93     		str	r3, [sp, #56]
 952:.\inv.c       ****                                         inv_convert_dmp3_to_body(raw_data, scale, gyro_raw_float);
 1004              		.loc 1 952 0
 1005 015c 0422     		mov	r2, #4
 1006 015e AB5E     		ldrsh	r3, [r5, r2]
 1007 0160 0F93     		str	r3, [sp, #60]
ARM GAS  C:\Users\ADMINI~1\AppData\Local\Temp\ccPHzW0f.s 			page 41


 949:.\inv.c       ****                                         raw_data[0] = (long)short_data[0];
 1008              		.loc 1 949 0
 1009 0162 FFF7FEFF 		bl	__aeabi_fmul
 1010              	.LVL87:
 953:.\inv.c       **** 					
 1011              		.loc 1 953 0
 1012 0166 964A     		ldr	r2, .L178+28
 949:.\inv.c       ****                                         raw_data[0] = (long)short_data[0];
 1013              		.loc 1 949 0
 1014 0168 011C     		add	r1, r0, #0
 953:.\inv.c       **** 					
 1015              		.loc 1 953 0
 1016 016a 0DA8     		add	r0, sp, #52
 1017 016c FFF7FEFF 		bl	inv_convert_dmp3_to_body
 1018              	.LVL88:
 955:.\inv.c       **** 										
 1019              		.loc 1 955 0
 1020 0170 944F     		ldr	r7, .L178+32
 1021 0172 BA68     		ldr	r2, [r7, #8]
 1022 0174 7968     		ldr	r1, [r7, #4]
 1023 0176 3868     		ldr	r0, [r7]
 1024 0178 FFF7FEFF 		bl	BackBone_SetGyroscopeData
 1025              	.LVL89:
 960:.\inv.c       **** 					scale *= (float)M_PI / 180.f; // Convert to radian.
 1026              		.loc 1 960 0
 1027 017c FFF7FEFF 		bl	inv_get_gyro_fullscale
 1028              	.LVL90:
 1029 0180 331C     		mov	r3, r6
 1030 0182 8340     		lsl	r3, r3, r0
 1031 0184 181C     		mov	r0, r3
 1032 0186 FFF7FEFF 		bl	__aeabi_i2f
 1033              	.LVL91:
 1034 018a 8B49     		ldr	r1, .L178+20
 1035 018c FFF7FEFF 		bl	__aeabi_fmul
 1036              	.LVL92:
 1037 0190 D621     		mov	r1, #214
 1038 0192 8905     		lsl	r1, r1, #22
 1039 0194 FFF7FEFF 		bl	__aeabi_fmul
 1040              	.LVL93:
 961:.\inv.c       **** 					dmp_get_gyro_bias(short_data);
 1041              		.loc 1 961 0
 1042 0198 8849     		ldr	r1, .L178+24
 1043 019a FFF7FEFF 		bl	__aeabi_fmul
 1044              	.LVL94:
 1045 019e 0090     		str	r0, [sp]
 1046              	.LVL95:
 962:.\inv.c       **** 					bias_data[0] = (long)short_data[0];
 1047              		.loc 1 962 0
 1048 01a0 281C     		mov	r0, r5
 1049              	.LVL96:
 1050 01a2 FFF7FEFF 		bl	dmp_get_gyro_bias
 1051              	.LVL97:
 963:.\inv.c       **** 					bias_data[1] = (long)short_data[1];
 1052              		.loc 1 963 0
 1053 01a6 0022     		mov	r2, #0
 1054 01a8 AB5E     		ldrsh	r3, [r5, r2]
 966:.\inv.c       **** 
ARM GAS  C:\Users\ADMINI~1\AppData\Local\Temp\ccPHzW0f.s 			page 42


 1055              		.loc 1 966 0
 1056 01aa 10A8     		add	r0, sp, #64
 963:.\inv.c       **** 					bias_data[1] = (long)short_data[1];
 1057              		.loc 1 963 0
 1058 01ac 1093     		str	r3, [sp, #64]
 964:.\inv.c       **** 					bias_data[2] = (long)short_data[2];
 1059              		.loc 1 964 0
 1060 01ae 0222     		mov	r2, #2
 1061 01b0 AB5E     		ldrsh	r3, [r5, r2]
 966:.\inv.c       **** 
 1062              		.loc 1 966 0
 1063 01b2 0099     		ldr	r1, [sp]
 964:.\inv.c       **** 					bias_data[2] = (long)short_data[2];
 1064              		.loc 1 964 0
 1065 01b4 1193     		str	r3, [sp, #68]
 965:.\inv.c       **** 					inv_convert_dmp3_to_body(bias_data, scale, gyro_bias_float);
 1066              		.loc 1 965 0
 1067 01b6 0422     		mov	r2, #4
 1068 01b8 AB5E     		ldrsh	r3, [r5, r2]
 966:.\inv.c       **** 
 1069              		.loc 1 966 0
 1070 01ba 834A     		ldr	r2, .L178+36
 965:.\inv.c       **** 					inv_convert_dmp3_to_body(bias_data, scale, gyro_bias_float);
 1071              		.loc 1 965 0
 1072 01bc 1293     		str	r3, [sp, #72]
 966:.\inv.c       **** 
 1073              		.loc 1 966 0
 1074 01be FFF7FEFF 		bl	inv_convert_dmp3_to_body
 1075              	.LVL98:
 968:.\inv.c       **** 					// shift to Q20 to do all operations in Q20
 1076              		.loc 1 968 0
 1077 01c2 7A4D     		ldr	r5, .L178+8
 1078 01c4 2B68     		ldr	r3, [r5]
 1079 01c6 9B07     		lsl	r3, r3, #30
 1080 01c8 15D5     		bpl	.L102
 970:.\inv.c       **** 					raw_data[1] = raw_data[1] << 5;
 1081              		.loc 1 970 0
 1082 01ca 0D9B     		ldr	r3, [sp, #52]
 973:.\inv.c       **** 					inv_convert_dmp3_to_body(long_data, scale, gyro_float);
 1083              		.loc 1 973 0
 1084 01cc 0DA9     		add	r1, sp, #52
 970:.\inv.c       **** 					raw_data[1] = raw_data[1] << 5;
 1085              		.loc 1 970 0
 1086 01ce 5B01     		lsl	r3, r3, #5
 1087 01d0 0D93     		str	r3, [sp, #52]
 971:.\inv.c       **** 					raw_data[2] = raw_data[2] << 5;
 1088              		.loc 1 971 0
 1089 01d2 0E9B     		ldr	r3, [sp, #56]
 973:.\inv.c       **** 					inv_convert_dmp3_to_body(long_data, scale, gyro_float);
 1090              		.loc 1 973 0
 1091 01d4 10AA     		add	r2, sp, #64
 971:.\inv.c       **** 					raw_data[2] = raw_data[2] << 5;
 1092              		.loc 1 971 0
 1093 01d6 5B01     		lsl	r3, r3, #5
 1094 01d8 0E93     		str	r3, [sp, #56]
 972:.\inv.c       **** 					inv_mems_dmp_get_calibrated_gyro(long_data, raw_data, bias_data);
 1095              		.loc 1 972 0
ARM GAS  C:\Users\ADMINI~1\AppData\Local\Temp\ccPHzW0f.s 			page 43


 1096 01da 0F9B     		ldr	r3, [sp, #60]
 973:.\inv.c       **** 					inv_convert_dmp3_to_body(long_data, scale, gyro_float);
 1097              		.loc 1 973 0
 1098 01dc 07A8     		add	r0, sp, #28
 972:.\inv.c       **** 					inv_mems_dmp_get_calibrated_gyro(long_data, raw_data, bias_data);
 1099              		.loc 1 972 0
 1100 01de 0193     		str	r3, [sp, #4]
 1101 01e0 5B01     		lsl	r3, r3, #5
 1102 01e2 0F93     		str	r3, [sp, #60]
 975:.\inv.c       ****                                       }
 1103              		.loc 1 975 0
 1104 01e4 5C35     		add	r5, r5, #92
 973:.\inv.c       **** 					inv_convert_dmp3_to_body(long_data, scale, gyro_float);
 1105              		.loc 1 973 0
 1106 01e6 FFF7FEFF 		bl	inv_mems_dmp_get_calibrated_gyro
 1107              	.LVL99:
 974:.\inv.c       ****                                         gyro_data_was_set = 1;
 1108              		.loc 1 974 0
 1109 01ea 07A8     		add	r0, sp, #28
 1110 01ec 0099     		ldr	r1, [sp]
 1111 01ee 3A1C     		mov	r2, r7
 1112 01f0 FFF7FEFF 		bl	inv_convert_dmp3_to_body
 1113              	.LVL100:
 975:.\inv.c       ****                                       }
 1114              		.loc 1 975 0
 1115 01f4 2E80     		strh	r6, [r5]
 1116              	.L102:
 977:.\inv.c       ****                                       
 1117              		.loc 1 977 0
 1118 01f6 FFF7FEFF 		bl	inv_get_gyro_accuracy
 1119              	.LVL101:
 1120 01fa 6C4B     		ldr	r3, .L178+8
 1121 01fc 1866     		str	r0, [r3, #96]
 1122              	.LVL102:
 1123              	.L101:
 1124              	.LBE13:
1014:.\inv.c       **** 					float scale;
 1125              		.loc 1 1014 0
 1126 01fe 2388     		ldrh	r3, [r4]
 1127 0200 9B06     		lsl	r3, r3, #26
 1128 0202 0ED5     		bpl	.L103
 1129              	.LBB14:
1016:.\inv.c       **** 					dmp_get_calibrated_compass(long_data);
 1130              		.loc 1 1016 0
 1131 0204 0123     		mov	r3, #1
 1132 0206 684D     		ldr	r5, .L178+4
1017:.\inv.c       **** 					compass_accuracy = inv_get_mag_accuracy();
 1133              		.loc 1 1017 0
 1134 0208 07A8     		add	r0, sp, #28
1016:.\inv.c       **** 					dmp_get_calibrated_compass(long_data);
 1135              		.loc 1 1016 0
 1136 020a 6B82     		strh	r3, [r5, #18]
1017:.\inv.c       **** 					compass_accuracy = inv_get_mag_accuracy();
 1137              		.loc 1 1017 0
 1138 020c FFF7FEFF 		bl	dmp_get_calibrated_compass
 1139              	.LVL103:
1018:.\inv.c       **** 					scale = 1.52587890625e-005f; //COMPASS_CONVERSION
ARM GAS  C:\Users\ADMINI~1\AppData\Local\Temp\ccPHzW0f.s 			page 44


 1140              		.loc 1 1018 0
 1141 0210 FFF7FEFF 		bl	inv_get_mag_accuracy
 1142              	.LVL104:
1020:.\inv.c       **** 				}
 1143              		.loc 1 1020 0
 1144 0214 DE21     		mov	r1, #222
1018:.\inv.c       **** 					scale = 1.52587890625e-005f; //COMPASS_CONVERSION
 1145              		.loc 1 1018 0
 1146 0216 6861     		str	r0, [r5, #20]
 1147              	.LVL105:
1020:.\inv.c       **** 				}
 1148              		.loc 1 1020 0
 1149 0218 8905     		lsl	r1, r1, #22
 1150 021a 07A8     		add	r0, sp, #28
 1151 021c 6B4A     		ldr	r2, .L178+40
 1152 021e FFF7FEFF 		bl	inv_convert_dmp3_to_body
 1153              	.LVL106:
 1154              	.L103:
 1155              	.LBE14:
1023:.\inv.c       **** 					// Raw compass [DMP]
 1156              		.loc 1 1023 0
 1157 0222 2388     		ldrh	r3, [r4]
 1158 0224 9B04     		lsl	r3, r3, #18
 1159 0226 32D5     		bpl	.L104
1025:.\inv.c       **** 					compass_raw_float[0] = long_data[0] * 1.52587890625e-005f;
 1160              		.loc 1 1025 0
 1161 0228 07A8     		add	r0, sp, #28
 1162 022a FFF7FEFF 		bl	dmp_get_raw_compass
 1163              	.LVL107:
1026:.\inv.c       **** 					compass_raw_float[1] = long_data[1] * 1.52587890625e-005f;
 1164              		.loc 1 1026 0
 1165 022e 0798     		ldr	r0, [sp, #28]
 1166 0230 FFF7FEFF 		bl	__aeabi_i2f
 1167              	.LVL108:
 1168 0234 DE21     		mov	r1, #222
 1169 0236 8905     		lsl	r1, r1, #22
 1170 0238 FFF7FEFF 		bl	__aeabi_fmul
 1171              	.LVL109:
 1172 023c 644D     		ldr	r5, .L178+44
 1173 023e 071C     		add	r7, r0, #0
 1174 0240 2860     		str	r0, [r5]
1027:.\inv.c       **** 					compass_raw_float[2] = long_data[2] * 1.52587890625e-005f;
 1175              		.loc 1 1027 0
 1176 0242 0898     		ldr	r0, [sp, #32]
 1177 0244 FFF7FEFF 		bl	__aeabi_i2f
 1178              	.LVL110:
 1179 0248 DE21     		mov	r1, #222
 1180 024a 8905     		lsl	r1, r1, #22
 1181 024c FFF7FEFF 		bl	__aeabi_fmul
 1182              	.LVL111:
 1183 0250 6860     		str	r0, [r5, #4]
 1184 0252 0090     		str	r0, [sp]
1028:.\inv.c       ****                                         compass_bias[0] = compass_raw_float[0] - compass_float[0];
 1185              		.loc 1 1028 0
 1186 0254 0998     		ldr	r0, [sp, #36]
 1187 0256 FFF7FEFF 		bl	__aeabi_i2f
 1188              	.LVL112:
ARM GAS  C:\Users\ADMINI~1\AppData\Local\Temp\ccPHzW0f.s 			page 45


 1189 025a DE21     		mov	r1, #222
 1190 025c 8905     		lsl	r1, r1, #22
 1191 025e FFF7FEFF 		bl	__aeabi_fmul
 1192              	.LVL113:
1029:.\inv.c       ****                                         compass_bias[1] = compass_raw_float[1] - compass_float[1];
 1193              		.loc 1 1029 0
 1194 0262 5A4E     		ldr	r6, .L178+40
1028:.\inv.c       ****                                         compass_bias[0] = compass_raw_float[0] - compass_float[0];
 1195              		.loc 1 1028 0
 1196 0264 A860     		str	r0, [r5, #8]
 1197 0266 0190     		str	r0, [sp, #4]
1029:.\inv.c       ****                                         compass_bias[1] = compass_raw_float[1] - compass_float[1];
 1198              		.loc 1 1029 0
 1199 0268 3168     		ldr	r1, [r6]
 1200 026a 381C     		add	r0, r7, #0
 1201 026c FFF7FEFF 		bl	__aeabi_fsub
 1202              	.LVL114:
 1203 0270 584D     		ldr	r5, .L178+48
1030:.\inv.c       ****                                         compass_bias[2] = compass_raw_float[2] - compass_float[2];
 1204              		.loc 1 1030 0
 1205 0272 7168     		ldr	r1, [r6, #4]
1029:.\inv.c       ****                                         compass_bias[1] = compass_raw_float[1] - compass_float[1];
 1206              		.loc 1 1029 0
 1207 0274 2860     		str	r0, [r5]
1030:.\inv.c       ****                                         compass_bias[2] = compass_raw_float[2] - compass_float[2];
 1208              		.loc 1 1030 0
 1209 0276 0098     		ldr	r0, [sp]
 1210 0278 FFF7FEFF 		bl	__aeabi_fsub
 1211              	.LVL115:
1031:.\inv.c       **** 					raw_compass_data_was_set = 1;
 1212              		.loc 1 1031 0
 1213 027c B168     		ldr	r1, [r6, #8]
1030:.\inv.c       ****                                         compass_bias[2] = compass_raw_float[2] - compass_float[2];
 1214              		.loc 1 1030 0
 1215 027e 6860     		str	r0, [r5, #4]
1031:.\inv.c       **** 					raw_compass_data_was_set = 1;
 1216              		.loc 1 1031 0
 1217 0280 0198     		ldr	r0, [sp, #4]
 1218 0282 FFF7FEFF 		bl	__aeabi_fsub
 1219              	.LVL116:
1032:.\inv.c       **** 				}
 1220              		.loc 1 1032 0
 1221 0286 0122     		mov	r2, #1
 1222 0288 474B     		ldr	r3, .L178+4
1031:.\inv.c       **** 					raw_compass_data_was_set = 1;
 1223              		.loc 1 1031 0
 1224 028a A860     		str	r0, [r5, #8]
1032:.\inv.c       **** 				}
 1225              		.loc 1 1032 0
 1226 028c 1A83     		strh	r2, [r3, #24]
 1227              	.L104:
1036:.\inv.c       **** 					quat6_data_was_set = 1;
 1228              		.loc 1 1036 0
 1229 028e 2388     		ldrh	r3, [r4]
 1230 0290 1B05     		lsl	r3, r3, #20
 1231 0292 0AD5     		bpl	.L105
1037:.\inv.c       **** 					
ARM GAS  C:\Users\ADMINI~1\AppData\Local\Temp\ccPHzW0f.s 			page 46


 1232              		.loc 1 1037 0
 1233 0294 0122     		mov	r2, #1
 1234 0296 454B     		ldr	r3, .L178+8
1039:.\inv.c       ****                                         inv_convert_rotation_vector(long_quat, grv_float);
 1235              		.loc 1 1039 0
 1236 0298 0AA8     		add	r0, sp, #40
1037:.\inv.c       **** 					
 1237              		.loc 1 1037 0
 1238 029a 6433     		add	r3, r3, #100
 1239 029c 1A80     		strh	r2, [r3]
1039:.\inv.c       ****                                         inv_convert_rotation_vector(long_quat, grv_float);
 1240              		.loc 1 1039 0
 1241 029e FFF7FEFF 		bl	dmp_get_6quaternion
 1242              	.LVL117:
1040:.\inv.c       **** #if defined MEMS_AUGMENTED_SENSORS
 1243              		.loc 1 1040 0
 1244 02a2 0AA8     		add	r0, sp, #40
 1245 02a4 4C49     		ldr	r1, .L178+52
 1246 02a6 FFF7FEFF 		bl	inv_convert_rotation_vector
 1247              	.LVL118:
 1248              	.L105:
1063:.\inv.c       **** #if defined MEMS_AUGMENTED_SENSORS
 1249              		.loc 1 1063 0
 1250 02aa 2388     		ldrh	r3, [r4]
 1251 02ac 5B05     		lsl	r3, r3, #21
 1252 02ae 16D5     		bpl	.L106
1068:.\inv.c       **** 					dmp_get_9quaternion(long_quat);
 1253              		.loc 1 1068 0
 1254 02b0 0122     		mov	r2, #1
 1255 02b2 3E4B     		ldr	r3, .L178+8
1069:.\inv.c       **** #if (MEMS_CHIP == HW_ICM20630 || MEMS_CHIP == HW_ICM20648)
 1256              		.loc 1 1069 0
 1257 02b4 0AA8     		add	r0, sp, #40
1068:.\inv.c       **** 					dmp_get_9quaternion(long_quat);
 1258              		.loc 1 1068 0
 1259 02b6 7833     		add	r3, r3, #120
 1260 02b8 1A80     		strh	r2, [r3]
1069:.\inv.c       **** #if (MEMS_CHIP == HW_ICM20630 || MEMS_CHIP == HW_ICM20648)
 1261              		.loc 1 1069 0
 1262 02ba FFF7FEFF 		bl	dmp_get_9quaternion
 1263              	.LVL119:
1071:.\inv.c       **** #else
 1264              		.loc 1 1071 0
 1265 02be FFF7FEFF 		bl	inv_get_rv_accuracy
 1266              	.LVL120:
 1267 02c2 FFF7FEFF 		bl	__aeabi_i2f
 1268              	.LVL121:
 1269 02c6 C421     		mov	r1, #196
 1270 02c8 8905     		lsl	r1, r1, #22
 1271 02ca FFF7FEFF 		bl	__aeabi_fmul
 1272              	.LVL122:
 1273 02ce FFF7FEFF 		bl	__aeabi_f2iz
 1274              	.LVL123:
 1275 02d2 354B     		ldr	r3, .L178+4
1075:.\inv.c       **** 
 1276              		.loc 1 1075 0
 1277 02d4 4149     		ldr	r1, .L178+56
ARM GAS  C:\Users\ADMINI~1\AppData\Local\Temp\ccPHzW0f.s 			page 47


1071:.\inv.c       **** #else
 1278              		.loc 1 1071 0
 1279 02d6 D861     		str	r0, [r3, #28]
1075:.\inv.c       **** 
 1280              		.loc 1 1075 0
 1281 02d8 0AA8     		add	r0, sp, #40
 1282 02da FFF7FEFF 		bl	inv_convert_rotation_vector
 1283              	.LVL124:
 1284              	.L106:
1090:.\inv.c       **** 					/* Read 6 axis quaternion out of DMP FIFO in Q30 and convert it to Android format */
 1285              		.loc 1 1090 0
 1286 02de 2388     		ldrh	r3, [r4]
 1287 02e0 DB05     		lsl	r3, r3, #23
 1288 02e2 22D5     		bpl	.L107
1092:.\inv.c       ****                                         if(hal.report & PRINT_CUBE_GEOMAG)
 1289              		.loc 1 1092 0
 1290 02e4 0AA8     		add	r0, sp, #40
 1291 02e6 FFF7FEFF 		bl	dmp_get_gmrvquaternion
 1292              	.LVL125:
1093:.\inv.c       ****                                                 inv_compute_scalar_part(long_quat, cube_gmrv);
 1293              		.loc 1 1093 0
 1294 02ea 304E     		ldr	r6, .L178+8
 1295 02ec 3368     		ldr	r3, [r6]
 1296 02ee 351C     		mov	r5, r6
 1297 02f0 5B03     		lsl	r3, r3, #13
 1298 02f2 04D5     		bpl	.L108
1094:.\inv.c       ****                                         if(hal.report & PRINT_GEOMAG){
 1299              		.loc 1 1094 0
 1300 02f4 2C49     		ldr	r1, .L178+4
 1301 02f6 0AA8     		add	r0, sp, #40
 1302 02f8 2031     		add	r1, r1, #32
 1303 02fa FFF7FEFF 		bl	inv_compute_scalar_part
 1304              	.LVL126:
 1305              	.L108:
1095:.\inv.c       ****                                                 inv_convert_rotation_vector(long_quat, gmrv_float);
 1306              		.loc 1 1095 0
 1307 02fe 3368     		ldr	r3, [r6]
 1308 0300 9B04     		lsl	r3, r3, #18
 1309 0302 0FD5     		bpl	.L109
1096:.\inv.c       ****                                                 /* Read geomagnetic rotation vector heading accurac
 1310              		.loc 1 1096 0
 1311 0304 3649     		ldr	r1, .L178+60
 1312 0306 0AA8     		add	r0, sp, #40
 1313 0308 FFF7FEFF 		bl	inv_convert_rotation_vector
 1314              	.LVL127:
1098:.\inv.c       ****                                         }
 1315              		.loc 1 1098 0
 1316 030c FFF7FEFF 		bl	inv_get_gmrv_accuracy
 1317              	.LVL128:
 1318 0310 FFF7FEFF 		bl	__aeabi_i2f
 1319              	.LVL129:
 1320 0314 C421     		mov	r1, #196
 1321 0316 8905     		lsl	r1, r1, #22
 1322 0318 FFF7FEFF 		bl	__aeabi_fmul
 1323              	.LVL130:
 1324 031c FFF7FEFF 		bl	__aeabi_f2iz
 1325              	.LVL131:
ARM GAS  C:\Users\ADMINI~1\AppData\Local\Temp\ccPHzW0f.s 			page 48


 1326 0320 214B     		ldr	r3, .L178+4
 1327 0322 1863     		str	r0, [r3, #48]
 1328              	.L109:
1100:.\inv.c       **** 				}
 1329              		.loc 1 1100 0
 1330 0324 0123     		mov	r3, #1
 1331 0326 7A35     		add	r5, r5, #122
 1332 0328 2B80     		strh	r3, [r5]
 1333              	.L107:
1107:.\inv.c       **** 					/* Read activity type and associated timestamp out of DMP FIFO
 1334              		.loc 1 1107 0
 1335 032a 03AE     		add	r6, sp, #12
 1336 032c 3388     		ldrh	r3, [r6]
 1337 032e 1B06     		lsl	r3, r3, #24
 1338 0330 26D5     		bpl	.L111
1112:.\inv.c       **** 					dmp_get_bac_ts(&bac_ts);
 1339              		.loc 1 1112 0
 1340 0332 1D4D     		ldr	r5, .L178+4
 1341 0334 281C     		mov	r0, r5
 1342 0336 3430     		add	r0, r0, #52
 1343 0338 FFF7FEFF 		bl	dmp_get_bac_state
 1344              	.LVL132:
1113:.\inv.c       **** 
 1345              		.loc 1 1113 0
 1346 033c 281C     		mov	r0, r5
 1347 033e 3830     		add	r0, r0, #56
 1348 0340 FFF7FEFF 		bl	dmp_get_bac_ts
 1349              	.LVL133:
1115:.\inv.c       **** 						/* Tilt information is inside BAC, so extract it out */
 1350              		.loc 1 1115 0
 1351 0344 8021     		mov	r1, #128
 1352 0346 194A     		ldr	r2, .L178+8
 1353 0348 C903     		lsl	r1, r1, #15
 1354 034a 1068     		ldr	r0, [r2]
 1355 034c 2B1C     		mov	r3, r5
 1356 034e 0140     		and	r1, r0
 1357 0350 0092     		str	r2, [sp]
 1358 0352 0BD0     		beq	.L112
1119:.\inv.c       **** 							/* Start of tilt detected */
 1359              		.loc 1 1119 0
 1360 0354 AA8E     		ldrh	r2, [r5, #52]
 1361 0356 D704     		lsl	r7, r2, #19
 1362 0358 02D5     		bpl	.L113
1121:.\inv.c       **** 						}
 1363              		.loc 1 1121 0
 1364 035a 3C33     		add	r3, r3, #60
 1365 035c 0222     		mov	r2, #2
 1366 035e 04E0     		b	.L177
 1367              	.L113:
1124:.\inv.c       **** 							/* End of tilt detected */
 1368              		.loc 1 1124 0
 1369 0360 1027     		mov	r7, #16
 1370 0362 3A42     		tst	r2, r7
 1371 0364 02D0     		beq	.L112
1126:.\inv.c       **** 						}
 1372              		.loc 1 1126 0
 1373 0366 0122     		mov	r2, #1
ARM GAS  C:\Users\ADMINI~1\AppData\Local\Temp\ccPHzW0f.s 			page 49


 1374 0368 3C33     		add	r3, r3, #60
 1375              	.L177:
 1376 036a 1A70     		strb	r2, [r3]
 1377              	.L112:
1131:.\inv.c       **** 						bac_data_was_set = 1;
 1378              		.loc 1 1131 0
 1379 036c C302     		lsl	r3, r0, #11
 1380 036e 01D5     		bpl	.L114
1132:.\inv.c       **** 					if (hal.report & PRINT_TILT)
 1381              		.loc 1 1132 0
 1382 0370 0123     		mov	r3, #1
 1383 0372 EB87     		strh	r3, [r5, #62]
 1384              	.L114:
1133:.\inv.c       **** 						tilt_data_was_set = 1;
 1385              		.loc 1 1133 0
 1386 0374 0029     		cmp	r1, #0
 1387 0376 03D0     		beq	.L111
1134:.\inv.c       **** 				}
 1388              		.loc 1 1134 0
 1389 0378 0122     		mov	r2, #1
 1390 037a 009B     		ldr	r3, [sp]
 1391 037c 7C33     		add	r3, r3, #124
 1392 037e 1A80     		strh	r2, [r3]
 1393              	.L111:
1137:.\inv.c       **** 					if (hal.report & PRINT_FLIP_PICKUP) {
 1394              		.loc 1 1137 0
 1395 0380 3388     		ldrh	r3, [r6]
 1396 0382 5B05     		lsl	r3, r3, #21
 1397 0384 0BD5     		bpl	.L116
1138:.\inv.c       **** 						dmp_get_flip_pickup_state(&flip_pickup);
 1398              		.loc 1 1138 0
 1399 0386 094B     		ldr	r3, .L178+8
 1400 0388 1B68     		ldr	r3, [r3]
 1401 038a 9B02     		lsl	r3, r3, #10
 1402 038c 07D5     		bpl	.L116
1139:.\inv.c       **** 						flip_data_was_set = 1;
 1403              		.loc 1 1139 0
 1404 038e 064D     		ldr	r5, .L178+4
 1405 0390 281C     		mov	r0, r5
 1406 0392 4030     		add	r0, r0, #64
 1407 0394 FFF7FEFF 		bl	dmp_get_flip_pickup_state
 1408              	.LVL134:
1140:.\inv.c       **** 					}
 1409              		.loc 1 1140 0
 1410 0398 0123     		mov	r3, #1
 1411 039a 0435     		add	r5, r5, #4
 1412 039c EB87     		strh	r3, [r5, #62]
 1413              	.L116:
1146:.\inv.c       **** 			}
 1414              		.loc 1 1146 0
 1415 039e FFF7FEFF 		bl	process_sensor_output
 1416              	.LVL135:
 1417 03a2 75E6     		b	.L96
 1418              	.L179:
 1419              		.align	2
 1420              	.L178:
 1421 03a4 02230000 		.word	8962
ARM GAS  C:\Users\ADMINI~1\AppData\Local\Temp\ccPHzW0f.s 			page 50


 1422 03a8 80000000 		.word	.LANCHOR2
 1423 03ac 00000000 		.word	.LANCHOR0
 1424 03b0 0AE81C41 		.word	1092413450
 1425 03b4 00000000 		.word	accel_float
 1426 03b8 00007A43 		.word	1132068864
 1427 03bc 35FA8E3C 		.word	1016003125
 1428 03c0 00000000 		.word	gyro_raw_float
 1429 03c4 00000000 		.word	gyro_float
 1430 03c8 00000000 		.word	gyro_bias_float
 1431 03cc 00000000 		.word	compass_float
 1432 03d0 00000000 		.word	compass_raw_float
 1433 03d4 00000000 		.word	compass_bias
 1434 03d8 00000000 		.word	grv_float
 1435 03dc 00000000 		.word	rv_float
 1436 03e0 00000000 		.word	gmrv_float
 1437              	.L92:
1173:.\inv.c       **** #else
1174:.\inv.c       **** 		if (int_read_back & DMP_INT_PED) {
1175:.\inv.c       **** #endif
1176:.\inv.c       ****                         if (hal.report & PRINT_STEP_COUNTER){
 1438              		.loc 1 1176 0
 1439 03e4 094B     		ldr	r3, .L180
 1440 03e6 1B68     		ldr	r3, [r3]
 1441 03e8 5B05     		lsl	r3, r3, #21
 1442 03ea 0DD5     		bpl	.L89
 1443              	.LBB15:
1177:.\inv.c       **** 				unsigned long steps = 0;
 1444              		.loc 1 1177 0
 1445 03ec 0023     		mov	r3, #0
1178:.\inv.c       **** 				static unsigned long old_steps;
1179:.\inv.c       **** 				dmp_get_pedometer_num_of_steps(&steps);
 1446              		.loc 1 1179 0
 1447 03ee 10A8     		add	r0, sp, #64
1177:.\inv.c       **** 				unsigned long steps = 0;
 1448              		.loc 1 1177 0
 1449 03f0 1093     		str	r3, [sp, #64]
 1450              		.loc 1 1179 0
 1451 03f2 FFF7FEFF 		bl	dmp_get_pedometer_num_of_steps
 1452              	.LVL136:
1180:.\inv.c       **** 				
1181:.\inv.c       **** 				BackBone_SetStepCount(steps);
 1453              		.loc 1 1181 0
 1454 03f6 1098     		ldr	r0, [sp, #64]
 1455 03f8 FFF7FEFF 		bl	BackBone_SetStepCount
 1456              	.LVL137:
1182:.\inv.c       **** 
1183:.\inv.c       **** 				if (steps != old_steps){
 1457              		.loc 1 1183 0
 1458 03fc 044B     		ldr	r3, .L180+4
 1459 03fe 109A     		ldr	r2, [sp, #64]
 1460 0400 596C     		ldr	r1, [r3, #68]
 1461 0402 8A42     		cmp	r2, r1
 1462 0404 00D0     		beq	.L89
1184:.\inv.c       **** //					INV_SPRINTF(tst, INV_TST_LEN, "\tStep Counter %d\r\n", steps);
1185:.\inv.c       **** //					print_command_console(tst);
1186:.\inv.c       **** 					old_steps = steps;
 1463              		.loc 1 1186 0
ARM GAS  C:\Users\ADMINI~1\AppData\Local\Temp\ccPHzW0f.s 			page 51


 1464 0406 5A64     		str	r2, [r3, #68]
 1465              	.L89:
 1466              	.LBE15:
 1467              	.LBE11:
1187:.\inv.c       **** 				}
1188:.\inv.c       ****                         }
1189:.\inv.c       **** 		}
1190:.\inv.c       **** 
1191:.\inv.c       **** #if (MEMS_CHIP == HW_ICM20648)
1192:.\inv.c       ****                 if (int_read_back & BIT_MSG_DMP_INT_2) {
1193:.\inv.c       **** 			if (hal.report & PRINT_SMD){}
1194:.\inv.c       **** //				print_command_console(">> SMD Interrupt *********\r\n");
1195:.\inv.c       **** 		}
1196:.\inv.c       **** #endif
1197:.\inv.c       ****        }
1198:.\inv.c       **** }
 1468              		.loc 1 1198 0
 1469 0408 2DB0     		add	sp, sp, #180
 1470              		@ sp needed
 1471 040a F0BD     		pop	{r4, r5, r6, r7, pc}
 1472              	.L181:
 1473              		.align	2
 1474              	.L180:
 1475 040c 00000000 		.word	.LANCHOR0
 1476 0410 80000000 		.word	.LANCHOR2
 1477              		.cfi_endproc
 1478              	.LFE49:
 1479              		.size	fifo_handler, .-fifo_handler
 1480              		.global	tst
 1481              		.global	SOFT_IRON_MATRIX
 1482              		.global	COMPASS_ORIENTATION
 1483              		.global	PRESSURE_CHIP_ADDR
 1484              		.global	COMPASS_CHIP_ADDR
 1485              		.global	COMPASS_SLAVE_ID
 1486              		.global	ACCEL_GYRO_ORIENTATION
 1487              		.global	current_output_rate
 1488              		.global	step_detected
 1489              		.global	flip_pickup
 1490              		.global	bac_ts
 1491              		.global	tilt_state
 1492              		.global	bac_state
 1493              		.global	steps
 1494              		.global	g_average
 1495              		.global	a_average
 1496              		.global	result_quat
 1497              		.global	ts
 1498              		.global	gmrv_accuracy
 1499              		.global	compass_accuracy
 1500              		.global	rv_accuracy
 1501              		.global	gyro_accuracy
 1502              		.global	accel_accuracy
 1503              		.global	cube_gmrv
 1504              		.comm	gmrv_float,16,4
 1505              		.comm	compass_bias,12,4
 1506              		.comm	compass_raw_float,12,4
 1507              		.comm	compass_float,12,4
 1508              		.comm	previous_bias,12,4
ARM GAS  C:\Users\ADMINI~1\AppData\Local\Temp\ccPHzW0f.s 			page 52


 1509              		.comm	gyro_bias_float,12,4
 1510              		.comm	gyro_raw_float,12,4
 1511              		.comm	gyro_float,12,4
 1512              		.global	cube_rv
 1513              		.comm	rv_float,16,4
 1514              		.comm	accel_float,12,4
 1515              		.global	cube_grv
 1516              		.comm	grv_float,16,4
 1517              		.global	tilt_data_was_set
 1518              		.global	flip_data_was_set
 1519              		.global	bac_data_was_set
 1520              		.global	gmrv_quat_was_set
 1521              		.global	rv_quat_was_set
 1522              		.global	quat9_data_was_set
 1523              		.global	quat6_data_was_set
 1524              		.global	raw_compass_data_was_set
 1525              		.global	compass_data_was_set
 1526              		.global	raw_gyro_data_was_set
 1527              		.global	gyro_data_was_set
 1528              		.global	accel_data_was_set
 1529              		.global	dmp_bias
 1530              		.global	self_test_result
 1531              		.global	hal
 1532              		.section	.rodata
 1533              		.type	PRESSURE_CHIP_ADDR, %object
 1534              		.size	PRESSURE_CHIP_ADDR, 1
 1535              	PRESSURE_CHIP_ADDR:
 1536 0000 00       		.space	1
 1537              		.type	COMPASS_CHIP_ADDR, %object
 1538              		.size	COMPASS_CHIP_ADDR, 1
 1539              	COMPASS_CHIP_ADDR:
 1540 0001 0E       		.byte	14
 1541              		.type	COMPASS_SLAVE_ID, %object
 1542              		.size	COMPASS_SLAVE_ID, 1
 1543              	COMPASS_SLAVE_ID:
 1544 0002 24       		.byte	36
 1545              		.data
 1546              		.align	2
 1547              		.set	.LANCHOR1,. + 0
 1548              		.type	current_output_rate, %object
 1549              		.size	current_output_rate, 4
 1550              	current_output_rate:
 1551 0000 0000A040 		.word	1084227584
 1552              		.type	SOFT_IRON_MATRIX, %object
 1553              		.size	SOFT_IRON_MATRIX, 36
 1554              	SOFT_IRON_MATRIX:
 1555 0004 00000040 		.word	1073741824
 1556 0008 00000000 		.word	0
 1557 000c 00000000 		.word	0
 1558 0010 00000000 		.word	0
 1559 0014 00000040 		.word	1073741824
 1560 0018 00000000 		.word	0
 1561 001c 00000000 		.word	0
 1562 0020 00000000 		.word	0
 1563 0024 00000040 		.word	1073741824
 1564              		.type	COMPASS_ORIENTATION, %object
 1565              		.size	COMPASS_ORIENTATION, 9
ARM GAS  C:\Users\ADMINI~1\AppData\Local\Temp\ccPHzW0f.s 			page 53


 1566              	COMPASS_ORIENTATION:
 1567 0028 00       		.byte	0
 1568 0029 FF       		.byte	-1
 1569 002a 00       		.byte	0
 1570 002b 01       		.byte	1
 1571 002c 00       		.byte	0
 1572 002d 00       		.byte	0
 1573 002e 00       		.byte	0
 1574 002f 00       		.byte	0
 1575 0030 01       		.byte	1
 1576              		.type	ACCEL_GYRO_ORIENTATION, %object
 1577              		.size	ACCEL_GYRO_ORIENTATION, 9
 1578              	ACCEL_GYRO_ORIENTATION:
 1579 0031 00       		.byte	0
 1580 0032 FF       		.byte	-1
 1581 0033 00       		.byte	0
 1582 0034 01       		.byte	1
 1583 0035 00       		.byte	0
 1584 0036 00       		.byte	0
 1585 0037 00       		.byte	0
 1586 0038 00       		.byte	0
 1587 0039 01       		.byte	1
 1588 003a 0000     		.bss
 1589              		.align	3
 1590              		.set	.LANCHOR0,. + 0
 1591              		.set	.LANCHOR2,. + 128
 1592              		.type	hal, %object
 1593              		.size	hal, 16
 1594              	hal:
 1595 0000 00000000 		.space	16
 1595      00000000 
 1595      00000000 
 1595      00000000 
 1596              		.type	inv_flags, %object
 1597              		.size	inv_flags, 2
 1598              	inv_flags:
 1599 0010 0000     		.space	2
 1600 0012 0000     		.space	2
 1601              		.type	self_test_result, %object
 1602              		.size	self_test_result, 4
 1603              	self_test_result:
 1604 0014 00000000 		.space	4
 1605              		.type	dmp_bias, %object
 1606              		.size	dmp_bias, 36
 1607              	dmp_bias:
 1608 0018 00000000 		.space	36
 1608      00000000 
 1608      00000000 
 1608      00000000 
 1608      00000000 
 1609              		.type	a_average, %object
 1610              		.size	a_average, 12
 1611              	a_average:
 1612 003c 00000000 		.space	12
 1612      00000000 
 1612      00000000 
 1613              		.type	g_average, %object
ARM GAS  C:\Users\ADMINI~1\AppData\Local\Temp\ccPHzW0f.s 			page 54


 1614              		.size	g_average, 12
 1615              	g_average:
 1616 0048 00000000 		.space	12
 1616      00000000 
 1616      00000000 
 1617              		.type	accel_data_was_set, %object
 1618              		.size	accel_data_was_set, 2
 1619              	accel_data_was_set:
 1620 0054 0000     		.space	2
 1621 0056 0000     		.space	2
 1622              		.type	accel_accuracy, %object
 1623              		.size	accel_accuracy, 4
 1624              	accel_accuracy:
 1625 0058 00000000 		.space	4
 1626              		.type	gyro_data_was_set, %object
 1627              		.size	gyro_data_was_set, 2
 1628              	gyro_data_was_set:
 1629 005c 0000     		.space	2
 1630 005e 0000     		.space	2
 1631              		.type	gyro_accuracy, %object
 1632              		.size	gyro_accuracy, 4
 1633              	gyro_accuracy:
 1634 0060 00000000 		.space	4
 1635              		.type	quat6_data_was_set, %object
 1636              		.size	quat6_data_was_set, 2
 1637              	quat6_data_was_set:
 1638 0064 0000     		.space	2
 1639 0066 0000     		.space	2
 1640              		.type	result_quat, %object
 1641              		.size	result_quat, 16
 1642              	result_quat:
 1643 0068 00000000 		.space	16
 1643      00000000 
 1643      00000000 
 1643      00000000 
 1644              		.type	quat9_data_was_set, %object
 1645              		.size	quat9_data_was_set, 2
 1646              	quat9_data_was_set:
 1647 0078 0000     		.space	2
 1648              		.type	gmrv_quat_was_set, %object
 1649              		.size	gmrv_quat_was_set, 2
 1650              	gmrv_quat_was_set:
 1651 007a 0000     		.space	2
 1652              		.type	tilt_data_was_set, %object
 1653              		.size	tilt_data_was_set, 2
 1654              	tilt_data_was_set:
 1655 007c 0000     		.space	2
 1656              		.type	step_detected, %object
 1657              		.size	step_detected, 1
 1658              	step_detected:
 1659 007e 00       		.space	1
 1660 007f 00       		.space	1
 1661              		.type	lastIrqTimeUs.7662, %object
 1662              		.size	lastIrqTimeUs.7662, 8
 1663              	lastIrqTimeUs.7662:
 1664 0080 00000000 		.space	8
 1664      00000000 
ARM GAS  C:\Users\ADMINI~1\AppData\Local\Temp\ccPHzW0f.s 			page 55


 1665              		.type	ts, %object
 1666              		.size	ts, 8
 1667              	ts:
 1668 0088 00000000 		.space	8
 1668      00000000 
 1669              		.type	raw_gyro_data_was_set, %object
 1670              		.size	raw_gyro_data_was_set, 2
 1671              	raw_gyro_data_was_set:
 1672 0090 0000     		.space	2
 1673              		.type	compass_data_was_set, %object
 1674              		.size	compass_data_was_set, 2
 1675              	compass_data_was_set:
 1676 0092 0000     		.space	2
 1677              		.type	compass_accuracy, %object
 1678              		.size	compass_accuracy, 4
 1679              	compass_accuracy:
 1680 0094 00000000 		.space	4
 1681              		.type	raw_compass_data_was_set, %object
 1682              		.size	raw_compass_data_was_set, 2
 1683              	raw_compass_data_was_set:
 1684 0098 0000     		.space	2
 1685 009a 0000     		.space	2
 1686              		.type	rv_accuracy, %object
 1687              		.size	rv_accuracy, 4
 1688              	rv_accuracy:
 1689 009c 00000000 		.space	4
 1690              		.type	cube_gmrv, %object
 1691              		.size	cube_gmrv, 16
 1692              	cube_gmrv:
 1693 00a0 00000000 		.space	16
 1693      00000000 
 1693      00000000 
 1693      00000000 
 1694              		.type	gmrv_accuracy, %object
 1695              		.size	gmrv_accuracy, 4
 1696              	gmrv_accuracy:
 1697 00b0 00000000 		.space	4
 1698              		.type	bac_state, %object
 1699              		.size	bac_state, 2
 1700              	bac_state:
 1701 00b4 0000     		.space	2
 1702 00b6 0000     		.space	2
 1703              		.type	bac_ts, %object
 1704              		.size	bac_ts, 4
 1705              	bac_ts:
 1706 00b8 00000000 		.space	4
 1707              		.type	tilt_state, %object
 1708              		.size	tilt_state, 1
 1709              	tilt_state:
 1710 00bc 00       		.space	1
 1711 00bd 00       		.space	1
 1712              		.type	bac_data_was_set, %object
 1713              		.size	bac_data_was_set, 2
 1714              	bac_data_was_set:
 1715 00be 0000     		.space	2
 1716              		.type	flip_pickup, %object
 1717              		.size	flip_pickup, 2
ARM GAS  C:\Users\ADMINI~1\AppData\Local\Temp\ccPHzW0f.s 			page 56


 1718              	flip_pickup:
 1719 00c0 0000     		.space	2
 1720              		.type	flip_data_was_set, %object
 1721              		.size	flip_data_was_set, 2
 1722              	flip_data_was_set:
 1723 00c2 0000     		.space	2
 1724              		.type	old_steps.7677, %object
 1725              		.size	old_steps.7677, 4
 1726              	old_steps.7677:
 1727 00c4 00000000 		.space	4
 1728              		.type	tst, %object
 1729              		.size	tst, 256
 1730              	tst:
 1731 00c8 00000000 		.space	256
 1731      00000000 
 1731      00000000 
 1731      00000000 
 1731      00000000 
 1732              		.type	steps, %object
 1733              		.size	steps, 4
 1734              	steps:
 1735 01c8 00000000 		.space	4
 1736              		.type	cube_rv, %object
 1737              		.size	cube_rv, 16
 1738              	cube_rv:
 1739 01cc 00000000 		.space	16
 1739      00000000 
 1739      00000000 
 1739      00000000 
 1740              		.type	cube_grv, %object
 1741              		.size	cube_grv, 16
 1742              	cube_grv:
 1743 01dc 00000000 		.space	16
 1743      00000000 
 1743      00000000 
 1743      00000000 
 1744              		.type	rv_quat_was_set, %object
 1745              		.size	rv_quat_was_set, 2
 1746              	rv_quat_was_set:
 1747 01ec 0000     		.space	2
 1748 01ee 0000     		.text
 1749              	.Letext0:
 1750              		.file 2 "c:\\program files (x86)\\cypress\\psoc creator\\3.3\\psoc creator\\import\\gnu\\arm\\4.9.
 1751              		.file 3 "c:\\program files (x86)\\cypress\\psoc creator\\3.3\\psoc creator\\import\\gnu\\arm\\4.9.
 1752              		.file 4 "Generated_Source\\PSoC4/cytypes.h"
 1753              		.file 5 "./.\\20648_driver\\invn\\invn_types.h"
 1754              		.file 6 "./.\\20648_driver\\drivers\\inv_mems_defines.h"
 1755              		.file 7 "./.\\20648_driver\\common\\mltypes.h"
 1756              		.file 8 "./inv.h"
 1757              		.file 9 "Generated_Source\\PSoC4/INVN_INT.h"
 1758              		.file 10 "./.\\20648_driver\\drivers\\inv_mems_mpu_fifo_control.h"
 1759              		.file 11 "./.\\20648_driver\\drivers\\inv_mems_mpu_selftest.h"
 1760              		.file 12 "./.\\20648_driver\\drivers\\inv_mems_base_control.h"
 1761              		.file 13 "./.\\20648_driver\\dmp3a\\dmp3Default_20648.h"
 1762              		.file 14 "Generated_Source\\PSoC4/I2C.h"
 1763              		.file 15 "./.\\20648_driver\\drivers\\inv_mems_base_driver.h"
 1764              		.file 16 "./.\\20648_driver\\dmp3\\inv_mems_interface_mapping.h"
ARM GAS  C:\Users\ADMINI~1\AppData\Local\Temp\ccPHzW0f.s 			page 57


 1765              		.file 17 "Generated_Source\\PSoC4/isr_INVN_INT.h"
 1766              		.file 18 "./.\\20648_driver\\drivers\\inv_mems_data_converter.h"
 1767              		.file 19 "./.\\20648_driver\\invn\\ml_math_func.h"
 1768              		.file 20 "./BackBone.h"
 1769              		.section	.debug_info,"",%progbits
 1770              	.Ldebug_info0:
 1771 0000 45130000 		.4byte	0x1345
 1772 0004 0400     		.2byte	0x4
 1773 0006 00000000 		.4byte	.Ldebug_abbrev0
 1774 000a 04       		.byte	0x4
 1775 000b 01       		.uleb128 0x1
 1776 000c 63050000 		.4byte	.LASF203
 1777 0010 01       		.byte	0x1
 1778 0011 F3090000 		.4byte	.LASF204
 1779 0015 270E0000 		.4byte	.LASF205
 1780 0019 20000000 		.4byte	.Ldebug_ranges0+0x20
 1781 001d 00000000 		.4byte	0
 1782 0021 00000000 		.4byte	.Ldebug_line0
 1783 0025 02       		.uleb128 0x2
 1784 0026 04       		.byte	0x4
 1785 0027 04       		.byte	0x4
 1786 0028 B6030000 		.4byte	.LASF0
 1787 002c 02       		.uleb128 0x2
 1788 002d 01       		.byte	0x1
 1789 002e 06       		.byte	0x6
 1790 002f EA0E0000 		.4byte	.LASF1
 1791 0033 03       		.uleb128 0x3
 1792 0034 470C0000 		.4byte	.LASF4
 1793 0038 02       		.byte	0x2
 1794 0039 1D       		.byte	0x1d
 1795 003a 3E000000 		.4byte	0x3e
 1796 003e 02       		.uleb128 0x2
 1797 003f 01       		.byte	0x1
 1798 0040 08       		.byte	0x8
 1799 0041 830D0000 		.4byte	.LASF2
 1800 0045 02       		.uleb128 0x2
 1801 0046 02       		.byte	0x2
 1802 0047 05       		.byte	0x5
 1803 0048 110B0000 		.4byte	.LASF3
 1804 004c 03       		.uleb128 0x3
 1805 004d F6040000 		.4byte	.LASF5
 1806 0051 02       		.byte	0x2
 1807 0052 2B       		.byte	0x2b
 1808 0053 57000000 		.4byte	0x57
 1809 0057 02       		.uleb128 0x2
 1810 0058 02       		.byte	0x2
 1811 0059 07       		.byte	0x7
 1812 005a 0B0F0000 		.4byte	.LASF6
 1813 005e 02       		.uleb128 0x2
 1814 005f 04       		.byte	0x4
 1815 0060 05       		.byte	0x5
 1816 0061 640B0000 		.4byte	.LASF7
 1817 0065 02       		.uleb128 0x2
 1818 0066 04       		.byte	0x4
 1819 0067 07       		.byte	0x7
 1820 0068 EE0C0000 		.4byte	.LASF8
 1821 006c 02       		.uleb128 0x2
ARM GAS  C:\Users\ADMINI~1\AppData\Local\Temp\ccPHzW0f.s 			page 58


 1822 006d 08       		.byte	0x8
 1823 006e 05       		.byte	0x5
 1824 006f CB080000 		.4byte	.LASF9
 1825 0073 02       		.uleb128 0x2
 1826 0074 08       		.byte	0x8
 1827 0075 07       		.byte	0x7
 1828 0076 9D040000 		.4byte	.LASF10
 1829 007a 04       		.uleb128 0x4
 1830 007b 04       		.byte	0x4
 1831 007c 05       		.byte	0x5
 1832 007d 696E7400 		.ascii	"int\000"
 1833 0081 02       		.uleb128 0x2
 1834 0082 04       		.byte	0x4
 1835 0083 07       		.byte	0x7
 1836 0084 7D010000 		.4byte	.LASF11
 1837 0088 03       		.uleb128 0x3
 1838 0089 28080000 		.4byte	.LASF12
 1839 008d 03       		.byte	0x3
 1840 008e 15       		.byte	0x15
 1841 008f 33000000 		.4byte	0x33
 1842 0093 03       		.uleb128 0x3
 1843 0094 860A0000 		.4byte	.LASF13
 1844 0098 03       		.byte	0x3
 1845 0099 21       		.byte	0x21
 1846 009a 4C000000 		.4byte	0x4c
 1847 009e 05       		.uleb128 0x5
 1848 009f 7D0F0000 		.4byte	.LASF14
 1849 00a3 04       		.byte	0x4
 1850 00a4 9801     		.2byte	0x198
 1851 00a6 3E000000 		.4byte	0x3e
 1852 00aa 05       		.uleb128 0x5
 1853 00ab ED070000 		.4byte	.LASF15
 1854 00af 04       		.byte	0x4
 1855 00b0 9901     		.2byte	0x199
 1856 00b2 57000000 		.4byte	0x57
 1857 00b6 05       		.uleb128 0x5
 1858 00b7 8E090000 		.4byte	.LASF16
 1859 00bb 04       		.byte	0x4
 1860 00bc 9A01     		.2byte	0x19a
 1861 00be 65000000 		.4byte	0x65
 1862 00c2 02       		.uleb128 0x2
 1863 00c3 08       		.byte	0x8
 1864 00c4 04       		.byte	0x4
 1865 00c5 830F0000 		.4byte	.LASF17
 1866 00c9 02       		.uleb128 0x2
 1867 00ca 01       		.byte	0x1
 1868 00cb 08       		.byte	0x8
 1869 00cc AE070000 		.4byte	.LASF18
 1870 00d0 05       		.uleb128 0x5
 1871 00d1 61090000 		.4byte	.LASF19
 1872 00d5 04       		.byte	0x4
 1873 00d6 5402     		.2byte	0x254
 1874 00d8 DC000000 		.4byte	0xdc
 1875 00dc 06       		.uleb128 0x6
 1876 00dd 04       		.byte	0x4
 1877 00de E2000000 		.4byte	0xe2
 1878 00e2 07       		.uleb128 0x7
ARM GAS  C:\Users\ADMINI~1\AppData\Local\Temp\ccPHzW0f.s 			page 59


 1879 00e3 02       		.uleb128 0x2
 1880 00e4 04       		.byte	0x4
 1881 00e5 07       		.byte	0x7
 1882 00e6 E50C0000 		.4byte	.LASF20
 1883 00ea 08       		.uleb128 0x8
 1884 00eb 04       		.byte	0x4
 1885 00ec 02       		.uleb128 0x2
 1886 00ed 08       		.byte	0x8
 1887 00ee 04       		.byte	0x4
 1888 00ef 7A0A0000 		.4byte	.LASF21
 1889 00f3 03       		.uleb128 0x3
 1890 00f4 3C0A0000 		.4byte	.LASF22
 1891 00f8 05       		.byte	0x5
 1892 00f9 2F       		.byte	0x2f
 1893 00fa 6C000000 		.4byte	0x6c
 1894 00fe 09       		.uleb128 0x9
 1895 00ff 25000000 		.4byte	0x25
 1896 0103 0E010000 		.4byte	0x10e
 1897 0107 0A       		.uleb128 0xa
 1898 0108 E3000000 		.4byte	0xe3
 1899 010c 03       		.byte	0x3
 1900 010d 00       		.byte	0
 1901 010e 0B       		.uleb128 0xb
 1902 010f D40F0000 		.4byte	.LASF26
 1903 0113 01       		.byte	0x1
 1904 0114 06       		.byte	0x6
 1905 0115 7402     		.2byte	0x274
 1906 0117 2E010000 		.4byte	0x12e
 1907 011b 0C       		.uleb128 0xc
 1908 011c AD010000 		.4byte	.LASF23
 1909 0120 01       		.sleb128 1
 1910 0121 0C       		.uleb128 0xc
 1911 0122 A6000000 		.4byte	.LASF24
 1912 0126 02       		.sleb128 2
 1913 0127 0C       		.uleb128 0xc
 1914 0128 B70D0000 		.4byte	.LASF25
 1915 012c 03       		.sleb128 3
 1916 012d 00       		.byte	0
 1917 012e 0B       		.uleb128 0xb
 1918 012f 50060000 		.4byte	.LASF27
 1919 0133 01       		.byte	0x1
 1920 0134 06       		.byte	0x6
 1921 0135 9202     		.2byte	0x292
 1922 0137 68020000 		.4byte	0x268
 1923 013b 0C       		.uleb128 0xc
 1924 013c F6010000 		.4byte	.LASF28
 1925 0140 00       		.sleb128 0
 1926 0141 0C       		.uleb128 0xc
 1927 0142 040C0000 		.4byte	.LASF29
 1928 0146 01       		.sleb128 1
 1929 0147 0C       		.uleb128 0xc
 1930 0148 090A0000 		.4byte	.LASF30
 1931 014c 02       		.sleb128 2
 1932 014d 0C       		.uleb128 0xc
 1933 014e 06070000 		.4byte	.LASF31
 1934 0152 03       		.sleb128 3
 1935 0153 0C       		.uleb128 0xc
ARM GAS  C:\Users\ADMINI~1\AppData\Local\Temp\ccPHzW0f.s 			page 60


 1936 0154 46100000 		.4byte	.LASF32
 1937 0158 04       		.sleb128 4
 1938 0159 0C       		.uleb128 0xc
 1939 015a 6F040000 		.4byte	.LASF33
 1940 015e 05       		.sleb128 5
 1941 015f 0C       		.uleb128 0xc
 1942 0160 6B070000 		.4byte	.LASF34
 1943 0164 06       		.sleb128 6
 1944 0165 0C       		.uleb128 0xc
 1945 0166 DD060000 		.4byte	.LASF35
 1946 016a 07       		.sleb128 7
 1947 016b 0C       		.uleb128 0xc
 1948 016c 40040000 		.4byte	.LASF36
 1949 0170 08       		.sleb128 8
 1950 0171 0C       		.uleb128 0xc
 1951 0172 95090000 		.4byte	.LASF37
 1952 0176 09       		.sleb128 9
 1953 0177 0C       		.uleb128 0xc
 1954 0178 23100000 		.4byte	.LASF38
 1955 017c 0A       		.sleb128 10
 1956 017d 0C       		.uleb128 0xc
 1957 017e 04100000 		.4byte	.LASF39
 1958 0182 0B       		.sleb128 11
 1959 0183 0C       		.uleb128 0xc
 1960 0184 EE020000 		.4byte	.LASF40
 1961 0188 0C       		.sleb128 12
 1962 0189 0C       		.uleb128 0xc
 1963 018a BB0E0000 		.4byte	.LASF41
 1964 018e 0D       		.sleb128 13
 1965 018f 0C       		.uleb128 0xc
 1966 0190 2C000000 		.4byte	.LASF42
 1967 0194 0E       		.sleb128 14
 1968 0195 0C       		.uleb128 0xc
 1969 0196 3F050000 		.4byte	.LASF43
 1970 019a 0F       		.sleb128 15
 1971 019b 0C       		.uleb128 0xc
 1972 019c 85030000 		.4byte	.LASF44
 1973 01a0 10       		.sleb128 16
 1974 01a1 0C       		.uleb128 0xc
 1975 01a2 1B0B0000 		.4byte	.LASF45
 1976 01a6 11       		.sleb128 17
 1977 01a7 0C       		.uleb128 0xc
 1978 01a8 0A0E0000 		.4byte	.LASF46
 1979 01ac 12       		.sleb128 18
 1980 01ad 0C       		.uleb128 0xc
 1981 01ae CD0A0000 		.4byte	.LASF47
 1982 01b2 13       		.sleb128 19
 1983 01b3 0C       		.uleb128 0xc
 1984 01b4 9E0B0000 		.4byte	.LASF48
 1985 01b8 14       		.sleb128 20
 1986 01b9 0C       		.uleb128 0xc
 1987 01ba 17020000 		.4byte	.LASF49
 1988 01be 15       		.sleb128 21
 1989 01bf 0C       		.uleb128 0xc
 1990 01c0 290F0000 		.4byte	.LASF50
 1991 01c4 16       		.sleb128 22
 1992 01c5 0C       		.uleb128 0xc
ARM GAS  C:\Users\ADMINI~1\AppData\Local\Temp\ccPHzW0f.s 			page 61


 1993 01c6 1B030000 		.4byte	.LASF51
 1994 01ca 17       		.sleb128 23
 1995 01cb 0C       		.uleb128 0xc
 1996 01cc 88100000 		.4byte	.LASF52
 1997 01d0 18       		.sleb128 24
 1998 01d1 0C       		.uleb128 0xc
 1999 01d2 CB070000 		.4byte	.LASF53
 2000 01d6 19       		.sleb128 25
 2001 01d7 0C       		.uleb128 0xc
 2002 01d8 1F050000 		.4byte	.LASF54
 2003 01dc 1A       		.sleb128 26
 2004 01dd 0C       		.uleb128 0xc
 2005 01de AA020000 		.4byte	.LASF55
 2006 01e2 1B       		.sleb128 27
 2007 01e3 0C       		.uleb128 0xc
 2008 01e4 75000000 		.4byte	.LASF56
 2009 01e8 1C       		.sleb128 28
 2010 01e9 0C       		.uleb128 0xc
 2011 01ea 2B090000 		.4byte	.LASF57
 2012 01ee 1D       		.sleb128 29
 2013 01ef 0C       		.uleb128 0xc
 2014 01f0 6D0B0000 		.4byte	.LASF58
 2015 01f4 1E       		.sleb128 30
 2016 01f5 0C       		.uleb128 0xc
 2017 01f6 A0060000 		.4byte	.LASF59
 2018 01fa 1F       		.sleb128 31
 2019 01fb 0C       		.uleb128 0xc
 2020 01fc 57030000 		.4byte	.LASF60
 2021 0200 20       		.sleb128 32
 2022 0201 0C       		.uleb128 0xc
 2023 0202 F1080000 		.4byte	.LASF61
 2024 0206 21       		.sleb128 33
 2025 0207 0C       		.uleb128 0xc
 2026 0208 66080000 		.4byte	.LASF62
 2027 020c 22       		.sleb128 34
 2028 020d 0C       		.uleb128 0xc
 2029 020e FD070000 		.4byte	.LASF63
 2030 0212 23       		.sleb128 35
 2031 0213 0C       		.uleb128 0xc
 2032 0214 BF090000 		.4byte	.LASF64
 2033 0218 24       		.sleb128 36
 2034 0219 0C       		.uleb128 0xc
 2035 021a 30080000 		.4byte	.LASF65
 2036 021e 25       		.sleb128 37
 2037 021f 0C       		.uleb128 0xc
 2038 0220 D3040000 		.4byte	.LASF66
 2039 0224 26       		.sleb128 38
 2040 0225 0C       		.uleb128 0xc
 2041 0226 52020000 		.4byte	.LASF67
 2042 022a 27       		.sleb128 39
 2043 022b 0C       		.uleb128 0xc
 2044 022c AC0A0000 		.4byte	.LASF68
 2045 0230 28       		.sleb128 40
 2046 0231 0C       		.uleb128 0xc
 2047 0232 D00D0000 		.4byte	.LASF69
 2048 0236 29       		.sleb128 41
 2049 0237 0C       		.uleb128 0xc
ARM GAS  C:\Users\ADMINI~1\AppData\Local\Temp\ccPHzW0f.s 			page 62


 2050 0238 4D0B0000 		.4byte	.LASF70
 2051 023c 2A       		.sleb128 42
 2052 023d 0C       		.uleb128 0xc
 2053 023e AC090000 		.4byte	.LASF71
 2054 0242 2B       		.sleb128 43
 2055 0243 0C       		.uleb128 0xc
 2056 0244 14040000 		.4byte	.LASF72
 2057 0248 2C       		.sleb128 44
 2058 0249 0C       		.uleb128 0xc
 2059 024a 21070000 		.4byte	.LASF73
 2060 024e 2D       		.sleb128 45
 2061 024f 0C       		.uleb128 0xc
 2062 0250 E9000000 		.4byte	.LASF74
 2063 0254 2E       		.sleb128 46
 2064 0255 0C       		.uleb128 0xc
 2065 0256 5F100000 		.4byte	.LASF75
 2066 025a 2F       		.sleb128 47
 2067 025b 0C       		.uleb128 0xc
 2068 025c 4B0D0000 		.4byte	.LASF76
 2069 0260 30       		.sleb128 48
 2070 0261 0C       		.uleb128 0xc
 2071 0262 D3010000 		.4byte	.LASF77
 2072 0266 31       		.sleb128 49
 2073 0267 00       		.byte	0
 2074 0268 03       		.uleb128 0x3
 2075 0269 91040000 		.4byte	.LASF78
 2076 026d 07       		.byte	0x7
 2077 026e 24       		.byte	0x24
 2078 026f 7A000000 		.4byte	0x7a
 2079 0273 09       		.uleb128 0x9
 2080 0274 5E000000 		.4byte	0x5e
 2081 0278 83020000 		.4byte	0x283
 2082 027c 0A       		.uleb128 0xa
 2083 027d E3000000 		.4byte	0xe3
 2084 0281 02       		.byte	0x2
 2085 0282 00       		.byte	0
 2086 0283 09       		.uleb128 0x9
 2087 0284 45000000 		.4byte	0x45
 2088 0288 93020000 		.4byte	0x293
 2089 028c 0A       		.uleb128 0xa
 2090 028d E3000000 		.4byte	0xe3
 2091 0291 02       		.byte	0x2
 2092 0292 00       		.byte	0
 2093 0293 0D       		.uleb128 0xd
 2094 0294 50030000 		.4byte	.LASF206
 2095 0298 10       		.byte	0x10
 2096 0299 08       		.byte	0x8
 2097 029a 0E       		.byte	0xe
 2098 029b D0020000 		.4byte	0x2d0
 2099 029f 0E       		.uleb128 0xe
 2100 02a0 EA080000 		.4byte	.LASF79
 2101 02a4 08       		.byte	0x8
 2102 02a5 0F       		.byte	0xf
 2103 02a6 5E000000 		.4byte	0x5e
 2104 02aa 00       		.byte	0
 2105 02ab 0E       		.uleb128 0xe
 2106 02ac 84040000 		.4byte	.LASF80
ARM GAS  C:\Users\ADMINI~1\AppData\Local\Temp\ccPHzW0f.s 			page 63


 2107 02b0 08       		.byte	0x8
 2108 02b1 10       		.byte	0x10
 2109 02b2 3E000000 		.4byte	0x3e
 2110 02b6 04       		.byte	0x4
 2111 02b7 0E       		.uleb128 0xe
 2112 02b8 48010000 		.4byte	.LASF81
 2113 02bc 08       		.byte	0x8
 2114 02bd 11       		.byte	0x11
 2115 02be 7A000000 		.4byte	0x7a
 2116 02c2 08       		.byte	0x8
 2117 02c3 0E       		.uleb128 0xe
 2118 02c4 440B0000 		.4byte	.LASF82
 2119 02c8 08       		.byte	0x8
 2120 02c9 12       		.byte	0x12
 2121 02ca D0020000 		.4byte	0x2d0
 2122 02ce 0C       		.byte	0xc
 2123 02cf 00       		.byte	0
 2124 02d0 0F       		.uleb128 0xf
 2125 02d1 3E000000 		.4byte	0x3e
 2126 02d5 09       		.uleb128 0x9
 2127 02d6 25000000 		.4byte	0x25
 2128 02da E5020000 		.4byte	0x2e5
 2129 02de 0A       		.uleb128 0xa
 2130 02df E3000000 		.4byte	0xe3
 2131 02e3 02       		.byte	0x2
 2132 02e4 00       		.byte	0
 2133 02e5 10       		.uleb128 0x10
 2134 02e6 D3030000 		.4byte	.LASF168
 2135 02ea 01       		.byte	0x1
 2136 02eb 59       		.byte	0x59
 2137 02ec 01       		.byte	0x1
 2138 02ed 11       		.uleb128 0x11
 2139 02ee 510D0000 		.4byte	.LASF207
 2140 02f2 01       		.byte	0x1
 2141 02f3 5E       		.byte	0x5e
 2142 02f4 00000000 		.4byte	.LFB42
 2143 02f8 14000000 		.4byte	.LFE42-.LFB42
 2144 02fc 01       		.uleb128 0x1
 2145 02fd 9C       		.byte	0x9c
 2146 02fe 1B030000 		.4byte	0x31b
 2147 0302 12       		.uleb128 0x12
 2148 0303 E5020000 		.4byte	0x2e5
 2149 0307 00000000 		.4byte	.LBB4
 2150 030b 00000000 		.4byte	.Ldebug_ranges0+0
 2151 030f 01       		.byte	0x1
 2152 0310 60       		.byte	0x60
 2153 0311 13       		.uleb128 0x13
 2154 0312 0C000000 		.4byte	.LVL0
 2155 0316 C80F0000 		.4byte	0xfc8
 2156 031a 00       		.byte	0
 2157 031b 14       		.uleb128 0x14
 2158 031c E5020000 		.4byte	0x2e5
 2159 0320 00000000 		.4byte	.LFB41
 2160 0324 0C000000 		.4byte	.LFE41-.LFB41
 2161 0328 01       		.uleb128 0x1
 2162 0329 9C       		.byte	0x9c
 2163 032a 15       		.uleb128 0x15
ARM GAS  C:\Users\ADMINI~1\AppData\Local\Temp\ccPHzW0f.s 			page 64


 2164 032b 60040000 		.4byte	.LASF208
 2165 032f 01       		.byte	0x1
 2166 0330 A9       		.byte	0xa9
 2167 0331 AA000000 		.4byte	0xaa
 2168 0335 00000000 		.4byte	.LFB44
 2169 0339 0C000000 		.4byte	.LFE44-.LFB44
 2170 033d 01       		.uleb128 0x1
 2171 033e 9C       		.byte	0x9c
 2172 033f 16       		.uleb128 0x16
 2173 0340 5A070000 		.4byte	.LASF85
 2174 0344 01       		.byte	0x1
 2175 0345 AE       		.byte	0xae
 2176 0346 68020000 		.4byte	0x268
 2177 034a 00000000 		.4byte	.LFB45
 2178 034e D0000000 		.4byte	.LFE45-.LFB45
 2179 0352 01       		.uleb128 0x1
 2180 0353 9C       		.byte	0x9c
 2181 0354 0A040000 		.4byte	0x40a
 2182 0358 17       		.uleb128 0x17
 2183 0359 B3070000 		.4byte	.LASF87
 2184 035d 01       		.byte	0x1
 2185 035e AE       		.byte	0xae
 2186 035f 25000000 		.4byte	0x25
 2187 0363 00000000 		.4byte	.LLST0
 2188 0367 18       		.uleb128 0x18
 2189 0368 A4080000 		.4byte	.LASF83
 2190 036c 01       		.byte	0x1
 2191 036d B0       		.byte	0xb0
 2192 036e 57000000 		.4byte	0x57
 2193 0372 6504     		.2byte	0x465
 2194 0374 19       		.uleb128 0x19
 2195 0375 C6020000 		.4byte	.LASF84
 2196 0379 01       		.byte	0x1
 2197 037a B1       		.byte	0xb1
 2198 037b 68020000 		.4byte	0x268
 2199 037f 2E000000 		.4byte	.LLST1
 2200 0383 13       		.uleb128 0x13
 2201 0384 0A000000 		.4byte	.LVL2
 2202 0388 D30F0000 		.4byte	0xfd3
 2203 038c 1A       		.uleb128 0x1a
 2204 038d 28000000 		.4byte	.LVL5
 2205 0391 DE0F0000 		.4byte	0xfde
 2206 0395 A0030000 		.4byte	0x3a0
 2207 0399 1B       		.uleb128 0x1b
 2208 039a 01       		.uleb128 0x1
 2209 039b 50       		.byte	0x50
 2210 039c 02       		.uleb128 0x2
 2211 039d 77       		.byte	0x77
 2212 039e 00       		.sleb128 0
 2213 039f 00       		.byte	0
 2214 03a0 1A       		.uleb128 0x1a
 2215 03a1 44000000 		.4byte	.LVL9
 2216 03a5 DE0F0000 		.4byte	0xfde
 2217 03a9 B3030000 		.4byte	0x3b3
 2218 03ad 1B       		.uleb128 0x1b
 2219 03ae 01       		.uleb128 0x1
 2220 03af 50       		.byte	0x50
ARM GAS  C:\Users\ADMINI~1\AppData\Local\Temp\ccPHzW0f.s 			page 65


 2221 03b0 01       		.uleb128 0x1
 2222 03b1 34       		.byte	0x34
 2223 03b2 00       		.byte	0
 2224 03b3 1A       		.uleb128 0x1a
 2225 03b4 60000000 		.4byte	.LVL13
 2226 03b8 DE0F0000 		.4byte	0xfde
 2227 03bc C6030000 		.4byte	0x3c6
 2228 03c0 1B       		.uleb128 0x1b
 2229 03c1 01       		.uleb128 0x1
 2230 03c2 50       		.byte	0x50
 2231 03c3 01       		.uleb128 0x1
 2232 03c4 40       		.byte	0x40
 2233 03c5 00       		.byte	0
 2234 03c6 1A       		.uleb128 0x1a
 2235 03c7 7C000000 		.4byte	.LVL17
 2236 03cb DE0F0000 		.4byte	0xfde
 2237 03cf D9030000 		.4byte	0x3d9
 2238 03d3 1B       		.uleb128 0x1b
 2239 03d4 01       		.uleb128 0x1
 2240 03d5 50       		.byte	0x50
 2241 03d6 01       		.uleb128 0x1
 2242 03d7 42       		.byte	0x42
 2243 03d8 00       		.byte	0
 2244 03d9 1A       		.uleb128 0x1a
 2245 03da 98000000 		.4byte	.LVL21
 2246 03de DE0F0000 		.4byte	0xfde
 2247 03e2 EC030000 		.4byte	0x3ec
 2248 03e6 1B       		.uleb128 0x1b
 2249 03e7 01       		.uleb128 0x1
 2250 03e8 50       		.byte	0x50
 2251 03e9 01       		.uleb128 0x1
 2252 03ea 43       		.byte	0x43
 2253 03eb 00       		.byte	0
 2254 03ec 1A       		.uleb128 0x1a
 2255 03ed B4000000 		.4byte	.LVL25
 2256 03f1 DE0F0000 		.4byte	0xfde
 2257 03f5 00040000 		.4byte	0x400
 2258 03f9 1B       		.uleb128 0x1b
 2259 03fa 01       		.uleb128 0x1
 2260 03fb 50       		.byte	0x50
 2261 03fc 02       		.uleb128 0x2
 2262 03fd 08       		.byte	0x8
 2263 03fe 29       		.byte	0x29
 2264 03ff 00       		.byte	0
 2265 0400 13       		.uleb128 0x13
 2266 0401 BE000000 		.4byte	.LVL27
 2267 0405 F80F0000 		.4byte	0xff8
 2268 0409 00       		.byte	0
 2269 040a 1C       		.uleb128 0x1c
 2270 040b 54080000 		.4byte	.LASF86
 2271 040f 01       		.byte	0x1
 2272 0410 2001     		.2byte	0x120
 2273 0412 7A000000 		.4byte	0x7a
 2274 0416 00000000 		.4byte	.LFB46
 2275 041a 04000000 		.4byte	.LFE46-.LFB46
 2276 041e 01       		.uleb128 0x1
 2277 041f 9C       		.byte	0x9c
ARM GAS  C:\Users\ADMINI~1\AppData\Local\Temp\ccPHzW0f.s 			page 66


 2278 0420 33040000 		.4byte	0x433
 2279 0424 1D       		.uleb128 0x1d
 2280 0425 6300     		.ascii	"c\000"
 2281 0427 01       		.byte	0x1
 2282 0428 2001     		.2byte	0x120
 2283 042a C9000000 		.4byte	0xc9
 2284 042e 58000000 		.4byte	.LLST2
 2285 0432 00       		.byte	0
 2286 0433 1C       		.uleb128 0x1c
 2287 0434 84020000 		.4byte	.LASF88
 2288 0438 01       		.byte	0x1
 2289 0439 A902     		.2byte	0x2a9
 2290 043b 68020000 		.4byte	0x268
 2291 043f 00000000 		.4byte	.LFB47
 2292 0443 88000000 		.4byte	.LFE47-.LFB47
 2293 0447 01       		.uleb128 0x1
 2294 0448 9C       		.byte	0x9c
 2295 0449 CF040000 		.4byte	0x4cf
 2296 044d 1E       		.uleb128 0x1e
 2297 044e 970B0000 		.4byte	.LASF89
 2298 0452 01       		.byte	0x1
 2299 0453 AB02     		.2byte	0x2ab
 2300 0455 68020000 		.4byte	0x268
 2301 0459 79000000 		.4byte	.LLST3
 2302 045d 1F       		.uleb128 0x1f
 2303 045e 45020000 		.4byte	.LASF90
 2304 0462 01       		.byte	0x1
 2305 0463 AD02     		.2byte	0x2ad
 2306 0465 CF040000 		.4byte	0x4cf
 2307 0469 02       		.uleb128 0x2
 2308 046a 91       		.byte	0x91
 2309 046b 54       		.sleb128 -44
 2310 046c 20       		.uleb128 0x20
 2311 046d 49090000 		.4byte	.LASF91
 2312 0471 01       		.byte	0x1
 2313 0472 AE02     		.2byte	0x2ae
 2314 0474 7A000000 		.4byte	0x7a
 2315 0478 08       		.byte	0x8
 2316 0479 13       		.uleb128 0x13
 2317 047a 08000000 		.4byte	.LVL32
 2318 047e D30F0000 		.4byte	0xfd3
 2319 0482 1A       		.uleb128 0x1a
 2320 0483 12000000 		.4byte	.LVL33
 2321 0487 09100000 		.4byte	0x1009
 2322 048b A1040000 		.4byte	0x4a1
 2323 048f 1B       		.uleb128 0x1b
 2324 0490 01       		.uleb128 0x1
 2325 0491 52       		.byte	0x52
 2326 0492 02       		.uleb128 0x2
 2327 0493 08       		.byte	0x8
 2328 0494 24       		.byte	0x24
 2329 0495 1B       		.uleb128 0x1b
 2330 0496 01       		.uleb128 0x1
 2331 0497 51       		.byte	0x51
 2332 0498 01       		.uleb128 0x1
 2333 0499 30       		.byte	0x30
 2334 049a 1B       		.uleb128 0x1b
ARM GAS  C:\Users\ADMINI~1\AppData\Local\Temp\ccPHzW0f.s 			page 67


 2335 049b 01       		.uleb128 0x1
 2336 049c 50       		.byte	0x50
 2337 049d 02       		.uleb128 0x2
 2338 049e 91       		.byte	0x91
 2339 049f 54       		.sleb128 -44
 2340 04a0 00       		.byte	0
 2341 04a1 13       		.uleb128 0x13
 2342 04a2 16000000 		.4byte	.LVL34
 2343 04a6 26100000 		.4byte	0x1026
 2344 04aa 1A       		.uleb128 0x1a
 2345 04ab 20000000 		.4byte	.LVL35
 2346 04af 31100000 		.4byte	0x1031
 2347 04b3 BE040000 		.4byte	0x4be
 2348 04b7 1B       		.uleb128 0x1b
 2349 04b8 01       		.uleb128 0x1
 2350 04b9 50       		.byte	0x50
 2351 04ba 02       		.uleb128 0x2
 2352 04bb 91       		.byte	0x91
 2353 04bc 54       		.sleb128 -44
 2354 04bd 00       		.byte	0
 2355 04be 21       		.uleb128 0x21
 2356 04bf 72000000 		.4byte	.LVL36
 2357 04c3 4C100000 		.4byte	0x104c
 2358 04c7 1B       		.uleb128 0x1b
 2359 04c8 01       		.uleb128 0x1
 2360 04c9 50       		.byte	0x50
 2361 04ca 02       		.uleb128 0x2
 2362 04cb 74       		.byte	0x74
 2363 04cc 18       		.sleb128 24
 2364 04cd 00       		.byte	0
 2365 04ce 00       		.byte	0
 2366 04cf 09       		.uleb128 0x9
 2367 04d0 7A000000 		.4byte	0x7a
 2368 04d4 DF040000 		.4byte	0x4df
 2369 04d8 0A       		.uleb128 0xa
 2370 04d9 E3000000 		.4byte	0xe3
 2371 04dd 08       		.byte	0x8
 2372 04de 00       		.byte	0
 2373 04df 22       		.uleb128 0x22
 2374 04e0 0F060000 		.4byte	.LASF92
 2375 04e4 01       		.byte	0x1
 2376 04e5 64       		.byte	0x64
 2377 04e6 68020000 		.4byte	0x268
 2378 04ea 00000000 		.4byte	.LFB43
 2379 04ee B8000000 		.4byte	.LFE43-.LFB43
 2380 04f2 01       		.uleb128 0x1
 2381 04f3 9C       		.byte	0x9c
 2382 04f4 FB050000 		.4byte	0x5fb
 2383 04f8 19       		.uleb128 0x19
 2384 04f9 C6020000 		.4byte	.LASF84
 2385 04fd 01       		.byte	0x1
 2386 04fe 66       		.byte	0x66
 2387 04ff 68020000 		.4byte	0x268
 2388 0503 98000000 		.4byte	.LLST4
 2389 0507 13       		.uleb128 0x13
 2390 0508 06000000 		.4byte	.LVL39
 2391 050c 61100000 		.4byte	0x1061
ARM GAS  C:\Users\ADMINI~1\AppData\Local\Temp\ccPHzW0f.s 			page 68


 2392 0510 1A       		.uleb128 0x1a
 2393 0511 0E000000 		.4byte	.LVL40
 2394 0515 68100000 		.4byte	0x1068
 2395 0519 28050000 		.4byte	0x528
 2396 051d 1B       		.uleb128 0x1b
 2397 051e 01       		.uleb128 0x1
 2398 051f 51       		.byte	0x51
 2399 0520 01       		.uleb128 0x1
 2400 0521 30       		.byte	0x30
 2401 0522 1B       		.uleb128 0x1b
 2402 0523 01       		.uleb128 0x1
 2403 0524 50       		.byte	0x50
 2404 0525 01       		.uleb128 0x1
 2405 0526 31       		.byte	0x31
 2406 0527 00       		.byte	0
 2407 0528 13       		.uleb128 0x13
 2408 0529 24000000 		.4byte	.LVL41
 2409 052d 33040000 		.4byte	0x433
 2410 0531 13       		.uleb128 0x13
 2411 0532 3C000000 		.4byte	.LVL43
 2412 0536 D30F0000 		.4byte	0xfd3
 2413 053a 1A       		.uleb128 0x1a
 2414 053b 4A000000 		.4byte	.LVL44
 2415 053f 88100000 		.4byte	0x1088
 2416 0543 54050000 		.4byte	0x554
 2417 0547 1B       		.uleb128 0x1b
 2418 0548 01       		.uleb128 0x1
 2419 0549 51       		.byte	0x51
 2420 054a 02       		.uleb128 0x2
 2421 054b 75       		.byte	0x75
 2422 054c 00       		.sleb128 0
 2423 054d 1B       		.uleb128 0x1b
 2424 054e 01       		.uleb128 0x1
 2425 054f 50       		.byte	0x50
 2426 0550 02       		.uleb128 0x2
 2427 0551 75       		.byte	0x75
 2428 0552 00       		.sleb128 0
 2429 0553 00       		.byte	0
 2430 0554 13       		.uleb128 0x13
 2431 0555 4E000000 		.4byte	.LVL45
 2432 0559 F80F0000 		.4byte	0xff8
 2433 055d 13       		.uleb128 0x13
 2434 055e 52000000 		.4byte	.LVL46
 2435 0562 D30F0000 		.4byte	0xfd3
 2436 0566 1A       		.uleb128 0x1a
 2437 0567 62000000 		.4byte	.LVL47
 2438 056b 88100000 		.4byte	0x1088
 2439 056f 7F050000 		.4byte	0x57f
 2440 0573 1B       		.uleb128 0x1b
 2441 0574 01       		.uleb128 0x1
 2442 0575 51       		.byte	0x51
 2443 0576 02       		.uleb128 0x2
 2444 0577 75       		.byte	0x75
 2445 0578 00       		.sleb128 0
 2446 0579 1B       		.uleb128 0x1b
 2447 057a 01       		.uleb128 0x1
 2448 057b 50       		.byte	0x50
ARM GAS  C:\Users\ADMINI~1\AppData\Local\Temp\ccPHzW0f.s 			page 69


 2449 057c 01       		.uleb128 0x1
 2450 057d 34       		.byte	0x34
 2451 057e 00       		.byte	0
 2452 057f 13       		.uleb128 0x13
 2453 0580 66000000 		.4byte	.LVL48
 2454 0584 F80F0000 		.4byte	0xff8
 2455 0588 13       		.uleb128 0x13
 2456 0589 6A000000 		.4byte	.LVL49
 2457 058d D30F0000 		.4byte	0xfd3
 2458 0591 1A       		.uleb128 0x1a
 2459 0592 7C000000 		.4byte	.LVL50
 2460 0596 88100000 		.4byte	0x1088
 2461 059a AA050000 		.4byte	0x5aa
 2462 059e 1B       		.uleb128 0x1b
 2463 059f 01       		.uleb128 0x1
 2464 05a0 51       		.byte	0x51
 2465 05a1 02       		.uleb128 0x2
 2466 05a2 75       		.byte	0x75
 2467 05a3 00       		.sleb128 0
 2468 05a4 1B       		.uleb128 0x1b
 2469 05a5 01       		.uleb128 0x1
 2470 05a6 50       		.byte	0x50
 2471 05a7 01       		.uleb128 0x1
 2472 05a8 43       		.byte	0x43
 2473 05a9 00       		.byte	0
 2474 05aa 13       		.uleb128 0x13
 2475 05ab 80000000 		.4byte	.LVL51
 2476 05af F80F0000 		.4byte	0xff8
 2477 05b3 13       		.uleb128 0x13
 2478 05b4 84000000 		.4byte	.LVL52
 2479 05b8 D30F0000 		.4byte	0xfd3
 2480 05bc 1A       		.uleb128 0x1a
 2481 05bd 96000000 		.4byte	.LVL53
 2482 05c1 88100000 		.4byte	0x1088
 2483 05c5 D5050000 		.4byte	0x5d5
 2484 05c9 1B       		.uleb128 0x1b
 2485 05ca 01       		.uleb128 0x1
 2486 05cb 51       		.byte	0x51
 2487 05cc 02       		.uleb128 0x2
 2488 05cd 75       		.byte	0x75
 2489 05ce 00       		.sleb128 0
 2490 05cf 1B       		.uleb128 0x1b
 2491 05d0 01       		.uleb128 0x1
 2492 05d1 50       		.byte	0x50
 2493 05d2 01       		.uleb128 0x1
 2494 05d3 43       		.byte	0x43
 2495 05d4 00       		.byte	0
 2496 05d5 13       		.uleb128 0x13
 2497 05d6 9A000000 		.4byte	.LVL54
 2498 05da F80F0000 		.4byte	0xff8
 2499 05de 13       		.uleb128 0x13
 2500 05df A0000000 		.4byte	.LVL55
 2501 05e3 3F030000 		.4byte	0x33f
 2502 05e7 21       		.uleb128 0x21
 2503 05e8 A6000000 		.4byte	.LVL56
 2504 05ec A2100000 		.4byte	0x10a2
 2505 05f0 1B       		.uleb128 0x1b
ARM GAS  C:\Users\ADMINI~1\AppData\Local\Temp\ccPHzW0f.s 			page 70


 2506 05f1 01       		.uleb128 0x1
 2507 05f2 50       		.byte	0x50
 2508 05f3 05       		.uleb128 0x5
 2509 05f4 03       		.byte	0x3
 2510 05f5 00000000 		.4byte	INVN_INT_InterruptHandler
 2511 05f9 00       		.byte	0
 2512 05fa 00       		.byte	0
 2513 05fb 23       		.uleb128 0x23
 2514 05fc 8A0F0000 		.4byte	.LASF95
 2515 0600 01       		.byte	0x1
 2516 0601 C902     		.2byte	0x2c9
 2517 0603 00000000 		.4byte	.LFB48
 2518 0607 E4000000 		.4byte	.LFE48-.LFB48
 2519 060b 01       		.uleb128 0x1
 2520 060c 9C       		.byte	0x9c
 2521 060d CC060000 		.4byte	0x6cc
 2522 0611 1F       		.uleb128 0x1f
 2523 0612 96060000 		.4byte	.LASF93
 2524 0616 01       		.byte	0x1
 2525 0617 CC02     		.2byte	0x2cc
 2526 0619 73020000 		.4byte	0x273
 2527 061d 02       		.uleb128 0x2
 2528 061e 91       		.byte	0x91
 2529 061f 60       		.sleb128 -32
 2530 0620 24       		.uleb128 0x24
 2531 0621 90000000 		.4byte	.LBB10
 2532 0625 18000000 		.4byte	.LBE10-.LBB10
 2533 0629 82060000 		.4byte	0x682
 2534 062d 1F       		.uleb128 0x1f
 2535 062e 6E090000 		.4byte	.LASF94
 2536 0632 01       		.byte	0x1
 2537 0633 1A03     		.2byte	0x31a
 2538 0635 73020000 		.4byte	0x273
 2539 0639 02       		.uleb128 0x2
 2540 063a 91       		.byte	0x91
 2541 063b 6C       		.sleb128 -20
 2542 063c 1A       		.uleb128 0x1a
 2543 063d 96000000 		.4byte	.LVL61
 2544 0641 B3100000 		.4byte	0x10b3
 2545 0645 50060000 		.4byte	0x650
 2546 0649 1B       		.uleb128 0x1b
 2547 064a 01       		.uleb128 0x1
 2548 064b 50       		.byte	0x50
 2549 064c 02       		.uleb128 0x2
 2550 064d 7D       		.byte	0x7d
 2551 064e 00       		.sleb128 0
 2552 064f 00       		.byte	0
 2553 0650 1A       		.uleb128 0x1a
 2554 0651 9E000000 		.4byte	.LVL62
 2555 0655 CE100000 		.4byte	0x10ce
 2556 0659 6A060000 		.4byte	0x66a
 2557 065d 1B       		.uleb128 0x1b
 2558 065e 01       		.uleb128 0x1
 2559 065f 51       		.byte	0x51
 2560 0660 02       		.uleb128 0x2
 2561 0661 91       		.byte	0x91
 2562 0662 6C       		.sleb128 -20
ARM GAS  C:\Users\ADMINI~1\AppData\Local\Temp\ccPHzW0f.s 			page 71


 2563 0663 1B       		.uleb128 0x1b
 2564 0664 01       		.uleb128 0x1
 2565 0665 50       		.byte	0x50
 2566 0666 02       		.uleb128 0x2
 2567 0667 7D       		.byte	0x7d
 2568 0668 00       		.sleb128 0
 2569 0669 00       		.byte	0
 2570 066a 21       		.uleb128 0x21
 2571 066b A8000000 		.4byte	.LVL63
 2572 066f EF100000 		.4byte	0x10ef
 2573 0673 1B       		.uleb128 0x1b
 2574 0674 01       		.uleb128 0x1
 2575 0675 51       		.byte	0x51
 2576 0676 03       		.uleb128 0x3
 2577 0677 74       		.byte	0x74
 2578 0678 E800     		.sleb128 104
 2579 067a 1B       		.uleb128 0x1b
 2580 067b 01       		.uleb128 0x1
 2581 067c 50       		.byte	0x50
 2582 067d 02       		.uleb128 0x2
 2583 067e 91       		.byte	0x91
 2584 067f 6C       		.sleb128 -20
 2585 0680 00       		.byte	0
 2586 0681 00       		.byte	0
 2587 0682 1A       		.uleb128 0x1a
 2588 0683 0E000000 		.4byte	.LVL58
 2589 0687 09100000 		.4byte	0x1009
 2590 068b A0060000 		.4byte	0x6a0
 2591 068f 1B       		.uleb128 0x1b
 2592 0690 01       		.uleb128 0x1
 2593 0691 52       		.byte	0x52
 2594 0692 01       		.uleb128 0x1
 2595 0693 3C       		.byte	0x3c
 2596 0694 1B       		.uleb128 0x1b
 2597 0695 01       		.uleb128 0x1
 2598 0696 51       		.byte	0x51
 2599 0697 01       		.uleb128 0x1
 2600 0698 30       		.byte	0x30
 2601 0699 1B       		.uleb128 0x1b
 2602 069a 01       		.uleb128 0x1
 2603 069b 50       		.byte	0x50
 2604 069c 02       		.uleb128 0x2
 2605 069d 7D       		.byte	0x7d
 2606 069e 00       		.sleb128 0
 2607 069f 00       		.byte	0
 2608 06a0 1A       		.uleb128 0x1a
 2609 06a1 6E000000 		.4byte	.LVL59
 2610 06a5 09110000 		.4byte	0x1109
 2611 06a9 B4060000 		.4byte	0x6b4
 2612 06ad 1B       		.uleb128 0x1b
 2613 06ae 01       		.uleb128 0x1
 2614 06af 50       		.byte	0x50
 2615 06b0 02       		.uleb128 0x2
 2616 06b1 7D       		.byte	0x7d
 2617 06b2 00       		.sleb128 0
 2618 06b3 00       		.byte	0
 2619 06b4 21       		.uleb128 0x21
ARM GAS  C:\Users\ADMINI~1\AppData\Local\Temp\ccPHzW0f.s 			page 72


 2620 06b5 78000000 		.4byte	.LVL60
 2621 06b9 EF100000 		.4byte	0x10ef
 2622 06bd 1B       		.uleb128 0x1b
 2623 06be 01       		.uleb128 0x1
 2624 06bf 51       		.byte	0x51
 2625 06c0 03       		.uleb128 0x3
 2626 06c1 74       		.byte	0x74
 2627 06c2 E800     		.sleb128 104
 2628 06c4 1B       		.uleb128 0x1b
 2629 06c5 01       		.uleb128 0x1
 2630 06c6 50       		.byte	0x50
 2631 06c7 02       		.uleb128 0x2
 2632 06c8 7D       		.byte	0x7d
 2633 06c9 00       		.sleb128 0
 2634 06ca 00       		.byte	0
 2635 06cb 00       		.byte	0
 2636 06cc 25       		.uleb128 0x25
 2637 06cd 57000000 		.4byte	.LASF96
 2638 06d1 01       		.byte	0x1
 2639 06d2 7603     		.2byte	0x376
 2640 06d4 00000000 		.4byte	.LFB49
 2641 06d8 14040000 		.4byte	.LFE49-.LFB49
 2642 06dc 01       		.uleb128 0x1
 2643 06dd 9C       		.byte	0x9c
 2644 06de DA0B0000 		.4byte	0xbda
 2645 06e2 1F       		.uleb128 0x1f
 2646 06e3 BB000000 		.4byte	.LASF97
 2647 06e7 01       		.byte	0x1
 2648 06e8 7803     		.2byte	0x378
 2649 06ea 45000000 		.4byte	0x45
 2650 06ee 03       		.uleb128 0x3
 2651 06ef 91       		.byte	0x91
 2652 06f0 C07E     		.sleb128 -192
 2653 06f2 1F       		.uleb128 0x1f
 2654 06f3 EC090000 		.4byte	.LASF98
 2655 06f7 01       		.byte	0x1
 2656 06f8 7903     		.2byte	0x379
 2657 06fa 57000000 		.4byte	0x57
 2658 06fe 03       		.uleb128 0x3
 2659 06ff 91       		.byte	0x91
 2660 0700 C27E     		.sleb128 -190
 2661 0702 1F       		.uleb128 0x1f
 2662 0703 0F020000 		.4byte	.LASF99
 2663 0707 01       		.byte	0x1
 2664 0708 7903     		.2byte	0x379
 2665 070a 57000000 		.4byte	0x57
 2666 070e 03       		.uleb128 0x3
 2667 070f 91       		.byte	0x91
 2668 0710 C47E     		.sleb128 -188
 2669 0712 1F       		.uleb128 0x1f
 2670 0713 A00F0000 		.4byte	.LASF100
 2671 0717 01       		.byte	0x1
 2672 0718 7A03     		.2byte	0x37a
 2673 071a 7A000000 		.4byte	0x7a
 2674 071e 03       		.uleb128 0x3
 2675 071f 91       		.byte	0x91
 2676 0720 C87E     		.sleb128 -184
ARM GAS  C:\Users\ADMINI~1\AppData\Local\Temp\ccPHzW0f.s 			page 73


 2677 0722 1F       		.uleb128 0x1f
 2678 0723 AB030000 		.4byte	.LASF101
 2679 0727 01       		.byte	0x1
 2680 0728 7B03     		.2byte	0x37b
 2681 072a 83020000 		.4byte	0x283
 2682 072e 03       		.uleb128 0x3
 2683 072f 91       		.byte	0x91
 2684 0730 CC7E     		.sleb128 -180
 2685 0732 1F       		.uleb128 0x1f
 2686 0733 A60C0000 		.4byte	.LASF102
 2687 0737 01       		.byte	0x1
 2688 0738 7C03     		.2byte	0x37c
 2689 073a 73020000 		.4byte	0x273
 2690 073e 03       		.uleb128 0x3
 2691 073f 91       		.byte	0x91
 2692 0740 D47E     		.sleb128 -172
 2693 0742 1F       		.uleb128 0x1f
 2694 0743 96060000 		.4byte	.LASF93
 2695 0747 01       		.byte	0x1
 2696 0748 7D03     		.2byte	0x37d
 2697 074a 73020000 		.4byte	0x273
 2698 074e 03       		.uleb128 0x3
 2699 074f 91       		.byte	0x91
 2700 0750 E07E     		.sleb128 -160
 2701 0752 1F       		.uleb128 0x1f
 2702 0753 FB090000 		.4byte	.LASF103
 2703 0757 01       		.byte	0x1
 2704 0758 7E03     		.2byte	0x37e
 2705 075a F3000000 		.4byte	0xf3
 2706 075e 05       		.uleb128 0x5
 2707 075f 03       		.byte	0x3
 2708 0760 80000000 		.4byte	lastIrqTimeUs.7662
 2709 0764 20       		.uleb128 0x20
 2710 0765 99020000 		.4byte	.LASF104
 2711 0769 01       		.byte	0x1
 2712 076a 7F03     		.2byte	0x37f
 2713 076c DA0B0000 		.4byte	0xbda
 2714 0770 00       		.byte	0
 2715 0771 1F       		.uleb128 0x1f
 2716 0772 3F060000 		.4byte	.LASF105
 2717 0776 01       		.byte	0x1
 2718 0777 8003     		.2byte	0x380
 2719 0779 DF0B0000 		.4byte	0xbdf
 2720 077d 03       		.uleb128 0x3
 2721 077e 91       		.byte	0x91
 2722 077f 847F     		.sleb128 -124
 2723 0781 24       		.uleb128 0x24
 2724 0782 4A000000 		.4byte	.LBB11
 2725 0786 BE030000 		.4byte	.LBE11-.LBB11
 2726 078a 680B0000 		.4byte	0xb68
 2727 078e 1F       		.uleb128 0x1f
 2728 078f 2F040000 		.4byte	.LASF106
 2729 0793 01       		.byte	0x1
 2730 0794 8B03     		.2byte	0x38b
 2731 0796 57000000 		.4byte	0x57
 2732 079a 03       		.uleb128 0x3
 2733 079b 91       		.byte	0x91
ARM GAS  C:\Users\ADMINI~1\AppData\Local\Temp\ccPHzW0f.s 			page 74


 2734 079c C67E     		.sleb128 -186
 2735 079e 24       		.uleb128 0x24
 2736 079f BC000000 		.4byte	.LBB12
 2737 07a3 4E000000 		.4byte	.LBE12-.LBB12
 2738 07a7 07080000 		.4byte	0x807
 2739 07ab 1E       		.uleb128 0x1e
 2740 07ac 49090000 		.4byte	.LASF91
 2741 07b0 01       		.byte	0x1
 2742 07b1 9D03     		.2byte	0x39d
 2743 07b3 25000000 		.4byte	0x25
 2744 07b7 CC000000 		.4byte	.LLST5
 2745 07bb 1A       		.uleb128 0x1a
 2746 07bc CC000000 		.4byte	.LVL71
 2747 07c0 1E110000 		.4byte	0x111e
 2748 07c4 D0070000 		.4byte	0x7d0
 2749 07c8 1B       		.uleb128 0x1b
 2750 07c9 01       		.uleb128 0x1
 2751 07ca 50       		.byte	0x50
 2752 07cb 03       		.uleb128 0x3
 2753 07cc 91       		.byte	0x91
 2754 07cd D47E     		.sleb128 -172
 2755 07cf 00       		.byte	0
 2756 07d0 13       		.uleb128 0x13
 2757 07d1 D0000000 		.4byte	.LVL72
 2758 07d5 33110000 		.4byte	0x1133
 2759 07d9 13       		.uleb128 0x13
 2760 07da D6000000 		.4byte	.LVL73
 2761 07de 3E110000 		.4byte	0x113e
 2762 07e2 1A       		.uleb128 0x1a
 2763 07e3 FE000000 		.4byte	.LVL78
 2764 07e7 49110000 		.4byte	0x1149
 2765 07eb FD070000 		.4byte	0x7fd
 2766 07ef 1B       		.uleb128 0x1b
 2767 07f0 01       		.uleb128 0x1
 2768 07f1 52       		.byte	0x52
 2769 07f2 02       		.uleb128 0x2
 2770 07f3 75       		.byte	0x75
 2771 07f4 00       		.sleb128 0
 2772 07f5 1B       		.uleb128 0x1b
 2773 07f6 01       		.uleb128 0x1
 2774 07f7 50       		.byte	0x50
 2775 07f8 03       		.uleb128 0x3
 2776 07f9 91       		.byte	0x91
 2777 07fa D47E     		.sleb128 -172
 2778 07fc 00       		.byte	0
 2779 07fd 13       		.uleb128 0x13
 2780 07fe 0A010000 		.4byte	.LVL79
 2781 0802 6A110000 		.4byte	0x116a
 2782 0806 00       		.byte	0
 2783 0807 24       		.uleb128 0x24
 2784 0808 10010000 		.4byte	.LBB13
 2785 080c EE000000 		.4byte	.LBE13-.LBB13
 2786 0810 5B090000 		.4byte	0x95b
 2787 0814 1E       		.uleb128 0x1e
 2788 0815 49090000 		.4byte	.LASF91
 2789 0819 01       		.byte	0x1
 2790 081a AC03     		.2byte	0x3ac
ARM GAS  C:\Users\ADMINI~1\AppData\Local\Temp\ccPHzW0f.s 			page 75


 2791 081c 25000000 		.4byte	0x25
 2792 0820 EA000000 		.4byte	.LLST6
 2793 0824 1F       		.uleb128 0x1f
 2794 0825 000D0000 		.4byte	.LASF107
 2795 0829 01       		.byte	0x1
 2796 082a AD03     		.2byte	0x3ad
 2797 082c 73020000 		.4byte	0x273
 2798 0830 03       		.uleb128 0x3
 2799 0831 91       		.byte	0x91
 2800 0832 EC7E     		.sleb128 -148
 2801 0834 1F       		.uleb128 0x1f
 2802 0835 9C0C0000 		.4byte	.LASF108
 2803 0839 01       		.byte	0x1
 2804 083a AF03     		.2byte	0x3af
 2805 083c 73020000 		.4byte	0x273
 2806 0840 03       		.uleb128 0x3
 2807 0841 91       		.byte	0x91
 2808 0842 F87E     		.sleb128 -136
 2809 0844 1A       		.uleb128 0x1a
 2810 0845 1C010000 		.4byte	.LVL80
 2811 0849 09100000 		.4byte	0x1009
 2812 084d 63080000 		.4byte	0x863
 2813 0851 1B       		.uleb128 0x1b
 2814 0852 01       		.uleb128 0x1
 2815 0853 52       		.byte	0x52
 2816 0854 01       		.uleb128 0x1
 2817 0855 3C       		.byte	0x3c
 2818 0856 1B       		.uleb128 0x1b
 2819 0857 01       		.uleb128 0x1
 2820 0858 51       		.byte	0x51
 2821 0859 01       		.uleb128 0x1
 2822 085a 30       		.byte	0x30
 2823 085b 1B       		.uleb128 0x1b
 2824 085c 01       		.uleb128 0x1
 2825 085d 50       		.byte	0x50
 2826 085e 03       		.uleb128 0x3
 2827 085f 91       		.byte	0x91
 2828 0860 EC7E     		.sleb128 -148
 2829 0862 00       		.byte	0
 2830 0863 1A       		.uleb128 0x1a
 2831 0864 26010000 		.4byte	.LVL81
 2832 0868 09100000 		.4byte	0x1009
 2833 086c 82080000 		.4byte	0x882
 2834 0870 1B       		.uleb128 0x1b
 2835 0871 01       		.uleb128 0x1
 2836 0872 52       		.byte	0x52
 2837 0873 01       		.uleb128 0x1
 2838 0874 3C       		.byte	0x3c
 2839 0875 1B       		.uleb128 0x1b
 2840 0876 01       		.uleb128 0x1
 2841 0877 51       		.byte	0x51
 2842 0878 01       		.uleb128 0x1
 2843 0879 30       		.byte	0x30
 2844 087a 1B       		.uleb128 0x1b
 2845 087b 01       		.uleb128 0x1
 2846 087c 50       		.byte	0x50
 2847 087d 03       		.uleb128 0x3
ARM GAS  C:\Users\ADMINI~1\AppData\Local\Temp\ccPHzW0f.s 			page 76


 2848 087e 91       		.byte	0x91
 2849 087f F87E     		.sleb128 -136
 2850 0881 00       		.byte	0
 2851 0882 1A       		.uleb128 0x1a
 2852 0883 32010000 		.4byte	.LVL82
 2853 0887 8A110000 		.4byte	0x118a
 2854 088b 96080000 		.4byte	0x896
 2855 088f 1B       		.uleb128 0x1b
 2856 0890 01       		.uleb128 0x1
 2857 0891 50       		.byte	0x50
 2858 0892 02       		.uleb128 0x2
 2859 0893 75       		.byte	0x75
 2860 0894 00       		.sleb128 0
 2861 0895 00       		.byte	0
 2862 0896 13       		.uleb128 0x13
 2863 0897 36010000 		.4byte	.LVL83
 2864 089b A5110000 		.4byte	0x11a5
 2865 089f 1A       		.uleb128 0x1a
 2866 08a0 70010000 		.4byte	.LVL88
 2867 08a4 49110000 		.4byte	0x1149
 2868 08a8 BD080000 		.4byte	0x8bd
 2869 08ac 1B       		.uleb128 0x1b
 2870 08ad 01       		.uleb128 0x1
 2871 08ae 52       		.byte	0x52
 2872 08af 05       		.uleb128 0x5
 2873 08b0 03       		.byte	0x3
 2874 08b1 00000000 		.4byte	gyro_raw_float
 2875 08b5 1B       		.uleb128 0x1b
 2876 08b6 01       		.uleb128 0x1
 2877 08b7 50       		.byte	0x50
 2878 08b8 03       		.uleb128 0x3
 2879 08b9 91       		.byte	0x91
 2880 08ba EC7E     		.sleb128 -148
 2881 08bc 00       		.byte	0
 2882 08bd 13       		.uleb128 0x13
 2883 08be 7C010000 		.4byte	.LVL89
 2884 08c2 B0110000 		.4byte	0x11b0
 2885 08c6 13       		.uleb128 0x13
 2886 08c7 80010000 		.4byte	.LVL90
 2887 08cb A5110000 		.4byte	0x11a5
 2888 08cf 1A       		.uleb128 0x1a
 2889 08d0 A6010000 		.4byte	.LVL97
 2890 08d4 CB110000 		.4byte	0x11cb
 2891 08d8 E3080000 		.4byte	0x8e3
 2892 08dc 1B       		.uleb128 0x1b
 2893 08dd 01       		.uleb128 0x1
 2894 08de 50       		.byte	0x50
 2895 08df 02       		.uleb128 0x2
 2896 08e0 75       		.byte	0x75
 2897 08e1 00       		.sleb128 0
 2898 08e2 00       		.byte	0
 2899 08e3 1A       		.uleb128 0x1a
 2900 08e4 C2010000 		.4byte	.LVL98
 2901 08e8 49110000 		.4byte	0x1149
 2902 08ec 0A090000 		.4byte	0x90a
 2903 08f0 1B       		.uleb128 0x1b
 2904 08f1 01       		.uleb128 0x1
ARM GAS  C:\Users\ADMINI~1\AppData\Local\Temp\ccPHzW0f.s 			page 77


 2905 08f2 52       		.byte	0x52
 2906 08f3 05       		.uleb128 0x5
 2907 08f4 03       		.byte	0x3
 2908 08f5 00000000 		.4byte	gyro_bias_float
 2909 08f9 1B       		.uleb128 0x1b
 2910 08fa 01       		.uleb128 0x1
 2911 08fb 51       		.byte	0x51
 2912 08fc 05       		.uleb128 0x5
 2913 08fd 7D       		.byte	0x7d
 2914 08fe 00       		.sleb128 0
 2915 08ff F6       		.byte	0xf6
 2916 0900 04       		.byte	0x4
 2917 0901 25       		.uleb128 0x25
 2918 0902 1B       		.uleb128 0x1b
 2919 0903 01       		.uleb128 0x1
 2920 0904 50       		.byte	0x50
 2921 0905 03       		.uleb128 0x3
 2922 0906 91       		.byte	0x91
 2923 0907 F87E     		.sleb128 -136
 2924 0909 00       		.byte	0
 2925 090a 1A       		.uleb128 0x1a
 2926 090b EA010000 		.4byte	.LVL99
 2927 090f E0110000 		.4byte	0x11e0
 2928 0913 2D090000 		.4byte	0x92d
 2929 0917 1B       		.uleb128 0x1b
 2930 0918 01       		.uleb128 0x1
 2931 0919 52       		.byte	0x52
 2932 091a 03       		.uleb128 0x3
 2933 091b 91       		.byte	0x91
 2934 091c F87E     		.sleb128 -136
 2935 091e 1B       		.uleb128 0x1b
 2936 091f 01       		.uleb128 0x1
 2937 0920 51       		.byte	0x51
 2938 0921 03       		.uleb128 0x3
 2939 0922 91       		.byte	0x91
 2940 0923 EC7E     		.sleb128 -148
 2941 0925 1B       		.uleb128 0x1b
 2942 0926 01       		.uleb128 0x1
 2943 0927 50       		.byte	0x50
 2944 0928 03       		.uleb128 0x3
 2945 0929 91       		.byte	0x91
 2946 092a D47E     		.sleb128 -172
 2947 092c 00       		.byte	0
 2948 092d 1A       		.uleb128 0x1a
 2949 092e F4010000 		.4byte	.LVL100
 2950 0932 49110000 		.4byte	0x1149
 2951 0936 51090000 		.4byte	0x951
 2952 093a 1B       		.uleb128 0x1b
 2953 093b 01       		.uleb128 0x1
 2954 093c 52       		.byte	0x52
 2955 093d 02       		.uleb128 0x2
 2956 093e 77       		.byte	0x77
 2957 093f 00       		.sleb128 0
 2958 0940 1B       		.uleb128 0x1b
 2959 0941 01       		.uleb128 0x1
 2960 0942 51       		.byte	0x51
 2961 0943 05       		.uleb128 0x5
ARM GAS  C:\Users\ADMINI~1\AppData\Local\Temp\ccPHzW0f.s 			page 78


 2962 0944 7D       		.byte	0x7d
 2963 0945 00       		.sleb128 0
 2964 0946 F6       		.byte	0xf6
 2965 0947 04       		.byte	0x4
 2966 0948 25       		.uleb128 0x25
 2967 0949 1B       		.uleb128 0x1b
 2968 094a 01       		.uleb128 0x1
 2969 094b 50       		.byte	0x50
 2970 094c 03       		.uleb128 0x3
 2971 094d 91       		.byte	0x91
 2972 094e D47E     		.sleb128 -172
 2973 0950 00       		.byte	0
 2974 0951 13       		.uleb128 0x13
 2975 0952 FA010000 		.4byte	.LVL101
 2976 0956 FF110000 		.4byte	0x11ff
 2977 095a 00       		.byte	0
 2978 095b 24       		.uleb128 0x24
 2979 095c 04020000 		.4byte	.LBB14
 2980 0960 1E000000 		.4byte	.LBE14-.LBB14
 2981 0964 B1090000 		.4byte	0x9b1
 2982 0968 1E       		.uleb128 0x1e
 2983 0969 49090000 		.4byte	.LASF91
 2984 096d 01       		.byte	0x1
 2985 096e F703     		.2byte	0x3f7
 2986 0970 25000000 		.4byte	0x25
 2987 0974 2A010000 		.4byte	.LLST7
 2988 0978 1A       		.uleb128 0x1a
 2989 0979 10020000 		.4byte	.LVL103
 2990 097d 0A120000 		.4byte	0x120a
 2991 0981 8D090000 		.4byte	0x98d
 2992 0985 1B       		.uleb128 0x1b
 2993 0986 01       		.uleb128 0x1
 2994 0987 50       		.byte	0x50
 2995 0988 03       		.uleb128 0x3
 2996 0989 91       		.byte	0x91
 2997 098a D47E     		.sleb128 -172
 2998 098c 00       		.byte	0
 2999 098d 13       		.uleb128 0x13
 3000 098e 14020000 		.4byte	.LVL104
 3001 0992 1F120000 		.4byte	0x121f
 3002 0996 21       		.uleb128 0x21
 3003 0997 22020000 		.4byte	.LVL106
 3004 099b 49110000 		.4byte	0x1149
 3005 099f 1B       		.uleb128 0x1b
 3006 09a0 01       		.uleb128 0x1
 3007 09a1 52       		.byte	0x52
 3008 09a2 05       		.uleb128 0x5
 3009 09a3 03       		.byte	0x3
 3010 09a4 00000000 		.4byte	compass_float
 3011 09a8 1B       		.uleb128 0x1b
 3012 09a9 01       		.uleb128 0x1
 3013 09aa 50       		.byte	0x50
 3014 09ab 03       		.uleb128 0x3
 3015 09ac 91       		.byte	0x91
 3016 09ad D47E     		.sleb128 -172
 3017 09af 00       		.byte	0
 3018 09b0 00       		.byte	0
ARM GAS  C:\Users\ADMINI~1\AppData\Local\Temp\ccPHzW0f.s 			page 79


 3019 09b1 24       		.uleb128 0x24
 3020 09b2 EC030000 		.4byte	.LBB15
 3021 09b6 1C000000 		.4byte	.LBE15-.LBB15
 3022 09ba FF090000 		.4byte	0x9ff
 3023 09be 1F       		.uleb128 0x1f
 3024 09bf 7F030000 		.4byte	.LASF109
 3025 09c3 01       		.byte	0x1
 3026 09c4 9904     		.2byte	0x499
 3027 09c6 65000000 		.4byte	0x65
 3028 09ca 03       		.uleb128 0x3
 3029 09cb 91       		.byte	0x91
 3030 09cc F87E     		.sleb128 -136
 3031 09ce 1F       		.uleb128 0x1f
 3032 09cf B00C0000 		.4byte	.LASF110
 3033 09d3 01       		.byte	0x1
 3034 09d4 9A04     		.2byte	0x49a
 3035 09d6 65000000 		.4byte	0x65
 3036 09da 05       		.uleb128 0x5
 3037 09db 03       		.byte	0x3
 3038 09dc C4000000 		.4byte	old_steps.7677
 3039 09e0 1A       		.uleb128 0x1a
 3040 09e1 F6030000 		.4byte	.LVL136
 3041 09e5 2A120000 		.4byte	0x122a
 3042 09e9 F5090000 		.4byte	0x9f5
 3043 09ed 1B       		.uleb128 0x1b
 3044 09ee 01       		.uleb128 0x1
 3045 09ef 50       		.byte	0x50
 3046 09f0 03       		.uleb128 0x3
 3047 09f1 91       		.byte	0x91
 3048 09f2 F87E     		.sleb128 -136
 3049 09f4 00       		.byte	0
 3050 09f5 13       		.uleb128 0x13
 3051 09f6 FC030000 		.4byte	.LVL137
 3052 09fa 45120000 		.4byte	0x1245
 3053 09fe 00       		.byte	0
 3054 09ff 1A       		.uleb128 0x1a
 3055 0a00 5C000000 		.4byte	.LVL68
 3056 0a04 56120000 		.4byte	0x1256
 3057 0a08 210A0000 		.4byte	0xa21
 3058 0a0c 1B       		.uleb128 0x1b
 3059 0a0d 01       		.uleb128 0x1
 3060 0a0e 52       		.byte	0x52
 3061 0a0f 03       		.uleb128 0x3
 3062 0a10 91       		.byte	0x91
 3063 0a11 847F     		.sleb128 -124
 3064 0a13 1B       		.uleb128 0x1b
 3065 0a14 01       		.uleb128 0x1
 3066 0a15 51       		.byte	0x51
 3067 0a16 02       		.uleb128 0x2
 3068 0a17 76       		.byte	0x76
 3069 0a18 00       		.sleb128 0
 3070 0a19 1B       		.uleb128 0x1b
 3071 0a1a 01       		.uleb128 0x1
 3072 0a1b 50       		.byte	0x50
 3073 0a1c 03       		.uleb128 0x3
 3074 0a1d 91       		.byte	0x91
 3075 0a1e C87E     		.sleb128 -184
ARM GAS  C:\Users\ADMINI~1\AppData\Local\Temp\ccPHzW0f.s 			page 80


 3076 0a20 00       		.byte	0
 3077 0a21 1A       		.uleb128 0x1a
 3078 0a22 A8000000 		.4byte	.LVL70
 3079 0a26 7C120000 		.4byte	0x127c
 3080 0a2a 430A0000 		.4byte	0xa43
 3081 0a2e 1B       		.uleb128 0x1b
 3082 0a2f 01       		.uleb128 0x1
 3083 0a30 52       		.byte	0x52
 3084 0a31 03       		.uleb128 0x3
 3085 0a32 91       		.byte	0x91
 3086 0a33 C87E     		.sleb128 -184
 3087 0a35 1B       		.uleb128 0x1b
 3088 0a36 01       		.uleb128 0x1
 3089 0a37 51       		.byte	0x51
 3090 0a38 03       		.uleb128 0x3
 3091 0a39 91       		.byte	0x91
 3092 0a3a C47E     		.sleb128 -188
 3093 0a3c 1B       		.uleb128 0x1b
 3094 0a3d 01       		.uleb128 0x1
 3095 0a3e 50       		.byte	0x50
 3096 0a3f 02       		.uleb128 0x2
 3097 0a40 74       		.byte	0x74
 3098 0a41 00       		.sleb128 0
 3099 0a42 00       		.byte	0
 3100 0a43 1A       		.uleb128 0x1a
 3101 0a44 2E020000 		.4byte	.LVL107
 3102 0a48 9C120000 		.4byte	0x129c
 3103 0a4c 580A0000 		.4byte	0xa58
 3104 0a50 1B       		.uleb128 0x1b
 3105 0a51 01       		.uleb128 0x1
 3106 0a52 50       		.byte	0x50
 3107 0a53 03       		.uleb128 0x3
 3108 0a54 91       		.byte	0x91
 3109 0a55 D47E     		.sleb128 -172
 3110 0a57 00       		.byte	0
 3111 0a58 1A       		.uleb128 0x1a
 3112 0a59 A2020000 		.4byte	.LVL117
 3113 0a5d 09110000 		.4byte	0x1109
 3114 0a61 6D0A0000 		.4byte	0xa6d
 3115 0a65 1B       		.uleb128 0x1b
 3116 0a66 01       		.uleb128 0x1
 3117 0a67 50       		.byte	0x50
 3118 0a68 03       		.uleb128 0x3
 3119 0a69 91       		.byte	0x91
 3120 0a6a E07E     		.sleb128 -160
 3121 0a6c 00       		.byte	0
 3122 0a6d 1A       		.uleb128 0x1a
 3123 0a6e AA020000 		.4byte	.LVL118
 3124 0a72 B1120000 		.4byte	0x12b1
 3125 0a76 8B0A0000 		.4byte	0xa8b
 3126 0a7a 1B       		.uleb128 0x1b
 3127 0a7b 01       		.uleb128 0x1
 3128 0a7c 51       		.byte	0x51
 3129 0a7d 05       		.uleb128 0x5
 3130 0a7e 03       		.byte	0x3
 3131 0a7f 00000000 		.4byte	grv_float
 3132 0a83 1B       		.uleb128 0x1b
ARM GAS  C:\Users\ADMINI~1\AppData\Local\Temp\ccPHzW0f.s 			page 81


 3133 0a84 01       		.uleb128 0x1
 3134 0a85 50       		.byte	0x50
 3135 0a86 03       		.uleb128 0x3
 3136 0a87 91       		.byte	0x91
 3137 0a88 E07E     		.sleb128 -160
 3138 0a8a 00       		.byte	0
 3139 0a8b 1A       		.uleb128 0x1a
 3140 0a8c BE020000 		.4byte	.LVL119
 3141 0a90 B3100000 		.4byte	0x10b3
 3142 0a94 A00A0000 		.4byte	0xaa0
 3143 0a98 1B       		.uleb128 0x1b
 3144 0a99 01       		.uleb128 0x1
 3145 0a9a 50       		.byte	0x50
 3146 0a9b 03       		.uleb128 0x3
 3147 0a9c 91       		.byte	0x91
 3148 0a9d E07E     		.sleb128 -160
 3149 0a9f 00       		.byte	0
 3150 0aa0 13       		.uleb128 0x13
 3151 0aa1 C2020000 		.4byte	.LVL120
 3152 0aa5 C7120000 		.4byte	0x12c7
 3153 0aa9 1A       		.uleb128 0x1a
 3154 0aaa DE020000 		.4byte	.LVL124
 3155 0aae B1120000 		.4byte	0x12b1
 3156 0ab2 C70A0000 		.4byte	0xac7
 3157 0ab6 1B       		.uleb128 0x1b
 3158 0ab7 01       		.uleb128 0x1
 3159 0ab8 51       		.byte	0x51
 3160 0ab9 05       		.uleb128 0x5
 3161 0aba 03       		.byte	0x3
 3162 0abb 00000000 		.4byte	rv_float
 3163 0abf 1B       		.uleb128 0x1b
 3164 0ac0 01       		.uleb128 0x1
 3165 0ac1 50       		.byte	0x50
 3166 0ac2 03       		.uleb128 0x3
 3167 0ac3 91       		.byte	0x91
 3168 0ac4 E07E     		.sleb128 -160
 3169 0ac6 00       		.byte	0
 3170 0ac7 1A       		.uleb128 0x1a
 3171 0ac8 EA020000 		.4byte	.LVL125
 3172 0acc D2120000 		.4byte	0x12d2
 3173 0ad0 DC0A0000 		.4byte	0xadc
 3174 0ad4 1B       		.uleb128 0x1b
 3175 0ad5 01       		.uleb128 0x1
 3176 0ad6 50       		.byte	0x50
 3177 0ad7 03       		.uleb128 0x3
 3178 0ad8 91       		.byte	0x91
 3179 0ad9 E07E     		.sleb128 -160
 3180 0adb 00       		.byte	0
 3181 0adc 1A       		.uleb128 0x1a
 3182 0add FE020000 		.4byte	.LVL126
 3183 0ae1 EF100000 		.4byte	0x10ef
 3184 0ae5 FA0A0000 		.4byte	0xafa
 3185 0ae9 1B       		.uleb128 0x1b
 3186 0aea 01       		.uleb128 0x1
 3187 0aeb 51       		.byte	0x51
 3188 0aec 05       		.uleb128 0x5
 3189 0aed 03       		.byte	0x3
ARM GAS  C:\Users\ADMINI~1\AppData\Local\Temp\ccPHzW0f.s 			page 82


 3190 0aee A0000000 		.4byte	.LANCHOR2+32
 3191 0af2 1B       		.uleb128 0x1b
 3192 0af3 01       		.uleb128 0x1
 3193 0af4 50       		.byte	0x50
 3194 0af5 03       		.uleb128 0x3
 3195 0af6 91       		.byte	0x91
 3196 0af7 E07E     		.sleb128 -160
 3197 0af9 00       		.byte	0
 3198 0afa 1A       		.uleb128 0x1a
 3199 0afb 0C030000 		.4byte	.LVL127
 3200 0aff B1120000 		.4byte	0x12b1
 3201 0b03 180B0000 		.4byte	0xb18
 3202 0b07 1B       		.uleb128 0x1b
 3203 0b08 01       		.uleb128 0x1
 3204 0b09 51       		.byte	0x51
 3205 0b0a 05       		.uleb128 0x5
 3206 0b0b 03       		.byte	0x3
 3207 0b0c 00000000 		.4byte	gmrv_float
 3208 0b10 1B       		.uleb128 0x1b
 3209 0b11 01       		.uleb128 0x1
 3210 0b12 50       		.byte	0x50
 3211 0b13 03       		.uleb128 0x3
 3212 0b14 91       		.byte	0x91
 3213 0b15 E07E     		.sleb128 -160
 3214 0b17 00       		.byte	0
 3215 0b18 13       		.uleb128 0x13
 3216 0b19 10030000 		.4byte	.LVL128
 3217 0b1d E7120000 		.4byte	0x12e7
 3218 0b21 1A       		.uleb128 0x1a
 3219 0b22 3C030000 		.4byte	.LVL132
 3220 0b26 F2120000 		.4byte	0x12f2
 3221 0b2a 350B0000 		.4byte	0xb35
 3222 0b2e 1B       		.uleb128 0x1b
 3223 0b2f 01       		.uleb128 0x1
 3224 0b30 50       		.byte	0x50
 3225 0b31 02       		.uleb128 0x2
 3226 0b32 75       		.byte	0x75
 3227 0b33 34       		.sleb128 52
 3228 0b34 00       		.byte	0
 3229 0b35 1A       		.uleb128 0x1a
 3230 0b36 44030000 		.4byte	.LVL133
 3231 0b3a 0D130000 		.4byte	0x130d
 3232 0b3e 490B0000 		.4byte	0xb49
 3233 0b42 1B       		.uleb128 0x1b
 3234 0b43 01       		.uleb128 0x1
 3235 0b44 50       		.byte	0x50
 3236 0b45 02       		.uleb128 0x2
 3237 0b46 75       		.byte	0x75
 3238 0b47 38       		.sleb128 56
 3239 0b48 00       		.byte	0
 3240 0b49 1A       		.uleb128 0x1a
 3241 0b4a 98030000 		.4byte	.LVL134
 3242 0b4e 22130000 		.4byte	0x1322
 3243 0b52 5E0B0000 		.4byte	0xb5e
 3244 0b56 1B       		.uleb128 0x1b
 3245 0b57 01       		.uleb128 0x1
 3246 0b58 50       		.byte	0x50
ARM GAS  C:\Users\ADMINI~1\AppData\Local\Temp\ccPHzW0f.s 			page 83


 3247 0b59 03       		.uleb128 0x3
 3248 0b5a 75       		.byte	0x75
 3249 0b5b C000     		.sleb128 64
 3250 0b5d 00       		.byte	0
 3251 0b5e 13       		.uleb128 0x13
 3252 0b5f A2030000 		.4byte	.LVL135
 3253 0b63 FB050000 		.4byte	0x5fb
 3254 0b67 00       		.byte	0
 3255 0b68 1A       		.uleb128 0x1a
 3256 0b69 24000000 		.4byte	.LVL64
 3257 0b6d 09100000 		.4byte	0x1009
 3258 0b71 880B0000 		.4byte	0xb88
 3259 0b75 1B       		.uleb128 0x1b
 3260 0b76 01       		.uleb128 0x1
 3261 0b77 52       		.byte	0x52
 3262 0b78 01       		.uleb128 0x1
 3263 0b79 3C       		.byte	0x3c
 3264 0b7a 1B       		.uleb128 0x1b
 3265 0b7b 01       		.uleb128 0x1
 3266 0b7c 51       		.byte	0x51
 3267 0b7d 02       		.uleb128 0x2
 3268 0b7e 75       		.byte	0x75
 3269 0b7f 00       		.sleb128 0
 3270 0b80 1B       		.uleb128 0x1b
 3271 0b81 01       		.uleb128 0x1
 3272 0b82 50       		.byte	0x50
 3273 0b83 03       		.uleb128 0x3
 3274 0b84 91       		.byte	0x91
 3275 0b85 D47E     		.sleb128 -172
 3276 0b87 00       		.byte	0
 3277 0b88 1A       		.uleb128 0x1a
 3278 0b89 2E000000 		.4byte	.LVL65
 3279 0b8d 09100000 		.4byte	0x1009
 3280 0b91 A80B0000 		.4byte	0xba8
 3281 0b95 1B       		.uleb128 0x1b
 3282 0b96 01       		.uleb128 0x1
 3283 0b97 52       		.byte	0x52
 3284 0b98 01       		.uleb128 0x1
 3285 0b99 3C       		.byte	0x3c
 3286 0b9a 1B       		.uleb128 0x1b
 3287 0b9b 01       		.uleb128 0x1
 3288 0b9c 51       		.byte	0x51
 3289 0b9d 02       		.uleb128 0x2
 3290 0b9e 75       		.byte	0x75
 3291 0b9f 00       		.sleb128 0
 3292 0ba0 1B       		.uleb128 0x1b
 3293 0ba1 01       		.uleb128 0x1
 3294 0ba2 50       		.byte	0x50
 3295 0ba3 03       		.uleb128 0x3
 3296 0ba4 91       		.byte	0x91
 3297 0ba5 E07E     		.sleb128 -160
 3298 0ba7 00       		.byte	0
 3299 0ba8 1A       		.uleb128 0x1a
 3300 0ba9 38000000 		.4byte	.LVL66
 3301 0bad 09100000 		.4byte	0x1009
 3302 0bb1 C90B0000 		.4byte	0xbc9
 3303 0bb5 1B       		.uleb128 0x1b
ARM GAS  C:\Users\ADMINI~1\AppData\Local\Temp\ccPHzW0f.s 			page 84


 3304 0bb6 01       		.uleb128 0x1
 3305 0bb7 52       		.byte	0x52
 3306 0bb8 02       		.uleb128 0x2
 3307 0bb9 08       		.byte	0x8
 3308 0bba 62       		.byte	0x62
 3309 0bbb 1B       		.uleb128 0x1b
 3310 0bbc 01       		.uleb128 0x1
 3311 0bbd 51       		.byte	0x51
 3312 0bbe 02       		.uleb128 0x2
 3313 0bbf 75       		.byte	0x75
 3314 0bc0 00       		.sleb128 0
 3315 0bc1 1B       		.uleb128 0x1b
 3316 0bc2 01       		.uleb128 0x1
 3317 0bc3 50       		.byte	0x50
 3318 0bc4 03       		.uleb128 0x3
 3319 0bc5 91       		.byte	0x91
 3320 0bc6 847F     		.sleb128 -124
 3321 0bc8 00       		.byte	0
 3322 0bc9 21       		.uleb128 0x21
 3323 0bca 3E000000 		.4byte	.LVL67
 3324 0bce 37130000 		.4byte	0x1337
 3325 0bd2 1B       		.uleb128 0x1b
 3326 0bd3 01       		.uleb128 0x1
 3327 0bd4 50       		.byte	0x50
 3328 0bd5 02       		.uleb128 0x2
 3329 0bd6 74       		.byte	0x74
 3330 0bd7 7E       		.sleb128 -2
 3331 0bd8 00       		.byte	0
 3332 0bd9 00       		.byte	0
 3333 0bda 26       		.uleb128 0x26
 3334 0bdb F3000000 		.4byte	0xf3
 3335 0bdf 09       		.uleb128 0x9
 3336 0be0 57000000 		.4byte	0x57
 3337 0be4 EF0B0000 		.4byte	0xbef
 3338 0be8 0A       		.uleb128 0xa
 3339 0be9 E3000000 		.4byte	0xe3
 3340 0bed 30       		.byte	0x30
 3341 0bee 00       		.byte	0
 3342 0bef 27       		.uleb128 0x27
 3343 0bf0 C1080000 		.4byte	.LASF111
 3344 0bf4 01       		.byte	0x1
 3345 0bf5 11       		.byte	0x11
 3346 0bf6 AA000000 		.4byte	0xaa
 3347 0bfa 05       		.uleb128 0x5
 3348 0bfb 03       		.byte	0x3
 3349 0bfc 10000000 		.4byte	inv_flags
 3350 0c00 28       		.uleb128 0x28
 3351 0c01 6C0F0000 		.4byte	.LASF112
 3352 0c05 01       		.byte	0x1
 3353 0c06 48       		.byte	0x48
 3354 0c07 110C0000 		.4byte	0xc11
 3355 0c0b 05       		.uleb128 0x5
 3356 0c0c 03       		.byte	0x3
 3357 0c0d 00000000 		.4byte	COMPASS_SLAVE_ID
 3358 0c11 26       		.uleb128 0x26
 3359 0c12 3E000000 		.4byte	0x3e
 3360 0c16 28       		.uleb128 0x28
ARM GAS  C:\Users\ADMINI~1\AppData\Local\Temp\ccPHzW0f.s 			page 85


 3361 0c17 94000000 		.4byte	.LASF113
 3362 0c1b 01       		.byte	0x1
 3363 0c1c 4C       		.byte	0x4c
 3364 0c1d 110C0000 		.4byte	0xc11
 3365 0c21 05       		.uleb128 0x5
 3366 0c22 03       		.byte	0x3
 3367 0c23 00000000 		.4byte	COMPASS_CHIP_ADDR
 3368 0c27 28       		.uleb128 0x28
 3369 0c28 B8070000 		.4byte	.LASF114
 3370 0c2c 01       		.byte	0x1
 3371 0c2d 4D       		.byte	0x4d
 3372 0c2e 110C0000 		.4byte	0xc11
 3373 0c32 05       		.uleb128 0x5
 3374 0c33 03       		.byte	0x3
 3375 0c34 00000000 		.4byte	PRESSURE_CHIP_ADDR
 3376 0c38 09       		.uleb128 0x9
 3377 0c39 2C000000 		.4byte	0x2c
 3378 0c3d 480C0000 		.4byte	0xc48
 3379 0c41 0A       		.uleb128 0xa
 3380 0c42 E3000000 		.4byte	0xe3
 3381 0c46 08       		.byte	0x8
 3382 0c47 00       		.byte	0
 3383 0c48 28       		.uleb128 0x28
 3384 0c49 31010000 		.4byte	.LASF115
 3385 0c4d 01       		.byte	0x1
 3386 0c4e 45       		.byte	0x45
 3387 0c4f 380C0000 		.4byte	0xc38
 3388 0c53 05       		.uleb128 0x5
 3389 0c54 03       		.byte	0x3
 3390 0c55 00000000 		.4byte	ACCEL_GYRO_ORIENTATION
 3391 0c59 28       		.uleb128 0x28
 3392 0c5a 82060000 		.4byte	.LASF116
 3393 0c5e 01       		.byte	0x1
 3394 0c5f 4F       		.byte	0x4f
 3395 0c60 380C0000 		.4byte	0xc38
 3396 0c64 05       		.uleb128 0x5
 3397 0c65 03       		.byte	0x3
 3398 0c66 00000000 		.4byte	COMPASS_ORIENTATION
 3399 0c6a 09       		.uleb128 0x9
 3400 0c6b 5E000000 		.4byte	0x5e
 3401 0c6f 7A0C0000 		.4byte	0xc7a
 3402 0c73 0A       		.uleb128 0xa
 3403 0c74 E3000000 		.4byte	0xe3
 3404 0c78 08       		.byte	0x8
 3405 0c79 00       		.byte	0
 3406 0c7a 28       		.uleb128 0x28
 3407 0c7b C2040000 		.4byte	.LASF117
 3408 0c7f 01       		.byte	0x1
 3409 0c80 51       		.byte	0x51
 3410 0c81 6A0C0000 		.4byte	0xc6a
 3411 0c85 05       		.uleb128 0x5
 3412 0c86 03       		.byte	0x3
 3413 0c87 00000000 		.4byte	SOFT_IRON_MATRIX
 3414 0c8b 29       		.uleb128 0x29
 3415 0c8c 68616C00 		.ascii	"hal\000"
 3416 0c90 01       		.byte	0x1
 3417 0c91 13       		.byte	0x13
ARM GAS  C:\Users\ADMINI~1\AppData\Local\Temp\ccPHzW0f.s 			page 86


 3418 0c92 93020000 		.4byte	0x293
 3419 0c96 05       		.uleb128 0x5
 3420 0c97 03       		.byte	0x3
 3421 0c98 00000000 		.4byte	hal
 3422 0c9c 28       		.uleb128 0x28
 3423 0c9d 64000000 		.4byte	.LASF118
 3424 0ca1 01       		.byte	0x1
 3425 0ca2 15       		.byte	0x15
 3426 0ca3 7A000000 		.4byte	0x7a
 3427 0ca7 05       		.uleb128 0x5
 3428 0ca8 03       		.byte	0x3
 3429 0ca9 00000000 		.4byte	self_test_result
 3430 0cad 28       		.uleb128 0x28
 3431 0cae B20F0000 		.4byte	.LASF119
 3432 0cb2 01       		.byte	0x1
 3433 0cb3 16       		.byte	0x16
 3434 0cb4 CF040000 		.4byte	0x4cf
 3435 0cb8 05       		.uleb128 0x5
 3436 0cb9 03       		.byte	0x3
 3437 0cba 00000000 		.4byte	dmp_bias
 3438 0cbe 28       		.uleb128 0x28
 3439 0cbf 670A0000 		.4byte	.LASF120
 3440 0cc3 01       		.byte	0x1
 3441 0cc4 18       		.byte	0x18
 3442 0cc5 57000000 		.4byte	0x57
 3443 0cc9 05       		.uleb128 0x5
 3444 0cca 03       		.byte	0x3
 3445 0ccb 00000000 		.4byte	accel_data_was_set
 3446 0ccf 28       		.uleb128 0x28
 3447 0cd0 00000000 		.4byte	.LASF121
 3448 0cd4 01       		.byte	0x1
 3449 0cd5 19       		.byte	0x19
 3450 0cd6 57000000 		.4byte	0x57
 3451 0cda 05       		.uleb128 0x5
 3452 0cdb 03       		.byte	0x3
 3453 0cdc 00000000 		.4byte	gyro_data_was_set
 3454 0ce0 28       		.uleb128 0x28
 3455 0ce1 DF0B0000 		.4byte	.LASF122
 3456 0ce5 01       		.byte	0x1
 3457 0ce6 1A       		.byte	0x1a
 3458 0ce7 57000000 		.4byte	0x57
 3459 0ceb 05       		.uleb128 0x5
 3460 0cec 03       		.byte	0x3
 3461 0ced 00000000 		.4byte	raw_gyro_data_was_set
 3462 0cf1 28       		.uleb128 0x28
 3463 0cf2 F60E0000 		.4byte	.LASF123
 3464 0cf6 01       		.byte	0x1
 3465 0cf7 1B       		.byte	0x1b
 3466 0cf8 57000000 		.4byte	0x57
 3467 0cfc 05       		.uleb128 0x5
 3468 0cfd 03       		.byte	0x3
 3469 0cfe 00000000 		.4byte	compass_data_was_set
 3470 0d02 28       		.uleb128 0x28
 3471 0d03 BB0F0000 		.4byte	.LASF124
 3472 0d07 01       		.byte	0x1
 3473 0d08 1C       		.byte	0x1c
 3474 0d09 57000000 		.4byte	0x57
ARM GAS  C:\Users\ADMINI~1\AppData\Local\Temp\ccPHzW0f.s 			page 87


 3475 0d0d 05       		.uleb128 0x5
 3476 0d0e 03       		.byte	0x3
 3477 0d0f 00000000 		.4byte	raw_compass_data_was_set
 3478 0d13 28       		.uleb128 0x28
 3479 0d14 AE080000 		.4byte	.LASF125
 3480 0d18 01       		.byte	0x1
 3481 0d19 1D       		.byte	0x1d
 3482 0d1a 57000000 		.4byte	0x57
 3483 0d1e 05       		.uleb128 0x5
 3484 0d1f 03       		.byte	0x3
 3485 0d20 00000000 		.4byte	quat6_data_was_set
 3486 0d24 28       		.uleb128 0x28
 3487 0d25 83070000 		.4byte	.LASF126
 3488 0d29 01       		.byte	0x1
 3489 0d2a 1E       		.byte	0x1e
 3490 0d2b 57000000 		.4byte	0x57
 3491 0d2f 05       		.uleb128 0x5
 3492 0d30 03       		.byte	0x3
 3493 0d31 00000000 		.4byte	quat9_data_was_set
 3494 0d35 28       		.uleb128 0x28
 3495 0d36 1B090000 		.4byte	.LASF127
 3496 0d3a 01       		.byte	0x1
 3497 0d3b 1F       		.byte	0x1f
 3498 0d3c 57000000 		.4byte	0x57
 3499 0d40 05       		.uleb128 0x5
 3500 0d41 03       		.byte	0x3
 3501 0d42 00000000 		.4byte	rv_quat_was_set
 3502 0d46 28       		.uleb128 0x28
 3503 0d47 1F010000 		.4byte	.LASF128
 3504 0d4b 01       		.byte	0x1
 3505 0d4c 20       		.byte	0x20
 3506 0d4d 57000000 		.4byte	0x57
 3507 0d51 05       		.uleb128 0x5
 3508 0d52 03       		.byte	0x3
 3509 0d53 00000000 		.4byte	gmrv_quat_was_set
 3510 0d57 28       		.uleb128 0x28
 3511 0d58 C2010000 		.4byte	.LASF129
 3512 0d5c 01       		.byte	0x1
 3513 0d5d 21       		.byte	0x21
 3514 0d5e 57000000 		.4byte	0x57
 3515 0d62 05       		.uleb128 0x5
 3516 0d63 03       		.byte	0x3
 3517 0d64 00000000 		.4byte	bac_data_was_set
 3518 0d68 28       		.uleb128 0x28
 3519 0d69 C9000000 		.4byte	.LASF130
 3520 0d6d 01       		.byte	0x1
 3521 0d6e 22       		.byte	0x22
 3522 0d6f 57000000 		.4byte	0x57
 3523 0d73 05       		.uleb128 0x5
 3524 0d74 03       		.byte	0x3
 3525 0d75 00000000 		.4byte	flip_data_was_set
 3526 0d79 28       		.uleb128 0x28
 3527 0d7a FF0A0000 		.4byte	.LASF131
 3528 0d7e 01       		.byte	0x1
 3529 0d7f 23       		.byte	0x23
 3530 0d80 57000000 		.4byte	0x57
 3531 0d84 05       		.uleb128 0x5
ARM GAS  C:\Users\ADMINI~1\AppData\Local\Temp\ccPHzW0f.s 			page 88


 3532 0d85 03       		.byte	0x3
 3533 0d86 00000000 		.4byte	tilt_data_was_set
 3534 0d8a 28       		.uleb128 0x28
 3535 0d8b 3D0C0000 		.4byte	.LASF132
 3536 0d8f 01       		.byte	0x1
 3537 0d90 26       		.byte	0x26
 3538 0d91 FE000000 		.4byte	0xfe
 3539 0d95 05       		.uleb128 0x5
 3540 0d96 03       		.byte	0x3
 3541 0d97 00000000 		.4byte	grv_float
 3542 0d9b 09       		.uleb128 0x9
 3543 0d9c 5E000000 		.4byte	0x5e
 3544 0da0 AB0D0000 		.4byte	0xdab
 3545 0da4 0A       		.uleb128 0xa
 3546 0da5 E3000000 		.4byte	0xe3
 3547 0da9 03       		.byte	0x3
 3548 0daa 00       		.byte	0
 3549 0dab 28       		.uleb128 0x28
 3550 0dac 68010000 		.4byte	.LASF133
 3551 0db0 01       		.byte	0x1
 3552 0db1 27       		.byte	0x27
 3553 0db2 9B0D0000 		.4byte	0xd9b
 3554 0db6 05       		.uleb128 0x5
 3555 0db7 03       		.byte	0x3
 3556 0db8 00000000 		.4byte	cube_grv
 3557 0dbc 28       		.uleb128 0x28
 3558 0dbd 5B0A0000 		.4byte	.LASF134
 3559 0dc1 01       		.byte	0x1
 3560 0dc2 28       		.byte	0x28
 3561 0dc3 D5020000 		.4byte	0x2d5
 3562 0dc7 05       		.uleb128 0x5
 3563 0dc8 03       		.byte	0x3
 3564 0dc9 00000000 		.4byte	accel_float
 3565 0dcd 28       		.uleb128 0x28
 3566 0dce F4070000 		.4byte	.LASF135
 3567 0dd2 01       		.byte	0x1
 3568 0dd3 29       		.byte	0x29
 3569 0dd4 FE000000 		.4byte	0xfe
 3570 0dd8 05       		.uleb128 0x5
 3571 0dd9 03       		.byte	0x3
 3572 0dda 00000000 		.4byte	rv_float
 3573 0dde 28       		.uleb128 0x28
 3574 0ddf B30E0000 		.4byte	.LASF136
 3575 0de3 01       		.byte	0x1
 3576 0de4 2A       		.byte	0x2a
 3577 0de5 9B0D0000 		.4byte	0xd9b
 3578 0de9 05       		.uleb128 0x5
 3579 0dea 03       		.byte	0x3
 3580 0deb 00000000 		.4byte	cube_rv
 3581 0def 28       		.uleb128 0x28
 3582 0df0 56090000 		.4byte	.LASF137
 3583 0df4 01       		.byte	0x1
 3584 0df5 2B       		.byte	0x2b
 3585 0df6 D5020000 		.4byte	0x2d5
 3586 0dfa 05       		.uleb128 0x5
 3587 0dfb 03       		.byte	0x3
 3588 0dfc 00000000 		.4byte	gyro_float
ARM GAS  C:\Users\ADMINI~1\AppData\Local\Temp\ccPHzW0f.s 			page 89


 3589 0e00 28       		.uleb128 0x28
 3590 0e01 8F0A0000 		.4byte	.LASF138
 3591 0e05 01       		.byte	0x1
 3592 0e06 2C       		.byte	0x2c
 3593 0e07 D5020000 		.4byte	0x2d5
 3594 0e0b 05       		.uleb128 0x5
 3595 0e0c 03       		.byte	0x3
 3596 0e0d 00000000 		.4byte	gyro_raw_float
 3597 0e11 28       		.uleb128 0x28
 3598 0e12 8A010000 		.4byte	.LASF139
 3599 0e16 01       		.byte	0x1
 3600 0e17 2D       		.byte	0x2d
 3601 0e18 D5020000 		.4byte	0x2d5
 3602 0e1c 05       		.uleb128 0x5
 3603 0e1d 03       		.byte	0x3
 3604 0e1e 00000000 		.4byte	gyro_bias_float
 3605 0e22 28       		.uleb128 0x28
 3606 0e23 DB000000 		.4byte	.LASF140
 3607 0e27 01       		.byte	0x1
 3608 0e28 2E       		.byte	0x2e
 3609 0e29 73020000 		.4byte	0x273
 3610 0e2d 05       		.uleb128 0x5
 3611 0e2e 03       		.byte	0x3
 3612 0e2f 00000000 		.4byte	previous_bias
 3613 0e33 28       		.uleb128 0x28
 3614 0e34 B4040000 		.4byte	.LASF141
 3615 0e38 01       		.byte	0x1
 3616 0e39 2F       		.byte	0x2f
 3617 0e3a D5020000 		.4byte	0x2d5
 3618 0e3e 05       		.uleb128 0x5
 3619 0e3f 03       		.byte	0x3
 3620 0e40 00000000 		.4byte	compass_float
 3621 0e44 28       		.uleb128 0x28
 3622 0e45 2A0A0000 		.4byte	.LASF142
 3623 0e49 01       		.byte	0x1
 3624 0e4a 30       		.byte	0x30
 3625 0e4b D5020000 		.4byte	0x2d5
 3626 0e4f 05       		.uleb128 0x5
 3627 0e50 03       		.byte	0x3
 3628 0e51 00000000 		.4byte	compass_raw_float
 3629 0e55 28       		.uleb128 0x28
 3630 0e56 E1020000 		.4byte	.LASF143
 3631 0e5a 01       		.byte	0x1
 3632 0e5b 31       		.byte	0x31
 3633 0e5c D5020000 		.4byte	0x2d5
 3634 0e60 05       		.uleb128 0x5
 3635 0e61 03       		.byte	0x3
 3636 0e62 00000000 		.4byte	compass_bias
 3637 0e66 28       		.uleb128 0x28
 3638 0e67 1E0F0000 		.4byte	.LASF144
 3639 0e6b 01       		.byte	0x1
 3640 0e6c 32       		.byte	0x32
 3641 0e6d FE000000 		.4byte	0xfe
 3642 0e71 05       		.uleb128 0x5
 3643 0e72 03       		.byte	0x3
 3644 0e73 00000000 		.4byte	gmrv_float
 3645 0e77 28       		.uleb128 0x28
ARM GAS  C:\Users\ADMINI~1\AppData\Local\Temp\ccPHzW0f.s 			page 90


 3646 0e78 820E0000 		.4byte	.LASF145
 3647 0e7c 01       		.byte	0x1
 3648 0e7d 33       		.byte	0x33
 3649 0e7e 9B0D0000 		.4byte	0xd9b
 3650 0e82 05       		.uleb128 0x5
 3651 0e83 03       		.byte	0x3
 3652 0e84 00000000 		.4byte	cube_gmrv
 3653 0e88 28       		.uleb128 0x28
 3654 0e89 E7010000 		.4byte	.LASF146
 3655 0e8d 01       		.byte	0x1
 3656 0e8e 34       		.byte	0x34
 3657 0e8f 7A000000 		.4byte	0x7a
 3658 0e93 05       		.uleb128 0x5
 3659 0e94 03       		.byte	0x3
 3660 0e95 00000000 		.4byte	accel_accuracy
 3661 0e99 28       		.uleb128 0x28
 3662 0e9a 420F0000 		.4byte	.LASF147
 3663 0e9e 01       		.byte	0x1
 3664 0e9f 35       		.byte	0x35
 3665 0ea0 7A000000 		.4byte	0x7a
 3666 0ea4 05       		.uleb128 0x5
 3667 0ea5 03       		.byte	0x3
 3668 0ea6 00000000 		.4byte	gyro_accuracy
 3669 0eaa 28       		.uleb128 0x28
 3670 0eab 6C0C0000 		.4byte	.LASF148
 3671 0eaf 01       		.byte	0x1
 3672 0eb0 36       		.byte	0x36
 3673 0eb1 7A000000 		.4byte	0x7a
 3674 0eb5 05       		.uleb128 0x5
 3675 0eb6 03       		.byte	0x3
 3676 0eb7 00000000 		.4byte	rv_accuracy
 3677 0ebb 28       		.uleb128 0x28
 3678 0ebc 7D090000 		.4byte	.LASF149
 3679 0ec0 01       		.byte	0x1
 3680 0ec1 37       		.byte	0x37
 3681 0ec2 7A000000 		.4byte	0x7a
 3682 0ec6 05       		.uleb128 0x5
 3683 0ec7 03       		.byte	0x3
 3684 0ec8 00000000 		.4byte	compass_accuracy
 3685 0ecc 28       		.uleb128 0x28
 3686 0ecd F8060000 		.4byte	.LASF150
 3687 0ed1 01       		.byte	0x1
 3688 0ed2 38       		.byte	0x38
 3689 0ed3 7A000000 		.4byte	0x7a
 3690 0ed7 05       		.uleb128 0x5
 3691 0ed8 03       		.byte	0x3
 3692 0ed9 00000000 		.4byte	gmrv_accuracy
 3693 0edd 29       		.uleb128 0x29
 3694 0ede 747300   		.ascii	"ts\000"
 3695 0ee1 01       		.byte	0x1
 3696 0ee2 39       		.byte	0x39
 3697 0ee3 6C000000 		.4byte	0x6c
 3698 0ee7 05       		.uleb128 0x5
 3699 0ee8 03       		.byte	0x3
 3700 0ee9 00000000 		.4byte	ts
 3701 0eed 28       		.uleb128 0x28
 3702 0eee DE0E0000 		.4byte	.LASF151
ARM GAS  C:\Users\ADMINI~1\AppData\Local\Temp\ccPHzW0f.s 			page 91


 3703 0ef2 01       		.byte	0x1
 3704 0ef3 3A       		.byte	0x3a
 3705 0ef4 9B0D0000 		.4byte	0xd9b
 3706 0ef8 05       		.uleb128 0x5
 3707 0ef9 03       		.byte	0x3
 3708 0efa 00000000 		.4byte	result_quat
 3709 0efe 09       		.uleb128 0x9
 3710 0eff 7A000000 		.4byte	0x7a
 3711 0f03 0E0F0000 		.4byte	0xf0e
 3712 0f07 0A       		.uleb128 0xa
 3713 0f08 E3000000 		.4byte	0xe3
 3714 0f0c 02       		.byte	0x2
 3715 0f0d 00       		.byte	0
 3716 0f0e 28       		.uleb128 0x28
 3717 0f0f DB0C0000 		.4byte	.LASF152
 3718 0f13 01       		.byte	0x1
 3719 0f14 3B       		.byte	0x3b
 3720 0f15 FE0E0000 		.4byte	0xefe
 3721 0f19 05       		.uleb128 0x5
 3722 0f1a 03       		.byte	0x3
 3723 0f1b 00000000 		.4byte	a_average
 3724 0f1f 28       		.uleb128 0x28
 3725 0f20 D9080000 		.4byte	.LASF153
 3726 0f24 01       		.byte	0x1
 3727 0f25 3C       		.byte	0x3c
 3728 0f26 FE0E0000 		.4byte	0xefe
 3729 0f2a 05       		.uleb128 0x5
 3730 0f2b 03       		.byte	0x3
 3731 0f2c 00000000 		.4byte	g_average
 3732 0f30 28       		.uleb128 0x28
 3733 0f31 7F030000 		.4byte	.LASF109
 3734 0f35 01       		.byte	0x1
 3735 0f36 3D       		.byte	0x3d
 3736 0f37 65000000 		.4byte	0x65
 3737 0f3b 05       		.uleb128 0x5
 3738 0f3c 03       		.byte	0x3
 3739 0f3d 00000000 		.4byte	steps
 3740 0f41 28       		.uleb128 0x28
 3741 0f42 31020000 		.4byte	.LASF154
 3742 0f46 01       		.byte	0x1
 3743 0f47 3E       		.byte	0x3e
 3744 0f48 93000000 		.4byte	0x93
 3745 0f4c 05       		.uleb128 0x5
 3746 0f4d 03       		.byte	0x3
 3747 0f4e 00000000 		.4byte	bac_state
 3748 0f52 28       		.uleb128 0x28
 3749 0f53 77060000 		.4byte	.LASF155
 3750 0f57 01       		.byte	0x1
 3751 0f58 3F       		.byte	0x3f
 3752 0f59 88000000 		.4byte	0x88
 3753 0f5d 05       		.uleb128 0x5
 3754 0f5e 03       		.byte	0x3
 3755 0f5f 00000000 		.4byte	tilt_state
 3756 0f63 28       		.uleb128 0x28
 3757 0f64 E3080000 		.4byte	.LASF156
 3758 0f68 01       		.byte	0x1
 3759 0f69 40       		.byte	0x40
ARM GAS  C:\Users\ADMINI~1\AppData\Local\Temp\ccPHzW0f.s 			page 92


 3760 0f6a 5E000000 		.4byte	0x5e
 3761 0f6e 05       		.uleb128 0x5
 3762 0f6f 03       		.byte	0x3
 3763 0f70 00000000 		.4byte	bac_ts
 3764 0f74 28       		.uleb128 0x28
 3765 0f75 71010000 		.4byte	.LASF157
 3766 0f79 01       		.byte	0x1
 3767 0f7a 41       		.byte	0x41
 3768 0f7b 93000000 		.4byte	0x93
 3769 0f7f 05       		.uleb128 0x5
 3770 0f80 03       		.byte	0x3
 3771 0f81 00000000 		.4byte	flip_pickup
 3772 0f85 28       		.uleb128 0x28
 3773 0f86 9E0A0000 		.4byte	.LASF158
 3774 0f8a 01       		.byte	0x1
 3775 0f8b 42       		.byte	0x42
 3776 0f8c 88000000 		.4byte	0x88
 3777 0f90 05       		.uleb128 0x5
 3778 0f91 03       		.byte	0x3
 3779 0f92 00000000 		.4byte	step_detected
 3780 0f96 28       		.uleb128 0x28
 3781 0f97 CD020000 		.4byte	.LASF159
 3782 0f9b 01       		.byte	0x1
 3783 0f9c 43       		.byte	0x43
 3784 0f9d 25000000 		.4byte	0x25
 3785 0fa1 05       		.uleb128 0x5
 3786 0fa2 03       		.byte	0x3
 3787 0fa3 00000000 		.4byte	current_output_rate
 3788 0fa7 09       		.uleb128 0x9
 3789 0fa8 C9000000 		.4byte	0xc9
 3790 0fac B70F0000 		.4byte	0xfb7
 3791 0fb0 0A       		.uleb128 0xa
 3792 0fb1 E3000000 		.4byte	0xe3
 3793 0fb5 FF       		.byte	0xff
 3794 0fb6 00       		.byte	0
 3795 0fb7 29       		.uleb128 0x29
 3796 0fb8 74737400 		.ascii	"tst\000"
 3797 0fbc 01       		.byte	0x1
 3798 0fbd 53       		.byte	0x53
 3799 0fbe A70F0000 		.4byte	0xfa7
 3800 0fc2 05       		.uleb128 0x5
 3801 0fc3 03       		.byte	0x3
 3802 0fc4 00000000 		.4byte	tst
 3803 0fc8 2A       		.uleb128 0x2a
 3804 0fc9 6B0D0000 		.4byte	.LASF160
 3805 0fcd 09       		.byte	0x9
 3806 0fce 39       		.byte	0x39
 3807 0fcf 9E000000 		.4byte	0x9e
 3808 0fd3 2A       		.uleb128 0x2a
 3809 0fd4 F50B0000 		.4byte	.LASF161
 3810 0fd8 0A       		.byte	0xa
 3811 0fd9 57       		.byte	0x57
 3812 0fda 68020000 		.4byte	0x268
 3813 0fde 2B       		.uleb128 0x2b
 3814 0fdf 98080000 		.4byte	.LASF165
 3815 0fe3 0C       		.byte	0xc
 3816 0fe4 B3       		.byte	0xb3
ARM GAS  C:\Users\ADMINI~1\AppData\Local\Temp\ccPHzW0f.s 			page 93


 3817 0fe5 68020000 		.4byte	0x268
 3818 0fe9 F80F0000 		.4byte	0xff8
 3819 0fed 2C       		.uleb128 0x2c
 3820 0fee 3E000000 		.4byte	0x3e
 3821 0ff2 2C       		.uleb128 0x2c
 3822 0ff3 57000000 		.4byte	0x57
 3823 0ff7 00       		.byte	0
 3824 0ff8 2D       		.uleb128 0x2d
 3825 0ff9 60060000 		.4byte	.LASF162
 3826 0ffd 10       		.byte	0x10
 3827 0ffe 1A       		.byte	0x1a
 3828 0fff 68020000 		.4byte	0x268
 3829 1003 09100000 		.4byte	0x1009
 3830 1007 2E       		.uleb128 0x2e
 3831 1008 00       		.byte	0
 3832 1009 2F       		.uleb128 0x2f
 3833 100a 4F090000 		.4byte	.LASF163
 3834 100e EA000000 		.4byte	0xea
 3835 1012 26100000 		.4byte	0x1026
 3836 1016 2C       		.uleb128 0x2c
 3837 1017 EA000000 		.4byte	0xea
 3838 101b 2C       		.uleb128 0x2c
 3839 101c 7A000000 		.4byte	0x7a
 3840 1020 2C       		.uleb128 0x2c
 3841 1021 E3000000 		.4byte	0xe3
 3842 1025 00       		.byte	0
 3843 1026 2A       		.uleb128 0x2a
 3844 1027 C90B0000 		.4byte	.LASF164
 3845 102b 0B       		.byte	0xb
 3846 102c 1B       		.byte	0x1b
 3847 102d 7A000000 		.4byte	0x7a
 3848 1031 2B       		.uleb128 0x2b
 3849 1032 47070000 		.4byte	.LASF166
 3850 1036 0D       		.byte	0xd
 3851 1037 2F       		.byte	0x2f
 3852 1038 68020000 		.4byte	0x268
 3853 103c 46100000 		.4byte	0x1046
 3854 1040 2C       		.uleb128 0x2c
 3855 1041 46100000 		.4byte	0x1046
 3856 1045 00       		.byte	0
 3857 1046 06       		.uleb128 0x6
 3858 1047 04       		.byte	0x4
 3859 1048 7A000000 		.4byte	0x7a
 3860 104c 2B       		.uleb128 0x2b
 3861 104d 9A010000 		.4byte	.LASF167
 3862 1051 0D       		.byte	0xd
 3863 1052 2E       		.byte	0x2e
 3864 1053 68020000 		.4byte	0x268
 3865 1057 61100000 		.4byte	0x1061
 3866 105b 2C       		.uleb128 0x2c
 3867 105c 46100000 		.4byte	0x1046
 3868 1060 00       		.byte	0
 3869 1061 30       		.uleb128 0x30
 3870 1062 3B020000 		.4byte	.LASF169
 3871 1066 0E       		.byte	0xe
 3872 1067 6E       		.byte	0x6e
 3873 1068 2B       		.uleb128 0x2b
ARM GAS  C:\Users\ADMINI~1\AppData\Local\Temp\ccPHzW0f.s 			page 94


 3874 1069 500F0000 		.4byte	.LASF170
 3875 106d 0F       		.byte	0xf
 3876 106e 39       		.byte	0x39
 3877 106f 68020000 		.4byte	0x268
 3878 1073 82100000 		.4byte	0x1082
 3879 1077 2C       		.uleb128 0x2c
 3880 1078 0E010000 		.4byte	0x10e
 3881 107c 2C       		.uleb128 0x2c
 3882 107d 82100000 		.4byte	0x1082
 3883 1081 00       		.byte	0
 3884 1082 06       		.uleb128 0x6
 3885 1083 04       		.byte	0x4
 3886 1084 110C0000 		.4byte	0xc11
 3887 1088 2B       		.uleb128 0x2b
 3888 1089 56010000 		.4byte	.LASF171
 3889 108d 0C       		.byte	0xc
 3890 108e BA       		.byte	0xba
 3891 108f 68020000 		.4byte	0x268
 3892 1093 A2100000 		.4byte	0x10a2
 3893 1097 2C       		.uleb128 0x2c
 3894 1098 3E000000 		.4byte	0x3e
 3895 109c 2C       		.uleb128 0x2c
 3896 109d 3E000000 		.4byte	0x3e
 3897 10a1 00       		.byte	0
 3898 10a2 31       		.uleb128 0x31
 3899 10a3 870C0000 		.4byte	.LASF172
 3900 10a7 11       		.byte	0x11
 3901 10a8 18       		.byte	0x18
 3902 10a9 B3100000 		.4byte	0x10b3
 3903 10ad 2C       		.uleb128 0x2c
 3904 10ae D0000000 		.4byte	0xd0
 3905 10b2 00       		.byte	0
 3906 10b3 2B       		.uleb128 0x2b
 3907 10b4 910D0000 		.4byte	.LASF173
 3908 10b8 0A       		.byte	0xa
 3909 10b9 9D       		.byte	0x9d
 3910 10ba 68020000 		.4byte	0x268
 3911 10be C8100000 		.4byte	0x10c8
 3912 10c2 2C       		.uleb128 0x2c
 3913 10c3 C8100000 		.4byte	0x10c8
 3914 10c7 00       		.byte	0
 3915 10c8 06       		.uleb128 0x6
 3916 10c9 04       		.byte	0x4
 3917 10ca 5E000000 		.4byte	0x5e
 3918 10ce 31       		.uleb128 0x31
 3919 10cf F1050000 		.4byte	.LASF174
 3920 10d3 12       		.byte	0x12
 3921 10d4 2B       		.byte	0x2b
 3922 10d5 E4100000 		.4byte	0x10e4
 3923 10d9 2C       		.uleb128 0x2c
 3924 10da E4100000 		.4byte	0x10e4
 3925 10de 2C       		.uleb128 0x2c
 3926 10df C8100000 		.4byte	0x10c8
 3927 10e3 00       		.byte	0
 3928 10e4 06       		.uleb128 0x6
 3929 10e5 04       		.byte	0x4
 3930 10e6 EA100000 		.4byte	0x10ea
ARM GAS  C:\Users\ADMINI~1\AppData\Local\Temp\ccPHzW0f.s 			page 95


 3931 10ea 26       		.uleb128 0x26
 3932 10eb 5E000000 		.4byte	0x5e
 3933 10ef 2B       		.uleb128 0x2b
 3934 10f0 96070000 		.4byte	.LASF175
 3935 10f4 13       		.byte	0x13
 3936 10f5 86       		.byte	0x86
 3937 10f6 7A000000 		.4byte	0x7a
 3938 10fa 09110000 		.4byte	0x1109
 3939 10fe 2C       		.uleb128 0x2c
 3940 10ff E4100000 		.4byte	0x10e4
 3941 1103 2C       		.uleb128 0x2c
 3942 1104 C8100000 		.4byte	0x10c8
 3943 1108 00       		.byte	0
 3944 1109 2B       		.uleb128 0x2b
 3945 110a 470A0000 		.4byte	.LASF176
 3946 110e 0A       		.byte	0xa
 3947 110f 97       		.byte	0x97
 3948 1110 68020000 		.4byte	0x268
 3949 1114 1E110000 		.4byte	0x111e
 3950 1118 2C       		.uleb128 0x2c
 3951 1119 C8100000 		.4byte	0x10c8
 3952 111d 00       		.byte	0
 3953 111e 2B       		.uleb128 0x2b
 3954 111f A50E0000 		.4byte	.LASF177
 3955 1123 0A       		.byte	0xa
 3956 1124 66       		.byte	0x66
 3957 1125 68020000 		.4byte	0x268
 3958 1129 33110000 		.4byte	0x1133
 3959 112d 2C       		.uleb128 0x2c
 3960 112e C8100000 		.4byte	0x10c8
 3961 1132 00       		.byte	0
 3962 1133 2A       		.uleb128 0x2a
 3963 1134 BC030000 		.4byte	.LASF178
 3964 1138 0A       		.byte	0xa
 3965 1139 E1       		.byte	0xe1
 3966 113a 7A000000 		.4byte	0x7a
 3967 113e 2A       		.uleb128 0x2a
 3968 113f E6030000 		.4byte	.LASF179
 3969 1143 0F       		.byte	0xf
 3970 1144 C2       		.byte	0xc2
 3971 1145 88000000 		.4byte	0x88
 3972 1149 31       		.uleb128 0x31
 3973 114a 8C0E0000 		.4byte	.LASF180
 3974 114e 12       		.byte	0x12
 3975 114f 3A       		.byte	0x3a
 3976 1150 64110000 		.4byte	0x1164
 3977 1154 2C       		.uleb128 0x2c
 3978 1155 E4100000 		.4byte	0x10e4
 3979 1159 2C       		.uleb128 0x2c
 3980 115a 25000000 		.4byte	0x25
 3981 115e 2C       		.uleb128 0x2c
 3982 115f 64110000 		.4byte	0x1164
 3983 1163 00       		.byte	0
 3984 1164 06       		.uleb128 0x6
 3985 1165 04       		.byte	0x4
 3986 1166 25000000 		.4byte	0x25
 3987 116a 31       		.uleb128 0x31
ARM GAS  C:\Users\ADMINI~1\AppData\Local\Temp\ccPHzW0f.s 			page 96


 3988 116b 01050000 		.4byte	.LASF181
 3989 116f 14       		.byte	0x14
 3990 1170 43       		.byte	0x43
 3991 1171 8A110000 		.4byte	0x118a
 3992 1175 2C       		.uleb128 0x2c
 3993 1176 25000000 		.4byte	0x25
 3994 117a 2C       		.uleb128 0x2c
 3995 117b 25000000 		.4byte	0x25
 3996 117f 2C       		.uleb128 0x2c
 3997 1180 25000000 		.4byte	0x25
 3998 1184 2C       		.uleb128 0x2c
 3999 1185 25000000 		.4byte	0x25
 4000 1189 00       		.byte	0
 4001 118a 2B       		.uleb128 0x2b
 4002 118b 3F030000 		.4byte	.LASF182
 4003 118f 0A       		.byte	0xa
 4004 1190 6C       		.byte	0x6c
 4005 1191 68020000 		.4byte	0x268
 4006 1195 9F110000 		.4byte	0x119f
 4007 1199 2C       		.uleb128 0x2c
 4008 119a 9F110000 		.4byte	0x119f
 4009 119e 00       		.byte	0
 4010 119f 06       		.uleb128 0x6
 4011 11a0 04       		.byte	0x4
 4012 11a1 45000000 		.4byte	0x45
 4013 11a5 2A       		.uleb128 0x2a
 4014 11a6 1D0D0000 		.4byte	.LASF183
 4015 11aa 0F       		.byte	0xf
 4016 11ab B1       		.byte	0xb1
 4017 11ac 88000000 		.4byte	0x88
 4018 11b0 31       		.uleb128 0x31
 4019 11b1 12000000 		.4byte	.LASF184
 4020 11b5 14       		.byte	0x14
 4021 11b6 44       		.byte	0x44
 4022 11b7 CB110000 		.4byte	0x11cb
 4023 11bb 2C       		.uleb128 0x2c
 4024 11bc 25000000 		.4byte	0x25
 4025 11c0 2C       		.uleb128 0x2c
 4026 11c1 25000000 		.4byte	0x25
 4027 11c5 2C       		.uleb128 0x2c
 4028 11c6 25000000 		.4byte	0x25
 4029 11ca 00       		.byte	0
 4030 11cb 2B       		.uleb128 0x2b
 4031 11cc AD100000 		.4byte	.LASF185
 4032 11d0 0A       		.byte	0xa
 4033 11d1 7F       		.byte	0x7f
 4034 11d2 68020000 		.4byte	0x268
 4035 11d6 E0110000 		.4byte	0x11e0
 4036 11da 2C       		.uleb128 0x2c
 4037 11db 9F110000 		.4byte	0x119f
 4038 11df 00       		.byte	0
 4039 11e0 2B       		.uleb128 0x2b
 4040 11e1 BA0C0000 		.4byte	.LASF186
 4041 11e5 0A       		.byte	0xa
 4042 11e6 87       		.byte	0x87
 4043 11e7 68020000 		.4byte	0x268
 4044 11eb FF110000 		.4byte	0x11ff
ARM GAS  C:\Users\ADMINI~1\AppData\Local\Temp\ccPHzW0f.s 			page 97


 4045 11ef 2C       		.uleb128 0x2c
 4046 11f0 C8100000 		.4byte	0x10c8
 4047 11f4 2C       		.uleb128 0x2c
 4048 11f5 C8100000 		.4byte	0x10c8
 4049 11f9 2C       		.uleb128 0x2c
 4050 11fa C8100000 		.4byte	0x10c8
 4051 11fe 00       		.byte	0
 4052 11ff 2A       		.uleb128 0x2a
 4053 1200 FE030000 		.4byte	.LASF187
 4054 1204 0A       		.byte	0xa
 4055 1205 E6       		.byte	0xe6
 4056 1206 7A000000 		.4byte	0x7a
 4057 120a 2B       		.uleb128 0x2b
 4058 120b 510C0000 		.4byte	.LASF188
 4059 120f 0A       		.byte	0xa
 4060 1210 B1       		.byte	0xb1
 4061 1211 68020000 		.4byte	0x268
 4062 1215 1F120000 		.4byte	0x121f
 4063 1219 2C       		.uleb128 0x2c
 4064 121a C8100000 		.4byte	0x10c8
 4065 121e 00       		.byte	0
 4066 121f 2A       		.uleb128 0x2a
 4067 1220 06030000 		.4byte	.LASF189
 4068 1224 0A       		.byte	0xa
 4069 1225 EB       		.byte	0xeb
 4070 1226 7A000000 		.4byte	0x7a
 4071 122a 2B       		.uleb128 0x2b
 4072 122b 69100000 		.4byte	.LASF190
 4073 122f 10       		.byte	0x10
 4074 1230 C5       		.byte	0xc5
 4075 1231 68020000 		.4byte	0x268
 4076 1235 3F120000 		.4byte	0x123f
 4077 1239 2C       		.uleb128 0x2c
 4078 123a 3F120000 		.4byte	0x123f
 4079 123e 00       		.byte	0
 4080 123f 06       		.uleb128 0x6
 4081 1240 04       		.byte	0x4
 4082 1241 65000000 		.4byte	0x65
 4083 1245 31       		.uleb128 0x31
 4084 1246 F40D0000 		.4byte	.LASF191
 4085 124a 14       		.byte	0x14
 4086 124b 42       		.byte	0x42
 4087 124c 56120000 		.4byte	0x1256
 4088 1250 2C       		.uleb128 0x2c
 4089 1251 B6000000 		.4byte	0xb6
 4090 1255 00       		.byte	0
 4091 1256 32       		.uleb128 0x32
 4092 1257 340D0000 		.4byte	.LASF192
 4093 125b 0A       		.byte	0xa
 4094 125c 0A01     		.2byte	0x10a
 4095 125e 68020000 		.4byte	0x268
 4096 1262 76120000 		.4byte	0x1276
 4097 1266 2C       		.uleb128 0x2c
 4098 1267 46100000 		.4byte	0x1046
 4099 126b 2C       		.uleb128 0x2c
 4100 126c 76120000 		.4byte	0x1276
 4101 1270 2C       		.uleb128 0x2c
ARM GAS  C:\Users\ADMINI~1\AppData\Local\Temp\ccPHzW0f.s 			page 98


 4102 1271 76120000 		.4byte	0x1276
 4103 1275 00       		.byte	0
 4104 1276 06       		.uleb128 0x6
 4105 1277 04       		.byte	0x4
 4106 1278 57000000 		.4byte	0x57
 4107 127c 32       		.uleb128 0x32
 4108 127d A50D0000 		.4byte	.LASF193
 4109 1281 0A       		.byte	0xa
 4110 1282 1301     		.2byte	0x113
 4111 1284 68020000 		.4byte	0x268
 4112 1288 9C120000 		.4byte	0x129c
 4113 128c 2C       		.uleb128 0x2c
 4114 128d 76120000 		.4byte	0x1276
 4115 1291 2C       		.uleb128 0x2c
 4116 1292 76120000 		.4byte	0x1276
 4117 1296 2C       		.uleb128 0x2c
 4118 1297 46100000 		.4byte	0x1046
 4119 129b 00       		.byte	0
 4120 129c 2B       		.uleb128 0x2b
 4121 129d 090D0000 		.4byte	.LASF194
 4122 12a1 0A       		.byte	0xa
 4123 12a2 AB       		.byte	0xab
 4124 12a3 68020000 		.4byte	0x268
 4125 12a7 B1120000 		.4byte	0x12b1
 4126 12ab 2C       		.uleb128 0x2c
 4127 12ac C8100000 		.4byte	0x10c8
 4128 12b0 00       		.byte	0
 4129 12b1 31       		.uleb128 0x31
 4130 12b2 210C0000 		.4byte	.LASF195
 4131 12b6 12       		.byte	0x12
 4132 12b7 24       		.byte	0x24
 4133 12b8 C7120000 		.4byte	0x12c7
 4134 12bc 2C       		.uleb128 0x2c
 4135 12bd E4100000 		.4byte	0x10e4
 4136 12c1 2C       		.uleb128 0x2c
 4137 12c2 64110000 		.4byte	0x1164
 4138 12c6 00       		.byte	0
 4139 12c7 2A       		.uleb128 0x2a
 4140 12c8 2B060000 		.4byte	.LASF196
 4141 12cc 0A       		.byte	0xa
 4142 12cd F8       		.byte	0xf8
 4143 12ce 7A000000 		.4byte	0x7a
 4144 12d2 2B       		.uleb128 0x2b
 4145 12d3 08010000 		.4byte	.LASF197
 4146 12d7 0A       		.byte	0xa
 4147 12d8 A4       		.byte	0xa4
 4148 12d9 68020000 		.4byte	0x268
 4149 12dd E7120000 		.4byte	0x12e7
 4150 12e1 2C       		.uleb128 0x2c
 4151 12e2 C8100000 		.4byte	0x10c8
 4152 12e6 00       		.byte	0
 4153 12e7 2A       		.uleb128 0x2a
 4154 12e8 E90A0000 		.4byte	.LASF198
 4155 12ec 0A       		.byte	0xa
 4156 12ed F1       		.byte	0xf1
 4157 12ee 7A000000 		.4byte	0x7a
 4158 12f2 2B       		.uleb128 0x2b
ARM GAS  C:\Users\ADMINI~1\AppData\Local\Temp\ccPHzW0f.s 			page 99


 4159 12f3 19060000 		.4byte	.LASF199
 4160 12f7 0A       		.byte	0xa
 4161 12f8 D0       		.byte	0xd0
 4162 12f9 68020000 		.4byte	0x268
 4163 12fd 07130000 		.4byte	0x1307
 4164 1301 2C       		.uleb128 0x2c
 4165 1302 07130000 		.4byte	0x1307
 4166 1306 00       		.byte	0
 4167 1307 06       		.uleb128 0x6
 4168 1308 04       		.byte	0x4
 4169 1309 93000000 		.4byte	0x93
 4170 130d 2B       		.uleb128 0x2b
 4171 130e 780C0000 		.4byte	.LASF200
 4172 1312 0A       		.byte	0xa
 4173 1313 D6       		.byte	0xd6
 4174 1314 68020000 		.4byte	0x268
 4175 1318 22130000 		.4byte	0x1322
 4176 131c 2C       		.uleb128 0x2c
 4177 131d C8100000 		.4byte	0x10c8
 4178 1321 00       		.byte	0
 4179 1322 2B       		.uleb128 0x2b
 4180 1323 EA0F0000 		.4byte	.LASF201
 4181 1327 0A       		.byte	0xa
 4182 1328 DC       		.byte	0xdc
 4183 1329 68020000 		.4byte	0x268
 4184 132d 37130000 		.4byte	0x1337
 4185 1331 2C       		.uleb128 0x2c
 4186 1332 07130000 		.4byte	0x1307
 4187 1336 00       		.byte	0
 4188 1337 33       		.uleb128 0x33
 4189 1338 C6060000 		.4byte	.LASF202
 4190 133c 0A       		.byte	0xa
 4191 133d 4E       		.byte	0x4e
 4192 133e 68020000 		.4byte	0x268
 4193 1342 2C       		.uleb128 0x2c
 4194 1343 9F110000 		.4byte	0x119f
 4195 1347 00       		.byte	0
 4196 1348 00       		.byte	0
 4197              		.section	.debug_abbrev,"",%progbits
 4198              	.Ldebug_abbrev0:
 4199 0000 01       		.uleb128 0x1
 4200 0001 11       		.uleb128 0x11
 4201 0002 01       		.byte	0x1
 4202 0003 25       		.uleb128 0x25
 4203 0004 0E       		.uleb128 0xe
 4204 0005 13       		.uleb128 0x13
 4205 0006 0B       		.uleb128 0xb
 4206 0007 03       		.uleb128 0x3
 4207 0008 0E       		.uleb128 0xe
 4208 0009 1B       		.uleb128 0x1b
 4209 000a 0E       		.uleb128 0xe
 4210 000b 55       		.uleb128 0x55
 4211 000c 17       		.uleb128 0x17
 4212 000d 11       		.uleb128 0x11
 4213 000e 01       		.uleb128 0x1
 4214 000f 10       		.uleb128 0x10
 4215 0010 17       		.uleb128 0x17
ARM GAS  C:\Users\ADMINI~1\AppData\Local\Temp\ccPHzW0f.s 			page 100


 4216 0011 00       		.byte	0
 4217 0012 00       		.byte	0
 4218 0013 02       		.uleb128 0x2
 4219 0014 24       		.uleb128 0x24
 4220 0015 00       		.byte	0
 4221 0016 0B       		.uleb128 0xb
 4222 0017 0B       		.uleb128 0xb
 4223 0018 3E       		.uleb128 0x3e
 4224 0019 0B       		.uleb128 0xb
 4225 001a 03       		.uleb128 0x3
 4226 001b 0E       		.uleb128 0xe
 4227 001c 00       		.byte	0
 4228 001d 00       		.byte	0
 4229 001e 03       		.uleb128 0x3
 4230 001f 16       		.uleb128 0x16
 4231 0020 00       		.byte	0
 4232 0021 03       		.uleb128 0x3
 4233 0022 0E       		.uleb128 0xe
 4234 0023 3A       		.uleb128 0x3a
 4235 0024 0B       		.uleb128 0xb
 4236 0025 3B       		.uleb128 0x3b
 4237 0026 0B       		.uleb128 0xb
 4238 0027 49       		.uleb128 0x49
 4239 0028 13       		.uleb128 0x13
 4240 0029 00       		.byte	0
 4241 002a 00       		.byte	0
 4242 002b 04       		.uleb128 0x4
 4243 002c 24       		.uleb128 0x24
 4244 002d 00       		.byte	0
 4245 002e 0B       		.uleb128 0xb
 4246 002f 0B       		.uleb128 0xb
 4247 0030 3E       		.uleb128 0x3e
 4248 0031 0B       		.uleb128 0xb
 4249 0032 03       		.uleb128 0x3
 4250 0033 08       		.uleb128 0x8
 4251 0034 00       		.byte	0
 4252 0035 00       		.byte	0
 4253 0036 05       		.uleb128 0x5
 4254 0037 16       		.uleb128 0x16
 4255 0038 00       		.byte	0
 4256 0039 03       		.uleb128 0x3
 4257 003a 0E       		.uleb128 0xe
 4258 003b 3A       		.uleb128 0x3a
 4259 003c 0B       		.uleb128 0xb
 4260 003d 3B       		.uleb128 0x3b
 4261 003e 05       		.uleb128 0x5
 4262 003f 49       		.uleb128 0x49
 4263 0040 13       		.uleb128 0x13
 4264 0041 00       		.byte	0
 4265 0042 00       		.byte	0
 4266 0043 06       		.uleb128 0x6
 4267 0044 0F       		.uleb128 0xf
 4268 0045 00       		.byte	0
 4269 0046 0B       		.uleb128 0xb
 4270 0047 0B       		.uleb128 0xb
 4271 0048 49       		.uleb128 0x49
 4272 0049 13       		.uleb128 0x13
ARM GAS  C:\Users\ADMINI~1\AppData\Local\Temp\ccPHzW0f.s 			page 101


 4273 004a 00       		.byte	0
 4274 004b 00       		.byte	0
 4275 004c 07       		.uleb128 0x7
 4276 004d 15       		.uleb128 0x15
 4277 004e 00       		.byte	0
 4278 004f 27       		.uleb128 0x27
 4279 0050 19       		.uleb128 0x19
 4280 0051 00       		.byte	0
 4281 0052 00       		.byte	0
 4282 0053 08       		.uleb128 0x8
 4283 0054 0F       		.uleb128 0xf
 4284 0055 00       		.byte	0
 4285 0056 0B       		.uleb128 0xb
 4286 0057 0B       		.uleb128 0xb
 4287 0058 00       		.byte	0
 4288 0059 00       		.byte	0
 4289 005a 09       		.uleb128 0x9
 4290 005b 01       		.uleb128 0x1
 4291 005c 01       		.byte	0x1
 4292 005d 49       		.uleb128 0x49
 4293 005e 13       		.uleb128 0x13
 4294 005f 01       		.uleb128 0x1
 4295 0060 13       		.uleb128 0x13
 4296 0061 00       		.byte	0
 4297 0062 00       		.byte	0
 4298 0063 0A       		.uleb128 0xa
 4299 0064 21       		.uleb128 0x21
 4300 0065 00       		.byte	0
 4301 0066 49       		.uleb128 0x49
 4302 0067 13       		.uleb128 0x13
 4303 0068 2F       		.uleb128 0x2f
 4304 0069 0B       		.uleb128 0xb
 4305 006a 00       		.byte	0
 4306 006b 00       		.byte	0
 4307 006c 0B       		.uleb128 0xb
 4308 006d 04       		.uleb128 0x4
 4309 006e 01       		.byte	0x1
 4310 006f 03       		.uleb128 0x3
 4311 0070 0E       		.uleb128 0xe
 4312 0071 0B       		.uleb128 0xb
 4313 0072 0B       		.uleb128 0xb
 4314 0073 3A       		.uleb128 0x3a
 4315 0074 0B       		.uleb128 0xb
 4316 0075 3B       		.uleb128 0x3b
 4317 0076 05       		.uleb128 0x5
 4318 0077 01       		.uleb128 0x1
 4319 0078 13       		.uleb128 0x13
 4320 0079 00       		.byte	0
 4321 007a 00       		.byte	0
 4322 007b 0C       		.uleb128 0xc
 4323 007c 28       		.uleb128 0x28
 4324 007d 00       		.byte	0
 4325 007e 03       		.uleb128 0x3
 4326 007f 0E       		.uleb128 0xe
 4327 0080 1C       		.uleb128 0x1c
 4328 0081 0D       		.uleb128 0xd
 4329 0082 00       		.byte	0
ARM GAS  C:\Users\ADMINI~1\AppData\Local\Temp\ccPHzW0f.s 			page 102


 4330 0083 00       		.byte	0
 4331 0084 0D       		.uleb128 0xd
 4332 0085 13       		.uleb128 0x13
 4333 0086 01       		.byte	0x1
 4334 0087 03       		.uleb128 0x3
 4335 0088 0E       		.uleb128 0xe
 4336 0089 0B       		.uleb128 0xb
 4337 008a 0B       		.uleb128 0xb
 4338 008b 3A       		.uleb128 0x3a
 4339 008c 0B       		.uleb128 0xb
 4340 008d 3B       		.uleb128 0x3b
 4341 008e 0B       		.uleb128 0xb
 4342 008f 01       		.uleb128 0x1
 4343 0090 13       		.uleb128 0x13
 4344 0091 00       		.byte	0
 4345 0092 00       		.byte	0
 4346 0093 0E       		.uleb128 0xe
 4347 0094 0D       		.uleb128 0xd
 4348 0095 00       		.byte	0
 4349 0096 03       		.uleb128 0x3
 4350 0097 0E       		.uleb128 0xe
 4351 0098 3A       		.uleb128 0x3a
 4352 0099 0B       		.uleb128 0xb
 4353 009a 3B       		.uleb128 0x3b
 4354 009b 0B       		.uleb128 0xb
 4355 009c 49       		.uleb128 0x49
 4356 009d 13       		.uleb128 0x13
 4357 009e 38       		.uleb128 0x38
 4358 009f 0B       		.uleb128 0xb
 4359 00a0 00       		.byte	0
 4360 00a1 00       		.byte	0
 4361 00a2 0F       		.uleb128 0xf
 4362 00a3 35       		.uleb128 0x35
 4363 00a4 00       		.byte	0
 4364 00a5 49       		.uleb128 0x49
 4365 00a6 13       		.uleb128 0x13
 4366 00a7 00       		.byte	0
 4367 00a8 00       		.byte	0
 4368 00a9 10       		.uleb128 0x10
 4369 00aa 2E       		.uleb128 0x2e
 4370 00ab 00       		.byte	0
 4371 00ac 3F       		.uleb128 0x3f
 4372 00ad 19       		.uleb128 0x19
 4373 00ae 03       		.uleb128 0x3
 4374 00af 0E       		.uleb128 0xe
 4375 00b0 3A       		.uleb128 0x3a
 4376 00b1 0B       		.uleb128 0xb
 4377 00b2 3B       		.uleb128 0x3b
 4378 00b3 0B       		.uleb128 0xb
 4379 00b4 27       		.uleb128 0x27
 4380 00b5 19       		.uleb128 0x19
 4381 00b6 20       		.uleb128 0x20
 4382 00b7 0B       		.uleb128 0xb
 4383 00b8 00       		.byte	0
 4384 00b9 00       		.byte	0
 4385 00ba 11       		.uleb128 0x11
 4386 00bb 2E       		.uleb128 0x2e
ARM GAS  C:\Users\ADMINI~1\AppData\Local\Temp\ccPHzW0f.s 			page 103


 4387 00bc 01       		.byte	0x1
 4388 00bd 3F       		.uleb128 0x3f
 4389 00be 19       		.uleb128 0x19
 4390 00bf 03       		.uleb128 0x3
 4391 00c0 0E       		.uleb128 0xe
 4392 00c1 3A       		.uleb128 0x3a
 4393 00c2 0B       		.uleb128 0xb
 4394 00c3 3B       		.uleb128 0x3b
 4395 00c4 0B       		.uleb128 0xb
 4396 00c5 27       		.uleb128 0x27
 4397 00c6 19       		.uleb128 0x19
 4398 00c7 11       		.uleb128 0x11
 4399 00c8 01       		.uleb128 0x1
 4400 00c9 12       		.uleb128 0x12
 4401 00ca 06       		.uleb128 0x6
 4402 00cb 40       		.uleb128 0x40
 4403 00cc 18       		.uleb128 0x18
 4404 00cd 9742     		.uleb128 0x2117
 4405 00cf 19       		.uleb128 0x19
 4406 00d0 01       		.uleb128 0x1
 4407 00d1 13       		.uleb128 0x13
 4408 00d2 00       		.byte	0
 4409 00d3 00       		.byte	0
 4410 00d4 12       		.uleb128 0x12
 4411 00d5 1D       		.uleb128 0x1d
 4412 00d6 00       		.byte	0
 4413 00d7 31       		.uleb128 0x31
 4414 00d8 13       		.uleb128 0x13
 4415 00d9 52       		.uleb128 0x52
 4416 00da 01       		.uleb128 0x1
 4417 00db 55       		.uleb128 0x55
 4418 00dc 17       		.uleb128 0x17
 4419 00dd 58       		.uleb128 0x58
 4420 00de 0B       		.uleb128 0xb
 4421 00df 59       		.uleb128 0x59
 4422 00e0 0B       		.uleb128 0xb
 4423 00e1 00       		.byte	0
 4424 00e2 00       		.byte	0
 4425 00e3 13       		.uleb128 0x13
 4426 00e4 898201   		.uleb128 0x4109
 4427 00e7 00       		.byte	0
 4428 00e8 11       		.uleb128 0x11
 4429 00e9 01       		.uleb128 0x1
 4430 00ea 31       		.uleb128 0x31
 4431 00eb 13       		.uleb128 0x13
 4432 00ec 00       		.byte	0
 4433 00ed 00       		.byte	0
 4434 00ee 14       		.uleb128 0x14
 4435 00ef 2E       		.uleb128 0x2e
 4436 00f0 00       		.byte	0
 4437 00f1 31       		.uleb128 0x31
 4438 00f2 13       		.uleb128 0x13
 4439 00f3 11       		.uleb128 0x11
 4440 00f4 01       		.uleb128 0x1
 4441 00f5 12       		.uleb128 0x12
 4442 00f6 06       		.uleb128 0x6
 4443 00f7 40       		.uleb128 0x40
ARM GAS  C:\Users\ADMINI~1\AppData\Local\Temp\ccPHzW0f.s 			page 104


 4444 00f8 18       		.uleb128 0x18
 4445 00f9 9742     		.uleb128 0x2117
 4446 00fb 19       		.uleb128 0x19
 4447 00fc 00       		.byte	0
 4448 00fd 00       		.byte	0
 4449 00fe 15       		.uleb128 0x15
 4450 00ff 2E       		.uleb128 0x2e
 4451 0100 00       		.byte	0
 4452 0101 3F       		.uleb128 0x3f
 4453 0102 19       		.uleb128 0x19
 4454 0103 03       		.uleb128 0x3
 4455 0104 0E       		.uleb128 0xe
 4456 0105 3A       		.uleb128 0x3a
 4457 0106 0B       		.uleb128 0xb
 4458 0107 3B       		.uleb128 0x3b
 4459 0108 0B       		.uleb128 0xb
 4460 0109 27       		.uleb128 0x27
 4461 010a 19       		.uleb128 0x19
 4462 010b 49       		.uleb128 0x49
 4463 010c 13       		.uleb128 0x13
 4464 010d 11       		.uleb128 0x11
 4465 010e 01       		.uleb128 0x1
 4466 010f 12       		.uleb128 0x12
 4467 0110 06       		.uleb128 0x6
 4468 0111 40       		.uleb128 0x40
 4469 0112 18       		.uleb128 0x18
 4470 0113 9742     		.uleb128 0x2117
 4471 0115 19       		.uleb128 0x19
 4472 0116 00       		.byte	0
 4473 0117 00       		.byte	0
 4474 0118 16       		.uleb128 0x16
 4475 0119 2E       		.uleb128 0x2e
 4476 011a 01       		.byte	0x1
 4477 011b 3F       		.uleb128 0x3f
 4478 011c 19       		.uleb128 0x19
 4479 011d 03       		.uleb128 0x3
 4480 011e 0E       		.uleb128 0xe
 4481 011f 3A       		.uleb128 0x3a
 4482 0120 0B       		.uleb128 0xb
 4483 0121 3B       		.uleb128 0x3b
 4484 0122 0B       		.uleb128 0xb
 4485 0123 27       		.uleb128 0x27
 4486 0124 19       		.uleb128 0x19
 4487 0125 49       		.uleb128 0x49
 4488 0126 13       		.uleb128 0x13
 4489 0127 11       		.uleb128 0x11
 4490 0128 01       		.uleb128 0x1
 4491 0129 12       		.uleb128 0x12
 4492 012a 06       		.uleb128 0x6
 4493 012b 40       		.uleb128 0x40
 4494 012c 18       		.uleb128 0x18
 4495 012d 9642     		.uleb128 0x2116
 4496 012f 19       		.uleb128 0x19
 4497 0130 01       		.uleb128 0x1
 4498 0131 13       		.uleb128 0x13
 4499 0132 00       		.byte	0
 4500 0133 00       		.byte	0
ARM GAS  C:\Users\ADMINI~1\AppData\Local\Temp\ccPHzW0f.s 			page 105


 4501 0134 17       		.uleb128 0x17
 4502 0135 05       		.uleb128 0x5
 4503 0136 00       		.byte	0
 4504 0137 03       		.uleb128 0x3
 4505 0138 0E       		.uleb128 0xe
 4506 0139 3A       		.uleb128 0x3a
 4507 013a 0B       		.uleb128 0xb
 4508 013b 3B       		.uleb128 0x3b
 4509 013c 0B       		.uleb128 0xb
 4510 013d 49       		.uleb128 0x49
 4511 013e 13       		.uleb128 0x13
 4512 013f 02       		.uleb128 0x2
 4513 0140 17       		.uleb128 0x17
 4514 0141 00       		.byte	0
 4515 0142 00       		.byte	0
 4516 0143 18       		.uleb128 0x18
 4517 0144 34       		.uleb128 0x34
 4518 0145 00       		.byte	0
 4519 0146 03       		.uleb128 0x3
 4520 0147 0E       		.uleb128 0xe
 4521 0148 3A       		.uleb128 0x3a
 4522 0149 0B       		.uleb128 0xb
 4523 014a 3B       		.uleb128 0x3b
 4524 014b 0B       		.uleb128 0xb
 4525 014c 49       		.uleb128 0x49
 4526 014d 13       		.uleb128 0x13
 4527 014e 1C       		.uleb128 0x1c
 4528 014f 05       		.uleb128 0x5
 4529 0150 00       		.byte	0
 4530 0151 00       		.byte	0
 4531 0152 19       		.uleb128 0x19
 4532 0153 34       		.uleb128 0x34
 4533 0154 00       		.byte	0
 4534 0155 03       		.uleb128 0x3
 4535 0156 0E       		.uleb128 0xe
 4536 0157 3A       		.uleb128 0x3a
 4537 0158 0B       		.uleb128 0xb
 4538 0159 3B       		.uleb128 0x3b
 4539 015a 0B       		.uleb128 0xb
 4540 015b 49       		.uleb128 0x49
 4541 015c 13       		.uleb128 0x13
 4542 015d 02       		.uleb128 0x2
 4543 015e 17       		.uleb128 0x17
 4544 015f 00       		.byte	0
 4545 0160 00       		.byte	0
 4546 0161 1A       		.uleb128 0x1a
 4547 0162 898201   		.uleb128 0x4109
 4548 0165 01       		.byte	0x1
 4549 0166 11       		.uleb128 0x11
 4550 0167 01       		.uleb128 0x1
 4551 0168 31       		.uleb128 0x31
 4552 0169 13       		.uleb128 0x13
 4553 016a 01       		.uleb128 0x1
 4554 016b 13       		.uleb128 0x13
 4555 016c 00       		.byte	0
 4556 016d 00       		.byte	0
 4557 016e 1B       		.uleb128 0x1b
ARM GAS  C:\Users\ADMINI~1\AppData\Local\Temp\ccPHzW0f.s 			page 106


 4558 016f 8A8201   		.uleb128 0x410a
 4559 0172 00       		.byte	0
 4560 0173 02       		.uleb128 0x2
 4561 0174 18       		.uleb128 0x18
 4562 0175 9142     		.uleb128 0x2111
 4563 0177 18       		.uleb128 0x18
 4564 0178 00       		.byte	0
 4565 0179 00       		.byte	0
 4566 017a 1C       		.uleb128 0x1c
 4567 017b 2E       		.uleb128 0x2e
 4568 017c 01       		.byte	0x1
 4569 017d 3F       		.uleb128 0x3f
 4570 017e 19       		.uleb128 0x19
 4571 017f 03       		.uleb128 0x3
 4572 0180 0E       		.uleb128 0xe
 4573 0181 3A       		.uleb128 0x3a
 4574 0182 0B       		.uleb128 0xb
 4575 0183 3B       		.uleb128 0x3b
 4576 0184 05       		.uleb128 0x5
 4577 0185 27       		.uleb128 0x27
 4578 0186 19       		.uleb128 0x19
 4579 0187 49       		.uleb128 0x49
 4580 0188 13       		.uleb128 0x13
 4581 0189 11       		.uleb128 0x11
 4582 018a 01       		.uleb128 0x1
 4583 018b 12       		.uleb128 0x12
 4584 018c 06       		.uleb128 0x6
 4585 018d 40       		.uleb128 0x40
 4586 018e 18       		.uleb128 0x18
 4587 018f 9742     		.uleb128 0x2117
 4588 0191 19       		.uleb128 0x19
 4589 0192 01       		.uleb128 0x1
 4590 0193 13       		.uleb128 0x13
 4591 0194 00       		.byte	0
 4592 0195 00       		.byte	0
 4593 0196 1D       		.uleb128 0x1d
 4594 0197 05       		.uleb128 0x5
 4595 0198 00       		.byte	0
 4596 0199 03       		.uleb128 0x3
 4597 019a 08       		.uleb128 0x8
 4598 019b 3A       		.uleb128 0x3a
 4599 019c 0B       		.uleb128 0xb
 4600 019d 3B       		.uleb128 0x3b
 4601 019e 05       		.uleb128 0x5
 4602 019f 49       		.uleb128 0x49
 4603 01a0 13       		.uleb128 0x13
 4604 01a1 02       		.uleb128 0x2
 4605 01a2 17       		.uleb128 0x17
 4606 01a3 00       		.byte	0
 4607 01a4 00       		.byte	0
 4608 01a5 1E       		.uleb128 0x1e
 4609 01a6 34       		.uleb128 0x34
 4610 01a7 00       		.byte	0
 4611 01a8 03       		.uleb128 0x3
 4612 01a9 0E       		.uleb128 0xe
 4613 01aa 3A       		.uleb128 0x3a
 4614 01ab 0B       		.uleb128 0xb
ARM GAS  C:\Users\ADMINI~1\AppData\Local\Temp\ccPHzW0f.s 			page 107


 4615 01ac 3B       		.uleb128 0x3b
 4616 01ad 05       		.uleb128 0x5
 4617 01ae 49       		.uleb128 0x49
 4618 01af 13       		.uleb128 0x13
 4619 01b0 02       		.uleb128 0x2
 4620 01b1 17       		.uleb128 0x17
 4621 01b2 00       		.byte	0
 4622 01b3 00       		.byte	0
 4623 01b4 1F       		.uleb128 0x1f
 4624 01b5 34       		.uleb128 0x34
 4625 01b6 00       		.byte	0
 4626 01b7 03       		.uleb128 0x3
 4627 01b8 0E       		.uleb128 0xe
 4628 01b9 3A       		.uleb128 0x3a
 4629 01ba 0B       		.uleb128 0xb
 4630 01bb 3B       		.uleb128 0x3b
 4631 01bc 05       		.uleb128 0x5
 4632 01bd 49       		.uleb128 0x49
 4633 01be 13       		.uleb128 0x13
 4634 01bf 02       		.uleb128 0x2
 4635 01c0 18       		.uleb128 0x18
 4636 01c1 00       		.byte	0
 4637 01c2 00       		.byte	0
 4638 01c3 20       		.uleb128 0x20
 4639 01c4 34       		.uleb128 0x34
 4640 01c5 00       		.byte	0
 4641 01c6 03       		.uleb128 0x3
 4642 01c7 0E       		.uleb128 0xe
 4643 01c8 3A       		.uleb128 0x3a
 4644 01c9 0B       		.uleb128 0xb
 4645 01ca 3B       		.uleb128 0x3b
 4646 01cb 05       		.uleb128 0x5
 4647 01cc 49       		.uleb128 0x49
 4648 01cd 13       		.uleb128 0x13
 4649 01ce 1C       		.uleb128 0x1c
 4650 01cf 0B       		.uleb128 0xb
 4651 01d0 00       		.byte	0
 4652 01d1 00       		.byte	0
 4653 01d2 21       		.uleb128 0x21
 4654 01d3 898201   		.uleb128 0x4109
 4655 01d6 01       		.byte	0x1
 4656 01d7 11       		.uleb128 0x11
 4657 01d8 01       		.uleb128 0x1
 4658 01d9 31       		.uleb128 0x31
 4659 01da 13       		.uleb128 0x13
 4660 01db 00       		.byte	0
 4661 01dc 00       		.byte	0
 4662 01dd 22       		.uleb128 0x22
 4663 01de 2E       		.uleb128 0x2e
 4664 01df 01       		.byte	0x1
 4665 01e0 3F       		.uleb128 0x3f
 4666 01e1 19       		.uleb128 0x19
 4667 01e2 03       		.uleb128 0x3
 4668 01e3 0E       		.uleb128 0xe
 4669 01e4 3A       		.uleb128 0x3a
 4670 01e5 0B       		.uleb128 0xb
 4671 01e6 3B       		.uleb128 0x3b
ARM GAS  C:\Users\ADMINI~1\AppData\Local\Temp\ccPHzW0f.s 			page 108


 4672 01e7 0B       		.uleb128 0xb
 4673 01e8 27       		.uleb128 0x27
 4674 01e9 19       		.uleb128 0x19
 4675 01ea 49       		.uleb128 0x49
 4676 01eb 13       		.uleb128 0x13
 4677 01ec 11       		.uleb128 0x11
 4678 01ed 01       		.uleb128 0x1
 4679 01ee 12       		.uleb128 0x12
 4680 01ef 06       		.uleb128 0x6
 4681 01f0 40       		.uleb128 0x40
 4682 01f1 18       		.uleb128 0x18
 4683 01f2 9742     		.uleb128 0x2117
 4684 01f4 19       		.uleb128 0x19
 4685 01f5 01       		.uleb128 0x1
 4686 01f6 13       		.uleb128 0x13
 4687 01f7 00       		.byte	0
 4688 01f8 00       		.byte	0
 4689 01f9 23       		.uleb128 0x23
 4690 01fa 2E       		.uleb128 0x2e
 4691 01fb 01       		.byte	0x1
 4692 01fc 3F       		.uleb128 0x3f
 4693 01fd 19       		.uleb128 0x19
 4694 01fe 03       		.uleb128 0x3
 4695 01ff 0E       		.uleb128 0xe
 4696 0200 3A       		.uleb128 0x3a
 4697 0201 0B       		.uleb128 0xb
 4698 0202 3B       		.uleb128 0x3b
 4699 0203 05       		.uleb128 0x5
 4700 0204 11       		.uleb128 0x11
 4701 0205 01       		.uleb128 0x1
 4702 0206 12       		.uleb128 0x12
 4703 0207 06       		.uleb128 0x6
 4704 0208 40       		.uleb128 0x40
 4705 0209 18       		.uleb128 0x18
 4706 020a 9742     		.uleb128 0x2117
 4707 020c 19       		.uleb128 0x19
 4708 020d 01       		.uleb128 0x1
 4709 020e 13       		.uleb128 0x13
 4710 020f 00       		.byte	0
 4711 0210 00       		.byte	0
 4712 0211 24       		.uleb128 0x24
 4713 0212 0B       		.uleb128 0xb
 4714 0213 01       		.byte	0x1
 4715 0214 11       		.uleb128 0x11
 4716 0215 01       		.uleb128 0x1
 4717 0216 12       		.uleb128 0x12
 4718 0217 06       		.uleb128 0x6
 4719 0218 01       		.uleb128 0x1
 4720 0219 13       		.uleb128 0x13
 4721 021a 00       		.byte	0
 4722 021b 00       		.byte	0
 4723 021c 25       		.uleb128 0x25
 4724 021d 2E       		.uleb128 0x2e
 4725 021e 01       		.byte	0x1
 4726 021f 3F       		.uleb128 0x3f
 4727 0220 19       		.uleb128 0x19
 4728 0221 03       		.uleb128 0x3
ARM GAS  C:\Users\ADMINI~1\AppData\Local\Temp\ccPHzW0f.s 			page 109


 4729 0222 0E       		.uleb128 0xe
 4730 0223 3A       		.uleb128 0x3a
 4731 0224 0B       		.uleb128 0xb
 4732 0225 3B       		.uleb128 0x3b
 4733 0226 05       		.uleb128 0x5
 4734 0227 11       		.uleb128 0x11
 4735 0228 01       		.uleb128 0x1
 4736 0229 12       		.uleb128 0x12
 4737 022a 06       		.uleb128 0x6
 4738 022b 40       		.uleb128 0x40
 4739 022c 18       		.uleb128 0x18
 4740 022d 9642     		.uleb128 0x2116
 4741 022f 19       		.uleb128 0x19
 4742 0230 01       		.uleb128 0x1
 4743 0231 13       		.uleb128 0x13
 4744 0232 00       		.byte	0
 4745 0233 00       		.byte	0
 4746 0234 26       		.uleb128 0x26
 4747 0235 26       		.uleb128 0x26
 4748 0236 00       		.byte	0
 4749 0237 49       		.uleb128 0x49
 4750 0238 13       		.uleb128 0x13
 4751 0239 00       		.byte	0
 4752 023a 00       		.byte	0
 4753 023b 27       		.uleb128 0x27
 4754 023c 34       		.uleb128 0x34
 4755 023d 00       		.byte	0
 4756 023e 03       		.uleb128 0x3
 4757 023f 0E       		.uleb128 0xe
 4758 0240 3A       		.uleb128 0x3a
 4759 0241 0B       		.uleb128 0xb
 4760 0242 3B       		.uleb128 0x3b
 4761 0243 0B       		.uleb128 0xb
 4762 0244 49       		.uleb128 0x49
 4763 0245 13       		.uleb128 0x13
 4764 0246 02       		.uleb128 0x2
 4765 0247 18       		.uleb128 0x18
 4766 0248 00       		.byte	0
 4767 0249 00       		.byte	0
 4768 024a 28       		.uleb128 0x28
 4769 024b 34       		.uleb128 0x34
 4770 024c 00       		.byte	0
 4771 024d 03       		.uleb128 0x3
 4772 024e 0E       		.uleb128 0xe
 4773 024f 3A       		.uleb128 0x3a
 4774 0250 0B       		.uleb128 0xb
 4775 0251 3B       		.uleb128 0x3b
 4776 0252 0B       		.uleb128 0xb
 4777 0253 49       		.uleb128 0x49
 4778 0254 13       		.uleb128 0x13
 4779 0255 3F       		.uleb128 0x3f
 4780 0256 19       		.uleb128 0x19
 4781 0257 02       		.uleb128 0x2
 4782 0258 18       		.uleb128 0x18
 4783 0259 00       		.byte	0
 4784 025a 00       		.byte	0
 4785 025b 29       		.uleb128 0x29
ARM GAS  C:\Users\ADMINI~1\AppData\Local\Temp\ccPHzW0f.s 			page 110


 4786 025c 34       		.uleb128 0x34
 4787 025d 00       		.byte	0
 4788 025e 03       		.uleb128 0x3
 4789 025f 08       		.uleb128 0x8
 4790 0260 3A       		.uleb128 0x3a
 4791 0261 0B       		.uleb128 0xb
 4792 0262 3B       		.uleb128 0x3b
 4793 0263 0B       		.uleb128 0xb
 4794 0264 49       		.uleb128 0x49
 4795 0265 13       		.uleb128 0x13
 4796 0266 3F       		.uleb128 0x3f
 4797 0267 19       		.uleb128 0x19
 4798 0268 02       		.uleb128 0x2
 4799 0269 18       		.uleb128 0x18
 4800 026a 00       		.byte	0
 4801 026b 00       		.byte	0
 4802 026c 2A       		.uleb128 0x2a
 4803 026d 2E       		.uleb128 0x2e
 4804 026e 00       		.byte	0
 4805 026f 3F       		.uleb128 0x3f
 4806 0270 19       		.uleb128 0x19
 4807 0271 03       		.uleb128 0x3
 4808 0272 0E       		.uleb128 0xe
 4809 0273 3A       		.uleb128 0x3a
 4810 0274 0B       		.uleb128 0xb
 4811 0275 3B       		.uleb128 0x3b
 4812 0276 0B       		.uleb128 0xb
 4813 0277 27       		.uleb128 0x27
 4814 0278 19       		.uleb128 0x19
 4815 0279 49       		.uleb128 0x49
 4816 027a 13       		.uleb128 0x13
 4817 027b 3C       		.uleb128 0x3c
 4818 027c 19       		.uleb128 0x19
 4819 027d 00       		.byte	0
 4820 027e 00       		.byte	0
 4821 027f 2B       		.uleb128 0x2b
 4822 0280 2E       		.uleb128 0x2e
 4823 0281 01       		.byte	0x1
 4824 0282 3F       		.uleb128 0x3f
 4825 0283 19       		.uleb128 0x19
 4826 0284 03       		.uleb128 0x3
 4827 0285 0E       		.uleb128 0xe
 4828 0286 3A       		.uleb128 0x3a
 4829 0287 0B       		.uleb128 0xb
 4830 0288 3B       		.uleb128 0x3b
 4831 0289 0B       		.uleb128 0xb
 4832 028a 27       		.uleb128 0x27
 4833 028b 19       		.uleb128 0x19
 4834 028c 49       		.uleb128 0x49
 4835 028d 13       		.uleb128 0x13
 4836 028e 3C       		.uleb128 0x3c
 4837 028f 19       		.uleb128 0x19
 4838 0290 01       		.uleb128 0x1
 4839 0291 13       		.uleb128 0x13
 4840 0292 00       		.byte	0
 4841 0293 00       		.byte	0
 4842 0294 2C       		.uleb128 0x2c
ARM GAS  C:\Users\ADMINI~1\AppData\Local\Temp\ccPHzW0f.s 			page 111


 4843 0295 05       		.uleb128 0x5
 4844 0296 00       		.byte	0
 4845 0297 49       		.uleb128 0x49
 4846 0298 13       		.uleb128 0x13
 4847 0299 00       		.byte	0
 4848 029a 00       		.byte	0
 4849 029b 2D       		.uleb128 0x2d
 4850 029c 2E       		.uleb128 0x2e
 4851 029d 01       		.byte	0x1
 4852 029e 3F       		.uleb128 0x3f
 4853 029f 19       		.uleb128 0x19
 4854 02a0 03       		.uleb128 0x3
 4855 02a1 0E       		.uleb128 0xe
 4856 02a2 3A       		.uleb128 0x3a
 4857 02a3 0B       		.uleb128 0xb
 4858 02a4 3B       		.uleb128 0x3b
 4859 02a5 0B       		.uleb128 0xb
 4860 02a6 49       		.uleb128 0x49
 4861 02a7 13       		.uleb128 0x13
 4862 02a8 3C       		.uleb128 0x3c
 4863 02a9 19       		.uleb128 0x19
 4864 02aa 01       		.uleb128 0x1
 4865 02ab 13       		.uleb128 0x13
 4866 02ac 00       		.byte	0
 4867 02ad 00       		.byte	0
 4868 02ae 2E       		.uleb128 0x2e
 4869 02af 18       		.uleb128 0x18
 4870 02b0 00       		.byte	0
 4871 02b1 00       		.byte	0
 4872 02b2 00       		.byte	0
 4873 02b3 2F       		.uleb128 0x2f
 4874 02b4 2E       		.uleb128 0x2e
 4875 02b5 01       		.byte	0x1
 4876 02b6 3F       		.uleb128 0x3f
 4877 02b7 19       		.uleb128 0x19
 4878 02b8 03       		.uleb128 0x3
 4879 02b9 0E       		.uleb128 0xe
 4880 02ba 27       		.uleb128 0x27
 4881 02bb 19       		.uleb128 0x19
 4882 02bc 49       		.uleb128 0x49
 4883 02bd 13       		.uleb128 0x13
 4884 02be 34       		.uleb128 0x34
 4885 02bf 19       		.uleb128 0x19
 4886 02c0 3C       		.uleb128 0x3c
 4887 02c1 19       		.uleb128 0x19
 4888 02c2 01       		.uleb128 0x1
 4889 02c3 13       		.uleb128 0x13
 4890 02c4 00       		.byte	0
 4891 02c5 00       		.byte	0
 4892 02c6 30       		.uleb128 0x30
 4893 02c7 2E       		.uleb128 0x2e
 4894 02c8 00       		.byte	0
 4895 02c9 3F       		.uleb128 0x3f
 4896 02ca 19       		.uleb128 0x19
 4897 02cb 03       		.uleb128 0x3
 4898 02cc 0E       		.uleb128 0xe
 4899 02cd 3A       		.uleb128 0x3a
ARM GAS  C:\Users\ADMINI~1\AppData\Local\Temp\ccPHzW0f.s 			page 112


 4900 02ce 0B       		.uleb128 0xb
 4901 02cf 3B       		.uleb128 0x3b
 4902 02d0 0B       		.uleb128 0xb
 4903 02d1 27       		.uleb128 0x27
 4904 02d2 19       		.uleb128 0x19
 4905 02d3 3C       		.uleb128 0x3c
 4906 02d4 19       		.uleb128 0x19
 4907 02d5 00       		.byte	0
 4908 02d6 00       		.byte	0
 4909 02d7 31       		.uleb128 0x31
 4910 02d8 2E       		.uleb128 0x2e
 4911 02d9 01       		.byte	0x1
 4912 02da 3F       		.uleb128 0x3f
 4913 02db 19       		.uleb128 0x19
 4914 02dc 03       		.uleb128 0x3
 4915 02dd 0E       		.uleb128 0xe
 4916 02de 3A       		.uleb128 0x3a
 4917 02df 0B       		.uleb128 0xb
 4918 02e0 3B       		.uleb128 0x3b
 4919 02e1 0B       		.uleb128 0xb
 4920 02e2 27       		.uleb128 0x27
 4921 02e3 19       		.uleb128 0x19
 4922 02e4 3C       		.uleb128 0x3c
 4923 02e5 19       		.uleb128 0x19
 4924 02e6 01       		.uleb128 0x1
 4925 02e7 13       		.uleb128 0x13
 4926 02e8 00       		.byte	0
 4927 02e9 00       		.byte	0
 4928 02ea 32       		.uleb128 0x32
 4929 02eb 2E       		.uleb128 0x2e
 4930 02ec 01       		.byte	0x1
 4931 02ed 3F       		.uleb128 0x3f
 4932 02ee 19       		.uleb128 0x19
 4933 02ef 03       		.uleb128 0x3
 4934 02f0 0E       		.uleb128 0xe
 4935 02f1 3A       		.uleb128 0x3a
 4936 02f2 0B       		.uleb128 0xb
 4937 02f3 3B       		.uleb128 0x3b
 4938 02f4 05       		.uleb128 0x5
 4939 02f5 27       		.uleb128 0x27
 4940 02f6 19       		.uleb128 0x19
 4941 02f7 49       		.uleb128 0x49
 4942 02f8 13       		.uleb128 0x13
 4943 02f9 3C       		.uleb128 0x3c
 4944 02fa 19       		.uleb128 0x19
 4945 02fb 01       		.uleb128 0x1
 4946 02fc 13       		.uleb128 0x13
 4947 02fd 00       		.byte	0
 4948 02fe 00       		.byte	0
 4949 02ff 33       		.uleb128 0x33
 4950 0300 2E       		.uleb128 0x2e
 4951 0301 01       		.byte	0x1
 4952 0302 3F       		.uleb128 0x3f
 4953 0303 19       		.uleb128 0x19
 4954 0304 03       		.uleb128 0x3
 4955 0305 0E       		.uleb128 0xe
 4956 0306 3A       		.uleb128 0x3a
ARM GAS  C:\Users\ADMINI~1\AppData\Local\Temp\ccPHzW0f.s 			page 113


 4957 0307 0B       		.uleb128 0xb
 4958 0308 3B       		.uleb128 0x3b
 4959 0309 0B       		.uleb128 0xb
 4960 030a 27       		.uleb128 0x27
 4961 030b 19       		.uleb128 0x19
 4962 030c 49       		.uleb128 0x49
 4963 030d 13       		.uleb128 0x13
 4964 030e 3C       		.uleb128 0x3c
 4965 030f 19       		.uleb128 0x19
 4966 0310 00       		.byte	0
 4967 0311 00       		.byte	0
 4968 0312 00       		.byte	0
 4969              		.section	.debug_loc,"",%progbits
 4970              	.Ldebug_loc0:
 4971              	.LLST0:
 4972 0000 00000000 		.4byte	.LVL1
 4973 0004 09000000 		.4byte	.LVL2-1
 4974 0008 0100     		.2byte	0x1
 4975 000a 50       		.byte	0x50
 4976 000b 09000000 		.4byte	.LVL2-1
 4977 000f C0000000 		.4byte	.LVL29
 4978 0013 0100     		.2byte	0x1
 4979 0015 56       		.byte	0x56
 4980 0016 C0000000 		.4byte	.LVL29
 4981 001a D0000000 		.4byte	.LFE45
 4982 001e 0600     		.2byte	0x6
 4983 0020 F3       		.byte	0xf3
 4984 0021 03       		.uleb128 0x3
 4985 0022 F5       		.byte	0xf5
 4986 0023 00       		.uleb128 0
 4987 0024 25       		.uleb128 0x25
 4988 0025 9F       		.byte	0x9f
 4989 0026 00000000 		.4byte	0
 4990 002a 00000000 		.4byte	0
 4991              	.LLST1:
 4992 002e 00000000 		.4byte	.LVL1
 4993 0032 2A000000 		.4byte	.LVL6
 4994 0036 0200     		.2byte	0x2
 4995 0038 30       		.byte	0x30
 4996 0039 9F       		.byte	0x9f
 4997 003a 2A000000 		.4byte	.LVL6
 4998 003e C0000000 		.4byte	.LVL28
 4999 0042 0100     		.2byte	0x1
 5000 0044 54       		.byte	0x54
 5001 0045 C0000000 		.4byte	.LVL28
 5002 0049 D0000000 		.4byte	.LFE45
 5003 004d 0100     		.2byte	0x1
 5004 004f 50       		.byte	0x50
 5005 0050 00000000 		.4byte	0
 5006 0054 00000000 		.4byte	0
 5007              	.LLST2:
 5008 0058 00000000 		.4byte	.LVL30
 5009 005c 02000000 		.4byte	.LVL31
 5010 0060 0100     		.2byte	0x1
 5011 0062 50       		.byte	0x50
 5012 0063 02000000 		.4byte	.LVL31
 5013 0067 04000000 		.4byte	.LFE46
ARM GAS  C:\Users\ADMINI~1\AppData\Local\Temp\ccPHzW0f.s 			page 114


 5014 006b 0400     		.2byte	0x4
 5015 006d F3       		.byte	0xf3
 5016 006e 01       		.uleb128 0x1
 5017 006f 50       		.byte	0x50
 5018 0070 9F       		.byte	0x9f
 5019 0071 00000000 		.4byte	0
 5020 0075 00000000 		.4byte	0
 5021              	.LLST3:
 5022 0079 72000000 		.4byte	.LVL36
 5023 007d 76000000 		.4byte	.LVL37
 5024 0081 0200     		.2byte	0x2
 5025 0083 30       		.byte	0x30
 5026 0084 9F       		.byte	0x9f
 5027 0085 7A000000 		.4byte	.LVL38
 5028 0089 88000000 		.4byte	.LFE47
 5029 008d 0100     		.2byte	0x1
 5030 008f 50       		.byte	0x50
 5031 0090 00000000 		.4byte	0
 5032 0094 00000000 		.4byte	0
 5033              	.LLST4:
 5034 0098 0E000000 		.4byte	.LVL40
 5035 009c 23000000 		.4byte	.LVL41-1
 5036 00a0 0100     		.2byte	0x1
 5037 00a2 50       		.byte	0x50
 5038 00a3 28000000 		.4byte	.LVL42
 5039 00a7 3B000000 		.4byte	.LVL43-1
 5040 00ab 0100     		.2byte	0x1
 5041 00ad 50       		.byte	0x50
 5042 00ae 3B000000 		.4byte	.LVL43-1
 5043 00b2 A8000000 		.4byte	.LVL57
 5044 00b6 0100     		.2byte	0x1
 5045 00b8 56       		.byte	0x56
 5046 00b9 A8000000 		.4byte	.LVL57
 5047 00bd B8000000 		.4byte	.LFE43
 5048 00c1 0100     		.2byte	0x1
 5049 00c3 50       		.byte	0x50
 5050 00c4 00000000 		.4byte	0
 5051 00c8 00000000 		.4byte	0
 5052              	.LLST5:
 5053 00cc EC000000 		.4byte	.LVL76
 5054 00d0 F1000000 		.4byte	.LVL77-1
 5055 00d4 0C00     		.2byte	0xc
 5056 00d6 F5       		.byte	0xf5
 5057 00d7 00       		.uleb128 0
 5058 00d8 25       		.uleb128 0x25
 5059 00d9 F4       		.byte	0xf4
 5060 00da 25       		.uleb128 0x25
 5061 00db 04       		.byte	0x4
 5062 00dc 0AE81C41 		.4byte	0x411ce80a
 5063 00e0 1E       		.byte	0x1e
 5064 00e1 9F       		.byte	0x9f
 5065 00e2 00000000 		.4byte	0
 5066 00e6 00000000 		.4byte	0
 5067              	.LLST6:
 5068 00ea 4E010000 		.4byte	.LVL86
 5069 00ee 65010000 		.4byte	.LVL87-1
 5070 00f2 0C00     		.2byte	0xc
ARM GAS  C:\Users\ADMINI~1\AppData\Local\Temp\ccPHzW0f.s 			page 115


 5071 00f4 F5       		.byte	0xf5
 5072 00f5 00       		.uleb128 0
 5073 00f6 25       		.uleb128 0x25
 5074 00f7 F4       		.byte	0xf4
 5075 00f8 25       		.uleb128 0x25
 5076 00f9 04       		.byte	0x4
 5077 00fa 35FA8E3C 		.4byte	0x3c8efa35
 5078 00fe 1E       		.byte	0x1e
 5079 00ff 9F       		.byte	0x9f
 5080 0100 98010000 		.4byte	.LVL93
 5081 0104 9D010000 		.4byte	.LVL94-1
 5082 0108 0100     		.2byte	0x1
 5083 010a 50       		.byte	0x50
 5084 010b A0010000 		.4byte	.LVL95
 5085 010f A2010000 		.4byte	.LVL96
 5086 0113 0100     		.2byte	0x1
 5087 0115 50       		.byte	0x50
 5088 0116 A2010000 		.4byte	.LVL96
 5089 011a FE010000 		.4byte	.LVL102
 5090 011e 0200     		.2byte	0x2
 5091 0120 7D       		.byte	0x7d
 5092 0121 00       		.sleb128 0
 5093 0122 00000000 		.4byte	0
 5094 0126 00000000 		.4byte	0
 5095              	.LLST7:
 5096 012a 18020000 		.4byte	.LVL105
 5097 012e 22020000 		.4byte	.LVL106
 5098 0132 0600     		.2byte	0x6
 5099 0134 9E       		.byte	0x9e
 5100 0135 04       		.uleb128 0x4
 5101 0136 00008037 		.4byte	0x37800000
 5102 013a 00000000 		.4byte	0
 5103 013e 00000000 		.4byte	0
 5104              		.section	.debug_aranges,"",%progbits
 5105 0000 5C000000 		.4byte	0x5c
 5106 0004 0200     		.2byte	0x2
 5107 0006 00000000 		.4byte	.Ldebug_info0
 5108 000a 04       		.byte	0x4
 5109 000b 00       		.byte	0
 5110 000c 0000     		.2byte	0
 5111 000e 0000     		.2byte	0
 5112 0010 00000000 		.4byte	.LFB42
 5113 0014 14000000 		.4byte	.LFE42-.LFB42
 5114 0018 00000000 		.4byte	.LFB41
 5115 001c 0C000000 		.4byte	.LFE41-.LFB41
 5116 0020 00000000 		.4byte	.LFB44
 5117 0024 0C000000 		.4byte	.LFE44-.LFB44
 5118 0028 00000000 		.4byte	.LFB45
 5119 002c D0000000 		.4byte	.LFE45-.LFB45
 5120 0030 00000000 		.4byte	.LFB46
 5121 0034 04000000 		.4byte	.LFE46-.LFB46
 5122 0038 00000000 		.4byte	.LFB47
 5123 003c 88000000 		.4byte	.LFE47-.LFB47
 5124 0040 00000000 		.4byte	.LFB43
 5125 0044 B8000000 		.4byte	.LFE43-.LFB43
 5126 0048 00000000 		.4byte	.LFB48
 5127 004c E4000000 		.4byte	.LFE48-.LFB48
ARM GAS  C:\Users\ADMINI~1\AppData\Local\Temp\ccPHzW0f.s 			page 116


 5128 0050 00000000 		.4byte	.LFB49
 5129 0054 14040000 		.4byte	.LFE49-.LFB49
 5130 0058 00000000 		.4byte	0
 5131 005c 00000000 		.4byte	0
 5132              		.section	.debug_ranges,"",%progbits
 5133              	.Ldebug_ranges0:
 5134 0000 00000000 		.4byte	.LBB4
 5135 0004 02000000 		.4byte	.LBE4
 5136 0008 04000000 		.4byte	.LBB8
 5137 000c 06000000 		.4byte	.LBE8
 5138 0010 06000000 		.4byte	.LBB9
 5139 0014 08000000 		.4byte	.LBE9
 5140 0018 00000000 		.4byte	0
 5141 001c 00000000 		.4byte	0
 5142 0020 00000000 		.4byte	.LFB42
 5143 0024 14000000 		.4byte	.LFE42
 5144 0028 00000000 		.4byte	.LFB41
 5145 002c 0C000000 		.4byte	.LFE41
 5146 0030 00000000 		.4byte	.LFB44
 5147 0034 0C000000 		.4byte	.LFE44
 5148 0038 00000000 		.4byte	.LFB45
 5149 003c D0000000 		.4byte	.LFE45
 5150 0040 00000000 		.4byte	.LFB46
 5151 0044 04000000 		.4byte	.LFE46
 5152 0048 00000000 		.4byte	.LFB47
 5153 004c 88000000 		.4byte	.LFE47
 5154 0050 00000000 		.4byte	.LFB43
 5155 0054 B8000000 		.4byte	.LFE43
 5156 0058 00000000 		.4byte	.LFB48
 5157 005c E4000000 		.4byte	.LFE48
 5158 0060 00000000 		.4byte	.LFB49
 5159 0064 14040000 		.4byte	.LFE49
 5160 0068 00000000 		.4byte	0
 5161 006c 00000000 		.4byte	0
 5162              		.section	.debug_line,"",%progbits
 5163              	.Ldebug_line0:
 5164 0000 F0040000 		.section	.debug_str,"MS",%progbits,1
 5164      0200FA02 
 5164      00000201 
 5164      FB0E0D00 
 5164      01010101 
 5165              	.LASF121:
 5166 0000 6779726F 		.ascii	"gyro_data_was_set\000"
 5166      5F646174 
 5166      615F7761 
 5166      735F7365 
 5166      7400
 5167              	.LASF184:
 5168 0012 4261636B 		.ascii	"BackBone_SetGyroscopeData\000"
 5168      426F6E65 
 5168      5F536574 
 5168      4779726F 
 5168      73636F70 
 5169              	.LASF42:
 5170 002c 414E4452 		.ascii	"ANDROID_SENSOR_MAGNETIC_FIELD_UNCALIBRATED\000"
 5170      4F49445F 
 5170      53454E53 
ARM GAS  C:\Users\ADMINI~1\AppData\Local\Temp\ccPHzW0f.s 			page 117


 5170      4F525F4D 
 5170      41474E45 
 5171              	.LASF96:
 5172 0057 6669666F 		.ascii	"fifo_handler\000"
 5172      5F68616E 
 5172      646C6572 
 5172      00
 5173              	.LASF118:
 5174 0064 73656C66 		.ascii	"self_test_result\000"
 5174      5F746573 
 5174      745F7265 
 5174      73756C74 
 5174      00
 5175              	.LASF56:
 5176 0075 414E4452 		.ascii	"ANDROID_SENSOR_WAKEUP_PRESSURE\000"
 5176      4F49445F 
 5176      53454E53 
 5176      4F525F57 
 5176      414B4555 
 5177              	.LASF113:
 5178 0094 434F4D50 		.ascii	"COMPASS_CHIP_ADDR\000"
 5178      4153535F 
 5178      43484950 
 5178      5F414444 
 5178      5200
 5179              	.LASF24:
 5180 00a6 53455249 		.ascii	"SERIAL_INTERFACE_SPI\000"
 5180      414C5F49 
 5180      4E544552 
 5180      46414345 
 5180      5F535049 
 5181              	.LASF97:
 5182 00bb 696E745F 		.ascii	"int_read_back\000"
 5182      72656164 
 5182      5F626163 
 5182      6B00
 5183              	.LASF130:
 5184 00c9 666C6970 		.ascii	"flip_data_was_set\000"
 5184      5F646174 
 5184      615F7761 
 5184      735F7365 
 5184      7400
 5185              	.LASF140:
 5186 00db 70726576 		.ascii	"previous_bias\000"
 5186      696F7573 
 5186      5F626961 
 5186      7300
 5187              	.LASF74:
 5188 00e9 414E4452 		.ascii	"ANDROID_SENSOR_SCREEN_ROTATION\000"
 5188      4F49445F 
 5188      53454E53 
 5188      4F525F53 
 5188      43524545 
 5189              	.LASF197:
 5190 0108 646D705F 		.ascii	"dmp_get_gmrvquaternion\000"
 5190      6765745F 
 5190      676D7276 
ARM GAS  C:\Users\ADMINI~1\AppData\Local\Temp\ccPHzW0f.s 			page 118


 5190      71756174 
 5190      65726E69 
 5191              	.LASF128:
 5192 011f 676D7276 		.ascii	"gmrv_quat_was_set\000"
 5192      5F717561 
 5192      745F7761 
 5192      735F7365 
 5192      7400
 5193              	.LASF115:
 5194 0131 41434345 		.ascii	"ACCEL_GYRO_ORIENTATION\000"
 5194      4C5F4759 
 5194      524F5F4F 
 5194      5249454E 
 5194      54415449 
 5195              	.LASF81:
 5196 0148 65787065 		.ascii	"expected_data\000"
 5196      63746564 
 5196      5F646174 
 5196      6100
 5197              	.LASF171:
 5198 0156 696E765F 		.ascii	"inv_enable_sensor\000"
 5198      656E6162 
 5198      6C655F73 
 5198      656E736F 
 5198      7200
 5199              	.LASF133:
 5200 0168 63756265 		.ascii	"cube_grv\000"
 5200      5F677276 
 5200      00
 5201              	.LASF157:
 5202 0171 666C6970 		.ascii	"flip_pickup\000"
 5202      5F706963 
 5202      6B757000 
 5203              	.LASF11:
 5204 017d 756E7369 		.ascii	"unsigned int\000"
 5204      676E6564 
 5204      20696E74 
 5204      00
 5205              	.LASF139:
 5206 018a 6779726F 		.ascii	"gyro_bias_float\000"
 5206      5F626961 
 5206      735F666C 
 5206      6F617400 
 5207              	.LASF167:
 5208 019a 646D705F 		.ascii	"dmp_set_bias_20648\000"
 5208      7365745F 
 5208      62696173 
 5208      5F323036 
 5208      343800
 5209              	.LASF23:
 5210 01ad 53455249 		.ascii	"SERIAL_INTERFACE_I2C\000"
 5210      414C5F49 
 5210      4E544552 
 5210      46414345 
 5210      5F493243 
 5211              	.LASF129:
 5212 01c2 6261635F 		.ascii	"bac_data_was_set\000"
ARM GAS  C:\Users\ADMINI~1\AppData\Local\Temp\ccPHzW0f.s 			page 119


 5212      64617461 
 5212      5F776173 
 5212      5F736574 
 5212      00
 5213              	.LASF77:
 5214 01d3 47454E45 		.ascii	"GENERAL_SENSORS_MAX\000"
 5214      52414C5F 
 5214      53454E53 
 5214      4F52535F 
 5214      4D415800 
 5215              	.LASF146:
 5216 01e7 61636365 		.ascii	"accel_accuracy\000"
 5216      6C5F6163 
 5216      63757261 
 5216      637900
 5217              	.LASF28:
 5218 01f6 414E4452 		.ascii	"ANDROID_SENSOR_META_DATA\000"
 5218      4F49445F 
 5218      53454E53 
 5218      4F525F4D 
 5218      4554415F 
 5219              	.LASF99:
 5220 020f 68656164 		.ascii	"header2\000"
 5220      65723200 
 5221              	.LASF49:
 5222 0217 414E4452 		.ascii	"ANDROID_SENSOR_HEART_RATE\000"
 5222      4F49445F 
 5222      53454E53 
 5222      4F525F48 
 5222      45415254 
 5223              	.LASF154:
 5224 0231 6261635F 		.ascii	"bac_state\000"
 5224      73746174 
 5224      6500
 5225              	.LASF169:
 5226 023b 4932435F 		.ascii	"I2C_Start\000"
 5226      53746172 
 5226      7400
 5227              	.LASF90:
 5228 0245 73656E73 		.ascii	"sensors_bias\000"
 5228      6F72735F 
 5228      62696173 
 5228      00
 5229              	.LASF67:
 5230 0252 414E4452 		.ascii	"ANDROID_SENSOR_WAKEUP_GEOMAGNETIC_ROTATION_VECTOR\000"
 5230      4F49445F 
 5230      53454E53 
 5230      4F525F57 
 5230      414B4555 
 5231              	.LASF88:
 5232 0284 696E765F 		.ascii	"inv_perform_selftest\000"
 5232      70657266 
 5232      6F726D5F 
 5232      73656C66 
 5232      74657374 
 5233              	.LASF104:
 5234 0299 63757272 		.ascii	"currentIrqTimeUs\000"
ARM GAS  C:\Users\ADMINI~1\AppData\Local\Temp\ccPHzW0f.s 			page 120


 5234      656E7449 
 5234      72715469 
 5234      6D655573 
 5234      00
 5235              	.LASF55:
 5236 02aa 414E4452 		.ascii	"ANDROID_SENSOR_WAKEUP_LIGHT\000"
 5236      4F49445F 
 5236      53454E53 
 5236      4F525F57 
 5236      414B4555 
 5237              	.LASF84:
 5238 02c6 72657375 		.ascii	"result\000"
 5238      6C7400
 5239              	.LASF159:
 5240 02cd 63757272 		.ascii	"current_output_rate\000"
 5240      656E745F 
 5240      6F757470 
 5240      75745F72 
 5240      61746500 
 5241              	.LASF143:
 5242 02e1 636F6D70 		.ascii	"compass_bias\000"
 5242      6173735F 
 5242      62696173 
 5242      00
 5243              	.LASF40:
 5244 02ee 414E4452 		.ascii	"ANDROID_SENSOR_HUMIDITY\000"
 5244      4F49445F 
 5244      53454E53 
 5244      4F525F48 
 5244      554D4944 
 5245              	.LASF189:
 5246 0306 696E765F 		.ascii	"inv_get_mag_accuracy\000"
 5246      6765745F 
 5246      6D61675F 
 5246      61636375 
 5246      72616379 
 5247              	.LASF51:
 5248 031b 414E4452 		.ascii	"ANDROID_SENSOR_WAKEUP_ACCELEROMETER\000"
 5248      4F49445F 
 5248      53454E53 
 5248      4F525F57 
 5248      414B4555 
 5249              	.LASF182:
 5250 033f 646D705F 		.ascii	"dmp_get_raw_gyro\000"
 5250      6765745F 
 5250      7261775F 
 5250      6779726F 
 5250      00
 5251              	.LASF206:
 5252 0350 68616C5F 		.ascii	"hal_s_\000"
 5252      735F00
 5253              	.LASF60:
 5254 0357 414E4452 		.ascii	"ANDROID_SENSOR_WAKEUP_RELATIVE_HUMIDITY\000"
 5254      4F49445F 
 5254      53454E53 
 5254      4F525F57 
 5254      414B4555 
ARM GAS  C:\Users\ADMINI~1\AppData\Local\Temp\ccPHzW0f.s 			page 121


 5255              	.LASF109:
 5256 037f 73746570 		.ascii	"steps\000"
 5256      7300
 5257              	.LASF44:
 5258 0385 414E4452 		.ascii	"ANDROID_SENSOR_GYROSCOPE_UNCALIBRATED\000"
 5258      4F49445F 
 5258      53454E53 
 5258      4F525F47 
 5258      59524F53 
 5259              	.LASF101:
 5260 03ab 73686F72 		.ascii	"short_data\000"
 5260      745F6461 
 5260      746100
 5261              	.LASF0:
 5262 03b6 666C6F61 		.ascii	"float\000"
 5262      7400
 5263              	.LASF178:
 5264 03bc 696E765F 		.ascii	"inv_get_accel_accuracy\000"
 5264      6765745F 
 5264      61636365 
 5264      6C5F6163 
 5264      63757261 
 5265              	.LASF168:
 5266 03d3 6779726F 		.ascii	"gyro_data_ready_cb\000"
 5266      5F646174 
 5266      615F7265 
 5266      6164795F 
 5266      636200
 5267              	.LASF179:
 5268 03e6 696E765F 		.ascii	"inv_get_accel_fullscale\000"
 5268      6765745F 
 5268      61636365 
 5268      6C5F6675 
 5268      6C6C7363 
 5269              	.LASF187:
 5270 03fe 696E765F 		.ascii	"inv_get_gyro_accuracy\000"
 5270      6765745F 
 5270      6779726F 
 5270      5F616363 
 5270      75726163 
 5271              	.LASF72:
 5272 0414 414E4452 		.ascii	"ANDROID_SENSOR_FLIP_PICKUP\000"
 5272      4F49445F 
 5272      53454E53 
 5272      4F525F46 
 5272      4C49505F 
 5273              	.LASF106:
 5274 042f 746F7461 		.ascii	"total_sample_cnt\000"
 5274      6C5F7361 
 5274      6D706C65 
 5274      5F636E74 
 5274      00
 5275              	.LASF36:
 5276 0440 414E4452 		.ascii	"ANDROID_SENSOR_WAKEUP_PROXIMITY\000"
 5276      4F49445F 
 5276      53454E53 
 5276      4F525F57 
ARM GAS  C:\Users\ADMINI~1\AppData\Local\Temp\ccPHzW0f.s 			page 122


 5276      414B4555 
 5277              	.LASF208:
 5278 0460 696E765F 		.ascii	"inv_get_status\000"
 5278      6765745F 
 5278      73746174 
 5278      757300
 5279              	.LASF33:
 5280 046f 414E4452 		.ascii	"ANDROID_SENSOR_LIGHT\000"
 5280      4F49445F 
 5280      53454E53 
 5280      4F525F4C 
 5280      49474854 
 5281              	.LASF80:
 5282 0484 64656275 		.ascii	"debug_reg_on\000"
 5282      675F7265 
 5282      675F6F6E 
 5282      00
 5283              	.LASF78:
 5284 0491 696E765F 		.ascii	"inv_error_t\000"
 5284      6572726F 
 5284      725F7400 
 5285              	.LASF10:
 5286 049d 6C6F6E67 		.ascii	"long long unsigned int\000"
 5286      206C6F6E 
 5286      6720756E 
 5286      7369676E 
 5286      65642069 
 5287              	.LASF141:
 5288 04b4 636F6D70 		.ascii	"compass_float\000"
 5288      6173735F 
 5288      666C6F61 
 5288      7400
 5289              	.LASF117:
 5290 04c2 534F4654 		.ascii	"SOFT_IRON_MATRIX\000"
 5290      5F49524F 
 5290      4E5F4D41 
 5290      54524958 
 5290      00
 5291              	.LASF66:
 5292 04d3 414E4452 		.ascii	"ANDROID_SENSOR_WAKEUP_STEP_COUNTER\000"
 5292      4F49445F 
 5292      53454E53 
 5292      4F525F57 
 5292      414B4555 
 5293              	.LASF5:
 5294 04f6 5F5F7569 		.ascii	"__uint16_t\000"
 5294      6E743136 
 5294      5F7400
 5295              	.LASF181:
 5296 0501 4261636B 		.ascii	"BackBone_SetAccelerometerData\000"
 5296      426F6E65 
 5296      5F536574 
 5296      41636365 
 5296      6C65726F 
 5297              	.LASF54:
 5298 051f 414E4452 		.ascii	"ANDROID_SENSOR_WAKEUP_GYROSCOPE\000"
 5298      4F49445F 
ARM GAS  C:\Users\ADMINI~1\AppData\Local\Temp\ccPHzW0f.s 			page 123


 5298      53454E53 
 5298      4F525F57 
 5298      414B4555 
 5299              	.LASF43:
 5300 053f 414E4452 		.ascii	"ANDROID_SENSOR_GAME_ROTATION_VECTOR\000"
 5300      4F49445F 
 5300      53454E53 
 5300      4F525F47 
 5300      414D455F 
 5301              	.LASF203:
 5302 0563 474E5520 		.ascii	"GNU C 4.9.3 20150303 (release) [ARM/embedded-4_9-br"
 5302      4320342E 
 5302      392E3320 
 5302      32303135 
 5302      30333033 
 5303 0596 616E6368 		.ascii	"anch revision 221220] -mcpu=cortex-m0 -mthumb -g -O"
 5303      20726576 
 5303      6973696F 
 5303      6E203232 
 5303      31323230 
 5304 05c9 73202D66 		.ascii	"s -ffunction-sections -ffat-lto-objects\000"
 5304      66756E63 
 5304      74696F6E 
 5304      2D736563 
 5304      74696F6E 
 5305              	.LASF174:
 5306 05f1 696E765F 		.ascii	"inv_convert_rotation_vector_1\000"
 5306      636F6E76 
 5306      6572745F 
 5306      726F7461 
 5306      74696F6E 
 5307              	.LASF92:
 5308 060f 696E765F 		.ascii	"inv_start\000"
 5308      73746172 
 5308      7400
 5309              	.LASF199:
 5310 0619 646D705F 		.ascii	"dmp_get_bac_state\000"
 5310      6765745F 
 5310      6261635F 
 5310      73746174 
 5310      6500
 5311              	.LASF196:
 5312 062b 696E765F 		.ascii	"inv_get_rv_accuracy\000"
 5312      6765745F 
 5312      72765F61 
 5312      63637572 
 5312      61637900 
 5313              	.LASF105:
 5314 063f 73616D70 		.ascii	"sample_cnt_array\000"
 5314      6C655F63 
 5314      6E745F61 
 5314      72726179 
 5314      00
 5315              	.LASF27:
 5316 0650 414E4452 		.ascii	"ANDROID_SENSORS\000"
 5316      4F49445F 
 5316      53454E53 
ARM GAS  C:\Users\ADMINI~1\AppData\Local\Temp\ccPHzW0f.s 			page 124


 5316      4F525300 
 5317              	.LASF162:
 5318 0660 646D705F 		.ascii	"dmp_reset_odr_counters\000"
 5318      72657365 
 5318      745F6F64 
 5318      725F636F 
 5318      756E7465 
 5319              	.LASF155:
 5320 0677 74696C74 		.ascii	"tilt_state\000"
 5320      5F737461 
 5320      746500
 5321              	.LASF116:
 5322 0682 434F4D50 		.ascii	"COMPASS_ORIENTATION\000"
 5322      4153535F 
 5322      4F524945 
 5322      4E544154 
 5322      494F4E00 
 5323              	.LASF93:
 5324 0696 6C6F6E67 		.ascii	"long_quat\000"
 5324      5F717561 
 5324      7400
 5325              	.LASF59:
 5326 06a0 414E4452 		.ascii	"ANDROID_SENSOR_WAKEUP_ROTATION_VECTOR\000"
 5326      4F49445F 
 5326      53454E53 
 5326      4F525F57 
 5326      414B4555 
 5327              	.LASF202:
 5328 06c6 696E765F 		.ascii	"inv_identify_interrupt\000"
 5328      6964656E 
 5328      74696679 
 5328      5F696E74 
 5328      65727275 
 5329              	.LASF35:
 5330 06dd 414E4452 		.ascii	"ANDROID_SENSOR_TEMPERATURE\000"
 5330      4F49445F 
 5330      53454E53 
 5330      4F525F54 
 5330      454D5045 
 5331              	.LASF150:
 5332 06f8 676D7276 		.ascii	"gmrv_accuracy\000"
 5332      5F616363 
 5332      75726163 
 5332      7900
 5333              	.LASF31:
 5334 0706 414E4452 		.ascii	"ANDROID_SENSOR_ORIENTATION\000"
 5334      4F49445F 
 5334      53454E53 
 5334      4F525F4F 
 5334      5249454E 
 5335              	.LASF73:
 5336 0721 414E4452 		.ascii	"ANDROID_SENSOR_ACTIVITY_CLASSIFICATON\000"
 5336      4F49445F 
 5336      53454E53 
 5336      4F525F41 
 5336      43544956 
 5337              	.LASF166:
ARM GAS  C:\Users\ADMINI~1\AppData\Local\Temp\ccPHzW0f.s 			page 125


 5338 0747 646D705F 		.ascii	"dmp_get_bias_20648\000"
 5338      6765745F 
 5338      62696173 
 5338      5F323036 
 5338      343800
 5339              	.LASF85:
 5340 075a 7365745F 		.ascii	"set_output_rates\000"
 5340      6F757470 
 5340      75745F72 
 5340      61746573 
 5340      00
 5341              	.LASF34:
 5342 076b 414E4452 		.ascii	"ANDROID_SENSOR_PRESSURE\000"
 5342      4F49445F 
 5342      53454E53 
 5342      4F525F50 
 5342      52455353 
 5343              	.LASF126:
 5344 0783 71756174 		.ascii	"quat9_data_was_set\000"
 5344      395F6461 
 5344      74615F77 
 5344      61735F73 
 5344      657400
 5345              	.LASF175:
 5346 0796 696E765F 		.ascii	"inv_compute_scalar_part\000"
 5346      636F6D70 
 5346      7574655F 
 5346      7363616C 
 5346      61725F70 
 5347              	.LASF18:
 5348 07ae 63686172 		.ascii	"char\000"
 5348      00
 5349              	.LASF87:
 5350 07b3 72617465 		.ascii	"rate\000"
 5350      00
 5351              	.LASF114:
 5352 07b8 50524553 		.ascii	"PRESSURE_CHIP_ADDR\000"
 5352      53555245 
 5352      5F434849 
 5352      505F4144 
 5352      445200
 5353              	.LASF53:
 5354 07cb 414E4452 		.ascii	"ANDROID_SENSOR_WAKEUP_ORIENTATION\000"
 5354      4F49445F 
 5354      53454E53 
 5354      4F525F57 
 5354      414B4555 
 5355              	.LASF15:
 5356 07ed 75696E74 		.ascii	"uint16\000"
 5356      313600
 5357              	.LASF135:
 5358 07f4 72765F66 		.ascii	"rv_float\000"
 5358      6C6F6174 
 5358      00
 5359              	.LASF63:
 5360 07fd 414E4452 		.ascii	"ANDROID_SENSOR_WAKEUP_GAME_ROTATION_VECTOR\000"
 5360      4F49445F 
ARM GAS  C:\Users\ADMINI~1\AppData\Local\Temp\ccPHzW0f.s 			page 126


 5360      53454E53 
 5360      4F525F57 
 5360      414B4555 
 5361              	.LASF12:
 5362 0828 75696E74 		.ascii	"uint8_t\000"
 5362      385F7400 
 5363              	.LASF65:
 5364 0830 414E4452 		.ascii	"ANDROID_SENSOR_WAKEUP_STEP_DETECTOR\000"
 5364      4F49445F 
 5364      53454E53 
 5364      4F525F57 
 5364      414B4555 
 5365              	.LASF86:
 5366 0854 68616E64 		.ascii	"handle_char_input\000"
 5366      6C655F63 
 5366      6861725F 
 5366      696E7075 
 5366      7400
 5367              	.LASF62:
 5368 0866 414E4452 		.ascii	"ANDROID_SENSOR_WAKEUP_MAGNETIC_FIELD_UNCALIBRATED\000"
 5368      4F49445F 
 5368      53454E53 
 5368      4F525F57 
 5368      414B4555 
 5369              	.LASF165:
 5370 0898 696E765F 		.ascii	"inv_set_odr\000"
 5370      7365745F 
 5370      6F647200 
 5371              	.LASF83:
 5372 08a4 62617365 		.ascii	"base_rate\000"
 5372      5F726174 
 5372      6500
 5373              	.LASF125:
 5374 08ae 71756174 		.ascii	"quat6_data_was_set\000"
 5374      365F6461 
 5374      74615F77 
 5374      61735F73 
 5374      657400
 5375              	.LASF111:
 5376 08c1 696E765F 		.ascii	"inv_flags\000"
 5376      666C6167 
 5376      7300
 5377              	.LASF9:
 5378 08cb 6C6F6E67 		.ascii	"long long int\000"
 5378      206C6F6E 
 5378      6720696E 
 5378      7400
 5379              	.LASF153:
 5380 08d9 675F6176 		.ascii	"g_average\000"
 5380      65726167 
 5380      6500
 5381              	.LASF156:
 5382 08e3 6261635F 		.ascii	"bac_ts\000"
 5382      747300
 5383              	.LASF79:
 5384 08ea 7265706F 		.ascii	"report\000"
 5384      727400
ARM GAS  C:\Users\ADMINI~1\AppData\Local\Temp\ccPHzW0f.s 			page 127


 5385              	.LASF61:
 5386 08f1 414E4452 		.ascii	"ANDROID_SENSOR_WAKEUP_AMBIENT_TEMPERATURE\000"
 5386      4F49445F 
 5386      53454E53 
 5386      4F525F57 
 5386      414B4555 
 5387              	.LASF127:
 5388 091b 72765F71 		.ascii	"rv_quat_was_set\000"
 5388      7561745F 
 5388      7761735F 
 5388      73657400 
 5389              	.LASF57:
 5390 092b 414E4452 		.ascii	"ANDROID_SENSOR_WAKEUP_GRAVITY\000"
 5390      4F49445F 
 5390      53454E53 
 5390      4F525F57 
 5390      414B4555 
 5391              	.LASF91:
 5392 0949 7363616C 		.ascii	"scale\000"
 5392      6500
 5393              	.LASF163:
 5394 094f 6D656D73 		.ascii	"memset\000"
 5394      657400
 5395              	.LASF137:
 5396 0956 6779726F 		.ascii	"gyro_float\000"
 5396      5F666C6F 
 5396      617400
 5397              	.LASF19:
 5398 0961 63796973 		.ascii	"cyisraddress\000"
 5398      72616464 
 5398      72657373 
 5398      00
 5399              	.LASF94:
 5400 096e 74656D70 		.ascii	"temp_long_quat\000"
 5400      5F6C6F6E 
 5400      675F7175 
 5400      617400
 5401              	.LASF149:
 5402 097d 636F6D70 		.ascii	"compass_accuracy\000"
 5402      6173735F 
 5402      61636375 
 5402      72616379 
 5402      00
 5403              	.LASF16:
 5404 098e 75696E74 		.ascii	"uint32\000"
 5404      333200
 5405              	.LASF37:
 5406 0995 414E4452 		.ascii	"ANDROID_SENSOR_GRAVITY\000"
 5406      4F49445F 
 5406      53454E53 
 5406      4F525F47 
 5406      52415649 
 5407              	.LASF71:
 5408 09ac 414E4452 		.ascii	"ANDROID_SENSOR_B2S\000"
 5408      4F49445F 
 5408      53454E53 
 5408      4F525F42 
ARM GAS  C:\Users\ADMINI~1\AppData\Local\Temp\ccPHzW0f.s 			page 128


 5408      325300
 5409              	.LASF64:
 5410 09bf 414E4452 		.ascii	"ANDROID_SENSOR_WAKEUP_GYROSCOPE_UNCALIBRATED\000"
 5410      4F49445F 
 5410      53454E53 
 5410      4F525F57 
 5410      414B4555 
 5411              	.LASF98:
 5412 09ec 68656164 		.ascii	"header\000"
 5412      657200
 5413              	.LASF204:
 5414 09f3 2E5C696E 		.ascii	".\\inv.c\000"
 5414      762E6300 
 5415              	.LASF103:
 5416 09fb 6C617374 		.ascii	"lastIrqTimeUs\000"
 5416      49727154 
 5416      696D6555 
 5416      7300
 5417              	.LASF30:
 5418 0a09 414E4452 		.ascii	"ANDROID_SENSOR_GEOMAGNETIC_FIELD\000"
 5418      4F49445F 
 5418      53454E53 
 5418      4F525F47 
 5418      454F4D41 
 5419              	.LASF142:
 5420 0a2a 636F6D70 		.ascii	"compass_raw_float\000"
 5420      6173735F 
 5420      7261775F 
 5420      666C6F61 
 5420      7400
 5421              	.LASF22:
 5422 0a3c 6D70755F 		.ascii	"mpu_time_t\000"
 5422      74696D65 
 5422      5F7400
 5423              	.LASF176:
 5424 0a47 646D705F 		.ascii	"dmp_get_6quaternion\000"
 5424      6765745F 
 5424      36717561 
 5424      7465726E 
 5424      696F6E00 
 5425              	.LASF134:
 5426 0a5b 61636365 		.ascii	"accel_float\000"
 5426      6C5F666C 
 5426      6F617400 
 5427              	.LASF120:
 5428 0a67 61636365 		.ascii	"accel_data_was_set\000"
 5428      6C5F6461 
 5428      74615F77 
 5428      61735F73 
 5428      657400
 5429              	.LASF21:
 5430 0a7a 6C6F6E67 		.ascii	"long double\000"
 5430      20646F75 
 5430      626C6500 
 5431              	.LASF13:
 5432 0a86 75696E74 		.ascii	"uint16_t\000"
 5432      31365F74 
ARM GAS  C:\Users\ADMINI~1\AppData\Local\Temp\ccPHzW0f.s 			page 129


 5432      00
 5433              	.LASF138:
 5434 0a8f 6779726F 		.ascii	"gyro_raw_float\000"
 5434      5F726177 
 5434      5F666C6F 
 5434      617400
 5435              	.LASF158:
 5436 0a9e 73746570 		.ascii	"step_detected\000"
 5436      5F646574 
 5436      65637465 
 5436      6400
 5437              	.LASF68:
 5438 0aac 414E4452 		.ascii	"ANDROID_SENSOR_WAKEUP_HEART_RATE\000"
 5438      4F49445F 
 5438      53454E53 
 5438      4F525F57 
 5438      414B4555 
 5439              	.LASF47:
 5440 0acd 414E4452 		.ascii	"ANDROID_SENSOR_STEP_COUNTER\000"
 5440      4F49445F 
 5440      53454E53 
 5440      4F525F53 
 5440      5445505F 
 5441              	.LASF198:
 5442 0ae9 696E765F 		.ascii	"inv_get_gmrv_accuracy\000"
 5442      6765745F 
 5442      676D7276 
 5442      5F616363 
 5442      75726163 
 5443              	.LASF131:
 5444 0aff 74696C74 		.ascii	"tilt_data_was_set\000"
 5444      5F646174 
 5444      615F7761 
 5444      735F7365 
 5444      7400
 5445              	.LASF3:
 5446 0b11 73686F72 		.ascii	"short int\000"
 5446      7420696E 
 5446      7400
 5447              	.LASF45:
 5448 0b1b 414E4452 		.ascii	"ANDROID_SENSOR_WAKEUP_SIGNIFICANT_MOTION\000"
 5448      4F49445F 
 5448      53454E53 
 5448      4F525F57 
 5448      414B4555 
 5449              	.LASF82:
 5450 0b44 6E65775F 		.ascii	"new_gyro\000"
 5450      6779726F 
 5450      00
 5451              	.LASF70:
 5452 0b4d 414E4452 		.ascii	"ANDROID_SENSOR_NUM_MAX\000"
 5452      4F49445F 
 5452      53454E53 
 5452      4F525F4E 
 5452      554D5F4D 
 5453              	.LASF7:
 5454 0b64 6C6F6E67 		.ascii	"long int\000"
ARM GAS  C:\Users\ADMINI~1\AppData\Local\Temp\ccPHzW0f.s 			page 130


 5454      20696E74 
 5454      00
 5455              	.LASF58:
 5456 0b6d 414E4452 		.ascii	"ANDROID_SENSOR_WAKEUP_LINEAR_ACCELERATION\000"
 5456      4F49445F 
 5456      53454E53 
 5456      4F525F57 
 5456      414B4555 
 5457              	.LASF89:
 5458 0b97 73746174 		.ascii	"status\000"
 5458      757300
 5459              	.LASF48:
 5460 0b9e 414E4452 		.ascii	"ANDROID_SENSOR_GEOMAGNETIC_ROTATION_VECTOR\000"
 5460      4F49445F 
 5460      53454E53 
 5460      4F525F47 
 5460      454F4D41 
 5461              	.LASF164:
 5462 0bc9 696E765F 		.ascii	"inv_mems_run_selftest\000"
 5462      6D656D73 
 5462      5F72756E 
 5462      5F73656C 
 5462      66746573 
 5463              	.LASF122:
 5464 0bdf 7261775F 		.ascii	"raw_gyro_data_was_set\000"
 5464      6779726F 
 5464      5F646174 
 5464      615F7761 
 5464      735F7365 
 5465              	.LASF161:
 5466 0bf5 646D705F 		.ascii	"dmp_reset_fifo\000"
 5466      72657365 
 5466      745F6669 
 5466      666F00
 5467              	.LASF29:
 5468 0c04 414E4452 		.ascii	"ANDROID_SENSOR_ACCELEROMETER\000"
 5468      4F49445F 
 5468      53454E53 
 5468      4F525F41 
 5468      4343454C 
 5469              	.LASF195:
 5470 0c21 696E765F 		.ascii	"inv_convert_rotation_vector\000"
 5470      636F6E76 
 5470      6572745F 
 5470      726F7461 
 5470      74696F6E 
 5471              	.LASF132:
 5472 0c3d 6772765F 		.ascii	"grv_float\000"
 5472      666C6F61 
 5472      7400
 5473              	.LASF4:
 5474 0c47 5F5F7569 		.ascii	"__uint8_t\000"
 5474      6E74385F 
 5474      7400
 5475              	.LASF188:
 5476 0c51 646D705F 		.ascii	"dmp_get_calibrated_compass\000"
 5476      6765745F 
ARM GAS  C:\Users\ADMINI~1\AppData\Local\Temp\ccPHzW0f.s 			page 131


 5476      63616C69 
 5476      62726174 
 5476      65645F63 
 5477              	.LASF148:
 5478 0c6c 72765F61 		.ascii	"rv_accuracy\000"
 5478      63637572 
 5478      61637900 
 5479              	.LASF200:
 5480 0c78 646D705F 		.ascii	"dmp_get_bac_ts\000"
 5480      6765745F 
 5480      6261635F 
 5480      747300
 5481              	.LASF172:
 5482 0c87 6973725F 		.ascii	"isr_INVN_INT_StartEx\000"
 5482      494E564E 
 5482      5F494E54 
 5482      5F537461 
 5482      72744578 
 5483              	.LASF108:
 5484 0c9c 62696173 		.ascii	"bias_data\000"
 5484      5F646174 
 5484      6100
 5485              	.LASF102:
 5486 0ca6 6C6F6E67 		.ascii	"long_data\000"
 5486      5F646174 
 5486      6100
 5487              	.LASF110:
 5488 0cb0 6F6C645F 		.ascii	"old_steps\000"
 5488      73746570 
 5488      7300
 5489              	.LASF186:
 5490 0cba 696E765F 		.ascii	"inv_mems_dmp_get_calibrated_gyro\000"
 5490      6D656D73 
 5490      5F646D70 
 5490      5F676574 
 5490      5F63616C 
 5491              	.LASF152:
 5492 0cdb 615F6176 		.ascii	"a_average\000"
 5492      65726167 
 5492      6500
 5493              	.LASF20:
 5494 0ce5 73697A65 		.ascii	"sizetype\000"
 5494      74797065 
 5494      00
 5495              	.LASF8:
 5496 0cee 6C6F6E67 		.ascii	"long unsigned int\000"
 5496      20756E73 
 5496      69676E65 
 5496      6420696E 
 5496      7400
 5497              	.LASF107:
 5498 0d00 7261775F 		.ascii	"raw_data\000"
 5498      64617461 
 5498      00
 5499              	.LASF194:
 5500 0d09 646D705F 		.ascii	"dmp_get_raw_compass\000"
 5500      6765745F 
ARM GAS  C:\Users\ADMINI~1\AppData\Local\Temp\ccPHzW0f.s 			page 132


 5500      7261775F 
 5500      636F6D70 
 5500      61737300 
 5501              	.LASF183:
 5502 0d1d 696E765F 		.ascii	"inv_get_gyro_fullscale\000"
 5502      6765745F 
 5502      6779726F 
 5502      5F66756C 
 5502      6C736361 
 5503              	.LASF192:
 5504 0d34 696E765F 		.ascii	"inv_mems_fifo_swmirror\000"
 5504      6D656D73 
 5504      5F666966 
 5504      6F5F7377 
 5504      6D697272 
 5505              	.LASF76:
 5506 0d4b 53455455 		.ascii	"SETUP\000"
 5506      5000
 5507              	.LASF207:
 5508 0d51 494E564E 		.ascii	"INVN_INT_InterruptHandler\000"
 5508      5F494E54 
 5508      5F496E74 
 5508      65727275 
 5508      70744861 
 5509              	.LASF160:
 5510 0d6b 494E564E 		.ascii	"INVN_INT_ClearInterrupt\000"
 5510      5F494E54 
 5510      5F436C65 
 5510      6172496E 
 5510      74657272 
 5511              	.LASF2:
 5512 0d83 756E7369 		.ascii	"unsigned char\000"
 5512      676E6564 
 5512      20636861 
 5512      7200
 5513              	.LASF173:
 5514 0d91 646D705F 		.ascii	"dmp_get_9quaternion\000"
 5514      6765745F 
 5514      39717561 
 5514      7465726E 
 5514      696F6E00 
 5515              	.LASF193:
 5516 0da5 696E765F 		.ascii	"inv_mems_fifo_pop\000"
 5516      6D656D73 
 5516      5F666966 
 5516      6F5F706F 
 5516      7000
 5517              	.LASF25:
 5518 0db7 53455249 		.ascii	"SERIAL_INTERFACE_INVALID\000"
 5518      414C5F49 
 5518      4E544552 
 5518      46414345 
 5518      5F494E56 
 5519              	.LASF69:
 5520 0dd0 414E4452 		.ascii	"ANDROID_SENSOR_WAKEUP_TILT_DETECTOR\000"
 5520      4F49445F 
 5520      53454E53 
ARM GAS  C:\Users\ADMINI~1\AppData\Local\Temp\ccPHzW0f.s 			page 133


 5520      4F525F57 
 5520      414B4555 
 5521              	.LASF191:
 5522 0df4 4261636B 		.ascii	"BackBone_SetStepCount\000"
 5522      426F6E65 
 5522      5F536574 
 5522      53746570 
 5522      436F756E 
 5523              	.LASF46:
 5524 0e0a 414E4452 		.ascii	"ANDROID_SENSOR_STEP_DETECTOR\000"
 5524      4F49445F 
 5524      53454E53 
 5524      4F525F53 
 5524      5445505F 
 5525              	.LASF205:
 5526 0e27 433A5C44 		.ascii	"C:\\Dropbox\\Projects\\George Posture Correction Pr"
 5526      726F7062 
 5526      6F785C50 
 5526      726F6A65 
 5526      6374735C 
 5527 0e57 6F6A6563 		.ascii	"oject\\BackBone\\BackBone_Bootloadable.cydsn\000"
 5527      745C4261 
 5527      636B426F 
 5527      6E655C42 
 5527      61636B42 
 5528              	.LASF145:
 5529 0e82 63756265 		.ascii	"cube_gmrv\000"
 5529      5F676D72 
 5529      7600
 5530              	.LASF180:
 5531 0e8c 696E765F 		.ascii	"inv_convert_dmp3_to_body\000"
 5531      636F6E76 
 5531      6572745F 
 5531      646D7033 
 5531      5F746F5F 
 5532              	.LASF177:
 5533 0ea5 646D705F 		.ascii	"dmp_get_accel\000"
 5533      6765745F 
 5533      61636365 
 5533      6C00
 5534              	.LASF136:
 5535 0eb3 63756265 		.ascii	"cube_rv\000"
 5535      5F727600 
 5536              	.LASF41:
 5537 0ebb 414E4452 		.ascii	"ANDROID_SENSOR_AMBIENT_TEMPERATURE\000"
 5537      4F49445F 
 5537      53454E53 
 5537      4F525F41 
 5537      4D424945 
 5538              	.LASF151:
 5539 0ede 72657375 		.ascii	"result_quat\000"
 5539      6C745F71 
 5539      75617400 
 5540              	.LASF1:
 5541 0eea 7369676E 		.ascii	"signed char\000"
 5541      65642063 
 5541      68617200 
ARM GAS  C:\Users\ADMINI~1\AppData\Local\Temp\ccPHzW0f.s 			page 134


 5542              	.LASF123:
 5543 0ef6 636F6D70 		.ascii	"compass_data_was_set\000"
 5543      6173735F 
 5543      64617461 
 5543      5F776173 
 5543      5F736574 
 5544              	.LASF6:
 5545 0f0b 73686F72 		.ascii	"short unsigned int\000"
 5545      7420756E 
 5545      7369676E 
 5545      65642069 
 5545      6E7400
 5546              	.LASF144:
 5547 0f1e 676D7276 		.ascii	"gmrv_float\000"
 5547      5F666C6F 
 5547      617400
 5548              	.LASF50:
 5549 0f29 414E4452 		.ascii	"ANDROID_SENSOR_PROXIMITY\000"
 5549      4F49445F 
 5549      53454E53 
 5549      4F525F50 
 5549      524F5849 
 5550              	.LASF147:
 5551 0f42 6779726F 		.ascii	"gyro_accuracy\000"
 5551      5F616363 
 5551      75726163 
 5551      7900
 5552              	.LASF170:
 5553 0f50 696E765F 		.ascii	"inv_initialize_lower_driver\000"
 5553      696E6974 
 5553      69616C69 
 5553      7A655F6C 
 5553      6F776572 
 5554              	.LASF112:
 5555 0f6c 434F4D50 		.ascii	"COMPASS_SLAVE_ID\000"
 5555      4153535F 
 5555      534C4156 
 5555      455F4944 
 5555      00
 5556              	.LASF14:
 5557 0f7d 75696E74 		.ascii	"uint8\000"
 5557      3800
 5558              	.LASF17:
 5559 0f83 646F7562 		.ascii	"double\000"
 5559      6C6500
 5560              	.LASF95:
 5561 0f8a 70726F63 		.ascii	"process_sensor_output\000"
 5561      6573735F 
 5561      73656E73 
 5561      6F725F6F 
 5561      75747075 
 5562              	.LASF100:
 5563 0fa0 64617461 		.ascii	"data_left_in_fifo\000"
 5563      5F6C6566 
 5563      745F696E 
 5563      5F666966 
 5563      6F00
ARM GAS  C:\Users\ADMINI~1\AppData\Local\Temp\ccPHzW0f.s 			page 135


 5564              	.LASF119:
 5565 0fb2 646D705F 		.ascii	"dmp_bias\000"
 5565      62696173 
 5565      00
 5566              	.LASF124:
 5567 0fbb 7261775F 		.ascii	"raw_compass_data_was_set\000"
 5567      636F6D70 
 5567      6173735F 
 5567      64617461 
 5567      5F776173 
 5568              	.LASF26:
 5569 0fd4 4D454D53 		.ascii	"MEMS_SERIAL_INTERFACE\000"
 5569      5F534552 
 5569      49414C5F 
 5569      494E5445 
 5569      52464143 
 5570              	.LASF201:
 5571 0fea 646D705F 		.ascii	"dmp_get_flip_pickup_state\000"
 5571      6765745F 
 5571      666C6970 
 5571      5F706963 
 5571      6B75705F 
 5572              	.LASF39:
 5573 1004 414E4452 		.ascii	"ANDROID_SENSOR_ROTATION_VECTOR\000"
 5573      4F49445F 
 5573      53454E53 
 5573      4F525F52 
 5573      4F544154 
 5574              	.LASF38:
 5575 1023 414E4452 		.ascii	"ANDROID_SENSOR_LINEAR_ACCELERATION\000"
 5575      4F49445F 
 5575      53454E53 
 5575      4F525F4C 
 5575      494E4541 
 5576              	.LASF32:
 5577 1046 414E4452 		.ascii	"ANDROID_SENSOR_GYROSCOPE\000"
 5577      4F49445F 
 5577      53454E53 
 5577      4F525F47 
 5577      59524F53 
 5578              	.LASF75:
 5579 105f 53454C46 		.ascii	"SELF_TEST\000"
 5579      5F544553 
 5579      5400
 5580              	.LASF190:
 5581 1069 646D705F 		.ascii	"dmp_get_pedometer_num_of_steps\000"
 5581      6765745F 
 5581      7065646F 
 5581      6D657465 
 5581      725F6E75 
 5582              	.LASF52:
 5583 1088 414E4452 		.ascii	"ANDROID_SENSOR_WAKEUP_MAGNETIC_FIELD\000"
 5583      4F49445F 
 5583      53454E53 
 5583      4F525F57 
 5583      414B4555 
 5584              	.LASF185:
ARM GAS  C:\Users\ADMINI~1\AppData\Local\Temp\ccPHzW0f.s 			page 136


 5585 10ad 646D705F 		.ascii	"dmp_get_gyro_bias\000"
 5585      6765745F 
 5585      6779726F 
 5585      5F626961 
 5585      7300
 5586              		.ident	"GCC: (GNU Tools for ARM Embedded Processors) 4.9.3 20150303 (release) [ARM/embedded-4_9-br
