ARM GAS  C:\Users\ADMINI~1\AppData\Local\Temp\cc0mTFUy.s 			page 1


   1              		.cpu cortex-m0
   2              		.fpu softvfp
   3              		.eabi_attribute 20, 1
   4              		.eabi_attribute 21, 1
   5              		.eabi_attribute 23, 3
   6              		.eabi_attribute 24, 1
   7              		.eabi_attribute 25, 1
   8              		.eabi_attribute 26, 1
   9              		.eabi_attribute 30, 4
  10              		.eabi_attribute 34, 0
  11              		.eabi_attribute 18, 4
  12              		.code	16
  13              		.file	"inv.c"
  14              		.text
  15              	.Ltext0:
  16              		.cfi_sections	.debug_frame
  17              		.section	.text.INVN_INT_InterruptHandler,"ax",%progbits
  18              		.align	1
  19              		.global	INVN_INT_InterruptHandler
  20              		.code	16
  21              		.thumb_func
  22              		.type	INVN_INT_InterruptHandler, %function
  23              	INVN_INT_InterruptHandler:
  24              	.LFB42:
  25              		.file 1 ".\\inv.c"
   1:.\inv.c       **** /* ========================================
   2:.\inv.c       ****  *
   3:.\inv.c       ****  * Copyright YOUR COMPANY, THE YEAR
   4:.\inv.c       ****  * All Rights Reserved
   5:.\inv.c       ****  * UNPUBLISHED, LICENSED SOFTWARE.
   6:.\inv.c       ****  *
   7:.\inv.c       ****  * CONFIDENTIAL AND PROPRIETARY INFORMATION
   8:.\inv.c       ****  * WHICH IS THE PROPERTY OF your company.
   9:.\inv.c       ****  *
  10:.\inv.c       ****  * ========================================
  11:.\inv.c       **** */
  12:.\inv.c       **** #include <project.h>
  13:.\inv.c       **** #include <inv.h>
  14:.\inv.c       **** #include ".\20648_driver\invn\inv_mems.h"
  15:.\inv.c       **** #include <BackBone.h>
  16:.\inv.c       **** 
  17:.\inv.c       **** static uint16 inv_flags = 0;
  18:.\inv.c       **** 
  19:.\inv.c       **** struct hal_s_ hal = { 0 };
  20:.\inv.c       **** 
  21:.\inv.c       **** int self_test_result = 0;
  22:.\inv.c       **** int dmp_bias[9] = { 0 };
  23:.\inv.c       **** 
  24:.\inv.c       **** unsigned short accel_data_was_set = 0;
  25:.\inv.c       **** unsigned short gyro_data_was_set = 0;
  26:.\inv.c       **** unsigned short raw_gyro_data_was_set = 0;
  27:.\inv.c       **** unsigned short compass_data_was_set = 0;
  28:.\inv.c       **** unsigned short raw_compass_data_was_set = 0;
  29:.\inv.c       **** unsigned short quat6_data_was_set = 0;
  30:.\inv.c       **** unsigned short quat9_data_was_set = 0;
  31:.\inv.c       **** unsigned short rv_quat_was_set = 0;
  32:.\inv.c       **** unsigned short gmrv_quat_was_set = 0;
ARM GAS  C:\Users\ADMINI~1\AppData\Local\Temp\cc0mTFUy.s 			page 2


  33:.\inv.c       **** unsigned short bac_data_was_set = 0;
  34:.\inv.c       **** unsigned short flip_data_was_set = 0;
  35:.\inv.c       **** unsigned short tilt_data_was_set = 0;
  36:.\inv.c       **** 
  37:.\inv.c       **** 
  38:.\inv.c       **** float grv_float[4];
  39:.\inv.c       **** signed long cube_grv[4] = { 0, 0, 0, 0 };
  40:.\inv.c       **** float accel_float[3];
  41:.\inv.c       **** float rv_float[4];
  42:.\inv.c       **** signed long cube_rv[4] = { 0, 0, 0, 0 };
  43:.\inv.c       **** float gyro_float[3];
  44:.\inv.c       **** float gyro_raw_float[3];
  45:.\inv.c       **** float gyro_bias_float[3];
  46:.\inv.c       **** long previous_bias[3];
  47:.\inv.c       **** float compass_float[3];
  48:.\inv.c       **** float compass_raw_float[3];
  49:.\inv.c       **** float compass_bias[3];
  50:.\inv.c       **** float gmrv_float[4];
  51:.\inv.c       **** signed long cube_gmrv[4] = { 0, 0, 0, 0 };
  52:.\inv.c       **** int accel_accuracy = 0;
  53:.\inv.c       **** int gyro_accuracy = 0;
  54:.\inv.c       **** int rv_accuracy = 0;
  55:.\inv.c       **** int compass_accuracy = 0;
  56:.\inv.c       **** int gmrv_accuracy = 0;
  57:.\inv.c       **** long long ts = 0;
  58:.\inv.c       **** signed long result_quat[4] = { 0, 0, 0, 0 };
  59:.\inv.c       **** int a_average[3] = { 0, 0, 0 };
  60:.\inv.c       **** int g_average[3] = { 0, 0, 0 };
  61:.\inv.c       **** unsigned long steps = 0;
  62:.\inv.c       **** uint16_t bac_state = 0;
  63:.\inv.c       **** uint8_t tilt_state = 0;
  64:.\inv.c       **** long bac_ts = 0;
  65:.\inv.c       **** uint16_t flip_pickup = 0;
  66:.\inv.c       **** uint8_t step_detected = 0;
  67:.\inv.c       **** float current_output_rate = 5;
  68:.\inv.c       **** 
  69:.\inv.c       **** signed char ACCEL_GYRO_ORIENTATION[] = {0,-1,0,1,0,0,0,0,1};
  70:.\inv.c       **** 
  71:.\inv.c       **** /* Change the COMPASS_SLAVE_ID to the correct ID of compass used. You can find the defines in inv_m
  72:.\inv.c       **** const unsigned char COMPASS_SLAVE_ID = HW_AK09912; 
  73:.\inv.c       **** 
  74:.\inv.c       **** /* Change COMPASS_CHIP_ADDR to 0x0C for ICM20698 which uses internal AKM 9916 */
  75:.\inv.c       **** /* Change COMPASS_CHIP_ADDR to 0x0E for other AKM 9912/9911/9913/8963*/
  76:.\inv.c       **** const unsigned char COMPASS_CHIP_ADDR = 0x0E;
  77:.\inv.c       **** const unsigned char PRESSURE_CHIP_ADDR = 0x00;
  78:.\inv.c       **** 
  79:.\inv.c       **** signed char COMPASS_ORIENTATION[] = {0,-1,0,1,0,0,0,0,1};
  80:.\inv.c       **** 
  81:.\inv.c       **** long SOFT_IRON_MATRIX[] = {1073741824,0,0,0,1073741824,0,0,0,1073741824};
  82:.\inv.c       **** 
  83:.\inv.c       **** char tst[INV_TST_LEN] = { 0 };
  84:.\inv.c       **** 
  85:.\inv.c       **** /* Every time new gyro data is available, this function is called in an
  86:.\inv.c       **** * ISR context. In this example, it sets a flag protecting the FIFO read
  87:.\inv.c       **** * function.
  88:.\inv.c       **** */
  89:.\inv.c       **** void gyro_data_ready_cb(void)
ARM GAS  C:\Users\ADMINI~1\AppData\Local\Temp\cc0mTFUy.s 			page 3


  90:.\inv.c       **** {
  91:.\inv.c       **** 	hal.new_gyro = 1;
  92:.\inv.c       **** }
  93:.\inv.c       **** 
  94:.\inv.c       **** CY_ISR(INVN_INT_InterruptHandler)
  95:.\inv.c       **** {
  26              		.loc 1 95 0
  27              		.cfi_startproc
  28              	.LBB4:
  29              	.LBB5:
  91:.\inv.c       **** }
  30              		.loc 1 91 0
  31 0000 0122     		mov	r2, #1
  32              	.LBE5:
  33              	.LBE4:
  34              		.loc 1 95 0
  35 0002 08B5     		push	{r3, lr}
  36              		.cfi_def_cfa_offset 8
  37              		.cfi_offset 3, -8
  38              		.cfi_offset 14, -4
  39              	.LBB8:
  40              	.LBB6:
  91:.\inv.c       **** }
  41              		.loc 1 91 0
  42 0004 024B     		ldr	r3, .L2
  43              	.LBE6:
  44              	.LBE8:
  96:.\inv.c       **** 	gyro_data_ready_cb();
  97:.\inv.c       **** 	INVN_INT_ClearInterrupt();
  98:.\inv.c       **** }
  45              		.loc 1 98 0
  46              		@ sp needed
  47              	.LBB9:
  48              	.LBB7:
  91:.\inv.c       **** }
  49              		.loc 1 91 0
  50 0006 1A73     		strb	r2, [r3, #12]
  51              	.LBE7:
  52              	.LBE9:
  97:.\inv.c       **** }
  53              		.loc 1 97 0
  54 0008 FFF7FEFF 		bl	INVN_INT_ClearInterrupt
  55              	.LVL0:
  56              		.loc 1 98 0
  57 000c 08BD     		pop	{r3, pc}
  58              	.L3:
  59 000e C046     		.align	2
  60              	.L2:
  61 0010 00000000 		.word	.LANCHOR0
  62              		.cfi_endproc
  63              	.LFE42:
  64              		.size	INVN_INT_InterruptHandler, .-INVN_INT_InterruptHandler
  65              		.section	.text.gyro_data_ready_cb,"ax",%progbits
  66              		.align	1
  67              		.global	gyro_data_ready_cb
  68              		.code	16
  69              		.thumb_func
ARM GAS  C:\Users\ADMINI~1\AppData\Local\Temp\cc0mTFUy.s 			page 4


  70              		.type	gyro_data_ready_cb, %function
  71              	gyro_data_ready_cb:
  72              	.LFB41:
  90:.\inv.c       **** 	hal.new_gyro = 1;
  73              		.loc 1 90 0
  74              		.cfi_startproc
  91:.\inv.c       **** }
  75              		.loc 1 91 0
  76 0000 0122     		mov	r2, #1
  77 0002 014B     		ldr	r3, .L5
  92:.\inv.c       **** 
  78              		.loc 1 92 0
  79              		@ sp needed
  91:.\inv.c       **** }
  80              		.loc 1 91 0
  81 0004 1A73     		strb	r2, [r3, #12]
  92:.\inv.c       **** 
  82              		.loc 1 92 0
  83 0006 7047     		bx	lr
  84              	.L6:
  85              		.align	2
  86              	.L5:
  87 0008 00000000 		.word	.LANCHOR0
  88              		.cfi_endproc
  89              	.LFE41:
  90              		.size	gyro_data_ready_cb, .-gyro_data_ready_cb
  91              		.section	.text.inv_get_status,"ax",%progbits
  92              		.align	1
  93              		.global	inv_get_status
  94              		.code	16
  95              		.thumb_func
  96              		.type	inv_get_status, %function
  97              	inv_get_status:
  98              	.LFB44:
  99:.\inv.c       **** 
 100:.\inv.c       **** inv_error_t inv_start(void)
 101:.\inv.c       **** {
 102:.\inv.c       ****     inv_error_t result;
 103:.\inv.c       **** 
 104:.\inv.c       **** 	/* Start I2C Master */
 105:.\inv.c       **** 	I2C_Start();
 106:.\inv.c       **** 	
 107:.\inv.c       **** 	/* Initialize the 60248 device */
 108:.\inv.c       **** 	// inv_set_chip_to_body_axis_quaternion(ACCEL_GYRO_ORIENTATION, 0.0);
 109:.\inv.c       **** 	result = inv_initialize_lower_driver(SERIAL_INTERFACE_I2C, 0);
 110:.\inv.c       **** 	if(result == 0)
 111:.\inv.c       **** 	{
 112:.\inv.c       **** 		inv_flags &= ~INV_ERROR_INIT;
 113:.\inv.c       **** 	}
 114:.\inv.c       **** 	else
 115:.\inv.c       **** 	{
 116:.\inv.c       **** 		inv_flags |= INV_ERROR_INIT;
 117:.\inv.c       **** 	}
 118:.\inv.c       **** 	
 119:.\inv.c       **** 	
 120:.\inv.c       **** 	/* Perform 60248 self test and update bias values */
 121:.\inv.c       **** 	result = inv_perform_selftest();
ARM GAS  C:\Users\ADMINI~1\AppData\Local\Temp\cc0mTFUy.s 			page 5


 122:.\inv.c       **** 	if(result == 0)
 123:.\inv.c       **** 	{
 124:.\inv.c       **** 		inv_flags &= ~INV_ERROR_SELF_TEST;
 125:.\inv.c       **** 	}
 126:.\inv.c       **** 	else
 127:.\inv.c       **** 	{
 128:.\inv.c       **** 		inv_flags |= INV_ERROR_SELF_TEST;
 129:.\inv.c       **** 	}
 130:.\inv.c       **** 
 131:.\inv.c       **** 	/* Enable accelerometer */
 132:.\inv.c       **** 	dmp_reset_fifo();
 133:.\inv.c       **** 	hal.report |= PRINT_ACCEL;
 134:.\inv.c       ****     inv_enable_sensor(ANDROID_SENSOR_ACCELEROMETER, !!(hal.report & PRINT_ACCEL));
 135:.\inv.c       ****     dmp_reset_odr_counters();
 136:.\inv.c       **** 	
 137:.\inv.c       **** 	/* Enable Gyroscope */
 138:.\inv.c       **** 	dmp_reset_fifo();
 139:.\inv.c       **** 	hal.report |= PRINT_GYRO;
 140:.\inv.c       ****     inv_enable_sensor(ANDROID_SENSOR_GYROSCOPE, !!(hal.report & PRINT_GYRO));
 141:.\inv.c       ****     dmp_reset_odr_counters();
 142:.\inv.c       **** 
 143:.\inv.c       **** 	/* Enable Step Detector */
 144:.\inv.c       **** //	dmp_reset_fifo();
 145:.\inv.c       **** //	hal.report |= PRINT_STEP_DETECTOR;
 146:.\inv.c       **** //    inv_enable_sensor(ANDROID_SENSOR_STEP_COUNTER, !!(hal.report & PRINT_STEP_DETECTOR));
 147:.\inv.c       **** //    dmp_reset_odr_counters();
 148:.\inv.c       **** 
 149:.\inv.c       **** 	/* Enable Step Counter */
 150:.\inv.c       **** 	dmp_reset_fifo();
 151:.\inv.c       **** 	hal.report |= PRINT_STEP_COUNTER;
 152:.\inv.c       ****     inv_enable_sensor(ANDROID_SENSOR_STEP_COUNTER, !!(hal.report & PRINT_STEP_COUNTER));
 153:.\inv.c       ****     dmp_reset_odr_counters();
 154:.\inv.c       **** 
 155:.\inv.c       **** //	dmp_reset_fifo();
 156:.\inv.c       **** //	hal.report |= PRINT_TILT;
 157:.\inv.c       **** //	inv_enable_sensor(ANDROID_SENSOR_WAKEUP_TILT_DETECTOR, !!(hal.report & PRINT_TILT));
 158:.\inv.c       **** //	dmp_reset_odr_counters();
 159:.\inv.c       **** 
 160:.\inv.c       **** 	/* Set output rate */
 161:.\inv.c       **** 	set_output_rates(5);
 162:.\inv.c       **** 	if(hal.report & PRINT_STEP_COUNTER) 
 163:.\inv.c       **** 	{
 164:.\inv.c       **** 		set_output_rates(112.5);
 165:.\inv.c       **** 	}
 166:.\inv.c       **** 	
 167:.\inv.c       **** 	/* Set up the INT1 pin ISR */ 
 168:.\inv.c       **** 	isr_INVN_INT_StartEx(INVN_INT_InterruptHandler);
 169:.\inv.c       **** 	
 170:.\inv.c       **** 	return result;
 171:.\inv.c       **** }
 172:.\inv.c       **** 
 173:.\inv.c       **** uint16 inv_get_status(void)
 174:.\inv.c       **** {
  99              		.loc 1 174 0
 100              		.cfi_startproc
 175:.\inv.c       **** 	return inv_flags;
 101              		.loc 1 175 0
ARM GAS  C:\Users\ADMINI~1\AppData\Local\Temp\cc0mTFUy.s 			page 6


 102 0000 014B     		ldr	r3, .L8
 176:.\inv.c       **** }
 103              		.loc 1 176 0
 104              		@ sp needed
 175:.\inv.c       **** 	return inv_flags;
 105              		.loc 1 175 0
 106 0002 188A     		ldrh	r0, [r3, #16]
 107              		.loc 1 176 0
 108 0004 7047     		bx	lr
 109              	.L9:
 110 0006 C046     		.align	2
 111              	.L8:
 112 0008 00000000 		.word	.LANCHOR0
 113              		.cfi_endproc
 114              	.LFE44:
 115              		.size	inv_get_status, .-inv_get_status
 116              		.global	__aeabi_fdiv
 117              		.global	__aeabi_f2uiz
 118              		.section	.text.set_output_rates,"ax",%progbits
 119              		.align	1
 120              		.global	set_output_rates
 121              		.code	16
 122              		.thumb_func
 123              		.type	set_output_rates, %function
 124              	set_output_rates:
 125              	.LFB45:
 177:.\inv.c       **** 
 178:.\inv.c       **** inv_error_t set_output_rates(float rate)
 179:.\inv.c       **** {
 126              		.loc 1 179 0
 127              		.cfi_startproc
 128              	.LVL1:
 129 0000 F8B5     		push	{r3, r4, r5, r6, r7, lr}
 130              		.cfi_def_cfa_offset 24
 131              		.cfi_offset 3, -24
 132              		.cfi_offset 4, -20
 133              		.cfi_offset 5, -16
 134              		.cfi_offset 6, -12
 135              		.cfi_offset 7, -8
 136              		.cfi_offset 14, -4
 180:.\inv.c       **** 	unsigned short base_rate = 1125; 
 181:.\inv.c       **** 	inv_error_t result=0;
 182:.\inv.c       **** 	
 183:.\inv.c       **** 	dmp_reset_fifo();
 184:.\inv.c       **** 	
 185:.\inv.c       **** 	if (hal.report & PRINT_ACCEL)
 137              		.loc 1 185 0
 138 0002 0127     		mov	r7, #1
 179:.\inv.c       **** 	unsigned short base_rate = 1125; 
 139              		.loc 1 179 0
 140 0004 061C     		add	r6, r0, #0
 183:.\inv.c       **** 	
 141              		.loc 1 183 0
 142 0006 FFF7FEFF 		bl	dmp_reset_fifo
 143              	.LVL2:
 144              		.loc 1 185 0
 145 000a 2E4D     		ldr	r5, .L35
ARM GAS  C:\Users\ADMINI~1\AppData\Local\Temp\cc0mTFUy.s 			page 7


 181:.\inv.c       **** 	
 146              		.loc 1 181 0
 147 000c 0024     		mov	r4, #0
 148              		.loc 1 185 0
 149 000e 2B68     		ldr	r3, [r5]
 150 0010 3B42     		tst	r3, r7
 151 0012 0AD0     		beq	.L11
 186:.\inv.c       **** 	{
 187:.\inv.c       **** 		result |= inv_set_odr(ANDROID_SENSOR_ACCELEROMETER, (unsigned short)(base_rate / rate));
 152              		.loc 1 187 0
 153 0014 311C     		add	r1, r6, #0
 154 0016 2C48     		ldr	r0, .L35+4
 155 0018 FFF7FEFF 		bl	__aeabi_fdiv
 156              	.LVL3:
 157 001c FFF7FEFF 		bl	__aeabi_f2uiz
 158              	.LVL4:
 159 0020 81B2     		uxth	r1, r0
 160 0022 381C     		mov	r0, r7
 161 0024 FFF7FEFF 		bl	inv_set_odr
 162              	.LVL5:
 163 0028 041C     		mov	r4, r0
 164              	.LVL6:
 165              	.L11:
 188:.\inv.c       **** 	}
 189:.\inv.c       **** 	
 190:.\inv.c       **** 	if (hal.report & PRINT_GYRO)
 166              		.loc 1 190 0
 167 002a 2B68     		ldr	r3, [r5]
 168 002c 9B07     		lsl	r3, r3, #30
 169 002e 0AD5     		bpl	.L12
 191:.\inv.c       **** 	{
 192:.\inv.c       **** 		result |= inv_set_odr(ANDROID_SENSOR_GYROSCOPE, (unsigned short)(base_rate / rate));
 170              		.loc 1 192 0
 171 0030 311C     		add	r1, r6, #0
 172 0032 2548     		ldr	r0, .L35+4
 173 0034 FFF7FEFF 		bl	__aeabi_fdiv
 174              	.LVL7:
 175 0038 FFF7FEFF 		bl	__aeabi_f2uiz
 176              	.LVL8:
 177 003c 81B2     		uxth	r1, r0
 178 003e 0420     		mov	r0, #4
 179 0040 FFF7FEFF 		bl	inv_set_odr
 180              	.LVL9:
 181 0044 0443     		orr	r4, r0
 182              	.LVL10:
 183              	.L12:
 193:.\inv.c       **** 	}
 194:.\inv.c       **** 	
 195:.\inv.c       **** 	if (hal.report & PRINT_RAW_GYRO)
 184              		.loc 1 195 0
 185 0046 2B68     		ldr	r3, [r5]
 186 0048 5B07     		lsl	r3, r3, #29
 187 004a 0AD5     		bpl	.L13
 196:.\inv.c       **** 	{
 197:.\inv.c       **** 		result |= inv_set_odr(ANDROID_SENSOR_GYROSCOPE_UNCALIBRATED, (unsigned short)(base_rate / rate));
 188              		.loc 1 197 0
 189 004c 311C     		add	r1, r6, #0
ARM GAS  C:\Users\ADMINI~1\AppData\Local\Temp\cc0mTFUy.s 			page 8


 190 004e 1E48     		ldr	r0, .L35+4
 191 0050 FFF7FEFF 		bl	__aeabi_fdiv
 192              	.LVL11:
 193 0054 FFF7FEFF 		bl	__aeabi_f2uiz
 194              	.LVL12:
 195 0058 81B2     		uxth	r1, r0
 196 005a 1020     		mov	r0, #16
 197 005c FFF7FEFF 		bl	inv_set_odr
 198              	.LVL13:
 199 0060 0443     		orr	r4, r0
 200              	.LVL14:
 201              	.L13:
 198:.\inv.c       **** 	}
 199:.\inv.c       **** 	
 200:.\inv.c       **** //	if (hal.report & PRINT_GRV)
 201:.\inv.c       **** //	{
 202:.\inv.c       **** //		result |= inv_set_odr(ANDROID_SENSOR_GAME_ROTATION_VECTOR, (unsigned short)(base_rate / rate));
 203:.\inv.c       **** //	}
 204:.\inv.c       **** //	
 205:.\inv.c       **** //	if (hal.report & PRINT_CUBE_GRV)
 206:.\inv.c       **** //	{
 207:.\inv.c       **** //		result |= inv_set_odr(ANDROID_SENSOR_GAME_ROTATION_VECTOR, (unsigned short)(base_rate / rate));
 208:.\inv.c       **** //	}
 209:.\inv.c       **** //	
 210:.\inv.c       **** 	if (hal.report & PRINT_STEP_DETECTOR)
 202              		.loc 1 210 0
 203 0062 2B68     		ldr	r3, [r5]
 204 0064 1B05     		lsl	r3, r3, #20
 205 0066 0AD5     		bpl	.L14
 211:.\inv.c       **** 	{
 212:.\inv.c       **** 		result |= inv_set_odr(ANDROID_SENSOR_STEP_DETECTOR, (unsigned short)(base_rate / rate));
 206              		.loc 1 212 0
 207 0068 311C     		add	r1, r6, #0
 208 006a 1748     		ldr	r0, .L35+4
 209 006c FFF7FEFF 		bl	__aeabi_fdiv
 210              	.LVL15:
 211 0070 FFF7FEFF 		bl	__aeabi_f2uiz
 212              	.LVL16:
 213 0074 81B2     		uxth	r1, r0
 214 0076 1220     		mov	r0, #18
 215 0078 FFF7FEFF 		bl	inv_set_odr
 216              	.LVL17:
 217 007c 0443     		orr	r4, r0
 218              	.LVL18:
 219              	.L14:
 213:.\inv.c       **** 	}
 214:.\inv.c       **** 	
 215:.\inv.c       **** //	if (hal.report & PRINT_SMD)
 216:.\inv.c       **** //	{
 217:.\inv.c       **** //		result |= inv_set_odr(ANDROID_SENSOR_WAKEUP_SIGNIFICANT_MOTION, (unsigned short)(base_rate / ra
 218:.\inv.c       **** //	}
 219:.\inv.c       **** //	
 220:.\inv.c       **** 	if (hal.report & PRINT_STEP_COUNTER)
 220              		.loc 1 220 0
 221 007e 2B68     		ldr	r3, [r5]
 222 0080 5B05     		lsl	r3, r3, #21
 223 0082 0AD5     		bpl	.L15
ARM GAS  C:\Users\ADMINI~1\AppData\Local\Temp\cc0mTFUy.s 			page 9


 221:.\inv.c       **** 	{
 222:.\inv.c       **** 		result |= inv_set_odr(ANDROID_SENSOR_STEP_COUNTER, (unsigned short)(base_rate / rate));
 224              		.loc 1 222 0
 225 0084 311C     		add	r1, r6, #0
 226 0086 1048     		ldr	r0, .L35+4
 227 0088 FFF7FEFF 		bl	__aeabi_fdiv
 228              	.LVL19:
 229 008c FFF7FEFF 		bl	__aeabi_f2uiz
 230              	.LVL20:
 231 0090 81B2     		uxth	r1, r0
 232 0092 1320     		mov	r0, #19
 233 0094 FFF7FEFF 		bl	inv_set_odr
 234              	.LVL21:
 235 0098 0443     		orr	r4, r0
 236              	.LVL22:
 237              	.L15:
 223:.\inv.c       **** 	}
 224:.\inv.c       **** 	
 225:.\inv.c       **** //	if (hal.report & PRINT_LINEAR_ACCEL)
 226:.\inv.c       **** //	{
 227:.\inv.c       **** //		result |= inv_set_odr(ANDROID_SENSOR_LINEAR_ACCELERATION, (unsigned short)(base_rate / rate));
 228:.\inv.c       **** //	}
 229:.\inv.c       **** //	
 230:.\inv.c       **** //	if (hal.report & PRINT_GRAVITY)
 231:.\inv.c       **** //	{
 232:.\inv.c       **** //		result |= inv_set_odr(ANDROID_SENSOR_GRAVITY, (unsigned short)(base_rate / rate));
 233:.\inv.c       **** //	}
 234:.\inv.c       **** //	
 235:.\inv.c       **** //	if (hal.report & PRINT_COMPASS)
 236:.\inv.c       **** //	{
 237:.\inv.c       **** //		result |= inv_set_odr(ANDROID_SENSOR_GEOMAGNETIC_FIELD, (unsigned short)(base_rate / rate));
 238:.\inv.c       **** //	}
 239:.\inv.c       **** //	
 240:.\inv.c       **** //	if (hal.report & PRINT_RAW_COMPASS)
 241:.\inv.c       **** //	{
 242:.\inv.c       **** //		result |= inv_set_odr(ANDROID_SENSOR_MAGNETIC_FIELD_UNCALIBRATED, (unsigned short)(base_rate / 
 243:.\inv.c       **** //	}
 244:.\inv.c       **** //	
 245:.\inv.c       **** //	if (hal.report & PRINT_RV)
 246:.\inv.c       **** //	{
 247:.\inv.c       **** //		result |= inv_set_odr(ANDROID_SENSOR_ROTATION_VECTOR, (unsigned short)(base_rate / rate));
 248:.\inv.c       **** //	}
 249:.\inv.c       **** //	
 250:.\inv.c       **** //	if (hal.report & PRINT_GEOMAG)
 251:.\inv.c       **** //	{
 252:.\inv.c       **** //		result |= inv_set_odr(ANDROID_SENSOR_GEOMAGNETIC_ROTATION_VECTOR, (unsigned short)(base_rate / 
 253:.\inv.c       **** //	}
 254:.\inv.c       **** //	
 255:.\inv.c       **** //	if (hal.report & PRINT_BAC)
 256:.\inv.c       **** //	{
 257:.\inv.c       **** //		result |= inv_set_odr(ANDROID_SENSOR_ACTIVITY_CLASSIFICATON, (unsigned short)(base_rate / rate)
 258:.\inv.c       **** //	}
 259:.\inv.c       **** //	
 260:.\inv.c       **** 	if (hal.report & PRINT_TILT)
 238              		.loc 1 260 0
 239 009a 2B68     		ldr	r3, [r5]
 240 009c 5B02     		lsl	r3, r3, #9
ARM GAS  C:\Users\ADMINI~1\AppData\Local\Temp\cc0mTFUy.s 			page 10


 241 009e 0AD5     		bpl	.L16
 261:.\inv.c       **** 	{
 262:.\inv.c       **** 		result |= inv_set_odr(ANDROID_SENSOR_WAKEUP_TILT_DETECTOR, (unsigned short)(base_rate / rate));
 242              		.loc 1 262 0
 243 00a0 311C     		add	r1, r6, #0
 244 00a2 0948     		ldr	r0, .L35+4
 245 00a4 FFF7FEFF 		bl	__aeabi_fdiv
 246              	.LVL23:
 247 00a8 FFF7FEFF 		bl	__aeabi_f2uiz
 248              	.LVL24:
 249 00ac 81B2     		uxth	r1, r0
 250 00ae 2920     		mov	r0, #41
 251 00b0 FFF7FEFF 		bl	inv_set_odr
 252              	.LVL25:
 253 00b4 0443     		orr	r4, r0
 254              	.LVL26:
 255              	.L16:
 263:.\inv.c       **** 	}
 264:.\inv.c       **** //	
 265:.\inv.c       **** //	if (hal.report & PRINT_FLIP_PICKUP)
 266:.\inv.c       **** //	{
 267:.\inv.c       **** //		result |= inv_set_odr(ANDROID_SENSOR_FLIP_PICKUP, (unsigned short)(base_rate / rate));
 268:.\inv.c       **** //	}
 269:.\inv.c       **** //	
 270:.\inv.c       **** //	if (hal.report & PRINT_CUBE_RV)
 271:.\inv.c       **** //	{
 272:.\inv.c       **** //		result |= inv_set_odr(ANDROID_SENSOR_ROTATION_VECTOR, (unsigned short)(base_rate / rate));
 273:.\inv.c       **** //	}
 274:.\inv.c       **** //	
 275:.\inv.c       **** //	if (hal.report & PRINT_CUBE_GEOMAG)
 276:.\inv.c       **** //	{
 277:.\inv.c       **** //		result |= inv_set_odr(ANDROID_SENSOR_GEOMAGNETIC_ROTATION_VECTOR, (unsigned short)(base_rate / 
 278:.\inv.c       **** //	}
 279:.\inv.c       **** //	
 280:.\inv.c       **** //	if (hal.report & PRINT_ORIENT)
 281:.\inv.c       **** //	{
 282:.\inv.c       **** //		result |= inv_set_odr(ANDROID_SENSOR_ORIENTATION, (unsigned short)(base_rate / rate));
 283:.\inv.c       **** //	}
 284:.\inv.c       **** 	
 285:.\inv.c       **** 	current_output_rate = rate;
 256              		.loc 1 285 0
 257 00b6 054B     		ldr	r3, .L35+8
 286:.\inv.c       **** 	
 287:.\inv.c       **** 	dmp_reset_odr_counters();
 288:.\inv.c       **** 	
 289:.\inv.c       **** 	return result;
 290:.\inv.c       **** }
 258              		.loc 1 290 0
 259              		@ sp needed
 285:.\inv.c       **** 	
 260              		.loc 1 285 0
 261 00b8 1E60     		str	r6, [r3]
 287:.\inv.c       **** 	
 262              		.loc 1 287 0
 263 00ba FFF7FEFF 		bl	dmp_reset_odr_counters
 264              	.LVL27:
 265              		.loc 1 290 0
ARM GAS  C:\Users\ADMINI~1\AppData\Local\Temp\cc0mTFUy.s 			page 11


 266 00be 201C     		mov	r0, r4
 267              	.LVL28:
 268              	.LVL29:
 269 00c0 F8BD     		pop	{r3, r4, r5, r6, r7, pc}
 270              	.L36:
 271 00c2 C046     		.align	2
 272              	.L35:
 273 00c4 00000000 		.word	.LANCHOR0
 274 00c8 00A08C44 		.word	1150066688
 275 00cc 00000000 		.word	.LANCHOR1
 276              		.cfi_endproc
 277              	.LFE45:
 278              		.size	set_output_rates, .-set_output_rates
 279              		.section	.text.handle_char_input,"ax",%progbits
 280              		.align	1
 281              		.global	handle_char_input
 282              		.code	16
 283              		.thumb_func
 284              		.type	handle_char_input, %function
 285              	handle_char_input:
 286              	.LFB46:
 291:.\inv.c       **** 
 292:.\inv.c       **** int handle_char_input(char c)
 293:.\inv.c       **** {
 287              		.loc 1 293 0
 288              		.cfi_startproc
 289              	.LVL30:
 294:.\inv.c       **** //#if (MEMS_CHIP != HW_ICM20609)
 295:.\inv.c       **** //        inv_error_t result;
 296:.\inv.c       **** //#endif
 297:.\inv.c       **** //
 298:.\inv.c       **** //	switch (c)
 299:.\inv.c       **** //	{
 300:.\inv.c       **** //	case 'a':
 301:.\inv.c       **** //		dmp_reset_fifo();
 302:.\inv.c       **** //		hal.report ^= PRINT_ACCEL;
 303:.\inv.c       **** //                inv_enable_sensor(ANDROID_SENSOR_ACCELEROMETER, !!(hal.report & PRINT_ACCEL));
 304:.\inv.c       **** //                dmp_reset_odr_counters();
 305:.\inv.c       **** //                if(hal.report & PRINT_ACCEL) set_output_rates(current_output_rate);
 306:.\inv.c       **** //		//INV_SPRINTF(tst, INV_TST_LEN, "ACCEL....output toggled, now is: %s.\r\n", (hal.report & PRINT
 307:.\inv.c       **** //		break;
 308:.\inv.c       **** //	case 'g':
 309:.\inv.c       **** //		dmp_reset_fifo();
 310:.\inv.c       **** //		hal.report ^= PRINT_GYRO;
 311:.\inv.c       **** //		inv_enable_sensor(ANDROID_SENSOR_GYROSCOPE, !!(hal.report & PRINT_GYRO));
 312:.\inv.c       **** //                dmp_reset_odr_counters();
 313:.\inv.c       **** //                if(hal.report & PRINT_GYRO) set_output_rates(current_output_rate);
 314:.\inv.c       **** //		//INV_SPRINTF(tst, INV_TST_LEN, "GYRO....output toggled, now is: %s.\r\n", (hal.report & PRINT_
 315:.\inv.c       **** //		break;
 316:.\inv.c       **** //	case 'G':
 317:.\inv.c       **** //		dmp_reset_fifo();
 318:.\inv.c       **** //		hal.report ^= PRINT_RAW_GYRO;
 319:.\inv.c       **** //		inv_enable_sensor(ANDROID_SENSOR_GYROSCOPE_UNCALIBRATED, !!(hal.report & PRINT_RAW_GYRO));
 320:.\inv.c       **** //                dmp_reset_odr_counters();
 321:.\inv.c       **** //                if(hal.report & PRINT_RAW_GYRO) set_output_rates(current_output_rate);
 322:.\inv.c       **** //		//INV_SPRINTF(tst, INV_TST_LEN, "RAW GYRO....output toggled, now is: %s.\r\n", (hal.report & PR
 323:.\inv.c       **** //		break;
ARM GAS  C:\Users\ADMINI~1\AppData\Local\Temp\cc0mTFUy.s 			page 12


 324:.\inv.c       **** //#if (MEMS_CHIP != HW_ICM20609)
 325:.\inv.c       **** //        case 'c':
 326:.\inv.c       **** //		dmp_reset_fifo();
 327:.\inv.c       **** //		hal.report ^= PRINT_COMPASS;
 328:.\inv.c       **** //		inv_enable_sensor(ANDROID_SENSOR_GEOMAGNETIC_FIELD, !!(hal.report & PRINT_COMPASS));
 329:.\inv.c       **** //                dmp_reset_odr_counters();
 330:.\inv.c       **** //                if(hal.report & PRINT_COMPASS) set_output_rates(current_output_rate);
 331:.\inv.c       **** //		if (hal.report & PRINT_COMPASS)
 332:.\inv.c       **** //			result = inv_resume_akm();
 333:.\inv.c       **** //		else
 334:.\inv.c       **** //			result = inv_suspend_akm();
 335:.\inv.c       **** //		//if (result)
 336:.\inv.c       **** //		//	print_data_console("Compass resume/suspend error \n");
 337:.\inv.c       **** //		//INV_SPRINTF(tst, INV_TST_LEN, "Compass....output toggled, now is: %s.\r\n", (hal.report & PRI
 338:.\inv.c       **** //		break;
 339:.\inv.c       **** //	case 'C':
 340:.\inv.c       **** //		dmp_reset_fifo();
 341:.\inv.c       **** //		hal.report ^= PRINT_RAW_COMPASS;
 342:.\inv.c       **** //		inv_enable_sensor(ANDROID_SENSOR_MAGNETIC_FIELD_UNCALIBRATED, !!(hal.report & PRINT_RAW_COMPASS
 343:.\inv.c       **** //                dmp_reset_odr_counters();
 344:.\inv.c       **** //                if(hal.report & PRINT_RAW_COMPASS) set_output_rates(current_output_rate);
 345:.\inv.c       **** //		if (hal.report & PRINT_RAW_COMPASS)
 346:.\inv.c       **** //			result = inv_resume_akm();
 347:.\inv.c       **** //		else
 348:.\inv.c       **** //			result = inv_suspend_akm();
 349:.\inv.c       **** //		//if (result)
 350:.\inv.c       **** //		//	print_data_console("Compass resume/suspend error \n");
 351:.\inv.c       **** //		//INV_SPRINTF(tst, INV_TST_LEN, "Raw Compass....output toggled, now is: %s.\r\n", (hal.report &
 352:.\inv.c       **** //		break;
 353:.\inv.c       **** //#endif
 354:.\inv.c       **** //	case 'r':
 355:.\inv.c       **** //		dmp_reset_fifo();
 356:.\inv.c       **** //		hal.report ^= PRINT_GRV;
 357:.\inv.c       **** //		inv_enable_sensor(ANDROID_SENSOR_GAME_ROTATION_VECTOR, !!(hal.report & PRINT_GRV));
 358:.\inv.c       **** //                dmp_reset_odr_counters();
 359:.\inv.c       **** //                if(hal.report & PRINT_GRV) set_output_rates(current_output_rate);
 360:.\inv.c       **** //		//INV_SPRINTF(tst, INV_TST_LEN, "Game RV....output toggled, now is: %s.\r\n", (hal.report & PRI
 361:.\inv.c       **** //        //        print_command_console(tst);
 362:.\inv.c       **** //                break;
 363:.\inv.c       **** //        case 'q':
 364:.\inv.c       **** //		dmp_reset_fifo();
 365:.\inv.c       **** //		hal.report ^= PRINT_CUBE_GRV;
 366:.\inv.c       **** //		inv_enable_sensor(ANDROID_SENSOR_GAME_ROTATION_VECTOR, !!(hal.report & PRINT_CUBE_GRV));
 367:.\inv.c       **** //                dmp_reset_odr_counters();
 368:.\inv.c       **** //		if(hal.report & PRINT_CUBE_GRV) set_output_rates(current_output_rate);
 369:.\inv.c       **** //		//INV_SPRINTF(tst, INV_TST_LEN, "Cube Game RV....output toggled, now is: %s.\r\n", (hal.report 
 370:.\inv.c       **** //		//print_command_console(tst);
 371:.\inv.c       **** //		break;
 372:.\inv.c       **** //        
 373:.\inv.c       **** //		case 'd':
 374:.\inv.c       **** //		dmp_reset_fifo();
 375:.\inv.c       **** //		hal.report ^= PRINT_STEP_DETECTOR;
 376:.\inv.c       **** //		inv_enable_sensor(ANDROID_SENSOR_STEP_DETECTOR, !!(hal.report & PRINT_STEP_DETECTOR));
 377:.\inv.c       **** //                dmp_reset_odr_counters();
 378:.\inv.c       **** //#if (MEMS_CHIP == HW_ICM20609)
 379:.\inv.c       **** //                if(hal.report & PRINT_STEP_DETECTOR) set_output_rates(50);
 380:.\inv.c       **** //#elif (MEMS_CHIP == HW_ICM20630)
ARM GAS  C:\Users\ADMINI~1\AppData\Local\Temp\cc0mTFUy.s 			page 13


 381:.\inv.c       **** //                if(hal.report & PRINT_STEP_DETECTOR) set_output_rates(51);
 382:.\inv.c       **** //#else                 
 383:.\inv.c       **** //		// pedometer always runs at half the rate of BAC, to run pedometer at 56Hz, run BAC at 112Hz as
 384:.\inv.c       **** //		if(hal.report & PRINT_STEP_DETECTOR) set_output_rates(112.5);
 385:.\inv.c       **** //#endif
 386:.\inv.c       **** //		//INV_SPRINTF(tst, INV_TST_LEN, "Step Detector....output toggled, now is: %s.\r\n", (hal.report
 387:.\inv.c       **** //		//print_command_console(tst);
 388:.\inv.c       **** //		break;
 389:.\inv.c       **** //	case 'm':
 390:.\inv.c       **** //		dmp_reset_fifo();
 391:.\inv.c       **** //		hal.report ^= PRINT_SMD;
 392:.\inv.c       **** //		inv_enable_sensor(ANDROID_SENSOR_WAKEUP_SIGNIFICANT_MOTION, !!(hal.report & PRINT_SMD));
 393:.\inv.c       **** //                dmp_reset_odr_counters();
 394:.\inv.c       **** //#if (MEMS_CHIP == HW_ICM20609)
 395:.\inv.c       **** //                if(hal.report & PRINT_SMD) set_output_rates(50);
 396:.\inv.c       **** //#else               
 397:.\inv.c       **** //		// pedometer always runs at half the rate of BAC, to run pedometer at 56Hz, run BAC at 112Hz as
 398:.\inv.c       **** //		if(hal.report & PRINT_SMD) set_output_rates(112.5);
 399:.\inv.c       **** //#endif
 400:.\inv.c       **** //		//INV_SPRINTF(tst, INV_TST_LEN, "SMD....output toggled, now is: %s.\r\n", (hal.report & PRINT_S
 401:.\inv.c       **** //		//print_command_console(tst);
 402:.\inv.c       **** //		break;
 403:.\inv.c       **** //
 404:.\inv.c       **** //	case 'p':
 405:.\inv.c       **** //		dmp_reset_fifo();
 406:.\inv.c       **** //		hal.report ^= PRINT_STEP_COUNTER;
 407:.\inv.c       **** //		inv_enable_sensor(ANDROID_SENSOR_STEP_COUNTER, !!(hal.report & PRINT_STEP_COUNTER));
 408:.\inv.c       **** //                dmp_reset_odr_counters();
 409:.\inv.c       **** //#if (MEMS_CHIP == HW_ICM20609)
 410:.\inv.c       **** //                if(hal.report & PRINT_STEP_COUNTER) set_output_rates(50);
 411:.\inv.c       **** //#else                 
 412:.\inv.c       **** //		// pedometer always runs at half the rate of BAC, to run pedometer at 56Hz, run BAC at 112Hz as
 413:.\inv.c       **** //		if(hal.report & PRINT_STEP_COUNTER) set_output_rates(112.5);
 414:.\inv.c       **** //#endif
 415:.\inv.c       **** //		//INV_SPRINTF(tst, INV_TST_LEN, "Step Counter....output toggled, now is: %s.\r\n", (hal.report 
 416:.\inv.c       **** //		//print_command_console(tst);
 417:.\inv.c       **** //		break;
 418:.\inv.c       **** //#if (MEMS_CHIP != HW_ICM20609)
 419:.\inv.c       **** //	case 'R':
 420:.\inv.c       **** //		dmp_reset_fifo();
 421:.\inv.c       **** //		hal.report ^= PRINT_RV;
 422:.\inv.c       **** //		inv_enable_sensor(ANDROID_SENSOR_ROTATION_VECTOR, !!(hal.report & PRINT_RV));
 423:.\inv.c       **** //                dmp_reset_odr_counters();
 424:.\inv.c       **** //		if(hal.report & PRINT_RV) set_output_rates(current_output_rate);
 425:.\inv.c       **** //		//INV_SPRINTF(tst, INV_TST_LEN, "RV....output toggled, now is: %s.\r\n", (hal.report & PRINT_RV
 426:.\inv.c       **** //		//print_command_console(tst);
 427:.\inv.c       **** //		break;
 428:.\inv.c       **** //	case 'e':
 429:.\inv.c       **** //		dmp_reset_fifo();
 430:.\inv.c       **** //		hal.report ^= PRINT_GEOMAG;
 431:.\inv.c       **** //		inv_enable_sensor(ANDROID_SENSOR_GEOMAGNETIC_ROTATION_VECTOR, !!(hal.report & PRINT_GEOMAG));
 432:.\inv.c       **** //                dmp_reset_odr_counters();
 433:.\inv.c       **** //		if(hal.report & PRINT_GEOMAG) set_output_rates(current_output_rate);
 434:.\inv.c       **** //		//INV_SPRINTF(tst, INV_TST_LEN, "GeoMAG RV....output toggled, now is: %s.\r\n", (hal.report & P
 435:.\inv.c       **** //		//print_command_console(tst);
 436:.\inv.c       **** //		break;
 437:.\inv.c       **** //#if (MEMS_CHIP != HW_ICM20630)
ARM GAS  C:\Users\ADMINI~1\AppData\Local\Temp\cc0mTFUy.s 			page 14


 438:.\inv.c       **** //	case 'b':
 439:.\inv.c       **** //		dmp_reset_fifo();
 440:.\inv.c       **** //                if(!(hal.report & PRINT_BAC))
 441:.\inv.c       **** //                    dmp_reset_bac_states();
 442:.\inv.c       **** //		hal.report ^= PRINT_BAC;
 443:.\inv.c       **** //		inv_enable_sensor(ANDROID_SENSOR_ACTIVITY_CLASSIFICATON, !!(hal.report & PRINT_BAC));
 444:.\inv.c       **** //                dmp_reset_odr_counters();
 445:.\inv.c       **** //		if(hal.report & PRINT_BAC) set_output_rates(112.5);
 446:.\inv.c       **** //		//INV_SPRINTF(tst, INV_TST_LEN, "BAC....output toggled, now is: %s.\r\n", (hal.report & PRINT_B
 447:.\inv.c       **** //		break;
 448:.\inv.c       **** //	case 'T':
 449:.\inv.c       **** //		dmp_reset_fifo();
 450:.\inv.c       **** //		hal.report ^= PRINT_TILT;
 451:.\inv.c       **** //		inv_enable_sensor(ANDROID_SENSOR_WAKEUP_TILT_DETECTOR, !!(hal.report & PRINT_TILT));
 452:.\inv.c       **** //                dmp_reset_odr_counters();
 453:.\inv.c       **** //		if(hal.report & PRINT_TILT) set_output_rates(112.5);
 454:.\inv.c       **** //		//INV_SPRINTF(tst, INV_TST_LEN, "Tilt....output toggled, now is: %s.\r\n", (hal.report & PRINT_
 455:.\inv.c       **** //		break;
 456:.\inv.c       **** //	case 'F':
 457:.\inv.c       **** //		dmp_reset_fifo();
 458:.\inv.c       **** //		hal.report ^= PRINT_FLIP_PICKUP;
 459:.\inv.c       **** //		inv_enable_sensor(ANDROID_SENSOR_FLIP_PICKUP, !!(hal.report & PRINT_FLIP_PICKUP));
 460:.\inv.c       **** //                dmp_reset_odr_counters();
 461:.\inv.c       **** //		if(hal.report & PRINT_FLIP_PICKUP) set_output_rates(112.5);
 462:.\inv.c       **** //		//INV_SPRINTF(tst, INV_TST_LEN, "Flip Pickup....output toggled, now is: %s.\r\n", (hal.report &
 463:.\inv.c       **** //		break;
 464:.\inv.c       **** //#endif
 465:.\inv.c       **** //#endif            
 466:.\inv.c       **** //	
 467:.\inv.c       **** //        case '0':
 468:.\inv.c       **** //          set_output_rates(1);
 469:.\inv.c       **** //          current_output_rate = 1;
 470:.\inv.c       **** //          break;
 471:.\inv.c       **** //        case '1':
 472:.\inv.c       **** //          set_output_rates(5);
 473:.\inv.c       **** //          current_output_rate = 5;
 474:.\inv.c       **** //          break;
 475:.\inv.c       **** //        case '2':
 476:.\inv.c       **** //          set_output_rates(15);
 477:.\inv.c       **** //          current_output_rate = 15;
 478:.\inv.c       **** //          break;
 479:.\inv.c       **** //        case '3':
 480:.\inv.c       **** //#if (MEMS_CHIP==HW_ICM20609)
 481:.\inv.c       **** //          set_output_rates(50);
 482:.\inv.c       **** //          current_output_rate = 50;
 483:.\inv.c       **** //#elif (MEMS_CHIP==HW_ICM20648)
 484:.\inv.c       **** //          set_output_rates(30);
 485:.\inv.c       **** //          current_output_rate = 30;
 486:.\inv.c       **** //#endif
 487:.\inv.c       **** //          break;
 488:.\inv.c       **** //        case '4':
 489:.\inv.c       **** //#if (MEMS_CHIP==HW_ICM20609)
 490:.\inv.c       **** //          set_output_rates(100);
 491:.\inv.c       **** //          current_output_rate = 100;
 492:.\inv.c       **** //#elif (MEMS_CHIP==HW_ICM20648)
 493:.\inv.c       **** //          set_output_rates(51);
 494:.\inv.c       **** //          current_output_rate = 51;
ARM GAS  C:\Users\ADMINI~1\AppData\Local\Temp\cc0mTFUy.s 			page 15


 495:.\inv.c       **** //#endif
 496:.\inv.c       **** //          break;
 497:.\inv.c       **** //#if (MEMS_CHIP==HW_ICM20648)          
 498:.\inv.c       **** //        case '5':
 499:.\inv.c       **** //          set_output_rates(56.5);
 500:.\inv.c       **** //          current_output_rate = 56.5;
 501:.\inv.c       **** //          break;
 502:.\inv.c       **** //        case '6':
 503:.\inv.c       **** //          set_output_rates(60);
 504:.\inv.c       **** //          current_output_rate = 60;
 505:.\inv.c       **** //          break;
 506:.\inv.c       **** //        case '7':
 507:.\inv.c       **** //          set_output_rates(102);
 508:.\inv.c       **** //          current_output_rate = 102;
 509:.\inv.c       **** //          break;
 510:.\inv.c       **** //        case '8':
 511:.\inv.c       **** //          set_output_rates(112.5);
 512:.\inv.c       **** //          current_output_rate = 112.5;
 513:.\inv.c       **** //          break;
 514:.\inv.c       **** //        case '9':
 515:.\inv.c       **** //          set_output_rates(225);
 516:.\inv.c       **** //          current_output_rate = 225;
 517:.\inv.c       **** //          break;
 518:.\inv.c       **** //                
 519:.\inv.c       **** //	case 'k':
 520:.\inv.c       **** //		//INV_SPRINTF(tst, INV_TST_LEN, "Getting the DMP biases...\r\n"); print_data_console(tst);
 521:.\inv.c       **** //		memset(dmp_bias, 0, sizeof(dmp_bias));
 522:.\inv.c       **** //		dmp_get_bias(dmp_bias);
 523:.\inv.c       **** //		//INV_SPRINTF(tst, INV_TST_LEN, "DMP   Accel Bias: X=%d, Y=%d, Z=%d\r\n", dmp_bias[0], dmp_bias
 524:.\inv.c       **** //		//INV_SPRINTF(tst, INV_TST_LEN, "DMP   Gyro  Bias: X=%d, Y=%d, Z=%d\r\n", dmp_bias[3], dmp_bias
 525:.\inv.c       **** //		break;
 526:.\inv.c       **** //
 527:.\inv.c       **** //	case 'Q':
 528:.\inv.c       **** //		dmp_reset_fifo();
 529:.\inv.c       **** //		hal.report ^= PRINT_CUBE_RV;
 530:.\inv.c       **** //		inv_enable_sensor(ANDROID_SENSOR_ROTATION_VECTOR, !!(hal.report & PRINT_CUBE_RV));
 531:.\inv.c       **** //                dmp_reset_odr_counters();
 532:.\inv.c       **** //		if (hal.report & PRINT_CUBE_RV) set_output_rates(current_output_rate);
 533:.\inv.c       **** //		//INV_SPRINTF(tst, INV_TST_LEN, "Cube RV....output toggled, now is: %s.\r\n", (hal.report & PRI
 534:.\inv.c       **** //		//print_command_console(tst);
 535:.\inv.c       **** //		break;
 536:.\inv.c       **** //	case '@':
 537:.\inv.c       **** //		dmp_reset_fifo();
 538:.\inv.c       **** //		hal.report ^= PRINT_CUBE_GEOMAG;
 539:.\inv.c       **** //		inv_enable_sensor(ANDROID_SENSOR_GEOMAGNETIC_ROTATION_VECTOR, !!(hal.report & PRINT_CUBE_GEOMAG
 540:.\inv.c       **** //                dmp_reset_odr_counters();
 541:.\inv.c       **** //		if (hal.report & PRINT_CUBE_GEOMAG) set_output_rates(current_output_rate);
 542:.\inv.c       **** //		//INV_SPRINTF(tst, INV_TST_LEN, "Cube GeoMAG RV....output toggled, now is: %s.\r\n", (hal.repor
 543:.\inv.c       **** //		//print_command_console(tst);
 544:.\inv.c       **** //		break;
 545:.\inv.c       **** //#endif
 546:.\inv.c       **** //	
 547:.\inv.c       **** //	case 'v':
 548:.\inv.c       **** //                dmp_reset_fifo();
 549:.\inv.c       **** //		hal.report ^= PRINT_GRAVITY;
 550:.\inv.c       **** //		inv_enable_sensor(ANDROID_SENSOR_GRAVITY, !!(hal.report & PRINT_GRAVITY));
 551:.\inv.c       **** //                dmp_reset_odr_counters();
ARM GAS  C:\Users\ADMINI~1\AppData\Local\Temp\cc0mTFUy.s 			page 16


 552:.\inv.c       **** //                if (hal.report & PRINT_GRAVITY) set_output_rates(current_output_rate);
 553:.\inv.c       **** //		//INV_SPRINTF(tst, INV_TST_LEN, "Gravity....output toggled, now is: %s.\r\n", (hal.report & PRI
 554:.\inv.c       **** //		//print_command_console(tst);
 555:.\inv.c       **** //		break;
 556:.\inv.c       **** //	case 'l':
 557:.\inv.c       **** //                dmp_reset_fifo();
 558:.\inv.c       **** //		hal.report ^= PRINT_LINEAR_ACCEL;
 559:.\inv.c       **** //		inv_enable_sensor(ANDROID_SENSOR_LINEAR_ACCELERATION, !!(hal.report & PRINT_LINEAR_ACCEL));
 560:.\inv.c       **** //                dmp_reset_odr_counters();
 561:.\inv.c       **** //                if (hal.report & PRINT_LINEAR_ACCEL) set_output_rates(current_output_rate);
 562:.\inv.c       **** //		//INV_SPRINTF(tst, INV_TST_LEN, "Linear Accel....output toggled, now is: %s.\r\n", (hal.report 
 563:.\inv.c       **** //		//print_command_console(tst);
 564:.\inv.c       **** //		break;
 565:.\inv.c       **** //#if (MEMS_CHIP != HW_ICM20609)
 566:.\inv.c       **** //	case 'o':
 567:.\inv.c       **** //                dmp_reset_fifo();
 568:.\inv.c       **** //		hal.report ^= PRINT_ORIENT;
 569:.\inv.c       **** //		inv_enable_sensor(ANDROID_SENSOR_ORIENTATION, !!(hal.report & PRINT_ORIENT));
 570:.\inv.c       **** //                dmp_reset_odr_counters();
 571:.\inv.c       **** //                if (hal.report & PRINT_ORIENT) set_output_rates(current_output_rate);
 572:.\inv.c       **** //		//INV_SPRINTF(tst, INV_TST_LEN, "Orientation....output toggled, now is: %s.\r\n", (hal.report &
 573:.\inv.c       **** //		//print_command_console(tst);
 574:.\inv.c       **** //		break;
 575:.\inv.c       **** //
 576:.\inv.c       **** //	case 't':
 577:.\inv.c       **** //		dmp_reset_fifo();
 578:.\inv.c       **** //		{
 579:.\inv.c       **** //			int sensors_bias[9] = { 0, 0, 0, 0, 0, 0, 0, 0, 0 };
 580:.\inv.c       **** //			char pass_str[] = { "PASS" };
 581:.\inv.c       **** //			char fail_str[] = { "FAIL" };
 582:.\inv.c       **** //
 583:.\inv.c       **** //		//	INV_SPRINTF(tst, INV_TST_LEN, "Selftest...Started\r\n");
 584:.\inv.c       **** //		//	print_command_console(tst);
 585:.\inv.c       **** //
 586:.\inv.c       **** //			self_test_result = inv_mems_run_selftest();
 587:.\inv.c       **** //			//            self_test_result = 0x4 | 0x0 | 0x0;
 588:.\inv.c       **** //			dmp_get_bias_20648(sensors_bias);
 589:.\inv.c       **** //
 590:.\inv.c       **** //			dmp_bias[0] = a_average[0] * (1 << 11);   // Change from LSB to format expected by DMP
 591:.\inv.c       **** //			dmp_bias[1] = a_average[1] * (1 << 11);
 592:.\inv.c       **** //			dmp_bias[2] = (a_average[2] - 16384)*(1 << 11); //remove the gravity and scale (FSR=2 in selft
 593:.\inv.c       **** //			int scale = 2000 / 250; //self-test uses 250dps FSR, main() set the FSR to 2000dps
 594:.\inv.c       **** //			dmp_bias[3] = (g_average[0] / scale)*(1 << 15);
 595:.\inv.c       **** //			dmp_bias[4] = (g_average[1] / scale)*(1 << 15);
 596:.\inv.c       **** //			dmp_bias[5] = (g_average[2] / scale)*(1 << 15);
 597:.\inv.c       **** //
 598:.\inv.c       **** //		//	INV_SPRINTF(tst, INV_TST_LEN, "Selftest...Done...Ret=%d\r\n", self_test_result);
 599:.\inv.c       **** //		//	print_command_console(tst);
 600:.\inv.c       **** ////			INV_SPRINTF(tst, INV_TST_LEN, "Result: Compass=%s, Accel=%s, Gyro=%s\r\n", (self_test_result
 601:.\inv.c       **** ////			print_command_console(tst);
 602:.\inv.c       **** ////			INV_SPRINTF(tst, INV_TST_LEN, "Accel Average (LSB@FSR 2g)\r\n");
 603:.\inv.c       **** ////			print_command_console(tst);
 604:.\inv.c       **** ////			INV_SPRINTF(tst, INV_TST_LEN, "\tX:%d Y:%d Z:%d\r\n", a_average[0], a_average[1], a_average[
 605:.\inv.c       **** ////			print_command_console(tst);
 606:.\inv.c       **** ////			INV_SPRINTF(tst, INV_TST_LEN, "Gyro Average (LSB@FSR 250dps)\r\n");
 607:.\inv.c       **** ////			print_command_console(tst);
 608:.\inv.c       **** ////			INV_SPRINTF(tst, INV_TST_LEN, "\tX:%d Y:%d Z:%d\r\n", g_average[0], g_average[1], g_average[
ARM GAS  C:\Users\ADMINI~1\AppData\Local\Temp\cc0mTFUy.s 			page 17


 609:.\inv.c       **** ////			print_command_console(tst);
 610:.\inv.c       **** ////			INV_SPRINTF(tst, INV_TST_LEN, "Factory Cal - Accel DMP biases: \tX:%d Y:%d Z:%d\r\n", dmp_bi
 611:.\inv.c       **** ////			print_command_console(tst);
 612:.\inv.c       **** ////			INV_SPRINTF(tst, INV_TST_LEN, "Factory Cal - Gyro DMP biases:  \tX:%d Y:%d Z:%d\r\n", dmp_bi
 613:.\inv.c       **** ////			print_command_console(tst);
 614:.\inv.c       **** //
 615:.\inv.c       **** //			if ((self_test_result & 0x3) == 0x3) {//Acc-Gyro self-test is passed already      
 616:.\inv.c       **** ////				INV_SPRINTF(tst, INV_TST_LEN, "\r\nSetting the DMP biases with one-axis factory calibration
 617:.\inv.c       **** //				dmp_set_bias_20648(dmp_bias); //update the DMP biases
 618:.\inv.c       **** //			}
 619:.\inv.c       **** //                        
 620:.\inv.c       **** ////                        print_command_console("\n\n**RESTART BOARD**\n");
 621:.\inv.c       **** //
 622:.\inv.c       **** //		}
 623:.\inv.c       **** //		break;
 624:.\inv.c       **** //#endif
 625:.\inv.c       **** //		//case SHOW_COMMANDS:
 626:.\inv.c       **** //	default:
 627:.\inv.c       **** ////	print_command_console("\r\n");
 628:.\inv.c       **** ////        print_command_console("Press 'a' to toggle ACCEL output....................\r\n");     
 629:.\inv.c       **** ////        print_command_console("Press 'g' to toggle Gyro output.....................\r\n");
 630:.\inv.c       **** ////        print_command_console("Press 'G' to toggle Raw Gyro output.................\r\n");     
 631:.\inv.c       **** ////        print_command_console("Press 'p' to toggle Step Counter output.............\r\n");     
 632:.\inv.c       **** ////        print_command_console("Press 'd' to toggle Step Detector output............\r\n");
 633:.\inv.c       **** ////        print_command_console("Press 'm' to toggle SMD Significant Motion output...\r\n");
 634:.\inv.c       **** //#if (MEMS_CHIP != HW_ICM20609)        
 635:.\inv.c       **** ////        print_command_console("Press 'c' to toggle Compass output..................\r\n"); 
 636:.\inv.c       **** ////        print_command_console("Press 'C' to toggle Raw Compass output..............\r\n");
 637:.\inv.c       **** //#endif
 638:.\inv.c       **** //#if (MEMS_CHIP != HW_ICM20630)
 639:.\inv.c       **** //#if (MEMS_CHIP != HW_ICM20609)
 640:.\inv.c       **** ////        print_command_console("Press 'b' to toggle Basic Activity Classifier output...\r\n");
 641:.\inv.c       **** ////        print_command_console("Press 'T' to toggle Tilt output...\r\n");
 642:.\inv.c       **** ////        print_command_console("Press 'F' to toggle Flip Pickup output...\r\n");
 643:.\inv.c       **** //#endif
 644:.\inv.c       **** //#endif
 645:.\inv.c       **** ////        print_command_console("Press 'r' to toggle Game Rotation Vector output.....\r\n");     
 646:.\inv.c       **** //#if (MEMS_CHIP != HW_ICM20609)        
 647:.\inv.c       **** ////        print_command_console("Press 'R' to toggle Rotation Vector output..........\r\n");
 648:.\inv.c       **** ////        print_command_console("Press 'e' to toggle GeoMag Vector output............\r\n");
 649:.\inv.c       **** //#if defined MEMS_AUGMENTED_SENSORS
 650:.\inv.c       **** //        print_command_console("Press 'l' to toggle Linear Acceleration output............\r\n");
 651:.\inv.c       **** //        print_command_console("Press 'v' to toggle Gravity output............\r\n");
 652:.\inv.c       **** //        print_command_console("Press 'o' to toggle Orientation output............\r\n");
 653:.\inv.c       **** //#endif
 654:.\inv.c       **** //
 655:.\inv.c       **** ////        print_command_console("Press 't' to invoke Self test.......................\r\n");
 656:.\inv.c       **** ////        print_command_console("Press 'k' to get the DMP Biases.................\r\n");
 657:.\inv.c       **** //#endif
 658:.\inv.c       **** ////        print_command_console("Press '0' to set ODR @ 1Hz..........................\r\n");
 659:.\inv.c       **** ////        print_command_console("Press '1' to set ODR @ 5Hz..........................\r\n");
 660:.\inv.c       **** ////	print_command_console("Press '2' to set ODR @ 15Hz.........................\r\n");
 661:.\inv.c       **** //#if (MEMS_CHIP == HW_ICM20609) 
 662:.\inv.c       **** //        print_command_console("Press '3' to set ODR @ 50Hz.........................\r\n");
 663:.\inv.c       **** //        print_command_console("Press '4' to set ODR @ 100Hz.........................\r\n");
 664:.\inv.c       **** //        print_command_console("Press '5' to set ODR @ 200Hz.........................\r\n");
 665:.\inv.c       **** //#endif
ARM GAS  C:\Users\ADMINI~1\AppData\Local\Temp\cc0mTFUy.s 			page 18


 666:.\inv.c       **** //#if (MEMS_CHIP != HW_ICM20609)         
 667:.\inv.c       **** ////        print_command_console("Press '3' to set ODR @ 30Hz.........................\r\n");
 668:.\inv.c       **** ////        print_command_console("Press '4' to set ODR @ 51Hz.........................\r\n");
 669:.\inv.c       **** ////        print_command_console("Press '5' to set ODR @ 56Hz.........................\r\n");
 670:.\inv.c       **** ////        print_command_console("Press '6' to set ODR @ 60Hz.........................\r\n");
 671:.\inv.c       **** ////        print_command_console("Press '7' to set ODR @ 102Hz.........................\r\n");
 672:.\inv.c       **** ////        print_command_console("Press '8' to set ODR @ 112Hz.........................\r\n");
 673:.\inv.c       **** ////        print_command_console("Press '9' to set ODR @ 225Hz.........................\r\n");
 674:.\inv.c       **** ////        print_command_console("Press 'Q' to toggle Cube Rotation Vector output........\r\n");
 675:.\inv.c       **** ////        print_command_console("Press '@' to toggle Cube GeoMAG Vector output..........\r\n");  
 676:.\inv.c       **** //#endif
 677:.\inv.c       **** ////        print_command_console("Press 'q' to toggle Cube Game Rotation Vector output...\r\n");
 678:.\inv.c       **** ////        print_command_console("\r\n");
 679:.\inv.c       **** //        break;
 680:.\inv.c       **** //	}
 681:.\inv.c       **** 
 682:.\inv.c       **** 	return 1;
 683:.\inv.c       **** }
 290              		.loc 1 683 0
 291 0000 0120     		mov	r0, #1
 292              	.LVL31:
 293              		@ sp needed
 294 0002 7047     		bx	lr
 295              		.cfi_endproc
 296              	.LFE46:
 297              		.size	handle_char_input, .-handle_char_input
 298              		.section	.text.inv_perform_selftest,"ax",%progbits
 299              		.align	1
 300              		.global	inv_perform_selftest
 301              		.code	16
 302              		.thumb_func
 303              		.type	inv_perform_selftest, %function
 304              	inv_perform_selftest:
 305              	.LFB47:
 684:.\inv.c       **** 
 685:.\inv.c       **** inv_error_t inv_perform_selftest(void)
 686:.\inv.c       **** {
 306              		.loc 1 686 0
 307              		.cfi_startproc
 308 0000 10B5     		push	{r4, lr}
 309              		.cfi_def_cfa_offset 8
 310              		.cfi_offset 4, -8
 311              		.cfi_offset 14, -4
 312 0002 8AB0     		sub	sp, sp, #40
 313              		.cfi_def_cfa_offset 48
 687:.\inv.c       **** 	inv_error_t status;
 688:.\inv.c       **** 	dmp_reset_fifo();
 314              		.loc 1 688 0
 315 0004 FFF7FEFF 		bl	dmp_reset_fifo
 316              	.LVL32:
 689:.\inv.c       **** 	int sensors_bias[9] = { 0, 0, 0, 0, 0, 0, 0, 0, 0 };
 317              		.loc 1 689 0
 318 0008 2422     		mov	r2, #36
 319 000a 0021     		mov	r1, #0
 320 000c 01A8     		add	r0, sp, #4
 321 000e FFF7FEFF 		bl	memset
 322              	.LVL33:
ARM GAS  C:\Users\ADMINI~1\AppData\Local\Temp\cc0mTFUy.s 			page 19


 690:.\inv.c       **** 	int scale = 2000 / 250; //self-test uses 250dps FSR, main() set the FSR to 2000dps
 691:.\inv.c       **** 
 692:.\inv.c       **** 	self_test_result = inv_mems_run_selftest();
 323              		.loc 1 692 0
 324 0012 FFF7FEFF 		bl	inv_mems_run_selftest
 325              	.LVL34:
 326 0016 1A4C     		ldr	r4, .L41
 327 0018 6061     		str	r0, [r4, #20]
 693:.\inv.c       **** 	dmp_get_bias_20648(sensors_bias);
 328              		.loc 1 693 0
 329 001a 01A8     		add	r0, sp, #4
 330 001c FFF7FEFF 		bl	dmp_get_bias_20648
 331              	.LVL35:
 694:.\inv.c       **** 
 695:.\inv.c       **** 	dmp_bias[0] = a_average[0] * (1 << 11);   // Change from LSB to format expected by DMP
 332              		.loc 1 695 0
 333 0020 E36B     		ldr	r3, [r4, #60]
 696:.\inv.c       **** 	dmp_bias[1] = a_average[1] * (1 << 11);
 697:.\inv.c       **** 	dmp_bias[2] = (a_average[2] - 16384)*(1 << 11); //remove the gravity and scale (FSR=2 in selftest)
 334              		.loc 1 697 0
 335 0022 184A     		ldr	r2, .L41+4
 695:.\inv.c       **** 	dmp_bias[1] = a_average[1] * (1 << 11);
 336              		.loc 1 695 0
 337 0024 DB02     		lsl	r3, r3, #11
 338 0026 A361     		str	r3, [r4, #24]
 696:.\inv.c       **** 	dmp_bias[1] = a_average[1] * (1 << 11);
 339              		.loc 1 696 0
 340 0028 236C     		ldr	r3, [r4, #64]
 341 002a DB02     		lsl	r3, r3, #11
 342 002c E361     		str	r3, [r4, #28]
 343              		.loc 1 697 0
 344 002e 636C     		ldr	r3, [r4, #68]
 345 0030 9B18     		add	r3, r3, r2
 346 0032 DB02     		lsl	r3, r3, #11
 347 0034 2362     		str	r3, [r4, #32]
 698:.\inv.c       **** 	dmp_bias[3] = (g_average[0] / scale)*(1 << 15);
 348              		.loc 1 698 0
 349 0036 A36C     		ldr	r3, [r4, #72]
 350 0038 DA17     		asr	r2, r3, #31
 351 003a 520F     		lsr	r2, r2, #29
 352 003c D318     		add	r3, r2, r3
 353 003e DB10     		asr	r3, r3, #3
 354 0040 DB03     		lsl	r3, r3, #15
 355 0042 6362     		str	r3, [r4, #36]
 699:.\inv.c       **** 	dmp_bias[4] = (g_average[1] / scale)*(1 << 15);
 356              		.loc 1 699 0
 357 0044 E36C     		ldr	r3, [r4, #76]
 358 0046 DA17     		asr	r2, r3, #31
 359 0048 520F     		lsr	r2, r2, #29
 360 004a D318     		add	r3, r2, r3
 361 004c DB10     		asr	r3, r3, #3
 362 004e DB03     		lsl	r3, r3, #15
 363 0050 A362     		str	r3, [r4, #40]
 700:.\inv.c       **** 	dmp_bias[5] = (g_average[2] / scale)*(1 << 15);
 364              		.loc 1 700 0
 365 0052 236D     		ldr	r3, [r4, #80]
 366 0054 DA17     		asr	r2, r3, #31
ARM GAS  C:\Users\ADMINI~1\AppData\Local\Temp\cc0mTFUy.s 			page 20


 367 0056 520F     		lsr	r2, r2, #29
 368 0058 D318     		add	r3, r2, r3
 369 005a DB10     		asr	r3, r3, #3
 370 005c DB03     		lsl	r3, r3, #15
 371 005e E362     		str	r3, [r4, #44]
 701:.\inv.c       **** 
 702:.\inv.c       **** 	//Acc-Gyro self-test is passed already      
 703:.\inv.c       **** 	if ((self_test_result & 0x3) == 0x3) 
 372              		.loc 1 703 0
 373 0060 0323     		mov	r3, #3
 374 0062 6269     		ldr	r2, [r4, #20]
 375 0064 1340     		and	r3, r2
 376 0066 032B     		cmp	r3, #3
 377 0068 05D1     		bne	.L40
 704:.\inv.c       **** 	{
 705:.\inv.c       **** 		//update the DMP biases
 706:.\inv.c       **** 		dmp_set_bias_20648(dmp_bias); 
 378              		.loc 1 706 0
 379 006a 201C     		mov	r0, r4
 380 006c 1830     		add	r0, r0, #24
 381 006e FFF7FEFF 		bl	dmp_set_bias_20648
 382              	.LVL36:
 707:.\inv.c       **** 		status = 0;
 383              		.loc 1 707 0
 384 0072 0020     		mov	r0, #0
 385 0074 01E0     		b	.L39
 386              	.LVL37:
 387              	.L40:
 708:.\inv.c       **** 	}
 709:.\inv.c       **** 	else
 710:.\inv.c       **** 	{
 711:.\inv.c       **** 		status = -1;
 388              		.loc 1 711 0
 389 0076 0120     		mov	r0, #1
 390 0078 4042     		neg	r0, r0
 391              	.L39:
 392              	.LVL38:
 712:.\inv.c       **** 	}
 713:.\inv.c       **** 	
 714:.\inv.c       **** 	return status;
 715:.\inv.c       **** }
 393              		.loc 1 715 0
 394 007a 0AB0     		add	sp, sp, #40
 395              		@ sp needed
 396 007c 10BD     		pop	{r4, pc}
 397              	.L42:
 398 007e C046     		.align	2
 399              	.L41:
 400 0080 00000000 		.word	.LANCHOR0
 401 0084 00C0FFFF 		.word	-16384
 402              		.cfi_endproc
 403              	.LFE47:
 404              		.size	inv_perform_selftest, .-inv_perform_selftest
 405              		.section	.text.inv_start,"ax",%progbits
 406              		.align	1
 407              		.global	inv_start
 408              		.code	16
ARM GAS  C:\Users\ADMINI~1\AppData\Local\Temp\cc0mTFUy.s 			page 21


 409              		.thumb_func
 410              		.type	inv_start, %function
 411              	inv_start:
 412              	.LFB43:
 101:.\inv.c       ****     inv_error_t result;
 413              		.loc 1 101 0
 414              		.cfi_startproc
 415 0000 F8B5     		push	{r3, r4, r5, r6, r7, lr}
 416              		.cfi_def_cfa_offset 24
 417              		.cfi_offset 3, -24
 418              		.cfi_offset 4, -20
 419              		.cfi_offset 5, -16
 420              		.cfi_offset 6, -12
 421              		.cfi_offset 7, -8
 422              		.cfi_offset 14, -4
 105:.\inv.c       **** 	
 423              		.loc 1 105 0
 424 0002 FFF7FEFF 		bl	I2C_Start
 425              	.LVL39:
 109:.\inv.c       **** 	if(result == 0)
 426              		.loc 1 109 0
 427 0006 0120     		mov	r0, #1
 428 0008 0021     		mov	r1, #0
 429 000a FFF7FEFF 		bl	inv_initialize_lower_driver
 430              	.LVL40:
 431 000e 234C     		ldr	r4, .L54
 432 0010 0122     		mov	r2, #1
 112:.\inv.c       **** 	}
 433              		.loc 1 112 0
 434 0012 238A     		ldrh	r3, [r4, #16]
 110:.\inv.c       **** 	{
 435              		.loc 1 110 0
 436 0014 0028     		cmp	r0, #0
 437 0016 01D1     		bne	.L44
 112:.\inv.c       **** 	}
 438              		.loc 1 112 0
 439 0018 9343     		bic	r3, r2
 440 001a 00E0     		b	.L52
 441              	.L44:
 116:.\inv.c       **** 	}
 442              		.loc 1 116 0
 443 001c 1343     		orr	r3, r2
 444              	.L52:
 445 001e 2382     		strh	r3, [r4, #16]
 121:.\inv.c       **** 	if(result == 0)
 446              		.loc 1 121 0
 447 0020 FFF7FEFF 		bl	inv_perform_selftest
 448              	.LVL41:
 449 0024 0222     		mov	r2, #2
 450 0026 061C     		mov	r6, r0
 451              	.LVL42:
 124:.\inv.c       **** 	}
 452              		.loc 1 124 0
 453 0028 238A     		ldrh	r3, [r4, #16]
 122:.\inv.c       **** 	{
 454              		.loc 1 122 0
 455 002a 0028     		cmp	r0, #0
ARM GAS  C:\Users\ADMINI~1\AppData\Local\Temp\cc0mTFUy.s 			page 22


 456 002c 01D1     		bne	.L46
 124:.\inv.c       **** 	}
 457              		.loc 1 124 0
 458 002e 9343     		bic	r3, r2
 459 0030 00E0     		b	.L53
 460              	.L46:
 128:.\inv.c       **** 	}
 461              		.loc 1 128 0
 462 0032 1343     		orr	r3, r2
 463              	.L53:
 133:.\inv.c       ****     inv_enable_sensor(ANDROID_SENSOR_ACCELEROMETER, !!(hal.report & PRINT_ACCEL));
 464              		.loc 1 133 0
 465 0034 0125     		mov	r5, #1
 128:.\inv.c       **** 	}
 466              		.loc 1 128 0
 467 0036 2382     		strh	r3, [r4, #16]
 132:.\inv.c       **** 	hal.report |= PRINT_ACCEL;
 468              		.loc 1 132 0
 469 0038 FFF7FEFF 		bl	dmp_reset_fifo
 470              	.LVL43:
 133:.\inv.c       ****     inv_enable_sensor(ANDROID_SENSOR_ACCELEROMETER, !!(hal.report & PRINT_ACCEL));
 471              		.loc 1 133 0
 472 003c 2368     		ldr	r3, [r4]
 134:.\inv.c       ****     dmp_reset_odr_counters();
 473              		.loc 1 134 0
 474 003e 291C     		mov	r1, r5
 133:.\inv.c       ****     inv_enable_sensor(ANDROID_SENSOR_ACCELEROMETER, !!(hal.report & PRINT_ACCEL));
 475              		.loc 1 133 0
 476 0040 2B43     		orr	r3, r5
 134:.\inv.c       ****     dmp_reset_odr_counters();
 477              		.loc 1 134 0
 478 0042 281C     		mov	r0, r5
 133:.\inv.c       ****     inv_enable_sensor(ANDROID_SENSOR_ACCELEROMETER, !!(hal.report & PRINT_ACCEL));
 479              		.loc 1 133 0
 480 0044 2360     		str	r3, [r4]
 134:.\inv.c       ****     dmp_reset_odr_counters();
 481              		.loc 1 134 0
 482 0046 FFF7FEFF 		bl	inv_enable_sensor
 483              	.LVL44:
 135:.\inv.c       **** 	
 484              		.loc 1 135 0
 485 004a FFF7FEFF 		bl	dmp_reset_odr_counters
 486              	.LVL45:
 138:.\inv.c       **** 	hal.report |= PRINT_GYRO;
 487              		.loc 1 138 0
 488 004e FFF7FEFF 		bl	dmp_reset_fifo
 489              	.LVL46:
 139:.\inv.c       ****     inv_enable_sensor(ANDROID_SENSOR_GYROSCOPE, !!(hal.report & PRINT_GYRO));
 490              		.loc 1 139 0
 491 0052 0223     		mov	r3, #2
 151:.\inv.c       ****     inv_enable_sensor(ANDROID_SENSOR_STEP_COUNTER, !!(hal.report & PRINT_STEP_COUNTER));
 492              		.loc 1 151 0
 493 0054 8027     		mov	r7, #128
 139:.\inv.c       ****     inv_enable_sensor(ANDROID_SENSOR_GYROSCOPE, !!(hal.report & PRINT_GYRO));
 494              		.loc 1 139 0
 495 0056 2268     		ldr	r2, [r4]
 140:.\inv.c       ****     dmp_reset_odr_counters();
ARM GAS  C:\Users\ADMINI~1\AppData\Local\Temp\cc0mTFUy.s 			page 23


 496              		.loc 1 140 0
 497 0058 291C     		mov	r1, r5
 139:.\inv.c       ****     inv_enable_sensor(ANDROID_SENSOR_GYROSCOPE, !!(hal.report & PRINT_GYRO));
 498              		.loc 1 139 0
 499 005a 1343     		orr	r3, r2
 140:.\inv.c       ****     dmp_reset_odr_counters();
 500              		.loc 1 140 0
 501 005c 0420     		mov	r0, #4
 139:.\inv.c       ****     inv_enable_sensor(ANDROID_SENSOR_GYROSCOPE, !!(hal.report & PRINT_GYRO));
 502              		.loc 1 139 0
 503 005e 2360     		str	r3, [r4]
 140:.\inv.c       ****     dmp_reset_odr_counters();
 504              		.loc 1 140 0
 505 0060 FFF7FEFF 		bl	inv_enable_sensor
 506              	.LVL47:
 141:.\inv.c       **** 
 507              		.loc 1 141 0
 508 0064 FFF7FEFF 		bl	dmp_reset_odr_counters
 509              	.LVL48:
 150:.\inv.c       **** 	hal.report |= PRINT_STEP_COUNTER;
 510              		.loc 1 150 0
 511 0068 FFF7FEFF 		bl	dmp_reset_fifo
 512              	.LVL49:
 151:.\inv.c       ****     inv_enable_sensor(ANDROID_SENSOR_STEP_COUNTER, !!(hal.report & PRINT_STEP_COUNTER));
 513              		.loc 1 151 0
 514 006c 2368     		ldr	r3, [r4]
 515 006e FF00     		lsl	r7, r7, #3
 516 0070 3B43     		orr	r3, r7
 152:.\inv.c       ****     dmp_reset_odr_counters();
 517              		.loc 1 152 0
 518 0072 291C     		mov	r1, r5
 519 0074 1320     		mov	r0, #19
 151:.\inv.c       ****     inv_enable_sensor(ANDROID_SENSOR_STEP_COUNTER, !!(hal.report & PRINT_STEP_COUNTER));
 520              		.loc 1 151 0
 521 0076 2360     		str	r3, [r4]
 152:.\inv.c       ****     dmp_reset_odr_counters();
 522              		.loc 1 152 0
 523 0078 FFF7FEFF 		bl	inv_enable_sensor
 524              	.LVL50:
 153:.\inv.c       **** 
 525              		.loc 1 153 0
 526 007c FFF7FEFF 		bl	dmp_reset_odr_counters
 527              	.LVL51:
 161:.\inv.c       **** 	if(hal.report & PRINT_STEP_COUNTER) 
 528              		.loc 1 161 0
 529 0080 0748     		ldr	r0, .L54+4
 530 0082 FFF7FEFF 		bl	set_output_rates
 531              	.LVL52:
 162:.\inv.c       **** 	{
 532              		.loc 1 162 0
 533 0086 2368     		ldr	r3, [r4]
 534 0088 3B42     		tst	r3, r7
 535 008a 02D0     		beq	.L48
 164:.\inv.c       **** 	}
 536              		.loc 1 164 0
 537 008c 0548     		ldr	r0, .L54+8
 538 008e FFF7FEFF 		bl	set_output_rates
ARM GAS  C:\Users\ADMINI~1\AppData\Local\Temp\cc0mTFUy.s 			page 24


 539              	.LVL53:
 540              	.L48:
 168:.\inv.c       **** 	
 541              		.loc 1 168 0
 542 0092 0548     		ldr	r0, .L54+12
 543 0094 FFF7FEFF 		bl	isr_INVN_INT_StartEx
 544              	.LVL54:
 171:.\inv.c       **** 
 545              		.loc 1 171 0
 546              		@ sp needed
 547 0098 301C     		mov	r0, r6
 548              	.LVL55:
 549 009a F8BD     		pop	{r3, r4, r5, r6, r7, pc}
 550              	.L55:
 551              		.align	2
 552              	.L54:
 553 009c 00000000 		.word	.LANCHOR0
 554 00a0 0000A040 		.word	1084227584
 555 00a4 0000E142 		.word	1122041856
 556 00a8 00000000 		.word	INVN_INT_InterruptHandler
 557              		.cfi_endproc
 558              	.LFE43:
 559              		.size	inv_start, .-inv_start
 560              		.section	.text.process_sensor_output,"ax",%progbits
 561              		.align	1
 562              		.global	process_sensor_output
 563              		.code	16
 564              		.thumb_func
 565              		.type	process_sensor_output, %function
 566              	process_sensor_output:
 567              	.LFB48:
 716:.\inv.c       **** 
 717:.\inv.c       **** void process_sensor_output()
 718:.\inv.c       **** {
 568              		.loc 1 718 0
 569              		.cfi_startproc
 570 0000 10B5     		push	{r4, lr}
 571              		.cfi_def_cfa_offset 8
 572              		.cfi_offset 4, -8
 573              		.cfi_offset 14, -4
 574 0002 86B0     		sub	sp, sp, #24
 575              		.cfi_def_cfa_offset 32
 719:.\inv.c       **** 	
 720:.\inv.c       **** 	signed long  long_quat[3] = { 0 };
 576              		.loc 1 720 0
 577 0004 6846     		mov	r0, sp
 578 0006 0021     		mov	r1, #0
 579 0008 0C22     		mov	r2, #12
 580 000a FFF7FEFF 		bl	memset
 581              	.LVL56:
 721:.\inv.c       **** 
 722:.\inv.c       **** 	if (hal.report & PRINT_ACCEL) {
 582              		.loc 1 722 0
 583 000e 344C     		ldr	r4, .L91
 584 0010 2368     		ldr	r3, [r4]
 585 0012 DA07     		lsl	r2, r3, #31
 586 0014 0FD5     		bpl	.L57
ARM GAS  C:\Users\ADMINI~1\AppData\Local\Temp\cc0mTFUy.s 			page 25


 723:.\inv.c       **** 		if (accel_data_was_set == 1) {
 587              		.loc 1 723 0
 588 0016 221C     		mov	r2, r4
 589 0018 5432     		add	r2, r2, #84
 590 001a 1288     		ldrh	r2, [r2]
 591 001c 012A     		cmp	r2, #1
 592 001e 0AD1     		bne	.L57
 724:.\inv.c       **** 			if (self_test_result && (accel_accuracy == 0)) //self-test is done already
 593              		.loc 1 724 0
 594 0020 6169     		ldr	r1, [r4, #20]
 595 0022 0029     		cmp	r1, #0
 596 0024 03D0     		beq	.L58
 597              		.loc 1 724 0 is_stmt 0 discriminator 1
 598 0026 A16D     		ldr	r1, [r4, #88]
 599 0028 0029     		cmp	r1, #0
 600 002a 00D1     		bne	.L58
 725:.\inv.c       **** 				accel_accuracy = 1; //accuracy reaches intermediate level after one-axis factory cal--yd
 601              		.loc 1 725 0 is_stmt 1
 602 002c A265     		str	r2, [r4, #88]
 603              	.L58:
 726:.\inv.c       **** 			//INV_SPRINTF(tst, INV_TST_LEN, "Accel Data\t %8.5f, %8.5f, %8.5f, %d, %lld\r\n", accel_float[0]
 727:.\inv.c       **** 			accel_data_was_set = 0;
 604              		.loc 1 727 0
 605 002e 221C     		mov	r2, r4
 606 0030 0021     		mov	r1, #0
 607 0032 5432     		add	r2, r2, #84
 608 0034 1180     		strh	r1, [r2]
 609              	.L57:
 728:.\inv.c       **** 		}
 729:.\inv.c       **** 	}
 730:.\inv.c       **** 
 731:.\inv.c       **** 	if (hal.report & PRINT_GYRO) {
 610              		.loc 1 731 0
 611 0036 9A07     		lsl	r2, r3, #30
 612 0038 0FD5     		bpl	.L59
 732:.\inv.c       **** 		if (gyro_data_was_set == 1) {
 613              		.loc 1 732 0
 614 003a 221C     		mov	r2, r4
 615 003c 5C32     		add	r2, r2, #92
 616 003e 1288     		ldrh	r2, [r2]
 617 0040 012A     		cmp	r2, #1
 618 0042 0AD1     		bne	.L59
 733:.\inv.c       **** 			if (self_test_result && (gyro_accuracy == 0)) //self-test is done already
 619              		.loc 1 733 0
 620 0044 6169     		ldr	r1, [r4, #20]
 621 0046 0029     		cmp	r1, #0
 622 0048 03D0     		beq	.L60
 623              		.loc 1 733 0 is_stmt 0 discriminator 1
 624 004a 216E     		ldr	r1, [r4, #96]
 625 004c 0029     		cmp	r1, #0
 626 004e 00D1     		bne	.L60
 734:.\inv.c       **** 				gyro_accuracy = 1; //accuracy reaches intermediate level after one-axis factory cal--yd
 627              		.loc 1 734 0 is_stmt 1
 628 0050 2266     		str	r2, [r4, #96]
 629              	.L60:
 735:.\inv.c       ****                         //INV_SPRINTF(tst, INV_TST_LEN, "Gyro Data\t %7.5f, %7.5f, %7.5f, %d, %lld\
 736:.\inv.c       **** 			gyro_data_was_set = 0;
ARM GAS  C:\Users\ADMINI~1\AppData\Local\Temp\cc0mTFUy.s 			page 26


 630              		.loc 1 736 0
 631 0052 221C     		mov	r2, r4
 632 0054 0021     		mov	r1, #0
 633 0056 5C32     		add	r2, r2, #92
 634 0058 1180     		strh	r1, [r2]
 635              	.L59:
 737:.\inv.c       **** 		}
 738:.\inv.c       **** 	}
 739:.\inv.c       **** 
 740:.\inv.c       **** //	if (hal.report & PRINT_RAW_GYRO) {
 741:.\inv.c       **** //#if ((MEMS_CHIP == HW_ICM30630) || (MEMS_CHIP == HW_ICM20648) || (MEMS_CHIP == HW_ICM20609))
 742:.\inv.c       **** //		if (raw_gyro_data_was_set == 1) {
 743:.\inv.c       **** //			//INV_SPRINTF(tst, INV_TST_LEN, "Raw Gyro Data\t %7.5f, %7.5f, %7.5f,%d, %lld\r\n", gyro_raw_f
 744:.\inv.c       **** //            //            INV_SPRINTF(tst, INV_TST_LEN, "Gyro Bias\t %7.5f, %7.5f, %7.5f\r\n", gy
 745:.\inv.c       **** //			raw_gyro_data_was_set = 0;
 746:.\inv.c       **** //		}
 747:.\inv.c       **** //#endif
 748:.\inv.c       **** //	}
 749:.\inv.c       **** //
 750:.\inv.c       **** 	if (quat6_data_was_set == 1){
 636              		.loc 1 750 0
 637 005a 221C     		mov	r2, r4
 638 005c 6432     		add	r2, r2, #100
 639 005e 1288     		ldrh	r2, [r2]
 640 0060 012A     		cmp	r2, #1
 641 0062 0DD1     		bne	.L61
 751:.\inv.c       **** 		if (hal.report & PRINT_GRV) {
 752:.\inv.c       **** 			//INV_SPRINTF(tst, INV_TST_LEN, "Game RV\t %7.5f, %7.5f, %7.5f, %7.5f, %lld\r\n", grv_float[0], 
 753:.\inv.c       **** 			//print_data_console(tst);
 754:.\inv.c       ****                 }
 755:.\inv.c       ****                 if (hal.report & PRINT_CUBE_GRV) {
 642              		.loc 1 755 0
 643 0064 DB03     		lsl	r3, r3, #15
 644 0066 07D5     		bpl	.L62
 756:.\inv.c       **** 			dmp_get_6quaternion(long_quat);
 645              		.loc 1 756 0
 646 0068 6846     		mov	r0, sp
 647 006a FFF7FEFF 		bl	dmp_get_6quaternion
 648              	.LVL57:
 757:.\inv.c       **** 			inv_compute_scalar_part(long_quat, result_quat);
 649              		.loc 1 757 0
 650 006e 211C     		mov	r1, r4
 651 0070 6846     		mov	r0, sp
 652 0072 6831     		add	r1, r1, #104
 653 0074 FFF7FEFF 		bl	inv_compute_scalar_part
 654              	.LVL58:
 655              	.L62:
 758:.\inv.c       **** 			//send_data_packet(PACKET_TYPE_QUAT, (void *)result_quat);
 759:.\inv.c       ****                 }
 760:.\inv.c       **** #if (MEMS_CHIP != HW_ICM20609)                
 761:.\inv.c       **** #if defined MEMS_AUGMENTED_SENSORS       
 762:.\inv.c       **** 		if (hal.report & PRINT_GRAVITY) {
 763:.\inv.c       **** 			INV_SPRINTF(tst, INV_TST_LEN, "Gravity\t %7.5f, %7.5f, %7.5f, %lld\r\n", gravityFloat[0], gravit
 764:.\inv.c       **** 			print_data_console(tst);
 765:.\inv.c       **** 		}
 766:.\inv.c       **** 		if (hal.report & PRINT_LINEAR_ACCEL) {
 767:.\inv.c       **** 			INV_SPRINTF(tst, INV_TST_LEN, "LinearAcc\t %7.5f, %7.5f, %7.5f, %lld\r\n", linAccFloat[0], linAc
ARM GAS  C:\Users\ADMINI~1\AppData\Local\Temp\cc0mTFUy.s 			page 27


 768:.\inv.c       **** 			print_data_console(tst);
 769:.\inv.c       **** 		}
 770:.\inv.c       ****                 
 771:.\inv.c       **** #endif      
 772:.\inv.c       **** #endif
 773:.\inv.c       ****                 quat6_data_was_set = 0;
 656              		.loc 1 773 0
 657 0078 231C     		mov	r3, r4
 658 007a 0022     		mov	r2, #0
 659 007c 6433     		add	r3, r3, #100
 660 007e 1A80     		strh	r2, [r3]
 661              	.L61:
 774:.\inv.c       **** 	}
 775:.\inv.c       **** #if (MEMS_CHIP != HW_ICM20609)
 776:.\inv.c       **** //        if (hal.report & PRINT_COMPASS) {
 777:.\inv.c       **** //		if (compass_data_was_set == 1) {
 778:.\inv.c       **** //			//INV_SPRINTF(tst, INV_TST_LEN, "Compass Data\t %7.5f, %7.5f, %7.5f,\t%d, %lld\r\n", compass_f
 779:.\inv.c       **** //			compass_data_was_set = 0;
 780:.\inv.c       **** //		}
 781:.\inv.c       **** //	}
 782:.\inv.c       **** //
 783:.\inv.c       **** //	if (hal.report & PRINT_RAW_COMPASS) {
 784:.\inv.c       **** //		if (raw_compass_data_was_set == 1) {
 785:.\inv.c       **** //			//INV_SPRINTF(tst, INV_TST_LEN, "Raw Compass Data\t %7.5f, %7.5f, %7.5f,\t%d, %lld\r\n", compa
 786:.\inv.c       **** //			//INV_SPRINTF(tst, INV_TST_LEN, "Compass Bias\t %7.3f, %7.3f, %7.3f\r\n", compass_bias[0], com
 787:.\inv.c       **** //			raw_compass_data_was_set = 0;
 788:.\inv.c       **** //		}
 789:.\inv.c       **** //	}
 790:.\inv.c       **** //
 791:.\inv.c       **** 		
 792:.\inv.c       **** 	if (quat9_data_was_set == 1) {
 662              		.loc 1 792 0
 663 0080 231C     		mov	r3, r4
 664 0082 7833     		add	r3, r3, #120
 665 0084 1B88     		ldrh	r3, [r3]
 666 0086 012B     		cmp	r3, #1
 667 0088 0ED1     		bne	.L63
 793:.\inv.c       **** 		if (hal.report & PRINT_RV) {
 794:.\inv.c       **** 			//INV_SPRINTF(tst, INV_TST_LEN, "RV\t %7.5f, %7.5f, %7.5f, %7.5f, %d, %lld\r\n", rv_float[0], rv
 795:.\inv.c       **** 			//print_data_console(tst);
 796:.\inv.c       **** 		}
 797:.\inv.c       **** 		if (hal.report &  PRINT_CUBE_RV) {
 668              		.loc 1 797 0
 669 008a 2368     		ldr	r3, [r4]
 670 008c 9B03     		lsl	r3, r3, #14
 671 008e 0BD5     		bpl	.L63
 672              	.LBB10:
 798:.\inv.c       ****                   long temp_long_quat[3];
 799:.\inv.c       **** 			dmp_get_9quaternion(long_quat);
 673              		.loc 1 799 0
 674 0090 6846     		mov	r0, sp
 675 0092 FFF7FEFF 		bl	dmp_get_9quaternion
 676              	.LVL59:
 800:.\inv.c       ****                         inv_convert_rotation_vector_1(long_quat, temp_long_quat);
 677              		.loc 1 800 0
 678 0096 6846     		mov	r0, sp
 679 0098 03A9     		add	r1, sp, #12
ARM GAS  C:\Users\ADMINI~1\AppData\Local\Temp\cc0mTFUy.s 			page 28


 680 009a FFF7FEFF 		bl	inv_convert_rotation_vector_1
 681              	.LVL60:
 801:.\inv.c       **** 			inv_compute_scalar_part(temp_long_quat, result_quat);
 682              		.loc 1 801 0
 683 009e 211C     		mov	r1, r4
 684 00a0 03A8     		add	r0, sp, #12
 685 00a2 6831     		add	r1, r1, #104
 686 00a4 FFF7FEFF 		bl	inv_compute_scalar_part
 687              	.LVL61:
 688              	.L63:
 689              	.LBE10:
 802:.\inv.c       **** 			//send_data_packet(PACKET_TYPE_QUAT, (void *)result_quat);
 803:.\inv.c       **** 
 804:.\inv.c       **** 		}
 805:.\inv.c       **** #if defined MEMS_AUGMENTED_SENSORS
 806:.\inv.c       **** 		if (hal.report & PRINT_ORIENT) {
 807:.\inv.c       **** 			INV_SPRINTF(tst, INV_TST_LEN, "Orientation\t %7.5f, %7.5f, %7.5f, %lld\r\n", orientationFloat[0]
 808:.\inv.c       **** 			print_data_console(tst);
 809:.\inv.c       **** 		}
 810:.\inv.c       **** 		quat9_data_was_set = 0;
 811:.\inv.c       **** #endif
 812:.\inv.c       **** 	}
 813:.\inv.c       ****       
 814:.\inv.c       **** 	if (gmrv_quat_was_set == 1) {
 690              		.loc 1 814 0
 691 00a8 231C     		mov	r3, r4
 692 00aa 7A33     		add	r3, r3, #122
 693 00ac 1A88     		ldrh	r2, [r3]
 694 00ae 012A     		cmp	r2, #1
 695 00b0 01D1     		bne	.L64
 815:.\inv.c       **** 		if (hal.report & PRINT_GEOMAG)
 816:.\inv.c       **** 		{
 817:.\inv.c       **** 			//INV_SPRINTF(tst, INV_TST_LEN, "GeoMAG RV\t %7.5f, %7.5f, %7.5f, %7.5f, %d, %lld\r\n", gmrv_flo
 818:.\inv.c       **** 			//print_data_console(tst);
 819:.\inv.c       **** 		}
 820:.\inv.c       ****                 if (hal.report & PRINT_CUBE_GEOMAG) {
 821:.\inv.c       **** 			//send_data_packet(PACKET_TYPE_QUAT, (void *)cube_gmrv);
 822:.\inv.c       **** 		}
 823:.\inv.c       ****                 gmrv_quat_was_set = 0;
 696              		.loc 1 823 0
 697 00b2 0022     		mov	r2, #0
 698 00b4 1A80     		strh	r2, [r3]
 699              	.L64:
 824:.\inv.c       **** 	}
 825:.\inv.c       **** 
 826:.\inv.c       **** //	if (hal.report & PRINT_BAC) {
 827:.\inv.c       **** //		if (bac_data_was_set == 1)
 828:.\inv.c       **** //		{
 829:.\inv.c       **** //			//INV_SPRINTF(tst, INV_TST_LEN, "BAC Ts:\t %ld\r\n", bac_ts);
 830:.\inv.c       **** //			//print_data_console(tst);
 831:.\inv.c       **** ////			if ((bac_state >> 8) & BAC_DRIVE)
 832:.\inv.c       **** ////				print_data_console("\t Enter Drive\r\n");
 833:.\inv.c       **** ////			if ((bac_state >> 8) & BAC_WALK)
 834:.\inv.c       **** ////				print_data_console("\t Enter Walk\r\n");
 835:.\inv.c       **** ////			if ((bac_state >> 8) & BAC_RUN)
 836:.\inv.c       **** ////				print_data_console("\t Enter Run\r\n");
 837:.\inv.c       **** ////			if ((bac_state >> 8) & BAC_BIKE)
ARM GAS  C:\Users\ADMINI~1\AppData\Local\Temp\cc0mTFUy.s 			page 29


 838:.\inv.c       **** ////				print_data_console("\t Enter Bike\r\n");
 839:.\inv.c       **** ////			if ((bac_state >> 8) & BAC_TILT)
 840:.\inv.c       **** ////				print_data_console("\t Enter Tilt\r\n");
 841:.\inv.c       **** ////			if ((bac_state >> 8) & BAC_STILL)
 842:.\inv.c       **** ////				print_data_console("\t Enter Still\r\n");
 843:.\inv.c       **** ////			if (bac_state & BAC_DRIVE)
 844:.\inv.c       **** ////				print_data_console("\t Exit Drive\r\n");
 845:.\inv.c       **** ////			if (bac_state & BAC_WALK)
 846:.\inv.c       **** ////				print_data_console("\t Exit Walk\r\n");
 847:.\inv.c       **** ////			if (bac_state & BAC_RUN)
 848:.\inv.c       **** ////				print_data_console("\t Exit Run\r\n");
 849:.\inv.c       **** ////			if (bac_state & BAC_BIKE)
 850:.\inv.c       **** ////				print_data_console("\t Exit Bike\r\n");
 851:.\inv.c       **** ////			if (bac_state & BAC_TILT)
 852:.\inv.c       **** ////				print_data_console("\t Exit tilt\r\n");
 853:.\inv.c       **** ////			if (bac_state & BAC_STILL)
 854:.\inv.c       **** ////				print_data_console("\t Exit Still\r\n");
 855:.\inv.c       **** //
 856:.\inv.c       **** //			bac_data_was_set = 0;
 857:.\inv.c       **** //			//bac_prev_ts = ts;
 858:.\inv.c       **** //		}
 859:.\inv.c       **** //	}
 860:.\inv.c       **** //
 861:.\inv.c       **** //	if (hal.report & PRINT_FLIP_PICKUP) {
 862:.\inv.c       **** //		if (flip_data_was_set == 1) {
 863:.\inv.c       **** //			if (flip_pickup == 1){}
 864:.\inv.c       **** //			//	print_data_console("\t Flip Detected\r\n");
 865:.\inv.c       **** //			else if (flip_pickup == 2){}
 866:.\inv.c       **** //			//	print_data_console("\t Pickup Detected\r\n");
 867:.\inv.c       **** //			flip_data_was_set = 0;
 868:.\inv.c       **** //		}
 869:.\inv.c       **** //	}
 870:.\inv.c       **** //
 871:.\inv.c       **** 	if (hal.report & PRINT_TILT) {
 700              		.loc 1 871 0
 701 00b6 2368     		ldr	r3, [r4]
 702 00b8 5A02     		lsl	r2, r3, #9
 703 00ba 06D5     		bpl	.L65
 872:.\inv.c       **** 		if (tilt_data_was_set == 1) {
 704              		.loc 1 872 0
 705 00bc 221C     		mov	r2, r4
 706 00be 7C32     		add	r2, r2, #124
 707 00c0 1188     		ldrh	r1, [r2]
 708 00c2 0129     		cmp	r1, #1
 709 00c4 01D1     		bne	.L65
 873:.\inv.c       **** 			if (tilt_state == 2){}
 874:.\inv.c       **** 			//	print_data_console("\t Tilt Started\r\n");
 875:.\inv.c       **** 			else if (tilt_state == 1){}
 876:.\inv.c       **** 			//	print_data_console("\t Tilt Ended\r\n");
 877:.\inv.c       **** 			tilt_data_was_set = 0;
 710              		.loc 1 877 0
 711 00c6 0021     		mov	r1, #0
 712 00c8 1180     		strh	r1, [r2]
 713              	.L65:
 878:.\inv.c       **** 		}
 879:.\inv.c       **** 	}
 880:.\inv.c       **** #endif     
ARM GAS  C:\Users\ADMINI~1\AppData\Local\Temp\cc0mTFUy.s 			page 30


 881:.\inv.c       ****         if (hal.report & PRINT_STEP_DETECTOR) {
 714              		.loc 1 881 0
 715 00ca 1B05     		lsl	r3, r3, #20
 716 00cc 05D5     		bpl	.L56
 882:.\inv.c       ****                 if (step_detected == 1)
 717              		.loc 1 882 0
 718 00ce 7E34     		add	r4, r4, #126
 719 00d0 2378     		ldrb	r3, [r4]
 720 00d2 012B     		cmp	r3, #1
 721 00d4 01D1     		bne	.L56
 883:.\inv.c       ****                 //    print_data_console("Step Detected>>>>\r\n");
 884:.\inv.c       ****                 step_detected = 0;
 722              		.loc 1 884 0
 723 00d6 0023     		mov	r3, #0
 724 00d8 2370     		strb	r3, [r4]
 725              	.L56:
 885:.\inv.c       ****         }
 886:.\inv.c       **** 
 887:.\inv.c       **** 	
 888:.\inv.c       **** }
 726              		.loc 1 888 0
 727 00da 06B0     		add	sp, sp, #24
 728              		@ sp needed
 729 00dc 10BD     		pop	{r4, pc}
 730              	.L92:
 731 00de C046     		.align	2
 732              	.L91:
 733 00e0 00000000 		.word	.LANCHOR0
 734              		.cfi_endproc
 735              	.LFE48:
 736              		.size	process_sensor_output, .-process_sensor_output
 737              		.global	__aeabi_ldivmod
 738              		.global	__aeabi_i2f
 739              		.global	__aeabi_fadd
 740              		.global	__aeabi_fmul
 741              		.global	__aeabi_fsub
 742              		.global	__aeabi_f2iz
 743              		.section	.text.fifo_handler,"ax",%progbits
 744              		.align	1
 745              		.global	fifo_handler
 746              		.code	16
 747              		.thumb_func
 748              		.type	fifo_handler, %function
 749              	fifo_handler:
 750              	.LFB49:
 889:.\inv.c       **** 
 890:.\inv.c       **** void fifo_handler()
 891:.\inv.c       **** {
 751              		.loc 1 891 0
 752              		.cfi_startproc
 753 0000 F0B5     		push	{r4, r5, r6, r7, lr}
 754              		.cfi_def_cfa_offset 20
 755              		.cfi_offset 4, -20
 756              		.cfi_offset 5, -16
 757              		.cfi_offset 6, -12
 758              		.cfi_offset 7, -8
 759              		.cfi_offset 14, -4
ARM GAS  C:\Users\ADMINI~1\AppData\Local\Temp\cc0mTFUy.s 			page 31


 892:.\inv.c       **** 	short              int_read_back = 0;
 760              		.loc 1 892 0
 761 0002 0025     		mov	r5, #0
 891:.\inv.c       **** 	short              int_read_back = 0;
 762              		.loc 1 891 0
 763 0004 ADB0     		sub	sp, sp, #180
 764              		.cfi_def_cfa_offset 200
 765              		.loc 1 892 0
 766 0006 02AB     		add	r3, sp, #8
 767 0008 1D80     		strh	r5, [r3]
 893:.\inv.c       **** 	unsigned short     header = 0, header2 = 0;
 768              		.loc 1 893 0
 769 000a 9C1C     		add	r4, r3, #2
 770 000c 03AB     		add	r3, sp, #12
 771 000e 1D80     		strh	r5, [r3]
 894:.\inv.c       **** 	int data_left_in_fifo = 0;
 895:.\inv.c       **** 	short short_data[3] = { 0 };
 896:.\inv.c       **** 	signed long  long_data[3] = { 0 };
 772              		.loc 1 896 0
 773 0010 291C     		mov	r1, r5
 895:.\inv.c       **** 	signed long  long_data[3] = { 0 };
 774              		.loc 1 895 0
 775 0012 05AB     		add	r3, sp, #20
 776              		.loc 1 896 0
 777 0014 0C22     		mov	r2, #12
 778 0016 07A8     		add	r0, sp, #28
 895:.\inv.c       **** 	signed long  long_data[3] = { 0 };
 779              		.loc 1 895 0
 780 0018 9D80     		strh	r5, [r3, #4]
 893:.\inv.c       **** 	unsigned short     header = 0, header2 = 0;
 781              		.loc 1 893 0
 782 001a 2580     		strh	r5, [r4]
 894:.\inv.c       **** 	int data_left_in_fifo = 0;
 783              		.loc 1 894 0
 784 001c 0495     		str	r5, [sp, #16]
 895:.\inv.c       **** 	signed long  long_data[3] = { 0 };
 785              		.loc 1 895 0
 786 001e 0595     		str	r5, [sp, #20]
 787              		.loc 1 896 0
 788 0020 FFF7FEFF 		bl	memset
 789              	.LVL62:
 897:.\inv.c       **** 	signed long  long_quat[3] = { 0 };
 790              		.loc 1 897 0
 791 0024 291C     		mov	r1, r5
 792 0026 0C22     		mov	r2, #12
 793 0028 0AA8     		add	r0, sp, #40
 794 002a FFF7FEFF 		bl	memset
 795              	.LVL63:
 898:.\inv.c       **** 	static mpu_time_t lastIrqTimeUs = 0;
 899:.\inv.c       **** 	static mpu_time_t currentIrqTimeUs = 0;
 900:.\inv.c       **** 	unsigned short sample_cnt_array[GENERAL_SENSORS_MAX] = { 0 };
 796              		.loc 1 900 0
 797 002e 6222     		mov	r2, #98
 798 0030 291C     		mov	r1, r5
 799 0032 13A8     		add	r0, sp, #76
 800 0034 FFF7FEFF 		bl	memset
 801              	.LVL64:
ARM GAS  C:\Users\ADMINI~1\AppData\Local\Temp\cc0mTFUy.s 			page 32


 901:.\inv.c       ****         
 902:.\inv.c       **** 	// Process Incoming INT and Get/Pack FIFO Data
 903:.\inv.c       **** 	inv_identify_interrupt(&int_read_back);
 802              		.loc 1 903 0
 803 0038 02A8     		add	r0, sp, #8
 804 003a FFF7FEFF 		bl	inv_identify_interrupt
 805              	.LVL65:
 904:.\inv.c       **** #if (MEMS_CHIP != HW_ICM20609)
 905:.\inv.c       **** 	if (int_read_back & (BIT_MSG_DMP_INT | BIT_MSG_DMP_INT_0 | BIT_MSG_DMP_INT_2 | BIT_MSG_DMP_INT_5))
 806              		.loc 1 905 0
 807 003e 02AB     		add	r3, sp, #8
 808 0040 1A88     		ldrh	r2, [r3]
 809 0042 D84B     		ldr	r3, .L180
 810 0044 1A42     		tst	r2, r3
 811 0046 00D1     		bne	.LCB727
 812 0048 D8E1     		b	.L93	@long jump
 813              	.LCB727:
 814              	.LBB11:
 906:.\inv.c       **** #else
 907:.\inv.c       ****         if (int_read_back & BIT_DMP_INT_CI)
 908:.\inv.c       **** #endif
 909:.\inv.c       ****         {
 910:.\inv.c       **** 		// Read FIFO contents and parse it.
 911:.\inv.c       **** 		unsigned short total_sample_cnt = 0;
 815              		.loc 1 911 0
 816 004a 02AB     		add	r3, sp, #8
 817 004c DD80     		strh	r5, [r3, #6]
 818              	.L103:
 912:.\inv.c       **** 		//currentIrqTimeUs = inv_get_tick_count();	
 913:.\inv.c       ****                         
 914:.\inv.c       ****                         do {
 915:.\inv.c       **** 			
 916:.\inv.c       ****         
 917:.\inv.c       **** 			if (inv_mems_fifo_swmirror(&data_left_in_fifo, &total_sample_cnt, sample_cnt_array))
 819              		.loc 1 917 0
 820 004e 02AB     		add	r3, sp, #8
 821 0050 9E1D     		add	r6, r3, #6
 822 0052 04A8     		add	r0, sp, #16
 823 0054 311C     		mov	r1, r6
 824 0056 13AA     		add	r2, sp, #76
 825 0058 FFF7FEFF 		bl	inv_mems_fifo_swmirror
 826              	.LVL66:
 827 005c 071E     		sub	r7, r0, #0
 828 005e 05D0     		beq	.L95
 829              	.L102:
 918:.\inv.c       ****                           break;
 919:.\inv.c       ****                         
 920:.\inv.c       **** 			if (lastIrqTimeUs != 0)
 921:.\inv.c       **** 				ts = (currentIrqTimeUs - lastIrqTimeUs) / total_sample_cnt;
 922:.\inv.c       ****                         
 923:.\inv.c       **** 			lastIrqTimeUs = currentIrqTimeUs;
 924:.\inv.c       ****                         while (total_sample_cnt--){
 925:.\inv.c       **** 				if (inv_mems_fifo_pop(&header, &header2, &data_left_in_fifo))
 926:.\inv.c       **** 					break;
 927:.\inv.c       **** 
 928:.\inv.c       **** 				if (header & ACCEL_SET) {
 929:.\inv.c       **** 					float scale;
ARM GAS  C:\Users\ADMINI~1\AppData\Local\Temp\cc0mTFUy.s 			page 33


 930:.\inv.c       **** 
 931:.\inv.c       **** 					accel_data_was_set = 1;
 932:.\inv.c       **** 					dmp_get_accel(long_data);
 933:.\inv.c       **** 
 934:.\inv.c       **** 					accel_accuracy = inv_get_accel_accuracy();
 935:.\inv.c       **** 					scale = (1 << inv_get_accel_fullscale()) * 2.f / (1L << 30); // Convert from raw units to g's
 936:.\inv.c       **** 					// scale *= 9.80665f; // Convert to m/s^2
 937:.\inv.c       **** 					inv_convert_dmp3_to_body(long_data, scale, accel_float);
 938:.\inv.c       **** 					
 939:.\inv.c       **** 					BackBone_SetAccelerometerData(accel_float[0], accel_float[1], accel_float[2], 0);
 940:.\inv.c       **** 				}
 941:.\inv.c       **** 
 942:.\inv.c       **** 
 943:.\inv.c       **** 				if (header & GYRO_SET) {
 944:.\inv.c       **** 					float scale;
 945:.\inv.c       **** 					signed long  raw_data[3] = { 0 };
 946:.\inv.c       **** #if ((MEMS_CHIP == HW_ICM30630) || (MEMS_CHIP == HW_ICM20648) || (MEMS_CHIP == HW_ICM20609))
 947:.\inv.c       **** 					signed long  bias_data[3] = { 0 };
 948:.\inv.c       **** #endif
 949:.\inv.c       **** 
 950:.\inv.c       **** 					raw_gyro_data_was_set = 1;
 951:.\inv.c       **** 					dmp_get_raw_gyro(short_data);
 952:.\inv.c       ****                                         scale = (1 << inv_get_gyro_fullscale()) * 250.f / (1L << 15
 953:.\inv.c       **** 					scale *= (float)M_PI / 180.f; // Convert to radian.
 954:.\inv.c       ****                                         raw_data[0] = (long)short_data[0];
 955:.\inv.c       ****                                         raw_data[1] = (long)short_data[1];
 956:.\inv.c       ****                                         raw_data[2] = (long)short_data[2];
 957:.\inv.c       ****                                         inv_convert_dmp3_to_body(raw_data, scale, gyro_raw_float);
 958:.\inv.c       **** 					
 959:.\inv.c       **** 					BackBone_SetGyroscopeData(gyro_float[0], gyro_float[1], gyro_float[2]);
 960:.\inv.c       **** 										
 961:.\inv.c       **** 										
 962:.\inv.c       **** #if ((MEMS_CHIP == HW_ICM30630) || (MEMS_CHIP == HW_ICM20648))
 963:.\inv.c       ****                                       // We have gyro bias data in raw units, scaled by 2^5
 964:.\inv.c       ****                                         scale = (1 << inv_get_gyro_fullscale()) * 250.f / (1L << 20
 965:.\inv.c       **** 					scale *= (float)M_PI / 180.f; // Convert to radian.
 966:.\inv.c       **** 					dmp_get_gyro_bias(short_data);
 967:.\inv.c       **** 					bias_data[0] = (long)short_data[0];
 968:.\inv.c       **** 					bias_data[1] = (long)short_data[1];
 969:.\inv.c       **** 					bias_data[2] = (long)short_data[2];
 970:.\inv.c       **** 					inv_convert_dmp3_to_body(bias_data, scale, gyro_bias_float);
 971:.\inv.c       **** 
 972:.\inv.c       ****                                       if(hal.report & PRINT_GYRO){
 973:.\inv.c       **** 					// shift to Q20 to do all operations in Q20
 974:.\inv.c       **** 					raw_data[0] = raw_data[0] << 5;
 975:.\inv.c       **** 					raw_data[1] = raw_data[1] << 5;
 976:.\inv.c       **** 					raw_data[2] = raw_data[2] << 5;
 977:.\inv.c       **** 					inv_mems_dmp_get_calibrated_gyro(long_data, raw_data, bias_data);
 978:.\inv.c       **** 					inv_convert_dmp3_to_body(long_data, scale, gyro_float);
 979:.\inv.c       ****                                         gyro_data_was_set = 1;
 980:.\inv.c       ****                                       }
 981:.\inv.c       ****                                       gyro_accuracy = inv_get_gyro_accuracy();
 982:.\inv.c       ****                                       
 983:.\inv.c       **** #elif (MEMS_CHIP == HW_ICM20609)           
 984:.\inv.c       ****                                       dmp_get_gyro_bias(bias_data);
 985:.\inv.c       ****                                         scale = (1 << inv_get_gyro_fullscale()) * 250.f / (1L << 20
 986:.\inv.c       **** 					scale *= (float)M_PI / 180.f; // Convert to radian.
ARM GAS  C:\Users\ADMINI~1\AppData\Local\Temp\cc0mTFUy.s 			page 34


 987:.\inv.c       ****                                         inv_convert_dmp3_to_body(bias_data, scale, gyro_bias_float)
 988:.\inv.c       ****                                         
 989:.\inv.c       ****                                       if(hal.report & PRINT_GYRO){                                 
 990:.\inv.c       ****                                         inv_mems_dmp_get_calibrated_gyro(long_data, short_data, bia
 991:.\inv.c       **** 					// shift to Q30 to do all operations in Q30
 992:.\inv.c       **** 					scale = (1 << inv_get_gyro_fullscale()) * 250.f / (1L << 30); // From raw to dps
 993:.\inv.c       **** 					scale *= (float)M_PI / 180.f; // Convert to radian.
 994:.\inv.c       **** 					
 995:.\inv.c       **** 					inv_convert_dmp3_to_body(long_data, scale, gyro_float);
 996:.\inv.c       ****                                         
 997:.\inv.c       ****                                         gyro_data_was_set = 1;
 998:.\inv.c       ****                                       }
 999:.\inv.c       ****                                       if((bias_data[0] != 0) && (bias_data[1] != 0) && (bias_data[2
1000:.\inv.c       ****                                         gyro_accuracy = 3;
1001:.\inv.c       **** #endif
1002:.\inv.c       **** 				}
1003:.\inv.c       **** 
1004:.\inv.c       **** 				if (header & GYRO_CALIBR_SET) {
1005:.\inv.c       **** #if ((MEMS_CHIP != HW_ICM30630) && (MEMS_CHIP != HW_ICM20648))
1006:.\inv.c       **** 					float scale;
1007:.\inv.c       **** 					gyro_data_was_set = 1;
1008:.\inv.c       **** 					dmp_get_calibrated_gyro(long_data);
1009:.\inv.c       **** 
1010:.\inv.c       **** 					gyro_accuracy = inv_get_gyro_accuracy();
1011:.\inv.c       **** 					// We have gyro data in raw units, scaled by 2^15
1012:.\inv.c       **** 					scale = (1 << inv_get_gyro_fullscale()) * 250.f / (1L << 30); // From raw to dps
1013:.\inv.c       **** 					scale *= (float)M_PI / 180.f; // Convert to radian.
1014:.\inv.c       **** 					inv_convert_dmp3_to_body(long_data, scale, gyro_float);
1015:.\inv.c       **** #endif
1016:.\inv.c       **** 				}
1017:.\inv.c       **** #if (MEMS_CHIP != HW_ICM20609)
1018:.\inv.c       **** 				if (header & CPASS_CALIBR_SET) {
1019:.\inv.c       **** 					float scale;
1020:.\inv.c       **** 					compass_data_was_set = 1;
1021:.\inv.c       **** 					dmp_get_calibrated_compass(long_data);
1022:.\inv.c       **** 					compass_accuracy = inv_get_mag_accuracy();
1023:.\inv.c       **** 					scale = 1.52587890625e-005f; //COMPASS_CONVERSION
1024:.\inv.c       **** 					inv_convert_dmp3_to_body(long_data, scale, compass_float);
1025:.\inv.c       **** 				}
1026:.\inv.c       **** 
1027:.\inv.c       **** 				if (header & CPASS_SET) {
1028:.\inv.c       **** 					// Raw compass [DMP]
1029:.\inv.c       **** 					dmp_get_raw_compass(long_data);
1030:.\inv.c       **** 					compass_raw_float[0] = long_data[0] * 1.52587890625e-005f;
1031:.\inv.c       **** 					compass_raw_float[1] = long_data[1] * 1.52587890625e-005f;
1032:.\inv.c       **** 					compass_raw_float[2] = long_data[2] * 1.52587890625e-005f;
1033:.\inv.c       ****                                         compass_bias[0] = compass_raw_float[0] - compass_float[0];
1034:.\inv.c       ****                                         compass_bias[1] = compass_raw_float[1] - compass_float[1];
1035:.\inv.c       ****                                         compass_bias[2] = compass_raw_float[2] - compass_float[2];
1036:.\inv.c       **** 					raw_compass_data_was_set = 1;
1037:.\inv.c       **** 				}
1038:.\inv.c       **** #endif
1039:.\inv.c       **** 
1040:.\inv.c       **** 				if (header & QUAT6_SET) {
1041:.\inv.c       **** 					quat6_data_was_set = 1;
1042:.\inv.c       **** 					
1043:.\inv.c       **** 					dmp_get_6quaternion(long_quat);
ARM GAS  C:\Users\ADMINI~1\AppData\Local\Temp\cc0mTFUy.s 			page 35


1044:.\inv.c       ****                                         inv_convert_rotation_vector(long_quat, grv_float);
1045:.\inv.c       **** #if defined MEMS_AUGMENTED_SENSORS
1046:.\inv.c       ****                                         long gravityQ16[3], temp_gravityQ16[3];
1047:.\inv.c       **** 					long linAccQ16[3];
1048:.\inv.c       **** 					long accelQ16[3];
1049:.\inv.c       ****                                         /*Calculate Gravity*/
1050:.\inv.c       ****                                           inv_convert_rotation_vector_1(long_quat, temp_gravityQ16)
1051:.\inv.c       ****                                           inv_mems_augmented_sensors_get_gravity(gravityQ16, temp_g
1052:.\inv.c       ****                                           gravityFloat[0] = inv_q16_to_float(gravityQ16[0]);
1053:.\inv.c       ****                                           gravityFloat[1] = inv_q16_to_float(gravityQ16[1]);
1054:.\inv.c       ****                                           gravityFloat[2] = inv_q16_to_float(gravityQ16[2]);
1055:.\inv.c       ****                                         /*Calculate Linear Acceleration*/
1056:.\inv.c       ****                                           accelQ16[0] = (int32_t)((float)(accel_float[0])*(1ULL << 
1057:.\inv.c       ****                                           accelQ16[1] = (int32_t)((float)(accel_float[1])*(1ULL << 
1058:.\inv.c       ****                                           accelQ16[2] = (int32_t)((float)(accel_float[2])*(1ULL << 
1059:.\inv.c       ****                                           inv_mems_augmented_sensors_get_linearacceleration(linAccQ
1060:.\inv.c       ****                                           linAccFloat[0] = inv_q16_to_float(linAccQ16[0]);
1061:.\inv.c       ****                                           linAccFloat[1] = inv_q16_to_float(linAccQ16[1]);
1062:.\inv.c       ****                                           linAccFloat[2] = inv_q16_to_float(linAccQ16[2]);
1063:.\inv.c       **** #endif                
1064:.\inv.c       **** 				}
1065:.\inv.c       **** #if (MEMS_CHIP != HW_ICM20609)
1066:.\inv.c       **** 				/* 9axis orientation quaternion sample available from DMP FIFO */
1067:.\inv.c       **** 				if (header & QUAT9_SET) {
1068:.\inv.c       **** #if defined MEMS_AUGMENTED_SENSORS
1069:.\inv.c       **** 					long orientationQ16[3],temp_orientationQ16[3];
1070:.\inv.c       **** #endif
1071:.\inv.c       **** 
1072:.\inv.c       **** 					quat9_data_was_set = 1;
1073:.\inv.c       **** 					dmp_get_9quaternion(long_quat);
1074:.\inv.c       **** #if (MEMS_CHIP == HW_ICM20630 || MEMS_CHIP == HW_ICM20648)
1075:.\inv.c       **** 					rv_accuracy = (int)((float)inv_get_rv_accuracy() / (float)(1ULL << (29)));
1076:.\inv.c       **** #else
1077:.\inv.c       **** 					compass_accuracy = inv_get_mag_accuracy();
1078:.\inv.c       **** #endif
1079:.\inv.c       **** 					inv_convert_rotation_vector(long_quat, rv_float);
1080:.\inv.c       **** 
1081:.\inv.c       **** #if defined MEMS_AUGMENTED_SENSORS
1082:.\inv.c       ****                                         if(hal.report & PRINT_ORIENT){
1083:.\inv.c       ****                                           inv_convert_rotation_vector_1(long_quat, temp_orientation
1084:.\inv.c       ****                                           inv_mems_augmented_sensors_get_orientation(orientationQ16
1085:.\inv.c       ****                                           orientationFloat[0] = inv_q16_to_float(orientationQ16[0])
1086:.\inv.c       ****                                           orientationFloat[1] = inv_q16_to_float(orientationQ16[1])
1087:.\inv.c       ****                                           orientationFloat[2] = inv_q16_to_float(orientationQ16[2])
1088:.\inv.c       ****                                         }
1089:.\inv.c       **** #endif
1090:.\inv.c       **** 				}
1091:.\inv.c       **** 
1092:.\inv.c       **** #if (MEMS_CHIP == HW_ICM20648) 
1093:.\inv.c       **** 				/* 6axis AM orientation quaternion sample available from DMP FIFO */
1094:.\inv.c       **** 				if (header & GEOMAG_SET) {
1095:.\inv.c       **** 					/* Read 6 axis quaternion out of DMP FIFO in Q30 and convert it to Android format */
1096:.\inv.c       **** 					dmp_get_gmrvquaternion(long_quat);
1097:.\inv.c       ****                                         if(hal.report & PRINT_CUBE_GEOMAG)
1098:.\inv.c       ****                                                 inv_compute_scalar_part(long_quat, cube_gmrv);
1099:.\inv.c       ****                                         if(hal.report & PRINT_GEOMAG){
1100:.\inv.c       ****                                                 inv_convert_rotation_vector(long_quat, gmrv_float);
ARM GAS  C:\Users\ADMINI~1\AppData\Local\Temp\cc0mTFUy.s 			page 36


1101:.\inv.c       ****                                                 /* Read geomagnetic rotation vector heading accurac
1102:.\inv.c       ****                                                 gmrv_accuracy = (int)((float)inv_get_gmrv_accuracy(
1103:.\inv.c       ****                                         }
1104:.\inv.c       ****                                         gmrv_quat_was_set = 1;
1105:.\inv.c       **** 				}
1106:.\inv.c       **** #endif
1107:.\inv.c       **** 
1108:.\inv.c       ****                                 
1109:.\inv.c       **** #if (MEMS_CHIP == HW_ICM20645e) || (MEMS_CHIP == HW_ICM20648) 
1110:.\inv.c       **** 				/* Activity recognition sample available from DMP FIFO */
1111:.\inv.c       **** 				if (header2 & ACT_RECOG_SET) {
1112:.\inv.c       **** 					/* Read activity type and associated timestamp out of DMP FIFO
1113:.\inv.c       **** 					activity type is a set of 2 bytes :
1114:.\inv.c       **** 					- high byte indicates activity start
1115:.\inv.c       **** 					- low byte indicates activity end */
1116:.\inv.c       **** 					dmp_get_bac_state(&bac_state);
1117:.\inv.c       **** 					dmp_get_bac_ts(&bac_ts);
1118:.\inv.c       **** 
1119:.\inv.c       **** 					if (hal.report & PRINT_TILT) {
1120:.\inv.c       **** 						/* Tilt information is inside BAC, so extract it out */
1121:.\inv.c       **** 
1122:.\inv.c       **** 						/* Check if bit tilt is set for activity start byte */
1123:.\inv.c       **** 						if ((bac_state >> 8) & BAC_TILT) {
1124:.\inv.c       **** 							/* Start of tilt detected */
1125:.\inv.c       **** 							tilt_state = 2;
1126:.\inv.c       **** 						}
1127:.\inv.c       **** 						/* Check if bit tilt is set for activity end byte */
1128:.\inv.c       **** 						else if (bac_state & BAC_TILT) {
1129:.\inv.c       **** 							/* End of tilt detected */
1130:.\inv.c       **** 							tilt_state = 1;
1131:.\inv.c       **** 						}
1132:.\inv.c       **** 
1133:.\inv.c       **** 					}
1134:.\inv.c       **** 
1135:.\inv.c       **** 					if (hal.report & PRINT_BAC)
1136:.\inv.c       **** 						bac_data_was_set = 1;
1137:.\inv.c       **** 					if (hal.report & PRINT_TILT)
1138:.\inv.c       **** 						tilt_data_was_set = 1;
1139:.\inv.c       **** 				}
1140:.\inv.c       **** 
1141:.\inv.c       **** 				if (header2 & FLIP_PICKUP_SET) {
1142:.\inv.c       **** 					if (hal.report & PRINT_FLIP_PICKUP) {
1143:.\inv.c       **** 						dmp_get_flip_pickup_state(&flip_pickup);
1144:.\inv.c       **** 						flip_data_was_set = 1;
1145:.\inv.c       **** 					}
1146:.\inv.c       **** 				}
1147:.\inv.c       **** #endif
1148:.\inv.c       **** #endif
1149:.\inv.c       **** 
1150:.\inv.c       **** 				process_sensor_output();
1151:.\inv.c       **** 			}
1152:.\inv.c       **** 			if (!data_left_in_fifo)
1153:.\inv.c       **** 				break;
1154:.\inv.c       **** 
1155:.\inv.c       **** 		} while (data_left_in_fifo);
1156:.\inv.c       **** 
1157:.\inv.c       **** #if (MEMS_CHIP == HW_ICM20609)                
ARM GAS  C:\Users\ADMINI~1\AppData\Local\Temp\cc0mTFUy.s 			page 37


1158:.\inv.c       **** 		if (int_read_back & DMP_INT_SMD) {
1159:.\inv.c       ****                   if (hal.report & PRINT_SMD){
1160:.\inv.c       **** 				print_command_console(">> SMD Interrupt *********\r\n");
1161:.\inv.c       ****                   }
1162:.\inv.c       ****                         
1163:.\inv.c       **** 		}
1164:.\inv.c       **** #endif
1165:.\inv.c       **** #if (MEMS_CHIP != HW_ICM20609)                
1166:.\inv.c       ****                 if (int_read_back & BIT_MSG_DMP_INT_3) {
1167:.\inv.c       **** #else
1168:.\inv.c       **** 		if (int_read_back & DMP_INT_PED) {
1169:.\inv.c       **** #endif                  
1170:.\inv.c       ****                   if (hal.report & PRINT_STEP_DETECTOR){
1171:.\inv.c       **** //				print_command_console("Step Detected>>>>>>>\r\n");
1172:.\inv.c       ****                                 
1173:.\inv.c       ****                   }
1174:.\inv.c       ****                 }
1175:.\inv.c       **** #if (MEMS_CHIP != HW_ICM20609)                
1176:.\inv.c       **** //                if (header & PED_STEPDET_SET){
1177:.\inv.c       **** #else
1178:.\inv.c       **** 		if (int_read_back & DMP_INT_PED) {
1179:.\inv.c       **** #endif
1180:.\inv.c       ****                         if (hal.report & PRINT_STEP_COUNTER){
 830              		.loc 1 1180 0
 831 0060 D14B     		ldr	r3, .L180+4
 832 0062 1B68     		ldr	r3, [r3]
 833 0064 5B05     		lsl	r3, r3, #21
 834 0066 00D4     		bmi	.LCB749
 835 0068 C8E1     		b	.L93	@long jump
 836              	.LCB749:
 837 006a B9E1     		b	.L179
 838              	.L95:
 920:.\inv.c       **** 				ts = (currentIrqTimeUs - lastIrqTimeUs) / total_sample_cnt;
 839              		.loc 1 920 0
 840 006c CF4D     		ldr	r5, .L180+8
 841 006e 2A68     		ldr	r2, [r5]
 842 0070 6B68     		ldr	r3, [r5, #4]
 843 0072 111C     		mov	r1, r2
 844 0074 1943     		orr	r1, r3
 845 0076 08D0     		beq	.L98
 921:.\inv.c       ****                         
 846              		.loc 1 921 0
 847 0078 0021     		mov	r1, #0
 848 007a 5042     		neg	r0, r2
 849 007c 9941     		sbc	r1, r3
 850 007e 3288     		ldrh	r2, [r6]
 851 0080 3B1C     		mov	r3, r7
 852 0082 FFF7FEFF 		bl	__aeabi_ldivmod
 853              	.LVL67:
 854 0086 A860     		str	r0, [r5, #8]
 855 0088 E960     		str	r1, [r5, #12]
 856              	.L98:
 923:.\inv.c       ****                         while (total_sample_cnt--){
 857              		.loc 1 923 0
 858 008a 0022     		mov	r2, #0
 859 008c 0023     		mov	r3, #0
 860 008e 2A60     		str	r2, [r5]
ARM GAS  C:\Users\ADMINI~1\AppData\Local\Temp\cc0mTFUy.s 			page 38


 861 0090 6B60     		str	r3, [r5, #4]
 862              	.L100:
 924:.\inv.c       **** 				if (inv_mems_fifo_pop(&header, &header2, &data_left_in_fifo))
 863              		.loc 1 924 0
 864 0092 02AB     		add	r3, sp, #8
 865 0094 9A1D     		add	r2, r3, #6
 866 0096 DB88     		ldrh	r3, [r3, #6]
 867 0098 591E     		sub	r1, r3, #1
 868 009a 1180     		strh	r1, [r2]
 869 009c 002B     		cmp	r3, #0
 870 009e 06D0     		beq	.L122
 925:.\inv.c       **** 					break;
 871              		.loc 1 925 0
 872 00a0 201C     		mov	r0, r4
 873 00a2 03A9     		add	r1, sp, #12
 874 00a4 04AA     		add	r2, sp, #16
 875 00a6 FFF7FEFF 		bl	inv_mems_fifo_pop
 876              	.LVL68:
 877 00aa 0028     		cmp	r0, #0
 878 00ac 03D0     		beq	.L101
 879              	.L122:
1152:.\inv.c       **** 				break;
 880              		.loc 1 1152 0
 881 00ae 049B     		ldr	r3, [sp, #16]
 882 00b0 002B     		cmp	r3, #0
 883 00b2 CCD1     		bne	.L103
 884 00b4 D4E7     		b	.L102
 885              	.L101:
 928:.\inv.c       **** 					float scale;
 886              		.loc 1 928 0
 887 00b6 0022     		mov	r2, #0
 888 00b8 A35E     		ldrsh	r3, [r4, r2]
 889 00ba 002B     		cmp	r3, #0
 890 00bc 23DA     		bge	.L104
 891              	.LBB12:
 931:.\inv.c       **** 					dmp_get_accel(long_data);
 892              		.loc 1 931 0
 893 00be BA4E     		ldr	r6, .L180+4
 894 00c0 0125     		mov	r5, #1
 895 00c2 331C     		mov	r3, r6
 932:.\inv.c       **** 
 896              		.loc 1 932 0
 897 00c4 07A8     		add	r0, sp, #28
 931:.\inv.c       **** 					dmp_get_accel(long_data);
 898              		.loc 1 931 0
 899 00c6 5433     		add	r3, r3, #84
 900 00c8 1D80     		strh	r5, [r3]
 932:.\inv.c       **** 
 901              		.loc 1 932 0
 902 00ca FFF7FEFF 		bl	dmp_get_accel
 903              	.LVL69:
 934:.\inv.c       **** 					scale = (1 << inv_get_accel_fullscale()) * 2.f / (1L << 30); // Convert from raw units to g's
 904              		.loc 1 934 0
 905 00ce FFF7FEFF 		bl	inv_get_accel_accuracy
 906              	.LVL70:
 907 00d2 B065     		str	r0, [r6, #88]
 935:.\inv.c       **** 					// scale *= 9.80665f; // Convert to m/s^2
ARM GAS  C:\Users\ADMINI~1\AppData\Local\Temp\cc0mTFUy.s 			page 39


 908              		.loc 1 935 0
 909 00d4 FFF7FEFF 		bl	inv_get_accel_fullscale
 910              	.LVL71:
 911 00d8 8540     		lsl	r5, r5, r0
 912 00da 281C     		mov	r0, r5
 913              	.LVL72:
 914 00dc FFF7FEFF 		bl	__aeabi_i2f
 915              	.LVL73:
 916 00e0 011C     		add	r1, r0, #0
 917 00e2 FFF7FEFF 		bl	__aeabi_fadd
 918              	.LVL74:
 919 00e6 C221     		mov	r1, #194
 920 00e8 8905     		lsl	r1, r1, #22
 921 00ea FFF7FEFF 		bl	__aeabi_fmul
 922              	.LVL75:
 937:.\inv.c       **** 					
 923              		.loc 1 937 0
 924 00ee B04D     		ldr	r5, .L180+12
 935:.\inv.c       **** 					// scale *= 9.80665f; // Convert to m/s^2
 925              		.loc 1 935 0
 926 00f0 011C     		add	r1, r0, #0
 937:.\inv.c       **** 					
 927              		.loc 1 937 0
 928 00f2 2A1C     		mov	r2, r5
 929 00f4 07A8     		add	r0, sp, #28
 930 00f6 FFF7FEFF 		bl	inv_convert_dmp3_to_body
 931              	.LVL76:
 939:.\inv.c       **** 				}
 932              		.loc 1 939 0
 933 00fa 2868     		ldr	r0, [r5]
 934 00fc 6968     		ldr	r1, [r5, #4]
 935 00fe AA68     		ldr	r2, [r5, #8]
 936 0100 0023     		mov	r3, #0
 937 0102 FFF7FEFF 		bl	BackBone_SetAccelerometerData
 938              	.LVL77:
 939              	.L104:
 940              	.LBE12:
 943:.\inv.c       **** 					float scale;
 941              		.loc 1 943 0
 942 0106 2388     		ldrh	r3, [r4]
 943 0108 5B04     		lsl	r3, r3, #17
 944 010a 76D5     		bpl	.L105
 945              	.LBB13:
 950:.\inv.c       **** 					dmp_get_raw_gyro(short_data);
 946              		.loc 1 950 0
 947 010c 0126     		mov	r6, #1
 945:.\inv.c       **** #if ((MEMS_CHIP == HW_ICM30630) || (MEMS_CHIP == HW_ICM20648) || (MEMS_CHIP == HW_ICM20609))
 948              		.loc 1 945 0
 949 010e 0021     		mov	r1, #0
 950 0110 0C22     		mov	r2, #12
 951 0112 0DA8     		add	r0, sp, #52
 952 0114 FFF7FEFF 		bl	memset
 953              	.LVL78:
 947:.\inv.c       **** #endif
 954              		.loc 1 947 0
 955 0118 0C22     		mov	r2, #12
 956 011a 0021     		mov	r1, #0
ARM GAS  C:\Users\ADMINI~1\AppData\Local\Temp\cc0mTFUy.s 			page 40


 957 011c 10A8     		add	r0, sp, #64
 958 011e FFF7FEFF 		bl	memset
 959              	.LVL79:
 951:.\inv.c       ****                                         scale = (1 << inv_get_gyro_fullscale()) * 250.f / (1L << 15
 960              		.loc 1 951 0
 961 0122 05AD     		add	r5, sp, #20
 950:.\inv.c       **** 					dmp_get_raw_gyro(short_data);
 962              		.loc 1 950 0
 963 0124 A14B     		ldr	r3, .L180+8
 951:.\inv.c       ****                                         scale = (1 << inv_get_gyro_fullscale()) * 250.f / (1L << 15
 964              		.loc 1 951 0
 965 0126 281C     		mov	r0, r5
 950:.\inv.c       **** 					dmp_get_raw_gyro(short_data);
 966              		.loc 1 950 0
 967 0128 1E82     		strh	r6, [r3, #16]
 951:.\inv.c       ****                                         scale = (1 << inv_get_gyro_fullscale()) * 250.f / (1L << 15
 968              		.loc 1 951 0
 969 012a FFF7FEFF 		bl	dmp_get_raw_gyro
 970              	.LVL80:
 952:.\inv.c       **** 					scale *= (float)M_PI / 180.f; // Convert to radian.
 971              		.loc 1 952 0
 972 012e FFF7FEFF 		bl	inv_get_gyro_fullscale
 973              	.LVL81:
 974 0132 331C     		mov	r3, r6
 975 0134 8340     		lsl	r3, r3, r0
 976 0136 181C     		mov	r0, r3
 977 0138 FFF7FEFF 		bl	__aeabi_i2f
 978              	.LVL82:
 979 013c 9D49     		ldr	r1, .L180+16
 980 013e FFF7FEFF 		bl	__aeabi_fmul
 981              	.LVL83:
 982 0142 E021     		mov	r1, #224
 983 0144 8905     		lsl	r1, r1, #22
 984 0146 FFF7FEFF 		bl	__aeabi_fmul
 985              	.LVL84:
 954:.\inv.c       ****                                         raw_data[1] = (long)short_data[1];
 986              		.loc 1 954 0
 987 014a 0022     		mov	r2, #0
 988 014c AB5E     		ldrsh	r3, [r5, r2]
 953:.\inv.c       ****                                         raw_data[0] = (long)short_data[0];
 989              		.loc 1 953 0
 990 014e 9A49     		ldr	r1, .L180+20
 954:.\inv.c       ****                                         raw_data[1] = (long)short_data[1];
 991              		.loc 1 954 0
 992 0150 0D93     		str	r3, [sp, #52]
 955:.\inv.c       ****                                         raw_data[2] = (long)short_data[2];
 993              		.loc 1 955 0
 994 0152 0222     		mov	r2, #2
 995 0154 AB5E     		ldrsh	r3, [r5, r2]
 996 0156 0E93     		str	r3, [sp, #56]
 956:.\inv.c       ****                                         inv_convert_dmp3_to_body(raw_data, scale, gyro_raw_float);
 997              		.loc 1 956 0
 998 0158 0422     		mov	r2, #4
 999 015a AB5E     		ldrsh	r3, [r5, r2]
 1000 015c 0F93     		str	r3, [sp, #60]
 953:.\inv.c       ****                                         raw_data[0] = (long)short_data[0];
 1001              		.loc 1 953 0
ARM GAS  C:\Users\ADMINI~1\AppData\Local\Temp\cc0mTFUy.s 			page 41


 1002 015e FFF7FEFF 		bl	__aeabi_fmul
 1003              	.LVL85:
 957:.\inv.c       **** 					
 1004              		.loc 1 957 0
 1005 0162 964A     		ldr	r2, .L180+24
 953:.\inv.c       ****                                         raw_data[0] = (long)short_data[0];
 1006              		.loc 1 953 0
 1007 0164 011C     		add	r1, r0, #0
 957:.\inv.c       **** 					
 1008              		.loc 1 957 0
 1009 0166 0DA8     		add	r0, sp, #52
 1010 0168 FFF7FEFF 		bl	inv_convert_dmp3_to_body
 1011              	.LVL86:
 959:.\inv.c       **** 										
 1012              		.loc 1 959 0
 1013 016c 944F     		ldr	r7, .L180+28
 1014 016e BA68     		ldr	r2, [r7, #8]
 1015 0170 7968     		ldr	r1, [r7, #4]
 1016 0172 3868     		ldr	r0, [r7]
 1017 0174 FFF7FEFF 		bl	BackBone_SetGyroscopeData
 1018              	.LVL87:
 964:.\inv.c       **** 					scale *= (float)M_PI / 180.f; // Convert to radian.
 1019              		.loc 1 964 0
 1020 0178 FFF7FEFF 		bl	inv_get_gyro_fullscale
 1021              	.LVL88:
 1022 017c 331C     		mov	r3, r6
 1023 017e 8340     		lsl	r3, r3, r0
 1024 0180 181C     		mov	r0, r3
 1025 0182 FFF7FEFF 		bl	__aeabi_i2f
 1026              	.LVL89:
 1027 0186 8B49     		ldr	r1, .L180+16
 1028 0188 FFF7FEFF 		bl	__aeabi_fmul
 1029              	.LVL90:
 1030 018c D621     		mov	r1, #214
 1031 018e 8905     		lsl	r1, r1, #22
 1032 0190 FFF7FEFF 		bl	__aeabi_fmul
 1033              	.LVL91:
 965:.\inv.c       **** 					dmp_get_gyro_bias(short_data);
 1034              		.loc 1 965 0
 1035 0194 8849     		ldr	r1, .L180+20
 1036 0196 FFF7FEFF 		bl	__aeabi_fmul
 1037              	.LVL92:
 1038 019a 0090     		str	r0, [sp]
 1039              	.LVL93:
 966:.\inv.c       **** 					bias_data[0] = (long)short_data[0];
 1040              		.loc 1 966 0
 1041 019c 281C     		mov	r0, r5
 1042              	.LVL94:
 1043 019e FFF7FEFF 		bl	dmp_get_gyro_bias
 1044              	.LVL95:
 967:.\inv.c       **** 					bias_data[1] = (long)short_data[1];
 1045              		.loc 1 967 0
 1046 01a2 0022     		mov	r2, #0
 1047 01a4 AB5E     		ldrsh	r3, [r5, r2]
 970:.\inv.c       **** 
 1048              		.loc 1 970 0
 1049 01a6 10A8     		add	r0, sp, #64
ARM GAS  C:\Users\ADMINI~1\AppData\Local\Temp\cc0mTFUy.s 			page 42


 967:.\inv.c       **** 					bias_data[1] = (long)short_data[1];
 1050              		.loc 1 967 0
 1051 01a8 1093     		str	r3, [sp, #64]
 968:.\inv.c       **** 					bias_data[2] = (long)short_data[2];
 1052              		.loc 1 968 0
 1053 01aa 0222     		mov	r2, #2
 1054 01ac AB5E     		ldrsh	r3, [r5, r2]
 970:.\inv.c       **** 
 1055              		.loc 1 970 0
 1056 01ae 0099     		ldr	r1, [sp]
 968:.\inv.c       **** 					bias_data[2] = (long)short_data[2];
 1057              		.loc 1 968 0
 1058 01b0 1193     		str	r3, [sp, #68]
 969:.\inv.c       **** 					inv_convert_dmp3_to_body(bias_data, scale, gyro_bias_float);
 1059              		.loc 1 969 0
 1060 01b2 0422     		mov	r2, #4
 1061 01b4 AB5E     		ldrsh	r3, [r5, r2]
 970:.\inv.c       **** 
 1062              		.loc 1 970 0
 1063 01b6 834A     		ldr	r2, .L180+32
 969:.\inv.c       **** 					inv_convert_dmp3_to_body(bias_data, scale, gyro_bias_float);
 1064              		.loc 1 969 0
 1065 01b8 1293     		str	r3, [sp, #72]
 970:.\inv.c       **** 
 1066              		.loc 1 970 0
 1067 01ba FFF7FEFF 		bl	inv_convert_dmp3_to_body
 1068              	.LVL96:
 972:.\inv.c       **** 					// shift to Q20 to do all operations in Q20
 1069              		.loc 1 972 0
 1070 01be 7A4D     		ldr	r5, .L180+4
 1071 01c0 2B68     		ldr	r3, [r5]
 1072 01c2 9B07     		lsl	r3, r3, #30
 1073 01c4 15D5     		bpl	.L106
 974:.\inv.c       **** 					raw_data[1] = raw_data[1] << 5;
 1074              		.loc 1 974 0
 1075 01c6 0D9B     		ldr	r3, [sp, #52]
 977:.\inv.c       **** 					inv_convert_dmp3_to_body(long_data, scale, gyro_float);
 1076              		.loc 1 977 0
 1077 01c8 0DA9     		add	r1, sp, #52
 974:.\inv.c       **** 					raw_data[1] = raw_data[1] << 5;
 1078              		.loc 1 974 0
 1079 01ca 5B01     		lsl	r3, r3, #5
 1080 01cc 0D93     		str	r3, [sp, #52]
 975:.\inv.c       **** 					raw_data[2] = raw_data[2] << 5;
 1081              		.loc 1 975 0
 1082 01ce 0E9B     		ldr	r3, [sp, #56]
 977:.\inv.c       **** 					inv_convert_dmp3_to_body(long_data, scale, gyro_float);
 1083              		.loc 1 977 0
 1084 01d0 10AA     		add	r2, sp, #64
 975:.\inv.c       **** 					raw_data[2] = raw_data[2] << 5;
 1085              		.loc 1 975 0
 1086 01d2 5B01     		lsl	r3, r3, #5
 1087 01d4 0E93     		str	r3, [sp, #56]
 976:.\inv.c       **** 					inv_mems_dmp_get_calibrated_gyro(long_data, raw_data, bias_data);
 1088              		.loc 1 976 0
 1089 01d6 0F9B     		ldr	r3, [sp, #60]
 977:.\inv.c       **** 					inv_convert_dmp3_to_body(long_data, scale, gyro_float);
ARM GAS  C:\Users\ADMINI~1\AppData\Local\Temp\cc0mTFUy.s 			page 43


 1090              		.loc 1 977 0
 1091 01d8 07A8     		add	r0, sp, #28
 976:.\inv.c       **** 					inv_mems_dmp_get_calibrated_gyro(long_data, raw_data, bias_data);
 1092              		.loc 1 976 0
 1093 01da 0193     		str	r3, [sp, #4]
 1094 01dc 5B01     		lsl	r3, r3, #5
 1095 01de 0F93     		str	r3, [sp, #60]
 979:.\inv.c       ****                                       }
 1096              		.loc 1 979 0
 1097 01e0 5C35     		add	r5, r5, #92
 977:.\inv.c       **** 					inv_convert_dmp3_to_body(long_data, scale, gyro_float);
 1098              		.loc 1 977 0
 1099 01e2 FFF7FEFF 		bl	inv_mems_dmp_get_calibrated_gyro
 1100              	.LVL97:
 978:.\inv.c       ****                                         gyro_data_was_set = 1;
 1101              		.loc 1 978 0
 1102 01e6 07A8     		add	r0, sp, #28
 1103 01e8 0099     		ldr	r1, [sp]
 1104 01ea 3A1C     		mov	r2, r7
 1105 01ec FFF7FEFF 		bl	inv_convert_dmp3_to_body
 1106              	.LVL98:
 979:.\inv.c       ****                                       }
 1107              		.loc 1 979 0
 1108 01f0 2E80     		strh	r6, [r5]
 1109              	.L106:
 981:.\inv.c       ****                                       
 1110              		.loc 1 981 0
 1111 01f2 FFF7FEFF 		bl	inv_get_gyro_accuracy
 1112              	.LVL99:
 1113 01f6 6C4B     		ldr	r3, .L180+4
 1114 01f8 1866     		str	r0, [r3, #96]
 1115              	.LVL100:
 1116              	.L105:
 1117              	.LBE13:
1018:.\inv.c       **** 					float scale;
 1118              		.loc 1 1018 0
 1119 01fa 2388     		ldrh	r3, [r4]
 1120 01fc 9B06     		lsl	r3, r3, #26
 1121 01fe 0ED5     		bpl	.L107
 1122              	.LBB14:
1020:.\inv.c       **** 					dmp_get_calibrated_compass(long_data);
 1123              		.loc 1 1020 0
 1124 0200 0123     		mov	r3, #1
 1125 0202 6A4D     		ldr	r5, .L180+8
1021:.\inv.c       **** 					compass_accuracy = inv_get_mag_accuracy();
 1126              		.loc 1 1021 0
 1127 0204 07A8     		add	r0, sp, #28
1020:.\inv.c       **** 					dmp_get_calibrated_compass(long_data);
 1128              		.loc 1 1020 0
 1129 0206 6B82     		strh	r3, [r5, #18]
1021:.\inv.c       **** 					compass_accuracy = inv_get_mag_accuracy();
 1130              		.loc 1 1021 0
 1131 0208 FFF7FEFF 		bl	dmp_get_calibrated_compass
 1132              	.LVL101:
1022:.\inv.c       **** 					scale = 1.52587890625e-005f; //COMPASS_CONVERSION
 1133              		.loc 1 1022 0
 1134 020c FFF7FEFF 		bl	inv_get_mag_accuracy
ARM GAS  C:\Users\ADMINI~1\AppData\Local\Temp\cc0mTFUy.s 			page 44


 1135              	.LVL102:
1024:.\inv.c       **** 				}
 1136              		.loc 1 1024 0
 1137 0210 DE21     		mov	r1, #222
1022:.\inv.c       **** 					scale = 1.52587890625e-005f; //COMPASS_CONVERSION
 1138              		.loc 1 1022 0
 1139 0212 6861     		str	r0, [r5, #20]
 1140              	.LVL103:
1024:.\inv.c       **** 				}
 1141              		.loc 1 1024 0
 1142 0214 8905     		lsl	r1, r1, #22
 1143 0216 07A8     		add	r0, sp, #28
 1144 0218 6B4A     		ldr	r2, .L180+36
 1145 021a FFF7FEFF 		bl	inv_convert_dmp3_to_body
 1146              	.LVL104:
 1147              	.L107:
 1148              	.LBE14:
1027:.\inv.c       **** 					// Raw compass [DMP]
 1149              		.loc 1 1027 0
 1150 021e 2388     		ldrh	r3, [r4]
 1151 0220 9B04     		lsl	r3, r3, #18
 1152 0222 32D5     		bpl	.L108
1029:.\inv.c       **** 					compass_raw_float[0] = long_data[0] * 1.52587890625e-005f;
 1153              		.loc 1 1029 0
 1154 0224 07A8     		add	r0, sp, #28
 1155 0226 FFF7FEFF 		bl	dmp_get_raw_compass
 1156              	.LVL105:
1030:.\inv.c       **** 					compass_raw_float[1] = long_data[1] * 1.52587890625e-005f;
 1157              		.loc 1 1030 0
 1158 022a 0798     		ldr	r0, [sp, #28]
 1159 022c FFF7FEFF 		bl	__aeabi_i2f
 1160              	.LVL106:
 1161 0230 DE21     		mov	r1, #222
 1162 0232 8905     		lsl	r1, r1, #22
 1163 0234 FFF7FEFF 		bl	__aeabi_fmul
 1164              	.LVL107:
 1165 0238 644D     		ldr	r5, .L180+40
 1166 023a 071C     		add	r7, r0, #0
 1167 023c 2860     		str	r0, [r5]
1031:.\inv.c       **** 					compass_raw_float[2] = long_data[2] * 1.52587890625e-005f;
 1168              		.loc 1 1031 0
 1169 023e 0898     		ldr	r0, [sp, #32]
 1170 0240 FFF7FEFF 		bl	__aeabi_i2f
 1171              	.LVL108:
 1172 0244 DE21     		mov	r1, #222
 1173 0246 8905     		lsl	r1, r1, #22
 1174 0248 FFF7FEFF 		bl	__aeabi_fmul
 1175              	.LVL109:
 1176 024c 6860     		str	r0, [r5, #4]
 1177 024e 0090     		str	r0, [sp]
1032:.\inv.c       ****                                         compass_bias[0] = compass_raw_float[0] - compass_float[0];
 1178              		.loc 1 1032 0
 1179 0250 0998     		ldr	r0, [sp, #36]
 1180 0252 FFF7FEFF 		bl	__aeabi_i2f
 1181              	.LVL110:
 1182 0256 DE21     		mov	r1, #222
 1183 0258 8905     		lsl	r1, r1, #22
ARM GAS  C:\Users\ADMINI~1\AppData\Local\Temp\cc0mTFUy.s 			page 45


 1184 025a FFF7FEFF 		bl	__aeabi_fmul
 1185              	.LVL111:
1033:.\inv.c       ****                                         compass_bias[1] = compass_raw_float[1] - compass_float[1];
 1186              		.loc 1 1033 0
 1187 025e 5A4E     		ldr	r6, .L180+36
1032:.\inv.c       ****                                         compass_bias[0] = compass_raw_float[0] - compass_float[0];
 1188              		.loc 1 1032 0
 1189 0260 A860     		str	r0, [r5, #8]
 1190 0262 0190     		str	r0, [sp, #4]
1033:.\inv.c       ****                                         compass_bias[1] = compass_raw_float[1] - compass_float[1];
 1191              		.loc 1 1033 0
 1192 0264 3168     		ldr	r1, [r6]
 1193 0266 381C     		add	r0, r7, #0
 1194 0268 FFF7FEFF 		bl	__aeabi_fsub
 1195              	.LVL112:
 1196 026c 584D     		ldr	r5, .L180+44
1034:.\inv.c       ****                                         compass_bias[2] = compass_raw_float[2] - compass_float[2];
 1197              		.loc 1 1034 0
 1198 026e 7168     		ldr	r1, [r6, #4]
1033:.\inv.c       ****                                         compass_bias[1] = compass_raw_float[1] - compass_float[1];
 1199              		.loc 1 1033 0
 1200 0270 2860     		str	r0, [r5]
1034:.\inv.c       ****                                         compass_bias[2] = compass_raw_float[2] - compass_float[2];
 1201              		.loc 1 1034 0
 1202 0272 0098     		ldr	r0, [sp]
 1203 0274 FFF7FEFF 		bl	__aeabi_fsub
 1204              	.LVL113:
1035:.\inv.c       **** 					raw_compass_data_was_set = 1;
 1205              		.loc 1 1035 0
 1206 0278 B168     		ldr	r1, [r6, #8]
1034:.\inv.c       ****                                         compass_bias[2] = compass_raw_float[2] - compass_float[2];
 1207              		.loc 1 1034 0
 1208 027a 6860     		str	r0, [r5, #4]
1035:.\inv.c       **** 					raw_compass_data_was_set = 1;
 1209              		.loc 1 1035 0
 1210 027c 0198     		ldr	r0, [sp, #4]
 1211 027e FFF7FEFF 		bl	__aeabi_fsub
 1212              	.LVL114:
1036:.\inv.c       **** 				}
 1213              		.loc 1 1036 0
 1214 0282 0122     		mov	r2, #1
 1215 0284 494B     		ldr	r3, .L180+8
1035:.\inv.c       **** 					raw_compass_data_was_set = 1;
 1216              		.loc 1 1035 0
 1217 0286 A860     		str	r0, [r5, #8]
1036:.\inv.c       **** 				}
 1218              		.loc 1 1036 0
 1219 0288 1A83     		strh	r2, [r3, #24]
 1220              	.L108:
1040:.\inv.c       **** 					quat6_data_was_set = 1;
 1221              		.loc 1 1040 0
 1222 028a 2388     		ldrh	r3, [r4]
 1223 028c 1B05     		lsl	r3, r3, #20
 1224 028e 0AD5     		bpl	.L109
1041:.\inv.c       **** 					
 1225              		.loc 1 1041 0
 1226 0290 0122     		mov	r2, #1
ARM GAS  C:\Users\ADMINI~1\AppData\Local\Temp\cc0mTFUy.s 			page 46


 1227 0292 454B     		ldr	r3, .L180+4
1043:.\inv.c       ****                                         inv_convert_rotation_vector(long_quat, grv_float);
 1228              		.loc 1 1043 0
 1229 0294 0AA8     		add	r0, sp, #40
1041:.\inv.c       **** 					
 1230              		.loc 1 1041 0
 1231 0296 6433     		add	r3, r3, #100
 1232 0298 1A80     		strh	r2, [r3]
1043:.\inv.c       ****                                         inv_convert_rotation_vector(long_quat, grv_float);
 1233              		.loc 1 1043 0
 1234 029a FFF7FEFF 		bl	dmp_get_6quaternion
 1235              	.LVL115:
1044:.\inv.c       **** #if defined MEMS_AUGMENTED_SENSORS
 1236              		.loc 1 1044 0
 1237 029e 0AA8     		add	r0, sp, #40
 1238 02a0 4C49     		ldr	r1, .L180+48
 1239 02a2 FFF7FEFF 		bl	inv_convert_rotation_vector
 1240              	.LVL116:
 1241              	.L109:
1067:.\inv.c       **** #if defined MEMS_AUGMENTED_SENSORS
 1242              		.loc 1 1067 0
 1243 02a6 2388     		ldrh	r3, [r4]
 1244 02a8 5B05     		lsl	r3, r3, #21
 1245 02aa 16D5     		bpl	.L110
1072:.\inv.c       **** 					dmp_get_9quaternion(long_quat);
 1246              		.loc 1 1072 0
 1247 02ac 0122     		mov	r2, #1
 1248 02ae 3E4B     		ldr	r3, .L180+4
1073:.\inv.c       **** #if (MEMS_CHIP == HW_ICM20630 || MEMS_CHIP == HW_ICM20648)
 1249              		.loc 1 1073 0
 1250 02b0 0AA8     		add	r0, sp, #40
1072:.\inv.c       **** 					dmp_get_9quaternion(long_quat);
 1251              		.loc 1 1072 0
 1252 02b2 7833     		add	r3, r3, #120
 1253 02b4 1A80     		strh	r2, [r3]
1073:.\inv.c       **** #if (MEMS_CHIP == HW_ICM20630 || MEMS_CHIP == HW_ICM20648)
 1254              		.loc 1 1073 0
 1255 02b6 FFF7FEFF 		bl	dmp_get_9quaternion
 1256              	.LVL117:
1075:.\inv.c       **** #else
 1257              		.loc 1 1075 0
 1258 02ba FFF7FEFF 		bl	inv_get_rv_accuracy
 1259              	.LVL118:
 1260 02be FFF7FEFF 		bl	__aeabi_i2f
 1261              	.LVL119:
 1262 02c2 C421     		mov	r1, #196
 1263 02c4 8905     		lsl	r1, r1, #22
 1264 02c6 FFF7FEFF 		bl	__aeabi_fmul
 1265              	.LVL120:
 1266 02ca FFF7FEFF 		bl	__aeabi_f2iz
 1267              	.LVL121:
 1268 02ce 374B     		ldr	r3, .L180+8
1079:.\inv.c       **** 
 1269              		.loc 1 1079 0
 1270 02d0 4149     		ldr	r1, .L180+52
1075:.\inv.c       **** #else
 1271              		.loc 1 1075 0
ARM GAS  C:\Users\ADMINI~1\AppData\Local\Temp\cc0mTFUy.s 			page 47


 1272 02d2 D861     		str	r0, [r3, #28]
1079:.\inv.c       **** 
 1273              		.loc 1 1079 0
 1274 02d4 0AA8     		add	r0, sp, #40
 1275 02d6 FFF7FEFF 		bl	inv_convert_rotation_vector
 1276              	.LVL122:
 1277              	.L110:
1094:.\inv.c       **** 					/* Read 6 axis quaternion out of DMP FIFO in Q30 and convert it to Android format */
 1278              		.loc 1 1094 0
 1279 02da 2388     		ldrh	r3, [r4]
 1280 02dc DB05     		lsl	r3, r3, #23
 1281 02de 22D5     		bpl	.L111
1096:.\inv.c       ****                                         if(hal.report & PRINT_CUBE_GEOMAG)
 1282              		.loc 1 1096 0
 1283 02e0 0AA8     		add	r0, sp, #40
 1284 02e2 FFF7FEFF 		bl	dmp_get_gmrvquaternion
 1285              	.LVL123:
1097:.\inv.c       ****                                                 inv_compute_scalar_part(long_quat, cube_gmrv);
 1286              		.loc 1 1097 0
 1287 02e6 304E     		ldr	r6, .L180+4
 1288 02e8 3368     		ldr	r3, [r6]
 1289 02ea 351C     		mov	r5, r6
 1290 02ec 5B03     		lsl	r3, r3, #13
 1291 02ee 04D5     		bpl	.L112
1098:.\inv.c       ****                                         if(hal.report & PRINT_GEOMAG){
 1292              		.loc 1 1098 0
 1293 02f0 2E49     		ldr	r1, .L180+8
 1294 02f2 0AA8     		add	r0, sp, #40
 1295 02f4 2031     		add	r1, r1, #32
 1296 02f6 FFF7FEFF 		bl	inv_compute_scalar_part
 1297              	.LVL124:
 1298              	.L112:
1099:.\inv.c       ****                                                 inv_convert_rotation_vector(long_quat, gmrv_float);
 1299              		.loc 1 1099 0
 1300 02fa 3368     		ldr	r3, [r6]
 1301 02fc 9B04     		lsl	r3, r3, #18
 1302 02fe 0FD5     		bpl	.L113
1100:.\inv.c       ****                                                 /* Read geomagnetic rotation vector heading accurac
 1303              		.loc 1 1100 0
 1304 0300 3649     		ldr	r1, .L180+56
 1305 0302 0AA8     		add	r0, sp, #40
 1306 0304 FFF7FEFF 		bl	inv_convert_rotation_vector
 1307              	.LVL125:
1102:.\inv.c       ****                                         }
 1308              		.loc 1 1102 0
 1309 0308 FFF7FEFF 		bl	inv_get_gmrv_accuracy
 1310              	.LVL126:
 1311 030c FFF7FEFF 		bl	__aeabi_i2f
 1312              	.LVL127:
 1313 0310 C421     		mov	r1, #196
 1314 0312 8905     		lsl	r1, r1, #22
 1315 0314 FFF7FEFF 		bl	__aeabi_fmul
 1316              	.LVL128:
 1317 0318 FFF7FEFF 		bl	__aeabi_f2iz
 1318              	.LVL129:
 1319 031c 234B     		ldr	r3, .L180+8
 1320 031e 1863     		str	r0, [r3, #48]
ARM GAS  C:\Users\ADMINI~1\AppData\Local\Temp\cc0mTFUy.s 			page 48


 1321              	.L113:
1104:.\inv.c       **** 				}
 1322              		.loc 1 1104 0
 1323 0320 0123     		mov	r3, #1
 1324 0322 7A35     		add	r5, r5, #122
 1325 0324 2B80     		strh	r3, [r5]
 1326              	.L111:
1111:.\inv.c       **** 					/* Read activity type and associated timestamp out of DMP FIFO
 1327              		.loc 1 1111 0
 1328 0326 03AE     		add	r6, sp, #12
 1329 0328 3388     		ldrh	r3, [r6]
 1330 032a 1B06     		lsl	r3, r3, #24
 1331 032c 27D5     		bpl	.L115
1116:.\inv.c       **** 					dmp_get_bac_ts(&bac_ts);
 1332              		.loc 1 1116 0
 1333 032e 1F4D     		ldr	r5, .L180+8
 1334 0330 281C     		mov	r0, r5
 1335 0332 3430     		add	r0, r0, #52
 1336 0334 FFF7FEFF 		bl	dmp_get_bac_state
 1337              	.LVL130:
1117:.\inv.c       **** 
 1338              		.loc 1 1117 0
 1339 0338 281C     		mov	r0, r5
 1340 033a 3830     		add	r0, r0, #56
 1341 033c FFF7FEFF 		bl	dmp_get_bac_ts
 1342              	.LVL131:
1119:.\inv.c       **** 						/* Tilt information is inside BAC, so extract it out */
 1343              		.loc 1 1119 0
 1344 0340 8021     		mov	r1, #128
 1345 0342 194B     		ldr	r3, .L180+4
 1346 0344 C903     		lsl	r1, r1, #15
 1347 0346 1868     		ldr	r0, [r3]
 1348 0348 0093     		str	r3, [sp]
 1349 034a 0140     		and	r1, r0
 1350 034c 2B1C     		mov	r3, r5
 1351 034e 0029     		cmp	r1, #0
 1352 0350 0BD0     		beq	.L116
1123:.\inv.c       **** 							/* Start of tilt detected */
 1353              		.loc 1 1123 0
 1354 0352 AF8E     		ldrh	r7, [r5, #52]
 1355 0354 FA04     		lsl	r2, r7, #19
 1356 0356 02D5     		bpl	.L117
1125:.\inv.c       **** 						}
 1357              		.loc 1 1125 0
 1358 0358 3C33     		add	r3, r3, #60
 1359 035a 0227     		mov	r7, #2
 1360 035c 04E0     		b	.L178
 1361              	.L117:
1128:.\inv.c       **** 							/* End of tilt detected */
 1362              		.loc 1 1128 0
 1363 035e 1022     		mov	r2, #16
 1364 0360 1742     		tst	r7, r2
 1365 0362 02D0     		beq	.L116
1130:.\inv.c       **** 						}
 1366              		.loc 1 1130 0
 1367 0364 0127     		mov	r7, #1
 1368 0366 3C33     		add	r3, r3, #60
ARM GAS  C:\Users\ADMINI~1\AppData\Local\Temp\cc0mTFUy.s 			page 49


 1369              	.L178:
 1370 0368 1F70     		strb	r7, [r3]
 1371              	.L116:
1135:.\inv.c       **** 						bac_data_was_set = 1;
 1372              		.loc 1 1135 0
 1373 036a C302     		lsl	r3, r0, #11
 1374 036c 01D5     		bpl	.L118
1136:.\inv.c       **** 					if (hal.report & PRINT_TILT)
 1375              		.loc 1 1136 0
 1376 036e 0123     		mov	r3, #1
 1377 0370 EB87     		strh	r3, [r5, #62]
 1378              	.L118:
1137:.\inv.c       **** 						tilt_data_was_set = 1;
 1379              		.loc 1 1137 0
 1380 0372 0029     		cmp	r1, #0
 1381 0374 03D0     		beq	.L115
1138:.\inv.c       **** 				}
 1382              		.loc 1 1138 0
 1383 0376 0122     		mov	r2, #1
 1384 0378 009B     		ldr	r3, [sp]
 1385 037a 7C33     		add	r3, r3, #124
 1386 037c 1A80     		strh	r2, [r3]
 1387              	.L115:
1141:.\inv.c       **** 					if (hal.report & PRINT_FLIP_PICKUP) {
 1388              		.loc 1 1141 0
 1389 037e 3388     		ldrh	r3, [r6]
 1390 0380 5B05     		lsl	r3, r3, #21
 1391 0382 0BD5     		bpl	.L120
1142:.\inv.c       **** 						dmp_get_flip_pickup_state(&flip_pickup);
 1392              		.loc 1 1142 0
 1393 0384 084B     		ldr	r3, .L180+4
 1394 0386 1B68     		ldr	r3, [r3]
 1395 0388 9B02     		lsl	r3, r3, #10
 1396 038a 07D5     		bpl	.L120
1143:.\inv.c       **** 						flip_data_was_set = 1;
 1397              		.loc 1 1143 0
 1398 038c 074D     		ldr	r5, .L180+8
 1399 038e 281C     		mov	r0, r5
 1400 0390 4030     		add	r0, r0, #64
 1401 0392 FFF7FEFF 		bl	dmp_get_flip_pickup_state
 1402              	.LVL132:
1144:.\inv.c       **** 					}
 1403              		.loc 1 1144 0
 1404 0396 0123     		mov	r3, #1
 1405 0398 0435     		add	r5, r5, #4
 1406 039a EB87     		strh	r3, [r5, #62]
 1407              	.L120:
1150:.\inv.c       **** 			}
 1408              		.loc 1 1150 0
 1409 039c FFF7FEFF 		bl	process_sensor_output
 1410              	.LVL133:
 1411 03a0 77E6     		b	.L100
 1412              	.L181:
 1413 03a2 C046     		.align	2
 1414              	.L180:
 1415 03a4 02230000 		.word	8962
 1416 03a8 00000000 		.word	.LANCHOR0
ARM GAS  C:\Users\ADMINI~1\AppData\Local\Temp\cc0mTFUy.s 			page 50


 1417 03ac 80000000 		.word	.LANCHOR2
 1418 03b0 00000000 		.word	accel_float
 1419 03b4 00007A43 		.word	1132068864
 1420 03b8 35FA8E3C 		.word	1016003125
 1421 03bc 00000000 		.word	gyro_raw_float
 1422 03c0 00000000 		.word	gyro_float
 1423 03c4 00000000 		.word	gyro_bias_float
 1424 03c8 00000000 		.word	compass_float
 1425 03cc 00000000 		.word	compass_raw_float
 1426 03d0 00000000 		.word	compass_bias
 1427 03d4 00000000 		.word	grv_float
 1428 03d8 00000000 		.word	rv_float
 1429 03dc 00000000 		.word	gmrv_float
 1430              	.L179:
 1431              	.LBB15:
1181:.\inv.c       **** 				unsigned long steps = 0;
 1432              		.loc 1 1181 0
 1433 03e0 0023     		mov	r3, #0
1182:.\inv.c       **** 				static unsigned long old_steps;
1183:.\inv.c       **** 				dmp_get_pedometer_num_of_steps(&steps);
 1434              		.loc 1 1183 0
 1435 03e2 10A8     		add	r0, sp, #64
1181:.\inv.c       **** 				unsigned long steps = 0;
 1436              		.loc 1 1181 0
 1437 03e4 1093     		str	r3, [sp, #64]
 1438              		.loc 1 1183 0
 1439 03e6 FFF7FEFF 		bl	dmp_get_pedometer_num_of_steps
 1440              	.LVL134:
1184:.\inv.c       **** 				
1185:.\inv.c       **** 				BackBone_SetStepCount(steps);
 1441              		.loc 1 1185 0
 1442 03ea 1098     		ldr	r0, [sp, #64]
 1443 03ec FFF7FEFF 		bl	BackBone_SetStepCount
 1444              	.LVL135:
1186:.\inv.c       **** 
1187:.\inv.c       **** 				if (steps != old_steps){
 1445              		.loc 1 1187 0
 1446 03f0 034B     		ldr	r3, .L182
 1447 03f2 109A     		ldr	r2, [sp, #64]
 1448 03f4 596C     		ldr	r1, [r3, #68]
 1449 03f6 8A42     		cmp	r2, r1
 1450 03f8 00D0     		beq	.L93
1188:.\inv.c       **** //					INV_SPRINTF(tst, INV_TST_LEN, "\tStep Counter %d\r\n", steps);
1189:.\inv.c       **** //					print_command_console(tst);
1190:.\inv.c       **** 					old_steps = steps;
 1451              		.loc 1 1190 0
 1452 03fa 5A64     		str	r2, [r3, #68]
 1453              	.L93:
 1454              	.LBE15:
 1455              	.LBE11:
1191:.\inv.c       **** 				}
1192:.\inv.c       ****                         }
1193:.\inv.c       **** //		}
1194:.\inv.c       **** 
1195:.\inv.c       **** #if (MEMS_CHIP == HW_ICM20648)
1196:.\inv.c       ****                 if (int_read_back & BIT_MSG_DMP_INT_2) {
1197:.\inv.c       **** 			if (hal.report & PRINT_SMD){}
ARM GAS  C:\Users\ADMINI~1\AppData\Local\Temp\cc0mTFUy.s 			page 51


1198:.\inv.c       **** //				print_command_console(">> SMD Interrupt *********\r\n");
1199:.\inv.c       **** 		}
1200:.\inv.c       **** #endif
1201:.\inv.c       ****        }
1202:.\inv.c       **** }
 1456              		.loc 1 1202 0
 1457 03fc 2DB0     		add	sp, sp, #180
 1458              		@ sp needed
 1459 03fe F0BD     		pop	{r4, r5, r6, r7, pc}
 1460              	.L183:
 1461              		.align	2
 1462              	.L182:
 1463 0400 80000000 		.word	.LANCHOR2
 1464              		.cfi_endproc
 1465              	.LFE49:
 1466              		.size	fifo_handler, .-fifo_handler
 1467              		.global	tst
 1468              		.global	SOFT_IRON_MATRIX
 1469              		.global	COMPASS_ORIENTATION
 1470              		.global	PRESSURE_CHIP_ADDR
 1471              		.global	COMPASS_CHIP_ADDR
 1472              		.global	COMPASS_SLAVE_ID
 1473              		.global	ACCEL_GYRO_ORIENTATION
 1474              		.global	current_output_rate
 1475              		.global	step_detected
 1476              		.global	flip_pickup
 1477              		.global	bac_ts
 1478              		.global	tilt_state
 1479              		.global	bac_state
 1480              		.global	steps
 1481              		.global	g_average
 1482              		.global	a_average
 1483              		.global	result_quat
 1484              		.global	ts
 1485              		.global	gmrv_accuracy
 1486              		.global	compass_accuracy
 1487              		.global	rv_accuracy
 1488              		.global	gyro_accuracy
 1489              		.global	accel_accuracy
 1490              		.global	cube_gmrv
 1491              		.comm	gmrv_float,16,4
 1492              		.comm	compass_bias,12,4
 1493              		.comm	compass_raw_float,12,4
 1494              		.comm	compass_float,12,4
 1495              		.comm	previous_bias,12,4
 1496              		.comm	gyro_bias_float,12,4
 1497              		.comm	gyro_raw_float,12,4
 1498              		.comm	gyro_float,12,4
 1499              		.global	cube_rv
 1500              		.comm	rv_float,16,4
 1501              		.comm	accel_float,12,4
 1502              		.global	cube_grv
 1503              		.comm	grv_float,16,4
 1504              		.global	tilt_data_was_set
 1505              		.global	flip_data_was_set
 1506              		.global	bac_data_was_set
 1507              		.global	gmrv_quat_was_set
ARM GAS  C:\Users\ADMINI~1\AppData\Local\Temp\cc0mTFUy.s 			page 52


 1508              		.global	rv_quat_was_set
 1509              		.global	quat9_data_was_set
 1510              		.global	quat6_data_was_set
 1511              		.global	raw_compass_data_was_set
 1512              		.global	compass_data_was_set
 1513              		.global	raw_gyro_data_was_set
 1514              		.global	gyro_data_was_set
 1515              		.global	accel_data_was_set
 1516              		.global	dmp_bias
 1517              		.global	self_test_result
 1518              		.global	hal
 1519              		.section	.rodata
 1520              		.type	PRESSURE_CHIP_ADDR, %object
 1521              		.size	PRESSURE_CHIP_ADDR, 1
 1522              	PRESSURE_CHIP_ADDR:
 1523 0000 00       		.space	1
 1524              		.type	COMPASS_CHIP_ADDR, %object
 1525              		.size	COMPASS_CHIP_ADDR, 1
 1526              	COMPASS_CHIP_ADDR:
 1527 0001 0E       		.byte	14
 1528              		.type	COMPASS_SLAVE_ID, %object
 1529              		.size	COMPASS_SLAVE_ID, 1
 1530              	COMPASS_SLAVE_ID:
 1531 0002 24       		.byte	36
 1532              		.data
 1533              		.align	2
 1534              		.set	.LANCHOR1,. + 0
 1535              		.type	current_output_rate, %object
 1536              		.size	current_output_rate, 4
 1537              	current_output_rate:
 1538 0000 0000A040 		.word	1084227584
 1539              		.type	SOFT_IRON_MATRIX, %object
 1540              		.size	SOFT_IRON_MATRIX, 36
 1541              	SOFT_IRON_MATRIX:
 1542 0004 00000040 		.word	1073741824
 1543 0008 00000000 		.word	0
 1544 000c 00000000 		.word	0
 1545 0010 00000000 		.word	0
 1546 0014 00000040 		.word	1073741824
 1547 0018 00000000 		.word	0
 1548 001c 00000000 		.word	0
 1549 0020 00000000 		.word	0
 1550 0024 00000040 		.word	1073741824
 1551              		.type	COMPASS_ORIENTATION, %object
 1552              		.size	COMPASS_ORIENTATION, 9
 1553              	COMPASS_ORIENTATION:
 1554 0028 00       		.byte	0
 1555 0029 FF       		.byte	-1
 1556 002a 00       		.byte	0
 1557 002b 01       		.byte	1
 1558 002c 00       		.byte	0
 1559 002d 00       		.byte	0
 1560 002e 00       		.byte	0
 1561 002f 00       		.byte	0
 1562 0030 01       		.byte	1
 1563              		.type	ACCEL_GYRO_ORIENTATION, %object
 1564              		.size	ACCEL_GYRO_ORIENTATION, 9
ARM GAS  C:\Users\ADMINI~1\AppData\Local\Temp\cc0mTFUy.s 			page 53


 1565              	ACCEL_GYRO_ORIENTATION:
 1566 0031 00       		.byte	0
 1567 0032 FF       		.byte	-1
 1568 0033 00       		.byte	0
 1569 0034 01       		.byte	1
 1570 0035 00       		.byte	0
 1571 0036 00       		.byte	0
 1572 0037 00       		.byte	0
 1573 0038 00       		.byte	0
 1574 0039 01       		.byte	1
 1575 003a 0000     		.bss
 1576              		.align	3
 1577              		.set	.LANCHOR0,. + 0
 1578              		.set	.LANCHOR2,. + 128
 1579              		.type	hal, %object
 1580              		.size	hal, 16
 1581              	hal:
 1582 0000 00000000 		.space	16
 1582      00000000 
 1582      00000000 
 1582      00000000 
 1583              		.type	inv_flags, %object
 1584              		.size	inv_flags, 2
 1585              	inv_flags:
 1586 0010 0000     		.space	2
 1587 0012 0000     		.space	2
 1588              		.type	self_test_result, %object
 1589              		.size	self_test_result, 4
 1590              	self_test_result:
 1591 0014 00000000 		.space	4
 1592              		.type	dmp_bias, %object
 1593              		.size	dmp_bias, 36
 1594              	dmp_bias:
 1595 0018 00000000 		.space	36
 1595      00000000 
 1595      00000000 
 1595      00000000 
 1595      00000000 
 1596              		.type	a_average, %object
 1597              		.size	a_average, 12
 1598              	a_average:
 1599 003c 00000000 		.space	12
 1599      00000000 
 1599      00000000 
 1600              		.type	g_average, %object
 1601              		.size	g_average, 12
 1602              	g_average:
 1603 0048 00000000 		.space	12
 1603      00000000 
 1603      00000000 
 1604              		.type	accel_data_was_set, %object
 1605              		.size	accel_data_was_set, 2
 1606              	accel_data_was_set:
 1607 0054 0000     		.space	2
 1608 0056 0000     		.space	2
 1609              		.type	accel_accuracy, %object
 1610              		.size	accel_accuracy, 4
ARM GAS  C:\Users\ADMINI~1\AppData\Local\Temp\cc0mTFUy.s 			page 54


 1611              	accel_accuracy:
 1612 0058 00000000 		.space	4
 1613              		.type	gyro_data_was_set, %object
 1614              		.size	gyro_data_was_set, 2
 1615              	gyro_data_was_set:
 1616 005c 0000     		.space	2
 1617 005e 0000     		.space	2
 1618              		.type	gyro_accuracy, %object
 1619              		.size	gyro_accuracy, 4
 1620              	gyro_accuracy:
 1621 0060 00000000 		.space	4
 1622              		.type	quat6_data_was_set, %object
 1623              		.size	quat6_data_was_set, 2
 1624              	quat6_data_was_set:
 1625 0064 0000     		.space	2
 1626 0066 0000     		.space	2
 1627              		.type	result_quat, %object
 1628              		.size	result_quat, 16
 1629              	result_quat:
 1630 0068 00000000 		.space	16
 1630      00000000 
 1630      00000000 
 1630      00000000 
 1631              		.type	quat9_data_was_set, %object
 1632              		.size	quat9_data_was_set, 2
 1633              	quat9_data_was_set:
 1634 0078 0000     		.space	2
 1635              		.type	gmrv_quat_was_set, %object
 1636              		.size	gmrv_quat_was_set, 2
 1637              	gmrv_quat_was_set:
 1638 007a 0000     		.space	2
 1639              		.type	tilt_data_was_set, %object
 1640              		.size	tilt_data_was_set, 2
 1641              	tilt_data_was_set:
 1642 007c 0000     		.space	2
 1643              		.type	step_detected, %object
 1644              		.size	step_detected, 1
 1645              	step_detected:
 1646 007e 00       		.space	1
 1647 007f 00       		.space	1
 1648              		.type	lastIrqTimeUs.7661, %object
 1649              		.size	lastIrqTimeUs.7661, 8
 1650              	lastIrqTimeUs.7661:
 1651 0080 00000000 		.space	8
 1651      00000000 
 1652              		.type	ts, %object
 1653              		.size	ts, 8
 1654              	ts:
 1655 0088 00000000 		.space	8
 1655      00000000 
 1656              		.type	raw_gyro_data_was_set, %object
 1657              		.size	raw_gyro_data_was_set, 2
 1658              	raw_gyro_data_was_set:
 1659 0090 0000     		.space	2
 1660              		.type	compass_data_was_set, %object
 1661              		.size	compass_data_was_set, 2
 1662              	compass_data_was_set:
ARM GAS  C:\Users\ADMINI~1\AppData\Local\Temp\cc0mTFUy.s 			page 55


 1663 0092 0000     		.space	2
 1664              		.type	compass_accuracy, %object
 1665              		.size	compass_accuracy, 4
 1666              	compass_accuracy:
 1667 0094 00000000 		.space	4
 1668              		.type	raw_compass_data_was_set, %object
 1669              		.size	raw_compass_data_was_set, 2
 1670              	raw_compass_data_was_set:
 1671 0098 0000     		.space	2
 1672 009a 0000     		.space	2
 1673              		.type	rv_accuracy, %object
 1674              		.size	rv_accuracy, 4
 1675              	rv_accuracy:
 1676 009c 00000000 		.space	4
 1677              		.type	cube_gmrv, %object
 1678              		.size	cube_gmrv, 16
 1679              	cube_gmrv:
 1680 00a0 00000000 		.space	16
 1680      00000000 
 1680      00000000 
 1680      00000000 
 1681              		.type	gmrv_accuracy, %object
 1682              		.size	gmrv_accuracy, 4
 1683              	gmrv_accuracy:
 1684 00b0 00000000 		.space	4
 1685              		.type	bac_state, %object
 1686              		.size	bac_state, 2
 1687              	bac_state:
 1688 00b4 0000     		.space	2
 1689 00b6 0000     		.space	2
 1690              		.type	bac_ts, %object
 1691              		.size	bac_ts, 4
 1692              	bac_ts:
 1693 00b8 00000000 		.space	4
 1694              		.type	tilt_state, %object
 1695              		.size	tilt_state, 1
 1696              	tilt_state:
 1697 00bc 00       		.space	1
 1698 00bd 00       		.space	1
 1699              		.type	bac_data_was_set, %object
 1700              		.size	bac_data_was_set, 2
 1701              	bac_data_was_set:
 1702 00be 0000     		.space	2
 1703              		.type	flip_pickup, %object
 1704              		.size	flip_pickup, 2
 1705              	flip_pickup:
 1706 00c0 0000     		.space	2
 1707              		.type	flip_data_was_set, %object
 1708              		.size	flip_data_was_set, 2
 1709              	flip_data_was_set:
 1710 00c2 0000     		.space	2
 1711              		.type	old_steps.7676, %object
 1712              		.size	old_steps.7676, 4
 1713              	old_steps.7676:
 1714 00c4 00000000 		.space	4
 1715              		.type	tst, %object
 1716              		.size	tst, 256
ARM GAS  C:\Users\ADMINI~1\AppData\Local\Temp\cc0mTFUy.s 			page 56


 1717              	tst:
 1718 00c8 00000000 		.space	256
 1718      00000000 
 1718      00000000 
 1718      00000000 
 1718      00000000 
 1719              		.type	steps, %object
 1720              		.size	steps, 4
 1721              	steps:
 1722 01c8 00000000 		.space	4
 1723              		.type	cube_rv, %object
 1724              		.size	cube_rv, 16
 1725              	cube_rv:
 1726 01cc 00000000 		.space	16
 1726      00000000 
 1726      00000000 
 1726      00000000 
 1727              		.type	cube_grv, %object
 1728              		.size	cube_grv, 16
 1729              	cube_grv:
 1730 01dc 00000000 		.space	16
 1730      00000000 
 1730      00000000 
 1730      00000000 
 1731              		.type	rv_quat_was_set, %object
 1732              		.size	rv_quat_was_set, 2
 1733              	rv_quat_was_set:
 1734 01ec 0000     		.space	2
 1735 01ee 0000     		.text
 1736              	.Letext0:
 1737              		.file 2 "c:\\program files (x86)\\cypress\\psoc creator\\3.3\\psoc creator\\import\\gnu\\arm\\4.9.
 1738              		.file 3 "c:\\program files (x86)\\cypress\\psoc creator\\3.3\\psoc creator\\import\\gnu\\arm\\4.9.
 1739              		.file 4 "Generated_Source\\PSoC4/cytypes.h"
 1740              		.file 5 "./.\\20648_driver\\invn\\invn_types.h"
 1741              		.file 6 "./.\\20648_driver\\drivers\\inv_mems_defines.h"
 1742              		.file 7 "./.\\20648_driver\\common\\mltypes.h"
 1743              		.file 8 "./inv.h"
 1744              		.file 9 "Generated_Source\\PSoC4/INVN_INT.h"
 1745              		.file 10 "./.\\20648_driver\\drivers\\inv_mems_mpu_fifo_control.h"
 1746              		.file 11 "./.\\20648_driver\\drivers\\inv_mems_mpu_selftest.h"
 1747              		.file 12 "./.\\20648_driver\\drivers\\inv_mems_base_control.h"
 1748              		.file 13 "./.\\20648_driver\\dmp3a\\dmp3Default_20648.h"
 1749              		.file 14 "Generated_Source\\PSoC4/I2C.h"
 1750              		.file 15 "./.\\20648_driver\\drivers\\inv_mems_base_driver.h"
 1751              		.file 16 "./.\\20648_driver\\dmp3\\inv_mems_interface_mapping.h"
 1752              		.file 17 "Generated_Source\\PSoC4/isr_INVN_INT.h"
 1753              		.file 18 "./.\\20648_driver\\drivers\\inv_mems_data_converter.h"
 1754              		.file 19 "./.\\20648_driver\\invn\\ml_math_func.h"
 1755              		.file 20 "./BackBone.h"