ARM GAS  C:\Users\ADMINI~1\AppData\Local\Temp\ccKhMK9m.s 			page 1


   1              		.cpu cortex-m0
   2              		.fpu softvfp
   3              		.eabi_attribute 20, 1
   4              		.eabi_attribute 21, 1
   5              		.eabi_attribute 23, 3
   6              		.eabi_attribute 24, 1
   7              		.eabi_attribute 25, 1
   8              		.eabi_attribute 26, 1
   9              		.eabi_attribute 30, 4
  10              		.eabi_attribute 34, 0
  11              		.eabi_attribute 18, 4
  12              		.code	16
  13              		.file	"inv_mems_slave_compass.c"
  14              		.text
  15              	.Ltext0:
  16              		.cfi_sections	.debug_frame
  17              		.section	.text.inv_check_akm_self_test,"ax",%progbits
  18              		.align	1
  19              		.global	inv_check_akm_self_test
  20              		.code	16
  21              		.thumb_func
  22              		.type	inv_check_akm_self_test, %function
  23              	inv_check_akm_self_test:
  24              	.LFB5:
  25              		.file 1 ".\\20648_driver\\drivers\\inv_mems_slave_compass.c"
   1:.\20648_driver\drivers/inv_mems_slave_compass.c **** /*
   2:.\20648_driver\drivers/inv_mems_slave_compass.c **** * _________________________________________________________________________________________________
   3:.\20648_driver\drivers/inv_mems_slave_compass.c **** * Copyright © 2014-2015 InvenSense Inc. Portions Copyright © 2014-2015 Movea. All rights reserved.
   4:.\20648_driver\drivers/inv_mems_slave_compass.c **** * This software, related documentation and any modifications thereto (collectively “Software”) is s
   5:.\20648_driver\drivers/inv_mems_slave_compass.c **** * to InvenSense and its licensors' intellectual property rights under U.S. and international copyri
   6:.\20648_driver\drivers/inv_mems_slave_compass.c **** * other intellectual property rights laws.
   7:.\20648_driver\drivers/inv_mems_slave_compass.c **** * InvenSense and its licensors retain all intellectual property and proprietary rights in and to th
   8:.\20648_driver\drivers/inv_mems_slave_compass.c **** * and any use, reproduction, disclosure or distribution of the Software without an express license
   9:.\20648_driver\drivers/inv_mems_slave_compass.c **** * agreement from InvenSense is strictly prohibited.
  10:.\20648_driver\drivers/inv_mems_slave_compass.c **** * _________________________________________________________________________________________________
  11:.\20648_driver\drivers/inv_mems_slave_compass.c **** */
  12:.\20648_driver\drivers/inv_mems_slave_compass.c **** 
  13:.\20648_driver\drivers/inv_mems_slave_compass.c **** #ifndef MEMS_20609
  14:.\20648_driver\drivers/inv_mems_slave_compass.c **** 
  15:.\20648_driver\drivers/inv_mems_slave_compass.c **** #include ".\20648_driver\drivers\inv_mems_slave_compass.h"
  16:.\20648_driver\drivers/inv_mems_slave_compass.c **** 
  17:.\20648_driver\drivers/inv_mems_slave_compass.c **** #include ".\20648_driver\common\inv_mems_drv_hook.h"
  18:.\20648_driver\drivers/inv_mems_slave_compass.c **** #include ".\20648_driver\drivers\inv_mems_defines.h"              
  19:.\20648_driver\drivers/inv_mems_slave_compass.c **** #include ".\20648_driver\drivers\inv_mems_data_converter.h"               // to get inv_q30_mult
  20:.\20648_driver\drivers/inv_mems_slave_compass.c **** #include ".\20648_driver\drivers\inv_mems_hw_config.h"
  21:.\20648_driver\drivers/inv_mems_slave_compass.c **** #include ".\20648_driver\drivers\inv_mems_transport.h"
  22:.\20648_driver\drivers/inv_mems_slave_compass.c **** #include ".\20648_driver\drivers\inv_mems_secondary_transport.h"
  23:.\20648_driver\drivers/inv_mems_slave_compass.c **** #include ".\20648_driver\drivers\inv_mems_slave_pressure.h"
  24:.\20648_driver\drivers/inv_mems_slave_compass.c **** #include ".\20648_driver\dmp3\inv_mems_interface_mapping.h"
  25:.\20648_driver\drivers/inv_mems_slave_compass.c **** 
  26:.\20648_driver\drivers/inv_mems_slave_compass.c **** 
  27:.\20648_driver\drivers/inv_mems_slave_compass.c **** 
  28:.\20648_driver\drivers/inv_mems_slave_compass.c **** long final_matrix[9] = {0};
  29:.\20648_driver\drivers/inv_mems_slave_compass.c **** uint8_t compass_sens[3] = {0};
  30:.\20648_driver\drivers/inv_mems_slave_compass.c **** const short *st_upper;
  31:.\20648_driver\drivers/inv_mems_slave_compass.c **** const short *st_lower;
  32:.\20648_driver\drivers/inv_mems_slave_compass.c **** int scale = 0;
ARM GAS  C:\Users\ADMINI~1\AppData\Local\Temp\ccKhMK9m.s 			page 2


  33:.\20648_driver\drivers/inv_mems_slave_compass.c **** uint8_t dmp_on = 1;
  34:.\20648_driver\drivers/inv_mems_slave_compass.c **** 
  35:.\20648_driver\drivers/inv_mems_slave_compass.c **** /* AKM definitions */
  36:.\20648_driver\drivers/inv_mems_slave_compass.c **** #define REG_AKM_ID               0x00
  37:.\20648_driver\drivers/inv_mems_slave_compass.c **** #define REG_AKM_INFO             0x01
  38:.\20648_driver\drivers/inv_mems_slave_compass.c **** #define REG_AKM_STATUS           0x02
  39:.\20648_driver\drivers/inv_mems_slave_compass.c **** #define REG_AKM_MEASURE_DATA     0x03
  40:.\20648_driver\drivers/inv_mems_slave_compass.c **** #define REG_AKM_MODE             0x0A
  41:.\20648_driver\drivers/inv_mems_slave_compass.c **** #define REG_AKM_ST_CTRL          0x0C
  42:.\20648_driver\drivers/inv_mems_slave_compass.c **** #define REG_AKM_SENSITIVITY      0x10
  43:.\20648_driver\drivers/inv_mems_slave_compass.c **** #define REG_AKM8963_CNTL1        0x0A
  44:.\20648_driver\drivers/inv_mems_slave_compass.c **** 
  45:.\20648_driver\drivers/inv_mems_slave_compass.c **** /* AK09911 register definition */
  46:.\20648_driver\drivers/inv_mems_slave_compass.c **** #define REG_AK09911_DMP_READ    0x3
  47:.\20648_driver\drivers/inv_mems_slave_compass.c **** #define REG_AK09911_STATUS1     0x10
  48:.\20648_driver\drivers/inv_mems_slave_compass.c **** #define REG_AK09911_CNTL2       0x31
  49:.\20648_driver\drivers/inv_mems_slave_compass.c **** #define REG_AK09911_SENSITIVITY 0x60
  50:.\20648_driver\drivers/inv_mems_slave_compass.c **** #define REG_AK09911_MEASURE_DATA     0x11
  51:.\20648_driver\drivers/inv_mems_slave_compass.c **** 
  52:.\20648_driver\drivers/inv_mems_slave_compass.c **** /* AK09912 register definition */
  53:.\20648_driver\drivers/inv_mems_slave_compass.c **** #define REG_AK09912_DMP_READ    0x3
  54:.\20648_driver\drivers/inv_mems_slave_compass.c **** #define REG_AK09912_STATUS1     0x10
  55:.\20648_driver\drivers/inv_mems_slave_compass.c **** #define REG_AK09912_CNTL1       0x30
  56:.\20648_driver\drivers/inv_mems_slave_compass.c **** #define REG_AK09912_CNTL2       0x31
  57:.\20648_driver\drivers/inv_mems_slave_compass.c **** #define REG_AK09912_SENSITIVITY 0x60
  58:.\20648_driver\drivers/inv_mems_slave_compass.c **** #define REG_AK09912_MEASURE_DATA     0x11
  59:.\20648_driver\drivers/inv_mems_slave_compass.c **** 
  60:.\20648_driver\drivers/inv_mems_slave_compass.c **** /* AK09916 register definition */
  61:.\20648_driver\drivers/inv_mems_slave_compass.c **** #define REG_AK09916_DMP_READ    0x3
  62:.\20648_driver\drivers/inv_mems_slave_compass.c **** #define REG_AK09916_STATUS1     0x10
  63:.\20648_driver\drivers/inv_mems_slave_compass.c **** #define REG_AK09916_CNTL2       0x31
  64:.\20648_driver\drivers/inv_mems_slave_compass.c **** #define REG_AK09916_MEASURE_DATA 0x11
  65:.\20648_driver\drivers/inv_mems_slave_compass.c **** 
  66:.\20648_driver\drivers/inv_mems_slave_compass.c **** #define DATA_AKM_ID              0x48
  67:.\20648_driver\drivers/inv_mems_slave_compass.c **** #define DATA_AKM_MODE_PD	 0x00
  68:.\20648_driver\drivers/inv_mems_slave_compass.c **** #define DATA_AKM_MODE_SM	 0x01
  69:.\20648_driver\drivers/inv_mems_slave_compass.c **** #define DATA_AKM_MODE_ST	 0x08
  70:.\20648_driver\drivers/inv_mems_slave_compass.c **** #define DATA_AK09911_MODE_ST	 0x10
  71:.\20648_driver\drivers/inv_mems_slave_compass.c **** #define DATA_AK09912_MODE_ST	 0x10
  72:.\20648_driver\drivers/inv_mems_slave_compass.c **** #define DATA_AK09916_MODE_ST	 0x10
  73:.\20648_driver\drivers/inv_mems_slave_compass.c **** #define DATA_AKM_MODE_FR	 0x0F
  74:.\20648_driver\drivers/inv_mems_slave_compass.c **** #define DATA_AK09911_MODE_FR     0x1F
  75:.\20648_driver\drivers/inv_mems_slave_compass.c **** #define DATA_AK09912_MODE_FR     0x1F
  76:.\20648_driver\drivers/inv_mems_slave_compass.c **** #define DATA_AKM_SELF_TEST       0x40
  77:.\20648_driver\drivers/inv_mems_slave_compass.c **** #define DATA_AKM_DRDY            0x01
  78:.\20648_driver\drivers/inv_mems_slave_compass.c **** #define DATA_AKM8963_BIT         0x10
  79:.\20648_driver\drivers/inv_mems_slave_compass.c **** #define DATA_AKM_STAT_MASK       0x0C
  80:.\20648_driver\drivers/inv_mems_slave_compass.c **** 
  81:.\20648_driver\drivers/inv_mems_slave_compass.c **** /* 0.3 uT * (1 << 30) */
  82:.\20648_driver\drivers/inv_mems_slave_compass.c **** #define DATA_AKM8975_SCALE       322122547
  83:.\20648_driver\drivers/inv_mems_slave_compass.c **** /* 0.6 uT * (1 << 30) */
  84:.\20648_driver\drivers/inv_mems_slave_compass.c **** #define DATA_AKM8972_SCALE       644245094
  85:.\20648_driver\drivers/inv_mems_slave_compass.c **** /* 0.6 uT * (1 << 30) */
  86:.\20648_driver\drivers/inv_mems_slave_compass.c **** #define DATA_AKM8963_SCALE0      644245094
  87:.\20648_driver\drivers/inv_mems_slave_compass.c **** /* 0.15 uT * (1 << 30) */
  88:.\20648_driver\drivers/inv_mems_slave_compass.c **** #define DATA_AKM8963_SCALE1      161061273
  89:.\20648_driver\drivers/inv_mems_slave_compass.c **** /* 0.6 uT * (1 << 30) */
ARM GAS  C:\Users\ADMINI~1\AppData\Local\Temp\ccKhMK9m.s 			page 3


  90:.\20648_driver\drivers/inv_mems_slave_compass.c **** #define DATA_AK09911_SCALE       644245094
  91:.\20648_driver\drivers/inv_mems_slave_compass.c **** /* 0.15 uT * (1 << 30) */
  92:.\20648_driver\drivers/inv_mems_slave_compass.c **** #define DATA_AK09912_SCALE       161061273
  93:.\20648_driver\drivers/inv_mems_slave_compass.c **** /* 0.15 uT * (1 << 30) */
  94:.\20648_driver\drivers/inv_mems_slave_compass.c **** #define DATA_AK09916_SCALE       161061273
  95:.\20648_driver\drivers/inv_mems_slave_compass.c **** #define DATA_MLX_SCALE           (4915 * (1L << 15))
  96:.\20648_driver\drivers/inv_mems_slave_compass.c **** #define DATA_MLX_SCALE_EMPIRICAL (26214 * (1L << 15))
  97:.\20648_driver\drivers/inv_mems_slave_compass.c **** 
  98:.\20648_driver\drivers/inv_mems_slave_compass.c **** #define DATA_AKM8963_SCALE_SHIFT      4
  99:.\20648_driver\drivers/inv_mems_slave_compass.c **** #define DATA_AKM_MIN_READ_TIME            (9 * NSEC_PER_MSEC)
 100:.\20648_driver\drivers/inv_mems_slave_compass.c **** 
 101:.\20648_driver\drivers/inv_mems_slave_compass.c **** /* AK09912C NSF */
 102:.\20648_driver\drivers/inv_mems_slave_compass.c **** /* 0:disable, 1:Low, 2:Middle, 3:High */
 103:.\20648_driver\drivers/inv_mems_slave_compass.c **** #define DATA_AK9912_NSF  1
 104:.\20648_driver\drivers/inv_mems_slave_compass.c **** #define DATA_AK9912_NSF_SHIFT 5
 105:.\20648_driver\drivers/inv_mems_slave_compass.c **** 
 106:.\20648_driver\drivers/inv_mems_slave_compass.c **** #define DEF_ST_COMPASS_WAIT_MIN     (10 * 1000)
 107:.\20648_driver\drivers/inv_mems_slave_compass.c **** #define DEF_ST_COMPASS_WAIT_MAX     (15 * 1000)
 108:.\20648_driver\drivers/inv_mems_slave_compass.c **** #define DEF_ST_COMPASS_TRY_TIMES    10
 109:.\20648_driver\drivers/inv_mems_slave_compass.c **** #define DEF_ST_COMPASS_8963_SHIFT   2
 110:.\20648_driver\drivers/inv_mems_slave_compass.c **** #define X                           0
 111:.\20648_driver\drivers/inv_mems_slave_compass.c **** #define Y                           1
 112:.\20648_driver\drivers/inv_mems_slave_compass.c **** #define Z                           2
 113:.\20648_driver\drivers/inv_mems_slave_compass.c **** 
 114:.\20648_driver\drivers/inv_mems_slave_compass.c **** /* milliseconds between each access */
 115:.\20648_driver\drivers/inv_mems_slave_compass.c **** #define AKM_RATE_SCALE       10
 116:.\20648_driver\drivers/inv_mems_slave_compass.c **** 
 117:.\20648_driver\drivers/inv_mems_slave_compass.c **** #define DATA_AKM_99_BYTES_DMP   10
 118:.\20648_driver\drivers/inv_mems_slave_compass.c **** #define DATA_AKM_89_BYTES_DMP   9
 119:.\20648_driver\drivers/inv_mems_slave_compass.c **** 
 120:.\20648_driver\drivers/inv_mems_slave_compass.c **** static const short AKM8975_ST_Lower[3] = {-100, -100, -1000};
 121:.\20648_driver\drivers/inv_mems_slave_compass.c **** static const short AKM8975_ST_Upper[3] = {100, 100, -300};
 122:.\20648_driver\drivers/inv_mems_slave_compass.c **** 
 123:.\20648_driver\drivers/inv_mems_slave_compass.c **** static const short AKM8972_ST_Lower[3] = {-50, -50, -500};
 124:.\20648_driver\drivers/inv_mems_slave_compass.c **** static const short AKM8972_ST_Upper[3] = {50, 50, -100};
 125:.\20648_driver\drivers/inv_mems_slave_compass.c **** 
 126:.\20648_driver\drivers/inv_mems_slave_compass.c **** static const short AKM8963_ST_Lower[3] = {-200, -200, -3200};
 127:.\20648_driver\drivers/inv_mems_slave_compass.c **** static const short AKM8963_ST_Upper[3] = {200, 200, -800};
 128:.\20648_driver\drivers/inv_mems_slave_compass.c **** 
 129:.\20648_driver\drivers/inv_mems_slave_compass.c **** static const short AK09911_ST_Lower[3] = {-30, -30, -400};
 130:.\20648_driver\drivers/inv_mems_slave_compass.c **** static const short AK09911_ST_Upper[3] = {30, 30, -50};
 131:.\20648_driver\drivers/inv_mems_slave_compass.c **** 
 132:.\20648_driver\drivers/inv_mems_slave_compass.c **** static const short AK09912_ST_Lower[3] = {-200, -200, -1600};
 133:.\20648_driver\drivers/inv_mems_slave_compass.c **** static const short AK09912_ST_Upper[3] = {200, 200, -400};
 134:.\20648_driver\drivers/inv_mems_slave_compass.c **** 
 135:.\20648_driver\drivers/inv_mems_slave_compass.c **** static const short AK09916_ST_Lower[3] = { -200, -200, -1000 };
 136:.\20648_driver\drivers/inv_mems_slave_compass.c **** static const short AK09916_ST_Upper[3] = { 200, 200, -200 };
 137:.\20648_driver\drivers/inv_mems_slave_compass.c **** 
 138:.\20648_driver\drivers/inv_mems_slave_compass.c **** static uint8_t secondary_resume_state = 0;
 139:.\20648_driver\drivers/inv_mems_slave_compass.c **** 
 140:.\20648_driver\drivers/inv_mems_slave_compass.c **** static uint8_t sModeRegAddr;
 141:.\20648_driver\drivers/inv_mems_slave_compass.c **** 
 142:.\20648_driver\drivers/inv_mems_slave_compass.c **** /*
 143:.\20648_driver\drivers/inv_mems_slave_compass.c ****  *  inv_setup_compass_akm() - Configure akm series compass.
 144:.\20648_driver\drivers/inv_mems_slave_compass.c ****  */
 145:.\20648_driver\drivers/inv_mems_slave_compass.c **** int inv_setup_compass_akm()
 146:.\20648_driver\drivers/inv_mems_slave_compass.c **** {
ARM GAS  C:\Users\ADMINI~1\AppData\Local\Temp\ccKhMK9m.s 			page 4


 147:.\20648_driver\drivers/inv_mems_slave_compass.c **** 	int result;
 148:.\20648_driver\drivers/inv_mems_slave_compass.c **** 	unsigned char data[4];
 149:.\20648_driver\drivers/inv_mems_slave_compass.c **** 	uint8_t sens, cmd;
 150:.\20648_driver\drivers/inv_mems_slave_compass.c ****    
 151:.\20648_driver\drivers/inv_mems_slave_compass.c **** 	/* Read WHOAMI through I2C SLV for compass */
 152:.\20648_driver\drivers/inv_mems_slave_compass.c **** 	result = inv_execute_read_secondary(COMPASS_I2C_SLV_READ, COMPASS_CHIP_ADDR, REG_AKM_ID, 1, data);
 153:.\20648_driver\drivers/inv_mems_slave_compass.c **** 	if (result) {
 154:.\20648_driver\drivers/inv_mems_slave_compass.c ****         inv_log("Read secondary error: Compass.\r\n");
 155:.\20648_driver\drivers/inv_mems_slave_compass.c **** 		return result;
 156:.\20648_driver\drivers/inv_mems_slave_compass.c ****     }
 157:.\20648_driver\drivers/inv_mems_slave_compass.c **** 	if (data[0] != DATA_AKM_ID) {
 158:.\20648_driver\drivers/inv_mems_slave_compass.c ****         inv_log("Compass not found!!\r\n");
 159:.\20648_driver\drivers/inv_mems_slave_compass.c **** 		return -1;
 160:.\20648_driver\drivers/inv_mems_slave_compass.c ****     }
 161:.\20648_driver\drivers/inv_mems_slave_compass.c ****     inv_log("Compass found.\r\n");
 162:.\20648_driver\drivers/inv_mems_slave_compass.c **** 
 163:.\20648_driver\drivers/inv_mems_slave_compass.c **** 	
 164:.\20648_driver\drivers/inv_mems_slave_compass.c **** 	/* Read conf and configure compass through I2C SLV for compass and subsequent channel */
 165:.\20648_driver\drivers/inv_mems_slave_compass.c **** 
 166:.\20648_driver\drivers/inv_mems_slave_compass.c **** 	/* set AKM to Fuse ROM access mode */
 167:.\20648_driver\drivers/inv_mems_slave_compass.c **** 	if (HW_AK09911 == COMPASS_SLAVE_ID) {
 168:.\20648_driver\drivers/inv_mems_slave_compass.c **** 		sModeRegAddr = REG_AK09911_CNTL2;
 169:.\20648_driver\drivers/inv_mems_slave_compass.c **** 		sens = REG_AK09911_SENSITIVITY;
 170:.\20648_driver\drivers/inv_mems_slave_compass.c **** 		cmd = DATA_AK09911_MODE_FR;
 171:.\20648_driver\drivers/inv_mems_slave_compass.c **** 	} else if (HW_AK09912 == COMPASS_SLAVE_ID) {
 172:.\20648_driver\drivers/inv_mems_slave_compass.c **** 		sModeRegAddr = REG_AK09912_CNTL2;
 173:.\20648_driver\drivers/inv_mems_slave_compass.c **** 		sens = REG_AK09912_SENSITIVITY;
 174:.\20648_driver\drivers/inv_mems_slave_compass.c **** 		cmd = DATA_AK09912_MODE_FR;
 175:.\20648_driver\drivers/inv_mems_slave_compass.c **** 	} else if (HW_AK09916 == COMPASS_SLAVE_ID) {
 176:.\20648_driver\drivers/inv_mems_slave_compass.c ****                 sModeRegAddr = REG_AK09916_CNTL2;
 177:.\20648_driver\drivers/inv_mems_slave_compass.c **** 		compass_sens[0] = 128;
 178:.\20648_driver\drivers/inv_mems_slave_compass.c ****                 compass_sens[1] = 128;
 179:.\20648_driver\drivers/inv_mems_slave_compass.c ****                 compass_sens[2] = 128;
 180:.\20648_driver\drivers/inv_mems_slave_compass.c ****         } else {
 181:.\20648_driver\drivers/inv_mems_slave_compass.c **** 		sModeRegAddr = REG_AKM_MODE;
 182:.\20648_driver\drivers/inv_mems_slave_compass.c **** 		sens = REG_AKM_SENSITIVITY;
 183:.\20648_driver\drivers/inv_mems_slave_compass.c **** 		cmd = DATA_AKM_MODE_FR;
 184:.\20648_driver\drivers/inv_mems_slave_compass.c **** 	}
 185:.\20648_driver\drivers/inv_mems_slave_compass.c ****         
 186:.\20648_driver\drivers/inv_mems_slave_compass.c ****         scale = 1;
 187:.\20648_driver\drivers/inv_mems_slave_compass.c ****         if (HW_AK8975 == COMPASS_SLAVE_ID) {
 188:.\20648_driver\drivers/inv_mems_slave_compass.c **** 		st_upper = AKM8975_ST_Upper;
 189:.\20648_driver\drivers/inv_mems_slave_compass.c **** 		st_lower = AKM8975_ST_Lower;
 190:.\20648_driver\drivers/inv_mems_slave_compass.c **** 	} else if (HW_AK8972 == COMPASS_SLAVE_ID) {
 191:.\20648_driver\drivers/inv_mems_slave_compass.c **** 		st_upper = AKM8972_ST_Upper;
 192:.\20648_driver\drivers/inv_mems_slave_compass.c **** 		st_lower = AKM8972_ST_Lower;
 193:.\20648_driver\drivers/inv_mems_slave_compass.c **** 	} else if (HW_AK8963 == COMPASS_SLAVE_ID) {
 194:.\20648_driver\drivers/inv_mems_slave_compass.c **** 		st_upper = AKM8963_ST_Upper;
 195:.\20648_driver\drivers/inv_mems_slave_compass.c **** 		st_lower = AKM8963_ST_Lower;
 196:.\20648_driver\drivers/inv_mems_slave_compass.c **** 	}  else if (HW_AK09911 == COMPASS_SLAVE_ID) {
 197:.\20648_driver\drivers/inv_mems_slave_compass.c **** 		st_upper = AK09911_ST_Upper;
 198:.\20648_driver\drivers/inv_mems_slave_compass.c **** 		st_lower = AK09911_ST_Lower;		
 199:.\20648_driver\drivers/inv_mems_slave_compass.c **** 	}  else if (HW_AK09912 == COMPASS_SLAVE_ID) {
 200:.\20648_driver\drivers/inv_mems_slave_compass.c **** 		st_upper = AK09912_ST_Upper;
 201:.\20648_driver\drivers/inv_mems_slave_compass.c **** 		st_lower = AK09912_ST_Lower;
 202:.\20648_driver\drivers/inv_mems_slave_compass.c **** 	} else if (HW_AK09916 == COMPASS_SLAVE_ID) {
 203:.\20648_driver\drivers/inv_mems_slave_compass.c **** 		st_upper = AK09916_ST_Upper;
ARM GAS  C:\Users\ADMINI~1\AppData\Local\Temp\ccKhMK9m.s 			page 5


 204:.\20648_driver\drivers/inv_mems_slave_compass.c **** 		st_lower = AK09916_ST_Lower;
 205:.\20648_driver\drivers/inv_mems_slave_compass.c ****                 goto skip_akm_fuse_rom_read;
 206:.\20648_driver\drivers/inv_mems_slave_compass.c **** 	} else {
 207:.\20648_driver\drivers/inv_mems_slave_compass.c **** 		return -EINVAL;
 208:.\20648_driver\drivers/inv_mems_slave_compass.c **** 	}
 209:.\20648_driver\drivers/inv_mems_slave_compass.c ****         
 210:.\20648_driver\drivers/inv_mems_slave_compass.c **** 	result = inv_read_secondary(COMPASS_I2C_SLV_READ, COMPASS_CHIP_ADDR, sens, THREE_AXES); //skip
 211:.\20648_driver\drivers/inv_mems_slave_compass.c **** 	if (result)
 212:.\20648_driver\drivers/inv_mems_slave_compass.c **** 		return result;
 213:.\20648_driver\drivers/inv_mems_slave_compass.c **** 	result = inv_execute_write_secondary(COMPASS_I2C_SLV_WRITE, COMPASS_CHIP_ADDR, sModeRegAddr, cmd);
 214:.\20648_driver\drivers/inv_mems_slave_compass.c **** 	if (result)
 215:.\20648_driver\drivers/inv_mems_slave_compass.c **** 		return result;
 216:.\20648_driver\drivers/inv_mems_slave_compass.c **** 	
 217:.\20648_driver\drivers/inv_mems_slave_compass.c **** 	result = inv_read_mems_reg(REG_EXT_SLV_SENS_DATA_00, THREE_AXES, compass_sens);//skip
 218:.\20648_driver\drivers/inv_mems_slave_compass.c **** 	if (result)
 219:.\20648_driver\drivers/inv_mems_slave_compass.c **** 		return result;
 220:.\20648_driver\drivers/inv_mems_slave_compass.c ****     
 221:.\20648_driver\drivers/inv_mems_slave_compass.c **** 	if (HW_AK09912 == COMPASS_SLAVE_ID) {
 222:.\20648_driver\drivers/inv_mems_slave_compass.c **** 		result = inv_execute_write_secondary(COMPASS_I2C_SLV_WRITE, COMPASS_CHIP_ADDR, REG_AK09912_CNTL1,
 223:.\20648_driver\drivers/inv_mems_slave_compass.c ****                                      DATA_AK9912_NSF << DATA_AK9912_NSF_SHIFT);//skip
 224:.\20648_driver\drivers/inv_mems_slave_compass.c **** 		if (result)
 225:.\20648_driver\drivers/inv_mems_slave_compass.c **** 			return result;
 226:.\20648_driver\drivers/inv_mems_slave_compass.c **** 	}
 227:.\20648_driver\drivers/inv_mems_slave_compass.c **** 	
 228:.\20648_driver\drivers/inv_mems_slave_compass.c **** 	/* Set compass in power down through I2C SLV for compass */
 229:.\20648_driver\drivers/inv_mems_slave_compass.c **** 	result = inv_execute_write_secondary(COMPASS_I2C_SLV_WRITE, COMPASS_CHIP_ADDR, sModeRegAddr, DATA_
 230:.\20648_driver\drivers/inv_mems_slave_compass.c **** 	if (result)
 231:.\20648_driver\drivers/inv_mems_slave_compass.c **** 		return result;
 232:.\20648_driver\drivers/inv_mems_slave_compass.c **** skip_akm_fuse_rom_read:
 233:.\20648_driver\drivers/inv_mems_slave_compass.c **** 	secondary_resume_state = 1;
 234:.\20648_driver\drivers/inv_mems_slave_compass.c **** 	return inv_suspend_akm();
 235:.\20648_driver\drivers/inv_mems_slave_compass.c **** }
 236:.\20648_driver\drivers/inv_mems_slave_compass.c **** 
 237:.\20648_driver\drivers/inv_mems_slave_compass.c **** int inv_check_akm_self_test()
 238:.\20648_driver\drivers/inv_mems_slave_compass.c **** {
  26              		.loc 1 238 0
  27              		.cfi_startproc
 239:.\20648_driver\drivers/inv_mems_slave_compass.c **** 	int result;
 240:.\20648_driver\drivers/inv_mems_slave_compass.c **** 	unsigned char data[6], mode, addr;
 241:.\20648_driver\drivers/inv_mems_slave_compass.c **** 	unsigned char counter, cntl;
 242:.\20648_driver\drivers/inv_mems_slave_compass.c **** 	short x, y, z;
 243:.\20648_driver\drivers/inv_mems_slave_compass.c **** 	unsigned char *sens;
 244:.\20648_driver\drivers/inv_mems_slave_compass.c **** 	int shift;
 245:.\20648_driver\drivers/inv_mems_slave_compass.c **** 	unsigned char slv_ctrl[2];
 246:.\20648_driver\drivers/inv_mems_slave_compass.c **** 	unsigned char odr_cfg;
 247:.\20648_driver\drivers/inv_mems_slave_compass.c **** 
 248:.\20648_driver\drivers/inv_mems_slave_compass.c **** 	addr = COMPASS_CHIP_ADDR;
 249:.\20648_driver\drivers/inv_mems_slave_compass.c **** 	sens = compass_sens;
 250:.\20648_driver\drivers/inv_mems_slave_compass.c **** 
 251:.\20648_driver\drivers/inv_mems_slave_compass.c **** 	/* back up registers */
 252:.\20648_driver\drivers/inv_mems_slave_compass.c **** 	/* SLV0_CTRL */
 253:.\20648_driver\drivers/inv_mems_slave_compass.c **** 	result = inv_read_mems_reg(REG_I2C_SLV0_CTRL, 1, &slv_ctrl[0]);
  28              		.loc 1 253 0
  29 0000 8620     		mov	r0, #134
 238:.\20648_driver\drivers/inv_mems_slave_compass.c **** 	int result;
  30              		.loc 1 238 0
  31 0002 F0B5     		push	{r4, r5, r6, r7, lr}
ARM GAS  C:\Users\ADMINI~1\AppData\Local\Temp\ccKhMK9m.s 			page 6


  32              		.cfi_def_cfa_offset 20
  33              		.cfi_offset 4, -20
  34              		.cfi_offset 5, -16
  35              		.cfi_offset 6, -12
  36              		.cfi_offset 7, -8
  37              		.cfi_offset 14, -4
 248:.\20648_driver\drivers/inv_mems_slave_compass.c **** 	sens = compass_sens;
  38              		.loc 1 248 0
  39 0004 974B     		ldr	r3, .L50
 238:.\20648_driver\drivers/inv_mems_slave_compass.c **** 	int result;
  40              		.loc 1 238 0
  41 0006 8BB0     		sub	sp, sp, #44
  42              		.cfi_def_cfa_offset 64
  43              		.loc 1 253 0
  44 0008 0121     		mov	r1, #1
  45 000a FF30     		add	r0, r0, #255
  46 000c 07AA     		add	r2, sp, #28
 248:.\20648_driver\drivers/inv_mems_slave_compass.c **** 	sens = compass_sens;
  47              		.loc 1 248 0
  48 000e 1E78     		ldrb	r6, [r3]
  49              	.LVL0:
  50              		.loc 1 253 0
  51 0010 FFF7FEFF 		bl	inv_read_mems_reg
  52              	.LVL1:
  53 0014 011E     		sub	r1, r0, #0
  54              	.LVL2:
 254:.\20648_driver\drivers/inv_mems_slave_compass.c **** 	if (result)
  55              		.loc 1 254 0
  56 0016 00D0     		beq	.LCB26
  57 0018 22E1     		b	.L39	@long jump
  58              	.LCB26:
 255:.\20648_driver\drivers/inv_mems_slave_compass.c **** 		return result;
 256:.\20648_driver\drivers/inv_mems_slave_compass.c **** 	result = inv_write_single_mems_reg(REG_I2C_SLV0_CTRL, 0);
  59              		.loc 1 256 0
  60 001a 8620     		mov	r0, #134
  61              	.LVL3:
  62 001c FF30     		add	r0, r0, #255
  63 001e FFF7FEFF 		bl	inv_write_single_mems_reg
  64              	.LVL4:
 257:.\20648_driver\drivers/inv_mems_slave_compass.c **** 	if (result)
  65              		.loc 1 257 0
  66 0022 0028     		cmp	r0, #0
  67 0024 00D0     		beq	.LCB35
  68 0026 1BE1     		b	.L39	@long jump
  69              	.LCB35:
 258:.\20648_driver\drivers/inv_mems_slave_compass.c **** 		return result;
 259:.\20648_driver\drivers/inv_mems_slave_compass.c **** 	/* SLV1_CTRL */
 260:.\20648_driver\drivers/inv_mems_slave_compass.c **** 	result = inv_read_mems_reg(REG_I2C_SLV1_CTRL, 1, &slv_ctrl[1]);
  70              		.loc 1 260 0
  71 0028 8A20     		mov	r0, #138
  72              	.LVL5:
  73 002a 0D22     		mov	r2, #13
  74 002c 04AB     		add	r3, sp, #16
  75 002e 0121     		mov	r1, #1
  76 0030 FF30     		add	r0, r0, #255
  77 0032 D218     		add	r2, r2, r3
  78 0034 FFF7FEFF 		bl	inv_read_mems_reg
ARM GAS  C:\Users\ADMINI~1\AppData\Local\Temp\ccKhMK9m.s 			page 7


  79              	.LVL6:
  80 0038 011E     		sub	r1, r0, #0
  81              	.LVL7:
 261:.\20648_driver\drivers/inv_mems_slave_compass.c **** 	if (result)
  82              		.loc 1 261 0
  83 003a 00D0     		beq	.LCB48
  84 003c 10E1     		b	.L39	@long jump
  85              	.LCB48:
 262:.\20648_driver\drivers/inv_mems_slave_compass.c **** 		return result;
 263:.\20648_driver\drivers/inv_mems_slave_compass.c **** 	result = inv_write_single_mems_reg(REG_I2C_SLV1_CTRL, 0);
  86              		.loc 1 263 0
  87 003e 8A20     		mov	r0, #138
  88              	.LVL8:
  89 0040 FF30     		add	r0, r0, #255
  90 0042 FFF7FEFF 		bl	inv_write_single_mems_reg
  91              	.LVL9:
 264:.\20648_driver\drivers/inv_mems_slave_compass.c **** 	if (result)
  92              		.loc 1 264 0
  93 0046 0028     		cmp	r0, #0
  94 0048 00D0     		beq	.LCB57
  95 004a 09E1     		b	.L39	@long jump
  96              	.LCB57:
 265:.\20648_driver\drivers/inv_mems_slave_compass.c **** 		return result;
 266:.\20648_driver\drivers/inv_mems_slave_compass.c **** 	/* I2C_MST ODR */
 267:.\20648_driver\drivers/inv_mems_slave_compass.c **** 	result = inv_read_mems_reg(REG_I2C_MST_ODR_CONFIG, 1, &odr_cfg);
  97              		.loc 1 267 0
  98 004c 0B22     		mov	r2, #11
  99 004e 04AB     		add	r3, sp, #16
 100 0050 8130     		add	r0, r0, #129
 101              	.LVL10:
 102 0052 0121     		mov	r1, #1
 103 0054 FF30     		add	r0, r0, #255
 104              	.LVL11:
 105 0056 D218     		add	r2, r2, r3
 106 0058 FFF7FEFF 		bl	inv_read_mems_reg
 107              	.LVL12:
 108 005c 011E     		sub	r1, r0, #0
 109              	.LVL13:
 268:.\20648_driver\drivers/inv_mems_slave_compass.c **** 	if (result)
 110              		.loc 1 268 0
 111 005e 00D0     		beq	.LCB72
 112 0060 FEE0     		b	.L39	@long jump
 113              	.LCB72:
 269:.\20648_driver\drivers/inv_mems_slave_compass.c **** 		return result;
 270:.\20648_driver\drivers/inv_mems_slave_compass.c **** 	result = inv_write_single_mems_reg(REG_I2C_MST_ODR_CONFIG, 0);
 114              		.loc 1 270 0
 115 0062 C020     		mov	r0, #192
 116              	.LVL14:
 117 0064 4000     		lsl	r0, r0, #1
 118 0066 FFF7FEFF 		bl	inv_write_single_mems_reg
 119              	.LVL15:
 271:.\20648_driver\drivers/inv_mems_slave_compass.c **** 	if (result)
 120              		.loc 1 271 0
 121 006a 0028     		cmp	r0, #0
 122 006c 00D0     		beq	.LCB81
 123 006e F7E0     		b	.L39	@long jump
 124              	.LCB81:
ARM GAS  C:\Users\ADMINI~1\AppData\Local\Temp\ccKhMK9m.s 			page 8


 272:.\20648_driver\drivers/inv_mems_slave_compass.c **** 		return result;
 273:.\20648_driver\drivers/inv_mems_slave_compass.c **** 
 274:.\20648_driver\drivers/inv_mems_slave_compass.c **** 	if (HW_AK09911 == COMPASS_SLAVE_ID)
 125              		.loc 1 274 0
 126 0070 7D4B     		ldr	r3, .L50+4
 127 0072 1F78     		ldrb	r7, [r3]
 128 0074 3B1C     		mov	r3, r7
 129 0076 233B     		sub	r3, r3, #35
 130 0078 DBB2     		uxtb	r3, r3
 131 007a 0593     		str	r3, [sp, #20]
 275:.\20648_driver\drivers/inv_mems_slave_compass.c **** 		mode = REG_AK09911_CNTL2;
 276:.\20648_driver\drivers/inv_mems_slave_compass.c **** 	else if (HW_AK09912 == COMPASS_SLAVE_ID)
 277:.\20648_driver\drivers/inv_mems_slave_compass.c **** 		mode = REG_AK09912_CNTL2;
 278:.\20648_driver\drivers/inv_mems_slave_compass.c **** 	else if (HW_AK09916 == COMPASS_SLAVE_ID)
 279:.\20648_driver\drivers/inv_mems_slave_compass.c ****                 mode = REG_AK09916_CNTL2;
 280:.\20648_driver\drivers/inv_mems_slave_compass.c ****         else
 281:.\20648_driver\drivers/inv_mems_slave_compass.c **** 		mode = REG_AKM_MODE;
 132              		.loc 1 281 0
 133 007c 0A23     		mov	r3, #10
 134 007e 0293     		str	r3, [sp, #8]
 274:.\20648_driver\drivers/inv_mems_slave_compass.c **** 		mode = REG_AK09911_CNTL2;
 135              		.loc 1 274 0
 136 0080 059B     		ldr	r3, [sp, #20]
 137 0082 022B     		cmp	r3, #2
 138 0084 01D8     		bhi	.L3
 275:.\20648_driver\drivers/inv_mems_slave_compass.c **** 		mode = REG_AK09911_CNTL2;
 139              		.loc 1 275 0
 140 0086 3123     		mov	r3, #49
 141 0088 0293     		str	r3, [sp, #8]
 142              	.L3:
 143              	.LVL16:
 282:.\20648_driver\drivers/inv_mems_slave_compass.c **** 	/* set to power down mode */
 283:.\20648_driver\drivers/inv_mems_slave_compass.c **** 	result = inv_execute_write_secondary(0, addr, mode, DATA_AKM_MODE_PD);
 144              		.loc 1 283 0
 145 008a 0020     		mov	r0, #0
 146              	.LVL17:
 147 008c 311C     		mov	r1, r6
 148 008e 029A     		ldr	r2, [sp, #8]
 149 0090 031C     		mov	r3, r0
 150 0092 FFF7FEFF 		bl	inv_execute_write_secondary
 151              	.LVL18:
 152 0096 041E     		sub	r4, r0, #0
 153              	.LVL19:
 284:.\20648_driver\drivers/inv_mems_slave_compass.c **** 	if (result)
 154              		.loc 1 284 0
 155 0098 3ED1     		bne	.L4
 285:.\20648_driver\drivers/inv_mems_slave_compass.c **** 		goto AKM_fail;
 286:.\20648_driver\drivers/inv_mems_slave_compass.c **** 
 287:.\20648_driver\drivers/inv_mems_slave_compass.c **** 	/* write 1 to ASTC register */
 288:.\20648_driver\drivers/inv_mems_slave_compass.c **** 	if ((HW_AK09911 != COMPASS_SLAVE_ID) &&
 156              		.loc 1 288 0
 157 009a 059B     		ldr	r3, [sp, #20]
 158 009c 022B     		cmp	r3, #2
 159 009e 07D9     		bls	.L5
 289:.\20648_driver\drivers/inv_mems_slave_compass.c **** 		(HW_AK09912 != COMPASS_SLAVE_ID) &&
 290:.\20648_driver\drivers/inv_mems_slave_compass.c ****                   (HW_AK09916 != COMPASS_SLAVE_ID)) {
 291:.\20648_driver\drivers/inv_mems_slave_compass.c **** 		result = inv_execute_write_secondary(0, addr, REG_AKM_ST_CTRL, DATA_AKM_SELF_TEST);
ARM GAS  C:\Users\ADMINI~1\AppData\Local\Temp\ccKhMK9m.s 			page 9


 160              		.loc 1 291 0
 161 00a0 311C     		mov	r1, r6
 162 00a2 0C22     		mov	r2, #12
 163 00a4 4023     		mov	r3, #64
 164 00a6 FFF7FEFF 		bl	inv_execute_write_secondary
 165              	.LVL20:
 166 00aa 041E     		sub	r4, r0, #0
 167              	.LVL21:
 292:.\20648_driver\drivers/inv_mems_slave_compass.c **** 		if (result)
 168              		.loc 1 292 0
 169 00ac 37D1     		bne	.L6
 170 00ae 07E0     		b	.L7
 171              	.L5:
 293:.\20648_driver\drivers/inv_mems_slave_compass.c **** 			goto AKM_fail;
 294:.\20648_driver\drivers/inv_mems_slave_compass.c **** 	}
 295:.\20648_driver\drivers/inv_mems_slave_compass.c **** 	/* set self test mode */
 296:.\20648_driver\drivers/inv_mems_slave_compass.c **** 	if (HW_AK09911 == COMPASS_SLAVE_ID)
 172              		.loc 1 296 0
 173 00b0 232F     		cmp	r7, #35
 174 00b2 01D0     		beq	.L44
 297:.\20648_driver\drivers/inv_mems_slave_compass.c **** 		result = inv_execute_write_secondary(0, addr, mode, DATA_AK09911_MODE_ST);
 298:.\20648_driver\drivers/inv_mems_slave_compass.c **** 	else if (HW_AK09912 == COMPASS_SLAVE_ID)
 175              		.loc 1 298 0
 176 00b4 242F     		cmp	r7, #36
 177 00b6 03D1     		bne	.L7
 178              	.L44:
 299:.\20648_driver\drivers/inv_mems_slave_compass.c **** 		result = inv_execute_write_secondary(0, addr, mode, DATA_AK09912_MODE_ST);
 179              		.loc 1 299 0
 180 00b8 201C     		mov	r0, r4
 181              	.LVL22:
 182 00ba 311C     		mov	r1, r6
 183 00bc 029A     		ldr	r2, [sp, #8]
 184 00be 04E0     		b	.L42
 185              	.LVL23:
 186              	.L7:
 300:.\20648_driver\drivers/inv_mems_slave_compass.c ****         else if (HW_AK09916 == COMPASS_SLAVE_ID)
 301:.\20648_driver\drivers/inv_mems_slave_compass.c ****                 result = inv_execute_write_secondary(0, addr, mode, DATA_AK09916_MODE_ST);
 187              		.loc 1 301 0
 188 00c0 0020     		mov	r0, #0
 189              	.LVL24:
 190 00c2 311C     		mov	r1, r6
 191 00c4 029A     		ldr	r2, [sp, #8]
 300:.\20648_driver\drivers/inv_mems_slave_compass.c ****         else if (HW_AK09916 == COMPASS_SLAVE_ID)
 192              		.loc 1 300 0
 193 00c6 252F     		cmp	r7, #37
 194 00c8 05D1     		bne	.L10
 195              	.L42:
 196              		.loc 1 301 0
 197 00ca 1023     		mov	r3, #16
 198 00cc FFF7FEFF 		bl	inv_execute_write_secondary
 199              	.LVL25:
 200 00d0 041E     		sub	r4, r0, #0
 201              	.LVL26:
 302:.\20648_driver\drivers/inv_mems_slave_compass.c **** 	else
 303:.\20648_driver\drivers/inv_mems_slave_compass.c **** 		result = inv_execute_write_secondary(0, addr, mode,	DATA_AKM_MODE_ST);
 304:.\20648_driver\drivers/inv_mems_slave_compass.c **** 
 305:.\20648_driver\drivers/inv_mems_slave_compass.c **** 	if (result)
ARM GAS  C:\Users\ADMINI~1\AppData\Local\Temp\ccKhMK9m.s 			page 10


 202              		.loc 1 305 0
 203 00d2 38D1     		bne	.L24
 204 00d4 3FE0     		b	.L11
 205              	.LVL27:
 206              	.L10:
 303:.\20648_driver\drivers/inv_mems_slave_compass.c **** 
 207              		.loc 1 303 0
 208 00d6 0823     		mov	r3, #8
 209 00d8 FFF7FEFF 		bl	inv_execute_write_secondary
 210              	.LVL28:
 211 00dc 041E     		sub	r4, r0, #0
 212              	.LVL29:
 213              		.loc 1 305 0
 214 00de 1BD1     		bne	.L4
 215 00e0 39E0     		b	.L11
 216              	.LVL30:
 217              	.L47:
 306:.\20648_driver\drivers/inv_mems_slave_compass.c **** 		goto AKM_fail;
 307:.\20648_driver\drivers/inv_mems_slave_compass.c **** 	counter = DEF_ST_COMPASS_TRY_TIMES;
 308:.\20648_driver\drivers/inv_mems_slave_compass.c **** 	while (counter > 0) {
 309:.\20648_driver\drivers/inv_mems_slave_compass.c **** //		usleep_range(DEF_ST_COMPASS_WAIT_MIN, DEF_ST_COMPASS_WAIT_MAX);
 310:.\20648_driver\drivers/inv_mems_slave_compass.c ****         inv_sleep(15);
 311:.\20648_driver\drivers/inv_mems_slave_compass.c ****         
 312:.\20648_driver\drivers/inv_mems_slave_compass.c **** 		if (HW_AK09911 == COMPASS_SLAVE_ID)
 313:.\20648_driver\drivers/inv_mems_slave_compass.c **** 			result = inv_execute_read_secondary(0, addr, REG_AK09911_STATUS1, 1, data);
 314:.\20648_driver\drivers/inv_mems_slave_compass.c **** 		else if (HW_AK09912 == COMPASS_SLAVE_ID)
 315:.\20648_driver\drivers/inv_mems_slave_compass.c **** 			result = inv_execute_read_secondary(0, addr, REG_AK09912_STATUS1, 1, data);
 316:.\20648_driver\drivers/inv_mems_slave_compass.c ****                 else if (HW_AK09916 == COMPASS_SLAVE_ID)
 317:.\20648_driver\drivers/inv_mems_slave_compass.c ****                         result = inv_execute_read_secondary(0, addr, REG_AK09916_STATUS1, 1, data);
 318:.\20648_driver\drivers/inv_mems_slave_compass.c **** 		else
 319:.\20648_driver\drivers/inv_mems_slave_compass.c **** 			result = inv_execute_read_secondary(0, addr, REG_AKM_STATUS, 1, data);
 320:.\20648_driver\drivers/inv_mems_slave_compass.c **** 		if (result)
 321:.\20648_driver\drivers/inv_mems_slave_compass.c **** 			goto AKM_fail;
 322:.\20648_driver\drivers/inv_mems_slave_compass.c **** 		if ((data[0] & DATA_AKM_DRDY) == 0)
 218              		.loc 1 322 0
 219 00e2 08AB     		add	r3, sp, #32
 220 00e4 1A78     		ldrb	r2, [r3]
 221 00e6 D207     		lsl	r2, r2, #31
 222 00e8 21D4     		bmi	.L16
 223              	.LVL31:
 224 00ea 013D     		sub	r5, r5, #1
 225              	.LVL32:
 226 00ec EDB2     		uxtb	r5, r5
 308:.\20648_driver\drivers/inv_mems_slave_compass.c **** //		usleep_range(DEF_ST_COMPASS_WAIT_MIN, DEF_ST_COMPASS_WAIT_MAX);
 227              		.loc 1 308 0
 228 00ee 002D     		cmp	r5, #0
 229 00f0 77D0     		beq	.L23
 230              	.L17:
 231              	.LVL33:
 310:.\20648_driver\drivers/inv_mems_slave_compass.c ****         
 232              		.loc 1 310 0
 233 00f2 0F20     		mov	r0, #15
 234              	.LVL34:
 235 00f4 FFF7FEFF 		bl	inv_sleep
 236              	.LVL35:
 237 00f8 08AB     		add	r3, sp, #32
 313:.\20648_driver\drivers/inv_mems_slave_compass.c **** 		else if (HW_AK09912 == COMPASS_SLAVE_ID)
ARM GAS  C:\Users\ADMINI~1\AppData\Local\Temp\ccKhMK9m.s 			page 11


 238              		.loc 1 313 0
 239 00fa 0093     		str	r3, [sp]
 240 00fc 0020     		mov	r0, #0
 241 00fe 311C     		mov	r1, r6
 312:.\20648_driver\drivers/inv_mems_slave_compass.c **** 			result = inv_execute_read_secondary(0, addr, REG_AK09911_STATUS1, 1, data);
 242              		.loc 1 312 0
 243 0100 232F     		cmp	r7, #35
 244 0102 2AD0     		beq	.L45
 314:.\20648_driver\drivers/inv_mems_slave_compass.c **** 			result = inv_execute_read_secondary(0, addr, REG_AK09912_STATUS1, 1, data);
 245              		.loc 1 314 0
 246 0104 242F     		cmp	r7, #36
 247 0106 28D0     		beq	.L45
 319:.\20648_driver\drivers/inv_mems_slave_compass.c **** 		if (result)
 248              		.loc 1 319 0
 249 0108 0222     		mov	r2, #2
 316:.\20648_driver\drivers/inv_mems_slave_compass.c ****                         result = inv_execute_read_secondary(0, addr, REG_AK09916_STATUS1, 1, data);
 250              		.loc 1 316 0
 251 010a 252F     		cmp	r7, #37
 252 010c 25D0     		beq	.L45
 253              	.L41:
 319:.\20648_driver\drivers/inv_mems_slave_compass.c **** 		if (result)
 254              		.loc 1 319 0
 255 010e 0123     		mov	r3, #1
 256 0110 FFF7FEFF 		bl	inv_execute_read_secondary
 257              	.LVL36:
 258 0114 041E     		sub	r4, r0, #0
 259              	.LVL37:
 320:.\20648_driver\drivers/inv_mems_slave_compass.c **** 			goto AKM_fail;
 260              		.loc 1 320 0
 261 0116 E4D0     		beq	.L47
 262              	.LVL38:
 263              	.L4:
 323:.\20648_driver\drivers/inv_mems_slave_compass.c **** 			counter--;
 324:.\20648_driver\drivers/inv_mems_slave_compass.c **** 		else
 325:.\20648_driver\drivers/inv_mems_slave_compass.c **** 			counter = 0;
 326:.\20648_driver\drivers/inv_mems_slave_compass.c **** 	}
 327:.\20648_driver\drivers/inv_mems_slave_compass.c **** 	if ((data[0] & DATA_AKM_DRDY) == 0) {
 328:.\20648_driver\drivers/inv_mems_slave_compass.c **** 		result = -EINVAL;
 329:.\20648_driver\drivers/inv_mems_slave_compass.c **** 		goto AKM_fail;
 330:.\20648_driver\drivers/inv_mems_slave_compass.c **** 	}
 331:.\20648_driver\drivers/inv_mems_slave_compass.c **** 	if (HW_AK09911 == COMPASS_SLAVE_ID) {
 332:.\20648_driver\drivers/inv_mems_slave_compass.c **** 		result = inv_execute_read_secondary(0, addr, REG_AK09911_MEASURE_DATA, BYTES_PER_SENSOR, data);
 333:.\20648_driver\drivers/inv_mems_slave_compass.c **** 	} else if (HW_AK09912 == COMPASS_SLAVE_ID) {
 334:.\20648_driver\drivers/inv_mems_slave_compass.c **** 		result = inv_execute_read_secondary(0, addr, REG_AK09912_MEASURE_DATA, BYTES_PER_SENSOR, data);
 335:.\20648_driver\drivers/inv_mems_slave_compass.c **** 	} else if (HW_AK09916 == COMPASS_SLAVE_ID) {
 336:.\20648_driver\drivers/inv_mems_slave_compass.c ****                 result = inv_execute_read_secondary(0, addr, REG_AK09916_MEASURE_DATA, BYTES_PER_SE
 337:.\20648_driver\drivers/inv_mems_slave_compass.c ****         } else {
 338:.\20648_driver\drivers/inv_mems_slave_compass.c **** 		result = inv_execute_read_secondary(0, addr, REG_AKM_MEASURE_DATA, BYTES_PER_SENSOR, data);
 339:.\20648_driver\drivers/inv_mems_slave_compass.c **** 	}
 340:.\20648_driver\drivers/inv_mems_slave_compass.c **** 	if (result)
 341:.\20648_driver\drivers/inv_mems_slave_compass.c **** 		goto AKM_fail;
 342:.\20648_driver\drivers/inv_mems_slave_compass.c **** 
 343:.\20648_driver\drivers/inv_mems_slave_compass.c ****     x = ((short)data[1])<<8|data[0];
 344:.\20648_driver\drivers/inv_mems_slave_compass.c ****     y = ((short)data[3])<<8|data[2];
 345:.\20648_driver\drivers/inv_mems_slave_compass.c ****     z = ((short)data[5])<<8|data[4];
 346:.\20648_driver\drivers/inv_mems_slave_compass.c ****     
 347:.\20648_driver\drivers/inv_mems_slave_compass.c **** 	if (HW_AK09911 == COMPASS_SLAVE_ID)
ARM GAS  C:\Users\ADMINI~1\AppData\Local\Temp\ccKhMK9m.s 			page 12


 348:.\20648_driver\drivers/inv_mems_slave_compass.c **** 		shift = 7;
 349:.\20648_driver\drivers/inv_mems_slave_compass.c **** 	else
 350:.\20648_driver\drivers/inv_mems_slave_compass.c **** 		shift = 8;
 351:.\20648_driver\drivers/inv_mems_slave_compass.c **** 	x = ((x * (sens[0] + 128)) >> shift);
 352:.\20648_driver\drivers/inv_mems_slave_compass.c **** 	y = ((y * (sens[1] + 128)) >> shift);
 353:.\20648_driver\drivers/inv_mems_slave_compass.c **** 	z = ((z * (sens[2] + 128)) >> shift);
 354:.\20648_driver\drivers/inv_mems_slave_compass.c **** 	if (HW_AK8963 == COMPASS_SLAVE_ID) {
 355:.\20648_driver\drivers/inv_mems_slave_compass.c **** 		result = inv_execute_read_secondary(0, addr, REG_AKM8963_CNTL1, 1, &cntl);
 356:.\20648_driver\drivers/inv_mems_slave_compass.c **** 		if (result)
 357:.\20648_driver\drivers/inv_mems_slave_compass.c **** 			goto AKM_fail;
 358:.\20648_driver\drivers/inv_mems_slave_compass.c **** 		if (0 == (cntl & DATA_AKM8963_BIT)) {
 359:.\20648_driver\drivers/inv_mems_slave_compass.c **** 			x <<= DEF_ST_COMPASS_8963_SHIFT;
 360:.\20648_driver\drivers/inv_mems_slave_compass.c **** 			y <<= DEF_ST_COMPASS_8963_SHIFT;
 361:.\20648_driver\drivers/inv_mems_slave_compass.c **** 			z <<= DEF_ST_COMPASS_8963_SHIFT;
 362:.\20648_driver\drivers/inv_mems_slave_compass.c **** 		}
 363:.\20648_driver\drivers/inv_mems_slave_compass.c **** 	}
 364:.\20648_driver\drivers/inv_mems_slave_compass.c **** 
 365:.\20648_driver\drivers/inv_mems_slave_compass.c **** 	result = -EINVAL;
 366:.\20648_driver\drivers/inv_mems_slave_compass.c **** 	if (x > st_upper[0] || x < st_lower[0])
 367:.\20648_driver\drivers/inv_mems_slave_compass.c **** 		goto AKM_fail;
 368:.\20648_driver\drivers/inv_mems_slave_compass.c **** 	if (y > st_upper[1] || y < st_lower[1])
 369:.\20648_driver\drivers/inv_mems_slave_compass.c **** 		goto AKM_fail;
 370:.\20648_driver\drivers/inv_mems_slave_compass.c **** 	if (z > st_upper[2] || z < st_lower[2])
 371:.\20648_driver\drivers/inv_mems_slave_compass.c **** 		goto AKM_fail;
 372:.\20648_driver\drivers/inv_mems_slave_compass.c **** 	result = 0;
 373:.\20648_driver\drivers/inv_mems_slave_compass.c **** AKM_fail:
 374:.\20648_driver\drivers/inv_mems_slave_compass.c **** 	/*write 0 to ASTC register */
 375:.\20648_driver\drivers/inv_mems_slave_compass.c **** 	if ((HW_AK09911 != COMPASS_SLAVE_ID) &&
 264              		.loc 1 375 0
 265 0118 059B     		ldr	r3, [sp, #20]
 266 011a 022B     		cmp	r3, #2
 267 011c 13D9     		bls	.L24
 268              	.L6:
 376:.\20648_driver\drivers/inv_mems_slave_compass.c **** 		(HW_AK09912 != COMPASS_SLAVE_ID) &&
 377:.\20648_driver\drivers/inv_mems_slave_compass.c ****                   (HW_AK09916 != COMPASS_SLAVE_ID)) {
 378:.\20648_driver\drivers/inv_mems_slave_compass.c **** 		result |= inv_execute_write_secondary(0, addr, REG_AKM_ST_CTRL, 0);
 269              		.loc 1 378 0
 270 011e 0020     		mov	r0, #0
 271 0120 311C     		mov	r1, r6
 272 0122 0C22     		mov	r2, #12
 273 0124 031C     		mov	r3, r0
 274 0126 FFF7FEFF 		bl	inv_execute_write_secondary
 275              	.LVL39:
 276 012a 0443     		orr	r4, r0
 277              	.LVL40:
 278 012c 0BE0     		b	.L24
 279              	.LVL41:
 280              	.L16:
 331:.\20648_driver\drivers/inv_mems_slave_compass.c **** 		result = inv_execute_read_secondary(0, addr, REG_AK09911_MEASURE_DATA, BYTES_PER_SENSOR, data);
 281              		.loc 1 331 0
 282 012e 232F     		cmp	r7, #35
 283 0130 15D1     		bne	.L40
 332:.\20648_driver\drivers/inv_mems_slave_compass.c **** 	} else if (HW_AK09912 == COMPASS_SLAVE_ID) {
 284              		.loc 1 332 0
 285 0132 201C     		mov	r0, r4
 286              	.LVL42:
 287 0134 311C     		mov	r1, r6
ARM GAS  C:\Users\ADMINI~1\AppData\Local\Temp\ccKhMK9m.s 			page 13


 288 0136 0093     		str	r3, [sp]
 289              	.LVL43:
 290              	.L43:
 336:.\20648_driver\drivers/inv_mems_slave_compass.c ****         } else {
 291              		.loc 1 336 0
 292 0138 1122     		mov	r2, #17
 293 013a 0623     		mov	r3, #6
 294 013c FFF7FEFF 		bl	inv_execute_read_secondary
 295              	.LVL44:
 340:.\20648_driver\drivers/inv_mems_slave_compass.c **** 		goto AKM_fail;
 296              		.loc 1 340 0
 297 0140 0028     		cmp	r0, #0
 298 0142 19D0     		beq	.L25
 299 0144 041C     		mov	r4, r0
 300              	.LVL45:
 301              	.L24:
 379:.\20648_driver\drivers/inv_mems_slave_compass.c **** 	}
 380:.\20648_driver\drivers/inv_mems_slave_compass.c **** 	/*set to power down mode */
 381:.\20648_driver\drivers/inv_mems_slave_compass.c **** 	result |= inv_execute_write_secondary(0, addr, mode, DATA_AKM_MODE_PD);
 302              		.loc 1 381 0
 303 0146 0020     		mov	r0, #0
 304 0148 311C     		mov	r1, r6
 305 014a 029A     		ldr	r2, [sp, #8]
 306 014c 031C     		mov	r3, r0
 307 014e FFF7FEFF 		bl	inv_execute_write_secondary
 308              	.LVL46:
 309 0152 2043     		orr	r0, r4
 310              	.LVL47:
 382:.\20648_driver\drivers/inv_mems_slave_compass.c **** 
 383:.\20648_driver\drivers/inv_mems_slave_compass.c ****     return result;
 311              		.loc 1 383 0
 312 0154 84E0     		b	.L39
 313              	.LVL48:
 314              	.L11:
 281:.\20648_driver\drivers/inv_mems_slave_compass.c **** 	/* set to power down mode */
 315              		.loc 1 281 0
 316 0156 0A25     		mov	r5, #10
 317 0158 CBE7     		b	.L17
 318              	.LVL49:
 319              	.L45:
 317:.\20648_driver\drivers/inv_mems_slave_compass.c **** 		else
 320              		.loc 1 317 0
 321 015a 1022     		mov	r2, #16
 322 015c D7E7     		b	.L41
 323              	.LVL50:
 324              	.L40:
 334:.\20648_driver\drivers/inv_mems_slave_compass.c **** 	} else if (HW_AK09916 == COMPASS_SLAVE_ID) {
 325              		.loc 1 334 0
 326 015e 0093     		str	r3, [sp]
 327 0160 201C     		mov	r0, r4
 328              	.LVL51:
 329 0162 311C     		mov	r1, r6
 333:.\20648_driver\drivers/inv_mems_slave_compass.c **** 		result = inv_execute_read_secondary(0, addr, REG_AK09912_MEASURE_DATA, BYTES_PER_SENSOR, data);
 330              		.loc 1 333 0
 331 0164 242F     		cmp	r7, #36
 332 0166 E7D0     		beq	.L43
 333              	.LVL52:
ARM GAS  C:\Users\ADMINI~1\AppData\Local\Temp\ccKhMK9m.s 			page 14


 335:.\20648_driver\drivers/inv_mems_slave_compass.c ****                 result = inv_execute_read_secondary(0, addr, REG_AK09916_MEASURE_DATA, BYTES_PER_SE
 334              		.loc 1 335 0
 335 0168 252F     		cmp	r7, #37
 336 016a E5D0     		beq	.L43
 338:.\20648_driver\drivers/inv_mems_slave_compass.c **** 	}
 337              		.loc 1 338 0
 338 016c 0322     		mov	r2, #3
 339 016e 0623     		mov	r3, #6
 340 0170 FFF7FEFF 		bl	inv_execute_read_secondary
 341              	.LVL53:
 340:.\20648_driver\drivers/inv_mems_slave_compass.c **** 		goto AKM_fail;
 342              		.loc 1 340 0
 343 0174 0028     		cmp	r0, #0
 344 0176 71D1     		bne	.L37
 345              	.L25:
 343:.\20648_driver\drivers/inv_mems_slave_compass.c ****     y = ((short)data[3])<<8|data[2];
 346              		.loc 1 343 0
 347 0178 08AD     		add	r5, sp, #32
 348 017a 6978     		ldrb	r1, [r5, #1]
 349 017c 2A78     		ldrb	r2, [r5]
 345:.\20648_driver\drivers/inv_mems_slave_compass.c ****     
 350              		.loc 1 345 0
 351 017e 6879     		ldrb	r0, [r5, #5]
 352              	.LVL54:
 343:.\20648_driver\drivers/inv_mems_slave_compass.c ****     y = ((short)data[3])<<8|data[2];
 353              		.loc 1 343 0
 354 0180 0902     		lsl	r1, r1, #8
 344:.\20648_driver\drivers/inv_mems_slave_compass.c ****     z = ((short)data[5])<<8|data[4];
 355              		.loc 1 344 0
 356 0182 EB78     		ldrb	r3, [r5, #3]
 343:.\20648_driver\drivers/inv_mems_slave_compass.c ****     y = ((short)data[3])<<8|data[2];
 357              		.loc 1 343 0
 358 0184 1143     		orr	r1, r2
 359              	.LVL55:
 344:.\20648_driver\drivers/inv_mems_slave_compass.c ****     z = ((short)data[5])<<8|data[4];
 360              		.loc 1 344 0
 361 0186 AA78     		ldrb	r2, [r5, #2]
 345:.\20648_driver\drivers/inv_mems_slave_compass.c ****     
 362              		.loc 1 345 0
 363 0188 2D79     		ldrb	r5, [r5, #4]
 364 018a 0002     		lsl	r0, r0, #8
 365 018c 0543     		orr	r5, r0
 350:.\20648_driver\drivers/inv_mems_slave_compass.c **** 	x = ((x * (sens[0] + 128)) >> shift);
 366              		.loc 1 350 0
 367 018e 381C     		mov	r0, r7
 344:.\20648_driver\drivers/inv_mems_slave_compass.c ****     z = ((short)data[5])<<8|data[4];
 368              		.loc 1 344 0
 369 0190 1B02     		lsl	r3, r3, #8
 350:.\20648_driver\drivers/inv_mems_slave_compass.c **** 	x = ((x * (sens[0] + 128)) >> shift);
 370              		.loc 1 350 0
 371 0192 2338     		sub	r0, r0, #35
 344:.\20648_driver\drivers/inv_mems_slave_compass.c ****     z = ((short)data[5])<<8|data[4];
 372              		.loc 1 344 0
 373 0194 1343     		orr	r3, r2
 374              	.LVL56:
 345:.\20648_driver\drivers/inv_mems_slave_compass.c ****     
 375              		.loc 1 345 0
ARM GAS  C:\Users\ADMINI~1\AppData\Local\Temp\ccKhMK9m.s 			page 15


 376 0196 AC46     		mov	ip, r5
 377              	.LVL57:
 350:.\20648_driver\drivers/inv_mems_slave_compass.c **** 	x = ((x * (sens[0] + 128)) >> shift);
 378              		.loc 1 350 0
 379 0198 4242     		neg	r2, r0
 380 019a 5041     		adc	r0, r0, r2
 381 019c 0825     		mov	r5, #8
 382 019e 281A     		sub	r0, r5, r0
 383              	.LVL58:
 351:.\20648_driver\drivers/inv_mems_slave_compass.c **** 	y = ((y * (sens[1] + 128)) >> shift);
 384              		.loc 1 351 0
 385 01a0 324D     		ldr	r5, .L50+8
 386 01a2 09B2     		sxth	r1, r1
 387 01a4 2A78     		ldrb	r2, [r5]
 388 01a6 8032     		add	r2, r2, #128
 389 01a8 4A43     		mul	r2, r1
 390 01aa 0241     		asr	r2, r2, r0
 391 01ac 92B2     		uxth	r2, r2
 392 01ae 0392     		str	r2, [sp, #12]
 393              	.LVL59:
 352:.\20648_driver\drivers/inv_mems_slave_compass.c **** 	z = ((z * (sens[2] + 128)) >> shift);
 394              		.loc 1 352 0
 395 01b0 1AB2     		sxth	r2, r3
 396 01b2 6B78     		ldrb	r3, [r5, #1]
 397              	.LVL60:
 353:.\20648_driver\drivers/inv_mems_slave_compass.c **** 	if (HW_AK8963 == COMPASS_SLAVE_ID) {
 398              		.loc 1 353 0
 399 01b4 AD78     		ldrb	r5, [r5, #2]
 352:.\20648_driver\drivers/inv_mems_slave_compass.c **** 	z = ((z * (sens[2] + 128)) >> shift);
 400              		.loc 1 352 0
 401 01b6 8033     		add	r3, r3, #128
 402 01b8 5343     		mul	r3, r2
 403 01ba 0341     		asr	r3, r3, r0
 404 01bc 9BB2     		uxth	r3, r3
 405 01be 0493     		str	r3, [sp, #16]
 406              	.LVL61:
 353:.\20648_driver\drivers/inv_mems_slave_compass.c **** 	if (HW_AK8963 == COMPASS_SLAVE_ID) {
 407              		.loc 1 353 0
 408 01c0 6346     		mov	r3, ip
 409 01c2 8035     		add	r5, r5, #128
 410 01c4 1BB2     		sxth	r3, r3
 411 01c6 5D43     		mul	r5, r3
 412 01c8 0541     		asr	r5, r5, r0
 413 01ca ADB2     		uxth	r5, r5
 414              	.LVL62:
 354:.\20648_driver\drivers/inv_mems_slave_compass.c **** 		result = inv_execute_read_secondary(0, addr, REG_AKM8963_CNTL1, 1, &cntl);
 415              		.loc 1 354 0
 416 01cc 202F     		cmp	r7, #32
 417 01ce 0BD0     		beq	.L48
 418              	.LVL63:
 419              	.L22:
 366:.\20648_driver\drivers/inv_mems_slave_compass.c **** 		goto AKM_fail;
 420              		.loc 1 366 0
 421 01d0 274B     		ldr	r3, .L50+12
 422 01d2 1968     		ldr	r1, [r3]
 423 01d4 0023     		mov	r3, #0
 424 01d6 CA5E     		ldrsh	r2, [r1, r3]
ARM GAS  C:\Users\ADMINI~1\AppData\Local\Temp\ccKhMK9m.s 			page 16


 425 01d8 6B46     		mov	r3, sp
 426 01da 0C20     		mov	r0, #12
 427 01dc 1B5E     		ldrsh	r3, [r3, r0]
 428 01de 9A42     		cmp	r2, r3
 429 01e0 21DA     		bge	.L49
 430              	.LVL64:
 431              	.L23:
 328:.\20648_driver\drivers/inv_mems_slave_compass.c **** 		goto AKM_fail;
 432              		.loc 1 328 0
 433 01e2 1624     		mov	r4, #22
 434 01e4 6442     		neg	r4, r4
 435 01e6 97E7     		b	.L4
 436              	.LVL65:
 437              	.L48:
 355:.\20648_driver\drivers/inv_mems_slave_compass.c **** 		if (result)
 438              		.loc 1 355 0
 439 01e8 04AB     		add	r3, sp, #16
 440              	.LVL66:
 441 01ea 163F     		sub	r7, r7, #22
 442 01ec FF18     		add	r7, r7, r3
 443 01ee 0097     		str	r7, [sp]
 444 01f0 0020     		mov	r0, #0
 445              	.LVL67:
 446 01f2 311C     		mov	r1, r6
 447 01f4 0A22     		mov	r2, #10
 448 01f6 0123     		mov	r3, #1
 449              	.LVL68:
 450 01f8 FFF7FEFF 		bl	inv_execute_read_secondary
 451              	.LVL69:
 356:.\20648_driver\drivers/inv_mems_slave_compass.c **** 			goto AKM_fail;
 452              		.loc 1 356 0
 453 01fc 0028     		cmp	r0, #0
 454 01fe 2DD1     		bne	.L37
 358:.\20648_driver\drivers/inv_mems_slave_compass.c **** 			x <<= DEF_ST_COMPASS_8963_SHIFT;
 455              		.loc 1 358 0
 456 0200 3B78     		ldrb	r3, [r7]
 457 0202 DB06     		lsl	r3, r3, #27
 458 0204 E4D4     		bmi	.L22
 359:.\20648_driver\drivers/inv_mems_slave_compass.c **** 			y <<= DEF_ST_COMPASS_8963_SHIFT;
 459              		.loc 1 359 0
 460 0206 6B46     		mov	r3, sp
 461 0208 0C22     		mov	r2, #12
 462 020a 9B5E     		ldrsh	r3, [r3, r2]
 361:.\20648_driver\drivers/inv_mems_slave_compass.c **** 		}
 463              		.loc 1 361 0
 464 020c 2DB2     		sxth	r5, r5
 359:.\20648_driver\drivers/inv_mems_slave_compass.c **** 			y <<= DEF_ST_COMPASS_8963_SHIFT;
 465              		.loc 1 359 0
 466 020e 9B00     		lsl	r3, r3, #2
 467 0210 9BB2     		uxth	r3, r3
 468 0212 0393     		str	r3, [sp, #12]
 469              	.LVL70:
 360:.\20648_driver\drivers/inv_mems_slave_compass.c **** 			z <<= DEF_ST_COMPASS_8963_SHIFT;
 470              		.loc 1 360 0
 471 0214 6B46     		mov	r3, sp
 472 0216 1022     		mov	r2, #16
 473 0218 9B5E     		ldrsh	r3, [r3, r2]
ARM GAS  C:\Users\ADMINI~1\AppData\Local\Temp\ccKhMK9m.s 			page 17


 361:.\20648_driver\drivers/inv_mems_slave_compass.c **** 		}
 474              		.loc 1 361 0
 475 021a AD00     		lsl	r5, r5, #2
 476              	.LVL71:
 360:.\20648_driver\drivers/inv_mems_slave_compass.c **** 			z <<= DEF_ST_COMPASS_8963_SHIFT;
 477              		.loc 1 360 0
 478 021c 9B00     		lsl	r3, r3, #2
 479 021e 9BB2     		uxth	r3, r3
 480 0220 0493     		str	r3, [sp, #16]
 481              	.LVL72:
 361:.\20648_driver\drivers/inv_mems_slave_compass.c **** 		}
 482              		.loc 1 361 0
 483 0222 ADB2     		uxth	r5, r5
 484              	.LVL73:
 485 0224 D4E7     		b	.L22
 486              	.LVL74:
 487              	.L49:
 366:.\20648_driver\drivers/inv_mems_slave_compass.c **** 		goto AKM_fail;
 488              		.loc 1 366 0 discriminator 1
 489 0226 134A     		ldr	r2, .L50+16
 490 0228 1268     		ldr	r2, [r2]
 491 022a 0027     		mov	r7, #0
 492 022c D05F     		ldrsh	r0, [r2, r7]
 493 022e 9842     		cmp	r0, r3
 494 0230 D7DC     		bgt	.L23
 368:.\20648_driver\drivers/inv_mems_slave_compass.c **** 		goto AKM_fail;
 495              		.loc 1 368 0
 496 0232 0223     		mov	r3, #2
 497 0234 C85E     		ldrsh	r0, [r1, r3]
 498 0236 6B46     		mov	r3, sp
 499 0238 1027     		mov	r7, #16
 500 023a DB5F     		ldrsh	r3, [r3, r7]
 501 023c 9842     		cmp	r0, r3
 502 023e D0DB     		blt	.L23
 368:.\20648_driver\drivers/inv_mems_slave_compass.c **** 		goto AKM_fail;
 503              		.loc 1 368 0 is_stmt 0 discriminator 1
 504 0240 0227     		mov	r7, #2
 505 0242 D05F     		ldrsh	r0, [r2, r7]
 506 0244 9842     		cmp	r0, r3
 507 0246 CCDC     		bgt	.L23
 370:.\20648_driver\drivers/inv_mems_slave_compass.c **** 		goto AKM_fail;
 508              		.loc 1 370 0 is_stmt 1
 509 0248 0423     		mov	r3, #4
 510 024a CB5E     		ldrsh	r3, [r1, r3]
 511 024c 2DB2     		sxth	r5, r5
 512 024e AB42     		cmp	r3, r5
 513 0250 C7DB     		blt	.L23
 370:.\20648_driver\drivers/inv_mems_slave_compass.c **** 		goto AKM_fail;
 514              		.loc 1 370 0 is_stmt 0 discriminator 1
 515 0252 0423     		mov	r3, #4
 516 0254 D35E     		ldrsh	r3, [r2, r3]
 517 0256 AB42     		cmp	r3, r5
 518 0258 C3DC     		bgt	.L23
 519 025a 5DE7     		b	.L4
 520              	.LVL75:
 521              	.L37:
 522 025c 041C     		mov	r4, r0
ARM GAS  C:\Users\ADMINI~1\AppData\Local\Temp\ccKhMK9m.s 			page 18


 523 025e 5BE7     		b	.L4
 524              	.LVL76:
 525              	.L39:
 384:.\20648_driver\drivers/inv_mems_slave_compass.c **** }
 526              		.loc 1 384 0 is_stmt 1
 527 0260 0BB0     		add	sp, sp, #44
 528              		@ sp needed
 529              	.LVL77:
 530 0262 F0BD     		pop	{r4, r5, r6, r7, pc}
 531              	.L51:
 532              		.align	2
 533              	.L50:
 534 0264 00000000 		.word	COMPASS_CHIP_ADDR
 535 0268 00000000 		.word	COMPASS_SLAVE_ID
 536 026c 00000000 		.word	.LANCHOR0
 537 0270 00000000 		.word	st_upper
 538 0274 00000000 		.word	st_lower
 539              		.cfi_endproc
 540              	.LFE5:
 541              		.size	inv_check_akm_self_test, .-inv_check_akm_self_test
 542              		.section	.text.inv_write_akm_scale,"ax",%progbits
 543              		.align	1
 544              		.global	inv_write_akm_scale
 545              		.code	16
 546              		.thumb_func
 547              		.type	inv_write_akm_scale, %function
 548              	inv_write_akm_scale:
 549              	.LFB6:
 385:.\20648_driver\drivers/inv_mems_slave_compass.c **** 
 386:.\20648_driver\drivers/inv_mems_slave_compass.c **** /*
 387:.\20648_driver\drivers/inv_mems_slave_compass.c ****  *  inv_write_akm_scale() - Configure the akm scale range.
 388:.\20648_driver\drivers/inv_mems_slave_compass.c ****  */
 389:.\20648_driver\drivers/inv_mems_slave_compass.c **** int inv_write_akm_scale( int data)
 390:.\20648_driver\drivers/inv_mems_slave_compass.c **** {
 550              		.loc 1 390 0
 551              		.cfi_startproc
 552              	.LVL78:
 553 0000 38B5     		push	{r3, r4, r5, lr}
 554              		.cfi_def_cfa_offset 16
 555              		.cfi_offset 3, -16
 556              		.cfi_offset 4, -12
 557              		.cfi_offset 5, -8
 558              		.cfi_offset 14, -4
 391:.\20648_driver\drivers/inv_mems_slave_compass.c **** 	char d, en;
 392:.\20648_driver\drivers/inv_mems_slave_compass.c **** 	int result;
 393:.\20648_driver\drivers/inv_mems_slave_compass.c ****     
 394:.\20648_driver\drivers/inv_mems_slave_compass.c **** 	if (HW_AK8963 != COMPASS_SLAVE_ID)
 559              		.loc 1 394 0
 560 0002 0B4B     		ldr	r3, .L57
 390:.\20648_driver\drivers/inv_mems_slave_compass.c **** 	char d, en;
 561              		.loc 1 390 0
 562 0004 041C     		mov	r4, r0
 563              		.loc 1 394 0
 564 0006 1B78     		ldrb	r3, [r3]
 395:.\20648_driver\drivers/inv_mems_slave_compass.c **** 		return 0;
 565              		.loc 1 395 0
 566 0008 0020     		mov	r0, #0
ARM GAS  C:\Users\ADMINI~1\AppData\Local\Temp\ccKhMK9m.s 			page 19


 567              	.LVL79:
 394:.\20648_driver\drivers/inv_mems_slave_compass.c **** 		return 0;
 568              		.loc 1 394 0
 569 000a 202B     		cmp	r3, #32
 570 000c 0FD1     		bne	.L53
 571              	.LVL80:
 396:.\20648_driver\drivers/inv_mems_slave_compass.c **** 	en = !!data;
 572              		.loc 1 396 0
 573 000e 631E     		sub	r3, r4, #1
 574 0010 9C41     		sbc	r4, r4, r3
 575              	.LVL81:
 397:.\20648_driver\drivers/inv_mems_slave_compass.c **** 	if (scale == en)
 576              		.loc 1 397 0
 577 0012 084D     		ldr	r5, .L57+4
 578 0014 6B68     		ldr	r3, [r5, #4]
 579 0016 A342     		cmp	r3, r4
 580 0018 09D0     		beq	.L53
 581              	.LVL82:
 398:.\20648_driver\drivers/inv_mems_slave_compass.c **** 		return 0;
 399:.\20648_driver\drivers/inv_mems_slave_compass.c **** 	d = (DATA_AKM_MODE_SM | (en << DATA_AKM8963_SCALE_SHIFT));
 400:.\20648_driver\drivers/inv_mems_slave_compass.c **** 
 401:.\20648_driver\drivers/inv_mems_slave_compass.c **** 	result = inv_write_single_mems_reg(REG_I2C_SLV1_DO, d);
 582              		.loc 1 401 0
 583 001a 0121     		mov	r1, #1
 399:.\20648_driver\drivers/inv_mems_slave_compass.c **** 
 584              		.loc 1 399 0
 585 001c 2301     		lsl	r3, r4, #4
 586              		.loc 1 401 0
 587 001e 8B30     		add	r0, r0, #139
 588 0020 1943     		orr	r1, r3
 589 0022 FF30     		add	r0, r0, #255
 590 0024 FFF7FEFF 		bl	inv_write_single_mems_reg
 591              	.LVL83:
 402:.\20648_driver\drivers/inv_mems_slave_compass.c **** 	if (result)
 592              		.loc 1 402 0
 593 0028 0028     		cmp	r0, #0
 594 002a 00D1     		bne	.L53
 403:.\20648_driver\drivers/inv_mems_slave_compass.c **** 		return result;
 404:.\20648_driver\drivers/inv_mems_slave_compass.c **** 
 405:.\20648_driver\drivers/inv_mems_slave_compass.c **** 	scale = en;
 595              		.loc 1 405 0
 596 002c 6C60     		str	r4, [r5, #4]
 597              	.LVL84:
 598              	.L53:
 406:.\20648_driver\drivers/inv_mems_slave_compass.c ****     
 407:.\20648_driver\drivers/inv_mems_slave_compass.c **** 	return 0;
 408:.\20648_driver\drivers/inv_mems_slave_compass.c **** }
 599              		.loc 1 408 0
 600              		@ sp needed
 601 002e 38BD     		pop	{r3, r4, r5, pc}
 602              	.L58:
 603              		.align	2
 604              	.L57:
 605 0030 00000000 		.word	COMPASS_SLAVE_ID
 606 0034 00000000 		.word	.LANCHOR0
 607              		.cfi_endproc
 608              	.LFE6:
ARM GAS  C:\Users\ADMINI~1\AppData\Local\Temp\ccKhMK9m.s 			page 20


 609              		.size	inv_write_akm_scale, .-inv_write_akm_scale
 610              		.section	.text.inv_read_akm_scale,"ax",%progbits
 611              		.align	1
 612              		.global	inv_read_akm_scale
 613              		.code	16
 614              		.thumb_func
 615              		.type	inv_read_akm_scale, %function
 616              	inv_read_akm_scale:
 617              	.LFB7:
 409:.\20648_driver\drivers/inv_mems_slave_compass.c **** 
 410:.\20648_driver\drivers/inv_mems_slave_compass.c **** /*
 411:.\20648_driver\drivers/inv_mems_slave_compass.c ****  *  inv_read_akm_scale() - show AKM scale.
 412:.\20648_driver\drivers/inv_mems_slave_compass.c ****  */
 413:.\20648_driver\drivers/inv_mems_slave_compass.c **** int inv_read_akm_scale(int *scale)
 414:.\20648_driver\drivers/inv_mems_slave_compass.c **** {
 618              		.loc 1 414 0
 619              		.cfi_startproc
 620              	.LVL85:
 415:.\20648_driver\drivers/inv_mems_slave_compass.c **** 	if (HW_AK8975 == COMPASS_SLAVE_ID)
 621              		.loc 1 415 0
 622 0000 0D4B     		ldr	r3, .L71
 623 0002 1B78     		ldrb	r3, [r3]
 624 0004 212B     		cmp	r3, #33
 625 0006 01D1     		bne	.L60
 416:.\20648_driver\drivers/inv_mems_slave_compass.c **** 		*scale = DATA_AKM8975_SCALE;
 626              		.loc 1 416 0
 627 0008 0C4B     		ldr	r3, .L71+4
 628 000a 02E0     		b	.L70
 629              	.L60:
 417:.\20648_driver\drivers/inv_mems_slave_compass.c **** 	else if (HW_AK8972 == COMPASS_SLAVE_ID)
 630              		.loc 1 417 0
 631 000c 222B     		cmp	r3, #34
 632 000e 03D1     		bne	.L62
 633              	.L65:
 418:.\20648_driver\drivers/inv_mems_slave_compass.c **** 		*scale = DATA_AKM8972_SCALE;
 634              		.loc 1 418 0
 635 0010 0B4B     		ldr	r3, .L71+8
 636              	.L70:
 637 0012 0360     		str	r3, [r0]
 419:.\20648_driver\drivers/inv_mems_slave_compass.c **** 	else if (HW_AK8963 == COMPASS_SLAVE_ID)
 420:.\20648_driver\drivers/inv_mems_slave_compass.c **** 		if (scale)
 421:.\20648_driver\drivers/inv_mems_slave_compass.c **** 			*scale = DATA_AKM8963_SCALE1;
 422:.\20648_driver\drivers/inv_mems_slave_compass.c **** 		else
 423:.\20648_driver\drivers/inv_mems_slave_compass.c **** 			*scale = DATA_AKM8963_SCALE0;
 424:.\20648_driver\drivers/inv_mems_slave_compass.c **** 	else if (HW_AK09911 == COMPASS_SLAVE_ID)
 425:.\20648_driver\drivers/inv_mems_slave_compass.c **** 		*scale = DATA_AK09911_SCALE;
 426:.\20648_driver\drivers/inv_mems_slave_compass.c **** 	else if (HW_AK09912 == COMPASS_SLAVE_ID)
 427:.\20648_driver\drivers/inv_mems_slave_compass.c **** 		*scale = DATA_AK09912_SCALE;
 428:.\20648_driver\drivers/inv_mems_slave_compass.c ****         else if (HW_AK09916 == COMPASS_SLAVE_ID)
 429:.\20648_driver\drivers/inv_mems_slave_compass.c **** 		*scale = DATA_AK09916_SCALE;
 430:.\20648_driver\drivers/inv_mems_slave_compass.c **** 	else
 431:.\20648_driver\drivers/inv_mems_slave_compass.c **** 		return -EINVAL;
 432:.\20648_driver\drivers/inv_mems_slave_compass.c ****     
 433:.\20648_driver\drivers/inv_mems_slave_compass.c **** 	return 0;
 638              		.loc 1 433 0
 639 0014 0020     		mov	r0, #0
 640              	.LVL86:
ARM GAS  C:\Users\ADMINI~1\AppData\Local\Temp\ccKhMK9m.s 			page 21


 641 0016 0EE0     		b	.L61
 642              	.LVL87:
 643              	.L62:
 419:.\20648_driver\drivers/inv_mems_slave_compass.c **** 	else if (HW_AK8963 == COMPASS_SLAVE_ID)
 644              		.loc 1 419 0
 645 0018 202B     		cmp	r3, #32
 646 001a 05D1     		bne	.L63
 420:.\20648_driver\drivers/inv_mems_slave_compass.c **** 			*scale = DATA_AKM8963_SCALE1;
 647              		.loc 1 420 0
 648 001c 0028     		cmp	r0, #0
 649 001e 01D0     		beq	.L64
 650              	.L66:
 421:.\20648_driver\drivers/inv_mems_slave_compass.c **** 		else
 651              		.loc 1 421 0
 652 0020 084B     		ldr	r3, .L71+12
 653 0022 F6E7     		b	.L70
 654              	.L64:
 423:.\20648_driver\drivers/inv_mems_slave_compass.c **** 	else if (HW_AK09911 == COMPASS_SLAVE_ID)
 655              		.loc 1 423 0
 656 0024 0060     		str	r0, [r0]
 657 0026 FFDE     		.inst	0xdeff
 658              	.L63:
 424:.\20648_driver\drivers/inv_mems_slave_compass.c **** 		*scale = DATA_AK09911_SCALE;
 659              		.loc 1 424 0
 660 0028 232B     		cmp	r3, #35
 661 002a F1D0     		beq	.L65
 426:.\20648_driver\drivers/inv_mems_slave_compass.c **** 		*scale = DATA_AK09912_SCALE;
 662              		.loc 1 426 0
 663 002c 243B     		sub	r3, r3, #36
 664 002e 012B     		cmp	r3, #1
 665 0030 F6D9     		bls	.L66
 431:.\20648_driver\drivers/inv_mems_slave_compass.c ****     
 666              		.loc 1 431 0
 667 0032 1620     		mov	r0, #22
 668              	.LVL88:
 669 0034 4042     		neg	r0, r0
 670              	.L61:
 434:.\20648_driver\drivers/inv_mems_slave_compass.c **** }
 671              		.loc 1 434 0
 672              		@ sp needed
 673 0036 7047     		bx	lr
 674              	.L72:
 675              		.align	2
 676              	.L71:
 677 0038 00000000 		.word	COMPASS_SLAVE_ID
 678 003c 33333313 		.word	322122547
 679 0040 66666626 		.word	644245094
 680 0044 99999909 		.word	161061273
 681              		.cfi_endproc
 682              	.LFE7:
 683              		.size	inv_read_akm_scale, .-inv_read_akm_scale
 684              		.section	.text.inv_suspend_akm,"ax",%progbits
 685              		.align	1
 686              		.global	inv_suspend_akm
 687              		.code	16
 688              		.thumb_func
 689              		.type	inv_suspend_akm, %function
ARM GAS  C:\Users\ADMINI~1\AppData\Local\Temp\ccKhMK9m.s 			page 22


 690              	inv_suspend_akm:
 691              	.LFB8:
 435:.\20648_driver\drivers/inv_mems_slave_compass.c **** 
 436:.\20648_driver\drivers/inv_mems_slave_compass.c **** int inv_suspend_akm()
 437:.\20648_driver\drivers/inv_mems_slave_compass.c **** {
 692              		.loc 1 437 0
 693              		.cfi_startproc
 438:.\20648_driver\drivers/inv_mems_slave_compass.c **** 	int result;
 439:.\20648_driver\drivers/inv_mems_slave_compass.c ****     
 440:.\20648_driver\drivers/inv_mems_slave_compass.c **** 	if (!secondary_resume_state)
 441:.\20648_driver\drivers/inv_mems_slave_compass.c **** 		return 0;
 694              		.loc 1 441 0
 695 0000 0020     		mov	r0, #0
 437:.\20648_driver\drivers/inv_mems_slave_compass.c **** 	int result;
 696              		.loc 1 437 0
 697 0002 38B5     		push	{r3, r4, r5, lr}
 698              		.cfi_def_cfa_offset 16
 699              		.cfi_offset 3, -16
 700              		.cfi_offset 4, -12
 701              		.cfi_offset 5, -8
 702              		.cfi_offset 14, -4
 440:.\20648_driver\drivers/inv_mems_slave_compass.c **** 		return 0;
 703              		.loc 1 440 0
 704 0004 0C4B     		ldr	r3, .L79
 705 0006 1A7A     		ldrb	r2, [r3, #8]
 706 0008 1D1C     		mov	r5, r3
 707 000a 8242     		cmp	r2, r0
 708 000c 12D0     		beq	.L74
 709              	.LBB4:
 710              	.LBB5:
 442:.\20648_driver\drivers/inv_mems_slave_compass.c ****     
 443:.\20648_driver\drivers/inv_mems_slave_compass.c **** 	/* slave 0 is disabled */
 444:.\20648_driver\drivers/inv_mems_slave_compass.c **** 	result = inv_mems_secondary_stop_channel(COMPASS_I2C_SLV_READ);
 711              		.loc 1 444 0
 712 000e FFF7FEFF 		bl	inv_mems_secondary_stop_channel
 713              	.LVL89:
 714 0012 041C     		mov	r4, r0
 715              	.LVL90:
 445:.\20648_driver\drivers/inv_mems_slave_compass.c **** 	/* slave 1 is disabled */
 446:.\20648_driver\drivers/inv_mems_slave_compass.c **** 	result |= inv_mems_secondary_stop_channel(COMPASS_I2C_SLV_WRITE);
 716              		.loc 1 446 0
 717 0014 0120     		mov	r0, #1
 718              	.LVL91:
 719 0016 FFF7FEFF 		bl	inv_mems_secondary_stop_channel
 720              	.LVL92:
 721 001a 0443     		orr	r4, r0
 722              	.LVL93:
 447:.\20648_driver\drivers/inv_mems_slave_compass.c **** 	if (result)
 723              		.loc 1 447 0
 724 001c 201E     		sub	r0, r4, #0
 725 001e 09D1     		bne	.L74
 448:.\20648_driver\drivers/inv_mems_slave_compass.c **** 		return result;
 449:.\20648_driver\drivers/inv_mems_slave_compass.c **** 	
 450:.\20648_driver\drivers/inv_mems_slave_compass.c **** 	/* Switch off I2C interface only if compass is alone */
 451:.\20648_driver\drivers/inv_mems_slave_compass.c **** 	if (inv_mems_pressure_getstate() == 0)
 726              		.loc 1 451 0
 727 0020 FFF7FEFF 		bl	inv_mems_pressure_getstate
ARM GAS  C:\Users\ADMINI~1\AppData\Local\Temp\ccKhMK9m.s 			page 23


 728              	.LVL94:
 729 0024 0028     		cmp	r0, #0
 730 0026 02D1     		bne	.L75
 452:.\20648_driver\drivers/inv_mems_slave_compass.c **** 	{
 453:.\20648_driver\drivers/inv_mems_slave_compass.c **** 		result |= inv_mems_secondary_disable_i2c();
 731              		.loc 1 453 0
 732 0028 FFF7FEFF 		bl	inv_mems_secondary_disable_i2c
 733              	.LVL95:
 734 002c 041C     		mov	r4, r0
 735              	.LVL96:
 736              	.L75:
 454:.\20648_driver\drivers/inv_mems_slave_compass.c **** 	}
 455:.\20648_driver\drivers/inv_mems_slave_compass.c **** 
 456:.\20648_driver\drivers/inv_mems_slave_compass.c **** 	secondary_resume_state = 0;
 737              		.loc 1 456 0
 738 002e 0023     		mov	r3, #0
 457:.\20648_driver\drivers/inv_mems_slave_compass.c ****     
 458:.\20648_driver\drivers/inv_mems_slave_compass.c **** 	return result;
 739              		.loc 1 458 0
 740 0030 201C     		mov	r0, r4
 456:.\20648_driver\drivers/inv_mems_slave_compass.c ****     
 741              		.loc 1 456 0
 742 0032 2B72     		strb	r3, [r5, #8]
 743              	.LVL97:
 744              	.L74:
 745              	.LBE5:
 746              	.LBE4:
 459:.\20648_driver\drivers/inv_mems_slave_compass.c **** }
 747              		.loc 1 459 0
 748              		@ sp needed
 749 0034 38BD     		pop	{r3, r4, r5, pc}
 750              	.L80:
 751 0036 C046     		.align	2
 752              	.L79:
 753 0038 00000000 		.word	.LANCHOR0
 754              		.cfi_endproc
 755              	.LFE8:
 756              		.size	inv_suspend_akm, .-inv_suspend_akm
 757              		.section	.text.inv_setup_compass_akm,"ax",%progbits
 758              		.align	1
 759              		.global	inv_setup_compass_akm
 760              		.code	16
 761              		.thumb_func
 762              		.type	inv_setup_compass_akm, %function
 763              	inv_setup_compass_akm:
 764              	.LFB4:
 146:.\20648_driver\drivers/inv_mems_slave_compass.c **** 	int result;
 765              		.loc 1 146 0
 766              		.cfi_startproc
 152:.\20648_driver\drivers/inv_mems_slave_compass.c **** 	if (result) {
 767              		.loc 1 152 0
 768 0000 0020     		mov	r0, #0
 146:.\20648_driver\drivers/inv_mems_slave_compass.c **** 	int result;
 769              		.loc 1 146 0
 770 0002 F0B5     		push	{r4, r5, r6, r7, lr}
 771              		.cfi_def_cfa_offset 20
 772              		.cfi_offset 4, -20
ARM GAS  C:\Users\ADMINI~1\AppData\Local\Temp\ccKhMK9m.s 			page 24


 773              		.cfi_offset 5, -16
 774              		.cfi_offset 6, -12
 775              		.cfi_offset 7, -8
 776              		.cfi_offset 14, -4
 152:.\20648_driver\drivers/inv_mems_slave_compass.c **** 	if (result) {
 777              		.loc 1 152 0
 778 0004 4E4B     		ldr	r3, .L106
 146:.\20648_driver\drivers/inv_mems_slave_compass.c **** 	int result;
 779              		.loc 1 146 0
 780 0006 87B0     		sub	sp, sp, #28
 781              		.cfi_def_cfa_offset 48
 152:.\20648_driver\drivers/inv_mems_slave_compass.c **** 	if (result) {
 782              		.loc 1 152 0
 783 0008 1D78     		ldrb	r5, [r3]
 784 000a 05AC     		add	r4, sp, #20
 785 000c 0094     		str	r4, [sp]
 786 000e 291C     		mov	r1, r5
 787 0010 021C     		mov	r2, r0
 788 0012 0123     		mov	r3, #1
 789 0014 FFF7FEFF 		bl	inv_execute_read_secondary
 790              	.LVL98:
 153:.\20648_driver\drivers/inv_mems_slave_compass.c ****         inv_log("Read secondary error: Compass.\r\n");
 791              		.loc 1 153 0
 792 0018 0028     		cmp	r0, #0
 793 001a 00D0     		beq	.LCB742
 794 001c 8DE0     		b	.L82	@long jump
 795              	.LCB742:
 157:.\20648_driver\drivers/inv_mems_slave_compass.c ****         inv_log("Compass not found!!\r\n");
 796              		.loc 1 157 0
 797 001e 2378     		ldrb	r3, [r4]
 798 0020 482B     		cmp	r3, #72
 799 0022 00D0     		beq	.LCB745
 800 0024 85E0     		b	.L96	@long jump
 801              	.LCB745:
 167:.\20648_driver\drivers/inv_mems_slave_compass.c **** 		sModeRegAddr = REG_AK09911_CNTL2;
 802              		.loc 1 167 0
 803 0026 474A     		ldr	r2, .L106+4
 804 0028 474C     		ldr	r4, .L106+8
 805 002a 1378     		ldrb	r3, [r2]
 806 002c 0392     		str	r2, [sp, #12]
 807 002e 191C     		mov	r1, r3
 808 0030 2339     		sub	r1, r1, #35
 809 0032 0129     		cmp	r1, #1
 810 0034 04D8     		bhi	.L83
 168:.\20648_driver\drivers/inv_mems_slave_compass.c **** 		sens = REG_AK09911_SENSITIVITY;
 811              		.loc 1 168 0
 812 0036 3122     		mov	r2, #49
 170:.\20648_driver\drivers/inv_mems_slave_compass.c **** 	} else if (HW_AK09912 == COMPASS_SLAVE_ID) {
 813              		.loc 1 170 0
 814 0038 1F26     		mov	r6, #31
 168:.\20648_driver\drivers/inv_mems_slave_compass.c **** 		sens = REG_AK09911_SENSITIVITY;
 815              		.loc 1 168 0
 816 003a 6272     		strb	r2, [r4, #9]
 817              	.LVL99:
 169:.\20648_driver\drivers/inv_mems_slave_compass.c **** 		cmd = DATA_AK09911_MODE_FR;
 818              		.loc 1 169 0
 819 003c 6027     		mov	r7, #96
ARM GAS  C:\Users\ADMINI~1\AppData\Local\Temp\ccKhMK9m.s 			page 25


 820 003e 0CE0     		b	.L84
 821              	.LVL100:
 822              	.L83:
 175:.\20648_driver\drivers/inv_mems_slave_compass.c ****                 sModeRegAddr = REG_AK09916_CNTL2;
 823              		.loc 1 175 0
 824 0040 252B     		cmp	r3, #37
 825 0042 06D1     		bne	.L85
 176:.\20648_driver\drivers/inv_mems_slave_compass.c **** 		compass_sens[0] = 128;
 826              		.loc 1 176 0
 827 0044 3122     		mov	r2, #49
 828 0046 6272     		strb	r2, [r4, #9]
 177:.\20648_driver\drivers/inv_mems_slave_compass.c ****                 compass_sens[1] = 128;
 829              		.loc 1 177 0
 830 0048 4F32     		add	r2, r2, #79
 831 004a 2270     		strb	r2, [r4]
 178:.\20648_driver\drivers/inv_mems_slave_compass.c ****                 compass_sens[2] = 128;
 832              		.loc 1 178 0
 833 004c 6270     		strb	r2, [r4, #1]
 179:.\20648_driver\drivers/inv_mems_slave_compass.c ****         } else {
 834              		.loc 1 179 0
 835 004e A270     		strb	r2, [r4, #2]
 836 0050 03E0     		b	.L84
 837              	.L85:
 181:.\20648_driver\drivers/inv_mems_slave_compass.c **** 		sens = REG_AKM_SENSITIVITY;
 838              		.loc 1 181 0
 839 0052 0A22     		mov	r2, #10
 183:.\20648_driver\drivers/inv_mems_slave_compass.c **** 	}
 840              		.loc 1 183 0
 841 0054 0F26     		mov	r6, #15
 182:.\20648_driver\drivers/inv_mems_slave_compass.c **** 		cmd = DATA_AKM_MODE_FR;
 842              		.loc 1 182 0
 843 0056 1027     		mov	r7, #16
 181:.\20648_driver\drivers/inv_mems_slave_compass.c **** 		sens = REG_AKM_SENSITIVITY;
 844              		.loc 1 181 0
 845 0058 6272     		strb	r2, [r4, #9]
 846              	.LVL101:
 847              	.L84:
 186:.\20648_driver\drivers/inv_mems_slave_compass.c ****         if (HW_AK8975 == COMPASS_SLAVE_ID) {
 848              		.loc 1 186 0
 849 005a 0122     		mov	r2, #1
 850 005c 6260     		str	r2, [r4, #4]
 187:.\20648_driver\drivers/inv_mems_slave_compass.c **** 		st_upper = AKM8975_ST_Upper;
 851              		.loc 1 187 0
 852 005e 212B     		cmp	r3, #33
 853 0060 04D1     		bne	.L86
 188:.\20648_driver\drivers/inv_mems_slave_compass.c **** 		st_lower = AKM8975_ST_Lower;
 854              		.loc 1 188 0
 855 0062 3A4B     		ldr	r3, .L106+12
 856 0064 3A4A     		ldr	r2, .L106+16
 857 0066 1360     		str	r3, [r2]
 189:.\20648_driver\drivers/inv_mems_slave_compass.c **** 	} else if (HW_AK8972 == COMPASS_SLAVE_ID) {
 858              		.loc 1 189 0
 859 0068 0633     		add	r3, r3, #6
 860 006a 22E0     		b	.L103
 861              	.L86:
 190:.\20648_driver\drivers/inv_mems_slave_compass.c **** 		st_upper = AKM8972_ST_Upper;
 862              		.loc 1 190 0
ARM GAS  C:\Users\ADMINI~1\AppData\Local\Temp\ccKhMK9m.s 			page 26


 863 006c 222B     		cmp	r3, #34
 864 006e 06D1     		bne	.L88
 191:.\20648_driver\drivers/inv_mems_slave_compass.c **** 		st_lower = AKM8972_ST_Lower;
 865              		.loc 1 191 0
 866 0070 364B     		ldr	r3, .L106+12
 867 0072 374A     		ldr	r2, .L106+16
 868 0074 191C     		mov	r1, r3
 869 0076 0C31     		add	r1, r1, #12
 870 0078 1160     		str	r1, [r2]
 192:.\20648_driver\drivers/inv_mems_slave_compass.c **** 	} else if (HW_AK8963 == COMPASS_SLAVE_ID) {
 871              		.loc 1 192 0
 872 007a 1233     		add	r3, r3, #18
 873 007c 19E0     		b	.L103
 874              	.L88:
 193:.\20648_driver\drivers/inv_mems_slave_compass.c **** 		st_upper = AKM8963_ST_Upper;
 875              		.loc 1 193 0
 876 007e 202B     		cmp	r3, #32
 877 0080 06D1     		bne	.L89
 194:.\20648_driver\drivers/inv_mems_slave_compass.c **** 		st_lower = AKM8963_ST_Lower;
 878              		.loc 1 194 0
 879 0082 324B     		ldr	r3, .L106+12
 880 0084 324A     		ldr	r2, .L106+16
 881 0086 191C     		mov	r1, r3
 882 0088 1831     		add	r1, r1, #24
 883 008a 1160     		str	r1, [r2]
 195:.\20648_driver\drivers/inv_mems_slave_compass.c **** 	}  else if (HW_AK09911 == COMPASS_SLAVE_ID) {
 884              		.loc 1 195 0
 885 008c 1E33     		add	r3, r3, #30
 886 008e 10E0     		b	.L103
 887              	.L89:
 196:.\20648_driver\drivers/inv_mems_slave_compass.c **** 		st_upper = AK09911_ST_Upper;
 888              		.loc 1 196 0
 889 0090 232B     		cmp	r3, #35
 890 0092 06D1     		bne	.L90
 197:.\20648_driver\drivers/inv_mems_slave_compass.c **** 		st_lower = AK09911_ST_Lower;		
 891              		.loc 1 197 0
 892 0094 2D4B     		ldr	r3, .L106+12
 893 0096 2E4A     		ldr	r2, .L106+16
 894 0098 191C     		mov	r1, r3
 895 009a 2431     		add	r1, r1, #36
 896 009c 1160     		str	r1, [r2]
 198:.\20648_driver\drivers/inv_mems_slave_compass.c **** 	}  else if (HW_AK09912 == COMPASS_SLAVE_ID) {
 897              		.loc 1 198 0
 898 009e 2A33     		add	r3, r3, #42
 899 00a0 07E0     		b	.L103
 900              	.L90:
 199:.\20648_driver\drivers/inv_mems_slave_compass.c **** 		st_upper = AK09912_ST_Upper;
 901              		.loc 1 199 0
 902 00a2 242B     		cmp	r3, #36
 903 00a4 10D1     		bne	.L91
 200:.\20648_driver\drivers/inv_mems_slave_compass.c **** 		st_lower = AK09912_ST_Lower;
 904              		.loc 1 200 0
 905 00a6 294B     		ldr	r3, .L106+12
 906 00a8 294A     		ldr	r2, .L106+16
 907 00aa 191C     		mov	r1, r3
 908 00ac 3031     		add	r1, r1, #48
 909 00ae 1160     		str	r1, [r2]
ARM GAS  C:\Users\ADMINI~1\AppData\Local\Temp\ccKhMK9m.s 			page 27


 201:.\20648_driver\drivers/inv_mems_slave_compass.c **** 	} else if (HW_AK09916 == COMPASS_SLAVE_ID) {
 910              		.loc 1 201 0
 911 00b0 3633     		add	r3, r3, #54
 912              	.L103:
 913 00b2 284A     		ldr	r2, .L106+20
 210:.\20648_driver\drivers/inv_mems_slave_compass.c **** 	if (result)
 914              		.loc 1 210 0
 915 00b4 0020     		mov	r0, #0
 916              	.LVL102:
 201:.\20648_driver\drivers/inv_mems_slave_compass.c **** 	} else if (HW_AK09916 == COMPASS_SLAVE_ID) {
 917              		.loc 1 201 0
 918 00b6 1360     		str	r3, [r2]
 210:.\20648_driver\drivers/inv_mems_slave_compass.c **** 	if (result)
 919              		.loc 1 210 0
 920 00b8 291C     		mov	r1, r5
 921 00ba 3A1C     		mov	r2, r7
 922 00bc 0323     		mov	r3, #3
 923 00be FFF7FEFF 		bl	inv_read_secondary
 924              	.LVL103:
 211:.\20648_driver\drivers/inv_mems_slave_compass.c **** 		return result;
 925              		.loc 1 211 0
 926 00c2 0028     		cmp	r0, #0
 927 00c4 39D1     		bne	.L82
 928 00c6 0AE0     		b	.L105
 929              	.L91:
 202:.\20648_driver\drivers/inv_mems_slave_compass.c **** 		st_upper = AK09916_ST_Upper;
 930              		.loc 1 202 0
 931 00c8 252B     		cmp	r3, #37
 932 00ca 34D1     		bne	.L97
 203:.\20648_driver\drivers/inv_mems_slave_compass.c **** 		st_lower = AK09916_ST_Lower;
 933              		.loc 1 203 0
 934 00cc 1F4B     		ldr	r3, .L106+12
 935 00ce 204A     		ldr	r2, .L106+16
 936 00d0 191C     		mov	r1, r3
 937 00d2 3C31     		add	r1, r1, #60
 938 00d4 1160     		str	r1, [r2]
 204:.\20648_driver\drivers/inv_mems_slave_compass.c ****                 goto skip_akm_fuse_rom_read;
 939              		.loc 1 204 0
 940 00d6 1F4A     		ldr	r2, .L106+20
 941 00d8 4233     		add	r3, r3, #66
 942 00da 1360     		str	r3, [r2]
 205:.\20648_driver\drivers/inv_mems_slave_compass.c **** 	} else {
 943              		.loc 1 205 0
 944 00dc 24E0     		b	.L92
 945              	.L105:
 213:.\20648_driver\drivers/inv_mems_slave_compass.c **** 	if (result)
 946              		.loc 1 213 0
 947 00de 627A     		ldrb	r2, [r4, #9]
 948 00e0 0130     		add	r0, r0, #1
 949              	.LVL104:
 950 00e2 291C     		mov	r1, r5
 951 00e4 331C     		mov	r3, r6
 952 00e6 FFF7FEFF 		bl	inv_execute_write_secondary
 953              	.LVL105:
 214:.\20648_driver\drivers/inv_mems_slave_compass.c **** 		return result;
 954              		.loc 1 214 0
 955 00ea 0028     		cmp	r0, #0
ARM GAS  C:\Users\ADMINI~1\AppData\Local\Temp\ccKhMK9m.s 			page 28


 956 00ec 25D1     		bne	.L82
 217:.\20648_driver\drivers/inv_mems_slave_compass.c **** 	if (result)
 957              		.loc 1 217 0
 958 00ee 3B30     		add	r0, r0, #59
 959              	.LVL106:
 960 00f0 0321     		mov	r1, #3
 961 00f2 221C     		mov	r2, r4
 962 00f4 FFF7FEFF 		bl	inv_read_mems_reg
 963              	.LVL107:
 218:.\20648_driver\drivers/inv_mems_slave_compass.c **** 		return result;
 964              		.loc 1 218 0
 965 00f8 0028     		cmp	r0, #0
 966 00fa 1ED1     		bne	.L82
 221:.\20648_driver\drivers/inv_mems_slave_compass.c **** 		result = inv_execute_write_secondary(COMPASS_I2C_SLV_WRITE, COMPASS_CHIP_ADDR, REG_AK09912_CNTL1,
 967              		.loc 1 221 0
 968 00fc 039B     		ldr	r3, [sp, #12]
 969 00fe 1B78     		ldrb	r3, [r3]
 970 0100 242B     		cmp	r3, #36
 971 0102 08D0     		beq	.L93
 972              	.LVL108:
 973              	.L94:
 229:.\20648_driver\drivers/inv_mems_slave_compass.c **** 	if (result)
 974              		.loc 1 229 0
 975 0104 627A     		ldrb	r2, [r4, #9]
 976 0106 0120     		mov	r0, #1
 977 0108 291C     		mov	r1, r5
 978 010a 0023     		mov	r3, #0
 979 010c FFF7FEFF 		bl	inv_execute_write_secondary
 980              	.LVL109:
 230:.\20648_driver\drivers/inv_mems_slave_compass.c **** 		return result;
 981              		.loc 1 230 0
 982 0110 0028     		cmp	r0, #0
 983 0112 09D0     		beq	.L92
 984 0114 11E0     		b	.L82
 985              	.L93:
 222:.\20648_driver\drivers/inv_mems_slave_compass.c ****                                      DATA_AK9912_NSF << DATA_AK9912_NSF_SHIFT);//skip
 986              		.loc 1 222 0
 987 0116 0120     		mov	r0, #1
 988              	.LVL110:
 989 0118 291C     		mov	r1, r5
 990 011a 3022     		mov	r2, #48
 991 011c 2023     		mov	r3, #32
 992 011e FFF7FEFF 		bl	inv_execute_write_secondary
 993              	.LVL111:
 224:.\20648_driver\drivers/inv_mems_slave_compass.c **** 			return result;
 994              		.loc 1 224 0
 995 0122 0028     		cmp	r0, #0
 996 0124 EED0     		beq	.L94
 997 0126 08E0     		b	.L82
 998              	.LVL112:
 999              	.L92:
 233:.\20648_driver\drivers/inv_mems_slave_compass.c **** 	return inv_suspend_akm();
 1000              		.loc 1 233 0
 1001 0128 0123     		mov	r3, #1
 1002 012a 2372     		strb	r3, [r4, #8]
 234:.\20648_driver\drivers/inv_mems_slave_compass.c **** }
 1003              		.loc 1 234 0
ARM GAS  C:\Users\ADMINI~1\AppData\Local\Temp\ccKhMK9m.s 			page 29


 1004 012c FFF7FEFF 		bl	inv_suspend_akm
 1005              	.LVL113:
 1006 0130 03E0     		b	.L82
 1007              	.LVL114:
 1008              	.L96:
 159:.\20648_driver\drivers/inv_mems_slave_compass.c ****     }
 1009              		.loc 1 159 0
 1010 0132 0120     		mov	r0, #1
 1011              	.LVL115:
 1012 0134 00E0     		b	.L104
 1013              	.LVL116:
 1014              	.L97:
 207:.\20648_driver\drivers/inv_mems_slave_compass.c **** 	}
 1015              		.loc 1 207 0
 1016 0136 1620     		mov	r0, #22
 1017              	.LVL117:
 1018              	.L104:
 1019 0138 4042     		neg	r0, r0
 1020              	.L82:
 235:.\20648_driver\drivers/inv_mems_slave_compass.c **** 
 1021              		.loc 1 235 0
 1022 013a 07B0     		add	sp, sp, #28
 1023              		@ sp needed
 1024 013c F0BD     		pop	{r4, r5, r6, r7, pc}
 1025              	.L107:
 1026 013e C046     		.align	2
 1027              	.L106:
 1028 0140 00000000 		.word	COMPASS_CHIP_ADDR
 1029 0144 00000000 		.word	COMPASS_SLAVE_ID
 1030 0148 00000000 		.word	.LANCHOR0
 1031 014c 00000000 		.word	.LANCHOR1
 1032 0150 00000000 		.word	st_upper
 1033 0154 00000000 		.word	st_lower
 1034              		.cfi_endproc
 1035              	.LFE4:
 1036              		.size	inv_setup_compass_akm, .-inv_setup_compass_akm
 1037              		.section	.text.inv_resume_akm,"ax",%progbits
 1038              		.align	1
 1039              		.global	inv_resume_akm
 1040              		.code	16
 1041              		.thumb_func
 1042              		.type	inv_resume_akm, %function
 1043              	inv_resume_akm:
 1044              	.LFB9:
 460:.\20648_driver\drivers/inv_mems_slave_compass.c **** 
 461:.\20648_driver\drivers/inv_mems_slave_compass.c **** int inv_resume_akm()
 462:.\20648_driver\drivers/inv_mems_slave_compass.c **** {
 1045              		.loc 1 462 0
 1046              		.cfi_startproc
 463:.\20648_driver\drivers/inv_mems_slave_compass.c **** 	int result;
 464:.\20648_driver\drivers/inv_mems_slave_compass.c **** 	uint8_t reg_addr, bytes;
 465:.\20648_driver\drivers/inv_mems_slave_compass.c ****     unsigned char lDataToWrite;
 466:.\20648_driver\drivers/inv_mems_slave_compass.c ****     
 467:.\20648_driver\drivers/inv_mems_slave_compass.c **** 	if (secondary_resume_state)
 468:.\20648_driver\drivers/inv_mems_slave_compass.c **** 		return 0;
 1047              		.loc 1 468 0
 1048 0000 0020     		mov	r0, #0
ARM GAS  C:\Users\ADMINI~1\AppData\Local\Temp\ccKhMK9m.s 			page 30


 462:.\20648_driver\drivers/inv_mems_slave_compass.c **** 	int result;
 1049              		.loc 1 462 0
 1050 0002 70B5     		push	{r4, r5, r6, lr}
 1051              		.cfi_def_cfa_offset 16
 1052              		.cfi_offset 4, -16
 1053              		.cfi_offset 5, -12
 1054              		.cfi_offset 6, -8
 1055              		.cfi_offset 14, -4
 467:.\20648_driver\drivers/inv_mems_slave_compass.c **** 		return 0;
 1056              		.loc 1 467 0
 1057 0004 1A4C     		ldr	r4, .L119
 1058 0006 237A     		ldrb	r3, [r4, #8]
 1059 0008 8342     		cmp	r3, r0
 1060 000a 30D1     		bne	.L109
 469:.\20648_driver\drivers/inv_mems_slave_compass.c ****     
 470:.\20648_driver\drivers/inv_mems_slave_compass.c **** 	/* slave 0 is used to read data from compass */
 471:.\20648_driver\drivers/inv_mems_slave_compass.c **** 	/*read mode */
 472:.\20648_driver\drivers/inv_mems_slave_compass.c **** 
 473:.\20648_driver\drivers/inv_mems_slave_compass.c **** 	/* AKM status register address is 1 */
 474:.\20648_driver\drivers/inv_mems_slave_compass.c **** 	if (HW_AK09911 == COMPASS_SLAVE_ID) {
 1061              		.loc 1 474 0
 1062 000c 194B     		ldr	r3, .L119+4
 1063 000e 1E78     		ldrb	r6, [r3]
 1064 0010 194B     		ldr	r3, .L119+8
 1065 0012 321C     		mov	r2, r6
 1066 0014 233A     		sub	r2, r2, #35
 1067 0016 022A     		cmp	r2, #2
 1068 0018 07D8     		bhi	.L110
 475:.\20648_driver\drivers/inv_mems_slave_compass.c **** 		if (dmp_on) {
 1069              		.loc 1 475 0
 1070 001a 1978     		ldrb	r1, [r3]
 476:.\20648_driver\drivers/inv_mems_slave_compass.c **** 			reg_addr = REG_AK09911_DMP_READ;
 1071              		.loc 1 476 0
 1072 001c 0322     		mov	r2, #3
 477:.\20648_driver\drivers/inv_mems_slave_compass.c **** 			bytes = DATA_AKM_99_BYTES_DMP;
 1073              		.loc 1 477 0
 1074 001e 0A23     		mov	r3, #10
 475:.\20648_driver\drivers/inv_mems_slave_compass.c **** 		if (dmp_on) {
 1075              		.loc 1 475 0
 1076 0020 8142     		cmp	r1, r0
 1077 0022 0AD1     		bne	.L111
 478:.\20648_driver\drivers/inv_mems_slave_compass.c **** 		} else {
 479:.\20648_driver\drivers/inv_mems_slave_compass.c **** 			reg_addr = REG_AK09911_STATUS1;
 480:.\20648_driver\drivers/inv_mems_slave_compass.c **** 			bytes = DATA_AKM_99_BYTES_DMP - 1;
 1078              		.loc 1 480 0
 1079 0024 013B     		sub	r3, r3, #1
 479:.\20648_driver\drivers/inv_mems_slave_compass.c **** 			bytes = DATA_AKM_99_BYTES_DMP - 1;
 1080              		.loc 1 479 0
 1081 0026 0D32     		add	r2, r2, #13
 1082 0028 07E0     		b	.L111
 1083              	.L110:
 481:.\20648_driver\drivers/inv_mems_slave_compass.c **** 		}
 482:.\20648_driver\drivers/inv_mems_slave_compass.c **** 	} else if (HW_AK09912 == COMPASS_SLAVE_ID) {
 483:.\20648_driver\drivers/inv_mems_slave_compass.c **** 		if (dmp_on) {
 484:.\20648_driver\drivers/inv_mems_slave_compass.c **** 			reg_addr = REG_AK09912_DMP_READ;
 485:.\20648_driver\drivers/inv_mems_slave_compass.c **** 			bytes = DATA_AKM_99_BYTES_DMP;
 486:.\20648_driver\drivers/inv_mems_slave_compass.c **** 		} else {
ARM GAS  C:\Users\ADMINI~1\AppData\Local\Temp\ccKhMK9m.s 			page 31


 487:.\20648_driver\drivers/inv_mems_slave_compass.c **** 			reg_addr = REG_AK09912_STATUS1;
 488:.\20648_driver\drivers/inv_mems_slave_compass.c **** 			bytes = DATA_AKM_99_BYTES_DMP - 1;
 489:.\20648_driver\drivers/inv_mems_slave_compass.c **** 		}
 490:.\20648_driver\drivers/inv_mems_slave_compass.c **** 	} else if (HW_AK09916 == COMPASS_SLAVE_ID) {
 491:.\20648_driver\drivers/inv_mems_slave_compass.c **** 		if (dmp_on) {
 492:.\20648_driver\drivers/inv_mems_slave_compass.c **** 			reg_addr = REG_AK09916_DMP_READ;
 493:.\20648_driver\drivers/inv_mems_slave_compass.c **** 			bytes = DATA_AKM_99_BYTES_DMP;
 494:.\20648_driver\drivers/inv_mems_slave_compass.c **** 		} else {
 495:.\20648_driver\drivers/inv_mems_slave_compass.c **** 			reg_addr = REG_AK09916_STATUS1;
 496:.\20648_driver\drivers/inv_mems_slave_compass.c **** 			bytes = DATA_AKM_99_BYTES_DMP - 1;
 497:.\20648_driver\drivers/inv_mems_slave_compass.c **** 		}
 498:.\20648_driver\drivers/inv_mems_slave_compass.c ****         } else {
 499:.\20648_driver\drivers/inv_mems_slave_compass.c **** 		if (dmp_on) {
 1084              		.loc 1 499 0
 1085 002a 1B78     		ldrb	r3, [r3]
 1086 002c 002B     		cmp	r3, #0
 1087 002e 02D1     		bne	.L115
 500:.\20648_driver\drivers/inv_mems_slave_compass.c **** 			reg_addr = REG_AKM_INFO;
 501:.\20648_driver\drivers/inv_mems_slave_compass.c **** 			bytes = DATA_AKM_89_BYTES_DMP;
 502:.\20648_driver\drivers/inv_mems_slave_compass.c **** 		} else {
 503:.\20648_driver\drivers/inv_mems_slave_compass.c **** 			reg_addr = REG_AKM_STATUS;
 504:.\20648_driver\drivers/inv_mems_slave_compass.c **** 			bytes = DATA_AKM_89_BYTES_DMP - 1;
 1088              		.loc 1 504 0
 1089 0030 0833     		add	r3, r3, #8
 503:.\20648_driver\drivers/inv_mems_slave_compass.c **** 			bytes = DATA_AKM_89_BYTES_DMP - 1;
 1090              		.loc 1 503 0
 1091 0032 0222     		mov	r2, #2
 1092 0034 01E0     		b	.L111
 1093              	.L115:
 501:.\20648_driver\drivers/inv_mems_slave_compass.c **** 		} else {
 1094              		.loc 1 501 0
 1095 0036 0923     		mov	r3, #9
 500:.\20648_driver\drivers/inv_mems_slave_compass.c **** 			reg_addr = REG_AKM_INFO;
 1096              		.loc 1 500 0
 1097 0038 0122     		mov	r2, #1
 1098              	.L111:
 1099              	.LVL118:
 505:.\20648_driver\drivers/inv_mems_slave_compass.c **** 		}
 506:.\20648_driver\drivers/inv_mems_slave_compass.c **** 	}
 507:.\20648_driver\drivers/inv_mems_slave_compass.c ****     
 508:.\20648_driver\drivers/inv_mems_slave_compass.c **** 	/* slave 0 is enabled, read 10 or 8 bytes from here depending on compass type, swap bytes to feed 
 509:.\20648_driver\drivers/inv_mems_slave_compass.c **** 	result = inv_read_secondary(COMPASS_I2C_SLV_READ, COMPASS_CHIP_ADDR, reg_addr, INV_MPU_BIT_GRP | I
 1100              		.loc 1 509 0
 1101 003a 1049     		ldr	r1, .L119+12
 1102 003c 0020     		mov	r0, #0
 1103 003e 0D78     		ldrb	r5, [r1]
 1104 0040 5021     		mov	r1, #80
 1105 0042 0B43     		orr	r3, r1
 1106              	.LVL119:
 1107 0044 291C     		mov	r1, r5
 1108 0046 FFF7FEFF 		bl	inv_read_secondary
 1109              	.LVL120:
 510:.\20648_driver\drivers/inv_mems_slave_compass.c **** 	if (result)
 1110              		.loc 1 510 0
 1111 004a 0028     		cmp	r0, #0
 1112 004c 0FD1     		bne	.L109
 511:.\20648_driver\drivers/inv_mems_slave_compass.c **** 		return result;
ARM GAS  C:\Users\ADMINI~1\AppData\Local\Temp\ccKhMK9m.s 			page 32


 512:.\20648_driver\drivers/inv_mems_slave_compass.c **** 
 513:.\20648_driver\drivers/inv_mems_slave_compass.c **** 	
 514:.\20648_driver\drivers/inv_mems_slave_compass.c **** 	/* slave 1 is used to write one-shot accquisition configuration to compass */
 515:.\20648_driver\drivers/inv_mems_slave_compass.c **** 	/* output data for slave 1 is fixed, single measure mode */
 516:.\20648_driver\drivers/inv_mems_slave_compass.c **** 	scale = 1;
 1113              		.loc 1 516 0
 1114 004e 0123     		mov	r3, #1
 1115 0050 6360     		str	r3, [r4, #4]
 517:.\20648_driver\drivers/inv_mems_slave_compass.c **** 	
 518:.\20648_driver\drivers/inv_mems_slave_compass.c ****         if (HW_AK8963 == COMPASS_SLAVE_ID) {
 1116              		.loc 1 518 0
 1117 0052 202E     		cmp	r6, #32
 1118 0054 00D1     		bne	.L112
 519:.\20648_driver\drivers/inv_mems_slave_compass.c **** 		lDataToWrite = DATA_AKM_MODE_SM |
 1119              		.loc 1 519 0
 1120 0056 1033     		add	r3, r3, #16
 1121              	.L112:
 1122              	.LVL121:
 520:.\20648_driver\drivers/inv_mems_slave_compass.c ****                 (scale << DATA_AKM8963_SCALE_SHIFT);
 521:.\20648_driver\drivers/inv_mems_slave_compass.c **** 	}
 522:.\20648_driver\drivers/inv_mems_slave_compass.c ****         else
 523:.\20648_driver\drivers/inv_mems_slave_compass.c ****                 lDataToWrite = DATA_AKM_MODE_SM;
 524:.\20648_driver\drivers/inv_mems_slave_compass.c **** 
 525:.\20648_driver\drivers/inv_mems_slave_compass.c **** 	result = inv_write_secondary(COMPASS_I2C_SLV_WRITE, COMPASS_CHIP_ADDR, sModeRegAddr, lDataToWrite)
 1123              		.loc 1 525 0
 1124 0058 627A     		ldrb	r2, [r4, #9]
 1125 005a 0120     		mov	r0, #1
 1126              	.LVL122:
 1127 005c 291C     		mov	r1, r5
 1128 005e FFF7FEFF 		bl	inv_write_secondary
 1129              	.LVL123:
 526:.\20648_driver\drivers/inv_mems_slave_compass.c **** 	if (result)
 1130              		.loc 1 526 0
 1131 0062 0028     		cmp	r0, #0
 1132 0064 03D1     		bne	.L109
 527:.\20648_driver\drivers/inv_mems_slave_compass.c **** 		return result;
 528:.\20648_driver\drivers/inv_mems_slave_compass.c **** 	
 529:.\20648_driver\drivers/inv_mems_slave_compass.c **** 	result |= inv_mems_secondary_enable_i2c();
 1133              		.loc 1 529 0
 1134 0066 FFF7FEFF 		bl	inv_mems_secondary_enable_i2c
 1135              	.LVL124:
 530:.\20648_driver\drivers/inv_mems_slave_compass.c **** 
 531:.\20648_driver\drivers/inv_mems_slave_compass.c ****         secondary_resume_state = 1;
 1136              		.loc 1 531 0
 1137 006a 0123     		mov	r3, #1
 1138 006c 2372     		strb	r3, [r4, #8]
 1139              	.LVL125:
 1140              	.L109:
 532:.\20648_driver\drivers/inv_mems_slave_compass.c ****     
 533:.\20648_driver\drivers/inv_mems_slave_compass.c **** 	return result;
 534:.\20648_driver\drivers/inv_mems_slave_compass.c **** }
 1141              		.loc 1 534 0
 1142              		@ sp needed
 1143 006e 70BD     		pop	{r4, r5, r6, pc}
 1144              	.L120:
 1145              		.align	2
 1146              	.L119:
ARM GAS  C:\Users\ADMINI~1\AppData\Local\Temp\ccKhMK9m.s 			page 33


 1147 0070 00000000 		.word	.LANCHOR0
 1148 0074 00000000 		.word	COMPASS_SLAVE_ID
 1149 0078 00000000 		.word	.LANCHOR2
 1150 007c 00000000 		.word	COMPASS_CHIP_ADDR
 1151              		.cfi_endproc
 1152              	.LFE9:
 1153              		.size	inv_resume_akm, .-inv_resume_akm
 1154              		.section	.text.inv_mems_compass_getstate,"ax",%progbits
 1155              		.align	1
 1156              		.global	inv_mems_compass_getstate
 1157              		.code	16
 1158              		.thumb_func
 1159              		.type	inv_mems_compass_getstate, %function
 1160              	inv_mems_compass_getstate:
 1161              	.LFB10:
 535:.\20648_driver\drivers/inv_mems_slave_compass.c **** 
 536:.\20648_driver\drivers/inv_mems_slave_compass.c **** char inv_mems_compass_getstate(void)
 537:.\20648_driver\drivers/inv_mems_slave_compass.c **** {
 1162              		.loc 1 537 0
 1163              		.cfi_startproc
 538:.\20648_driver\drivers/inv_mems_slave_compass.c **** 	return secondary_resume_state;
 1164              		.loc 1 538 0
 1165 0000 014B     		ldr	r3, .L122
 539:.\20648_driver\drivers/inv_mems_slave_compass.c **** }
 1166              		.loc 1 539 0
 1167              		@ sp needed
 538:.\20648_driver\drivers/inv_mems_slave_compass.c **** 	return secondary_resume_state;
 1168              		.loc 1 538 0
 1169 0002 187A     		ldrb	r0, [r3, #8]
 1170              		.loc 1 539 0
 1171 0004 7047     		bx	lr
 1172              	.L123:
 1173 0006 C046     		.align	2
 1174              	.L122:
 1175 0008 00000000 		.word	.LANCHOR0
 1176              		.cfi_endproc
 1177              	.LFE10:
 1178              		.size	inv_mems_compass_getstate, .-inv_mems_compass_getstate
 1179              		.global	__aeabi_idivmod
 1180              		.section	.text.inv_compass_dmp_cal,"ax",%progbits
 1181              		.align	1
 1182              		.global	inv_compass_dmp_cal
 1183              		.code	16
 1184              		.thumb_func
 1185              		.type	inv_compass_dmp_cal, %function
 1186              	inv_compass_dmp_cal:
 1187              	.LFB11:
 540:.\20648_driver\drivers/inv_mems_slave_compass.c **** 
 541:.\20648_driver\drivers/inv_mems_slave_compass.c **** /**
 542:.\20648_driver\drivers/inv_mems_slave_compass.c **** *  @brief      Set up the soft-iron matrix for compass in DMP.
 543:.\20648_driver\drivers/inv_mems_slave_compass.c **** *  @param[in]  Accel/Gyro mounting matrix
 544:.\20648_driver\drivers/inv_mems_slave_compass.c **** *  @param[in]  Compass mounting matrix
 545:.\20648_driver\drivers/inv_mems_slave_compass.c **** *  @return     0 if successful.
 546:.\20648_driver\drivers/inv_mems_slave_compass.c **** */
 547:.\20648_driver\drivers/inv_mems_slave_compass.c **** 
 548:.\20648_driver\drivers/inv_mems_slave_compass.c **** int inv_compass_dmp_cal(const signed char *m, const signed char *compass_m)
 549:.\20648_driver\drivers/inv_mems_slave_compass.c **** {
ARM GAS  C:\Users\ADMINI~1\AppData\Local\Temp\ccKhMK9m.s 			page 34


 1188              		.loc 1 549 0
 1189              		.cfi_startproc
 1190              	.LVL126:
 1191 0000 F0B5     		push	{r4, r5, r6, r7, lr}
 1192              		.cfi_def_cfa_offset 20
 1193              		.cfi_offset 4, -20
 1194              		.cfi_offset 5, -16
 1195              		.cfi_offset 6, -12
 1196              		.cfi_offset 7, -8
 1197              		.cfi_offset 14, -4
 1198 0002 0F1C     		mov	r7, r1
 550:.\20648_driver\drivers/inv_mems_slave_compass.c **** 	int8_t trans[NINE_ELEM];
 551:.\20648_driver\drivers/inv_mems_slave_compass.c **** 	int tmp_m[NINE_ELEM];
 552:.\20648_driver\drivers/inv_mems_slave_compass.c **** 	int i, j, k;
 553:.\20648_driver\drivers/inv_mems_slave_compass.c **** 	int sens[THREE_AXES];
 554:.\20648_driver\drivers/inv_mems_slave_compass.c **** 	int scale;
 555:.\20648_driver\drivers/inv_mems_slave_compass.c **** 	int shift;
 556:.\20648_driver\drivers/inv_mems_slave_compass.c ****     int current_compass_matrix[NINE_ELEM];
 557:.\20648_driver\drivers/inv_mems_slave_compass.c ****     
 558:.\20648_driver\drivers/inv_mems_slave_compass.c **** 	for (i = 0; i < THREE_AXES; i++)
 1199              		.loc 1 558 0
 1200 0004 0021     		mov	r1, #0
 1201              	.LVL127:
 549:.\20648_driver\drivers/inv_mems_slave_compass.c **** 	int8_t trans[NINE_ELEM];
 1202              		.loc 1 549 0
 1203 0006 99B0     		sub	sp, sp, #100
 1204              		.cfi_def_cfa_offset 120
 1205              	.LVL128:
 1206              	.L125:
 1207 0008 0322     		mov	r2, #3
 549:.\20648_driver\drivers/inv_mems_slave_compass.c **** 	int8_t trans[NINE_ELEM];
 1208              		.loc 1 549 0
 1209 000a 0023     		mov	r3, #0
 1210 000c 4A43     		mul	r2, r1
 1211 000e 8218     		add	r2, r0, r2
 1212              	.LVL129:
 1213              	.L126:
 1214 0010 0324     		mov	r4, #3
 1215 0012 0D1C     		mov	r5, r1
 1216 0014 5C43     		mul	r4, r3
 559:.\20648_driver\drivers/inv_mems_slave_compass.c **** 		for (j = 0; j < THREE_AXES; j++)
 560:.\20648_driver\drivers/inv_mems_slave_compass.c **** 			trans[THREE_AXES * j + i] = m[THREE_AXES * i + j];
 1217              		.loc 1 560 0 discriminator 3
 1218 0016 D65C     		ldrb	r6, [r2, r3]
 1219 0018 6D44     		add	r5, r5, sp
 559:.\20648_driver\drivers/inv_mems_slave_compass.c **** 		for (j = 0; j < THREE_AXES; j++)
 1220              		.loc 1 559 0 discriminator 3
 1221 001a 0133     		add	r3, r3, #1
 1222              	.LVL130:
 1223              		.loc 1 560 0 discriminator 3
 1224 001c 2E55     		strb	r6, [r5, r4]
 559:.\20648_driver\drivers/inv_mems_slave_compass.c **** 		for (j = 0; j < THREE_AXES; j++)
 1225              		.loc 1 559 0 discriminator 3
 1226 001e 032B     		cmp	r3, #3
 1227 0020 F6D1     		bne	.L126
 558:.\20648_driver\drivers/inv_mems_slave_compass.c **** 		for (j = 0; j < THREE_AXES; j++)
 1228              		.loc 1 558 0 discriminator 2
ARM GAS  C:\Users\ADMINI~1\AppData\Local\Temp\ccKhMK9m.s 			page 35


 1229 0022 0131     		add	r1, r1, #1
 1230              	.LVL131:
 1231 0024 0329     		cmp	r1, #3
 1232 0026 EFD1     		bne	.L125
 561:.\20648_driver\drivers/inv_mems_slave_compass.c **** 	
 562:.\20648_driver\drivers/inv_mems_slave_compass.c ****     switch (COMPASS_SLAVE_ID) 
 1233              		.loc 1 562 0
 1234 0028 374B     		ldr	r3, .L141
 1235              	.LVL132:
 1236 002a 1B78     		ldrb	r3, [r3]
 1237 002c 203B     		sub	r3, r3, #32
 1238 002e DBB2     		uxtb	r3, r3
 1239 0030 052B     		cmp	r3, #5
 1240 0032 06D8     		bhi	.L139
 1241 0034 354A     		ldr	r2, .L141+4
 1242 0036 9900     		lsl	r1, r3, #2
 1243              	.LVL133:
 1244 0038 5118     		add	r1, r2, r1
 1245 003a 6032     		add	r2, r2, #96
 1246 003c 8D6C     		ldr	r5, [r1, #72]
 1247 003e D656     		ldrsb	r6, [r2, r3]
 1248 0040 01E0     		b	.L128
 1249              	.LVL134:
 1250              	.L139:
 1251 0042 1626     		mov	r6, #22
 1252 0044 324D     		ldr	r5, .L141+8
 1253              	.LVL135:
 1254              	.L128:
 563:.\20648_driver\drivers/inv_mems_slave_compass.c ****     {
 564:.\20648_driver\drivers/inv_mems_slave_compass.c ****         case HW_AK8972:
 565:.\20648_driver\drivers/inv_mems_slave_compass.c ****             scale = DATA_AKM8972_SCALE;
 566:.\20648_driver\drivers/inv_mems_slave_compass.c ****             shift = AK89XX_SHIFT;
 567:.\20648_driver\drivers/inv_mems_slave_compass.c ****             break;
 568:.\20648_driver\drivers/inv_mems_slave_compass.c ****         case HW_AK8975:
 569:.\20648_driver\drivers/inv_mems_slave_compass.c ****             scale = DATA_AKM8975_SCALE;
 570:.\20648_driver\drivers/inv_mems_slave_compass.c ****             shift = AK89XX_SHIFT;
 571:.\20648_driver\drivers/inv_mems_slave_compass.c ****             break;
 572:.\20648_driver\drivers/inv_mems_slave_compass.c ****         case HW_AK8963:
 573:.\20648_driver\drivers/inv_mems_slave_compass.c ****             scale = DATA_AKM8963_SCALE1;
 574:.\20648_driver\drivers/inv_mems_slave_compass.c ****             shift = AK89XX_SHIFT;
 575:.\20648_driver\drivers/inv_mems_slave_compass.c ****             break;
 576:.\20648_driver\drivers/inv_mems_slave_compass.c ****         case HW_AK09911:
 577:.\20648_driver\drivers/inv_mems_slave_compass.c ****             scale = DATA_AK09911_SCALE;
 578:.\20648_driver\drivers/inv_mems_slave_compass.c ****             shift = AK99XX_SHIFT;
 579:.\20648_driver\drivers/inv_mems_slave_compass.c ****             break;
 580:.\20648_driver\drivers/inv_mems_slave_compass.c ****         case HW_AK09912:        
 581:.\20648_driver\drivers/inv_mems_slave_compass.c ****             scale = DATA_AK09912_SCALE;
 582:.\20648_driver\drivers/inv_mems_slave_compass.c ****             shift = AK89XX_SHIFT;
 583:.\20648_driver\drivers/inv_mems_slave_compass.c ****             break;
 584:.\20648_driver\drivers/inv_mems_slave_compass.c ****         case HW_AK09916:        
 585:.\20648_driver\drivers/inv_mems_slave_compass.c ****             scale = DATA_AK09916_SCALE;
 586:.\20648_driver\drivers/inv_mems_slave_compass.c ****             shift = AK89XX_SHIFT;
 587:.\20648_driver\drivers/inv_mems_slave_compass.c ****             break;
 588:.\20648_driver\drivers/inv_mems_slave_compass.c ****         default:
 589:.\20648_driver\drivers/inv_mems_slave_compass.c ****             scale = DATA_AKM8963_SCALE1;
 590:.\20648_driver\drivers/inv_mems_slave_compass.c ****             shift = AK89XX_SHIFT;
 591:.\20648_driver\drivers/inv_mems_slave_compass.c ****             break;
ARM GAS  C:\Users\ADMINI~1\AppData\Local\Temp\ccKhMK9m.s 			page 36


 592:.\20648_driver\drivers/inv_mems_slave_compass.c ****     }
 593:.\20648_driver\drivers/inv_mems_slave_compass.c ****     
 594:.\20648_driver\drivers/inv_mems_slave_compass.c **** 	for (i = 0; i < THREE_AXES; i++) {
 1255              		.loc 1 594 0
 1256 0046 0024     		mov	r4, #0
 1257              	.LVL136:
 1258              	.L129:
 595:.\20648_driver\drivers/inv_mems_slave_compass.c **** 		sens[i] = compass_sens[i] + 128;
 1259              		.loc 1 595 0 discriminator 3
 1260 0048 324B     		ldr	r3, .L141+12
 596:.\20648_driver\drivers/inv_mems_slave_compass.c **** 		sens[i] = inv_q30_mult(sens[i] << shift, scale);
 1261              		.loc 1 596 0 discriminator 3
 1262 004a 291C     		mov	r1, r5
 595:.\20648_driver\drivers/inv_mems_slave_compass.c **** 		sens[i] = compass_sens[i] + 128;
 1263              		.loc 1 595 0 discriminator 3
 1264 004c E05C     		ldrb	r0, [r4, r3]
 1265 004e 8030     		add	r0, r0, #128
 1266              		.loc 1 596 0 discriminator 3
 1267 0050 B040     		lsl	r0, r0, r6
 1268 0052 FFF7FEFF 		bl	inv_q30_mult
 1269              	.LVL137:
 1270 0056 A200     		lsl	r2, r4, #2
 1271 0058 03AB     		add	r3, sp, #12
 594:.\20648_driver\drivers/inv_mems_slave_compass.c **** 		sens[i] = compass_sens[i] + 128;
 1272              		.loc 1 594 0 discriminator 3
 1273 005a 0134     		add	r4, r4, #1
 1274              	.LVL138:
 1275              		.loc 1 596 0 discriminator 3
 1276 005c D050     		str	r0, [r2, r3]
 594:.\20648_driver\drivers/inv_mems_slave_compass.c **** 		sens[i] = compass_sens[i] + 128;
 1277              		.loc 1 594 0 discriminator 3
 1278 005e 032C     		cmp	r4, #3
 1279 0060 F2D1     		bne	.L129
 1280 0062 0025     		mov	r5, #0
 1281              	.LVL139:
 1282              	.L130:
 597:.\20648_driver\drivers/inv_mems_slave_compass.c **** 	}
 598:.\20648_driver\drivers/inv_mems_slave_compass.c **** 	for (i = 0; i < NINE_ELEM; i++) {
 599:.\20648_driver\drivers/inv_mems_slave_compass.c **** 		current_compass_matrix[i] = compass_m[i] * sens[i % THREE_AXES];
 1283              		.loc 1 599 0 discriminator 3
 1284 0064 281C     		mov	r0, r5
 1285 0066 0321     		mov	r1, #3
 1286 0068 FFF7FEFF 		bl	__aeabi_idivmod
 1287              	.LVL140:
 1288 006c 03AB     		add	r3, sp, #12
 1289 006e 8900     		lsl	r1, r1, #2
 1290 0070 7C57     		ldrsb	r4, [r7, r5]
 1291 0072 CB58     		ldr	r3, [r1, r3]
 1292 0074 3C22     		mov	r2, #60
 1293 0076 5C43     		mul	r4, r3
 1294 0078 6B46     		mov	r3, sp
 1295 007a AE00     		lsl	r6, r5, #2
 1296 007c 9B18     		add	r3, r3, r2
 1297 007e 9C51     		str	r4, [r3, r6]
 600:.\20648_driver\drivers/inv_mems_slave_compass.c **** 		tmp_m[i] = 0;
 1298              		.loc 1 600 0 discriminator 3
 1299 0080 0024     		mov	r4, #0
ARM GAS  C:\Users\ADMINI~1\AppData\Local\Temp\ccKhMK9m.s 			page 37


 1300 0082 06AB     		add	r3, sp, #24
 598:.\20648_driver\drivers/inv_mems_slave_compass.c **** 		current_compass_matrix[i] = compass_m[i] * sens[i % THREE_AXES];
 1301              		.loc 1 598 0 discriminator 3
 1302 0084 0135     		add	r5, r5, #1
 1303              	.LVL141:
 1304              		.loc 1 600 0 discriminator 3
 1305 0086 F450     		str	r4, [r6, r3]
 598:.\20648_driver\drivers/inv_mems_slave_compass.c **** 		current_compass_matrix[i] = compass_m[i] * sens[i % THREE_AXES];
 1306              		.loc 1 598 0 discriminator 3
 1307 0088 092D     		cmp	r5, #9
 1308 008a EBD1     		bne	.L130
 1309              	.LVL142:
 1310              	.L131:
 1311 008c 0026     		mov	r6, #0
 1312              	.LVL143:
 1313              	.L133:
 601:.\20648_driver\drivers/inv_mems_slave_compass.c **** 	}
 602:.\20648_driver\drivers/inv_mems_slave_compass.c ****     
 603:.\20648_driver\drivers/inv_mems_slave_compass.c ****     for (i = 0; i < THREE_AXES; i++) {
 604:.\20648_driver\drivers/inv_mems_slave_compass.c **** 		for (j = 0; j < THREE_AXES; j++) {
 605:.\20648_driver\drivers/inv_mems_slave_compass.c **** 			final_matrix[i * THREE_AXES + j] = 0;
 1314              		.loc 1 605 0
 1315 008e 0025     		mov	r5, #0
 1316 0090 204F     		ldr	r7, .L141+12
 1317 0092 0C37     		add	r7, r7, #12
 1318 0094 3F19     		add	r7, r7, r4
 1319 0096 BD51     		str	r5, [r7, r6]
 1320              	.LVL144:
 1321              	.L132:
 1322 0098 0FAB     		add	r3, sp, #60
 1323 009a 9A19     		add	r2, r3, r6
 1324 009c 0323     		mov	r3, #3
 1325 009e 6B43     		mul	r3, r5
 1326 00a0 1D49     		ldr	r1, .L141+16
 1327 00a2 6118     		add	r1, r4, r1
 606:.\20648_driver\drivers/inv_mems_slave_compass.c **** 			for (k = 0; k < THREE_AXES; k++)
 607:.\20648_driver\drivers/inv_mems_slave_compass.c **** 				final_matrix[i * THREE_AXES + j] +=
 608:.\20648_driver\drivers/inv_mems_slave_compass.c **** 					inv_q30_mult(SOFT_IRON_MATRIX[i * THREE_AXES + k],
 1328              		.loc 1 608 0 discriminator 3
 1329 00a4 4859     		ldr	r0, [r1, r5]
 1330 00a6 D158     		ldr	r1, [r2, r3]
 1331 00a8 FFF7FEFF 		bl	inv_q30_mult
 1332              	.LVL145:
 607:.\20648_driver\drivers/inv_mems_slave_compass.c **** 					inv_q30_mult(SOFT_IRON_MATRIX[i * THREE_AXES + k],
 1333              		.loc 1 607 0 discriminator 3
 1334 00ac BB59     		ldr	r3, [r7, r6]
 1335 00ae 0435     		add	r5, r5, #4
 1336 00b0 1818     		add	r0, r3, r0
 1337 00b2 B851     		str	r0, [r7, r6]
 606:.\20648_driver\drivers/inv_mems_slave_compass.c **** 			for (k = 0; k < THREE_AXES; k++)
 1338              		.loc 1 606 0 discriminator 3
 1339 00b4 0C2D     		cmp	r5, #12
 1340 00b6 EFD1     		bne	.L132
 1341 00b8 0436     		add	r6, r6, #4
 604:.\20648_driver\drivers/inv_mems_slave_compass.c **** 			final_matrix[i * THREE_AXES + j] = 0;
 1342              		.loc 1 604 0 discriminator 2
 1343 00ba 0C2E     		cmp	r6, #12
ARM GAS  C:\Users\ADMINI~1\AppData\Local\Temp\ccKhMK9m.s 			page 38


 1344 00bc E7D1     		bne	.L133
 1345 00be 0C34     		add	r4, r4, #12
 603:.\20648_driver\drivers/inv_mems_slave_compass.c **** 		for (j = 0; j < THREE_AXES; j++) {
 1346              		.loc 1 603 0 discriminator 2
 1347 00c0 242C     		cmp	r4, #36
 1348 00c2 E3D1     		bne	.L131
 1349 00c4 0024     		mov	r4, #0
 1350              	.L134:
 1351              	.LVL146:
 1352 00c6 06AB     		add	r3, sp, #24
 1353 00c8 A200     		lsl	r2, r4, #2
 1354 00ca 9A18     		add	r2, r3, r2
 609:.\20648_driver\drivers/inv_mems_slave_compass.c ****                                  current_compass_matrix[j + k * THREE_AXES]);
 610:.\20648_driver\drivers/inv_mems_slave_compass.c **** 		}
 611:.\20648_driver\drivers/inv_mems_slave_compass.c **** 	}
 612:.\20648_driver\drivers/inv_mems_slave_compass.c ****     
 613:.\20648_driver\drivers/inv_mems_slave_compass.c ****     for (i = 0; i < THREE_AXES; i++)
 614:.\20648_driver\drivers/inv_mems_slave_compass.c **** 		for (j = 0; j < THREE_AXES; j++)
 615:.\20648_driver\drivers/inv_mems_slave_compass.c **** 			for (k = 0; k < THREE_AXES; k++)
 616:.\20648_driver\drivers/inv_mems_slave_compass.c **** 				tmp_m[THREE_AXES * i + j] +=
 1355              		.loc 1 616 0
 1356 00cc 0023     		mov	r3, #0
 1357              	.LVL147:
 1358              	.L138:
 1359 00ce 0021     		mov	r1, #0
 1360 00d0 D558     		ldr	r5, [r2, r3]
 1361              	.LVL148:
 1362              	.L135:
 1363 00d2 201C     		mov	r0, r4
 1364 00d4 0C27     		mov	r7, #12
 1365 00d6 6844     		add	r0, r0, sp
 617:.\20648_driver\drivers/inv_mems_slave_compass.c **** 					trans[THREE_AXES * i + k] *
 1366              		.loc 1 617 0 discriminator 3
 1367 00d8 4656     		ldrsb	r6, [r0, r1]
 1368 00da 4F43     		mul	r7, r1
 1369 00dc 0D48     		ldr	r0, .L141+12
 615:.\20648_driver\drivers/inv_mems_slave_compass.c **** 				tmp_m[THREE_AXES * i + j] +=
 1370              		.loc 1 615 0 discriminator 3
 1371 00de 0131     		add	r1, r1, #1
 1372              	.LVL149:
 1373 00e0 0C30     		add	r0, r0, #12
 1374 00e2 C018     		add	r0, r0, r3
 1375              		.loc 1 617 0 discriminator 3
 1376 00e4 C059     		ldr	r0, [r0, r7]
 1377 00e6 7043     		mul	r0, r6
 616:.\20648_driver\drivers/inv_mems_slave_compass.c **** 					trans[THREE_AXES * i + k] *
 1378              		.loc 1 616 0 discriminator 3
 1379 00e8 2D18     		add	r5, r5, r0
 615:.\20648_driver\drivers/inv_mems_slave_compass.c **** 				tmp_m[THREE_AXES * i + j] +=
 1380              		.loc 1 615 0 discriminator 3
 1381 00ea 0329     		cmp	r1, #3
 1382 00ec F1D1     		bne	.L135
 1383 00ee D550     		str	r5, [r2, r3]
 1384 00f0 0433     		add	r3, r3, #4
 614:.\20648_driver\drivers/inv_mems_slave_compass.c **** 			for (k = 0; k < THREE_AXES; k++)
 1385              		.loc 1 614 0 discriminator 2
 1386 00f2 0C2B     		cmp	r3, #12
ARM GAS  C:\Users\ADMINI~1\AppData\Local\Temp\ccKhMK9m.s 			page 39


 1387 00f4 EBD1     		bne	.L138
 1388 00f6 0334     		add	r4, r4, #3
 613:.\20648_driver\drivers/inv_mems_slave_compass.c **** 		for (j = 0; j < THREE_AXES; j++)
 1389              		.loc 1 613 0 discriminator 2
 1390 00f8 092C     		cmp	r4, #9
 1391 00fa E4D1     		bne	.L134
 618:.\20648_driver\drivers/inv_mems_slave_compass.c **** 						final_matrix[THREE_AXES * k + j];
 619:.\20648_driver\drivers/inv_mems_slave_compass.c ****     
 620:.\20648_driver\drivers/inv_mems_slave_compass.c ****     return dmp_set_compass_matrix(tmp_m);
 1392              		.loc 1 620 0
 1393 00fc 06A8     		add	r0, sp, #24
 1394 00fe FFF7FEFF 		bl	dmp_set_compass_matrix
 1395              	.LVL150:
 621:.\20648_driver\drivers/inv_mems_slave_compass.c **** }
 1396              		.loc 1 621 0
 1397 0102 19B0     		add	sp, sp, #100
 1398              		@ sp needed
 1399 0104 F0BD     		pop	{r4, r5, r6, r7, pc}
 1400              	.L142:
 1401 0106 C046     		.align	2
 1402              	.L141:
 1403 0108 00000000 		.word	COMPASS_SLAVE_ID
 1404 010c 00000000 		.word	.LANCHOR1
 1405 0110 99999909 		.word	161061273
 1406 0114 00000000 		.word	.LANCHOR0
 1407 0118 00000000 		.word	SOFT_IRON_MATRIX
 1408              		.cfi_endproc
 1409              	.LFE11:
 1410              		.size	inv_compass_dmp_cal, .-inv_compass_dmp_cal
 1411              		.global	__aeabi_lmul
 1412              		.section	.text.inv_apply_raw_compass_matrix,"ax",%progbits
 1413              		.align	1
 1414              		.global	inv_apply_raw_compass_matrix
 1415              		.code	16
 1416              		.thumb_func
 1417              		.type	inv_apply_raw_compass_matrix, %function
 1418              	inv_apply_raw_compass_matrix:
 1419              	.LFB12:
 622:.\20648_driver\drivers/inv_mems_slave_compass.c **** 
 623:.\20648_driver\drivers/inv_mems_slave_compass.c **** /**
 624:.\20648_driver\drivers/inv_mems_slave_compass.c **** *  @brief      Apply mounting matrix and scaling to raw compass data.
 625:.\20648_driver\drivers/inv_mems_slave_compass.c **** *  @param[in]  Raw compass data
 626:.\20648_driver\drivers/inv_mems_slave_compass.c **** *  @param[in]  Compensated compass data
 627:.\20648_driver\drivers/inv_mems_slave_compass.c **** *  @return     0 if successful.
 628:.\20648_driver\drivers/inv_mems_slave_compass.c **** */
 629:.\20648_driver\drivers/inv_mems_slave_compass.c **** 
 630:.\20648_driver\drivers/inv_mems_slave_compass.c **** int inv_apply_raw_compass_matrix(short *raw_data, long *compensated_out)
 631:.\20648_driver\drivers/inv_mems_slave_compass.c **** {
 1420              		.loc 1 631 0
 1421              		.cfi_startproc
 1422              	.LVL151:
 1423 0000 F0B5     		push	{r4, r5, r6, r7, lr}
 1424              		.cfi_def_cfa_offset 20
 1425              		.cfi_offset 4, -20
 1426              		.cfi_offset 5, -16
 1427              		.cfi_offset 6, -12
 1428              		.cfi_offset 7, -8
ARM GAS  C:\Users\ADMINI~1\AppData\Local\Temp\ccKhMK9m.s 			page 40


 1429              		.cfi_offset 14, -4
 1430 0002 0025     		mov	r5, #0
 1431 0004 85B0     		sub	sp, sp, #20
 1432              		.cfi_def_cfa_offset 40
 1433              		.loc 1 631 0
 1434 0006 0290     		str	r0, [sp, #8]
 1435 0008 0391     		str	r1, [sp, #12]
 1436              	.LVL152:
 1437              	.L144:
 1438 000a 0323     		mov	r3, #3
 1439 000c 0024     		mov	r4, #0
 1440 000e 0026     		mov	r6, #0
 1441 0010 0027     		mov	r7, #0
 1442 0012 6B43     		mul	r3, r5
 1443 0014 0E4A     		ldr	r2, .L147
 1444 0016 0C32     		add	r2, r2, #12
 1445 0018 D318     		add	r3, r2, r3
 1446 001a 0193     		str	r3, [sp, #4]
 1447              	.LVL153:
 1448              	.L145:
 632:.\20648_driver\drivers/inv_mems_slave_compass.c **** 	int i, j;
 633:.\20648_driver\drivers/inv_mems_slave_compass.c **** 	long long tmp;
 634:.\20648_driver\drivers/inv_mems_slave_compass.c ****     
 635:.\20648_driver\drivers/inv_mems_slave_compass.c **** 	for (i = 0; i < THREE_AXES; i++) {
 636:.\20648_driver\drivers/inv_mems_slave_compass.c **** 		tmp = 0;
 637:.\20648_driver\drivers/inv_mems_slave_compass.c **** 		for (j = 0; j < THREE_AXES; j++)
 638:.\20648_driver\drivers/inv_mems_slave_compass.c **** 			tmp  +=
 639:.\20648_driver\drivers/inv_mems_slave_compass.c **** 			(long long)final_matrix[i * THREE_AXES + j] * (((int)raw_data[j]) << 16);
 1449              		.loc 1 639 0 discriminator 3
 1450 001c 019A     		ldr	r2, [sp, #4]
 1451 001e 6300     		lsl	r3, r4, #1
 1452 0020 D058     		ldr	r0, [r2, r3]
 1453 0022 029B     		ldr	r3, [sp, #8]
 1454 0024 C117     		asr	r1, r0, #31
 1455 0026 1A5F     		ldrsh	r2, [r3, r4]
 1456 0028 0234     		add	r4, r4, #2
 1457 002a 1204     		lsl	r2, r2, #16
 1458 002c D317     		asr	r3, r2, #31
 1459 002e FFF7FEFF 		bl	__aeabi_lmul
 1460              	.LVL154:
 638:.\20648_driver\drivers/inv_mems_slave_compass.c **** 			(long long)final_matrix[i * THREE_AXES + j] * (((int)raw_data[j]) << 16);
 1461              		.loc 1 638 0 discriminator 3
 1462 0032 3618     		add	r6, r6, r0
 1463 0034 4F41     		adc	r7, r7, r1
 1464              	.LVL155:
 637:.\20648_driver\drivers/inv_mems_slave_compass.c **** 			tmp  +=
 1465              		.loc 1 637 0 discriminator 3
 1466 0036 062C     		cmp	r4, #6
 1467 0038 F0D1     		bne	.L145
 640:.\20648_driver\drivers/inv_mems_slave_compass.c **** 		compensated_out[i] = (long)(tmp >> 30);
 1468              		.loc 1 640 0
 1469 003a BA00     		lsl	r2, r7, #2
 1470 003c B30F     		lsr	r3, r6, #30
 1471 003e 1343     		orr	r3, r2
 1472 0040 039A     		ldr	r2, [sp, #12]
 1473 0042 5351     		str	r3, [r2, r5]
 1474 0044 0435     		add	r5, r5, #4
ARM GAS  C:\Users\ADMINI~1\AppData\Local\Temp\ccKhMK9m.s 			page 41


 635:.\20648_driver\drivers/inv_mems_slave_compass.c **** 		tmp = 0;
 1475              		.loc 1 635 0
 1476 0046 0C2D     		cmp	r5, #12
 1477 0048 DFD1     		bne	.L144
 641:.\20648_driver\drivers/inv_mems_slave_compass.c **** 	}
 642:.\20648_driver\drivers/inv_mems_slave_compass.c ****     
 643:.\20648_driver\drivers/inv_mems_slave_compass.c **** 	return 0;
 644:.\20648_driver\drivers/inv_mems_slave_compass.c **** }
 1478              		.loc 1 644 0
 1479 004a 0020     		mov	r0, #0
 1480 004c 05B0     		add	sp, sp, #20
 1481              		@ sp needed
 1482              	.LVL156:
 1483 004e F0BD     		pop	{r4, r5, r6, r7, pc}
 1484              	.L148:
 1485              		.align	2
 1486              	.L147:
 1487 0050 00000000 		.word	.LANCHOR0
 1488              		.cfi_endproc
 1489              	.LFE12:
 1490              		.size	inv_apply_raw_compass_matrix, .-inv_apply_raw_compass_matrix
 1491              		.global	dmp_on
 1492              		.global	scale
 1493              		.comm	st_lower,4,4
 1494              		.comm	st_upper,4,4
 1495              		.global	compass_sens
 1496              		.global	final_matrix
 1497              		.section	.rodata
 1498              		.align	2
 1499              		.set	.LANCHOR1,. + 0
 1500              		.type	AKM8975_ST_Upper, %object
 1501              		.size	AKM8975_ST_Upper, 6
 1502              	AKM8975_ST_Upper:
 1503 0000 6400     		.short	100
 1504 0002 6400     		.short	100
 1505 0004 D4FE     		.short	-300
 1506              		.type	AKM8975_ST_Lower, %object
 1507              		.size	AKM8975_ST_Lower, 6
 1508              	AKM8975_ST_Lower:
 1509 0006 9CFF     		.short	-100
 1510 0008 9CFF     		.short	-100
 1511 000a 18FC     		.short	-1000
 1512              		.type	AKM8972_ST_Upper, %object
 1513              		.size	AKM8972_ST_Upper, 6
 1514              	AKM8972_ST_Upper:
 1515 000c 3200     		.short	50
 1516 000e 3200     		.short	50
 1517 0010 9CFF     		.short	-100
 1518              		.type	AKM8972_ST_Lower, %object
 1519              		.size	AKM8972_ST_Lower, 6
 1520              	AKM8972_ST_Lower:
 1521 0012 CEFF     		.short	-50
 1522 0014 CEFF     		.short	-50
 1523 0016 0CFE     		.short	-500
 1524              		.type	AKM8963_ST_Upper, %object
 1525              		.size	AKM8963_ST_Upper, 6
 1526              	AKM8963_ST_Upper:
ARM GAS  C:\Users\ADMINI~1\AppData\Local\Temp\ccKhMK9m.s 			page 42


 1527 0018 C800     		.short	200
 1528 001a C800     		.short	200
 1529 001c E0FC     		.short	-800
 1530              		.type	AKM8963_ST_Lower, %object
 1531              		.size	AKM8963_ST_Lower, 6
 1532              	AKM8963_ST_Lower:
 1533 001e 38FF     		.short	-200
 1534 0020 38FF     		.short	-200
 1535 0022 80F3     		.short	-3200
 1536              		.type	AK09911_ST_Upper, %object
 1537              		.size	AK09911_ST_Upper, 6
 1538              	AK09911_ST_Upper:
 1539 0024 1E00     		.short	30
 1540 0026 1E00     		.short	30
 1541 0028 CEFF     		.short	-50
 1542              		.type	AK09911_ST_Lower, %object
 1543              		.size	AK09911_ST_Lower, 6
 1544              	AK09911_ST_Lower:
 1545 002a E2FF     		.short	-30
 1546 002c E2FF     		.short	-30
 1547 002e 70FE     		.short	-400
 1548              		.type	AK09912_ST_Upper, %object
 1549              		.size	AK09912_ST_Upper, 6
 1550              	AK09912_ST_Upper:
 1551 0030 C800     		.short	200
 1552 0032 C800     		.short	200
 1553 0034 70FE     		.short	-400
 1554              		.type	AK09912_ST_Lower, %object
 1555              		.size	AK09912_ST_Lower, 6
 1556              	AK09912_ST_Lower:
 1557 0036 38FF     		.short	-200
 1558 0038 38FF     		.short	-200
 1559 003a C0F9     		.short	-1600
 1560              		.type	AK09916_ST_Upper, %object
 1561              		.size	AK09916_ST_Upper, 6
 1562              	AK09916_ST_Upper:
 1563 003c C800     		.short	200
 1564 003e C800     		.short	200
 1565 0040 38FF     		.short	-200
 1566              		.type	AK09916_ST_Lower, %object
 1567              		.size	AK09916_ST_Lower, 6
 1568              	AK09916_ST_Lower:
 1569 0042 38FF     		.short	-200
 1570 0044 38FF     		.short	-200
 1571 0046 18FC     		.short	-1000
 1572              		.type	CSWTCH.31, %object
 1573              		.size	CSWTCH.31, 24
 1574              	CSWTCH.31:
 1575 0048 99999909 		.word	161061273
 1576 004c 33333313 		.word	322122547
 1577 0050 66666626 		.word	644245094
 1578 0054 66666626 		.word	644245094
 1579 0058 99999909 		.word	161061273
 1580 005c 99999909 		.word	161061273
 1581              		.type	CSWTCH.32, %object
 1582              		.size	CSWTCH.32, 6
 1583              	CSWTCH.32:
ARM GAS  C:\Users\ADMINI~1\AppData\Local\Temp\ccKhMK9m.s 			page 43


 1584 0060 16       		.byte	22
 1585 0061 16       		.byte	22
 1586 0062 16       		.byte	22
 1587 0063 17       		.byte	23
 1588 0064 16       		.byte	22
 1589 0065 16       		.byte	22
 1590 0066 0000     		.data
 1591              		.set	.LANCHOR2,. + 0
 1592              		.type	dmp_on, %object
 1593              		.size	dmp_on, 1
 1594              	dmp_on:
 1595 0000 01       		.byte	1
 1596              		.bss
 1597              		.align	2
 1598              		.set	.LANCHOR0,. + 0
 1599              		.type	compass_sens, %object
 1600              		.size	compass_sens, 3
 1601              	compass_sens:
 1602 0000 000000   		.space	3
 1603 0003 00       		.space	1
 1604              		.type	scale, %object
 1605              		.size	scale, 4
 1606              	scale:
 1607 0004 00000000 		.space	4
 1608              		.type	secondary_resume_state, %object
 1609              		.size	secondary_resume_state, 1
 1610              	secondary_resume_state:
 1611 0008 00       		.space	1
 1612              		.type	sModeRegAddr, %object
 1613              		.size	sModeRegAddr, 1
 1614              	sModeRegAddr:
 1615 0009 00       		.space	1
 1616 000a 0000     		.space	2
 1617              		.type	final_matrix, %object
 1618              		.size	final_matrix, 36
 1619              	final_matrix:
 1620 000c 00000000 		.space	36
 1620      00000000 
 1620      00000000 
 1620      00000000 
 1620      00000000 
 1621              		.text
 1622              	.Letext0:
 1623              		.file 2 "c:\\program files (x86)\\cypress\\psoc creator\\3.3\\psoc creator\\import\\gnu\\arm\\4.9.
 1624              		.file 3 "c:\\program files (x86)\\cypress\\psoc creator\\3.3\\psoc creator\\import\\gnu\\arm\\4.9.
 1625              		.file 4 "./.\\20648_driver\\common\\mltypes.h"
 1626              		.file 5 "./.\\20648_driver\\drivers\\inv_mems_hw_config.h"
 1627              		.file 6 "./.\\20648_driver\\drivers\\inv_mems_transport.h"
 1628              		.file 7 "./.\\20648_driver\\drivers\\inv_mems_secondary_transport.h"
 1629              		.file 8 "./.\\20648_driver\\drivers\\inv_mems_slave_pressure.h"
 1630              		.file 9 "./.\\20648_driver\\invn\\ml_math_func.h"
 1631              		.file 10 "./.\\20648_driver\\common\\inv_mems_drv_hook.h"
 1632              		.file 11 "./.\\20648_driver\\dmp3\\inv_mems_interface_mapping.h"