ARM GAS  C:\Users\ADMINI~1\AppData\Local\Temp\ccRFd3Cg.s 			page 1


   1              		.cpu cortex-m0
   2              		.fpu softvfp
   3              		.eabi_attribute 20, 1
   4              		.eabi_attribute 21, 1
   5              		.eabi_attribute 23, 3
   6              		.eabi_attribute 24, 1
   7              		.eabi_attribute 25, 1
   8              		.eabi_attribute 26, 1
   9              		.eabi_attribute 30, 4
  10              		.eabi_attribute 34, 0
  11              		.eabi_attribute 18, 4
  12              		.code	16
  13              		.file	"inv_mems_mpu_fifo_control.c"
  14              		.text
  15              	.Ltext0:
  16              		.cfi_sections	.debug_frame
  17              		.section	.text.get_packet_size_and_samplecnt,"ax",%progbits
  18              		.align	1
  19              		.code	16
  20              		.thumb_func
  21              		.type	get_packet_size_and_samplecnt, %function
  22              	get_packet_size_and_samplecnt:
  23              	.LFB10:
  24              		.file 1 ".\\20648_driver\\drivers\\inv_mems_mpu_fifo_control.c"
   1:.\20648_driver\drivers/inv_mems_mpu_fifo_control.c **** /*
   2:.\20648_driver\drivers/inv_mems_mpu_fifo_control.c **** * _________________________________________________________________________________________________
   3:.\20648_driver\drivers/inv_mems_mpu_fifo_control.c **** * Copyright © 2014-2015 InvenSense Inc. Portions Copyright © 2014-2015 Movea. All rights reserved.
   4:.\20648_driver\drivers/inv_mems_mpu_fifo_control.c **** * This software, related documentation and any modifications thereto (collectively “Software”) is s
   5:.\20648_driver\drivers/inv_mems_mpu_fifo_control.c **** * to InvenSense and its licensors' intellectual property rights under U.S. and international copyri
   6:.\20648_driver\drivers/inv_mems_mpu_fifo_control.c **** * other intellectual property rights laws.
   7:.\20648_driver\drivers/inv_mems_mpu_fifo_control.c **** * InvenSense and its licensors retain all intellectual property and proprietary rights in and to th
   8:.\20648_driver\drivers/inv_mems_mpu_fifo_control.c **** * and any use, reproduction, disclosure or distribution of the Software without an express license
   9:.\20648_driver\drivers/inv_mems_mpu_fifo_control.c **** * agreement from InvenSense is strictly prohibited.
  10:.\20648_driver\drivers/inv_mems_mpu_fifo_control.c **** * _________________________________________________________________________________________________
  11:.\20648_driver\drivers/inv_mems_mpu_fifo_control.c **** */
  12:.\20648_driver\drivers/inv_mems_mpu_fifo_control.c **** 
  13:.\20648_driver\drivers/inv_mems_mpu_fifo_control.c **** #include ".\20648_driver\drivers\inv_mems_mpu_fifo_control.h"
  14:.\20648_driver\drivers/inv_mems_mpu_fifo_control.c **** 
  15:.\20648_driver\drivers/inv_mems_mpu_fifo_control.c **** #include ".\20648_driver\invn\mlmath.h"
  16:.\20648_driver\drivers/inv_mems_mpu_fifo_control.c **** #include ".\20648_driver\common\inv_mems_drv_hook.h"
  17:.\20648_driver\drivers/inv_mems_mpu_fifo_control.c **** #include ".\20648_driver\drivers\inv_mems_defines.h"
  18:.\20648_driver\drivers/inv_mems_mpu_fifo_control.c **** #if (MEMS_CHIP != HW_ICM20609)
  19:.\20648_driver\drivers/inv_mems_mpu_fifo_control.c **** #include ".\20648_driver\drivers\inv_mems_base_control.h"
  20:.\20648_driver\drivers/inv_mems_mpu_fifo_control.c **** #else
  21:.\20648_driver\drivers/inv_mems_mpu_fifo_control.c **** #include ".\20648_driver\drivers\inv_mems_base_control_20609.h"
  22:.\20648_driver\drivers/inv_mems_mpu_fifo_control.c **** #endif
  23:.\20648_driver\drivers/inv_mems_mpu_fifo_control.c **** #include ".\20648_driver\drivers\inv_mems_data_converter.h"
  24:.\20648_driver\drivers/inv_mems_mpu_fifo_control.c **** #include ".\20648_driver\drivers\inv_mems_transport.h"
  25:.\20648_driver\drivers/inv_mems_mpu_fifo_control.c **** #include ".\20648_driver\dmp3\inv_mems_interface_mapping.h"
  26:.\20648_driver\drivers/inv_mems_mpu_fifo_control.c **** 
  27:.\20648_driver\drivers/inv_mems_mpu_fifo_control.c **** #if defined MEMS_SECONDARY_DEVICE
  28:.\20648_driver\drivers/inv_mems_mpu_fifo_control.c **** #include "driver/inv_mems_slave_compass.h"
  29:.\20648_driver\drivers/inv_mems_mpu_fifo_control.c **** #include "driver/inv_mems_slave_pressure.h"
  30:.\20648_driver\drivers/inv_mems_mpu_fifo_control.c **** #endif
  31:.\20648_driver\drivers/inv_mems_mpu_fifo_control.c **** 
  32:.\20648_driver\drivers/inv_mems_mpu_fifo_control.c **** struct inv_fifo_decoded_t fd;
  33:.\20648_driver\drivers/inv_mems_mpu_fifo_control.c **** 
ARM GAS  C:\Users\ADMINI~1\AppData\Local\Temp\ccRFd3Cg.s 			page 2


  34:.\20648_driver\drivers/inv_mems_mpu_fifo_control.c **** static struct fifo_info_t
  35:.\20648_driver\drivers/inv_mems_mpu_fifo_control.c **** {
  36:.\20648_driver\drivers/inv_mems_mpu_fifo_control.c ****     inv_error_t   fifoError;
  37:.\20648_driver\drivers/inv_mems_mpu_fifo_control.c ****     unsigned char fifo_overflow;
  38:.\20648_driver\drivers/inv_mems_mpu_fifo_control.c **** } fifo_info = {0};
  39:.\20648_driver\drivers/inv_mems_mpu_fifo_control.c **** 
  40:.\20648_driver\drivers/inv_mems_mpu_fifo_control.c **** #if (MEMS_CHIP != HW_ICM20609)
  41:.\20648_driver\drivers/inv_mems_mpu_fifo_control.c **** inv_error_t mpu_set_FIFO_RST_Diamond(unsigned char value)
  42:.\20648_driver\drivers/inv_mems_mpu_fifo_control.c **** {
  43:.\20648_driver\drivers/inv_mems_mpu_fifo_control.c **** 	inv_error_t result = 0;
  44:.\20648_driver\drivers/inv_mems_mpu_fifo_control.c **** 	unsigned char reg;
  45:.\20648_driver\drivers/inv_mems_mpu_fifo_control.c **** 
  46:.\20648_driver\drivers/inv_mems_mpu_fifo_control.c **** 	result |= inv_read_mems_reg(REG_FIFO_RST, 1, &reg);
  47:.\20648_driver\drivers/inv_mems_mpu_fifo_control.c ****     
  48:.\20648_driver\drivers/inv_mems_mpu_fifo_control.c **** 	reg &= 0xe0;
  49:.\20648_driver\drivers/inv_mems_mpu_fifo_control.c **** 	reg |= value;
  50:.\20648_driver\drivers/inv_mems_mpu_fifo_control.c **** 	result |= inv_write_mems_reg(REG_FIFO_RST, 1, &reg);
  51:.\20648_driver\drivers/inv_mems_mpu_fifo_control.c ****     
  52:.\20648_driver\drivers/inv_mems_mpu_fifo_control.c **** 	return result;
  53:.\20648_driver\drivers/inv_mems_mpu_fifo_control.c **** }
  54:.\20648_driver\drivers/inv_mems_mpu_fifo_control.c **** #endif
  55:.\20648_driver\drivers/inv_mems_mpu_fifo_control.c **** 
  56:.\20648_driver\drivers/inv_mems_mpu_fifo_control.c **** inv_error_t inv_identify_interrupt(short *int_read)
  57:.\20648_driver\drivers/inv_mems_mpu_fifo_control.c **** {
  58:.\20648_driver\drivers/inv_mems_mpu_fifo_control.c **** 	unsigned char int_status;
  59:.\20648_driver\drivers/inv_mems_mpu_fifo_control.c ****     inv_error_t result=0 ;
  60:.\20648_driver\drivers/inv_mems_mpu_fifo_control.c ****     
  61:.\20648_driver\drivers/inv_mems_mpu_fifo_control.c ****     if(int_read)
  62:.\20648_driver\drivers/inv_mems_mpu_fifo_control.c ****         *int_read = 0;
  63:.\20648_driver\drivers/inv_mems_mpu_fifo_control.c ****     
  64:.\20648_driver\drivers/inv_mems_mpu_fifo_control.c ****     result = inv_read_mems_reg(REG_INT_STATUS, 1, &int_status);
  65:.\20648_driver\drivers/inv_mems_mpu_fifo_control.c ****     if(int_read)
  66:.\20648_driver\drivers/inv_mems_mpu_fifo_control.c ****         *int_read = int_status;
  67:.\20648_driver\drivers/inv_mems_mpu_fifo_control.c **** 
  68:.\20648_driver\drivers/inv_mems_mpu_fifo_control.c ****     result = inv_read_mems_reg(REG_DMP_INT_STATUS, 1, &int_status); // DMP_INT_STATUS
  69:.\20648_driver\drivers/inv_mems_mpu_fifo_control.c **** 	if(int_read)
  70:.\20648_driver\drivers/inv_mems_mpu_fifo_control.c **** 		*int_read |= (int_status << 8);
  71:.\20648_driver\drivers/inv_mems_mpu_fifo_control.c ****     
  72:.\20648_driver\drivers/inv_mems_mpu_fifo_control.c ****     /*if(wake_on_motion_enabled) {
  73:.\20648_driver\drivers/inv_mems_mpu_fifo_control.c ****         result = inv_read_mems_reg(REG_INT_STATUS, 1, &int_status);//INT_STATUS
  74:.\20648_driver\drivers/inv_mems_mpu_fifo_control.c ****         if(result)
  75:.\20648_driver\drivers/inv_mems_mpu_fifo_control.c ****             return result;
  76:.\20648_driver\drivers/inv_mems_mpu_fifo_control.c ****         *int_read |= reg_data[1];
  77:.\20648_driver\drivers/inv_mems_mpu_fifo_control.c ****     }*/
  78:.\20648_driver\drivers/inv_mems_mpu_fifo_control.c ****     /*
  79:.\20648_driver\drivers/inv_mems_mpu_fifo_control.c ****      * We do not need to handle FIFO overflow here. 
  80:.\20648_driver\drivers/inv_mems_mpu_fifo_control.c ****      * When we read FIFO_SIZE we can determine if FIFO overflow has occured.
  81:.\20648_driver\drivers/inv_mems_mpu_fifo_control.c ****      */
  82:.\20648_driver\drivers/inv_mems_mpu_fifo_control.c ****     //result = inv_read_mems_reg(0x1B, 1, &int_status);
  83:.\20648_driver\drivers/inv_mems_mpu_fifo_control.c ****     
  84:.\20648_driver\drivers/inv_mems_mpu_fifo_control.c **** 	return result;
  85:.\20648_driver\drivers/inv_mems_mpu_fifo_control.c **** }
  86:.\20648_driver\drivers/inv_mems_mpu_fifo_control.c **** 
  87:.\20648_driver\drivers/inv_mems_mpu_fifo_control.c **** /**
  88:.\20648_driver\drivers/inv_mems_mpu_fifo_control.c **** * @internal
  89:.\20648_driver\drivers/inv_mems_mpu_fifo_control.c **** * @brief   Get the length from the fifo
  90:.\20648_driver\drivers/inv_mems_mpu_fifo_control.c **** *
ARM GAS  C:\Users\ADMINI~1\AppData\Local\Temp\ccRFd3Cg.s 			page 3


  91:.\20648_driver\drivers/inv_mems_mpu_fifo_control.c **** * @param[out] len amount of data currently stored in the fifo.
  92:.\20648_driver\drivers/inv_mems_mpu_fifo_control.c **** *
  93:.\20648_driver\drivers/inv_mems_mpu_fifo_control.c **** * @return MPU_SUCCESS or non-zero error code.
  94:.\20648_driver\drivers/inv_mems_mpu_fifo_control.c **** **/
  95:.\20648_driver\drivers/inv_mems_mpu_fifo_control.c **** //static inv_error_t dmp_get_fifo_length( uint_fast16_t * len )
  96:.\20648_driver\drivers/inv_mems_mpu_fifo_control.c **** inv_error_t dmp_get_fifo_length( uint_fast16_t * len )
  97:.\20648_driver\drivers/inv_mems_mpu_fifo_control.c **** {
  98:.\20648_driver\drivers/inv_mems_mpu_fifo_control.c **** 	unsigned char fifoBuf[2];
  99:.\20648_driver\drivers/inv_mems_mpu_fifo_control.c **** 	inv_error_t result = 0;
 100:.\20648_driver\drivers/inv_mems_mpu_fifo_control.c ****     
 101:.\20648_driver\drivers/inv_mems_mpu_fifo_control.c **** 	if (NULL == len)
 102:.\20648_driver\drivers/inv_mems_mpu_fifo_control.c **** 		return INV_ERROR_INVALID_PARAMETER;
 103:.\20648_driver\drivers/inv_mems_mpu_fifo_control.c ****     
 104:.\20648_driver\drivers/inv_mems_mpu_fifo_control.c **** 	/*---- read the 2 'count' registers and
 105:.\20648_driver\drivers/inv_mems_mpu_fifo_control.c **** 	burst read the data from the FIFO ----*/
 106:.\20648_driver\drivers/inv_mems_mpu_fifo_control.c **** 	result = inv_read_mems_reg(REG_FIFO_COUNT_H, 2, fifoBuf);
 107:.\20648_driver\drivers/inv_mems_mpu_fifo_control.c **** 	if (result) 
 108:.\20648_driver\drivers/inv_mems_mpu_fifo_control.c **** 	{
 109:.\20648_driver\drivers/inv_mems_mpu_fifo_control.c **** 		fifo_info.fifoError = INV_ERROR_FIFO_READ_COUNT;
 110:.\20648_driver\drivers/inv_mems_mpu_fifo_control.c **** 		*len = 0;
 111:.\20648_driver\drivers/inv_mems_mpu_fifo_control.c **** 		return result;
 112:.\20648_driver\drivers/inv_mems_mpu_fifo_control.c **** 	}
 113:.\20648_driver\drivers/inv_mems_mpu_fifo_control.c ****     
 114:.\20648_driver\drivers/inv_mems_mpu_fifo_control.c **** 	*len = (uint_fast16_t) (fifoBuf[0] << 8);
 115:.\20648_driver\drivers/inv_mems_mpu_fifo_control.c **** 	*len += (uint_fast16_t) (fifoBuf[1]);
 116:.\20648_driver\drivers/inv_mems_mpu_fifo_control.c **** 
 117:.\20648_driver\drivers/inv_mems_mpu_fifo_control.c **** 	return result;
 118:.\20648_driver\drivers/inv_mems_mpu_fifo_control.c **** }
 119:.\20648_driver\drivers/inv_mems_mpu_fifo_control.c **** 
 120:.\20648_driver\drivers/inv_mems_mpu_fifo_control.c **** /**
 121:.\20648_driver\drivers/inv_mems_mpu_fifo_control.c **** *  @internal
 122:.\20648_driver\drivers/inv_mems_mpu_fifo_control.c **** *  @brief  Clears the FIFO status and its content.
 123:.\20648_driver\drivers/inv_mems_mpu_fifo_control.c **** *  @note   Halt the DMP writing into the FIFO for the time
 124:.\20648_driver\drivers/inv_mems_mpu_fifo_control.c **** *          needed to reset the FIFO.
 125:.\20648_driver\drivers/inv_mems_mpu_fifo_control.c **** *  @return MPU_SUCCESS if successful, a non-zero error code otherwise.
 126:.\20648_driver\drivers/inv_mems_mpu_fifo_control.c **** */
 127:.\20648_driver\drivers/inv_mems_mpu_fifo_control.c **** inv_error_t dmp_reset_fifo(void)
 128:.\20648_driver\drivers/inv_mems_mpu_fifo_control.c **** {
 129:.\20648_driver\drivers/inv_mems_mpu_fifo_control.c ****     uint_fast16_t len = HARDWARE_FIFO_SIZE;
 130:.\20648_driver\drivers/inv_mems_mpu_fifo_control.c **** 	unsigned char tries = 0;
 131:.\20648_driver\drivers/inv_mems_mpu_fifo_control.c **** 	inv_error_t result = 0;
 132:.\20648_driver\drivers/inv_mems_mpu_fifo_control.c ****     
 133:.\20648_driver\drivers/inv_mems_mpu_fifo_control.c **** 	while (len != 0 && tries < 6) 
 134:.\20648_driver\drivers/inv_mems_mpu_fifo_control.c **** 	{ 
 135:.\20648_driver\drivers/inv_mems_mpu_fifo_control.c **** 		base_state.user_ctrl &= (~BIT_FIFO_EN);
 136:.\20648_driver\drivers/inv_mems_mpu_fifo_control.c **** 		base_state.user_ctrl &= (~BIT_DMP_EN);
 137:.\20648_driver\drivers/inv_mems_mpu_fifo_control.c **** 		result |= inv_write_single_mems_reg(REG_USER_CTRL, base_state.user_ctrl);
 138:.\20648_driver\drivers/inv_mems_mpu_fifo_control.c ****                 
 139:.\20648_driver\drivers/inv_mems_mpu_fifo_control.c **** #if (MEMS_CHIP != HW_ICM20609)
 140:.\20648_driver\drivers/inv_mems_mpu_fifo_control.c **** 		result |= mpu_set_FIFO_RST_Diamond(0x1f);
 141:.\20648_driver\drivers/inv_mems_mpu_fifo_control.c **** 		result |= mpu_set_FIFO_RST_Diamond(0x1e);
 142:.\20648_driver\drivers/inv_mems_mpu_fifo_control.c **** #else
 143:.\20648_driver\drivers/inv_mems_mpu_fifo_control.c ****                 result |= inv_write_single_mems_reg(REG_USER_CTRL, BIT_FIFO_RST);
 144:.\20648_driver\drivers/inv_mems_mpu_fifo_control.c ****                 result |= inv_write_single_mems_reg(REG_USER_CTRL, BIT_DMP_RST);
 145:.\20648_driver\drivers/inv_mems_mpu_fifo_control.c ****                 inv_sleep(2);
 146:.\20648_driver\drivers/inv_mems_mpu_fifo_control.c ****                 
 147:.\20648_driver\drivers/inv_mems_mpu_fifo_control.c **** #endif
ARM GAS  C:\Users\ADMINI~1\AppData\Local\Temp\ccRFd3Cg.s 			page 4


 148:.\20648_driver\drivers/inv_mems_mpu_fifo_control.c ****         
 149:.\20648_driver\drivers/inv_mems_mpu_fifo_control.c **** 		// Reset overflow flag
 150:.\20648_driver\drivers/inv_mems_mpu_fifo_control.c **** 		fifo_info.fifo_overflow = 0;
 151:.\20648_driver\drivers/inv_mems_mpu_fifo_control.c ****         
 152:.\20648_driver\drivers/inv_mems_mpu_fifo_control.c **** 		result |= dmp_get_fifo_length(&len);
 153:.\20648_driver\drivers/inv_mems_mpu_fifo_control.c **** 		if (result) 
 154:.\20648_driver\drivers/inv_mems_mpu_fifo_control.c **** 			return result;
 155:.\20648_driver\drivers/inv_mems_mpu_fifo_control.c ****         
 156:.\20648_driver\drivers/inv_mems_mpu_fifo_control.c **** 		tries++;
 157:.\20648_driver\drivers/inv_mems_mpu_fifo_control.c **** 	}
 158:.\20648_driver\drivers/inv_mems_mpu_fifo_control.c ****     
 159:.\20648_driver\drivers/inv_mems_mpu_fifo_control.c **** 	base_state.user_ctrl |= BIT_FIFO_EN;
 160:.\20648_driver\drivers/inv_mems_mpu_fifo_control.c **** 	base_state.user_ctrl |= BIT_DMP_EN;
 161:.\20648_driver\drivers/inv_mems_mpu_fifo_control.c **** 	result |= inv_write_single_mems_reg(REG_USER_CTRL, base_state.user_ctrl);
 162:.\20648_driver\drivers/inv_mems_mpu_fifo_control.c ****     
 163:.\20648_driver\drivers/inv_mems_mpu_fifo_control.c **** 	return result;
 164:.\20648_driver\drivers/inv_mems_mpu_fifo_control.c **** }
 165:.\20648_driver\drivers/inv_mems_mpu_fifo_control.c **** 
 166:.\20648_driver\drivers/inv_mems_mpu_fifo_control.c **** /**
 167:.\20648_driver\drivers/inv_mems_mpu_fifo_control.c **** *  @internal
 168:.\20648_driver\drivers/inv_mems_mpu_fifo_control.c **** *  @brief  Read data from the fifo
 169:.\20648_driver\drivers/inv_mems_mpu_fifo_control.c **** *
 170:.\20648_driver\drivers/inv_mems_mpu_fifo_control.c **** *  @param[out] data Location to store the date read from the fifo
 171:.\20648_driver\drivers/inv_mems_mpu_fifo_control.c **** *  @param[in] len   Amount of data to read out of the fifo
 172:.\20648_driver\drivers/inv_mems_mpu_fifo_control.c **** *
 173:.\20648_driver\drivers/inv_mems_mpu_fifo_control.c **** *  @return MPU_SUCCESS or non-zero error code
 174:.\20648_driver\drivers/inv_mems_mpu_fifo_control.c **** **/
 175:.\20648_driver\drivers/inv_mems_mpu_fifo_control.c **** inv_error_t dmp_read_fifo(unsigned char *data, uint_fast16_t len)
 176:.\20648_driver\drivers/inv_mems_mpu_fifo_control.c **** {
 177:.\20648_driver\drivers/inv_mems_mpu_fifo_control.c **** 	inv_error_t result;
 178:.\20648_driver\drivers/inv_mems_mpu_fifo_control.c ****     uint_fast16_t bytesRead = 0;
 179:.\20648_driver\drivers/inv_mems_mpu_fifo_control.c **** 
 180:.\20648_driver\drivers/inv_mems_mpu_fifo_control.c ****     while (bytesRead<len) 
 181:.\20648_driver\drivers/inv_mems_mpu_fifo_control.c ****     {
 182:.\20648_driver\drivers/inv_mems_mpu_fifo_control.c ****         unsigned short thisLen = min(INV_MAX_SERIAL_READ, len-bytesRead);
 183:.\20648_driver\drivers/inv_mems_mpu_fifo_control.c ****         
 184:.\20648_driver\drivers/inv_mems_mpu_fifo_control.c ****         result = inv_read_mems_reg(REG_FIFO_R_W, thisLen, &data[bytesRead]);
 185:.\20648_driver\drivers/inv_mems_mpu_fifo_control.c ****         if (result)
 186:.\20648_driver\drivers/inv_mems_mpu_fifo_control.c **** 		{
 187:.\20648_driver\drivers/inv_mems_mpu_fifo_control.c **** 			dmp_reset_fifo();
 188:.\20648_driver\drivers/inv_mems_mpu_fifo_control.c **** 			fifo_info.fifoError = INV_ERROR_FIFO_READ_DATA;
 189:.\20648_driver\drivers/inv_mems_mpu_fifo_control.c **** 			return result;
 190:.\20648_driver\drivers/inv_mems_mpu_fifo_control.c **** 		}
 191:.\20648_driver\drivers/inv_mems_mpu_fifo_control.c ****         
 192:.\20648_driver\drivers/inv_mems_mpu_fifo_control.c ****         bytesRead += thisLen;
 193:.\20648_driver\drivers/inv_mems_mpu_fifo_control.c ****     }
 194:.\20648_driver\drivers/inv_mems_mpu_fifo_control.c **** 
 195:.\20648_driver\drivers/inv_mems_mpu_fifo_control.c **** 	return result;
 196:.\20648_driver\drivers/inv_mems_mpu_fifo_control.c **** }
 197:.\20648_driver\drivers/inv_mems_mpu_fifo_control.c **** 
 198:.\20648_driver\drivers/inv_mems_mpu_fifo_control.c **** /**
 199:.\20648_driver\drivers/inv_mems_mpu_fifo_control.c **** *  @internal
 200:.\20648_driver\drivers/inv_mems_mpu_fifo_control.c **** *  @brief  used to get the FIFO data.
 201:.\20648_driver\drivers/inv_mems_mpu_fifo_control.c **** *  @param  length
 202:.\20648_driver\drivers/inv_mems_mpu_fifo_control.c **** *              Max number of bytes to read from the FIFO that buffer is still able to sustain.
 203:.\20648_driver\drivers/inv_mems_mpu_fifo_control.c **** *  @param  buffer Reads up to length into the buffer.
 204:.\20648_driver\drivers/inv_mems_mpu_fifo_control.c **** *
ARM GAS  C:\Users\ADMINI~1\AppData\Local\Temp\ccRFd3Cg.s 			page 5


 205:.\20648_driver\drivers/inv_mems_mpu_fifo_control.c **** *  @return number of bytes of read.
 206:.\20648_driver\drivers/inv_mems_mpu_fifo_control.c **** **/
 207:.\20648_driver\drivers/inv_mems_mpu_fifo_control.c **** static uint_fast16_t dmp_get_fifo_all(uint_fast16_t length, unsigned char *buffer, int *reset)
 208:.\20648_driver\drivers/inv_mems_mpu_fifo_control.c **** {
 209:.\20648_driver\drivers/inv_mems_mpu_fifo_control.c **** 	inv_error_t result;
 210:.\20648_driver\drivers/inv_mems_mpu_fifo_control.c **** 	uint_fast16_t in_fifo;
 211:.\20648_driver\drivers/inv_mems_mpu_fifo_control.c ****     
 212:.\20648_driver\drivers/inv_mems_mpu_fifo_control.c **** 	if(reset)
 213:.\20648_driver\drivers/inv_mems_mpu_fifo_control.c **** 		*reset = 0;
 214:.\20648_driver\drivers/inv_mems_mpu_fifo_control.c ****    
 215:.\20648_driver\drivers/inv_mems_mpu_fifo_control.c **** 	result = dmp_get_fifo_length(&in_fifo);
 216:.\20648_driver\drivers/inv_mems_mpu_fifo_control.c **** 	if (result) {
 217:.\20648_driver\drivers/inv_mems_mpu_fifo_control.c **** 		fifo_info.fifoError = result;
 218:.\20648_driver\drivers/inv_mems_mpu_fifo_control.c **** 		return 0;
 219:.\20648_driver\drivers/inv_mems_mpu_fifo_control.c **** 	}
 220:.\20648_driver\drivers/inv_mems_mpu_fifo_control.c ****     
 221:.\20648_driver\drivers/inv_mems_mpu_fifo_control.c **** 	// Nothing to read
 222:.\20648_driver\drivers/inv_mems_mpu_fifo_control.c **** 	if (in_fifo == 0)
 223:.\20648_driver\drivers/inv_mems_mpu_fifo_control.c **** 		return 0;
 224:.\20648_driver\drivers/inv_mems_mpu_fifo_control.c ****     
 225:.\20648_driver\drivers/inv_mems_mpu_fifo_control.c **** 	/* Check if buffer is able to be filled in with in_fifo bytes */
 226:.\20648_driver\drivers/inv_mems_mpu_fifo_control.c **** 	if (in_fifo > length) {
 227:.\20648_driver\drivers/inv_mems_mpu_fifo_control.c **** 		dmp_reset_fifo();
 228:.\20648_driver\drivers/inv_mems_mpu_fifo_control.c **** 		fifo_info.fifoError = INV_ERROR_FIFO_OVERFLOW;
 229:.\20648_driver\drivers/inv_mems_mpu_fifo_control.c **** 		if(reset)
 230:.\20648_driver\drivers/inv_mems_mpu_fifo_control.c **** 			*reset = 1;
 231:.\20648_driver\drivers/inv_mems_mpu_fifo_control.c **** 		return 0;
 232:.\20648_driver\drivers/inv_mems_mpu_fifo_control.c **** 	}
 233:.\20648_driver\drivers/inv_mems_mpu_fifo_control.c **** 
 234:.\20648_driver\drivers/inv_mems_mpu_fifo_control.c **** 	result = dmp_read_fifo(buffer, in_fifo);
 235:.\20648_driver\drivers/inv_mems_mpu_fifo_control.c **** 	if (result) {
 236:.\20648_driver\drivers/inv_mems_mpu_fifo_control.c **** 		fifo_info.fifoError = result;
 237:.\20648_driver\drivers/inv_mems_mpu_fifo_control.c **** 		return 0;
 238:.\20648_driver\drivers/inv_mems_mpu_fifo_control.c **** 	}
 239:.\20648_driver\drivers/inv_mems_mpu_fifo_control.c **** 	return in_fifo;
 240:.\20648_driver\drivers/inv_mems_mpu_fifo_control.c **** }
 241:.\20648_driver\drivers/inv_mems_mpu_fifo_control.c **** 
 242:.\20648_driver\drivers/inv_mems_mpu_fifo_control.c **** /** Determines the packet size by decoding the header. Both header and header2 are set. header2 is 
 243:.\20648_driver\drivers/inv_mems_mpu_fifo_control.c **** *   if it doesn't exist. sample_cnt_array is filled in if not null with number of samples expected 
 244:.\20648_driver\drivers/inv_mems_mpu_fifo_control.c **** */
 245:.\20648_driver\drivers/inv_mems_mpu_fifo_control.c **** static uint_fast16_t get_packet_size_and_samplecnt(unsigned char *data, unsigned short *header, uns
 246:.\20648_driver\drivers/inv_mems_mpu_fifo_control.c **** {
  25              		.loc 1 246 0
  26              		.cfi_startproc
  27              	.LVL0:
  28 0000 70B5     		push	{r4, r5, r6, lr}
  29              		.cfi_def_cfa_offset 16
  30              		.cfi_offset 4, -16
  31              		.cfi_offset 5, -12
  32              		.cfi_offset 6, -8
  33              		.cfi_offset 14, -4
 247:.\20648_driver\drivers/inv_mems_mpu_fifo_control.c **** 	int sz = HEADER_SZ; // 2 for header
 248:.\20648_driver\drivers/inv_mems_mpu_fifo_control.c ****     
 249:.\20648_driver\drivers/inv_mems_mpu_fifo_control.c **** 	*header = (((unsigned short)data[0])<<8) | data[1];
  34              		.loc 1 249 0
  35 0002 0478     		ldrb	r4, [r0]
  36 0004 4578     		ldrb	r5, [r0, #1]
ARM GAS  C:\Users\ADMINI~1\AppData\Local\Temp\ccRFd3Cg.s 			page 6


  37 0006 2402     		lsl	r4, r4, #8
  38 0008 2C43     		orr	r4, r5
 250:.\20648_driver\drivers/inv_mems_mpu_fifo_control.c **** 
 251:.\20648_driver\drivers/inv_mems_mpu_fifo_control.c **** 	if (*header & ACCEL_SET) {
  39              		.loc 1 251 0
  40 000a 25B2     		sxth	r5, r4
 249:.\20648_driver\drivers/inv_mems_mpu_fifo_control.c **** 
  41              		.loc 1 249 0
  42 000c 0C80     		strh	r4, [r1]
 247:.\20648_driver\drivers/inv_mems_mpu_fifo_control.c **** 	int sz = HEADER_SZ; // 2 for header
  43              		.loc 1 247 0
  44 000e 0224     		mov	r4, #2
  45              		.loc 1 251 0
  46 0010 002D     		cmp	r5, #0
  47 0012 06DA     		bge	.L2
  48              	.LVL1:
 252:.\20648_driver\drivers/inv_mems_mpu_fifo_control.c **** 		sz += ACCEL_DATA_SZ;
  49              		.loc 1 252 0
  50 0014 0634     		add	r4, r4, #6
 253:.\20648_driver\drivers/inv_mems_mpu_fifo_control.c **** 		if (sample_cnt_array)
  51              		.loc 1 253 0
  52 0016 002B     		cmp	r3, #0
  53 0018 03D0     		beq	.L2
 254:.\20648_driver\drivers/inv_mems_mpu_fifo_control.c **** 			sample_cnt_array[ANDROID_SENSOR_ACCELEROMETER]++;
  54              		.loc 1 254 0
  55 001a 5C88     		ldrh	r4, [r3, #2]
  56 001c 0134     		add	r4, r4, #1
  57 001e 5C80     		strh	r4, [r3, #2]
 252:.\20648_driver\drivers/inv_mems_mpu_fifo_control.c **** 		sz += ACCEL_DATA_SZ;
  58              		.loc 1 252 0
  59 0020 0824     		mov	r4, #8
  60              	.LVL2:
  61              	.L2:
 255:.\20648_driver\drivers/inv_mems_mpu_fifo_control.c **** 	}
 256:.\20648_driver\drivers/inv_mems_mpu_fifo_control.c ****     
 257:.\20648_driver\drivers/inv_mems_mpu_fifo_control.c **** 	if (*header & GYRO_SET) {
  62              		.loc 1 257 0
  63 0022 0D88     		ldrh	r5, [r1]
  64 0024 6D04     		lsl	r5, r5, #17
  65 0026 0AD5     		bpl	.L3
  66              	.LVL3:
 258:.\20648_driver\drivers/inv_mems_mpu_fifo_control.c **** 		sz += GYRO_DATA_SZ;
 259:.\20648_driver\drivers/inv_mems_mpu_fifo_control.c **** 		if (sample_cnt_array)
  67              		.loc 1 259 0
  68 0028 002B     		cmp	r3, #0
  69 002a 02D0     		beq	.L4
 260:.\20648_driver\drivers/inv_mems_mpu_fifo_control.c **** 			sample_cnt_array[ANDROID_SENSOR_GYROSCOPE_UNCALIBRATED]++;
  70              		.loc 1 260 0
  71 002c 1D8C     		ldrh	r5, [r3, #32]
  72 002e 0135     		add	r5, r5, #1
  73 0030 1D84     		strh	r5, [r3, #32]
  74              	.L4:
 261:.\20648_driver\drivers/inv_mems_mpu_fifo_control.c **** #if (MEMS_CHIP == HW_ICM30630 || MEMS_CHIP == HW_ICM20648 || MEMS_CHIP == HW_ICM20609)
 262:.\20648_driver\drivers/inv_mems_mpu_fifo_control.c **** 		sz += GYRO_BIAS_DATA_SZ;
  75              		.loc 1 262 0
  76 0032 0C34     		add	r4, r4, #12
  77              	.LVL4:
ARM GAS  C:\Users\ADMINI~1\AppData\Local\Temp\ccRFd3Cg.s 			page 7


 263:.\20648_driver\drivers/inv_mems_mpu_fifo_control.c **** 		if (sample_cnt_array)
  78              		.loc 1 263 0
  79 0034 002B     		cmp	r3, #0
  80 0036 02D0     		beq	.L3
 264:.\20648_driver\drivers/inv_mems_mpu_fifo_control.c **** 			sample_cnt_array[ANDROID_SENSOR_GYROSCOPE]++;
  81              		.loc 1 264 0
  82 0038 1D89     		ldrh	r5, [r3, #8]
  83 003a 0135     		add	r5, r5, #1
  84 003c 1D81     		strh	r5, [r3, #8]
  85              	.L3:
 265:.\20648_driver\drivers/inv_mems_mpu_fifo_control.c **** #endif
 266:.\20648_driver\drivers/inv_mems_mpu_fifo_control.c **** 	}
 267:.\20648_driver\drivers/inv_mems_mpu_fifo_control.c ****  
 268:.\20648_driver\drivers/inv_mems_mpu_fifo_control.c **** #if (MEMS_CHIP == HW_ICM20630) || (MEMS_CHIP == HW_ICM20648)
 269:.\20648_driver\drivers/inv_mems_mpu_fifo_control.c **** 	if (*header & CPASS_SET) {
  86              		.loc 1 269 0
  87 003e 0D88     		ldrh	r5, [r1]
  88 0040 AD04     		lsl	r5, r5, #18
  89 0042 05D5     		bpl	.L5
 270:.\20648_driver\drivers/inv_mems_mpu_fifo_control.c **** 		sz += CPASS_DATA_SZ;
  90              		.loc 1 270 0
  91 0044 0634     		add	r4, r4, #6
  92              	.LVL5:
 271:.\20648_driver\drivers/inv_mems_mpu_fifo_control.c **** 		if (sample_cnt_array)
  93              		.loc 1 271 0
  94 0046 002B     		cmp	r3, #0
  95 0048 02D0     		beq	.L5
 272:.\20648_driver\drivers/inv_mems_mpu_fifo_control.c **** 			sample_cnt_array[ANDROID_SENSOR_MAGNETIC_FIELD_UNCALIBRATED]++;
  96              		.loc 1 272 0
  97 004a 9D8B     		ldrh	r5, [r3, #28]
  98 004c 0135     		add	r5, r5, #1
  99 004e 9D83     		strh	r5, [r3, #28]
 100              	.L5:
 273:.\20648_driver\drivers/inv_mems_mpu_fifo_control.c **** 	}
 274:.\20648_driver\drivers/inv_mems_mpu_fifo_control.c ****     
 275:.\20648_driver\drivers/inv_mems_mpu_fifo_control.c **** 	if (*header & ALS_SET) {
 101              		.loc 1 275 0
 102 0050 0D88     		ldrh	r5, [r1]
 103 0052 ED04     		lsl	r5, r5, #19
 104 0054 05D5     		bpl	.L6
 276:.\20648_driver\drivers/inv_mems_mpu_fifo_control.c **** 		sz += ALS_DATA_SZ;
 105              		.loc 1 276 0
 106 0056 0834     		add	r4, r4, #8
 107              	.LVL6:
 277:.\20648_driver\drivers/inv_mems_mpu_fifo_control.c **** 		if (sample_cnt_array)
 108              		.loc 1 277 0
 109 0058 002B     		cmp	r3, #0
 110 005a 02D0     		beq	.L6
 278:.\20648_driver\drivers/inv_mems_mpu_fifo_control.c **** 			sample_cnt_array[ANDROID_SENSOR_LIGHT]++;
 111              		.loc 1 278 0
 112 005c 5D89     		ldrh	r5, [r3, #10]
 113 005e 0135     		add	r5, r5, #1
 114 0060 5D81     		strh	r5, [r3, #10]
 115              	.L6:
 279:.\20648_driver\drivers/inv_mems_mpu_fifo_control.c **** 	}
 280:.\20648_driver\drivers/inv_mems_mpu_fifo_control.c **** #endif
 281:.\20648_driver\drivers/inv_mems_mpu_fifo_control.c **** 
ARM GAS  C:\Users\ADMINI~1\AppData\Local\Temp\ccRFd3Cg.s 			page 8


 282:.\20648_driver\drivers/inv_mems_mpu_fifo_control.c **** 	if (*header & QUAT6_SET) {
 116              		.loc 1 282 0
 117 0062 0D88     		ldrh	r5, [r1]
 118 0064 2D05     		lsl	r5, r5, #20
 119 0066 05D5     		bpl	.L7
 283:.\20648_driver\drivers/inv_mems_mpu_fifo_control.c **** 		sz += QUAT6_DATA_SZ;
 120              		.loc 1 283 0
 121 0068 0C34     		add	r4, r4, #12
 122              	.LVL7:
 284:.\20648_driver\drivers/inv_mems_mpu_fifo_control.c **** 		if (sample_cnt_array)
 123              		.loc 1 284 0
 124 006a 002B     		cmp	r3, #0
 125 006c 02D0     		beq	.L7
 285:.\20648_driver\drivers/inv_mems_mpu_fifo_control.c **** 			sample_cnt_array[ANDROID_SENSOR_GAME_ROTATION_VECTOR]++;
 126              		.loc 1 285 0
 127 006e DD8B     		ldrh	r5, [r3, #30]
 128 0070 0135     		add	r5, r5, #1
 129 0072 DD83     		strh	r5, [r3, #30]
 130              	.L7:
 286:.\20648_driver\drivers/inv_mems_mpu_fifo_control.c **** 	}
 287:.\20648_driver\drivers/inv_mems_mpu_fifo_control.c **** #if (MEMS_CHIP != HW_ICM20609)
 288:.\20648_driver\drivers/inv_mems_mpu_fifo_control.c **** 	if (*header & QUAT9_SET) {
 131              		.loc 1 288 0
 132 0074 0D88     		ldrh	r5, [r1]
 133 0076 6D05     		lsl	r5, r5, #21
 134 0078 05D5     		bpl	.L8
 289:.\20648_driver\drivers/inv_mems_mpu_fifo_control.c **** 		sz += QUAT9_DATA_SZ;
 135              		.loc 1 289 0
 136 007a 0E34     		add	r4, r4, #14
 137              	.LVL8:
 290:.\20648_driver\drivers/inv_mems_mpu_fifo_control.c **** 		if (sample_cnt_array)
 138              		.loc 1 290 0
 139 007c 002B     		cmp	r3, #0
 140 007e 02D0     		beq	.L8
 291:.\20648_driver\drivers/inv_mems_mpu_fifo_control.c **** 			sample_cnt_array[ANDROID_SENSOR_ROTATION_VECTOR]++;
 141              		.loc 1 291 0
 142 0080 DD8A     		ldrh	r5, [r3, #22]
 143 0082 0135     		add	r5, r5, #1
 144 0084 DD82     		strh	r5, [r3, #22]
 145              	.L8:
 292:.\20648_driver\drivers/inv_mems_mpu_fifo_control.c **** 	}
 293:.\20648_driver\drivers/inv_mems_mpu_fifo_control.c **** #endif
 294:.\20648_driver\drivers/inv_mems_mpu_fifo_control.c **** 	if (*header & PQUAT6_SET) 
 146              		.loc 1 294 0
 147 0086 0D88     		ldrh	r5, [r1]
 148 0088 AE05     		lsl	r6, r5, #22
 149 008a 00D5     		bpl	.L9
 295:.\20648_driver\drivers/inv_mems_mpu_fifo_control.c **** 		sz += PQUAT6_DATA_SZ;
 150              		.loc 1 295 0
 151 008c 0634     		add	r4, r4, #6
 152              	.LVL9:
 153              	.L9:
 296:.\20648_driver\drivers/inv_mems_mpu_fifo_control.c ****     
 297:.\20648_driver\drivers/inv_mems_mpu_fifo_control.c **** #if (MEMS_CHIP == HW_ICM20648)
 298:.\20648_driver\drivers/inv_mems_mpu_fifo_control.c **** 	if (*header & GEOMAG_SET) {
 154              		.loc 1 298 0
 155 008e ED05     		lsl	r5, r5, #23
ARM GAS  C:\Users\ADMINI~1\AppData\Local\Temp\ccRFd3Cg.s 			page 9


 156 0090 05D5     		bpl	.L10
 299:.\20648_driver\drivers/inv_mems_mpu_fifo_control.c **** 		sz += GEOMAG_DATA_SZ;
 157              		.loc 1 299 0
 158 0092 0E34     		add	r4, r4, #14
 159              	.LVL10:
 300:.\20648_driver\drivers/inv_mems_mpu_fifo_control.c **** 		if (sample_cnt_array)
 160              		.loc 1 300 0
 161 0094 002B     		cmp	r3, #0
 162 0096 02D0     		beq	.L10
 301:.\20648_driver\drivers/inv_mems_mpu_fifo_control.c **** 			sample_cnt_array[ANDROID_SENSOR_GEOMAGNETIC_ROTATION_VECTOR]++;
 163              		.loc 1 301 0
 164 0098 1D8D     		ldrh	r5, [r3, #40]
 165 009a 0135     		add	r5, r5, #1
 166 009c 1D85     		strh	r5, [r3, #40]
 167              	.L10:
 302:.\20648_driver\drivers/inv_mems_mpu_fifo_control.c **** 	}
 303:.\20648_driver\drivers/inv_mems_mpu_fifo_control.c **** #endif
 304:.\20648_driver\drivers/inv_mems_mpu_fifo_control.c ****     
 305:.\20648_driver\drivers/inv_mems_mpu_fifo_control.c **** #if (MEMS_CHIP == HW_ICM20630 || MEMS_CHIP == HW_ICM20648) 
 306:.\20648_driver\drivers/inv_mems_mpu_fifo_control.c **** 	if (*header & PRESSURE_SET) {
 168              		.loc 1 306 0
 169 009e 0D88     		ldrh	r5, [r1]
 170 00a0 2D06     		lsl	r5, r5, #24
 171 00a2 05D5     		bpl	.L11
 307:.\20648_driver\drivers/inv_mems_mpu_fifo_control.c **** 		sz += PRESSURE_DATA_SZ;
 172              		.loc 1 307 0
 173 00a4 0634     		add	r4, r4, #6
 174              	.LVL11:
 308:.\20648_driver\drivers/inv_mems_mpu_fifo_control.c **** 		if (sample_cnt_array)
 175              		.loc 1 308 0
 176 00a6 002B     		cmp	r3, #0
 177 00a8 02D0     		beq	.L11
 309:.\20648_driver\drivers/inv_mems_mpu_fifo_control.c **** 			sample_cnt_array[ANDROID_SENSOR_PRESSURE]++;
 178              		.loc 1 309 0
 179 00aa 9D89     		ldrh	r5, [r3, #12]
 180 00ac 0135     		add	r5, r5, #1
 181 00ae 9D81     		strh	r5, [r3, #12]
 182              	.L11:
 310:.\20648_driver\drivers/inv_mems_mpu_fifo_control.c **** 	}
 311:.\20648_driver\drivers/inv_mems_mpu_fifo_control.c **** #endif
 312:.\20648_driver\drivers/inv_mems_mpu_fifo_control.c ****     
 313:.\20648_driver\drivers/inv_mems_mpu_fifo_control.c **** #if (MEMS_CHIP != HW_ICM30630 && MEMS_CHIP != HW_ICM20648)
 314:.\20648_driver\drivers/inv_mems_mpu_fifo_control.c **** 	if (*header & GYRO_CALIBR_SET) {
 315:.\20648_driver\drivers/inv_mems_mpu_fifo_control.c **** 		sz += GYRO_CALIBR_DATA_SZ;
 316:.\20648_driver\drivers/inv_mems_mpu_fifo_control.c **** 		if (sample_cnt_array)
 317:.\20648_driver\drivers/inv_mems_mpu_fifo_control.c **** 			sample_cnt_array[ANDROID_SENSOR_GYROSCOPE]++;
 318:.\20648_driver\drivers/inv_mems_mpu_fifo_control.c **** 	}
 319:.\20648_driver\drivers/inv_mems_mpu_fifo_control.c **** #endif
 320:.\20648_driver\drivers/inv_mems_mpu_fifo_control.c **** 	
 321:.\20648_driver\drivers/inv_mems_mpu_fifo_control.c **** #if (MEMS_CHIP == HW_ICM20630 || MEMS_CHIP == HW_ICM20648) 
 322:.\20648_driver\drivers/inv_mems_mpu_fifo_control.c **** 	if (*header & CPASS_CALIBR_SET) {
 183              		.loc 1 322 0
 184 00b0 0D88     		ldrh	r5, [r1]
 185 00b2 AD06     		lsl	r5, r5, #26
 186 00b4 05D5     		bpl	.L12
 323:.\20648_driver\drivers/inv_mems_mpu_fifo_control.c **** 		sz += CPASS_CALIBR_DATA_SZ;
 187              		.loc 1 323 0
ARM GAS  C:\Users\ADMINI~1\AppData\Local\Temp\ccRFd3Cg.s 			page 10


 188 00b6 0C34     		add	r4, r4, #12
 189              	.LVL12:
 324:.\20648_driver\drivers/inv_mems_mpu_fifo_control.c **** 		if (sample_cnt_array)
 190              		.loc 1 324 0
 191 00b8 002B     		cmp	r3, #0
 192 00ba 02D0     		beq	.L12
 325:.\20648_driver\drivers/inv_mems_mpu_fifo_control.c **** 			sample_cnt_array[ANDROID_SENSOR_GEOMAGNETIC_FIELD]++;
 193              		.loc 1 325 0
 194 00bc 9D88     		ldrh	r5, [r3, #4]
 195 00be 0135     		add	r5, r5, #1
 196 00c0 9D80     		strh	r5, [r3, #4]
 197              	.L12:
 326:.\20648_driver\drivers/inv_mems_mpu_fifo_control.c **** 	}
 327:.\20648_driver\drivers/inv_mems_mpu_fifo_control.c **** #endif
 328:.\20648_driver\drivers/inv_mems_mpu_fifo_control.c **** 
 329:.\20648_driver\drivers/inv_mems_mpu_fifo_control.c **** #if (MEMS_CHIP != HW_ICM30630)
 330:.\20648_driver\drivers/inv_mems_mpu_fifo_control.c **** 	if (*header & PED_STEPDET_SET) {
 198              		.loc 1 330 0
 199 00c2 0D88     		ldrh	r5, [r1]
 200 00c4 ED06     		lsl	r5, r5, #27
 201 00c6 05D5     		bpl	.L13
 331:.\20648_driver\drivers/inv_mems_mpu_fifo_control.c **** 		sz += PED_STEPDET_TIMESTAMP_SZ;
 202              		.loc 1 331 0
 203 00c8 0434     		add	r4, r4, #4
 204              	.LVL13:
 332:.\20648_driver\drivers/inv_mems_mpu_fifo_control.c **** 		if (sample_cnt_array)
 205              		.loc 1 332 0
 206 00ca 002B     		cmp	r3, #0
 207 00cc 02D0     		beq	.L13
 333:.\20648_driver\drivers/inv_mems_mpu_fifo_control.c **** 			sample_cnt_array[ANDROID_SENSOR_STEP_DETECTOR]++;
 208              		.loc 1 333 0
 209 00ce 9D8C     		ldrh	r5, [r3, #36]
 210 00d0 0135     		add	r5, r5, #1
 211 00d2 9D84     		strh	r5, [r3, #36]
 212              	.L13:
 334:.\20648_driver\drivers/inv_mems_mpu_fifo_control.c **** 	}
 335:.\20648_driver\drivers/inv_mems_mpu_fifo_control.c **** #endif
 336:.\20648_driver\drivers/inv_mems_mpu_fifo_control.c ****     
 337:.\20648_driver\drivers/inv_mems_mpu_fifo_control.c **** 	if (*header & HEADER2_SET) {
 213              		.loc 1 337 0
 214 00d4 0D88     		ldrh	r5, [r1]
 215 00d6 0821     		mov	r1, #8
 216              	.LVL14:
 217 00d8 2940     		and	r1, r5
 218 00da 06D0     		beq	.L14
 338:.\20648_driver\drivers/inv_mems_mpu_fifo_control.c **** 		*header2 = (((unsigned short)data[2])<<8) | data[3];
 219              		.loc 1 338 0
 220 00dc 8178     		ldrb	r1, [r0, #2]
 221 00de C078     		ldrb	r0, [r0, #3]
 222              	.LVL15:
 223 00e0 0902     		lsl	r1, r1, #8
 224 00e2 0143     		orr	r1, r0
 225 00e4 1180     		strh	r1, [r2]
 339:.\20648_driver\drivers/inv_mems_mpu_fifo_control.c **** 		sz += HEADER2_SZ;
 226              		.loc 1 339 0
 227 00e6 0234     		add	r4, r4, #2
 228              	.LVL16:
ARM GAS  C:\Users\ADMINI~1\AppData\Local\Temp\ccRFd3Cg.s 			page 11


 229 00e8 00E0     		b	.L15
 230              	.LVL17:
 231              	.L14:
 340:.\20648_driver\drivers/inv_mems_mpu_fifo_control.c **** 	} else {
 341:.\20648_driver\drivers/inv_mems_mpu_fifo_control.c **** 		*header2 = 0;
 232              		.loc 1 341 0
 233 00ea 1180     		strh	r1, [r2]
 234              	.LVL18:
 235              	.L15:
 342:.\20648_driver\drivers/inv_mems_mpu_fifo_control.c **** 	}
 343:.\20648_driver\drivers/inv_mems_mpu_fifo_control.c ****     
 344:.\20648_driver\drivers/inv_mems_mpu_fifo_control.c **** 	if (*header2 & ACCEL_ACCURACY_SET) {
 236              		.loc 1 344 0
 237 00ec 1188     		ldrh	r1, [r2]
 238 00ee 4804     		lsl	r0, r1, #17
 239 00f0 00D5     		bpl	.L16
 345:.\20648_driver\drivers/inv_mems_mpu_fifo_control.c **** 		sz += ACCEL_ACCURACY_SZ;
 240              		.loc 1 345 0
 241 00f2 0234     		add	r4, r4, #2
 242              	.LVL19:
 243              	.L16:
 346:.\20648_driver\drivers/inv_mems_mpu_fifo_control.c **** 	}
 347:.\20648_driver\drivers/inv_mems_mpu_fifo_control.c **** 	if (*header2 & GYRO_ACCURACY_SET) {
 244              		.loc 1 347 0
 245 00f4 8804     		lsl	r0, r1, #18
 246 00f6 00D5     		bpl	.L17
 348:.\20648_driver\drivers/inv_mems_mpu_fifo_control.c **** 		sz += GYRO_ACCURACY_SZ;
 247              		.loc 1 348 0
 248 00f8 0234     		add	r4, r4, #2
 249              	.LVL20:
 250              	.L17:
 349:.\20648_driver\drivers/inv_mems_mpu_fifo_control.c **** 	}
 350:.\20648_driver\drivers/inv_mems_mpu_fifo_control.c **** #if (MEMS_CHIP == HW_ICM20630 || MEMS_CHIP == HW_ICM20648) 
 351:.\20648_driver\drivers/inv_mems_mpu_fifo_control.c **** 	if (*header2 & CPASS_ACCURACY_SET) {
 251              		.loc 1 351 0
 252 00fa C804     		lsl	r0, r1, #19
 253 00fc 00D5     		bpl	.L18
 352:.\20648_driver\drivers/inv_mems_mpu_fifo_control.c **** 		sz += CPASS_ACCURACY_SZ;
 254              		.loc 1 352 0
 255 00fe 0234     		add	r4, r4, #2
 256              	.LVL21:
 257              	.L18:
 353:.\20648_driver\drivers/inv_mems_mpu_fifo_control.c **** 	}
 354:.\20648_driver\drivers/inv_mems_mpu_fifo_control.c **** #endif
 355:.\20648_driver\drivers/inv_mems_mpu_fifo_control.c **** 
 356:.\20648_driver\drivers/inv_mems_mpu_fifo_control.c **** #if (MEMS_CHIP == HW_ICM30630)
 357:.\20648_driver\drivers/inv_mems_mpu_fifo_control.c **** 	if (*header2 & FSYNC_SET) {
 358:.\20648_driver\drivers/inv_mems_mpu_fifo_control.c **** 		sz += FSYNC_SZ;
 359:.\20648_driver\drivers/inv_mems_mpu_fifo_control.c **** 	}
 360:.\20648_driver\drivers/inv_mems_mpu_fifo_control.c **** #endif
 361:.\20648_driver\drivers/inv_mems_mpu_fifo_control.c **** 
 362:.\20648_driver\drivers/inv_mems_mpu_fifo_control.c **** #if (MEMS_CHIP == HW_ICM30630 || MEMS_CHIP == HW_ICM20645_E || MEMS_CHIP == HW_ICM20648)
 363:.\20648_driver\drivers/inv_mems_mpu_fifo_control.c **** 	if (*header2 & FLIP_PICKUP_SET) {
 258              		.loc 1 363 0
 259 0100 4905     		lsl	r1, r1, #21
 260 0102 07D5     		bpl	.L19
 364:.\20648_driver\drivers/inv_mems_mpu_fifo_control.c **** 		sz += FLIP_PICKUP_SZ;
ARM GAS  C:\Users\ADMINI~1\AppData\Local\Temp\ccRFd3Cg.s 			page 12


 261              		.loc 1 364 0
 262 0104 0234     		add	r4, r4, #2
 263              	.LVL22:
 365:.\20648_driver\drivers/inv_mems_mpu_fifo_control.c **** 		if (sample_cnt_array)
 264              		.loc 1 365 0
 265 0106 002B     		cmp	r3, #0
 266 0108 04D0     		beq	.L19
 366:.\20648_driver\drivers/inv_mems_mpu_fifo_control.c **** 			sample_cnt_array[ANDROID_SENSOR_FLIP_PICKUP]++;
 267              		.loc 1 366 0
 268 010a 181C     		mov	r0, r3
 269 010c 5830     		add	r0, r0, #88
 270 010e 0188     		ldrh	r1, [r0]
 271 0110 0131     		add	r1, r1, #1
 272 0112 0180     		strh	r1, [r0]
 273              	.L19:
 367:.\20648_driver\drivers/inv_mems_mpu_fifo_control.c **** 	}
 368:.\20648_driver\drivers/inv_mems_mpu_fifo_control.c **** #endif
 369:.\20648_driver\drivers/inv_mems_mpu_fifo_control.c **** #if (MEMS_CHIP == HW_ICM20645_E || MEMS_CHIP == HW_ICM20648)
 370:.\20648_driver\drivers/inv_mems_mpu_fifo_control.c **** 	if (*header2 & ACT_RECOG_SET) {
 274              		.loc 1 370 0
 275 0114 1288     		ldrh	r2, [r2]
 276              	.LVL23:
 277 0116 1206     		lsl	r2, r2, #24
 278 0118 06D5     		bpl	.L20
 371:.\20648_driver\drivers/inv_mems_mpu_fifo_control.c **** 		sz += ACT_RECOG_SZ;
 279              		.loc 1 371 0
 280 011a 0634     		add	r4, r4, #6
 281              	.LVL24:
 372:.\20648_driver\drivers/inv_mems_mpu_fifo_control.c **** 		if (sample_cnt_array)
 282              		.loc 1 372 0
 283 011c 002B     		cmp	r3, #0
 284 011e 03D0     		beq	.L20
 373:.\20648_driver\drivers/inv_mems_mpu_fifo_control.c **** 			sample_cnt_array[ANDROID_SENSOR_ACTIVITY_CLASSIFICATON]++;
 285              		.loc 1 373 0
 286 0120 5A33     		add	r3, r3, #90
 287              	.LVL25:
 288 0122 1A88     		ldrh	r2, [r3]
 289 0124 0132     		add	r2, r2, #1
 290 0126 1A80     		strh	r2, [r3]
 291              	.LVL26:
 292              	.L20:
 374:.\20648_driver\drivers/inv_mems_mpu_fifo_control.c **** 	}
 375:.\20648_driver\drivers/inv_mems_mpu_fifo_control.c **** #endif
 376:.\20648_driver\drivers/inv_mems_mpu_fifo_control.c **** #if (MEMS_CHIP == HW_ICM30630 || MEMS_CHIP == HW_ICM20645_E)
 377:.\20648_driver\drivers/inv_mems_mpu_fifo_control.c **** 	if (*header & FOOTER_SET) {
 378:.\20648_driver\drivers/inv_mems_mpu_fifo_control.c **** 		sz += FOOTER_SZ;
 379:.\20648_driver\drivers/inv_mems_mpu_fifo_control.c **** 	}
 380:.\20648_driver\drivers/inv_mems_mpu_fifo_control.c **** #endif
 381:.\20648_driver\drivers/inv_mems_mpu_fifo_control.c **** 
 382:.\20648_driver\drivers/inv_mems_mpu_fifo_control.c **** #if (MEMS_CHIP == HW_ICM20648) 
 383:.\20648_driver\drivers/inv_mems_mpu_fifo_control.c **** 	sz += ODR_CNT_GYRO_SZ;
 293              		.loc 1 383 0
 294 0128 A01C     		add	r0, r4, #2
 295              	.LVL27:
 384:.\20648_driver\drivers/inv_mems_mpu_fifo_control.c **** #endif
 385:.\20648_driver\drivers/inv_mems_mpu_fifo_control.c **** 
 386:.\20648_driver\drivers/inv_mems_mpu_fifo_control.c **** 	return sz;
ARM GAS  C:\Users\ADMINI~1\AppData\Local\Temp\ccRFd3Cg.s 			page 13


 387:.\20648_driver\drivers/inv_mems_mpu_fifo_control.c **** }
 296              		.loc 1 387 0
 297              		@ sp needed
 298 012a 70BD     		pop	{r4, r5, r6, pc}
 299              		.cfi_endproc
 300              	.LFE10:
 301              		.size	get_packet_size_and_samplecnt, .-get_packet_size_and_samplecnt
 302              		.section	.text.check_fifo_decoded_headers,"ax",%progbits
 303              		.align	1
 304              		.code	16
 305              		.thumb_func
 306              		.type	check_fifo_decoded_headers, %function
 307              	check_fifo_decoded_headers:
 308              	.LFB11:
 388:.\20648_driver\drivers/inv_mems_mpu_fifo_control.c **** 
 389:.\20648_driver\drivers/inv_mems_mpu_fifo_control.c **** static int check_fifo_decoded_headers(unsigned short header, unsigned short header2)
 390:.\20648_driver\drivers/inv_mems_mpu_fifo_control.c **** {
 309              		.loc 1 390 0
 310              		.cfi_startproc
 311              	.LVL28:
 312              		.loc 1 390 0
 313 0000 021E     		sub	r2, r0, #0
 391:.\20648_driver\drivers/inv_mems_mpu_fifo_control.c **** 	unsigned short header_bit_mask = 0;
 392:.\20648_driver\drivers/inv_mems_mpu_fifo_control.c **** 	unsigned short header2_bit_mask = 0;
 393:.\20648_driver\drivers/inv_mems_mpu_fifo_control.c **** 	
 394:.\20648_driver\drivers/inv_mems_mpu_fifo_control.c **** 	// at least 1 bit must be set
 395:.\20648_driver\drivers/inv_mems_mpu_fifo_control.c **** 	if (header == 0)
 314              		.loc 1 395 0
 315 0002 0DD0     		beq	.L109
 316              	.LVL29:
 396:.\20648_driver\drivers/inv_mems_mpu_fifo_control.c **** 		return -1;
 397:.\20648_driver\drivers/inv_mems_mpu_fifo_control.c **** 	
 398:.\20648_driver\drivers/inv_mems_mpu_fifo_control.c **** 	header_bit_mask |= ACCEL_SET;
 399:.\20648_driver\drivers/inv_mems_mpu_fifo_control.c **** 	header_bit_mask |= GYRO_SET;
 400:.\20648_driver\drivers/inv_mems_mpu_fifo_control.c **** #if (MEMS_CHIP == HW_ICM20630) || (MEMS_CHIP == HW_ICM20648)
 401:.\20648_driver\drivers/inv_mems_mpu_fifo_control.c **** 	header_bit_mask |= CPASS_SET;
 402:.\20648_driver\drivers/inv_mems_mpu_fifo_control.c **** 	header_bit_mask |= ALS_SET;
 403:.\20648_driver\drivers/inv_mems_mpu_fifo_control.c **** #endif
 404:.\20648_driver\drivers/inv_mems_mpu_fifo_control.c **** 	header_bit_mask |= QUAT6_SET;
 405:.\20648_driver\drivers/inv_mems_mpu_fifo_control.c **** #if (MEMS_CHIP != HW_ICM20609)
 406:.\20648_driver\drivers/inv_mems_mpu_fifo_control.c **** 	header_bit_mask |= QUAT9_SET;
 407:.\20648_driver\drivers/inv_mems_mpu_fifo_control.c **** #endif
 408:.\20648_driver\drivers/inv_mems_mpu_fifo_control.c **** 	header_bit_mask |= PQUAT6_SET;
 409:.\20648_driver\drivers/inv_mems_mpu_fifo_control.c **** #if (MEMS_CHIP == HW_ICM20648)
 410:.\20648_driver\drivers/inv_mems_mpu_fifo_control.c **** 	header_bit_mask |= GEOMAG_SET;
 411:.\20648_driver\drivers/inv_mems_mpu_fifo_control.c **** #endif
 412:.\20648_driver\drivers/inv_mems_mpu_fifo_control.c **** #if (MEMS_CHIP == HW_ICM20630 || MEMS_CHIP == HW_ICM20648) 
 413:.\20648_driver\drivers/inv_mems_mpu_fifo_control.c **** 	header_bit_mask |= PRESSURE_SET;
 414:.\20648_driver\drivers/inv_mems_mpu_fifo_control.c **** #endif
 415:.\20648_driver\drivers/inv_mems_mpu_fifo_control.c **** #if (MEMS_CHIP != HW_ICM30630)
 416:.\20648_driver\drivers/inv_mems_mpu_fifo_control.c **** 	header_bit_mask |= GYRO_CALIBR_SET;
 417:.\20648_driver\drivers/inv_mems_mpu_fifo_control.c **** #endif
 418:.\20648_driver\drivers/inv_mems_mpu_fifo_control.c **** #if (MEMS_CHIP == HW_ICM20630 || MEMS_CHIP == HW_ICM20648) 
 419:.\20648_driver\drivers/inv_mems_mpu_fifo_control.c **** 	header_bit_mask |= CPASS_CALIBR_SET;
 420:.\20648_driver\drivers/inv_mems_mpu_fifo_control.c **** #endif
 421:.\20648_driver\drivers/inv_mems_mpu_fifo_control.c **** #if (MEMS_CHIP != HW_ICM30630)
 422:.\20648_driver\drivers/inv_mems_mpu_fifo_control.c **** 	header_bit_mask |= PED_STEPDET_SET;
ARM GAS  C:\Users\ADMINI~1\AppData\Local\Temp\ccRFd3Cg.s 			page 14


 423:.\20648_driver\drivers/inv_mems_mpu_fifo_control.c **** #endif
 424:.\20648_driver\drivers/inv_mems_mpu_fifo_control.c **** 	header_bit_mask |= HEADER2_SET;
 425:.\20648_driver\drivers/inv_mems_mpu_fifo_control.c **** 	
 426:.\20648_driver\drivers/inv_mems_mpu_fifo_control.c **** 	if (header & ~header_bit_mask)
 317              		.loc 1 426 0
 318 0004 084B     		ldr	r3, .L114
 319 0006 0340     		and	r3, r0
 320 0008 181E     		sub	r0, r3, #0
 321              	.LVL30:
 322 000a 09D1     		bne	.L109
 427:.\20648_driver\drivers/inv_mems_mpu_fifo_control.c **** 		return -1;
 428:.\20648_driver\drivers/inv_mems_mpu_fifo_control.c **** 	
 429:.\20648_driver\drivers/inv_mems_mpu_fifo_control.c **** 	// at least 1 bit must be set if header 2 is set
 430:.\20648_driver\drivers/inv_mems_mpu_fifo_control.c **** 	if (header & HEADER2_SET) {
 323              		.loc 1 430 0
 324 000c 1307     		lsl	r3, r2, #28
 325 000e 09D5     		bpl	.L106
 326              	.LVL31:
 431:.\20648_driver\drivers/inv_mems_mpu_fifo_control.c **** 		header2_bit_mask |= ACCEL_ACCURACY_SET;
 432:.\20648_driver\drivers/inv_mems_mpu_fifo_control.c **** 		header2_bit_mask |= GYRO_ACCURACY_SET;
 433:.\20648_driver\drivers/inv_mems_mpu_fifo_control.c **** #if (MEMS_CHIP == HW_ICM20630 || MEMS_CHIP == HW_ICM20648) 
 434:.\20648_driver\drivers/inv_mems_mpu_fifo_control.c **** 		header2_bit_mask |= CPASS_ACCURACY_SET;
 435:.\20648_driver\drivers/inv_mems_mpu_fifo_control.c **** #endif
 436:.\20648_driver\drivers/inv_mems_mpu_fifo_control.c **** #if (MEMS_CHIP == HW_ICM30630)
 437:.\20648_driver\drivers/inv_mems_mpu_fifo_control.c **** 		header2_bit_mask |= FSYNC_SET;
 438:.\20648_driver\drivers/inv_mems_mpu_fifo_control.c **** #endif
 439:.\20648_driver\drivers/inv_mems_mpu_fifo_control.c **** #if (MEMS_CHIP == HW_ICM30630 || MEMS_CHIP == HW_ICM20645_E || MEMS_CHIP == HW_ICM20648)
 440:.\20648_driver\drivers/inv_mems_mpu_fifo_control.c **** 		header2_bit_mask |= FLIP_PICKUP_SET;
 441:.\20648_driver\drivers/inv_mems_mpu_fifo_control.c **** #endif
 442:.\20648_driver\drivers/inv_mems_mpu_fifo_control.c **** #if (MEMS_CHIP == HW_ICM20645_E || MEMS_CHIP == HW_ICM20648)
 443:.\20648_driver\drivers/inv_mems_mpu_fifo_control.c **** 		header2_bit_mask |= ACT_RECOG_SET;
 444:.\20648_driver\drivers/inv_mems_mpu_fifo_control.c **** #endif
 445:.\20648_driver\drivers/inv_mems_mpu_fifo_control.c **** #if (MEMS_CHIP == HW_ICM30630 || MEMS_CHIP == HW_ICM20645_E)
 446:.\20648_driver\drivers/inv_mems_mpu_fifo_control.c **** 		header2_bit_mask |= FOOTER_SET;
 447:.\20648_driver\drivers/inv_mems_mpu_fifo_control.c **** #endif
 448:.\20648_driver\drivers/inv_mems_mpu_fifo_control.c **** 		if (header2 == 0)
 327              		.loc 1 448 0
 328 0010 0029     		cmp	r1, #0
 329 0012 05D0     		beq	.L109
 449:.\20648_driver\drivers/inv_mems_mpu_fifo_control.c **** 			return -1;
 450:.\20648_driver\drivers/inv_mems_mpu_fifo_control.c **** 		if (header2 & ~header2_bit_mask)
 330              		.loc 1 450 0
 331 0014 054B     		ldr	r3, .L114+4
 332 0016 1940     		and	r1, r3
 333              	.LVL32:
 334 0018 081C     		mov	r0, r1
 335 001a 411E     		sub	r1, r0, #1
 336 001c 8841     		sbc	r0, r0, r1
 337 001e 00E0     		b	.L113
 338              	.LVL33:
 339              	.L109:
 396:.\20648_driver\drivers/inv_mems_mpu_fifo_control.c **** 	
 340              		.loc 1 396 0
 341 0020 0120     		mov	r0, #1
 342              	.LVL34:
 343              	.L113:
 344 0022 4042     		neg	r0, r0
ARM GAS  C:\Users\ADMINI~1\AppData\Local\Temp\ccRFd3Cg.s 			page 15


 345              	.L106:
 451:.\20648_driver\drivers/inv_mems_mpu_fifo_control.c **** 			return -1;
 452:.\20648_driver\drivers/inv_mems_mpu_fifo_control.c **** 	}
 453:.\20648_driver\drivers/inv_mems_mpu_fifo_control.c **** 
 454:.\20648_driver\drivers/inv_mems_mpu_fifo_control.c ****     return 0;
 455:.\20648_driver\drivers/inv_mems_mpu_fifo_control.c **** }
 346              		.loc 1 455 0
 347              		@ sp needed
 348 0024 7047     		bx	lr
 349              	.L115:
 350 0026 C046     		.align	2
 351              	.L114:
 352 0028 0700FFFF 		.word	-65529
 353 002c 7F8BFFFF 		.word	-29825
 354              		.cfi_endproc
 355              	.LFE11:
 356              		.size	check_fifo_decoded_headers, .-check_fifo_decoded_headers
 357              		.section	.text.dmp_get_fifo_length.part.0,"ax",%progbits
 358              		.align	1
 359              		.code	16
 360              		.thumb_func
 361              		.type	dmp_get_fifo_length.part.0, %function
 362              	dmp_get_fifo_length.part.0:
 363              	.LFB36:
  96:.\20648_driver\drivers/inv_mems_mpu_fifo_control.c **** {
 364              		.loc 1 96 0
 365              		.cfi_startproc
 366              	.LVL35:
 367 0000 37B5     		push	{r0, r1, r2, r4, r5, lr}
 368              		.cfi_def_cfa_offset 24
 369              		.cfi_offset 0, -24
 370              		.cfi_offset 1, -20
 371              		.cfi_offset 2, -16
 372              		.cfi_offset 4, -12
 373              		.cfi_offset 5, -8
 374              		.cfi_offset 14, -4
 106:.\20648_driver\drivers/inv_mems_mpu_fifo_control.c **** 	if (result) 
 375              		.loc 1 106 0
 376 0002 01AD     		add	r5, sp, #4
  96:.\20648_driver\drivers/inv_mems_mpu_fifo_control.c **** {
 377              		.loc 1 96 0
 378 0004 041C     		mov	r4, r0
 106:.\20648_driver\drivers/inv_mems_mpu_fifo_control.c **** 	if (result) 
 379              		.loc 1 106 0
 380 0006 0221     		mov	r1, #2
 381 0008 7020     		mov	r0, #112
 382              	.LVL36:
 383 000a 2A1C     		mov	r2, r5
 384 000c FFF7FEFF 		bl	inv_read_mems_reg
 385              	.LVL37:
 107:.\20648_driver\drivers/inv_mems_mpu_fifo_control.c **** 	{
 386              		.loc 1 107 0
 387 0010 0028     		cmp	r0, #0
 388 0012 04D0     		beq	.L117
 109:.\20648_driver\drivers/inv_mems_mpu_fifo_control.c **** 		*len = 0;
 389              		.loc 1 109 0
 390 0014 4022     		mov	r2, #64
ARM GAS  C:\Users\ADMINI~1\AppData\Local\Temp\ccRFd3Cg.s 			page 16


 391 0016 054B     		ldr	r3, .L120
 392 0018 1A60     		str	r2, [r3]
 110:.\20648_driver\drivers/inv_mems_mpu_fifo_control.c **** 		return result;
 393              		.loc 1 110 0
 394 001a 0023     		mov	r3, #0
 395 001c 03E0     		b	.L119
 396              	.L117:
 114:.\20648_driver\drivers/inv_mems_mpu_fifo_control.c **** 	*len += (uint_fast16_t) (fifoBuf[1]);
 397              		.loc 1 114 0
 398 001e 2B78     		ldrb	r3, [r5]
 115:.\20648_driver\drivers/inv_mems_mpu_fifo_control.c **** 
 399              		.loc 1 115 0
 400 0020 6A78     		ldrb	r2, [r5, #1]
 114:.\20648_driver\drivers/inv_mems_mpu_fifo_control.c **** 	*len += (uint_fast16_t) (fifoBuf[1]);
 401              		.loc 1 114 0
 402 0022 1B02     		lsl	r3, r3, #8
 115:.\20648_driver\drivers/inv_mems_mpu_fifo_control.c **** 
 403              		.loc 1 115 0
 404 0024 9B18     		add	r3, r3, r2
 405              	.L119:
 406 0026 2360     		str	r3, [r4]
 118:.\20648_driver\drivers/inv_mems_mpu_fifo_control.c **** 
 407              		.loc 1 118 0
 408              		@ sp needed
 409              	.LVL38:
 410 0028 3EBD     		pop	{r1, r2, r3, r4, r5, pc}
 411              	.L121:
 412 002a C046     		.align	2
 413              	.L120:
 414 002c 00000000 		.word	.LANCHOR0
 415              		.cfi_endproc
 416              	.LFE36:
 417              		.size	dmp_get_fifo_length.part.0, .-dmp_get_fifo_length.part.0
 418              		.section	.text.mpu_set_FIFO_RST_Diamond,"ax",%progbits
 419              		.align	1
 420              		.global	mpu_set_FIFO_RST_Diamond
 421              		.code	16
 422              		.thumb_func
 423              		.type	mpu_set_FIFO_RST_Diamond, %function
 424              	mpu_set_FIFO_RST_Diamond:
 425              	.LFB4:
  42:.\20648_driver\drivers/inv_mems_mpu_fifo_control.c **** 	inv_error_t result = 0;
 426              		.loc 1 42 0
 427              		.cfi_startproc
 428              	.LVL39:
 429 0000 73B5     		push	{r0, r1, r4, r5, r6, lr}
 430              		.cfi_def_cfa_offset 24
 431              		.cfi_offset 0, -24
 432              		.cfi_offset 1, -20
 433              		.cfi_offset 4, -16
 434              		.cfi_offset 5, -12
 435              		.cfi_offset 6, -8
 436              		.cfi_offset 14, -4
  46:.\20648_driver\drivers/inv_mems_mpu_fifo_control.c ****     
 437              		.loc 1 46 0
 438 0002 6B46     		mov	r3, sp
 439 0004 DC1D     		add	r4, r3, #7
ARM GAS  C:\Users\ADMINI~1\AppData\Local\Temp\ccRFd3Cg.s 			page 17


  42:.\20648_driver\drivers/inv_mems_mpu_fifo_control.c **** 	inv_error_t result = 0;
 440              		.loc 1 42 0
 441 0006 061C     		mov	r6, r0
  46:.\20648_driver\drivers/inv_mems_mpu_fifo_control.c ****     
 442              		.loc 1 46 0
 443 0008 221C     		mov	r2, r4
 444 000a 0121     		mov	r1, #1
 445 000c 6820     		mov	r0, #104
 446              	.LVL40:
 447 000e FFF7FEFF 		bl	inv_read_mems_reg
 448              	.LVL41:
  48:.\20648_driver\drivers/inv_mems_mpu_fifo_control.c **** 	reg |= value;
 449              		.loc 1 48 0
 450 0012 1F22     		mov	r2, #31
 451 0014 2378     		ldrb	r3, [r4]
  46:.\20648_driver\drivers/inv_mems_mpu_fifo_control.c ****     
 452              		.loc 1 46 0
 453 0016 051C     		mov	r5, r0
 454              	.LVL42:
  48:.\20648_driver\drivers/inv_mems_mpu_fifo_control.c **** 	reg |= value;
 455              		.loc 1 48 0
 456 0018 9343     		bic	r3, r2
  49:.\20648_driver\drivers/inv_mems_mpu_fifo_control.c **** 	result |= inv_write_mems_reg(REG_FIFO_RST, 1, &reg);
 457              		.loc 1 49 0
 458 001a 3343     		orr	r3, r6
  50:.\20648_driver\drivers/inv_mems_mpu_fifo_control.c ****     
 459              		.loc 1 50 0
 460 001c 0121     		mov	r1, #1
 461 001e 221C     		mov	r2, r4
 462 0020 6820     		mov	r0, #104
 463              	.LVL43:
  49:.\20648_driver\drivers/inv_mems_mpu_fifo_control.c **** 	result |= inv_write_mems_reg(REG_FIFO_RST, 1, &reg);
 464              		.loc 1 49 0
 465 0022 2370     		strb	r3, [r4]
  50:.\20648_driver\drivers/inv_mems_mpu_fifo_control.c ****     
 466              		.loc 1 50 0
 467 0024 FFF7FEFF 		bl	inv_write_mems_reg
 468              	.LVL44:
  53:.\20648_driver\drivers/inv_mems_mpu_fifo_control.c **** #endif
 469              		.loc 1 53 0
 470              		@ sp needed
  50:.\20648_driver\drivers/inv_mems_mpu_fifo_control.c ****     
 471              		.loc 1 50 0
 472 0028 2843     		orr	r0, r5
 473              	.LVL45:
  53:.\20648_driver\drivers/inv_mems_mpu_fifo_control.c **** #endif
 474              		.loc 1 53 0
 475 002a 76BD     		pop	{r1, r2, r4, r5, r6, pc}
 476              		.cfi_endproc
 477              	.LFE4:
 478              		.size	mpu_set_FIFO_RST_Diamond, .-mpu_set_FIFO_RST_Diamond
 479              		.section	.text.inv_identify_interrupt,"ax",%progbits
 480              		.align	1
 481              		.global	inv_identify_interrupt
 482              		.code	16
 483              		.thumb_func
 484              		.type	inv_identify_interrupt, %function
ARM GAS  C:\Users\ADMINI~1\AppData\Local\Temp\ccRFd3Cg.s 			page 18


 485              	inv_identify_interrupt:
 486              	.LFB5:
  57:.\20648_driver\drivers/inv_mems_mpu_fifo_control.c **** 	unsigned char int_status;
 487              		.loc 1 57 0
 488              		.cfi_startproc
 489              	.LVL46:
 490 0000 37B5     		push	{r0, r1, r2, r4, r5, lr}
 491              		.cfi_def_cfa_offset 24
 492              		.cfi_offset 0, -24
 493              		.cfi_offset 1, -20
 494              		.cfi_offset 2, -16
 495              		.cfi_offset 4, -12
 496              		.cfi_offset 5, -8
 497              		.cfi_offset 14, -4
  57:.\20648_driver\drivers/inv_mems_mpu_fifo_control.c **** 	unsigned char int_status;
 498              		.loc 1 57 0
 499 0002 041E     		sub	r4, r0, #0
  61:.\20648_driver\drivers/inv_mems_mpu_fifo_control.c ****         *int_read = 0;
 500              		.loc 1 61 0
 501 0004 01D0     		beq	.L124
  62:.\20648_driver\drivers/inv_mems_mpu_fifo_control.c ****     
 502              		.loc 1 62 0
 503 0006 0023     		mov	r3, #0
 504 0008 0380     		strh	r3, [r0]
 505              	.L124:
  64:.\20648_driver\drivers/inv_mems_mpu_fifo_control.c ****     if(int_read)
 506              		.loc 1 64 0
 507 000a 6B46     		mov	r3, sp
 508 000c DD1D     		add	r5, r3, #7
 509 000e 1920     		mov	r0, #25
 510              	.LVL47:
 511 0010 0121     		mov	r1, #1
 512 0012 2A1C     		mov	r2, r5
 513 0014 FFF7FEFF 		bl	inv_read_mems_reg
 514              	.LVL48:
  65:.\20648_driver\drivers/inv_mems_mpu_fifo_control.c ****         *int_read = int_status;
 515              		.loc 1 65 0
 516 0018 002C     		cmp	r4, #0
 517 001a 01D0     		beq	.L125
  66:.\20648_driver\drivers/inv_mems_mpu_fifo_control.c **** 
 518              		.loc 1 66 0
 519 001c 2B78     		ldrb	r3, [r5]
 520 001e 2380     		strh	r3, [r4]
 521              	.L125:
  68:.\20648_driver\drivers/inv_mems_mpu_fifo_control.c **** 	if(int_read)
 522              		.loc 1 68 0
 523 0020 1820     		mov	r0, #24
 524 0022 0121     		mov	r1, #1
 525 0024 2A1C     		mov	r2, r5
 526 0026 FFF7FEFF 		bl	inv_read_mems_reg
 527              	.LVL49:
  69:.\20648_driver\drivers/inv_mems_mpu_fifo_control.c **** 		*int_read |= (int_status << 8);
 528              		.loc 1 69 0
 529 002a 002C     		cmp	r4, #0
 530 002c 04D0     		beq	.L126
  70:.\20648_driver\drivers/inv_mems_mpu_fifo_control.c ****     
 531              		.loc 1 70 0
ARM GAS  C:\Users\ADMINI~1\AppData\Local\Temp\ccRFd3Cg.s 			page 19


 532 002e 2B78     		ldrb	r3, [r5]
 533 0030 2288     		ldrh	r2, [r4]
 534 0032 1B02     		lsl	r3, r3, #8
 535 0034 1343     		orr	r3, r2
 536 0036 2380     		strh	r3, [r4]
 537              	.L126:
  85:.\20648_driver\drivers/inv_mems_mpu_fifo_control.c **** 
 538              		.loc 1 85 0
 539              		@ sp needed
 540              	.LVL50:
 541 0038 3EBD     		pop	{r1, r2, r3, r4, r5, pc}
 542              		.cfi_endproc
 543              	.LFE5:
 544              		.size	inv_identify_interrupt, .-inv_identify_interrupt
 545              		.section	.text.dmp_get_fifo_length,"ax",%progbits
 546              		.align	1
 547              		.global	dmp_get_fifo_length
 548              		.code	16
 549              		.thumb_func
 550              		.type	dmp_get_fifo_length, %function
 551              	dmp_get_fifo_length:
 552              	.LFB6:
  97:.\20648_driver\drivers/inv_mems_mpu_fifo_control.c **** 	unsigned char fifoBuf[2];
 553              		.loc 1 97 0
 554              		.cfi_startproc
 555              	.LVL51:
 556 0000 08B5     		push	{r3, lr}
 557              		.cfi_def_cfa_offset 8
 558              		.cfi_offset 3, -8
 559              		.cfi_offset 14, -4
  97:.\20648_driver\drivers/inv_mems_mpu_fifo_control.c **** 	unsigned char fifoBuf[2];
 560              		.loc 1 97 0
 561 0002 031C     		mov	r3, r0
 102:.\20648_driver\drivers/inv_mems_mpu_fifo_control.c ****     
 562              		.loc 1 102 0
 563 0004 1620     		mov	r0, #22
 564              	.LVL52:
 101:.\20648_driver\drivers/inv_mems_mpu_fifo_control.c **** 		return INV_ERROR_INVALID_PARAMETER;
 565              		.loc 1 101 0
 566 0006 002B     		cmp	r3, #0
 567 0008 02D0     		beq	.L137
 568 000a 181C     		mov	r0, r3
 569 000c FFF7FEFF 		bl	dmp_get_fifo_length.part.0
 570              	.LVL53:
 571              	.L137:
 118:.\20648_driver\drivers/inv_mems_mpu_fifo_control.c **** 
 572              		.loc 1 118 0
 573              		@ sp needed
 574 0010 08BD     		pop	{r3, pc}
 575              		.cfi_endproc
 576              	.LFE6:
 577              		.size	dmp_get_fifo_length, .-dmp_get_fifo_length
 578              		.section	.text.dmp_reset_fifo,"ax",%progbits
 579              		.align	1
 580              		.global	dmp_reset_fifo
 581              		.code	16
 582              		.thumb_func
ARM GAS  C:\Users\ADMINI~1\AppData\Local\Temp\ccRFd3Cg.s 			page 20


 583              		.type	dmp_reset_fifo, %function
 584              	dmp_reset_fifo:
 585              	.LFB7:
 128:.\20648_driver\drivers/inv_mems_mpu_fifo_control.c ****     uint_fast16_t len = HARDWARE_FIFO_SIZE;
 586              		.loc 1 128 0
 587              		.cfi_startproc
 129:.\20648_driver\drivers/inv_mems_mpu_fifo_control.c **** 	unsigned char tries = 0;
 588              		.loc 1 129 0
 589 0000 8023     		mov	r3, #128
 128:.\20648_driver\drivers/inv_mems_mpu_fifo_control.c ****     uint_fast16_t len = HARDWARE_FIFO_SIZE;
 590              		.loc 1 128 0
 591 0002 37B5     		push	{r0, r1, r2, r4, r5, lr}
 592              		.cfi_def_cfa_offset 24
 593              		.cfi_offset 0, -24
 594              		.cfi_offset 1, -20
 595              		.cfi_offset 2, -16
 596              		.cfi_offset 4, -12
 597              		.cfi_offset 5, -8
 598              		.cfi_offset 14, -4
 133:.\20648_driver\drivers/inv_mems_mpu_fifo_control.c **** 	{ 
 599              		.loc 1 133 0
 600 0004 0724     		mov	r4, #7
 129:.\20648_driver\drivers/inv_mems_mpu_fifo_control.c **** 	unsigned char tries = 0;
 601              		.loc 1 129 0
 602 0006 DB00     		lsl	r3, r3, #3
 603 0008 0193     		str	r3, [sp, #4]
 604              	.LVL54:
 605              	.L141:
 606 000a 144A     		ldr	r2, .L149
 133:.\20648_driver\drivers/inv_mems_mpu_fifo_control.c **** 	{ 
 607              		.loc 1 133 0
 608 000c 019B     		ldr	r3, [sp, #4]
 136:.\20648_driver\drivers/inv_mems_mpu_fifo_control.c **** 		result |= inv_write_single_mems_reg(REG_USER_CTRL, base_state.user_ctrl);
 609              		.loc 1 136 0
 610 000e D178     		ldrb	r1, [r2, #3]
 133:.\20648_driver\drivers/inv_mems_mpu_fifo_control.c **** 	{ 
 611              		.loc 1 133 0
 612 0010 002B     		cmp	r3, #0
 613 0012 1BD0     		beq	.L143
 614 0014 013C     		sub	r4, r4, #1
 615              	.LVL55:
 616 0016 E4B2     		uxtb	r4, r4
 133:.\20648_driver\drivers/inv_mems_mpu_fifo_control.c **** 	{ 
 617              		.loc 1 133 0 is_stmt 0 discriminator 1
 618 0018 002C     		cmp	r4, #0
 619 001a 17D0     		beq	.L143
 620              	.LVL56:
 136:.\20648_driver\drivers/inv_mems_mpu_fifo_control.c **** 		result |= inv_write_single_mems_reg(REG_USER_CTRL, base_state.user_ctrl);
 621              		.loc 1 136 0 is_stmt 1
 622 001c 3F23     		mov	r3, #63
 137:.\20648_driver\drivers/inv_mems_mpu_fifo_control.c ****                 
 623              		.loc 1 137 0
 624 001e 0320     		mov	r0, #3
 136:.\20648_driver\drivers/inv_mems_mpu_fifo_control.c **** 		result |= inv_write_single_mems_reg(REG_USER_CTRL, base_state.user_ctrl);
 625              		.loc 1 136 0
 626 0020 1940     		and	r1, r3
 627 0022 D170     		strb	r1, [r2, #3]
ARM GAS  C:\Users\ADMINI~1\AppData\Local\Temp\ccRFd3Cg.s 			page 21


 137:.\20648_driver\drivers/inv_mems_mpu_fifo_control.c ****                 
 628              		.loc 1 137 0
 629 0024 FFF7FEFF 		bl	inv_write_single_mems_reg
 630              	.LVL57:
 631 0028 051C     		mov	r5, r0
 632              	.LVL58:
 140:.\20648_driver\drivers/inv_mems_mpu_fifo_control.c **** 		result |= mpu_set_FIFO_RST_Diamond(0x1e);
 633              		.loc 1 140 0
 634 002a 1F20     		mov	r0, #31
 635              	.LVL59:
 636 002c FFF7FEFF 		bl	mpu_set_FIFO_RST_Diamond
 637              	.LVL60:
 638 0030 0543     		orr	r5, r0
 639              	.LVL61:
 141:.\20648_driver\drivers/inv_mems_mpu_fifo_control.c **** #else
 640              		.loc 1 141 0
 641 0032 1E20     		mov	r0, #30
 642 0034 FFF7FEFF 		bl	mpu_set_FIFO_RST_Diamond
 643              	.LVL62:
 150:.\20648_driver\drivers/inv_mems_mpu_fifo_control.c ****         
 644              		.loc 1 150 0
 645 0038 0022     		mov	r2, #0
 646 003a 094B     		ldr	r3, .L149+4
 141:.\20648_driver\drivers/inv_mems_mpu_fifo_control.c **** #else
 647              		.loc 1 141 0
 648 003c 0543     		orr	r5, r0
 649              	.LVL63:
 650              	.LBB4:
 651              	.LBB5:
 652 003e 01A8     		add	r0, sp, #4
 653              	.LBE5:
 654              	.LBE4:
 150:.\20648_driver\drivers/inv_mems_mpu_fifo_control.c ****         
 655              		.loc 1 150 0
 656 0040 1A71     		strb	r2, [r3, #4]
 657              	.LVL64:
 658              	.LBB7:
 659              	.LBB6:
 660 0042 FFF7FEFF 		bl	dmp_get_fifo_length.part.0
 661              	.LVL65:
 662              	.LBE6:
 663              	.LBE7:
 152:.\20648_driver\drivers/inv_mems_mpu_fifo_control.c **** 		if (result) 
 664              		.loc 1 152 0
 665 0046 2843     		orr	r0, r5
 666              	.LVL66:
 153:.\20648_driver\drivers/inv_mems_mpu_fifo_control.c **** 			return result;
 667              		.loc 1 153 0
 668 0048 DFD0     		beq	.L141
 669 004a 05E0     		b	.L142
 670              	.LVL67:
 671              	.L143:
 160:.\20648_driver\drivers/inv_mems_mpu_fifo_control.c **** 	result |= inv_write_single_mems_reg(REG_USER_CTRL, base_state.user_ctrl);
 672              		.loc 1 160 0
 673 004c C023     		mov	r3, #192
 161:.\20648_driver\drivers/inv_mems_mpu_fifo_control.c ****     
 674              		.loc 1 161 0
ARM GAS  C:\Users\ADMINI~1\AppData\Local\Temp\ccRFd3Cg.s 			page 22


 675 004e 0320     		mov	r0, #3
 160:.\20648_driver\drivers/inv_mems_mpu_fifo_control.c **** 	result |= inv_write_single_mems_reg(REG_USER_CTRL, base_state.user_ctrl);
 676              		.loc 1 160 0
 677 0050 1943     		orr	r1, r3
 678 0052 D170     		strb	r1, [r2, #3]
 161:.\20648_driver\drivers/inv_mems_mpu_fifo_control.c ****     
 679              		.loc 1 161 0
 680 0054 FFF7FEFF 		bl	inv_write_single_mems_reg
 681              	.LVL68:
 682              	.L142:
 164:.\20648_driver\drivers/inv_mems_mpu_fifo_control.c **** 
 683              		.loc 1 164 0
 684              		@ sp needed
 685 0058 3EBD     		pop	{r1, r2, r3, r4, r5, pc}
 686              	.L150:
 687 005a C046     		.align	2
 688              	.L149:
 689 005c 00000000 		.word	base_state
 690 0060 00000000 		.word	.LANCHOR0
 691              		.cfi_endproc
 692              	.LFE7:
 693              		.size	dmp_reset_fifo, .-dmp_reset_fifo
 694              		.section	.text.dmp_read_fifo,"ax",%progbits
 695              		.align	1
 696              		.global	dmp_read_fifo
 697              		.code	16
 698              		.thumb_func
 699              		.type	dmp_read_fifo, %function
 700              	dmp_read_fifo:
 701              	.LFB8:
 176:.\20648_driver\drivers/inv_mems_mpu_fifo_control.c **** 	inv_error_t result;
 702              		.loc 1 176 0
 703              		.cfi_startproc
 704              	.LVL69:
 705 0000 F7B5     		push	{r0, r1, r2, r4, r5, r6, r7, lr}
 706              		.cfi_def_cfa_offset 32
 707              		.cfi_offset 0, -32
 708              		.cfi_offset 1, -28
 709              		.cfi_offset 2, -24
 710              		.cfi_offset 4, -20
 711              		.cfi_offset 5, -16
 712              		.cfi_offset 6, -12
 713              		.cfi_offset 7, -8
 714              		.cfi_offset 14, -4
 176:.\20648_driver\drivers/inv_mems_mpu_fifo_control.c **** 	inv_error_t result;
 715              		.loc 1 176 0
 716 0002 0F1C     		mov	r7, r1
 178:.\20648_driver\drivers/inv_mems_mpu_fifo_control.c **** 
 717              		.loc 1 178 0
 718 0004 0024     		mov	r4, #0
 176:.\20648_driver\drivers/inv_mems_mpu_fifo_control.c **** 	inv_error_t result;
 719              		.loc 1 176 0
 720 0006 0190     		str	r0, [sp, #4]
 721              	.LVL70:
 722              	.L152:
 180:.\20648_driver\drivers/inv_mems_mpu_fifo_control.c ****     {
 723              		.loc 1 180 0
ARM GAS  C:\Users\ADMINI~1\AppData\Local\Temp\ccRFd3Cg.s 			page 23


 724 0008 BC42     		cmp	r4, r7
 725 000a 13D2     		bcs	.L157
 726              	.LBB8:
 182:.\20648_driver\drivers/inv_mems_mpu_fifo_control.c ****         
 727              		.loc 1 182 0
 728 000c 3D1B     		sub	r5, r7, r4
 729 000e 102D     		cmp	r5, #16
 730 0010 00D9     		bls	.L153
 731 0012 1025     		mov	r5, #16
 732              	.L153:
 733              	.LVL71:
 184:.\20648_driver\drivers/inv_mems_mpu_fifo_control.c ****         if (result)
 734              		.loc 1 184 0
 735 0014 019B     		ldr	r3, [sp, #4]
 736 0016 7220     		mov	r0, #114
 737 0018 1A19     		add	r2, r3, r4
 738 001a 291C     		mov	r1, r5
 739 001c FFF7FEFF 		bl	inv_read_mems_reg
 740              	.LVL72:
 741 0020 061E     		sub	r6, r0, #0
 742              	.LVL73:
 185:.\20648_driver\drivers/inv_mems_mpu_fifo_control.c **** 		{
 743              		.loc 1 185 0
 744 0022 05D0     		beq	.L154
 187:.\20648_driver\drivers/inv_mems_mpu_fifo_control.c **** 			fifo_info.fifoError = INV_ERROR_FIFO_READ_DATA;
 745              		.loc 1 187 0
 746 0024 FFF7FEFF 		bl	dmp_reset_fifo
 747              	.LVL74:
 188:.\20648_driver\drivers/inv_mems_mpu_fifo_control.c **** 			return result;
 748              		.loc 1 188 0
 749 0028 4122     		mov	r2, #65
 750 002a 044B     		ldr	r3, .L158
 751 002c 1A60     		str	r2, [r3]
 189:.\20648_driver\drivers/inv_mems_mpu_fifo_control.c **** 		}
 752              		.loc 1 189 0
 753 002e 02E0     		b	.L155
 754              	.LVL75:
 755              	.L154:
 192:.\20648_driver\drivers/inv_mems_mpu_fifo_control.c ****     }
 756              		.loc 1 192 0
 757 0030 6419     		add	r4, r4, r5
 758              	.LVL76:
 759 0032 E9E7     		b	.L152
 760              	.LVL77:
 761              	.L157:
 762              	.LBE8:
 195:.\20648_driver\drivers/inv_mems_mpu_fifo_control.c **** }
 763              		.loc 1 195 0
 764 0034 0026     		mov	r6, #0
 765              	.LVL78:
 766              	.L155:
 196:.\20648_driver\drivers/inv_mems_mpu_fifo_control.c **** 
 767              		.loc 1 196 0
 768 0036 301C     		mov	r0, r6
 769              		@ sp needed
 770              	.LVL79:
 771              	.LVL80:
ARM GAS  C:\Users\ADMINI~1\AppData\Local\Temp\ccRFd3Cg.s 			page 24


 772 0038 FEBD     		pop	{r1, r2, r3, r4, r5, r6, r7, pc}
 773              	.L159:
 774 003a C046     		.align	2
 775              	.L158:
 776 003c 00000000 		.word	.LANCHOR0
 777              		.cfi_endproc
 778              	.LFE8:
 779              		.size	dmp_read_fifo, .-dmp_read_fifo
 780              		.section	.text.dmp_get_fifo_all,"ax",%progbits
 781              		.align	1
 782              		.code	16
 783              		.thumb_func
 784              		.type	dmp_get_fifo_all, %function
 785              	dmp_get_fifo_all:
 786              	.LFB9:
 208:.\20648_driver\drivers/inv_mems_mpu_fifo_control.c **** 	inv_error_t result;
 787              		.loc 1 208 0
 788              		.cfi_startproc
 789              	.LVL81:
 790 0000 F7B5     		push	{r0, r1, r2, r4, r5, r6, r7, lr}
 791              		.cfi_def_cfa_offset 32
 792              		.cfi_offset 0, -32
 793              		.cfi_offset 1, -28
 794              		.cfi_offset 2, -24
 795              		.cfi_offset 4, -20
 796              		.cfi_offset 5, -16
 797              		.cfi_offset 6, -12
 798              		.cfi_offset 7, -8
 799              		.cfi_offset 14, -4
 208:.\20648_driver\drivers/inv_mems_mpu_fifo_control.c **** 	inv_error_t result;
 800              		.loc 1 208 0
 801 0002 071C     		mov	r7, r0
 802 0004 0E1C     		mov	r6, r1
 803 0006 151E     		sub	r5, r2, #0
 212:.\20648_driver\drivers/inv_mems_mpu_fifo_control.c **** 		*reset = 0;
 804              		.loc 1 212 0
 805 0008 01D0     		beq	.L161
 213:.\20648_driver\drivers/inv_mems_mpu_fifo_control.c ****    
 806              		.loc 1 213 0
 807 000a 0023     		mov	r3, #0
 808 000c 1360     		str	r3, [r2]
 809              	.L161:
 810              	.LVL82:
 811              	.LBB13:
 812              	.LBB14:
 813 000e 01A8     		add	r0, sp, #4
 814              	.LVL83:
 815 0010 FFF7FEFF 		bl	dmp_get_fifo_length.part.0
 816              	.LVL84:
 817 0014 041E     		sub	r4, r0, #0
 818              	.LBE14:
 819              	.LBE13:
 216:.\20648_driver\drivers/inv_mems_mpu_fifo_control.c **** 		fifo_info.fifoError = result;
 820              		.loc 1 216 0
 821 0016 02D0     		beq	.L162
 217:.\20648_driver\drivers/inv_mems_mpu_fifo_control.c **** 		return 0;
 822              		.loc 1 217 0
ARM GAS  C:\Users\ADMINI~1\AppData\Local\Temp\ccRFd3Cg.s 			page 25


 823 0018 0F4B     		ldr	r3, .L176
 824 001a 1860     		str	r0, [r3]
 825 001c 02E0     		b	.L166
 826              	.L162:
 222:.\20648_driver\drivers/inv_mems_mpu_fifo_control.c **** 		return 0;
 827              		.loc 1 222 0
 828 001e 0199     		ldr	r1, [sp, #4]
 829 0020 0029     		cmp	r1, #0
 830 0022 01D1     		bne	.L164
 831              	.L166:
 223:.\20648_driver\drivers/inv_mems_mpu_fifo_control.c ****     
 832              		.loc 1 223 0
 833 0024 0023     		mov	r3, #0
 834 0026 14E0     		b	.L163
 835              	.L164:
 226:.\20648_driver\drivers/inv_mems_mpu_fifo_control.c **** 		dmp_reset_fifo();
 836              		.loc 1 226 0
 837 0028 B942     		cmp	r1, r7
 838 002a 09D9     		bls	.L165
 839              	.LVL85:
 840              	.LBB15:
 841              	.LBB16:
 227:.\20648_driver\drivers/inv_mems_mpu_fifo_control.c **** 		fifo_info.fifoError = INV_ERROR_FIFO_OVERFLOW;
 842              		.loc 1 227 0
 843 002c FFF7FEFF 		bl	dmp_reset_fifo
 844              	.LVL86:
 228:.\20648_driver\drivers/inv_mems_mpu_fifo_control.c **** 		if(reset)
 845              		.loc 1 228 0
 846 0030 3E22     		mov	r2, #62
 847 0032 094B     		ldr	r3, .L176
 848 0034 1A60     		str	r2, [r3]
 229:.\20648_driver\drivers/inv_mems_mpu_fifo_control.c **** 			*reset = 1;
 849              		.loc 1 229 0
 850 0036 002D     		cmp	r5, #0
 851 0038 F4D0     		beq	.L166
 230:.\20648_driver\drivers/inv_mems_mpu_fifo_control.c **** 		return 0;
 852              		.loc 1 230 0
 853 003a 0123     		mov	r3, #1
 854 003c 2B60     		str	r3, [r5]
 855 003e 07E0     		b	.L175
 856              	.LVL87:
 857              	.L165:
 858              	.LBE16:
 859              	.LBE15:
 234:.\20648_driver\drivers/inv_mems_mpu_fifo_control.c **** 	if (result) {
 860              		.loc 1 234 0
 861 0040 301C     		mov	r0, r6
 862 0042 FFF7FEFF 		bl	dmp_read_fifo
 863              	.LVL88:
 239:.\20648_driver\drivers/inv_mems_mpu_fifo_control.c **** }
 864              		.loc 1 239 0
 865 0046 019B     		ldr	r3, [sp, #4]
 235:.\20648_driver\drivers/inv_mems_mpu_fifo_control.c **** 		fifo_info.fifoError = result;
 866              		.loc 1 235 0
 867 0048 0028     		cmp	r0, #0
 868 004a 02D0     		beq	.L163
 236:.\20648_driver\drivers/inv_mems_mpu_fifo_control.c **** 		return 0;
ARM GAS  C:\Users\ADMINI~1\AppData\Local\Temp\ccRFd3Cg.s 			page 26


 869              		.loc 1 236 0
 870 004c 024B     		ldr	r3, .L176
 871 004e 1860     		str	r0, [r3]
 872              	.LVL89:
 873              	.L175:
 237:.\20648_driver\drivers/inv_mems_mpu_fifo_control.c **** 	}
 874              		.loc 1 237 0
 875 0050 231C     		mov	r3, r4
 876              	.L163:
 240:.\20648_driver\drivers/inv_mems_mpu_fifo_control.c **** 
 877              		.loc 1 240 0
 878 0052 181C     		mov	r0, r3
 879              		@ sp needed
 880              	.LVL90:
 881              	.LVL91:
 882              	.LVL92:
 883 0054 FEBD     		pop	{r1, r2, r3, r4, r5, r6, r7, pc}
 884              	.L177:
 885 0056 C046     		.align	2
 886              	.L176:
 887 0058 00000000 		.word	.LANCHOR0
 888              		.cfi_endproc
 889              	.LFE9:
 890              		.size	dmp_get_fifo_all, .-dmp_get_fifo_all
 891              		.section	.text.inv_mems_fifo_swmirror,"ax",%progbits
 892              		.align	1
 893              		.global	inv_mems_fifo_swmirror
 894              		.code	16
 895              		.thumb_func
 896              		.type	inv_mems_fifo_swmirror, %function
 897              	inv_mems_fifo_swmirror:
 898              	.LFB13:
 456:.\20648_driver\drivers/inv_mems_mpu_fifo_control.c **** 
 457:.\20648_driver\drivers/inv_mems_mpu_fifo_control.c **** /** Software FIFO, mirror of DMP HW FIFO, hence of max HARDWARE_FIFO_SIZE */
 458:.\20648_driver\drivers/inv_mems_mpu_fifo_control.c **** static unsigned char fifo_data[HARDWARE_FIFO_SIZE];
 459:.\20648_driver\drivers/inv_mems_mpu_fifo_control.c ****     
 460:.\20648_driver\drivers/inv_mems_mpu_fifo_control.c **** /** Determine number of samples present in SW FIFO fifo_data containing fifo_size bytes to be analy
 461:.\20648_driver\drivers/inv_mems_mpu_fifo_control.c **** * of samples filled in total_sample_cnt, number of samples per sensor filled in sample_cnt_array ar
 462:.\20648_driver\drivers/inv_mems_mpu_fifo_control.c **** */
 463:.\20648_driver\drivers/inv_mems_mpu_fifo_control.c **** static int extract_sample_cnt(int fifo_size, unsigned short * total_sample_cnt, unsigned short * sa
 464:.\20648_driver\drivers/inv_mems_mpu_fifo_control.c **** {
 465:.\20648_driver\drivers/inv_mems_mpu_fifo_control.c **** 	// Next SW FIFO index to be parsed
 466:.\20648_driver\drivers/inv_mems_mpu_fifo_control.c **** 	int fifo_idx = 0;
 467:.\20648_driver\drivers/inv_mems_mpu_fifo_control.c **** 	
 468:.\20648_driver\drivers/inv_mems_mpu_fifo_control.c **** 	while (fifo_idx < fifo_size) {
 469:.\20648_driver\drivers/inv_mems_mpu_fifo_control.c **** 		unsigned short header;
 470:.\20648_driver\drivers/inv_mems_mpu_fifo_control.c **** 		unsigned short header2;
 471:.\20648_driver\drivers/inv_mems_mpu_fifo_control.c **** 		int need_sz = get_packet_size_and_samplecnt(&fifo_data[fifo_idx], &header, &header2, sample_cnt_a
 472:.\20648_driver\drivers/inv_mems_mpu_fifo_control.c **** 		
 473:.\20648_driver\drivers/inv_mems_mpu_fifo_control.c **** 		// Guarantee there is a full packet before continuing to decode the FIFO packet
 474:.\20648_driver\drivers/inv_mems_mpu_fifo_control.c **** 		if (fifo_size-fifo_idx < need_sz)
 475:.\20648_driver\drivers/inv_mems_mpu_fifo_control.c **** 			goto endSuccess;
 476:.\20648_driver\drivers/inv_mems_mpu_fifo_control.c **** 		
 477:.\20648_driver\drivers/inv_mems_mpu_fifo_control.c **** 		// Decode any error
 478:.\20648_driver\drivers/inv_mems_mpu_fifo_control.c **** 		if (check_fifo_decoded_headers(header, header2)) {
 479:.\20648_driver\drivers/inv_mems_mpu_fifo_control.c **** 			// in that case, stop processing, we might have overflowed so following bytes are non sense
 480:.\20648_driver\drivers/inv_mems_mpu_fifo_control.c **** 			dmp_reset_fifo();
ARM GAS  C:\Users\ADMINI~1\AppData\Local\Temp\ccRFd3Cg.s 			page 27


 481:.\20648_driver\drivers/inv_mems_mpu_fifo_control.c **** 			return -1;
 482:.\20648_driver\drivers/inv_mems_mpu_fifo_control.c **** 		}
 483:.\20648_driver\drivers/inv_mems_mpu_fifo_control.c **** 		
 484:.\20648_driver\drivers/inv_mems_mpu_fifo_control.c **** 		fifo_idx += need_sz;
 485:.\20648_driver\drivers/inv_mems_mpu_fifo_control.c **** 		
 486:.\20648_driver\drivers/inv_mems_mpu_fifo_control.c **** 		// One sample found, increment total sample counter
 487:.\20648_driver\drivers/inv_mems_mpu_fifo_control.c **** 		(*total_sample_cnt)++;
 488:.\20648_driver\drivers/inv_mems_mpu_fifo_control.c **** 	}
 489:.\20648_driver\drivers/inv_mems_mpu_fifo_control.c **** 
 490:.\20648_driver\drivers/inv_mems_mpu_fifo_control.c **** endSuccess:
 491:.\20648_driver\drivers/inv_mems_mpu_fifo_control.c **** #if defined MEMS_AUGMENTED_SENSORS
 492:.\20648_driver\drivers/inv_mems_mpu_fifo_control.c **** 	// Augmented sensors are not part of DMP FIFO, they are computed by DMP driver based on GRV or RV 
 493:.\20648_driver\drivers/inv_mems_mpu_fifo_control.c **** 	// So their sample counts must rely on GRV and RV sample counts
 494:.\20648_driver\drivers/inv_mems_mpu_fifo_control.c **** 	if (sample_cnt_array) {
 495:.\20648_driver\drivers/inv_mems_mpu_fifo_control.c **** 		sample_cnt_array[ANDROID_SENSOR_GRAVITY] += sample_cnt_array[ANDROID_SENSOR_GAME_ROTATION_VECTOR]
 496:.\20648_driver\drivers/inv_mems_mpu_fifo_control.c **** 		sample_cnt_array[ANDROID_SENSOR_LINEAR_ACCELERATION] += sample_cnt_array[ANDROID_SENSOR_GAME_ROTA
 497:.\20648_driver\drivers/inv_mems_mpu_fifo_control.c **** 		sample_cnt_array[ANDROID_SENSOR_ORIENTATION] += sample_cnt_array[ANDROID_SENSOR_ROTATION_VECTOR];
 498:.\20648_driver\drivers/inv_mems_mpu_fifo_control.c **** 	}
 499:.\20648_driver\drivers/inv_mems_mpu_fifo_control.c **** #endif
 500:.\20648_driver\drivers/inv_mems_mpu_fifo_control.c **** 
 501:.\20648_driver\drivers/inv_mems_mpu_fifo_control.c **** 	return 0;
 502:.\20648_driver\drivers/inv_mems_mpu_fifo_control.c **** }
 503:.\20648_driver\drivers/inv_mems_mpu_fifo_control.c **** 
 504:.\20648_driver\drivers/inv_mems_mpu_fifo_control.c **** inv_error_t inv_mems_fifo_swmirror(int *fifo_sw_size, unsigned short * total_sample_cnt, unsigned s
 505:.\20648_driver\drivers/inv_mems_mpu_fifo_control.c **** {
 899              		.loc 1 505 0
 900              		.cfi_startproc
 901              	.LVL93:
 506:.\20648_driver\drivers/inv_mems_mpu_fifo_control.c **** 	int reset=0; 
 902              		.loc 1 506 0
 903 0000 0023     		mov	r3, #0
 505:.\20648_driver\drivers/inv_mems_mpu_fifo_control.c **** 	int reset=0; 
 904              		.loc 1 505 0
 905 0002 F0B5     		push	{r4, r5, r6, r7, lr}
 906              		.cfi_def_cfa_offset 20
 907              		.cfi_offset 4, -20
 908              		.cfi_offset 5, -16
 909              		.cfi_offset 6, -12
 910              		.cfi_offset 7, -8
 911              		.cfi_offset 14, -4
 912 0004 85B0     		sub	sp, sp, #20
 913              		.cfi_def_cfa_offset 40
 505:.\20648_driver\drivers/inv_mems_mpu_fifo_control.c **** 	int reset=0; 
 914              		.loc 1 505 0
 915 0006 0192     		str	r2, [sp, #4]
 916              		.loc 1 506 0
 917 0008 0393     		str	r3, [sp, #12]
 507:.\20648_driver\drivers/inv_mems_mpu_fifo_control.c **** 
 508:.\20648_driver\drivers/inv_mems_mpu_fifo_control.c **** 	*total_sample_cnt = 0;
 918              		.loc 1 508 0
 919 000a 0B80     		strh	r3, [r1]
 509:.\20648_driver\drivers/inv_mems_mpu_fifo_control.c **** 
 510:.\20648_driver\drivers/inv_mems_mpu_fifo_control.c **** 	// Mirror HW FIFO into local SW FIFO, taking into account remaining *fifo_sw_size bytes still pres
 511:.\20648_driver\drivers/inv_mems_mpu_fifo_control.c **** 	if (*fifo_sw_size < HARDWARE_FIFO_SIZE ) {
 920              		.loc 1 511 0
 921 000c 1F4A     		ldr	r2, .L189
 922              	.LVL94:
ARM GAS  C:\Users\ADMINI~1\AppData\Local\Temp\ccRFd3Cg.s 			page 28


 923 000e 0368     		ldr	r3, [r0]
 505:.\20648_driver\drivers/inv_mems_mpu_fifo_control.c **** 	int reset=0; 
 924              		.loc 1 505 0
 925 0010 041C     		mov	r4, r0
 926 0012 0E1C     		mov	r6, r1
 927              		.loc 1 511 0
 928 0014 9342     		cmp	r3, r2
 929 0016 03DD     		ble	.L179
 930              	.LVL95:
 931              	.L182:
 512:.\20648_driver\drivers/inv_mems_mpu_fifo_control.c **** 		*fifo_sw_size += dmp_get_fifo_all( (HARDWARE_FIFO_SIZE - *fifo_sw_size),&fifo_data[*fifo_sw_size]
 513:.\20648_driver\drivers/inv_mems_mpu_fifo_control.c **** 
 514:.\20648_driver\drivers/inv_mems_mpu_fifo_control.c **** 		if (reset)
 515:.\20648_driver\drivers/inv_mems_mpu_fifo_control.c **** 			goto error;
 516:.\20648_driver\drivers/inv_mems_mpu_fifo_control.c **** 	}
 517:.\20648_driver\drivers/inv_mems_mpu_fifo_control.c **** 
 518:.\20648_driver\drivers/inv_mems_mpu_fifo_control.c **** 	// SW FIFO is mirror, we can now parse it to extract total number of samples and number of samples
 519:.\20648_driver\drivers/inv_mems_mpu_fifo_control.c **** 	if (extract_sample_cnt(*fifo_sw_size, total_sample_cnt, sample_cnt_array))
 932              		.loc 1 519 0
 933 0018 2368     		ldr	r3, [r4]
 934              	.LBB20:
 935              	.LBB21:
 466:.\20648_driver\drivers/inv_mems_mpu_fifo_control.c **** 	
 936              		.loc 1 466 0
 937 001a 0025     		mov	r5, #0
 938              	.LBE21:
 939              	.LBE20:
 940              		.loc 1 519 0
 941 001c 0093     		str	r3, [sp]
 942              	.LVL96:
 943 001e 13E0     		b	.L180
 944              	.LVL97:
 945              	.L179:
 512:.\20648_driver\drivers/inv_mems_mpu_fifo_control.c **** 		*fifo_sw_size += dmp_get_fifo_all( (HARDWARE_FIFO_SIZE - *fifo_sw_size),&fifo_data[*fifo_sw_size]
 946              		.loc 1 512 0
 947 0020 8020     		mov	r0, #128
 948              	.LVL98:
 949 0022 1B49     		ldr	r1, .L189+4
 950              	.LVL99:
 951 0024 C000     		lsl	r0, r0, #3
 952 0026 0831     		add	r1, r1, #8
 953 0028 C01A     		sub	r0, r0, r3
 954 002a C918     		add	r1, r1, r3
 955 002c 03AA     		add	r2, sp, #12
 956 002e FFF7FEFF 		bl	dmp_get_fifo_all
 957              	.LVL100:
 958 0032 2368     		ldr	r3, [r4]
 959 0034 1818     		add	r0, r3, r0
 514:.\20648_driver\drivers/inv_mems_mpu_fifo_control.c **** 			goto error;
 960              		.loc 1 514 0
 961 0036 039B     		ldr	r3, [sp, #12]
 512:.\20648_driver\drivers/inv_mems_mpu_fifo_control.c **** 		*fifo_sw_size += dmp_get_fifo_all( (HARDWARE_FIFO_SIZE - *fifo_sw_size),&fifo_data[*fifo_sw_size]
 962              		.loc 1 512 0
 963 0038 2060     		str	r0, [r4]
 514:.\20648_driver\drivers/inv_mems_mpu_fifo_control.c **** 			goto error;
 964              		.loc 1 514 0
 965 003a 002B     		cmp	r3, #0
ARM GAS  C:\Users\ADMINI~1\AppData\Local\Temp\ccRFd3Cg.s 			page 29


 966 003c ECD0     		beq	.L182
 967 003e 1CE0     		b	.L181
 968              	.LVL101:
 969              	.L184:
 970              	.LBB25:
 971              	.LBB24:
 972              	.LBB22:
 487:.\20648_driver\drivers/inv_mems_mpu_fifo_control.c **** 	}
 973              		.loc 1 487 0
 974 0040 3388     		ldrh	r3, [r6]
 484:.\20648_driver\drivers/inv_mems_mpu_fifo_control.c **** 		
 975              		.loc 1 484 0
 976 0042 ED19     		add	r5, r5, r7
 977              	.LVL102:
 487:.\20648_driver\drivers/inv_mems_mpu_fifo_control.c **** 	}
 978              		.loc 1 487 0
 979 0044 0133     		add	r3, r3, #1
 980 0046 3380     		strh	r3, [r6]
 981              	.LVL103:
 982              	.L180:
 983              	.LBE22:
 468:.\20648_driver\drivers/inv_mems_mpu_fifo_control.c **** 		unsigned short header;
 984              		.loc 1 468 0
 985 0048 009B     		ldr	r3, [sp]
 986 004a 9D42     		cmp	r5, r3
 987 004c 1ADA     		bge	.L185
 988              	.LBB23:
 471:.\20648_driver\drivers/inv_mems_mpu_fifo_control.c **** 		
 989              		.loc 1 471 0
 990 004e 1048     		ldr	r0, .L189+4
 991 0050 02A9     		add	r1, sp, #8
 992 0052 0830     		add	r0, r0, #8
 993 0054 019B     		ldr	r3, [sp, #4]
 994 0056 4019     		add	r0, r0, r5
 995 0058 8A1C     		add	r2, r1, #2
 996 005a FFF7FEFF 		bl	get_packet_size_and_samplecnt
 997              	.LVL104:
 474:.\20648_driver\drivers/inv_mems_mpu_fifo_control.c **** 			goto endSuccess;
 998              		.loc 1 474 0
 999 005e 009B     		ldr	r3, [sp]
 471:.\20648_driver\drivers/inv_mems_mpu_fifo_control.c **** 		
 1000              		.loc 1 471 0
 1001 0060 071C     		mov	r7, r0
 1002              	.LVL105:
 474:.\20648_driver\drivers/inv_mems_mpu_fifo_control.c **** 			goto endSuccess;
 1003              		.loc 1 474 0
 1004 0062 5B1B     		sub	r3, r3, r5
 1005 0064 8342     		cmp	r3, r0
 1006 0066 0DDB     		blt	.L185
 478:.\20648_driver\drivers/inv_mems_mpu_fifo_control.c **** 			// in that case, stop processing, we might have overflowed so following bytes are non sense
 1007              		.loc 1 478 0
 1008 0068 02AB     		add	r3, sp, #8
 1009 006a 1888     		ldrh	r0, [r3]
 1010              	.LVL106:
 1011 006c 5988     		ldrh	r1, [r3, #2]
 1012 006e FFF7FEFF 		bl	check_fifo_decoded_headers
 1013              	.LVL107:
ARM GAS  C:\Users\ADMINI~1\AppData\Local\Temp\ccRFd3Cg.s 			page 30


 1014 0072 0028     		cmp	r0, #0
 1015 0074 E4D0     		beq	.L184
 480:.\20648_driver\drivers/inv_mems_mpu_fifo_control.c **** 			return -1;
 1016              		.loc 1 480 0
 1017 0076 FFF7FEFF 		bl	dmp_reset_fifo
 1018              	.LVL108:
 1019              	.L181:
 1020              	.LBE23:
 1021              	.LBE24:
 1022              	.LBE25:
 520:.\20648_driver\drivers/inv_mems_mpu_fifo_control.c **** 			goto error;
 521:.\20648_driver\drivers/inv_mems_mpu_fifo_control.c **** 
 522:.\20648_driver\drivers/inv_mems_mpu_fifo_control.c **** 	return MPU_SUCCESS;
 523:.\20648_driver\drivers/inv_mems_mpu_fifo_control.c **** 	
 524:.\20648_driver\drivers/inv_mems_mpu_fifo_control.c **** error:
 525:.\20648_driver\drivers/inv_mems_mpu_fifo_control.c **** 	*fifo_sw_size = 0;
 1023              		.loc 1 525 0
 1024 007a 0023     		mov	r3, #0
 526:.\20648_driver\drivers/inv_mems_mpu_fifo_control.c **** 	return -1;
 1025              		.loc 1 526 0
 1026 007c 0120     		mov	r0, #1
 525:.\20648_driver\drivers/inv_mems_mpu_fifo_control.c **** 	return -1;
 1027              		.loc 1 525 0
 1028 007e 2360     		str	r3, [r4]
 1029              		.loc 1 526 0
 1030 0080 4042     		neg	r0, r0
 1031 0082 00E0     		b	.L188
 1032              	.LVL109:
 1033              	.L185:
 522:.\20648_driver\drivers/inv_mems_mpu_fifo_control.c **** 	
 1034              		.loc 1 522 0
 1035 0084 0020     		mov	r0, #0
 1036              	.LVL110:
 1037              	.L188:
 527:.\20648_driver\drivers/inv_mems_mpu_fifo_control.c **** 	
 528:.\20648_driver\drivers/inv_mems_mpu_fifo_control.c **** }
 1038              		.loc 1 528 0
 1039 0086 05B0     		add	sp, sp, #20
 1040              		@ sp needed
 1041              	.LVL111:
 1042              	.LVL112:
 1043 0088 F0BD     		pop	{r4, r5, r6, r7, pc}
 1044              	.L190:
 1045 008a C046     		.align	2
 1046              	.L189:
 1047 008c FF030000 		.word	1023
 1048 0090 00000000 		.word	.LANCHOR0
 1049              		.cfi_endproc
 1050              	.LFE13:
 1051              		.size	inv_mems_fifo_swmirror, .-inv_mems_fifo_swmirror
 1052              		.section	.text.inv_decode_3_32bit_elements,"ax",%progbits
 1053              		.align	1
 1054              		.global	inv_decode_3_32bit_elements
 1055              		.code	16
 1056              		.thumb_func
 1057              		.type	inv_decode_3_32bit_elements, %function
 1058              	inv_decode_3_32bit_elements:
ARM GAS  C:\Users\ADMINI~1\AppData\Local\Temp\ccRFd3Cg.s 			page 31


 1059              	.LFB16:
 529:.\20648_driver\drivers/inv_mems_mpu_fifo_control.c **** 
 530:.\20648_driver\drivers/inv_mems_mpu_fifo_control.c **** inv_error_t inv_mems_fifo_pop( unsigned short *user_header, unsigned short *user_header2, int *fifo
 531:.\20648_driver\drivers/inv_mems_mpu_fifo_control.c **** {
 532:.\20648_driver\drivers/inv_mems_mpu_fifo_control.c **** 	int need_sz=0; // size in bytes of packet to be analyzed from FIFO
 533:.\20648_driver\drivers/inv_mems_mpu_fifo_control.c **** 	unsigned char *fifo_ptr = fifo_data; // pointer to next byte in SW FIFO to be parsed
 534:.\20648_driver\drivers/inv_mems_mpu_fifo_control.c ****     
 535:.\20648_driver\drivers/inv_mems_mpu_fifo_control.c **** 	if (*fifo_sw_size > 3) {
 536:.\20648_driver\drivers/inv_mems_mpu_fifo_control.c **** 		// extract headers and number of bytes requested by next sample present in FIFO
 537:.\20648_driver\drivers/inv_mems_mpu_fifo_control.c **** 		need_sz = get_packet_size_and_samplecnt(fifo_data, &fd.header, &fd.header2, 0);
 538:.\20648_driver\drivers/inv_mems_mpu_fifo_control.c **** 
 539:.\20648_driver\drivers/inv_mems_mpu_fifo_control.c **** 		// Guarantee there is a full packet before continuing to decode the FIFO packet
 540:.\20648_driver\drivers/inv_mems_mpu_fifo_control.c **** 		if (*fifo_sw_size < need_sz) {
 541:.\20648_driver\drivers/inv_mems_mpu_fifo_control.c **** 		    return fifo_info.fifoError;
 542:.\20648_driver\drivers/inv_mems_mpu_fifo_control.c **** 		}
 543:.\20648_driver\drivers/inv_mems_mpu_fifo_control.c **** 
 544:.\20648_driver\drivers/inv_mems_mpu_fifo_control.c **** 		fifo_ptr += HEADER_SZ;        
 545:.\20648_driver\drivers/inv_mems_mpu_fifo_control.c **** 		if (fd.header & HEADER2_SET)
 546:.\20648_driver\drivers/inv_mems_mpu_fifo_control.c **** 			fifo_ptr += HEADER2_SZ;        
 547:.\20648_driver\drivers/inv_mems_mpu_fifo_control.c **** 
 548:.\20648_driver\drivers/inv_mems_mpu_fifo_control.c **** 		// extract payload data from SW FIFO
 549:.\20648_driver\drivers/inv_mems_mpu_fifo_control.c **** 		fifo_ptr += inv_decode_one_ivory_fifo_packet(&fd, fifo_ptr);        
 550:.\20648_driver\drivers/inv_mems_mpu_fifo_control.c **** 
 551:.\20648_driver\drivers/inv_mems_mpu_fifo_control.c **** 		// remove first need_sz bytes from SW FIFO
 552:.\20648_driver\drivers/inv_mems_mpu_fifo_control.c **** 		*fifo_sw_size -= need_sz;
 553:.\20648_driver\drivers/inv_mems_mpu_fifo_control.c **** 		if(*fifo_sw_size)
 554:.\20648_driver\drivers/inv_mems_mpu_fifo_control.c **** 			memmove(fifo_data, &fifo_data[need_sz], *fifo_sw_size);// Data left in FIFO
 555:.\20648_driver\drivers/inv_mems_mpu_fifo_control.c **** 
 556:.\20648_driver\drivers/inv_mems_mpu_fifo_control.c **** 		*user_header = fd.header;
 557:.\20648_driver\drivers/inv_mems_mpu_fifo_control.c **** 		*user_header2 = fd.header2;
 558:.\20648_driver\drivers/inv_mems_mpu_fifo_control.c **** 	}
 559:.\20648_driver\drivers/inv_mems_mpu_fifo_control.c **** 
 560:.\20648_driver\drivers/inv_mems_mpu_fifo_control.c **** 	return MPU_SUCCESS;
 561:.\20648_driver\drivers/inv_mems_mpu_fifo_control.c **** }
 562:.\20648_driver\drivers/inv_mems_mpu_fifo_control.c **** 
 563:.\20648_driver\drivers/inv_mems_mpu_fifo_control.c **** inv_error_t dmp_process_fifo( int *left_in_fifo, unsigned short *user_header, unsigned short *user_
 564:.\20648_driver\drivers/inv_mems_mpu_fifo_control.c **** {
 565:.\20648_driver\drivers/inv_mems_mpu_fifo_control.c ****     inv_error_t result = MPU_SUCCESS;
 566:.\20648_driver\drivers/inv_mems_mpu_fifo_control.c ****     int reset=0; 
 567:.\20648_driver\drivers/inv_mems_mpu_fifo_control.c ****     int need_sz=0;
 568:.\20648_driver\drivers/inv_mems_mpu_fifo_control.c ****     unsigned char *fifo_ptr = fifo_data;
 569:.\20648_driver\drivers/inv_mems_mpu_fifo_control.c **** 
 570:.\20648_driver\drivers/inv_mems_mpu_fifo_control.c ****     mpu_time_t ts=0;
 571:.\20648_driver\drivers/inv_mems_mpu_fifo_control.c **** 
 572:.\20648_driver\drivers/inv_mems_mpu_fifo_control.c ****     if(!left_in_fifo)
 573:.\20648_driver\drivers/inv_mems_mpu_fifo_control.c ****         return -1;
 574:.\20648_driver\drivers/inv_mems_mpu_fifo_control.c ****     
 575:.\20648_driver\drivers/inv_mems_mpu_fifo_control.c ****     if (*left_in_fifo < HARDWARE_FIFO_SIZE ) 
 576:.\20648_driver\drivers/inv_mems_mpu_fifo_control.c ****     {
 577:.\20648_driver\drivers/inv_mems_mpu_fifo_control.c ****         *left_in_fifo += dmp_get_fifo_all( (HARDWARE_FIFO_SIZE - *left_in_fifo),&fifo_data[*left_in
 578:.\20648_driver\drivers/inv_mems_mpu_fifo_control.c ****         //sprintf(test_str, "Left in FIFO: %d\r\n",*left_in_fifo);
 579:.\20648_driver\drivers/inv_mems_mpu_fifo_control.c ****         //print_command_console(test_str);
 580:.\20648_driver\drivers/inv_mems_mpu_fifo_control.c ****         if (reset) 
 581:.\20648_driver\drivers/inv_mems_mpu_fifo_control.c ****         {
 582:.\20648_driver\drivers/inv_mems_mpu_fifo_control.c ****             *left_in_fifo = 0;
 583:.\20648_driver\drivers/inv_mems_mpu_fifo_control.c ****             return -1;
 584:.\20648_driver\drivers/inv_mems_mpu_fifo_control.c ****         }
ARM GAS  C:\Users\ADMINI~1\AppData\Local\Temp\ccRFd3Cg.s 			page 32


 585:.\20648_driver\drivers/inv_mems_mpu_fifo_control.c ****     }
 586:.\20648_driver\drivers/inv_mems_mpu_fifo_control.c ****     
 587:.\20648_driver\drivers/inv_mems_mpu_fifo_control.c ****     if (*left_in_fifo > 3) {
 588:.\20648_driver\drivers/inv_mems_mpu_fifo_control.c **** 	// no need to extract number of sample per sensor for current function, so provide 0 as last param
 589:.\20648_driver\drivers/inv_mems_mpu_fifo_control.c ****         need_sz = get_packet_size_and_samplecnt(fifo_data, &fd.header, &fd.header2, 0);
 590:.\20648_driver\drivers/inv_mems_mpu_fifo_control.c ****         
 591:.\20648_driver\drivers/inv_mems_mpu_fifo_control.c ****         // Guarantee there is a full packet before continuing to decode the FIFO packet
 592:.\20648_driver\drivers/inv_mems_mpu_fifo_control.c ****         if (*left_in_fifo < need_sz) {
 593:.\20648_driver\drivers/inv_mems_mpu_fifo_control.c ****             result = fifo_info.fifoError;
 594:.\20648_driver\drivers/inv_mems_mpu_fifo_control.c ****             fifo_info.fifoError = 0;
 595:.\20648_driver\drivers/inv_mems_mpu_fifo_control.c ****             return result;
 596:.\20648_driver\drivers/inv_mems_mpu_fifo_control.c ****         }
 597:.\20648_driver\drivers/inv_mems_mpu_fifo_control.c **** 
 598:.\20648_driver\drivers/inv_mems_mpu_fifo_control.c ****         if(user_header)
 599:.\20648_driver\drivers/inv_mems_mpu_fifo_control.c ****             *user_header = fd.header;
 600:.\20648_driver\drivers/inv_mems_mpu_fifo_control.c ****         
 601:.\20648_driver\drivers/inv_mems_mpu_fifo_control.c ****         if(user_header2)
 602:.\20648_driver\drivers/inv_mems_mpu_fifo_control.c ****             *user_header2 = fd.header2;
 603:.\20648_driver\drivers/inv_mems_mpu_fifo_control.c ****         
 604:.\20648_driver\drivers/inv_mems_mpu_fifo_control.c ****         if (check_fifo_decoded_headers(fd.header, fd.header2)) { 
 605:.\20648_driver\drivers/inv_mems_mpu_fifo_control.c ****             // Decode error
 606:.\20648_driver\drivers/inv_mems_mpu_fifo_control.c ****             dmp_reset_fifo();
 607:.\20648_driver\drivers/inv_mems_mpu_fifo_control.c ****             *left_in_fifo = 0;
 608:.\20648_driver\drivers/inv_mems_mpu_fifo_control.c ****             return -1;
 609:.\20648_driver\drivers/inv_mems_mpu_fifo_control.c ****         }
 610:.\20648_driver\drivers/inv_mems_mpu_fifo_control.c ****         
 611:.\20648_driver\drivers/inv_mems_mpu_fifo_control.c ****         fifo_ptr += HEADER_SZ;
 612:.\20648_driver\drivers/inv_mems_mpu_fifo_control.c ****         
 613:.\20648_driver\drivers/inv_mems_mpu_fifo_control.c ****         if (fd.header & HEADER2_SET)
 614:.\20648_driver\drivers/inv_mems_mpu_fifo_control.c ****             fifo_ptr += HEADER2_SZ;        
 615:.\20648_driver\drivers/inv_mems_mpu_fifo_control.c ****         
 616:.\20648_driver\drivers/inv_mems_mpu_fifo_control.c ****         //time stamp 
 617:.\20648_driver\drivers/inv_mems_mpu_fifo_control.c ****         ts = inv_get_tick_count();
 618:.\20648_driver\drivers/inv_mems_mpu_fifo_control.c ****         
 619:.\20648_driver\drivers/inv_mems_mpu_fifo_control.c ****         fifo_ptr += inv_decode_one_ivory_fifo_packet(&fd, fifo_ptr);
 620:.\20648_driver\drivers/inv_mems_mpu_fifo_control.c **** 
 621:.\20648_driver\drivers/inv_mems_mpu_fifo_control.c ****         if(time_stamp)
 622:.\20648_driver\drivers/inv_mems_mpu_fifo_control.c ****             *time_stamp = ts;
 623:.\20648_driver\drivers/inv_mems_mpu_fifo_control.c ****         
 624:.\20648_driver\drivers/inv_mems_mpu_fifo_control.c ****         /* Parse the data in the fifo, in the order of the data control register, starting with the
 625:.\20648_driver\drivers/inv_mems_mpu_fifo_control.c ****         */
 626:.\20648_driver\drivers/inv_mems_mpu_fifo_control.c ****         
 627:.\20648_driver\drivers/inv_mems_mpu_fifo_control.c ****         
 628:.\20648_driver\drivers/inv_mems_mpu_fifo_control.c ****         *left_in_fifo -= need_sz;
 629:.\20648_driver\drivers/inv_mems_mpu_fifo_control.c ****         if (*left_in_fifo) 
 630:.\20648_driver\drivers/inv_mems_mpu_fifo_control.c ****             memmove(fifo_data, &fifo_data[need_sz], *left_in_fifo);// Data left in FIFO
 631:.\20648_driver\drivers/inv_mems_mpu_fifo_control.c ****     }
 632:.\20648_driver\drivers/inv_mems_mpu_fifo_control.c **** 
 633:.\20648_driver\drivers/inv_mems_mpu_fifo_control.c ****     return result;
 634:.\20648_driver\drivers/inv_mems_mpu_fifo_control.c **** }
 635:.\20648_driver\drivers/inv_mems_mpu_fifo_control.c **** 
 636:.\20648_driver\drivers/inv_mems_mpu_fifo_control.c **** void inv_decode_3_32bit_elements(long *out_data, const unsigned char *in_data)
 637:.\20648_driver\drivers/inv_mems_mpu_fifo_control.c **** {
 1060              		.loc 1 637 0
 1061              		.cfi_startproc
 1062              	.LVL113:
 638:.\20648_driver\drivers/inv_mems_mpu_fifo_control.c ****     out_data[0] = ((long)(0xff & in_data[0]) << 24) | ((long)(0xff & in_data[1]) << 16) | ((long)(0
ARM GAS  C:\Users\ADMINI~1\AppData\Local\Temp\ccRFd3Cg.s 			page 33


 1063              		.loc 1 638 0
 1064 0000 0B78     		ldrb	r3, [r1]
 639:.\20648_driver\drivers/inv_mems_mpu_fifo_control.c ****     out_data[1] = ((long)(0xff & in_data[4]) << 24) | ((long)(0xff & in_data[5]) << 16) | ((long)(0
 640:.\20648_driver\drivers/inv_mems_mpu_fifo_control.c ****     out_data[2] = ((long)(0xff & in_data[8]) << 24) | ((long)(0xff & in_data[9]) << 16) | ((long)(0
 641:.\20648_driver\drivers/inv_mems_mpu_fifo_control.c **** }
 1065              		.loc 1 641 0
 1066              		@ sp needed
 638:.\20648_driver\drivers/inv_mems_mpu_fifo_control.c ****     out_data[0] = ((long)(0xff & in_data[0]) << 24) | ((long)(0xff & in_data[1]) << 16) | ((long)(0
 1067              		.loc 1 638 0
 1068 0002 1A06     		lsl	r2, r3, #24
 1069 0004 4B78     		ldrb	r3, [r1, #1]
 1070 0006 1B04     		lsl	r3, r3, #16
 1071 0008 1343     		orr	r3, r2
 1072 000a CA78     		ldrb	r2, [r1, #3]
 1073 000c 1343     		orr	r3, r2
 1074 000e 8A78     		ldrb	r2, [r1, #2]
 1075 0010 1202     		lsl	r2, r2, #8
 1076 0012 1343     		orr	r3, r2
 1077 0014 0360     		str	r3, [r0]
 639:.\20648_driver\drivers/inv_mems_mpu_fifo_control.c ****     out_data[1] = ((long)(0xff & in_data[4]) << 24) | ((long)(0xff & in_data[5]) << 16) | ((long)(0
 1078              		.loc 1 639 0
 1079 0016 0B79     		ldrb	r3, [r1, #4]
 1080 0018 1A06     		lsl	r2, r3, #24
 1081 001a 4B79     		ldrb	r3, [r1, #5]
 1082 001c 1B04     		lsl	r3, r3, #16
 1083 001e 1343     		orr	r3, r2
 1084 0020 CA79     		ldrb	r2, [r1, #7]
 1085 0022 1343     		orr	r3, r2
 1086 0024 8A79     		ldrb	r2, [r1, #6]
 1087 0026 1202     		lsl	r2, r2, #8
 1088 0028 1343     		orr	r3, r2
 1089 002a 4360     		str	r3, [r0, #4]
 640:.\20648_driver\drivers/inv_mems_mpu_fifo_control.c **** }
 1090              		.loc 1 640 0
 1091 002c 0B7A     		ldrb	r3, [r1, #8]
 1092 002e 1A06     		lsl	r2, r3, #24
 1093 0030 4B7A     		ldrb	r3, [r1, #9]
 1094 0032 1B04     		lsl	r3, r3, #16
 1095 0034 1343     		orr	r3, r2
 1096 0036 CA7A     		ldrb	r2, [r1, #11]
 1097 0038 1343     		orr	r3, r2
 1098 003a 8A7A     		ldrb	r2, [r1, #10]
 1099 003c 1202     		lsl	r2, r2, #8
 1100 003e 1343     		orr	r3, r2
 1101 0040 8360     		str	r3, [r0, #8]
 1102              		.loc 1 641 0
 1103 0042 7047     		bx	lr
 1104              		.cfi_endproc
 1105              	.LFE16:
 1106              		.size	inv_decode_3_32bit_elements, .-inv_decode_3_32bit_elements
 1107              		.section	.text.inv_decode_3_16bit_elements,"ax",%progbits
 1108              		.align	1
 1109              		.global	inv_decode_3_16bit_elements
 1110              		.code	16
 1111              		.thumb_func
 1112              		.type	inv_decode_3_16bit_elements, %function
 1113              	inv_decode_3_16bit_elements:
ARM GAS  C:\Users\ADMINI~1\AppData\Local\Temp\ccRFd3Cg.s 			page 34


 1114              	.LFB17:
 642:.\20648_driver\drivers/inv_mems_mpu_fifo_control.c **** 
 643:.\20648_driver\drivers/inv_mems_mpu_fifo_control.c **** void inv_decode_3_16bit_elements(short *out_data, const unsigned char *in_data)
 644:.\20648_driver\drivers/inv_mems_mpu_fifo_control.c **** {
 1115              		.loc 1 644 0
 1116              		.cfi_startproc
 1117              	.LVL114:
 645:.\20648_driver\drivers/inv_mems_mpu_fifo_control.c ****     out_data[0] = ((short)(0xff & in_data[0]) << 8) | (0xff & in_data[1]);
 1118              		.loc 1 645 0
 1119 0000 0B78     		ldrb	r3, [r1]
 1120 0002 4A78     		ldrb	r2, [r1, #1]
 1121 0004 1B02     		lsl	r3, r3, #8
 1122 0006 1343     		orr	r3, r2
 1123 0008 0380     		strh	r3, [r0]
 646:.\20648_driver\drivers/inv_mems_mpu_fifo_control.c ****     out_data[1] = ((short)(0xff & in_data[2]) << 8) | (0xff & in_data[3]);
 1124              		.loc 1 646 0
 1125 000a 8B78     		ldrb	r3, [r1, #2]
 1126 000c CA78     		ldrb	r2, [r1, #3]
 1127 000e 1B02     		lsl	r3, r3, #8
 1128 0010 1343     		orr	r3, r2
 1129 0012 4380     		strh	r3, [r0, #2]
 647:.\20648_driver\drivers/inv_mems_mpu_fifo_control.c ****     out_data[2] = ((short)(0xff & in_data[4]) << 8) | (0xff & in_data[5]);
 1130              		.loc 1 647 0
 1131 0014 0B79     		ldrb	r3, [r1, #4]
 1132 0016 4A79     		ldrb	r2, [r1, #5]
 1133 0018 1B02     		lsl	r3, r3, #8
 1134 001a 1343     		orr	r3, r2
 1135 001c 8380     		strh	r3, [r0, #4]
 648:.\20648_driver\drivers/inv_mems_mpu_fifo_control.c **** }
 1136              		.loc 1 648 0
 1137              		@ sp needed
 1138 001e 7047     		bx	lr
 1139              		.cfi_endproc
 1140              	.LFE17:
 1141              		.size	inv_decode_3_16bit_elements, .-inv_decode_3_16bit_elements
 1142              		.section	.text.inv_decode_one_ivory_fifo_packet,"ax",%progbits
 1143              		.align	1
 1144              		.global	inv_decode_one_ivory_fifo_packet
 1145              		.code	16
 1146              		.thumb_func
 1147              		.type	inv_decode_one_ivory_fifo_packet, %function
 1148              	inv_decode_one_ivory_fifo_packet:
 1149              	.LFB18:
 649:.\20648_driver\drivers/inv_mems_mpu_fifo_control.c **** 
 650:.\20648_driver\drivers/inv_mems_mpu_fifo_control.c **** /** Decodes one packet of data from Ivory FIFO
 651:.\20648_driver\drivers/inv_mems_mpu_fifo_control.c **** * @param[in] fd Structure to be filled out with data. Assumes header and header2 are already set in
 652:.\20648_driver\drivers/inv_mems_mpu_fifo_control.c **** * @param[in] fifo_ptr FIFO data, points to just after any header information
 653:.\20648_driver\drivers/inv_mems_mpu_fifo_control.c **** * @return Returns the number of bytes consumed in FIFO data.
 654:.\20648_driver\drivers/inv_mems_mpu_fifo_control.c **** */
 655:.\20648_driver\drivers/inv_mems_mpu_fifo_control.c **** int inv_decode_one_ivory_fifo_packet(struct inv_fifo_decoded_t *fd, const unsigned char *fifo_ptr)
 656:.\20648_driver\drivers/inv_mems_mpu_fifo_control.c **** {
 1150              		.loc 1 656 0
 1151              		.cfi_startproc
 1152              	.LVL115:
 1153 0000 F8B5     		push	{r3, r4, r5, r6, r7, lr}
 1154              		.cfi_def_cfa_offset 24
 1155              		.cfi_offset 3, -24
ARM GAS  C:\Users\ADMINI~1\AppData\Local\Temp\ccRFd3Cg.s 			page 35


 1156              		.cfi_offset 4, -20
 1157              		.cfi_offset 5, -16
 1158              		.cfi_offset 6, -12
 1159              		.cfi_offset 7, -8
 1160              		.cfi_offset 14, -4
 657:.\20648_driver\drivers/inv_mems_mpu_fifo_control.c ****     const unsigned char *fifo_ptr_start = fifo_ptr;
 658:.\20648_driver\drivers/inv_mems_mpu_fifo_control.c **** #if (MEMS_CHIP == HW_ICM20648)     
 659:.\20648_driver\drivers/inv_mems_mpu_fifo_control.c **** 	short odr_cntr;
 660:.\20648_driver\drivers/inv_mems_mpu_fifo_control.c **** #endif
 661:.\20648_driver\drivers/inv_mems_mpu_fifo_control.c **** 
 662:.\20648_driver\drivers/inv_mems_mpu_fifo_control.c ****     if (fd->header & ACCEL_SET) {
 1161              		.loc 1 662 0
 1162 0002 071C     		mov	r7, r0
 1163 0004 9A37     		add	r7, r7, #154
 1164 0006 0022     		mov	r2, #0
 1165 0008 BB5E     		ldrsh	r3, [r7, r2]
 656:.\20648_driver\drivers/inv_mems_mpu_fifo_control.c ****     const unsigned char *fifo_ptr_start = fifo_ptr;
 1166              		.loc 1 656 0
 1167 000a 051C     		mov	r5, r0
 1168 000c 0E1C     		mov	r6, r1
 1169 000e 0C1C     		mov	r4, r1
 1170              		.loc 1 662 0
 1171 0010 002B     		cmp	r3, #0
 1172 0012 0FDA     		bge	.L194
 663:.\20648_driver\drivers/inv_mems_mpu_fifo_control.c ****         // do not cast data here, do that when you use it
 664:.\20648_driver\drivers/inv_mems_mpu_fifo_control.c **** #if (MEMS_CHIP == HW_ICM20630)
 665:.\20648_driver\drivers/inv_mems_mpu_fifo_control.c ****         inv_decode_3_16bit_elements(fd->accel_s, fifo_ptr);
 666:.\20648_driver\drivers/inv_mems_mpu_fifo_control.c ****         fd->accel[0] = fd->accel_s[0] << 15;
 667:.\20648_driver\drivers/inv_mems_mpu_fifo_control.c ****         fd->accel[1] = fd->accel_s[1] << 15;
 668:.\20648_driver\drivers/inv_mems_mpu_fifo_control.c ****         fd->accel[2] = fd->accel_s[2] << 15;
 669:.\20648_driver\drivers/inv_mems_mpu_fifo_control.c **** #elif (MEMS_CHIP == HW_ICM20648 || MEMS_CHIP == HW_ICM20609)
 670:.\20648_driver\drivers/inv_mems_mpu_fifo_control.c ****         inv_decode_3_16bit_elements(fd->accel_s, fifo_ptr);
 1173              		.loc 1 670 0
 1174 0014 2C30     		add	r0, r0, #44
 1175              	.LVL116:
 1176 0016 FFF7FEFF 		bl	inv_decode_3_16bit_elements
 1177              	.LVL117:
 671:.\20648_driver\drivers/inv_mems_mpu_fifo_control.c ****         fd->accel[0] = fd->accel_s[0] << 15;
 1178              		.loc 1 671 0
 1179 001a 2C22     		mov	r2, #44
 1180 001c AB5E     		ldrsh	r3, [r5, r2]
 672:.\20648_driver\drivers/inv_mems_mpu_fifo_control.c ****         fd->accel[1] = fd->accel_s[1] << 15;
 673:.\20648_driver\drivers/inv_mems_mpu_fifo_control.c ****         fd->accel[2] = fd->accel_s[2] << 15;
 674:.\20648_driver\drivers/inv_mems_mpu_fifo_control.c **** #elif (MEMS_CHIP == HW_ICM30630 || MEMS_CHIP == HW_ICM20645_E)
 675:.\20648_driver\drivers/inv_mems_mpu_fifo_control.c ****         inv_decode_3_32bit_elements(fd->accel, fifo_ptr);
 676:.\20648_driver\drivers/inv_mems_mpu_fifo_control.c ****         //fd->accel[0] = fd->accel[0] << 4;
 677:.\20648_driver\drivers/inv_mems_mpu_fifo_control.c ****         //fd->accel[1] = fd->accel[1] << 4;
 678:.\20648_driver\drivers/inv_mems_mpu_fifo_control.c ****         //fd->accel[2] = fd->accel[2] << 4;
 679:.\20648_driver\drivers/inv_mems_mpu_fifo_control.c **** #endif
 680:.\20648_driver\drivers/inv_mems_mpu_fifo_control.c ****         fifo_ptr += ACCEL_DATA_SZ;
 1181              		.loc 1 680 0
 1182 001e B41D     		add	r4, r6, #6
 1183              	.LVL118:
 671:.\20648_driver\drivers/inv_mems_mpu_fifo_control.c ****         fd->accel[0] = fd->accel_s[0] << 15;
 1184              		.loc 1 671 0
 1185 0020 DB03     		lsl	r3, r3, #15
 1186 0022 6B63     		str	r3, [r5, #52]
ARM GAS  C:\Users\ADMINI~1\AppData\Local\Temp\ccRFd3Cg.s 			page 36


 672:.\20648_driver\drivers/inv_mems_mpu_fifo_control.c ****         fd->accel[1] = fd->accel_s[1] << 15;
 1187              		.loc 1 672 0
 1188 0024 2E22     		mov	r2, #46
 1189 0026 AB5E     		ldrsh	r3, [r5, r2]
 1190 0028 DB03     		lsl	r3, r3, #15
 1191 002a AB63     		str	r3, [r5, #56]
 673:.\20648_driver\drivers/inv_mems_mpu_fifo_control.c **** #elif (MEMS_CHIP == HW_ICM30630 || MEMS_CHIP == HW_ICM20645_E)
 1192              		.loc 1 673 0
 1193 002c 3022     		mov	r2, #48
 1194 002e AB5E     		ldrsh	r3, [r5, r2]
 1195 0030 DB03     		lsl	r3, r3, #15
 1196 0032 EB63     		str	r3, [r5, #60]
 1197              	.L194:
 681:.\20648_driver\drivers/inv_mems_mpu_fifo_control.c ****     }
 682:.\20648_driver\drivers/inv_mems_mpu_fifo_control.c **** 
 683:.\20648_driver\drivers/inv_mems_mpu_fifo_control.c ****     if (fd->header & GYRO_SET) {
 1198              		.loc 1 683 0
 1199 0034 3B88     		ldrh	r3, [r7]
 1200 0036 5B04     		lsl	r3, r3, #17
 1201 0038 0AD5     		bpl	.L195
 684:.\20648_driver\drivers/inv_mems_mpu_fifo_control.c ****         inv_decode_3_16bit_elements(fd->gyro, fifo_ptr);
 1202              		.loc 1 684 0
 1203 003a 281C     		mov	r0, r5
 1204 003c 211C     		mov	r1, r4
 1205 003e 4030     		add	r0, r0, #64
 1206 0040 FFF7FEFF 		bl	inv_decode_3_16bit_elements
 1207              	.LVL119:
 685:.\20648_driver\drivers/inv_mems_mpu_fifo_control.c ****         fifo_ptr += GYRO_DATA_SZ;
 686:.\20648_driver\drivers/inv_mems_mpu_fifo_control.c **** #if (MEMS_CHIP == HW_ICM30630 || MEMS_CHIP == HW_ICM20648)
 687:.\20648_driver\drivers/inv_mems_mpu_fifo_control.c ****         inv_decode_3_16bit_elements(fd->gyro_bias, fifo_ptr);
 1208              		.loc 1 687 0
 1209 0044 281C     		mov	r0, r5
 685:.\20648_driver\drivers/inv_mems_mpu_fifo_control.c ****         fifo_ptr += GYRO_DATA_SZ;
 1210              		.loc 1 685 0
 1211 0046 A11D     		add	r1, r4, #6
 1212              	.LVL120:
 1213              		.loc 1 687 0
 1214 0048 4630     		add	r0, r0, #70
 1215 004a FFF7FEFF 		bl	inv_decode_3_16bit_elements
 1216              	.LVL121:
 688:.\20648_driver\drivers/inv_mems_mpu_fifo_control.c ****         fifo_ptr += GYRO_BIAS_DATA_SZ;
 1217              		.loc 1 688 0
 1218 004e 0C34     		add	r4, r4, #12
 1219              	.LVL122:
 1220              	.L195:
 689:.\20648_driver\drivers/inv_mems_mpu_fifo_control.c **** #elif (MEMS_CHIP == HW_ICM20609)
 690:.\20648_driver\drivers/inv_mems_mpu_fifo_control.c ****         inv_decode_3_32bit_elements(fd->gyro_bias, fifo_ptr);
 691:.\20648_driver\drivers/inv_mems_mpu_fifo_control.c ****         fifo_ptr += GYRO_BIAS_DATA_SZ;
 692:.\20648_driver\drivers/inv_mems_mpu_fifo_control.c **** #endif
 693:.\20648_driver\drivers/inv_mems_mpu_fifo_control.c ****     }
 694:.\20648_driver\drivers/inv_mems_mpu_fifo_control.c **** 
 695:.\20648_driver\drivers/inv_mems_mpu_fifo_control.c **** #if (MEMS_CHIP == HW_ICM20630) || (MEMS_CHIP == HW_ICM20648) 
 696:.\20648_driver\drivers/inv_mems_mpu_fifo_control.c ****     if (fd->header & CPASS_SET) {
 1221              		.loc 1 696 0
 1222 0050 3B88     		ldrh	r3, [r7]
 1223 0052 9B04     		lsl	r3, r3, #18
 1224 0054 0BD5     		bpl	.L196
ARM GAS  C:\Users\ADMINI~1\AppData\Local\Temp\ccRFd3Cg.s 			page 37


 697:.\20648_driver\drivers/inv_mems_mpu_fifo_control.c ****         inv_decode_3_16bit_elements(fd->cpass_raw_data, fifo_ptr);
 1225              		.loc 1 697 0
 1226 0056 281C     		mov	r0, r5
 1227 0058 211C     		mov	r1, r4
 1228 005a 7430     		add	r0, r0, #116
 1229 005c FFF7FEFF 		bl	inv_decode_3_16bit_elements
 1230              	.LVL123:
 698:.\20648_driver\drivers/inv_mems_mpu_fifo_control.c **** #if defined MEMS_SECONDARY_DEVICE
 699:.\20648_driver\drivers/inv_mems_mpu_fifo_control.c ****         inv_apply_raw_compass_matrix(fd->cpass_raw_data, fd->compass);
 700:.\20648_driver\drivers/inv_mems_mpu_fifo_control.c **** #endif
 701:.\20648_driver\drivers/inv_mems_mpu_fifo_control.c ****         memcpy( fd->cpass_calibr_6chars, fifo_ptr, 6*sizeof(unsigned char));
 1231              		.loc 1 701 0
 1232 0060 281C     		mov	r0, r5
 1233 0062 211C     		mov	r1, r4
 1234 0064 9430     		add	r0, r0, #148
 1235 0066 0622     		mov	r2, #6
 1236 0068 FFF7FEFF 		bl	memcpy
 1237              	.LVL124:
 702:.\20648_driver\drivers/inv_mems_mpu_fifo_control.c ****         fifo_ptr += CPASS_DATA_SZ;
 1238              		.loc 1 702 0
 1239 006c 0634     		add	r4, r4, #6
 1240              	.LVL125:
 1241              	.L196:
 703:.\20648_driver\drivers/inv_mems_mpu_fifo_control.c ****     }
 704:.\20648_driver\drivers/inv_mems_mpu_fifo_control.c **** #endif
 705:.\20648_driver\drivers/inv_mems_mpu_fifo_control.c **** 
 706:.\20648_driver\drivers/inv_mems_mpu_fifo_control.c ****     if (fd->header & QUAT6_SET) {
 1242              		.loc 1 706 0
 1243 006e 3B88     		ldrh	r3, [r7]
 1244 0070 1B05     		lsl	r3, r3, #20
 1245 0072 04D5     		bpl	.L197
 707:.\20648_driver\drivers/inv_mems_mpu_fifo_control.c **** #if (MEMS_CHIP == HW_ICM20609)
 708:.\20648_driver\drivers/inv_mems_mpu_fifo_control.c ****         inv_decode_3_32bit_elements(fd->dmp_3e_6quat, fifo_ptr+2);
 709:.\20648_driver\drivers/inv_mems_mpu_fifo_control.c **** #else 
 710:.\20648_driver\drivers/inv_mems_mpu_fifo_control.c ****         inv_decode_3_32bit_elements(fd->dmp_3e_6quat, fifo_ptr);
 1246              		.loc 1 710 0
 1247 0074 211C     		mov	r1, r4
 1248 0076 281C     		mov	r0, r5
 1249 0078 FFF7FEFF 		bl	inv_decode_3_32bit_elements
 1250              	.LVL126:
 711:.\20648_driver\drivers/inv_mems_mpu_fifo_control.c **** #endif
 712:.\20648_driver\drivers/inv_mems_mpu_fifo_control.c ****         fifo_ptr += QUAT6_DATA_SZ;
 1251              		.loc 1 712 0
 1252 007c 0C34     		add	r4, r4, #12
 1253              	.LVL127:
 1254              	.L197:
 713:.\20648_driver\drivers/inv_mems_mpu_fifo_control.c ****     }
 714:.\20648_driver\drivers/inv_mems_mpu_fifo_control.c ****     
 715:.\20648_driver\drivers/inv_mems_mpu_fifo_control.c **** #if defined MEMS_SECONDARY_DEVICE
 716:.\20648_driver\drivers/inv_mems_mpu_fifo_control.c ****     if (fd->header & PRESSURE_SET) {
 717:.\20648_driver\drivers/inv_mems_mpu_fifo_control.c ****         inv_decode_3_16bit_elements(fd->pressure, fifo_ptr);
 718:.\20648_driver\drivers/inv_mems_mpu_fifo_control.c ****         fifo_ptr += PRESSURE_DATA_SZ;
 719:.\20648_driver\drivers/inv_mems_mpu_fifo_control.c ****     }
 720:.\20648_driver\drivers/inv_mems_mpu_fifo_control.c **** #endif
 721:.\20648_driver\drivers/inv_mems_mpu_fifo_control.c **** #if (MEMS_CHIP != HW_ICM20609)
 722:.\20648_driver\drivers/inv_mems_mpu_fifo_control.c ****     if (fd->header & QUAT9_SET) {
 1255              		.loc 1 722 0
ARM GAS  C:\Users\ADMINI~1\AppData\Local\Temp\ccRFd3Cg.s 			page 38


 1256 007e 3B88     		ldrh	r3, [r7]
 1257 0080 5B05     		lsl	r3, r3, #21
 1258 0082 0BD5     		bpl	.L198
 723:.\20648_driver\drivers/inv_mems_mpu_fifo_control.c ****         inv_decode_3_32bit_elements(fd->dmp_3e_9quat, fifo_ptr);
 1259              		.loc 1 723 0
 1260 0084 281C     		mov	r0, r5
 1261 0086 211C     		mov	r1, r4
 1262 0088 0C30     		add	r0, r0, #12
 1263 008a FFF7FEFF 		bl	inv_decode_3_32bit_elements
 1264              	.LVL128:
 724:.\20648_driver\drivers/inv_mems_mpu_fifo_control.c **** 
 725:.\20648_driver\drivers/inv_mems_mpu_fifo_control.c **** #if (MEMS_CHIP == HW_ICM20630 || MEMS_CHIP == HW_ICM20648)
 726:.\20648_driver\drivers/inv_mems_mpu_fifo_control.c ****         fd->dmp_rv_accuracyQ29 = ((0xff & fifo_ptr[12]) << 24) | ((0xff & fifo_ptr[13]) << 16);
 1265              		.loc 1 726 0
 1266 008e 637B     		ldrb	r3, [r4, #13]
 1267 0090 1A04     		lsl	r2, r3, #16
 1268 0092 237B     		ldrb	r3, [r4, #12]
 727:.\20648_driver\drivers/inv_mems_mpu_fifo_control.c **** #endif
 728:.\20648_driver\drivers/inv_mems_mpu_fifo_control.c **** 
 729:.\20648_driver\drivers/inv_mems_mpu_fifo_control.c ****         fifo_ptr += QUAT9_DATA_SZ;
 1269              		.loc 1 729 0
 1270 0094 0E34     		add	r4, r4, #14
 1271              	.LVL129:
 726:.\20648_driver\drivers/inv_mems_mpu_fifo_control.c **** #endif
 1272              		.loc 1 726 0
 1273 0096 1B06     		lsl	r3, r3, #24
 1274 0098 1343     		orr	r3, r2
 1275 009a AB61     		str	r3, [r5, #24]
 1276              	.L198:
 730:.\20648_driver\drivers/inv_mems_mpu_fifo_control.c ****     }
 731:.\20648_driver\drivers/inv_mems_mpu_fifo_control.c **** #endif
 732:.\20648_driver\drivers/inv_mems_mpu_fifo_control.c ****     
 733:.\20648_driver\drivers/inv_mems_mpu_fifo_control.c **** #if (MEMS_CHIP == HW_ICM20648) 
 734:.\20648_driver\drivers/inv_mems_mpu_fifo_control.c ****     if (fd->header & GEOMAG_SET) {
 1277              		.loc 1 734 0
 1278 009c 3B88     		ldrh	r3, [r7]
 1279 009e DB05     		lsl	r3, r3, #23
 1280 00a0 0BD5     		bpl	.L199
 735:.\20648_driver\drivers/inv_mems_mpu_fifo_control.c ****         inv_decode_3_32bit_elements(fd->dmp_3e_geomagquat, fifo_ptr);
 1281              		.loc 1 735 0
 1282 00a2 281C     		mov	r0, r5
 1283 00a4 211C     		mov	r1, r4
 1284 00a6 1C30     		add	r0, r0, #28
 1285 00a8 FFF7FEFF 		bl	inv_decode_3_32bit_elements
 1286              	.LVL130:
 736:.\20648_driver\drivers/inv_mems_mpu_fifo_control.c ****         fd->dmp_geomag_accuracyQ29 = ((0xff & fifo_ptr[12]) << 24) | ((0xff & fifo_ptr[13]) << 16);
 1287              		.loc 1 736 0
 1288 00ac 637B     		ldrb	r3, [r4, #13]
 1289 00ae 1A04     		lsl	r2, r3, #16
 1290 00b0 237B     		ldrb	r3, [r4, #12]
 737:.\20648_driver\drivers/inv_mems_mpu_fifo_control.c ****         fifo_ptr += GEOMAG_DATA_SZ;
 1291              		.loc 1 737 0
 1292 00b2 0E34     		add	r4, r4, #14
 1293              	.LVL131:
 736:.\20648_driver\drivers/inv_mems_mpu_fifo_control.c ****         fd->dmp_geomag_accuracyQ29 = ((0xff & fifo_ptr[12]) << 24) | ((0xff & fifo_ptr[13]) << 16);
 1294              		.loc 1 736 0
 1295 00b4 1B06     		lsl	r3, r3, #24
ARM GAS  C:\Users\ADMINI~1\AppData\Local\Temp\ccRFd3Cg.s 			page 39


 1296 00b6 1343     		orr	r3, r2
 1297 00b8 AB62     		str	r3, [r5, #40]
 1298              	.L199:
 738:.\20648_driver\drivers/inv_mems_mpu_fifo_control.c ****     }
 739:.\20648_driver\drivers/inv_mems_mpu_fifo_control.c **** #endif
 740:.\20648_driver\drivers/inv_mems_mpu_fifo_control.c **** 
 741:.\20648_driver\drivers/inv_mems_mpu_fifo_control.c **** #if (MEMS_CHIP != HW_ICM30630 && MEMS_CHIP != HW_ICM20648)
 742:.\20648_driver\drivers/inv_mems_mpu_fifo_control.c ****     if (fd->header & GYRO_CALIBR_SET) {
 743:.\20648_driver\drivers/inv_mems_mpu_fifo_control.c ****         inv_decode_3_32bit_elements(fd->gyro_calibr, fifo_ptr);
 744:.\20648_driver\drivers/inv_mems_mpu_fifo_control.c ****         fifo_ptr += GYRO_CALIBR_DATA_SZ;
 745:.\20648_driver\drivers/inv_mems_mpu_fifo_control.c ****     }
 746:.\20648_driver\drivers/inv_mems_mpu_fifo_control.c **** #endif
 747:.\20648_driver\drivers/inv_mems_mpu_fifo_control.c **** 
 748:.\20648_driver\drivers/inv_mems_mpu_fifo_control.c **** #if (MEMS_CHIP == HW_ICM20630) || (MEMS_CHIP == HW_ICM20648) 
 749:.\20648_driver\drivers/inv_mems_mpu_fifo_control.c ****     if (fd->header & CPASS_CALIBR_SET) {
 1299              		.loc 1 749 0
 1300 00ba 3B88     		ldrh	r3, [r7]
 1301 00bc 9B06     		lsl	r3, r3, #26
 1302 00be 0BD5     		bpl	.L200
 750:.\20648_driver\drivers/inv_mems_mpu_fifo_control.c ****         inv_decode_3_32bit_elements(fd->cpass_calibr, fifo_ptr);
 1303              		.loc 1 750 0
 1304 00c0 281C     		mov	r0, r5
 1305 00c2 211C     		mov	r1, r4
 1306 00c4 6430     		add	r0, r0, #100
 1307 00c6 FFF7FEFF 		bl	inv_decode_3_32bit_elements
 1308              	.LVL132:
 751:.\20648_driver\drivers/inv_mems_mpu_fifo_control.c ****         memcpy( fd->cpass_calibr_12chars, fifo_ptr, 12*sizeof(unsigned char));
 1309              		.loc 1 751 0
 1310 00ca 281C     		mov	r0, r5
 1311 00cc 211C     		mov	r1, r4
 1312 00ce 8830     		add	r0, r0, #136
 1313 00d0 0C22     		mov	r2, #12
 1314 00d2 FFF7FEFF 		bl	memcpy
 1315              	.LVL133:
 752:.\20648_driver\drivers/inv_mems_mpu_fifo_control.c ****         fifo_ptr += CPASS_CALIBR_DATA_SZ;
 1316              		.loc 1 752 0
 1317 00d6 0C34     		add	r4, r4, #12
 1318              	.LVL134:
 1319              	.L200:
 753:.\20648_driver\drivers/inv_mems_mpu_fifo_control.c ****     }
 754:.\20648_driver\drivers/inv_mems_mpu_fifo_control.c **** #endif
 755:.\20648_driver\drivers/inv_mems_mpu_fifo_control.c **** 
 756:.\20648_driver\drivers/inv_mems_mpu_fifo_control.c **** #if (MEMS_CHIP != HW_ICM30630)
 757:.\20648_driver\drivers/inv_mems_mpu_fifo_control.c ****     if (fd->header & PED_STEPDET_SET) {
 1320              		.loc 1 757 0
 1321 00d8 3B88     		ldrh	r3, [r7]
 1322 00da DB06     		lsl	r3, r3, #27
 1323 00dc 0BD5     		bpl	.L201
 758:.\20648_driver\drivers/inv_mems_mpu_fifo_control.c ****         fd->ped_step_det_ts = ((0xff & fifo_ptr[0]) << 24) | ((0xff & fifo_ptr[1]) << 16) | ((0xff 
 1324              		.loc 1 758 0
 1325 00de 2378     		ldrb	r3, [r4]
 1326 00e0 1A06     		lsl	r2, r3, #24
 1327 00e2 6378     		ldrb	r3, [r4, #1]
 1328 00e4 1B04     		lsl	r3, r3, #16
 1329 00e6 1343     		orr	r3, r2
 1330 00e8 E278     		ldrb	r2, [r4, #3]
 1331 00ea 1343     		orr	r3, r2
ARM GAS  C:\Users\ADMINI~1\AppData\Local\Temp\ccRFd3Cg.s 			page 40


 1332 00ec A278     		ldrb	r2, [r4, #2]
 759:.\20648_driver\drivers/inv_mems_mpu_fifo_control.c ****         fifo_ptr += PED_STEPDET_TIMESTAMP_SZ;
 1333              		.loc 1 759 0
 1334 00ee 0434     		add	r4, r4, #4
 1335              	.LVL135:
 758:.\20648_driver\drivers/inv_mems_mpu_fifo_control.c ****         fd->ped_step_det_ts = ((0xff & fifo_ptr[0]) << 24) | ((0xff & fifo_ptr[1]) << 16) | ((0xff 
 1336              		.loc 1 758 0
 1337 00f0 1202     		lsl	r2, r2, #8
 1338 00f2 1343     		orr	r3, r2
 1339 00f4 2B67     		str	r3, [r5, #112]
 1340              	.L201:
 760:.\20648_driver\drivers/inv_mems_mpu_fifo_control.c ****     }
 761:.\20648_driver\drivers/inv_mems_mpu_fifo_control.c **** #endif
 762:.\20648_driver\drivers/inv_mems_mpu_fifo_control.c ****         
 763:.\20648_driver\drivers/inv_mems_mpu_fifo_control.c ****     if (fd->header2 & ACCEL_ACCURACY_SET) {
 1341              		.loc 1 763 0
 1342 00f6 2B1C     		mov	r3, r5
 1343 00f8 9C33     		add	r3, r3, #156
 1344 00fa 1B88     		ldrh	r3, [r3]
 1345 00fc 5A04     		lsl	r2, r3, #17
 1346 00fe 07D5     		bpl	.L202
 764:.\20648_driver\drivers/inv_mems_mpu_fifo_control.c ****         fd->accel_accuracy = ((0xff & fifo_ptr[0]) << 8) | (0xff & fifo_ptr[1]);
 1347              		.loc 1 764 0
 1348 0100 2278     		ldrb	r2, [r4]
 1349 0102 6178     		ldrb	r1, [r4, #1]
 1350 0104 1202     		lsl	r2, r2, #8
 1351 0106 0A43     		orr	r2, r1
 1352 0108 291C     		mov	r1, r5
 1353 010a 7A31     		add	r1, r1, #122
 1354 010c 0A80     		strh	r2, [r1]
 765:.\20648_driver\drivers/inv_mems_mpu_fifo_control.c ****         fifo_ptr += ACCEL_ACCURACY_SZ;
 1355              		.loc 1 765 0
 1356 010e 0234     		add	r4, r4, #2
 1357              	.LVL136:
 1358              	.L202:
 766:.\20648_driver\drivers/inv_mems_mpu_fifo_control.c ****     }
 767:.\20648_driver\drivers/inv_mems_mpu_fifo_control.c ****         
 768:.\20648_driver\drivers/inv_mems_mpu_fifo_control.c ****     if (fd->header2 & GYRO_ACCURACY_SET) {
 1359              		.loc 1 768 0
 1360 0110 9A04     		lsl	r2, r3, #18
 1361 0112 07D5     		bpl	.L203
 769:.\20648_driver\drivers/inv_mems_mpu_fifo_control.c ****         fd->gyro_accuracy = ((0xff & fifo_ptr[0]) << 8) | (0xff & fifo_ptr[1]);
 1362              		.loc 1 769 0
 1363 0114 2278     		ldrb	r2, [r4]
 1364 0116 6178     		ldrb	r1, [r4, #1]
 1365 0118 1202     		lsl	r2, r2, #8
 1366 011a 0A43     		orr	r2, r1
 1367 011c 291C     		mov	r1, r5
 1368 011e 7C31     		add	r1, r1, #124
 1369 0120 0A80     		strh	r2, [r1]
 770:.\20648_driver\drivers/inv_mems_mpu_fifo_control.c ****         fifo_ptr += GYRO_ACCURACY_SZ;
 1370              		.loc 1 770 0
 1371 0122 0234     		add	r4, r4, #2
 1372              	.LVL137:
 1373              	.L203:
 771:.\20648_driver\drivers/inv_mems_mpu_fifo_control.c ****     }
 772:.\20648_driver\drivers/inv_mems_mpu_fifo_control.c **** 
ARM GAS  C:\Users\ADMINI~1\AppData\Local\Temp\ccRFd3Cg.s 			page 41


 773:.\20648_driver\drivers/inv_mems_mpu_fifo_control.c **** #if (MEMS_CHIP == HW_ICM20630 || MEMS_CHIP == HW_ICM20648) 
 774:.\20648_driver\drivers/inv_mems_mpu_fifo_control.c ****     if (fd->header2 & CPASS_ACCURACY_SET) {
 1374              		.loc 1 774 0
 1375 0124 DA04     		lsl	r2, r3, #19
 1376 0126 07D5     		bpl	.L204
 775:.\20648_driver\drivers/inv_mems_mpu_fifo_control.c ****         fd->cpass_accuracy = ((0xff & fifo_ptr[0]) << 8) | (0xff & fifo_ptr[1]);
 1377              		.loc 1 775 0
 1378 0128 2278     		ldrb	r2, [r4]
 1379 012a 6178     		ldrb	r1, [r4, #1]
 1380 012c 1202     		lsl	r2, r2, #8
 1381 012e 0A43     		orr	r2, r1
 1382 0130 291C     		mov	r1, r5
 1383 0132 7E31     		add	r1, r1, #126
 1384 0134 0A80     		strh	r2, [r1]
 776:.\20648_driver\drivers/inv_mems_mpu_fifo_control.c ****         fifo_ptr += CPASS_ACCURACY_SZ;
 1385              		.loc 1 776 0
 1386 0136 0234     		add	r4, r4, #2
 1387              	.LVL138:
 1388              	.L204:
 777:.\20648_driver\drivers/inv_mems_mpu_fifo_control.c ****     }
 778:.\20648_driver\drivers/inv_mems_mpu_fifo_control.c **** #endif
 779:.\20648_driver\drivers/inv_mems_mpu_fifo_control.c **** 
 780:.\20648_driver\drivers/inv_mems_mpu_fifo_control.c **** #if (MEMS_CHIP == HW_ICM30630)
 781:.\20648_driver\drivers/inv_mems_mpu_fifo_control.c ****     if (fd->header2 & FSYNC_SET) {
 782:.\20648_driver\drivers/inv_mems_mpu_fifo_control.c ****         fd->fsync = ((0xff & fifo_ptr[0]) << 8) | (0xff & fifo_ptr[1]);
 783:.\20648_driver\drivers/inv_mems_mpu_fifo_control.c ****         fifo_ptr += FSYNC_SZ;
 784:.\20648_driver\drivers/inv_mems_mpu_fifo_control.c ****     }
 785:.\20648_driver\drivers/inv_mems_mpu_fifo_control.c **** #endif
 786:.\20648_driver\drivers/inv_mems_mpu_fifo_control.c **** 
 787:.\20648_driver\drivers/inv_mems_mpu_fifo_control.c **** #if (MEMS_CHIP == HW_ICM30630 || MEMS_CHIP == HW_ICM20645_E || MEMS_CHIP == HW_ICM20648)
 788:.\20648_driver\drivers/inv_mems_mpu_fifo_control.c **** 	if (fd->header2 & FLIP_PICKUP_SET) {
 1389              		.loc 1 788 0
 1390 0138 5A05     		lsl	r2, r3, #21
 1391 013a 07D5     		bpl	.L205
 789:.\20648_driver\drivers/inv_mems_mpu_fifo_control.c **** 		fd->flip_pickup = ((0xff & fifo_ptr[0]) << 8) | (0xff & fifo_ptr[1]);
 1392              		.loc 1 789 0
 1393 013c 2278     		ldrb	r2, [r4]
 1394 013e 6178     		ldrb	r1, [r4, #1]
 1395 0140 1202     		lsl	r2, r2, #8
 1396 0142 0A43     		orr	r2, r1
 1397 0144 291C     		mov	r1, r5
 1398 0146 8631     		add	r1, r1, #134
 1399 0148 0A80     		strh	r2, [r1]
 790:.\20648_driver\drivers/inv_mems_mpu_fifo_control.c **** 		fifo_ptr += FLIP_PICKUP_SZ;
 1400              		.loc 1 790 0
 1401 014a 0234     		add	r4, r4, #2
 1402              	.LVL139:
 1403              	.L205:
 791:.\20648_driver\drivers/inv_mems_mpu_fifo_control.c **** 	}
 792:.\20648_driver\drivers/inv_mems_mpu_fifo_control.c **** #endif
 793:.\20648_driver\drivers/inv_mems_mpu_fifo_control.c **** #if (MEMS_CHIP == HW_ICM20645_E || MEMS_CHIP == HW_ICM20648 )
 794:.\20648_driver\drivers/inv_mems_mpu_fifo_control.c **** 	if (fd->header2 & ACT_RECOG_SET) {
 1404              		.loc 1 794 0
 1405 014c 1B06     		lsl	r3, r3, #24
 1406 014e 13D5     		bpl	.L206
 795:.\20648_driver\drivers/inv_mems_mpu_fifo_control.c **** 		fd->bac_state = ((0xff & fifo_ptr[0]) << 8) | (0xff & fifo_ptr[1]);
 1407              		.loc 1 795 0
ARM GAS  C:\Users\ADMINI~1\AppData\Local\Temp\ccRFd3Cg.s 			page 42


 1408 0150 2378     		ldrb	r3, [r4]
 1409 0152 6278     		ldrb	r2, [r4, #1]
 1410 0154 1B02     		lsl	r3, r3, #8
 1411 0156 1343     		orr	r3, r2
 1412 0158 2A1C     		mov	r2, r5
 1413 015a 8432     		add	r2, r2, #132
 1414 015c 1380     		strh	r3, [r2]
 796:.\20648_driver\drivers/inv_mems_mpu_fifo_control.c **** 		fd->bac_ts     = ((0xff & fifo_ptr[2]) << 24) | ((0xff & fifo_ptr[3]) << 16) | ((0xff & fifo_ptr[
 1415              		.loc 1 796 0
 1416 015e A378     		ldrb	r3, [r4, #2]
 795:.\20648_driver\drivers/inv_mems_mpu_fifo_control.c **** 		fd->bac_state = ((0xff & fifo_ptr[0]) << 8) | (0xff & fifo_ptr[1]);
 1417              		.loc 1 795 0
 1418 0160 291D     		add	r1, r5, #4
 1419              		.loc 1 796 0
 1420 0162 1A06     		lsl	r2, r3, #24
 1421 0164 E378     		ldrb	r3, [r4, #3]
 1422 0166 1B04     		lsl	r3, r3, #16
 1423 0168 1343     		orr	r3, r2
 1424 016a 6279     		ldrb	r2, [r4, #5]
 1425 016c 1343     		orr	r3, r2
 1426 016e 2279     		ldrb	r2, [r4, #4]
 797:.\20648_driver\drivers/inv_mems_mpu_fifo_control.c **** 		fifo_ptr += ACT_RECOG_SZ;
 1427              		.loc 1 797 0
 1428 0170 0634     		add	r4, r4, #6
 1429              	.LVL140:
 796:.\20648_driver\drivers/inv_mems_mpu_fifo_control.c **** 		fd->bac_ts     = ((0xff & fifo_ptr[2]) << 24) | ((0xff & fifo_ptr[3]) << 16) | ((0xff & fifo_ptr[
 1430              		.loc 1 796 0
 1431 0172 1202     		lsl	r2, r2, #8
 1432 0174 1343     		orr	r3, r2
 1433 0176 CB67     		str	r3, [r1, #124]
 1434              	.L206:
 1435              	.LVL141:
 798:.\20648_driver\drivers/inv_mems_mpu_fifo_control.c **** 	}
 799:.\20648_driver\drivers/inv_mems_mpu_fifo_control.c **** #endif
 800:.\20648_driver\drivers/inv_mems_mpu_fifo_control.c **** #if (MEMS_CHIP == HW_ICM30630 || MEMS_CHIP == HW_ICM20645_E)
 801:.\20648_driver\drivers/inv_mems_mpu_fifo_control.c **** 	if (fd->header & FOOTER_SET) {
 802:.\20648_driver\drivers/inv_mems_mpu_fifo_control.c **** 		fd->footer = ((0xff & fifo_ptr[0]) << 8) | (0xff & fifo_ptr[1]);
 803:.\20648_driver\drivers/inv_mems_mpu_fifo_control.c **** 		fifo_ptr += FOOTER_SZ;
 804:.\20648_driver\drivers/inv_mems_mpu_fifo_control.c **** 	}
 805:.\20648_driver\drivers/inv_mems_mpu_fifo_control.c **** #endif
 806:.\20648_driver\drivers/inv_mems_mpu_fifo_control.c **** 
 807:.\20648_driver\drivers/inv_mems_mpu_fifo_control.c **** #if (MEMS_CHIP == HW_ICM20648) 
 808:.\20648_driver\drivers/inv_mems_mpu_fifo_control.c **** 	odr_cntr = ((0xff & fifo_ptr[0]) << 8) | (0xff & fifo_ptr[1]);
 809:.\20648_driver\drivers/inv_mems_mpu_fifo_control.c **** 	// odr_cntr_gyro is odr_cntr & 0xfff
 810:.\20648_driver\drivers/inv_mems_mpu_fifo_control.c **** 	// 9KHz cnt is odr_cntr >> 12
 811:.\20648_driver\drivers/inv_mems_mpu_fifo_control.c **** 	// not used for now, needed only for FSYNC purpose
 812:.\20648_driver\drivers/inv_mems_mpu_fifo_control.c **** 	(void)odr_cntr;
 813:.\20648_driver\drivers/inv_mems_mpu_fifo_control.c **** 	fifo_ptr += ODR_CNT_GYRO_SZ;
 814:.\20648_driver\drivers/inv_mems_mpu_fifo_control.c **** #endif
 815:.\20648_driver\drivers/inv_mems_mpu_fifo_control.c **** 
 816:.\20648_driver\drivers/inv_mems_mpu_fifo_control.c ****     fd->new_data = 1; // Record a new data set
 1436              		.loc 1 816 0
 1437 0178 0123     		mov	r3, #1
 1438 017a A035     		add	r5, r5, #160
 1439              	.LVL142:
 813:.\20648_driver\drivers/inv_mems_mpu_fifo_control.c **** #endif
 1440              		.loc 1 813 0
ARM GAS  C:\Users\ADMINI~1\AppData\Local\Temp\ccRFd3Cg.s 			page 43


 1441 017c 0234     		add	r4, r4, #2
 1442              	.LVL143:
 817:.\20648_driver\drivers/inv_mems_mpu_fifo_control.c **** 
 818:.\20648_driver\drivers/inv_mems_mpu_fifo_control.c ****     return fifo_ptr-fifo_ptr_start;
 1443              		.loc 1 818 0
 1444 017e A01B     		sub	r0, r4, r6
 816:.\20648_driver\drivers/inv_mems_mpu_fifo_control.c **** 
 1445              		.loc 1 816 0
 1446 0180 2B60     		str	r3, [r5]
 1447              	.LVL144:
 819:.\20648_driver\drivers/inv_mems_mpu_fifo_control.c **** }
 1448              		.loc 1 819 0
 1449              		@ sp needed
 1450              	.LVL145:
 1451              	.LVL146:
 1452              	.LVL147:
 1453              	.LVL148:
 1454 0182 F8BD     		pop	{r3, r4, r5, r6, r7, pc}
 1455              		.cfi_endproc
 1456              	.LFE18:
 1457              		.size	inv_decode_one_ivory_fifo_packet, .-inv_decode_one_ivory_fifo_packet
 1458              		.section	.text.inv_mems_fifo_pop,"ax",%progbits
 1459              		.align	1
 1460              		.global	inv_mems_fifo_pop
 1461              		.code	16
 1462              		.thumb_func
 1463              		.type	inv_mems_fifo_pop, %function
 1464              	inv_mems_fifo_pop:
 1465              	.LFB14:
 531:.\20648_driver\drivers/inv_mems_mpu_fifo_control.c **** 	int need_sz=0; // size in bytes of packet to be analyzed from FIFO
 1466              		.loc 1 531 0
 1467              		.cfi_startproc
 1468              	.LVL149:
 1469 0000 F7B5     		push	{r0, r1, r2, r4, r5, r6, r7, lr}
 1470              		.cfi_def_cfa_offset 32
 1471              		.cfi_offset 0, -32
 1472              		.cfi_offset 1, -28
 1473              		.cfi_offset 2, -24
 1474              		.cfi_offset 4, -20
 1475              		.cfi_offset 5, -16
 1476              		.cfi_offset 6, -12
 1477              		.cfi_offset 7, -8
 1478              		.cfi_offset 14, -4
 535:.\20648_driver\drivers/inv_mems_mpu_fifo_control.c **** 		// extract headers and number of bytes requested by next sample present in FIFO
 1479              		.loc 1 535 0
 1480 0002 1468     		ldr	r4, [r2]
 560:.\20648_driver\drivers/inv_mems_mpu_fifo_control.c **** }
 1481              		.loc 1 560 0
 1482 0004 0023     		mov	r3, #0
 535:.\20648_driver\drivers/inv_mems_mpu_fifo_control.c **** 		// extract headers and number of bytes requested by next sample present in FIFO
 1483              		.loc 1 535 0
 1484 0006 032C     		cmp	r4, #3
 1485 0008 2FDD     		ble	.L245
 537:.\20648_driver\drivers/inv_mems_mpu_fifo_control.c **** 
 1486              		.loc 1 537 0
 1487 000a 194F     		ldr	r7, .L255
 1488 000c 0090     		str	r0, [sp]
ARM GAS  C:\Users\ADMINI~1\AppData\Local\Temp\ccRFd3Cg.s 			page 44


 1489 000e 381C     		mov	r0, r7
 1490              	.LVL150:
 1491 0010 151C     		mov	r5, r2
 1492 0012 0191     		str	r1, [sp, #4]
 1493 0014 0830     		add	r0, r0, #8
 1494 0016 1749     		ldr	r1, .L255+4
 1495              	.LVL151:
 1496 0018 174A     		ldr	r2, .L255+8
 1497              	.LVL152:
 1498 001a FFF7FEFF 		bl	get_packet_size_and_samplecnt
 1499              	.LVL153:
 540:.\20648_driver\drivers/inv_mems_mpu_fifo_control.c **** 		    return fifo_info.fifoError;
 1500              		.loc 1 540 0
 1501 001e 2B68     		ldr	r3, [r5]
 537:.\20648_driver\drivers/inv_mems_mpu_fifo_control.c **** 
 1502              		.loc 1 537 0
 1503 0020 061C     		mov	r6, r0
 1504              	.LVL154:
 1505 0022 3C1C     		mov	r4, r7
 540:.\20648_driver\drivers/inv_mems_mpu_fifo_control.c **** 		    return fifo_info.fifoError;
 1506              		.loc 1 540 0
 1507 0024 8342     		cmp	r3, r0
 1508 0026 01DA     		bge	.L246
 541:.\20648_driver\drivers/inv_mems_mpu_fifo_control.c **** 		}
 1509              		.loc 1 541 0
 1510 0028 3B68     		ldr	r3, [r7]
 1511 002a 1EE0     		b	.L245
 1512              	.L246:
 1513              	.LVL155:
 544:.\20648_driver\drivers/inv_mems_mpu_fifo_control.c **** 		if (fd.header & HEADER2_SET)
 1514              		.loc 1 544 0
 1515 002c 391C     		mov	r1, r7
 545:.\20648_driver\drivers/inv_mems_mpu_fifo_control.c **** 			fifo_ptr += HEADER2_SZ;        
 1516              		.loc 1 545 0
 1517 002e 114B     		ldr	r3, .L255+4
 544:.\20648_driver\drivers/inv_mems_mpu_fifo_control.c **** 		if (fd.header & HEADER2_SET)
 1518              		.loc 1 544 0
 1519 0030 0A31     		add	r1, r1, #10
 545:.\20648_driver\drivers/inv_mems_mpu_fifo_control.c **** 			fifo_ptr += HEADER2_SZ;        
 1520              		.loc 1 545 0
 1521 0032 1B88     		ldrh	r3, [r3]
 1522 0034 1B07     		lsl	r3, r3, #28
 1523 0036 01D5     		bpl	.L247
 546:.\20648_driver\drivers/inv_mems_mpu_fifo_control.c **** 
 1524              		.loc 1 546 0
 1525 0038 391C     		mov	r1, r7
 1526 003a 0C31     		add	r1, r1, #12
 1527              	.L247:
 1528              	.LVL156:
 549:.\20648_driver\drivers/inv_mems_mpu_fifo_control.c **** 
 1529              		.loc 1 549 0
 1530 003c 0F4F     		ldr	r7, .L255+12
 1531 003e 381C     		mov	r0, r7
 1532              	.LVL157:
 1533 0040 FFF7FEFF 		bl	inv_decode_one_ivory_fifo_packet
 1534              	.LVL158:
 552:.\20648_driver\drivers/inv_mems_mpu_fifo_control.c **** 		if(*fifo_sw_size)
ARM GAS  C:\Users\ADMINI~1\AppData\Local\Temp\ccRFd3Cg.s 			page 45


 1535              		.loc 1 552 0
 1536 0044 2B68     		ldr	r3, [r5]
 1537 0046 9A1B     		sub	r2, r3, r6
 1538 0048 2A60     		str	r2, [r5]
 553:.\20648_driver\drivers/inv_mems_mpu_fifo_control.c **** 			memmove(fifo_data, &fifo_data[need_sz], *fifo_sw_size);// Data left in FIFO
 1539              		.loc 1 553 0
 1540 004a 04D0     		beq	.L248
 554:.\20648_driver\drivers/inv_mems_mpu_fifo_control.c **** 
 1541              		.loc 1 554 0
 1542 004c 201C     		mov	r0, r4
 1543 004e 0830     		add	r0, r0, #8
 1544 0050 8119     		add	r1, r0, r6
 1545 0052 FFF7FEFF 		bl	memmove
 1546              	.LVL159:
 1547              	.L248:
 556:.\20648_driver\drivers/inv_mems_mpu_fifo_control.c **** 		*user_header2 = fd.header2;
 1548              		.loc 1 556 0
 1549 0056 3B1C     		mov	r3, r7
 1550 0058 9A33     		add	r3, r3, #154
 1551 005a 1B88     		ldrh	r3, [r3]
 1552 005c 009A     		ldr	r2, [sp]
 557:.\20648_driver\drivers/inv_mems_mpu_fifo_control.c **** 	}
 1553              		.loc 1 557 0
 1554 005e 9C37     		add	r7, r7, #156
 556:.\20648_driver\drivers/inv_mems_mpu_fifo_control.c **** 		*user_header2 = fd.header2;
 1555              		.loc 1 556 0
 1556 0060 1380     		strh	r3, [r2]
 557:.\20648_driver\drivers/inv_mems_mpu_fifo_control.c **** 	}
 1557              		.loc 1 557 0
 1558 0062 3B88     		ldrh	r3, [r7]
 1559 0064 019A     		ldr	r2, [sp, #4]
 1560 0066 1380     		strh	r3, [r2]
 560:.\20648_driver\drivers/inv_mems_mpu_fifo_control.c **** }
 1561              		.loc 1 560 0
 1562 0068 0023     		mov	r3, #0
 1563              	.LVL160:
 1564              	.L245:
 561:.\20648_driver\drivers/inv_mems_mpu_fifo_control.c **** 
 1565              		.loc 1 561 0
 1566 006a 181C     		mov	r0, r3
 1567              		@ sp needed
 1568 006c FEBD     		pop	{r1, r2, r3, r4, r5, r6, r7, pc}
 1569              	.L256:
 1570 006e C046     		.align	2
 1571              	.L255:
 1572 0070 00000000 		.word	.LANCHOR0
 1573 0074 9A000000 		.word	fd+154
 1574 0078 9C000000 		.word	fd+156
 1575 007c 00000000 		.word	fd
 1576              		.cfi_endproc
 1577              	.LFE14:
 1578              		.size	inv_mems_fifo_pop, .-inv_mems_fifo_pop
 1579              		.section	.text.dmp_process_fifo,"ax",%progbits
 1580              		.align	1
 1581              		.global	dmp_process_fifo
 1582              		.code	16
 1583              		.thumb_func
ARM GAS  C:\Users\ADMINI~1\AppData\Local\Temp\ccRFd3Cg.s 			page 46


 1584              		.type	dmp_process_fifo, %function
 1585              	dmp_process_fifo:
 1586              	.LFB15:
 564:.\20648_driver\drivers/inv_mems_mpu_fifo_control.c ****     inv_error_t result = MPU_SUCCESS;
 1587              		.loc 1 564 0
 1588              		.cfi_startproc
 1589              	.LVL161:
 1590 0000 F0B5     		push	{r4, r5, r6, r7, lr}
 1591              		.cfi_def_cfa_offset 20
 1592              		.cfi_offset 4, -20
 1593              		.cfi_offset 5, -16
 1594              		.cfi_offset 6, -12
 1595              		.cfi_offset 7, -8
 1596              		.cfi_offset 14, -4
 566:.\20648_driver\drivers/inv_mems_mpu_fifo_control.c ****     int need_sz=0;
 1597              		.loc 1 566 0
 1598 0002 0025     		mov	r5, #0
 564:.\20648_driver\drivers/inv_mems_mpu_fifo_control.c ****     inv_error_t result = MPU_SUCCESS;
 1599              		.loc 1 564 0
 1600 0004 87B0     		sub	sp, sp, #28
 1601              		.cfi_def_cfa_offset 48
 566:.\20648_driver\drivers/inv_mems_mpu_fifo_control.c ****     int need_sz=0;
 1602              		.loc 1 566 0
 1603 0006 0595     		str	r5, [sp, #20]
 1604              	.LVL162:
 572:.\20648_driver\drivers/inv_mems_mpu_fifo_control.c ****         return -1;
 1605              		.loc 1 572 0
 1606 0008 A842     		cmp	r0, r5
 1607 000a 6FD0     		beq	.L268
 1608 000c 1F1C     		mov	r7, r3
 1609 000e 0392     		str	r2, [sp, #12]
 575:.\20648_driver\drivers/inv_mems_mpu_fifo_control.c ****     {
 1610              		.loc 1 575 0
 1611 0010 0368     		ldr	r3, [r0]
 1612              	.LVL163:
 1613 0012 394A     		ldr	r2, .L286
 1614              	.LVL164:
 1615 0014 0291     		str	r1, [sp, #8]
 1616 0016 041C     		mov	r4, r0
 1617 0018 9342     		cmp	r3, r2
 1618 001a 11DC     		bgt	.L259
 577:.\20648_driver\drivers/inv_mems_mpu_fifo_control.c ****         //sprintf(test_str, "Left in FIFO: %d\r\n",*left_in_fifo);
 1619              		.loc 1 577 0
 1620 001c 8020     		mov	r0, #128
 1621              	.LVL165:
 1622 001e 3749     		ldr	r1, .L286+4
 1623              	.LVL166:
 1624 0020 C000     		lsl	r0, r0, #3
 1625 0022 0831     		add	r1, r1, #8
 1626 0024 C01A     		sub	r0, r0, r3
 1627 0026 C918     		add	r1, r1, r3
 1628 0028 05AA     		add	r2, sp, #20
 1629 002a FFF7FEFF 		bl	dmp_get_fifo_all
 1630              	.LVL167:
 1631 002e 2368     		ldr	r3, [r4]
 1632 0030 1818     		add	r0, r3, r0
 580:.\20648_driver\drivers/inv_mems_mpu_fifo_control.c ****         {
ARM GAS  C:\Users\ADMINI~1\AppData\Local\Temp\ccRFd3Cg.s 			page 47


 1633              		.loc 1 580 0
 1634 0032 059B     		ldr	r3, [sp, #20]
 577:.\20648_driver\drivers/inv_mems_mpu_fifo_control.c ****         //sprintf(test_str, "Left in FIFO: %d\r\n",*left_in_fifo);
 1635              		.loc 1 577 0
 1636 0034 2060     		str	r0, [r4]
 580:.\20648_driver\drivers/inv_mems_mpu_fifo_control.c ****         {
 1637              		.loc 1 580 0
 1638 0036 AB42     		cmp	r3, r5
 1639 0038 02D0     		beq	.L259
 582:.\20648_driver\drivers/inv_mems_mpu_fifo_control.c ****             return -1;
 1640              		.loc 1 582 0
 1641 003a 2560     		str	r5, [r4]
 583:.\20648_driver\drivers/inv_mems_mpu_fifo_control.c ****         }
 1642              		.loc 1 583 0
 1643 003c 013D     		sub	r5, r5, #1
 1644 003e 57E0     		b	.L258
 1645              	.L259:
 587:.\20648_driver\drivers/inv_mems_mpu_fifo_control.c **** 	// no need to extract number of sample per sensor for current function, so provide 0 as last param
 1646              		.loc 1 587 0
 1647 0040 2368     		ldr	r3, [r4]
 1648 0042 032B     		cmp	r3, #3
 1649 0044 01DC     		bgt	.L260
 1650              	.LVL168:
 1651              	.L267:
 633:.\20648_driver\drivers/inv_mems_mpu_fifo_control.c **** }
 1652              		.loc 1 633 0
 1653 0046 0025     		mov	r5, #0
 1654 0048 52E0     		b	.L258
 1655              	.LVL169:
 1656              	.L260:
 589:.\20648_driver\drivers/inv_mems_mpu_fifo_control.c ****         
 1657              		.loc 1 589 0
 1658 004a 2C4E     		ldr	r6, .L286+4
 1659 004c 2C4D     		ldr	r5, .L286+8
 1660 004e 301C     		mov	r0, r6
 1661 0050 0023     		mov	r3, #0
 1662 0052 0830     		add	r0, r0, #8
 1663 0054 291C     		mov	r1, r5
 1664 0056 2B4A     		ldr	r2, .L286+12
 1665 0058 FFF7FEFF 		bl	get_packet_size_and_samplecnt
 1666              	.LVL170:
 592:.\20648_driver\drivers/inv_mems_mpu_fifo_control.c ****             result = fifo_info.fifoError;
 1667              		.loc 1 592 0
 1668 005c 2368     		ldr	r3, [r4]
 589:.\20648_driver\drivers/inv_mems_mpu_fifo_control.c ****         
 1669              		.loc 1 589 0
 1670 005e 0190     		str	r0, [sp, #4]
 1671              	.LVL171:
 592:.\20648_driver\drivers/inv_mems_mpu_fifo_control.c ****             result = fifo_info.fifoError;
 1672              		.loc 1 592 0
 1673 0060 8342     		cmp	r3, r0
 1674 0062 03DA     		bge	.L261
 594:.\20648_driver\drivers/inv_mems_mpu_fifo_control.c ****             return result;
 1675              		.loc 1 594 0
 1676 0064 0023     		mov	r3, #0
 593:.\20648_driver\drivers/inv_mems_mpu_fifo_control.c ****             fifo_info.fifoError = 0;
 1677              		.loc 1 593 0
ARM GAS  C:\Users\ADMINI~1\AppData\Local\Temp\ccRFd3Cg.s 			page 48


 1678 0066 3568     		ldr	r5, [r6]
 1679              	.LVL172:
 594:.\20648_driver\drivers/inv_mems_mpu_fifo_control.c ****             return result;
 1680              		.loc 1 594 0
 1681 0068 3360     		str	r3, [r6]
 595:.\20648_driver\drivers/inv_mems_mpu_fifo_control.c ****         }
 1682              		.loc 1 595 0
 1683 006a 41E0     		b	.L258
 1684              	.LVL173:
 1685              	.L261:
 598:.\20648_driver\drivers/inv_mems_mpu_fifo_control.c ****             *user_header = fd.header;
 1686              		.loc 1 598 0
 1687 006c 029B     		ldr	r3, [sp, #8]
 1688 006e 002B     		cmp	r3, #0
 1689 0070 02D0     		beq	.L262
 599:.\20648_driver\drivers/inv_mems_mpu_fifo_control.c ****         
 1690              		.loc 1 599 0
 1691 0072 2B88     		ldrh	r3, [r5]
 1692 0074 029A     		ldr	r2, [sp, #8]
 1693 0076 1380     		strh	r3, [r2]
 1694              	.L262:
 601:.\20648_driver\drivers/inv_mems_mpu_fifo_control.c ****             *user_header2 = fd.header2;
 1695              		.loc 1 601 0
 1696 0078 039B     		ldr	r3, [sp, #12]
 1697 007a 002B     		cmp	r3, #0
 1698 007c 04D0     		beq	.L263
 602:.\20648_driver\drivers/inv_mems_mpu_fifo_control.c ****         
 1699              		.loc 1 602 0
 1700 007e 224B     		ldr	r3, .L286+16
 1701 0080 039A     		ldr	r2, [sp, #12]
 1702 0082 9C33     		add	r3, r3, #156
 1703 0084 1B88     		ldrh	r3, [r3]
 1704 0086 1380     		strh	r3, [r2]
 1705              	.L263:
 604:.\20648_driver\drivers/inv_mems_mpu_fifo_control.c ****             // Decode error
 1706              		.loc 1 604 0
 1707 0088 1F4B     		ldr	r3, .L286+16
 1708 008a 9A33     		add	r3, r3, #154
 1709 008c 1E88     		ldrh	r6, [r3]
 1710 008e 1E4B     		ldr	r3, .L286+16
 1711 0090 301C     		mov	r0, r6
 1712              	.LVL174:
 1713 0092 9C33     		add	r3, r3, #156
 1714 0094 1988     		ldrh	r1, [r3]
 1715 0096 FFF7FEFF 		bl	check_fifo_decoded_headers
 1716              	.LVL175:
 1717 009a 051E     		sub	r5, r0, #0
 1718 009c 04D0     		beq	.L264
 606:.\20648_driver\drivers/inv_mems_mpu_fifo_control.c ****             *left_in_fifo = 0;
 1719              		.loc 1 606 0
 1720 009e FFF7FEFF 		bl	dmp_reset_fifo
 1721              	.LVL176:
 607:.\20648_driver\drivers/inv_mems_mpu_fifo_control.c ****             return -1;
 1722              		.loc 1 607 0
 1723 00a2 0023     		mov	r3, #0
 1724 00a4 2360     		str	r3, [r4]
 1725 00a6 21E0     		b	.L268
ARM GAS  C:\Users\ADMINI~1\AppData\Local\Temp\ccRFd3Cg.s 			page 49


 1726              	.L264:
 1727              	.LVL177:
 611:.\20648_driver\drivers/inv_mems_mpu_fifo_control.c ****         
 1728              		.loc 1 611 0
 1729 00a8 144B     		ldr	r3, .L286+4
 1730 00aa 0A33     		add	r3, r3, #10
 1731 00ac 0293     		str	r3, [sp, #8]
 1732              	.LVL178:
 613:.\20648_driver\drivers/inv_mems_mpu_fifo_control.c ****             fifo_ptr += HEADER2_SZ;        
 1733              		.loc 1 613 0
 1734 00ae 3307     		lsl	r3, r6, #28
 1735 00b0 02D5     		bpl	.L265
 614:.\20648_driver\drivers/inv_mems_mpu_fifo_control.c ****         
 1736              		.loc 1 614 0
 1737 00b2 124B     		ldr	r3, .L286+4
 1738 00b4 0C33     		add	r3, r3, #12
 1739 00b6 0293     		str	r3, [sp, #8]
 1740              	.L265:
 1741              	.LVL179:
 617:.\20648_driver\drivers/inv_mems_mpu_fifo_control.c ****         
 1742              		.loc 1 617 0
 1743 00b8 FFF7FEFF 		bl	inv_get_tick_count
 1744              	.LVL180:
 619:.\20648_driver\drivers/inv_mems_mpu_fifo_control.c **** 
 1745              		.loc 1 619 0
 1746 00bc 0299     		ldr	r1, [sp, #8]
 617:.\20648_driver\drivers/inv_mems_mpu_fifo_control.c ****         
 1747              		.loc 1 617 0
 1748 00be C317     		asr	r3, r0, #31
 1749 00c0 061C     		mov	r6, r0
 619:.\20648_driver\drivers/inv_mems_mpu_fifo_control.c **** 
 1750              		.loc 1 619 0
 1751 00c2 1148     		ldr	r0, .L286+16
 617:.\20648_driver\drivers/inv_mems_mpu_fifo_control.c ****         
 1752              		.loc 1 617 0
 1753 00c4 0393     		str	r3, [sp, #12]
 1754              	.LVL181:
 619:.\20648_driver\drivers/inv_mems_mpu_fifo_control.c **** 
 1755              		.loc 1 619 0
 1756 00c6 FFF7FEFF 		bl	inv_decode_one_ivory_fifo_packet
 1757              	.LVL182:
 621:.\20648_driver\drivers/inv_mems_mpu_fifo_control.c ****             *time_stamp = ts;
 1758              		.loc 1 621 0
 1759 00ca 002F     		cmp	r7, #0
 1760 00cc 02D0     		beq	.L266
 622:.\20648_driver\drivers/inv_mems_mpu_fifo_control.c ****         
 1761              		.loc 1 622 0
 1762 00ce 039B     		ldr	r3, [sp, #12]
 1763 00d0 3E60     		str	r6, [r7]
 1764 00d2 7B60     		str	r3, [r7, #4]
 1765              	.L266:
 628:.\20648_driver\drivers/inv_mems_mpu_fifo_control.c ****         if (*left_in_fifo) 
 1766              		.loc 1 628 0
 1767 00d4 2368     		ldr	r3, [r4]
 1768 00d6 019A     		ldr	r2, [sp, #4]
 1769 00d8 9A1A     		sub	r2, r3, r2
 1770 00da 2260     		str	r2, [r4]
ARM GAS  C:\Users\ADMINI~1\AppData\Local\Temp\ccRFd3Cg.s 			page 50


 629:.\20648_driver\drivers/inv_mems_mpu_fifo_control.c ****             memmove(fifo_data, &fifo_data[need_sz], *left_in_fifo);// Data left in FIFO
 1771              		.loc 1 629 0
 1772 00dc B3D0     		beq	.L267
 630:.\20648_driver\drivers/inv_mems_mpu_fifo_control.c ****     }
 1773              		.loc 1 630 0
 1774 00de 0748     		ldr	r0, .L286+4
 1775 00e0 019B     		ldr	r3, [sp, #4]
 1776 00e2 0830     		add	r0, r0, #8
 1777 00e4 C118     		add	r1, r0, r3
 1778 00e6 FFF7FEFF 		bl	memmove
 1779              	.LVL183:
 1780 00ea 01E0     		b	.L258
 1781              	.LVL184:
 1782              	.L268:
 573:.\20648_driver\drivers/inv_mems_mpu_fifo_control.c ****     
 1783              		.loc 1 573 0
 1784 00ec 0125     		mov	r5, #1
 1785 00ee 6D42     		neg	r5, r5
 1786              	.LVL185:
 1787              	.L258:
 634:.\20648_driver\drivers/inv_mems_mpu_fifo_control.c **** 
 1788              		.loc 1 634 0
 1789 00f0 281C     		mov	r0, r5
 1790 00f2 07B0     		add	sp, sp, #28
 1791              		@ sp needed
 1792 00f4 F0BD     		pop	{r4, r5, r6, r7, pc}
 1793              	.L287:
 1794 00f6 C046     		.align	2
 1795              	.L286:
 1796 00f8 FF030000 		.word	1023
 1797 00fc 00000000 		.word	.LANCHOR0
 1798 0100 9A000000 		.word	fd+154
 1799 0104 9C000000 		.word	fd+156
 1800 0108 00000000 		.word	fd
 1801              		.cfi_endproc
 1802              	.LFE15:
 1803              		.size	dmp_process_fifo, .-dmp_process_fifo
 1804              		.section	.text.dmp_get_accel,"ax",%progbits
 1805              		.align	1
 1806              		.global	dmp_get_accel
 1807              		.code	16
 1808              		.thumb_func
 1809              		.type	dmp_get_accel, %function
 1810              	dmp_get_accel:
 1811              	.LFB19:
 820:.\20648_driver\drivers/inv_mems_mpu_fifo_control.c **** 
 821:.\20648_driver\drivers/inv_mems_mpu_fifo_control.c **** inv_error_t dmp_get_accel(long acl[3])
 822:.\20648_driver\drivers/inv_mems_mpu_fifo_control.c **** {
 1812              		.loc 1 822 0
 1813              		.cfi_startproc
 1814              	.LVL186:
 1815 0000 08B5     		push	{r3, lr}
 1816              		.cfi_def_cfa_offset 8
 1817              		.cfi_offset 3, -8
 1818              		.cfi_offset 14, -4
 823:.\20648_driver\drivers/inv_mems_mpu_fifo_control.c ****     if(!acl) return -1;
 1819              		.loc 1 823 0
ARM GAS  C:\Users\ADMINI~1\AppData\Local\Temp\ccRFd3Cg.s 			page 51


 1820 0002 0028     		cmp	r0, #0
 1821 0004 05D0     		beq	.L290
 824:.\20648_driver\drivers/inv_mems_mpu_fifo_control.c ****     memcpy( acl, fd.accel, 3*sizeof(long));
 1822              		.loc 1 824 0
 1823 0006 0449     		ldr	r1, .L291
 1824 0008 0C22     		mov	r2, #12
 1825 000a FFF7FEFF 		bl	memcpy
 1826              	.LVL187:
 825:.\20648_driver\drivers/inv_mems_mpu_fifo_control.c ****     return MPU_SUCCESS;
 1827              		.loc 1 825 0
 1828 000e 0020     		mov	r0, #0
 1829 0010 01E0     		b	.L289
 1830              	.LVL188:
 1831              	.L290:
 823:.\20648_driver\drivers/inv_mems_mpu_fifo_control.c ****     if(!acl) return -1;
 1832              		.loc 1 823 0
 1833 0012 0120     		mov	r0, #1
 1834              	.LVL189:
 1835 0014 4042     		neg	r0, r0
 1836              	.L289:
 826:.\20648_driver\drivers/inv_mems_mpu_fifo_control.c **** } 
 1837              		.loc 1 826 0
 1838              		@ sp needed
 1839 0016 08BD     		pop	{r3, pc}
 1840              	.L292:
 1841              		.align	2
 1842              	.L291:
 1843 0018 34000000 		.word	fd+52
 1844              		.cfi_endproc
 1845              	.LFE19:
 1846              		.size	dmp_get_accel, .-dmp_get_accel
 1847              		.section	.text.dmp_get_raw_gyro,"ax",%progbits
 1848              		.align	1
 1849              		.global	dmp_get_raw_gyro
 1850              		.code	16
 1851              		.thumb_func
 1852              		.type	dmp_get_raw_gyro, %function
 1853              	dmp_get_raw_gyro:
 1854              	.LFB20:
 827:.\20648_driver\drivers/inv_mems_mpu_fifo_control.c **** 
 828:.\20648_driver\drivers/inv_mems_mpu_fifo_control.c **** inv_error_t dmp_get_raw_gyro(short raw_gyro[3])
 829:.\20648_driver\drivers/inv_mems_mpu_fifo_control.c **** {
 1855              		.loc 1 829 0
 1856              		.cfi_startproc
 1857              	.LVL190:
 830:.\20648_driver\drivers/inv_mems_mpu_fifo_control.c ****     if(!raw_gyro) return -1;
 1858              		.loc 1 830 0
 1859 0000 0028     		cmp	r0, #0
 1860 0002 0BD0     		beq	.L295
 831:.\20648_driver\drivers/inv_mems_mpu_fifo_control.c ****     raw_gyro[0] = fd.gyro[0];
 1861              		.loc 1 831 0
 1862 0004 074B     		ldr	r3, .L296
 1863 0006 9A1C     		add	r2, r3, #2
 1864 0008 D28F     		ldrh	r2, [r2, #62]
 1865 000a 0280     		strh	r2, [r0]
 832:.\20648_driver\drivers/inv_mems_mpu_fifo_control.c ****     raw_gyro[1] = fd.gyro[1];
 1866              		.loc 1 832 0
ARM GAS  C:\Users\ADMINI~1\AppData\Local\Temp\ccRFd3Cg.s 			page 52


 1867 000c 1A1D     		add	r2, r3, #4
 1868 000e D28F     		ldrh	r2, [r2, #62]
 833:.\20648_driver\drivers/inv_mems_mpu_fifo_control.c ****     raw_gyro[2] = fd.gyro[2];
 1869              		.loc 1 833 0
 1870 0010 0633     		add	r3, r3, #6
 832:.\20648_driver\drivers/inv_mems_mpu_fifo_control.c ****     raw_gyro[1] = fd.gyro[1];
 1871              		.loc 1 832 0
 1872 0012 4280     		strh	r2, [r0, #2]
 1873              		.loc 1 833 0
 1874 0014 DB8F     		ldrh	r3, [r3, #62]
 1875 0016 8380     		strh	r3, [r0, #4]
 834:.\20648_driver\drivers/inv_mems_mpu_fifo_control.c ****     return MPU_SUCCESS;
 1876              		.loc 1 834 0
 1877 0018 0020     		mov	r0, #0
 1878              	.LVL191:
 1879 001a 01E0     		b	.L294
 1880              	.LVL192:
 1881              	.L295:
 830:.\20648_driver\drivers/inv_mems_mpu_fifo_control.c ****     raw_gyro[0] = fd.gyro[0];
 1882              		.loc 1 830 0
 1883 001c 0120     		mov	r0, #1
 1884              	.LVL193:
 1885 001e 4042     		neg	r0, r0
 1886              	.L294:
 835:.\20648_driver\drivers/inv_mems_mpu_fifo_control.c **** }
 1887              		.loc 1 835 0
 1888              		@ sp needed
 1889 0020 7047     		bx	lr
 1890              	.L297:
 1891 0022 C046     		.align	2
 1892              	.L296:
 1893 0024 00000000 		.word	fd
 1894              		.cfi_endproc
 1895              	.LFE20:
 1896              		.size	dmp_get_raw_gyro, .-dmp_get_raw_gyro
 1897              		.section	.text.dmp_get_gyro_bias,"ax",%progbits
 1898              		.align	1
 1899              		.global	dmp_get_gyro_bias
 1900              		.code	16
 1901              		.thumb_func
 1902              		.type	dmp_get_gyro_bias, %function
 1903              	dmp_get_gyro_bias:
 1904              	.LFB21:
 836:.\20648_driver\drivers/inv_mems_mpu_fifo_control.c **** 
 837:.\20648_driver\drivers/inv_mems_mpu_fifo_control.c **** #if defined MEMS_SECONDARY_DEVICE
 838:.\20648_driver\drivers/inv_mems_mpu_fifo_control.c **** inv_error_t dmp_get_pressure_raw(short pressure[3])
 839:.\20648_driver\drivers/inv_mems_mpu_fifo_control.c **** {
 840:.\20648_driver\drivers/inv_mems_mpu_fifo_control.c ****     if(!pressure) return -1;
 841:.\20648_driver\drivers/inv_mems_mpu_fifo_control.c ****     memcpy( pressure, fd.pressure, 3*sizeof(short));  
 842:.\20648_driver\drivers/inv_mems_mpu_fifo_control.c ****     return MPU_SUCCESS;
 843:.\20648_driver\drivers/inv_mems_mpu_fifo_control.c **** }
 844:.\20648_driver\drivers/inv_mems_mpu_fifo_control.c **** 
 845:.\20648_driver\drivers/inv_mems_mpu_fifo_control.c **** inv_error_t dmp_get_pressure_temperature(unsigned int * pressure, signed int * temperature)
 846:.\20648_driver\drivers/inv_mems_mpu_fifo_control.c **** {
 847:.\20648_driver\drivers/inv_mems_mpu_fifo_control.c ****     short pressure_raw[3];
 848:.\20648_driver\drivers/inv_mems_mpu_fifo_control.c ****     if(!pressure) return -1;
 849:.\20648_driver\drivers/inv_mems_mpu_fifo_control.c ****     if(!temperature) return -1;
ARM GAS  C:\Users\ADMINI~1\AppData\Local\Temp\ccRFd3Cg.s 			page 53


 850:.\20648_driver\drivers/inv_mems_mpu_fifo_control.c **** 
 851:.\20648_driver\drivers/inv_mems_mpu_fifo_control.c ****     if (dmp_get_pressure_raw(pressure_raw)) return -1;
 852:.\20648_driver\drivers/inv_mems_mpu_fifo_control.c **** 
 853:.\20648_driver\drivers/inv_mems_mpu_fifo_control.c ****     return inv_mems_pressure_bmp280_rawToPascal((unsigned short *)pressure_raw, pressure, temperatu
 854:.\20648_driver\drivers/inv_mems_mpu_fifo_control.c **** }
 855:.\20648_driver\drivers/inv_mems_mpu_fifo_control.c **** #endif
 856:.\20648_driver\drivers/inv_mems_mpu_fifo_control.c **** #if (MEMS_CHIP == HW_ICM20609)
 857:.\20648_driver\drivers/inv_mems_mpu_fifo_control.c **** inv_error_t dmp_get_gyro_bias(long gyro_bias[3])
 858:.\20648_driver\drivers/inv_mems_mpu_fifo_control.c **** {
 859:.\20648_driver\drivers/inv_mems_mpu_fifo_control.c ****     if(!gyro_bias) return -1;  
 860:.\20648_driver\drivers/inv_mems_mpu_fifo_control.c ****     memcpy(gyro_bias, fd.gyro_bias, 3*sizeof(long)); 
 861:.\20648_driver\drivers/inv_mems_mpu_fifo_control.c ****     return MPU_SUCCESS;
 862:.\20648_driver\drivers/inv_mems_mpu_fifo_control.c **** }
 863:.\20648_driver\drivers/inv_mems_mpu_fifo_control.c **** 
 864:.\20648_driver\drivers/inv_mems_mpu_fifo_control.c **** inv_error_t inv_mems_dmp_get_calibrated_gyro(signed long calibratedData[3], short raw[3], signed lo
 865:.\20648_driver\drivers/inv_mems_mpu_fifo_control.c **** {
 866:.\20648_driver\drivers/inv_mems_mpu_fifo_control.c ****     if(!calibratedData) return -1;  
 867:.\20648_driver\drivers/inv_mems_mpu_fifo_control.c ****     if(!raw) return -1;  
 868:.\20648_driver\drivers/inv_mems_mpu_fifo_control.c ****     if(!bias) return -1;  
 869:.\20648_driver\drivers/inv_mems_mpu_fifo_control.c ****     signed long scaled_bias[3];
 870:.\20648_driver\drivers/inv_mems_mpu_fifo_control.c ****     
 871:.\20648_driver\drivers/inv_mems_mpu_fifo_control.c ****     for (int i =0; i<3; i++)
 872:.\20648_driver\drivers/inv_mems_mpu_fifo_control.c ****       scaled_bias[i] = ((bias[i] << 14)/2859) << 1;
 873:.\20648_driver\drivers/inv_mems_mpu_fifo_control.c ****     
 874:.\20648_driver\drivers/inv_mems_mpu_fifo_control.c ****     calibratedData[0] = (raw[0]<<15) - scaled_bias[0];
 875:.\20648_driver\drivers/inv_mems_mpu_fifo_control.c ****     calibratedData[1] = (raw[1]<<15) - scaled_bias[1];
 876:.\20648_driver\drivers/inv_mems_mpu_fifo_control.c ****     calibratedData[2] = (raw[2]<<15) - scaled_bias[2];
 877:.\20648_driver\drivers/inv_mems_mpu_fifo_control.c ****     
 878:.\20648_driver\drivers/inv_mems_mpu_fifo_control.c ****     return MPU_SUCCESS;
 879:.\20648_driver\drivers/inv_mems_mpu_fifo_control.c **** }
 880:.\20648_driver\drivers/inv_mems_mpu_fifo_control.c **** #endif
 881:.\20648_driver\drivers/inv_mems_mpu_fifo_control.c **** 
 882:.\20648_driver\drivers/inv_mems_mpu_fifo_control.c **** #if ((MEMS_CHIP == HW_ICM30630) || (MEMS_CHIP == HW_ICM20648))
 883:.\20648_driver\drivers/inv_mems_mpu_fifo_control.c **** inv_error_t dmp_get_gyro_bias(short gyro_bias[3])
 884:.\20648_driver\drivers/inv_mems_mpu_fifo_control.c **** {
 1905              		.loc 1 884 0
 1906              		.cfi_startproc
 1907              	.LVL194:
 1908 0000 08B5     		push	{r3, lr}
 1909              		.cfi_def_cfa_offset 8
 1910              		.cfi_offset 3, -8
 1911              		.cfi_offset 14, -4
 885:.\20648_driver\drivers/inv_mems_mpu_fifo_control.c ****     if(!gyro_bias) return -1;  
 1912              		.loc 1 885 0
 1913 0002 0028     		cmp	r0, #0
 1914 0004 05D0     		beq	.L300
 886:.\20648_driver\drivers/inv_mems_mpu_fifo_control.c ****     memcpy(gyro_bias, fd.gyro_bias, 3*sizeof(short)); 
 1915              		.loc 1 886 0
 1916 0006 0449     		ldr	r1, .L301
 1917 0008 0622     		mov	r2, #6
 1918 000a FFF7FEFF 		bl	memcpy
 1919              	.LVL195:
 887:.\20648_driver\drivers/inv_mems_mpu_fifo_control.c ****     return MPU_SUCCESS;
 1920              		.loc 1 887 0
 1921 000e 0020     		mov	r0, #0
 1922 0010 01E0     		b	.L299
 1923              	.LVL196:
ARM GAS  C:\Users\ADMINI~1\AppData\Local\Temp\ccRFd3Cg.s 			page 54


 1924              	.L300:
 885:.\20648_driver\drivers/inv_mems_mpu_fifo_control.c ****     if(!gyro_bias) return -1;  
 1925              		.loc 1 885 0
 1926 0012 0120     		mov	r0, #1
 1927              	.LVL197:
 1928 0014 4042     		neg	r0, r0
 1929              	.L299:
 888:.\20648_driver\drivers/inv_mems_mpu_fifo_control.c **** }
 1930              		.loc 1 888 0
 1931              		@ sp needed
 1932 0016 08BD     		pop	{r3, pc}
 1933              	.L302:
 1934              		.align	2
 1935              	.L301:
 1936 0018 46000000 		.word	fd+70
 1937              		.cfi_endproc
 1938              	.LFE21:
 1939              		.size	dmp_get_gyro_bias, .-dmp_get_gyro_bias
 1940              		.section	.text.inv_mems_dmp_get_calibrated_gyro,"ax",%progbits
 1941              		.align	1
 1942              		.global	inv_mems_dmp_get_calibrated_gyro
 1943              		.code	16
 1944              		.thumb_func
 1945              		.type	inv_mems_dmp_get_calibrated_gyro, %function
 1946              	inv_mems_dmp_get_calibrated_gyro:
 1947              	.LFB22:
 889:.\20648_driver\drivers/inv_mems_mpu_fifo_control.c **** 
 890:.\20648_driver\drivers/inv_mems_mpu_fifo_control.c **** 
 891:.\20648_driver\drivers/inv_mems_mpu_fifo_control.c **** inv_error_t inv_mems_dmp_get_calibrated_gyro(signed long calibratedData[3], signed long raw[3], sig
 892:.\20648_driver\drivers/inv_mems_mpu_fifo_control.c **** {
 1948              		.loc 1 892 0
 1949              		.cfi_startproc
 1950              	.LVL198:
 1951 0000 10B5     		push	{r4, lr}
 1952              		.cfi_def_cfa_offset 8
 1953              		.cfi_offset 4, -8
 1954              		.cfi_offset 14, -4
 893:.\20648_driver\drivers/inv_mems_mpu_fifo_control.c ****     if(!calibratedData) return -1;  
 1955              		.loc 1 893 0
 1956 0002 0028     		cmp	r0, #0
 1957 0004 11D0     		beq	.L307
 894:.\20648_driver\drivers/inv_mems_mpu_fifo_control.c ****     if(!raw) return -1;  
 1958              		.loc 1 894 0
 1959 0006 0029     		cmp	r1, #0
 1960 0008 0FD0     		beq	.L307
 895:.\20648_driver\drivers/inv_mems_mpu_fifo_control.c ****     if(!bias) return -1;  
 1961              		.loc 1 895 0
 1962 000a 002A     		cmp	r2, #0
 1963 000c 0DD0     		beq	.L307
 896:.\20648_driver\drivers/inv_mems_mpu_fifo_control.c ****     
 897:.\20648_driver\drivers/inv_mems_mpu_fifo_control.c ****     calibratedData[0] = raw[0] - bias[0];
 1964              		.loc 1 897 0
 1965 000e 1468     		ldr	r4, [r2]
 1966 0010 0B68     		ldr	r3, [r1]
 1967 0012 1B1B     		sub	r3, r3, r4
 1968 0014 0360     		str	r3, [r0]
 898:.\20648_driver\drivers/inv_mems_mpu_fifo_control.c ****     calibratedData[1] = raw[1] - bias[1];
ARM GAS  C:\Users\ADMINI~1\AppData\Local\Temp\ccRFd3Cg.s 			page 55


 1969              		.loc 1 898 0
 1970 0016 5468     		ldr	r4, [r2, #4]
 1971 0018 4B68     		ldr	r3, [r1, #4]
 1972 001a 1B1B     		sub	r3, r3, r4
 1973 001c 4360     		str	r3, [r0, #4]
 899:.\20648_driver\drivers/inv_mems_mpu_fifo_control.c ****     calibratedData[2] = raw[2] - bias[2];
 1974              		.loc 1 899 0
 1975 001e 8B68     		ldr	r3, [r1, #8]
 1976 0020 9268     		ldr	r2, [r2, #8]
 1977              	.LVL199:
 1978 0022 9B1A     		sub	r3, r3, r2
 1979 0024 8360     		str	r3, [r0, #8]
 900:.\20648_driver\drivers/inv_mems_mpu_fifo_control.c ****     
 901:.\20648_driver\drivers/inv_mems_mpu_fifo_control.c ****     return MPU_SUCCESS;
 1980              		.loc 1 901 0
 1981 0026 0020     		mov	r0, #0
 1982              	.LVL200:
 1983 0028 01E0     		b	.L304
 1984              	.LVL201:
 1985              	.L307:
 893:.\20648_driver\drivers/inv_mems_mpu_fifo_control.c ****     if(!raw) return -1;  
 1986              		.loc 1 893 0
 1987 002a 0120     		mov	r0, #1
 1988              	.LVL202:
 1989 002c 4042     		neg	r0, r0
 1990              	.LVL203:
 1991              	.L304:
 902:.\20648_driver\drivers/inv_mems_mpu_fifo_control.c **** }
 1992              		.loc 1 902 0
 1993              		@ sp needed
 1994 002e 10BD     		pop	{r4, pc}
 1995              		.cfi_endproc
 1996              	.LFE22:
 1997              		.size	inv_mems_dmp_get_calibrated_gyro, .-inv_mems_dmp_get_calibrated_gyro
 1998              		.section	.text.dmp_get_6quaternion,"ax",%progbits
 1999              		.align	1
 2000              		.global	dmp_get_6quaternion
 2001              		.code	16
 2002              		.thumb_func
 2003              		.type	dmp_get_6quaternion, %function
 2004              	dmp_get_6quaternion:
 2005              	.LFB23:
 903:.\20648_driver\drivers/inv_mems_mpu_fifo_control.c **** #else
 904:.\20648_driver\drivers/inv_mems_mpu_fifo_control.c **** inv_error_t dmp_get_calibrated_gyro(long cal_gyro[3])
 905:.\20648_driver\drivers/inv_mems_mpu_fifo_control.c **** {
 906:.\20648_driver\drivers/inv_mems_mpu_fifo_control.c ****     if(!cal_gyro) return -1;  
 907:.\20648_driver\drivers/inv_mems_mpu_fifo_control.c ****     memcpy(cal_gyro, fd.gyro_calibr, 3*sizeof(long)); 
 908:.\20648_driver\drivers/inv_mems_mpu_fifo_control.c ****     return MPU_SUCCESS;
 909:.\20648_driver\drivers/inv_mems_mpu_fifo_control.c **** }
 910:.\20648_driver\drivers/inv_mems_mpu_fifo_control.c **** #endif
 911:.\20648_driver\drivers/inv_mems_mpu_fifo_control.c **** 
 912:.\20648_driver\drivers/inv_mems_mpu_fifo_control.c **** inv_error_t dmp_get_6quaternion(long quat[3])
 913:.\20648_driver\drivers/inv_mems_mpu_fifo_control.c **** {
 2006              		.loc 1 913 0
 2007              		.cfi_startproc
 2008              	.LVL204:
 2009 0000 08B5     		push	{r3, lr}
ARM GAS  C:\Users\ADMINI~1\AppData\Local\Temp\ccRFd3Cg.s 			page 56


 2010              		.cfi_def_cfa_offset 8
 2011              		.cfi_offset 3, -8
 2012              		.cfi_offset 14, -4
 914:.\20648_driver\drivers/inv_mems_mpu_fifo_control.c ****     if(!quat) return -1;
 2013              		.loc 1 914 0
 2014 0002 0028     		cmp	r0, #0
 2015 0004 05D0     		beq	.L310
 915:.\20648_driver\drivers/inv_mems_mpu_fifo_control.c ****     memcpy( quat, fd.dmp_3e_6quat, sizeof(fd.dmp_3e_6quat));            
 2016              		.loc 1 915 0
 2017 0006 0449     		ldr	r1, .L311
 2018 0008 0C22     		mov	r2, #12
 2019 000a FFF7FEFF 		bl	memcpy
 2020              	.LVL205:
 916:.\20648_driver\drivers/inv_mems_mpu_fifo_control.c ****     return MPU_SUCCESS;
 2021              		.loc 1 916 0
 2022 000e 0020     		mov	r0, #0
 2023 0010 01E0     		b	.L309
 2024              	.LVL206:
 2025              	.L310:
 914:.\20648_driver\drivers/inv_mems_mpu_fifo_control.c ****     if(!quat) return -1;
 2026              		.loc 1 914 0
 2027 0012 0120     		mov	r0, #1
 2028              	.LVL207:
 2029 0014 4042     		neg	r0, r0
 2030              	.L309:
 917:.\20648_driver\drivers/inv_mems_mpu_fifo_control.c **** }
 2031              		.loc 1 917 0
 2032              		@ sp needed
 2033 0016 08BD     		pop	{r3, pc}
 2034              	.L312:
 2035              		.align	2
 2036              	.L311:
 2037 0018 00000000 		.word	fd
 2038              		.cfi_endproc
 2039              	.LFE23:
 2040              		.size	dmp_get_6quaternion, .-dmp_get_6quaternion
 2041              		.section	.text.dmp_get_9quaternion,"ax",%progbits
 2042              		.align	1
 2043              		.global	dmp_get_9quaternion
 2044              		.code	16
 2045              		.thumb_func
 2046              		.type	dmp_get_9quaternion, %function
 2047              	dmp_get_9quaternion:
 2048              	.LFB24:
 918:.\20648_driver\drivers/inv_mems_mpu_fifo_control.c **** 
 919:.\20648_driver\drivers/inv_mems_mpu_fifo_control.c **** inv_error_t dmp_get_9quaternion(long quat[3])
 920:.\20648_driver\drivers/inv_mems_mpu_fifo_control.c **** {
 2049              		.loc 1 920 0
 2050              		.cfi_startproc
 2051              	.LVL208:
 2052 0000 08B5     		push	{r3, lr}
 2053              		.cfi_def_cfa_offset 8
 2054              		.cfi_offset 3, -8
 2055              		.cfi_offset 14, -4
 921:.\20648_driver\drivers/inv_mems_mpu_fifo_control.c ****     if(!quat) return -1;
 2056              		.loc 1 921 0
 2057 0002 0028     		cmp	r0, #0
ARM GAS  C:\Users\ADMINI~1\AppData\Local\Temp\ccRFd3Cg.s 			page 57


 2058 0004 05D0     		beq	.L315
 922:.\20648_driver\drivers/inv_mems_mpu_fifo_control.c ****     memcpy( quat, fd.dmp_3e_9quat, sizeof(fd.dmp_3e_9quat));            
 2059              		.loc 1 922 0
 2060 0006 0449     		ldr	r1, .L316
 2061 0008 0C22     		mov	r2, #12
 2062 000a FFF7FEFF 		bl	memcpy
 2063              	.LVL209:
 923:.\20648_driver\drivers/inv_mems_mpu_fifo_control.c ****     return MPU_SUCCESS;
 2064              		.loc 1 923 0
 2065 000e 0020     		mov	r0, #0
 2066 0010 01E0     		b	.L314
 2067              	.LVL210:
 2068              	.L315:
 921:.\20648_driver\drivers/inv_mems_mpu_fifo_control.c ****     if(!quat) return -1;
 2069              		.loc 1 921 0
 2070 0012 0120     		mov	r0, #1
 2071              	.LVL211:
 2072 0014 4042     		neg	r0, r0
 2073              	.L314:
 924:.\20648_driver\drivers/inv_mems_mpu_fifo_control.c **** }
 2074              		.loc 1 924 0
 2075              		@ sp needed
 2076 0016 08BD     		pop	{r3, pc}
 2077              	.L317:
 2078              		.align	2
 2079              	.L316:
 2080 0018 0C000000 		.word	fd+12
 2081              		.cfi_endproc
 2082              	.LFE24:
 2083              		.size	dmp_get_9quaternion, .-dmp_get_9quaternion
 2084              		.section	.text.dmp_get_gmrvquaternion,"ax",%progbits
 2085              		.align	1
 2086              		.global	dmp_get_gmrvquaternion
 2087              		.code	16
 2088              		.thumb_func
 2089              		.type	dmp_get_gmrvquaternion, %function
 2090              	dmp_get_gmrvquaternion:
 2091              	.LFB25:
 925:.\20648_driver\drivers/inv_mems_mpu_fifo_control.c **** 
 926:.\20648_driver\drivers/inv_mems_mpu_fifo_control.c **** #if (MEMS_CHIP == HW_ICM20648) 
 927:.\20648_driver\drivers/inv_mems_mpu_fifo_control.c **** inv_error_t dmp_get_gmrvquaternion(long quat[3])
 928:.\20648_driver\drivers/inv_mems_mpu_fifo_control.c **** {
 2092              		.loc 1 928 0
 2093              		.cfi_startproc
 2094              	.LVL212:
 2095 0000 08B5     		push	{r3, lr}
 2096              		.cfi_def_cfa_offset 8
 2097              		.cfi_offset 3, -8
 2098              		.cfi_offset 14, -4
 929:.\20648_driver\drivers/inv_mems_mpu_fifo_control.c ****     if(!quat) return -1;
 2099              		.loc 1 929 0
 2100 0002 0028     		cmp	r0, #0
 2101 0004 05D0     		beq	.L320
 930:.\20648_driver\drivers/inv_mems_mpu_fifo_control.c ****     memcpy( quat, fd.dmp_3e_geomagquat, sizeof(fd.dmp_3e_geomagquat));            
 2102              		.loc 1 930 0
 2103 0006 0449     		ldr	r1, .L321
 2104 0008 0C22     		mov	r2, #12
ARM GAS  C:\Users\ADMINI~1\AppData\Local\Temp\ccRFd3Cg.s 			page 58


 2105 000a FFF7FEFF 		bl	memcpy
 2106              	.LVL213:
 931:.\20648_driver\drivers/inv_mems_mpu_fifo_control.c ****     return MPU_SUCCESS;
 2107              		.loc 1 931 0
 2108 000e 0020     		mov	r0, #0
 2109 0010 01E0     		b	.L319
 2110              	.LVL214:
 2111              	.L320:
 929:.\20648_driver\drivers/inv_mems_mpu_fifo_control.c ****     if(!quat) return -1;
 2112              		.loc 1 929 0
 2113 0012 0120     		mov	r0, #1
 2114              	.LVL215:
 2115 0014 4042     		neg	r0, r0
 2116              	.L319:
 932:.\20648_driver\drivers/inv_mems_mpu_fifo_control.c **** }
 2117              		.loc 1 932 0
 2118              		@ sp needed
 2119 0016 08BD     		pop	{r3, pc}
 2120              	.L322:
 2121              		.align	2
 2122              	.L321:
 2123 0018 1C000000 		.word	fd+28
 2124              		.cfi_endproc
 2125              	.LFE25:
 2126              		.size	dmp_get_gmrvquaternion, .-dmp_get_gmrvquaternion
 2127              		.section	.text.dmp_get_raw_compass,"ax",%progbits
 2128              		.align	1
 2129              		.global	dmp_get_raw_compass
 2130              		.code	16
 2131              		.thumb_func
 2132              		.type	dmp_get_raw_compass, %function
 2133              	dmp_get_raw_compass:
 2134              	.LFB26:
 933:.\20648_driver\drivers/inv_mems_mpu_fifo_control.c **** #endif
 934:.\20648_driver\drivers/inv_mems_mpu_fifo_control.c **** 
 935:.\20648_driver\drivers/inv_mems_mpu_fifo_control.c **** inv_error_t dmp_get_raw_compass(long raw_compass[3])
 936:.\20648_driver\drivers/inv_mems_mpu_fifo_control.c **** {
 2135              		.loc 1 936 0
 2136              		.cfi_startproc
 2137              	.LVL216:
 2138 0000 08B5     		push	{r3, lr}
 2139              		.cfi_def_cfa_offset 8
 2140              		.cfi_offset 3, -8
 2141              		.cfi_offset 14, -4
 937:.\20648_driver\drivers/inv_mems_mpu_fifo_control.c ****     if(!raw_compass) return -1;
 2142              		.loc 1 937 0
 2143 0002 0028     		cmp	r0, #0
 2144 0004 05D0     		beq	.L325
 938:.\20648_driver\drivers/inv_mems_mpu_fifo_control.c ****     memcpy( raw_compass, fd.compass, 3*sizeof(long)); 
 2145              		.loc 1 938 0
 2146 0006 0449     		ldr	r1, .L326
 2147 0008 0C22     		mov	r2, #12
 2148 000a FFF7FEFF 		bl	memcpy
 2149              	.LVL217:
 939:.\20648_driver\drivers/inv_mems_mpu_fifo_control.c ****     return MPU_SUCCESS;
 2150              		.loc 1 939 0
 2151 000e 0020     		mov	r0, #0
ARM GAS  C:\Users\ADMINI~1\AppData\Local\Temp\ccRFd3Cg.s 			page 59


 2152 0010 01E0     		b	.L324
 2153              	.LVL218:
 2154              	.L325:
 937:.\20648_driver\drivers/inv_mems_mpu_fifo_control.c ****     if(!raw_compass) return -1;
 2155              		.loc 1 937 0
 2156 0012 0120     		mov	r0, #1
 2157              	.LVL219:
 2158 0014 4042     		neg	r0, r0
 2159              	.L324:
 940:.\20648_driver\drivers/inv_mems_mpu_fifo_control.c **** }
 2160              		.loc 1 940 0
 2161              		@ sp needed
 2162 0016 08BD     		pop	{r3, pc}
 2163              	.L327:
 2164              		.align	2
 2165              	.L326:
 2166 0018 58000000 		.word	fd+88
 2167              		.cfi_endproc
 2168              	.LFE26:
 2169              		.size	dmp_get_raw_compass, .-dmp_get_raw_compass
 2170              		.section	.text.dmp_get_calibrated_compass,"ax",%progbits
 2171              		.align	1
 2172              		.global	dmp_get_calibrated_compass
 2173              		.code	16
 2174              		.thumb_func
 2175              		.type	dmp_get_calibrated_compass, %function
 2176              	dmp_get_calibrated_compass:
 2177              	.LFB27:
 941:.\20648_driver\drivers/inv_mems_mpu_fifo_control.c **** 
 942:.\20648_driver\drivers/inv_mems_mpu_fifo_control.c **** inv_error_t dmp_get_calibrated_compass(long cal_compass[3])
 943:.\20648_driver\drivers/inv_mems_mpu_fifo_control.c **** {
 2178              		.loc 1 943 0
 2179              		.cfi_startproc
 2180              	.LVL220:
 2181 0000 08B5     		push	{r3, lr}
 2182              		.cfi_def_cfa_offset 8
 2183              		.cfi_offset 3, -8
 2184              		.cfi_offset 14, -4
 944:.\20648_driver\drivers/inv_mems_mpu_fifo_control.c ****     if(!cal_compass) return -1;
 2185              		.loc 1 944 0
 2186 0002 0028     		cmp	r0, #0
 2187 0004 05D0     		beq	.L330
 945:.\20648_driver\drivers/inv_mems_mpu_fifo_control.c ****     memcpy( cal_compass, fd.cpass_calibr, 3*sizeof(long));  
 2188              		.loc 1 945 0
 2189 0006 0449     		ldr	r1, .L331
 2190 0008 0C22     		mov	r2, #12
 2191 000a FFF7FEFF 		bl	memcpy
 2192              	.LVL221:
 946:.\20648_driver\drivers/inv_mems_mpu_fifo_control.c ****     return MPU_SUCCESS;
 2193              		.loc 1 946 0
 2194 000e 0020     		mov	r0, #0
 2195 0010 01E0     		b	.L329
 2196              	.LVL222:
 2197              	.L330:
 944:.\20648_driver\drivers/inv_mems_mpu_fifo_control.c ****     if(!cal_compass) return -1;
 2198              		.loc 1 944 0
 2199 0012 0120     		mov	r0, #1
ARM GAS  C:\Users\ADMINI~1\AppData\Local\Temp\ccRFd3Cg.s 			page 60


 2200              	.LVL223:
 2201 0014 4042     		neg	r0, r0
 2202              	.L329:
 947:.\20648_driver\drivers/inv_mems_mpu_fifo_control.c **** }
 2203              		.loc 1 947 0
 2204              		@ sp needed
 2205 0016 08BD     		pop	{r3, pc}
 2206              	.L332:
 2207              		.align	2
 2208              	.L331:
 2209 0018 64000000 		.word	fd+100
 2210              		.cfi_endproc
 2211              	.LFE27:
 2212              		.size	dmp_get_calibrated_compass, .-dmp_get_calibrated_compass
 2213              		.section	.text.dmp_get_bac_state,"ax",%progbits
 2214              		.align	1
 2215              		.global	dmp_get_bac_state
 2216              		.code	16
 2217              		.thumb_func
 2218              		.type	dmp_get_bac_state, %function
 2219              	dmp_get_bac_state:
 2220              	.LFB28:
 948:.\20648_driver\drivers/inv_mems_mpu_fifo_control.c **** 
 949:.\20648_driver\drivers/inv_mems_mpu_fifo_control.c **** inv_error_t dmp_get_bac_state(uint16_t *bac_state)
 950:.\20648_driver\drivers/inv_mems_mpu_fifo_control.c **** {
 2221              		.loc 1 950 0
 2222              		.cfi_startproc
 2223              	.LVL224:
 951:.\20648_driver\drivers/inv_mems_mpu_fifo_control.c **** 	if(!bac_state) return -1;
 2224              		.loc 1 951 0
 2225 0000 0028     		cmp	r0, #0
 2226 0002 05D0     		beq	.L335
 952:.\20648_driver\drivers/inv_mems_mpu_fifo_control.c **** 	*bac_state = fd.bac_state;
 2227              		.loc 1 952 0
 2228 0004 044B     		ldr	r3, .L336
 2229 0006 8433     		add	r3, r3, #132
 2230 0008 1B88     		ldrh	r3, [r3]
 2231 000a 0380     		strh	r3, [r0]
 953:.\20648_driver\drivers/inv_mems_mpu_fifo_control.c **** 	return INV_SUCCESS;
 2232              		.loc 1 953 0
 2233 000c 0020     		mov	r0, #0
 2234              	.LVL225:
 2235 000e 01E0     		b	.L334
 2236              	.LVL226:
 2237              	.L335:
 951:.\20648_driver\drivers/inv_mems_mpu_fifo_control.c **** 	if(!bac_state) return -1;
 2238              		.loc 1 951 0
 2239 0010 0120     		mov	r0, #1
 2240              	.LVL227:
 2241 0012 4042     		neg	r0, r0
 2242              	.L334:
 954:.\20648_driver\drivers/inv_mems_mpu_fifo_control.c **** }
 2243              		.loc 1 954 0
 2244              		@ sp needed
 2245 0014 7047     		bx	lr
 2246              	.L337:
 2247 0016 C046     		.align	2
ARM GAS  C:\Users\ADMINI~1\AppData\Local\Temp\ccRFd3Cg.s 			page 61


 2248              	.L336:
 2249 0018 00000000 		.word	fd
 2250              		.cfi_endproc
 2251              	.LFE28:
 2252              		.size	dmp_get_bac_state, .-dmp_get_bac_state
 2253              		.section	.text.dmp_get_bac_ts,"ax",%progbits
 2254              		.align	1
 2255              		.global	dmp_get_bac_ts
 2256              		.code	16
 2257              		.thumb_func
 2258              		.type	dmp_get_bac_ts, %function
 2259              	dmp_get_bac_ts:
 2260              	.LFB29:
 955:.\20648_driver\drivers/inv_mems_mpu_fifo_control.c **** 
 956:.\20648_driver\drivers/inv_mems_mpu_fifo_control.c **** inv_error_t dmp_get_bac_ts(long *bac_ts)
 957:.\20648_driver\drivers/inv_mems_mpu_fifo_control.c **** {
 2261              		.loc 1 957 0
 2262              		.cfi_startproc
 2263              	.LVL228:
 958:.\20648_driver\drivers/inv_mems_mpu_fifo_control.c **** 	if(!bac_ts) return -1;
 2264              		.loc 1 958 0
 2265 0000 0028     		cmp	r0, #0
 2266 0002 05D0     		beq	.L340
 959:.\20648_driver\drivers/inv_mems_mpu_fifo_control.c **** 	*bac_ts = fd.bac_ts;
 2267              		.loc 1 959 0
 2268 0004 044B     		ldr	r3, .L341
 2269 0006 0433     		add	r3, r3, #4
 2270 0008 DB6F     		ldr	r3, [r3, #124]
 2271 000a 0360     		str	r3, [r0]
 960:.\20648_driver\drivers/inv_mems_mpu_fifo_control.c **** 	return INV_SUCCESS;
 2272              		.loc 1 960 0
 2273 000c 0020     		mov	r0, #0
 2274              	.LVL229:
 2275 000e 01E0     		b	.L339
 2276              	.LVL230:
 2277              	.L340:
 958:.\20648_driver\drivers/inv_mems_mpu_fifo_control.c **** 	if(!bac_ts) return -1;
 2278              		.loc 1 958 0
 2279 0010 0120     		mov	r0, #1
 2280              	.LVL231:
 2281 0012 4042     		neg	r0, r0
 2282              	.L339:
 961:.\20648_driver\drivers/inv_mems_mpu_fifo_control.c **** }
 2283              		.loc 1 961 0
 2284              		@ sp needed
 2285 0014 7047     		bx	lr
 2286              	.L342:
 2287 0016 C046     		.align	2
 2288              	.L341:
 2289 0018 00000000 		.word	fd
 2290              		.cfi_endproc
 2291              	.LFE29:
 2292              		.size	dmp_get_bac_ts, .-dmp_get_bac_ts
 2293              		.section	.text.dmp_get_flip_pickup_state,"ax",%progbits
 2294              		.align	1
 2295              		.global	dmp_get_flip_pickup_state
 2296              		.code	16
ARM GAS  C:\Users\ADMINI~1\AppData\Local\Temp\ccRFd3Cg.s 			page 62


 2297              		.thumb_func
 2298              		.type	dmp_get_flip_pickup_state, %function
 2299              	dmp_get_flip_pickup_state:
 2300              	.LFB30:
 962:.\20648_driver\drivers/inv_mems_mpu_fifo_control.c **** 
 963:.\20648_driver\drivers/inv_mems_mpu_fifo_control.c **** inv_error_t dmp_get_flip_pickup_state(uint16_t *flip_pickup)
 964:.\20648_driver\drivers/inv_mems_mpu_fifo_control.c **** {
 2301              		.loc 1 964 0
 2302              		.cfi_startproc
 2303              	.LVL232:
 965:.\20648_driver\drivers/inv_mems_mpu_fifo_control.c **** 	if(!flip_pickup) return -1;
 2304              		.loc 1 965 0
 2305 0000 0028     		cmp	r0, #0
 2306 0002 05D0     		beq	.L345
 966:.\20648_driver\drivers/inv_mems_mpu_fifo_control.c **** 	*flip_pickup = fd.flip_pickup;
 2307              		.loc 1 966 0
 2308 0004 044B     		ldr	r3, .L346
 2309 0006 8633     		add	r3, r3, #134
 2310 0008 1B88     		ldrh	r3, [r3]
 2311 000a 0380     		strh	r3, [r0]
 967:.\20648_driver\drivers/inv_mems_mpu_fifo_control.c **** 	return INV_SUCCESS;
 2312              		.loc 1 967 0
 2313 000c 0020     		mov	r0, #0
 2314              	.LVL233:
 2315 000e 01E0     		b	.L344
 2316              	.LVL234:
 2317              	.L345:
 965:.\20648_driver\drivers/inv_mems_mpu_fifo_control.c **** 	if(!flip_pickup) return -1;
 2318              		.loc 1 965 0
 2319 0010 0120     		mov	r0, #1
 2320              	.LVL235:
 2321 0012 4042     		neg	r0, r0
 2322              	.L344:
 968:.\20648_driver\drivers/inv_mems_mpu_fifo_control.c **** }
 2323              		.loc 1 968 0
 2324              		@ sp needed
 2325 0014 7047     		bx	lr
 2326              	.L347:
 2327 0016 C046     		.align	2
 2328              	.L346:
 2329 0018 00000000 		.word	fd
 2330              		.cfi_endproc
 2331              	.LFE30:
 2332              		.size	dmp_get_flip_pickup_state, .-dmp_get_flip_pickup_state
 2333              		.section	.text.inv_get_accel_accuracy,"ax",%progbits
 2334              		.align	1
 2335              		.global	inv_get_accel_accuracy
 2336              		.code	16
 2337              		.thumb_func
 2338              		.type	inv_get_accel_accuracy, %function
 2339              	inv_get_accel_accuracy:
 2340              	.LFB31:
 969:.\20648_driver\drivers/inv_mems_mpu_fifo_control.c **** 
 970:.\20648_driver\drivers/inv_mems_mpu_fifo_control.c **** /** Returns accuracy of accel.
 971:.\20648_driver\drivers/inv_mems_mpu_fifo_control.c ****  * @return Accuracy of accel with 0 being not accurate, and 3 being most accurate.
 972:.\20648_driver\drivers/inv_mems_mpu_fifo_control.c **** */
 973:.\20648_driver\drivers/inv_mems_mpu_fifo_control.c **** int inv_get_accel_accuracy(void)
ARM GAS  C:\Users\ADMINI~1\AppData\Local\Temp\ccRFd3Cg.s 			page 63


 974:.\20648_driver\drivers/inv_mems_mpu_fifo_control.c **** {
 2341              		.loc 1 974 0
 2342              		.cfi_startproc
 975:.\20648_driver\drivers/inv_mems_mpu_fifo_control.c **** 	return fd.accel_accuracy;
 2343              		.loc 1 975 0
 2344 0000 024B     		ldr	r3, .L349
 976:.\20648_driver\drivers/inv_mems_mpu_fifo_control.c **** }
 2345              		.loc 1 976 0
 2346              		@ sp needed
 975:.\20648_driver\drivers/inv_mems_mpu_fifo_control.c **** 	return fd.accel_accuracy;
 2347              		.loc 1 975 0
 2348 0002 7A33     		add	r3, r3, #122
 2349 0004 0020     		mov	r0, #0
 2350 0006 185E     		ldrsh	r0, [r3, r0]
 2351              		.loc 1 976 0
 2352 0008 7047     		bx	lr
 2353              	.L350:
 2354 000a C046     		.align	2
 2355              	.L349:
 2356 000c 00000000 		.word	fd
 2357              		.cfi_endproc
 2358              	.LFE31:
 2359              		.size	inv_get_accel_accuracy, .-inv_get_accel_accuracy
 2360              		.section	.text.inv_get_gyro_accuracy,"ax",%progbits
 2361              		.align	1
 2362              		.global	inv_get_gyro_accuracy
 2363              		.code	16
 2364              		.thumb_func
 2365              		.type	inv_get_gyro_accuracy, %function
 2366              	inv_get_gyro_accuracy:
 2367              	.LFB32:
 977:.\20648_driver\drivers/inv_mems_mpu_fifo_control.c **** 
 978:.\20648_driver\drivers/inv_mems_mpu_fifo_control.c **** /** Returns accuracy of gyro.
 979:.\20648_driver\drivers/inv_mems_mpu_fifo_control.c ****  * @return Accuracy of gyro with 0 being not accurate, and 3 being most accurate.
 980:.\20648_driver\drivers/inv_mems_mpu_fifo_control.c **** */
 981:.\20648_driver\drivers/inv_mems_mpu_fifo_control.c **** int inv_get_gyro_accuracy(void)
 982:.\20648_driver\drivers/inv_mems_mpu_fifo_control.c **** {
 2368              		.loc 1 982 0
 2369              		.cfi_startproc
 983:.\20648_driver\drivers/inv_mems_mpu_fifo_control.c **** 	return fd.gyro_accuracy;
 2370              		.loc 1 983 0
 2371 0000 024B     		ldr	r3, .L352
 984:.\20648_driver\drivers/inv_mems_mpu_fifo_control.c **** }
 2372              		.loc 1 984 0
 2373              		@ sp needed
 983:.\20648_driver\drivers/inv_mems_mpu_fifo_control.c **** 	return fd.gyro_accuracy;
 2374              		.loc 1 983 0
 2375 0002 7C33     		add	r3, r3, #124
 2376 0004 0020     		mov	r0, #0
 2377 0006 185E     		ldrsh	r0, [r3, r0]
 2378              		.loc 1 984 0
 2379 0008 7047     		bx	lr
 2380              	.L353:
 2381 000a C046     		.align	2
 2382              	.L352:
 2383 000c 00000000 		.word	fd
 2384              		.cfi_endproc
ARM GAS  C:\Users\ADMINI~1\AppData\Local\Temp\ccRFd3Cg.s 			page 64


 2385              	.LFE32:
 2386              		.size	inv_get_gyro_accuracy, .-inv_get_gyro_accuracy
 2387              		.section	.text.inv_get_mag_accuracy,"ax",%progbits
 2388              		.align	1
 2389              		.global	inv_get_mag_accuracy
 2390              		.code	16
 2391              		.thumb_func
 2392              		.type	inv_get_mag_accuracy, %function
 2393              	inv_get_mag_accuracy:
 2394              	.LFB33:
 985:.\20648_driver\drivers/inv_mems_mpu_fifo_control.c **** 
 986:.\20648_driver\drivers/inv_mems_mpu_fifo_control.c **** /** Returns accuracy of compass.
 987:.\20648_driver\drivers/inv_mems_mpu_fifo_control.c ****  * @return Accuracy of compass with 0 being not accurate, and 3 being most accurate.
 988:.\20648_driver\drivers/inv_mems_mpu_fifo_control.c **** */
 989:.\20648_driver\drivers/inv_mems_mpu_fifo_control.c **** int inv_get_mag_accuracy(void)
 990:.\20648_driver\drivers/inv_mems_mpu_fifo_control.c **** {
 2395              		.loc 1 990 0
 2396              		.cfi_startproc
 991:.\20648_driver\drivers/inv_mems_mpu_fifo_control.c **** 	return fd.cpass_accuracy;
 2397              		.loc 1 991 0
 2398 0000 024B     		ldr	r3, .L355
 992:.\20648_driver\drivers/inv_mems_mpu_fifo_control.c **** }
 2399              		.loc 1 992 0
 2400              		@ sp needed
 991:.\20648_driver\drivers/inv_mems_mpu_fifo_control.c **** 	return fd.cpass_accuracy;
 2401              		.loc 1 991 0
 2402 0002 7E33     		add	r3, r3, #126
 2403 0004 0020     		mov	r0, #0
 2404 0006 185E     		ldrsh	r0, [r3, r0]
 2405              		.loc 1 992 0
 2406 0008 7047     		bx	lr
 2407              	.L356:
 2408 000a C046     		.align	2
 2409              	.L355:
 2410 000c 00000000 		.word	fd
 2411              		.cfi_endproc
 2412              	.LFE33:
 2413              		.size	inv_get_mag_accuracy, .-inv_get_mag_accuracy
 2414              		.section	.text.inv_get_gmrv_accuracy,"ax",%progbits
 2415              		.align	1
 2416              		.global	inv_get_gmrv_accuracy
 2417              		.code	16
 2418              		.thumb_func
 2419              		.type	inv_get_gmrv_accuracy, %function
 2420              	inv_get_gmrv_accuracy:
 2421              	.LFB34:
 993:.\20648_driver\drivers/inv_mems_mpu_fifo_control.c **** 
 994:.\20648_driver\drivers/inv_mems_mpu_fifo_control.c **** #if (MEMS_CHIP == HW_ICM20648)
 995:.\20648_driver\drivers/inv_mems_mpu_fifo_control.c **** /** Returns accuracy of geomagnetic rotation vector.
 996:.\20648_driver\drivers/inv_mems_mpu_fifo_control.c ****  * @return Accuracy of GMRV in Q29.
 997:.\20648_driver\drivers/inv_mems_mpu_fifo_control.c **** */
 998:.\20648_driver\drivers/inv_mems_mpu_fifo_control.c **** int inv_get_gmrv_accuracy(void)
 999:.\20648_driver\drivers/inv_mems_mpu_fifo_control.c **** {
 2422              		.loc 1 999 0
 2423              		.cfi_startproc
1000:.\20648_driver\drivers/inv_mems_mpu_fifo_control.c **** 	return fd.dmp_geomag_accuracyQ29;
 2424              		.loc 1 1000 0
ARM GAS  C:\Users\ADMINI~1\AppData\Local\Temp\ccRFd3Cg.s 			page 65


 2425 0000 014B     		ldr	r3, .L358
1001:.\20648_driver\drivers/inv_mems_mpu_fifo_control.c **** }
 2426              		.loc 1 1001 0
 2427              		@ sp needed
1000:.\20648_driver\drivers/inv_mems_mpu_fifo_control.c **** 	return fd.dmp_geomag_accuracyQ29;
 2428              		.loc 1 1000 0
 2429 0002 986A     		ldr	r0, [r3, #40]
 2430              		.loc 1 1001 0
 2431 0004 7047     		bx	lr
 2432              	.L359:
 2433 0006 C046     		.align	2
 2434              	.L358:
 2435 0008 00000000 		.word	fd
 2436              		.cfi_endproc
 2437              	.LFE34:
 2438              		.size	inv_get_gmrv_accuracy, .-inv_get_gmrv_accuracy
 2439              		.section	.text.inv_get_rv_accuracy,"ax",%progbits
 2440              		.align	1
 2441              		.global	inv_get_rv_accuracy
 2442              		.code	16
 2443              		.thumb_func
 2444              		.type	inv_get_rv_accuracy, %function
 2445              	inv_get_rv_accuracy:
 2446              	.LFB35:
1002:.\20648_driver\drivers/inv_mems_mpu_fifo_control.c **** #endif
1003:.\20648_driver\drivers/inv_mems_mpu_fifo_control.c **** 
1004:.\20648_driver\drivers/inv_mems_mpu_fifo_control.c **** #if (MEMS_CHIP == HW_ICM20630 || MEMS_CHIP == HW_ICM20648)
1005:.\20648_driver\drivers/inv_mems_mpu_fifo_control.c **** /** Returns accuracy of rotation vector.
1006:.\20648_driver\drivers/inv_mems_mpu_fifo_control.c ****  * @return Accuracy of RV in Q29.
1007:.\20648_driver\drivers/inv_mems_mpu_fifo_control.c **** */
1008:.\20648_driver\drivers/inv_mems_mpu_fifo_control.c **** int inv_get_rv_accuracy(void)
1009:.\20648_driver\drivers/inv_mems_mpu_fifo_control.c **** {
 2447              		.loc 1 1009 0
 2448              		.cfi_startproc
1010:.\20648_driver\drivers/inv_mems_mpu_fifo_control.c **** 	return fd.dmp_rv_accuracyQ29;
 2449              		.loc 1 1010 0
 2450 0000 014B     		ldr	r3, .L361
1011:.\20648_driver\drivers/inv_mems_mpu_fifo_control.c **** }
 2451              		.loc 1 1011 0
 2452              		@ sp needed
1010:.\20648_driver\drivers/inv_mems_mpu_fifo_control.c **** 	return fd.dmp_rv_accuracyQ29;
 2453              		.loc 1 1010 0
 2454 0002 9869     		ldr	r0, [r3, #24]
 2455              		.loc 1 1011 0
 2456 0004 7047     		bx	lr
 2457              	.L362:
 2458 0006 C046     		.align	2
 2459              	.L361:
 2460 0008 00000000 		.word	fd
 2461              		.cfi_endproc
 2462              	.LFE35:
 2463              		.size	inv_get_rv_accuracy, .-inv_get_rv_accuracy
 2464              		.comm	fd,164,4
 2465              		.bss
 2466              		.align	2
 2467              		.set	.LANCHOR0,. + 0
 2468              		.type	fifo_info, %object
ARM GAS  C:\Users\ADMINI~1\AppData\Local\Temp\ccRFd3Cg.s 			page 66


 2469              		.size	fifo_info, 8
 2470              	fifo_info:
 2471 0000 00000000 		.space	8
 2471      00000000 
 2472              		.type	fifo_data, %object
 2473              		.size	fifo_data, 1024
 2474              	fifo_data:
 2475 0008 00000000 		.space	1024
 2475      00000000 
 2475      00000000 
 2475      00000000 
 2475      00000000 
 2476              		.text
 2477              	.Letext0:
 2478              		.file 2 "c:\\program files (x86)\\cypress\\psoc creator\\3.3\\psoc creator\\import\\gnu\\arm\\4.9.
 2479              		.file 3 "c:\\program files (x86)\\cypress\\psoc creator\\3.3\\psoc creator\\import\\gnu\\arm\\4.9.
 2480              		.file 4 "c:\\program files (x86)\\cypress\\psoc creator\\3.3\\psoc creator\\import\\gnu\\arm\\4.9.
 2481              		.file 5 "./.\\20648_driver\\common\\mltypes.h"
 2482              		.file 6 "./.\\20648_driver\\invn\\invn_types.h"
 2483              		.file 7 "./.\\20648_driver\\drivers\\inv_mems_mpu_fifo_control.h"
 2484              		.file 8 "./.\\20648_driver\\drivers\\inv_mems_base_driver.h"
 2485              		.file 9 "./.\\20648_driver\\drivers\\inv_mems_transport.h"
 2486              		.file 10 "c:\\program files (x86)\\cypress\\psoc creator\\3.3\\psoc creator\\import\\gnu\\arm\\4.9
 2487              		.file 11 "./.\\20648_driver\\drivers\\inv_mems_defines.h"
 2488              		.file 12 "./.\\20648_driver\\common\\inv_mems_drv_hook.h"