ARM GAS  C:\Users\ADMINI~1\AppData\Local\Temp\ccRFd3Cg.s 			page 1


   1              		.cpu cortex-m0
   2              		.fpu softvfp
   3              		.eabi_attribute 20, 1
   4              		.eabi_attribute 21, 1
   5              		.eabi_attribute 23, 3
   6              		.eabi_attribute 24, 1
   7              		.eabi_attribute 25, 1
   8              		.eabi_attribute 26, 1
   9              		.eabi_attribute 30, 4
  10              		.eabi_attribute 34, 0
  11              		.eabi_attribute 18, 4
  12              		.code	16
  13              		.file	"inv_mems_mpu_fifo_control.c"
  14              		.text
  15              	.Ltext0:
  16              		.cfi_sections	.debug_frame
  17              		.section	.text.get_packet_size_and_samplecnt,"ax",%progbits
  18              		.align	1
  19              		.code	16
  20              		.thumb_func
  21              		.type	get_packet_size_and_samplecnt, %function
  22              	get_packet_size_and_samplecnt:
  23              	.LFB10:
  24              		.file 1 ".\\20648_driver\\drivers\\inv_mems_mpu_fifo_control.c"
   1:.\20648_driver\drivers/inv_mems_mpu_fifo_control.c **** /*
   2:.\20648_driver\drivers/inv_mems_mpu_fifo_control.c **** * _________________________________________________________________________________________________
   3:.\20648_driver\drivers/inv_mems_mpu_fifo_control.c **** * Copyright © 2014-2015 InvenSense Inc. Portions Copyright © 2014-2015 Movea. All rights reserved.
   4:.\20648_driver\drivers/inv_mems_mpu_fifo_control.c **** * This software, related documentation and any modifications thereto (collectively “Software”) is s
   5:.\20648_driver\drivers/inv_mems_mpu_fifo_control.c **** * to InvenSense and its licensors' intellectual property rights under U.S. and international copyri
   6:.\20648_driver\drivers/inv_mems_mpu_fifo_control.c **** * other intellectual property rights laws.
   7:.\20648_driver\drivers/inv_mems_mpu_fifo_control.c **** * InvenSense and its licensors retain all intellectual property and proprietary rights in and to th
   8:.\20648_driver\drivers/inv_mems_mpu_fifo_control.c **** * and any use, reproduction, disclosure or distribution of the Software without an express license
   9:.\20648_driver\drivers/inv_mems_mpu_fifo_control.c **** * agreement from InvenSense is strictly prohibited.
  10:.\20648_driver\drivers/inv_mems_mpu_fifo_control.c **** * _________________________________________________________________________________________________
  11:.\20648_driver\drivers/inv_mems_mpu_fifo_control.c **** */
  12:.\20648_driver\drivers/inv_mems_mpu_fifo_control.c **** 
  13:.\20648_driver\drivers/inv_mems_mpu_fifo_control.c **** #include ".\20648_driver\drivers\inv_mems_mpu_fifo_control.h"
  14:.\20648_driver\drivers/inv_mems_mpu_fifo_control.c **** 
  15:.\20648_driver\drivers/inv_mems_mpu_fifo_control.c **** #include ".\20648_driver\invn\mlmath.h"
  16:.\20648_driver\drivers/inv_mems_mpu_fifo_control.c **** #include ".\20648_driver\common\inv_mems_drv_hook.h"
  17:.\20648_driver\drivers/inv_mems_mpu_fifo_control.c **** #include ".\20648_driver\drivers\inv_mems_defines.h"
  18:.\20648_driver\drivers/inv_mems_mpu_fifo_control.c **** #if (MEMS_CHIP != HW_ICM20609)
  19:.\20648_driver\drivers/inv_mems_mpu_fifo_control.c **** #include ".\20648_driver\drivers\inv_mems_base_control.h"
  20:.\20648_driver\drivers/inv_mems_mpu_fifo_control.c **** #else
  21:.\20648_driver\drivers/inv_mems_mpu_fifo_control.c **** #include ".\20648_driver\drivers\inv_mems_base_control_20609.h"
  22:.\20648_driver\drivers/inv_mems_mpu_fifo_control.c **** #endif
  23:.\20648_driver\drivers/inv_mems_mpu_fifo_control.c **** #include ".\20648_driver\drivers\inv_mems_data_converter.h"
  24:.\20648_driver\drivers/inv_mems_mpu_fifo_control.c **** #include ".\20648_driver\drivers\inv_mems_transport.h"
  25:.\20648_driver\drivers/inv_mems_mpu_fifo_control.c **** #include ".\20648_driver\dmp3\inv_mems_interface_mapping.h"
  26:.\20648_driver\drivers/inv_mems_mpu_fifo_control.c **** 
  27:.\20648_driver\drivers/inv_mems_mpu_fifo_control.c **** #if defined MEMS_SECONDARY_DEVICE
  28:.\20648_driver\drivers/inv_mems_mpu_fifo_control.c **** #include "driver/inv_mems_slave_compass.h"
  29:.\20648_driver\drivers/inv_mems_mpu_fifo_control.c **** #include "driver/inv_mems_slave_pressure.h"
  30:.\20648_driver\drivers/inv_mems_mpu_fifo_control.c **** #endif
  31:.\20648_driver\drivers/inv_mems_mpu_fifo_control.c **** 
  32:.\20648_driver\drivers/inv_mems_mpu_fifo_control.c **** struct inv_fifo_decoded_t fd;
  33:.\20648_driver\drivers/inv_mems_mpu_fifo_control.c **** 
ARM GAS  C:\Users\ADMINI~1\AppData\Local\Temp\ccRFd3Cg.s 			page 2


  34:.\20648_driver\drivers/inv_mems_mpu_fifo_control.c **** static struct fifo_info_t
  35:.\20648_driver\drivers/inv_mems_mpu_fifo_control.c **** {
  36:.\20648_driver\drivers/inv_mems_mpu_fifo_control.c ****     inv_error_t   fifoError;
  37:.\20648_driver\drivers/inv_mems_mpu_fifo_control.c ****     unsigned char fifo_overflow;
  38:.\20648_driver\drivers/inv_mems_mpu_fifo_control.c **** } fifo_info = {0};
  39:.\20648_driver\drivers/inv_mems_mpu_fifo_control.c **** 
  40:.\20648_driver\drivers/inv_mems_mpu_fifo_control.c **** #if (MEMS_CHIP != HW_ICM20609)
  41:.\20648_driver\drivers/inv_mems_mpu_fifo_control.c **** inv_error_t mpu_set_FIFO_RST_Diamond(unsigned char value)
  42:.\20648_driver\drivers/inv_mems_mpu_fifo_control.c **** {
  43:.\20648_driver\drivers/inv_mems_mpu_fifo_control.c **** 	inv_error_t result = 0;
  44:.\20648_driver\drivers/inv_mems_mpu_fifo_control.c **** 	unsigned char reg;
  45:.\20648_driver\drivers/inv_mems_mpu_fifo_control.c **** 
  46:.\20648_driver\drivers/inv_mems_mpu_fifo_control.c **** 	result |= inv_read_mems_reg(REG_FIFO_RST, 1, &reg);
  47:.\20648_driver\drivers/inv_mems_mpu_fifo_control.c ****     
  48:.\20648_driver\drivers/inv_mems_mpu_fifo_control.c **** 	reg &= 0xe0;
  49:.\20648_driver\drivers/inv_mems_mpu_fifo_control.c **** 	reg |= value;
  50:.\20648_driver\drivers/inv_mems_mpu_fifo_control.c **** 	result |= inv_write_mems_reg(REG_FIFO_RST, 1, &reg);
  51:.\20648_driver\drivers/inv_mems_mpu_fifo_control.c ****     
  52:.\20648_driver\drivers/inv_mems_mpu_fifo_control.c **** 	return result;
  53:.\20648_driver\drivers/inv_mems_mpu_fifo_control.c **** }
  54:.\20648_driver\drivers/inv_mems_mpu_fifo_control.c **** #endif
  55:.\20648_driver\drivers/inv_mems_mpu_fifo_control.c **** 
  56:.\20648_driver\drivers/inv_mems_mpu_fifo_control.c **** inv_error_t inv_identify_interrupt(short *int_read)
  57:.\20648_driver\drivers/inv_mems_mpu_fifo_control.c **** {
  58:.\20648_driver\drivers/inv_mems_mpu_fifo_control.c **** 	unsigned char int_status;
  59:.\20648_driver\drivers/inv_mems_mpu_fifo_control.c ****     inv_error_t result=0 ;
  60:.\20648_driver\drivers/inv_mems_mpu_fifo_control.c ****     
  61:.\20648_driver\drivers/inv_mems_mpu_fifo_control.c ****     if(int_read)
  62:.\20648_driver\drivers/inv_mems_mpu_fifo_control.c ****         *int_read = 0;
  63:.\20648_driver\drivers/inv_mems_mpu_fifo_control.c ****     
  64:.\20648_driver\drivers/inv_mems_mpu_fifo_control.c ****     result = inv_read_mems_reg(REG_INT_STATUS, 1, &int_status);
  65:.\20648_driver\drivers/inv_mems_mpu_fifo_control.c ****     if(int_read)
  66:.\20648_driver\drivers/inv_mems_mpu_fifo_control.c ****         *int_read = int_status;
  67:.\20648_driver\drivers/inv_mems_mpu_fifo_control.c **** 
  68:.\20648_driver\drivers/inv_mems_mpu_fifo_control.c ****     result = inv_read_mems_reg(REG_DMP_INT_STATUS, 1, &int_status); // DMP_INT_STATUS
  69:.\20648_driver\drivers/inv_mems_mpu_fifo_control.c **** 	if(int_read)
  70:.\20648_driver\drivers/inv_mems_mpu_fifo_control.c **** 		*int_read |= (int_status << 8);
  71:.\20648_driver\drivers/inv_mems_mpu_fifo_control.c ****     
  72:.\20648_driver\drivers/inv_mems_mpu_fifo_control.c ****     /*if(wake_on_motion_enabled) {
  73:.\20648_driver\drivers/inv_mems_mpu_fifo_control.c ****         result = inv_read_mems_reg(REG_INT_STATUS, 1, &int_status);//INT_STATUS
  74:.\20648_driver\drivers/inv_mems_mpu_fifo_control.c ****         if(result)
  75:.\20648_driver\drivers/inv_mems_mpu_fifo_control.c ****             return result;
  76:.\20648_driver\drivers/inv_mems_mpu_fifo_control.c ****         *int_read |= reg_data[1];
  77:.\20648_driver\drivers/inv_mems_mpu_fifo_control.c ****     }*/
  78:.\20648_driver\drivers/inv_mems_mpu_fifo_control.c ****     /*
  79:.\20648_driver\drivers/inv_mems_mpu_fifo_control.c ****      * We do not need to handle FIFO overflow here. 
  80:.\20648_driver\drivers/inv_mems_mpu_fifo_control.c ****      * When we read FIFO_SIZE we can determine if FIFO overflow has occured.
  81:.\20648_driver\drivers/inv_mems_mpu_fifo_control.c ****      */
  82:.\20648_driver\drivers/inv_mems_mpu_fifo_control.c ****     //result = inv_read_mems_reg(0x1B, 1, &int_status);
  83:.\20648_driver\drivers/inv_mems_mpu_fifo_control.c ****     
  84:.\20648_driver\drivers/inv_mems_mpu_fifo_control.c **** 	return result;
  85:.\20648_driver\drivers/inv_mems_mpu_fifo_control.c **** }
  86:.\20648_driver\drivers/inv_mems_mpu_fifo_control.c **** 
  87:.\20648_driver\drivers/inv_mems_mpu_fifo_control.c **** /**
  88:.\20648_driver\drivers/inv_mems_mpu_fifo_control.c **** * @internal
  89:.\20648_driver\drivers/inv_mems_mpu_fifo_control.c **** * @brief   Get the length from the fifo
  90:.\20648_driver\drivers/inv_mems_mpu_fifo_control.c **** *
ARM GAS  C:\Users\ADMINI~1\AppData\Local\Temp\ccRFd3Cg.s 			page 3


  91:.\20648_driver\drivers/inv_mems_mpu_fifo_control.c **** * @param[out] len amount of data currently stored in the fifo.
  92:.\20648_driver\drivers/inv_mems_mpu_fifo_control.c **** *
  93:.\20648_driver\drivers/inv_mems_mpu_fifo_control.c **** * @return MPU_SUCCESS or non-zero error code.
  94:.\20648_driver\drivers/inv_mems_mpu_fifo_control.c **** **/
  95:.\20648_driver\drivers/inv_mems_mpu_fifo_control.c **** //static inv_error_t dmp_get_fifo_length( uint_fast16_t * len )
  96:.\20648_driver\drivers/inv_mems_mpu_fifo_control.c **** inv_error_t dmp_get_fifo_length( uint_fast16_t * len )
  97:.\20648_driver\drivers/inv_mems_mpu_fifo_control.c **** {
  98:.\20648_driver\drivers/inv_mems_mpu_fifo_control.c **** 	unsigned char fifoBuf[2];
  99:.\20648_driver\drivers/inv_mems_mpu_fifo_control.c **** 	inv_error_t result = 0;
 100:.\20648_driver\drivers/inv_mems_mpu_fifo_control.c ****     
 101:.\20648_driver\drivers/inv_mems_mpu_fifo_control.c **** 	if (NULL == len)
 102:.\20648_driver\drivers/inv_mems_mpu_fifo_control.c **** 		return INV_ERROR_INVALID_PARAMETER;
 103:.\20648_driver\drivers/inv_mems_mpu_fifo_control.c ****     
 104:.\20648_driver\drivers/inv_mems_mpu_fifo_control.c **** 	/*---- read the 2 'count' registers and
 105:.\20648_driver\drivers/inv_mems_mpu_fifo_control.c **** 	burst read the data from the FIFO ----*/
 106:.\20648_driver\drivers/inv_mems_mpu_fifo_control.c **** 	result = inv_read_mems_reg(REG_FIFO_COUNT_H, 2, fifoBuf);
 107:.\20648_driver\drivers/inv_mems_mpu_fifo_control.c **** 	if (result) 
 108:.\20648_driver\drivers/inv_mems_mpu_fifo_control.c **** 	{
 109:.\20648_driver\drivers/inv_mems_mpu_fifo_control.c **** 		fifo_info.fifoError = INV_ERROR_FIFO_READ_COUNT;
 110:.\20648_driver\drivers/inv_mems_mpu_fifo_control.c **** 		*len = 0;
 111:.\20648_driver\drivers/inv_mems_mpu_fifo_control.c **** 		return result;
 112:.\20648_driver\drivers/inv_mems_mpu_fifo_control.c **** 	}
 113:.\20648_driver\drivers/inv_mems_mpu_fifo_control.c ****     
 114:.\20648_driver\drivers/inv_mems_mpu_fifo_control.c **** 	*len = (uint_fast16_t) (fifoBuf[0] << 8);
 115:.\20648_driver\drivers/inv_mems_mpu_fifo_control.c **** 	*len += (uint_fast16_t) (fifoBuf[1]);
 116:.\20648_driver\drivers/inv_mems_mpu_fifo_control.c **** 
 117:.\20648_driver\drivers/inv_mems_mpu_fifo_control.c **** 	return result;
 118:.\20648_driver\drivers/inv_mems_mpu_fifo_control.c **** }
 119:.\20648_driver\drivers/inv_mems_mpu_fifo_control.c **** 
 120:.\20648_driver\drivers/inv_mems_mpu_fifo_control.c **** /**
 121:.\20648_driver\drivers/inv_mems_mpu_fifo_control.c **** *  @internal
 122:.\20648_driver\drivers/inv_mems_mpu_fifo_control.c **** *  @brief  Clears the FIFO status and its content.
 123:.\20648_driver\drivers/inv_mems_mpu_fifo_control.c **** *  @note   Halt the DMP writing into the FIFO for the time
 124:.\20648_driver\drivers/inv_mems_mpu_fifo_control.c **** *          needed to reset the FIFO.
 125:.\20648_driver\drivers/inv_mems_mpu_fifo_control.c **** *  @return MPU_SUCCESS if successful, a non-zero error code otherwise.
 126:.\20648_driver\drivers/inv_mems_mpu_fifo_control.c **** */
 127:.\20648_driver\drivers/inv_mems_mpu_fifo_control.c **** inv_error_t dmp_reset_fifo(void)
 128:.\20648_driver\drivers/inv_mems_mpu_fifo_control.c **** {
 129:.\20648_driver\drivers/inv_mems_mpu_fifo_control.c ****     uint_fast16_t len = HARDWARE_FIFO_SIZE;
 130:.\20648_driver\drivers/inv_mems_mpu_fifo_control.c **** 	unsigned char tries = 0;
 131:.\20648_driver\drivers/inv_mems_mpu_fifo_control.c **** 	inv_error_t result = 0;
 132:.\20648_driver\drivers/inv_mems_mpu_fifo_control.c ****     
 133:.\20648_driver\drivers/inv_mems_mpu_fifo_control.c **** 	while (len != 0 && tries < 6) 
 134:.\20648_driver\drivers/inv_mems_mpu_fifo_control.c **** 	{ 
 135:.\20648_driver\drivers/inv_mems_mpu_fifo_control.c **** 		base_state.user_ctrl &= (~BIT_FIFO_EN);
 136:.\20648_driver\drivers/inv_mems_mpu_fifo_control.c **** 		base_state.user_ctrl &= (~BIT_DMP_EN);
 137:.\20648_driver\drivers/inv_mems_mpu_fifo_control.c **** 		result |= inv_write_single_mems_reg(REG_USER_CTRL, base_state.user_ctrl);
 138:.\20648_driver\drivers/inv_mems_mpu_fifo_control.c ****                 
 139:.\20648_driver\drivers/inv_mems_mpu_fifo_control.c **** #if (MEMS_CHIP != HW_ICM20609)
 140:.\20648_driver\drivers/inv_mems_mpu_fifo_control.c **** 		result |= mpu_set_FIFO_RST_Diamond(0x1f);
 141:.\20648_driver\drivers/inv_mems_mpu_fifo_control.c **** 		result |= mpu_set_FIFO_RST_Diamond(0x1e);
 142:.\20648_driver\drivers/inv_mems_mpu_fifo_control.c **** #else
 143:.\20648_driver\drivers/inv_mems_mpu_fifo_control.c ****                 result |= inv_write_single_mems_reg(REG_USER_CTRL, BIT_FIFO_RST);
 144:.\20648_driver\drivers/inv_mems_mpu_fifo_control.c ****                 result |= inv_write_single_mems_reg(REG_USER_CTRL, BIT_DMP_RST);
 145:.\20648_driver\drivers/inv_mems_mpu_fifo_control.c ****                 inv_sleep(2);
 146:.\20648_driver\drivers/inv_mems_mpu_fifo_control.c ****                 
 147:.\20648_driver\drivers/inv_mems_mpu_fifo_control.c **** #endif
ARM GAS  C:\Users\ADMINI~1\AppData\Local\Temp\ccRFd3Cg.s 			page 4


 148:.\20648_driver\drivers/inv_mems_mpu_fifo_control.c ****         
 149:.\20648_driver\drivers/inv_mems_mpu_fifo_control.c **** 		// Reset overflow flag
 150:.\20648_driver\drivers/inv_mems_mpu_fifo_control.c **** 		fifo_info.fifo_overflow = 0;
 151:.\20648_driver\drivers/inv_mems_mpu_fifo_control.c ****         
 152:.\20648_driver\drivers/inv_mems_mpu_fifo_control.c **** 		result |= dmp_get_fifo_length(&len);
 153:.\20648_driver\drivers/inv_mems_mpu_fifo_control.c **** 		if (result) 
 154:.\20648_driver\drivers/inv_mems_mpu_fifo_control.c **** 			return result;
 155:.\20648_driver\drivers/inv_mems_mpu_fifo_control.c ****         
 156:.\20648_driver\drivers/inv_mems_mpu_fifo_control.c **** 		tries++;
 157:.\20648_driver\drivers/inv_mems_mpu_fifo_control.c **** 	}
 158:.\20648_driver\drivers/inv_mems_mpu_fifo_control.c ****     
 159:.\20648_driver\drivers/inv_mems_mpu_fifo_control.c **** 	base_state.user_ctrl |= BIT_FIFO_EN;
 160:.\20648_driver\drivers/inv_mems_mpu_fifo_control.c **** 	base_state.user_ctrl |= BIT_DMP_EN;
 161:.\20648_driver\drivers/inv_mems_mpu_fifo_control.c **** 	result |= inv_write_single_mems_reg(REG_USER_CTRL, base_state.user_ctrl);
 162:.\20648_driver\drivers/inv_mems_mpu_fifo_control.c ****     
 163:.\20648_driver\drivers/inv_mems_mpu_fifo_control.c **** 	return result;
 164:.\20648_driver\drivers/inv_mems_mpu_fifo_control.c **** }
 165:.\20648_driver\drivers/inv_mems_mpu_fifo_control.c **** 
 166:.\20648_driver\drivers/inv_mems_mpu_fifo_control.c **** /**
 167:.\20648_driver\drivers/inv_mems_mpu_fifo_control.c **** *  @internal
 168:.\20648_driver\drivers/inv_mems_mpu_fifo_control.c **** *  @brief  Read data from the fifo
 169:.\20648_driver\drivers/inv_mems_mpu_fifo_control.c **** *
 170:.\20648_driver\drivers/inv_mems_mpu_fifo_control.c **** *  @param[out] data Location to store the date read from the fifo
 171:.\20648_driver\drivers/inv_mems_mpu_fifo_control.c **** *  @param[in] len   Amount of data to read out of the fifo
 172:.\20648_driver\drivers/inv_mems_mpu_fifo_control.c **** *
 173:.\20648_driver\drivers/inv_mems_mpu_fifo_control.c **** *  @return MPU_SUCCESS or non-zero error code
 174:.\20648_driver\drivers/inv_mems_mpu_fifo_control.c **** **/
 175:.\20648_driver\drivers/inv_mems_mpu_fifo_control.c **** inv_error_t dmp_read_fifo(unsigned char *data, uint_fast16_t len)
 176:.\20648_driver\drivers/inv_mems_mpu_fifo_control.c **** {
 177:.\20648_driver\drivers/inv_mems_mpu_fifo_control.c **** 	inv_error_t result;
 178:.\20648_driver\drivers/inv_mems_mpu_fifo_control.c ****     uint_fast16_t bytesRead = 0;
 179:.\20648_driver\drivers/inv_mems_mpu_fifo_control.c **** 
 180:.\20648_driver\drivers/inv_mems_mpu_fifo_control.c ****     while (bytesRead<len) 
 181:.\20648_driver\drivers/inv_mems_mpu_fifo_control.c ****     {
 182:.\20648_driver\drivers/inv_mems_mpu_fifo_control.c ****         unsigned short thisLen = min(INV_MAX_SERIAL_READ, len-bytesRead);
 183:.\20648_driver\drivers/inv_mems_mpu_fifo_control.c ****         
 184:.\20648_driver\drivers/inv_mems_mpu_fifo_control.c ****         result = inv_read_mems_reg(REG_FIFO_R_W, thisLen, &data[bytesRead]);
 185:.\20648_driver\drivers/inv_mems_mpu_fifo_control.c ****         if (result)
 186:.\20648_driver\drivers/inv_mems_mpu_fifo_control.c **** 		{
 187:.\20648_driver\drivers/inv_mems_mpu_fifo_control.c **** 			dmp_reset_fifo();
 188:.\20648_driver\drivers/inv_mems_mpu_fifo_control.c **** 			fifo_info.fifoError = INV_ERROR_FIFO_READ_DATA;
 189:.\20648_driver\drivers/inv_mems_mpu_fifo_control.c **** 			return result;
 190:.\20648_driver\drivers/inv_mems_mpu_fifo_control.c **** 		}
 191:.\20648_driver\drivers/inv_mems_mpu_fifo_control.c ****         
 192:.\20648_driver\drivers/inv_mems_mpu_fifo_control.c ****         bytesRead += thisLen;
 193:.\20648_driver\drivers/inv_mems_mpu_fifo_control.c ****     }
 194:.\20648_driver\drivers/inv_mems_mpu_fifo_control.c **** 
 195:.\20648_driver\drivers/inv_mems_mpu_fifo_control.c **** 	return result;
 196:.\20648_driver\drivers/inv_mems_mpu_fifo_control.c **** }
 197:.\20648_driver\drivers/inv_mems_mpu_fifo_control.c **** 
 198:.\20648_driver\drivers/inv_mems_mpu_fifo_control.c **** /**
 199:.\20648_driver\drivers/inv_mems_mpu_fifo_control.c **** *  @internal
 200:.\20648_driver\drivers/inv_mems_mpu_fifo_control.c **** *  @brief  used to get the FIFO data.
 201:.\20648_driver\drivers/inv_mems_mpu_fifo_control.c **** *  @param  length
 202:.\20648_driver\drivers/inv_mems_mpu_fifo_control.c **** *              Max number of bytes to read from the FIFO that buffer is still able to sustain.
 203:.\20648_driver\drivers/inv_mems_mpu_fifo_control.c **** *  @param  buffer Reads up to length into the buffer.
 204:.\20648_driver\drivers/inv_mems_mpu_fifo_control.c **** *
ARM GAS  C:\Users\ADMINI~1\AppData\Local\Temp\ccRFd3Cg.s 			page 5


 205:.\20648_driver\drivers/inv_mems_mpu_fifo_control.c **** *  @return number of bytes of read.
 206:.\20648_driver\drivers/inv_mems_mpu_fifo_control.c **** **/
 207:.\20648_driver\drivers/inv_mems_mpu_fifo_control.c **** static uint_fast16_t dmp_get_fifo_all(uint_fast16_t length, unsigned char *buffer, int *reset)
 208:.\20648_driver\drivers/inv_mems_mpu_fifo_control.c **** {
 209:.\20648_driver\drivers/inv_mems_mpu_fifo_control.c **** 	inv_error_t result;
 210:.\20648_driver\drivers/inv_mems_mpu_fifo_control.c **** 	uint_fast16_t in_fifo;
 211:.\20648_driver\drivers/inv_mems_mpu_fifo_control.c ****     
 212:.\20648_driver\drivers/inv_mems_mpu_fifo_control.c **** 	if(reset)
 213:.\20648_driver\drivers/inv_mems_mpu_fifo_control.c **** 		*reset = 0;
 214:.\20648_driver\drivers/inv_mems_mpu_fifo_control.c ****    
 215:.\20648_driver\drivers/inv_mems_mpu_fifo_control.c **** 	result = dmp_get_fifo_length(&in_fifo);
 216:.\20648_driver\drivers/inv_mems_mpu_fifo_control.c **** 	if (result) {
 217:.\20648_driver\drivers/inv_mems_mpu_fifo_control.c **** 		fifo_info.fifoError = result;
 218:.\20648_driver\drivers/inv_mems_mpu_fifo_control.c **** 		return 0;
 219:.\20648_driver\drivers/inv_mems_mpu_fifo_control.c **** 	}
 220:.\20648_driver\drivers/inv_mems_mpu_fifo_control.c ****     
 221:.\20648_driver\drivers/inv_mems_mpu_fifo_control.c **** 	// Nothing to read
 222:.\20648_driver\drivers/inv_mems_mpu_fifo_control.c **** 	if (in_fifo == 0)
 223:.\20648_driver\drivers/inv_mems_mpu_fifo_control.c **** 		return 0;
 224:.\20648_driver\drivers/inv_mems_mpu_fifo_control.c ****     
 225:.\20648_driver\drivers/inv_mems_mpu_fifo_control.c **** 	/* Check if buffer is able to be filled in with in_fifo bytes */
 226:.\20648_driver\drivers/inv_mems_mpu_fifo_control.c **** 	if (in_fifo > length) {
 227:.\20648_driver\drivers/inv_mems_mpu_fifo_control.c **** 		dmp_reset_fifo();
 228:.\20648_driver\drivers/inv_mems_mpu_fifo_control.c **** 		fifo_info.fifoError = INV_ERROR_FIFO_OVERFLOW;
 229:.\20648_driver\drivers/inv_mems_mpu_fifo_control.c **** 		if(reset)
 230:.\20648_driver\drivers/inv_mems_mpu_fifo_control.c **** 			*reset = 1;
 231:.\20648_driver\drivers/inv_mems_mpu_fifo_control.c **** 		return 0;
 232:.\20648_driver\drivers/inv_mems_mpu_fifo_control.c **** 	}
 233:.\20648_driver\drivers/inv_mems_mpu_fifo_control.c **** 
 234:.\20648_driver\drivers/inv_mems_mpu_fifo_control.c **** 	result = dmp_read_fifo(buffer, in_fifo);
 235:.\20648_driver\drivers/inv_mems_mpu_fifo_control.c **** 	if (result) {
 236:.\20648_driver\drivers/inv_mems_mpu_fifo_control.c **** 		fifo_info.fifoError = result;
 237:.\20648_driver\drivers/inv_mems_mpu_fifo_control.c **** 		return 0;
 238:.\20648_driver\drivers/inv_mems_mpu_fifo_control.c **** 	}
 239:.\20648_driver\drivers/inv_mems_mpu_fifo_control.c **** 	return in_fifo;
 240:.\20648_driver\drivers/inv_mems_mpu_fifo_control.c **** }
 241:.\20648_driver\drivers/inv_mems_mpu_fifo_control.c **** 
 242:.\20648_driver\drivers/inv_mems_mpu_fifo_control.c **** /** Determines the packet size by decoding the header. Both header and header2 are set. header2 is 
 243:.\20648_driver\drivers/inv_mems_mpu_fifo_control.c **** *   if it doesn't exist. sample_cnt_array is filled in if not null with number of samples expected 
 244:.\20648_driver\drivers/inv_mems_mpu_fifo_control.c **** */
 245:.\20648_driver\drivers/inv_mems_mpu_fifo_control.c **** static uint_fast16_t get_packet_size_and_samplecnt(unsigned char *data, unsigned short *header, uns
 246:.\20648_driver\drivers/inv_mems_mpu_fifo_control.c **** {
  25              		.loc 1 246 0
  26              		.cfi_startproc
  27              	.LVL0:
  28 0000 70B5     		push	{r4, r5, r6, lr}
  29              		.cfi_def_cfa_offset 16
  30              		.cfi_offset 4, -16
  31              		.cfi_offset 5, -12
  32              		.cfi_offset 6, -8
  33              		.cfi_offset 14, -4
 247:.\20648_driver\drivers/inv_mems_mpu_fifo_control.c **** 	int sz = HEADER_SZ; // 2 for header
 248:.\20648_driver\drivers/inv_mems_mpu_fifo_control.c ****     
 249:.\20648_driver\drivers/inv_mems_mpu_fifo_control.c **** 	*header = (((unsigned short)data[0])<<8) | data[1];
  34              		.loc 1 249 0
  35 0002 0478     		ldrb	r4, [r0]
  36 0004 4578     		ldrb	r5, [r0, #1]
ARM GAS  C:\Users\ADMINI~1\AppData\Local\Temp\ccRFd3Cg.s 			page 6


  37 0006 2402     		lsl	r4, r4, #8
  38 0008 2C43     		orr	r4, r5
 250:.\20648_driver\drivers/inv_mems_mpu_fifo_control.c **** 
 251:.\20648_driver\drivers/inv_mems_mpu_fifo_control.c **** 	if (*header & ACCEL_SET) {
  39              		.loc 1 251 0
  40 000a 25B2     		sxth	r5, r4
 249:.\20648_driver\drivers/inv_mems_mpu_fifo_control.c **** 
  41              		.loc 1 249 0
  42 000c 0C80     		strh	r4, [r1]
 247:.\20648_driver\drivers/inv_mems_mpu_fifo_control.c **** 	int sz = HEADER_SZ; // 2 for header
  43              		.loc 1 247 0
  44 000e 0224     		mov	r4, #2
  45              		.loc 1 251 0
  46 0010 002D     		cmp	r5, #0
  47 0012 06DA     		bge	.L2
  48              	.LVL1:
 252:.\20648_driver\drivers/inv_mems_mpu_fifo_control.c **** 		sz += ACCEL_DATA_SZ;
  49              		.loc 1 252 0
  50 0014 0634     		add	r4, r4, #6
 253:.\20648_driver\drivers/inv_mems_mpu_fifo_control.c **** 		if (sample_cnt_array)
  51              		.loc 1 253 0
  52 0016 002B     		cmp	r3, #0
  53 0018 03D0     		beq	.L2
 254:.\20648_driver\drivers/inv_mems_mpu_fifo_control.c **** 			sample_cnt_array[ANDROID_SENSOR_ACCELEROMETER]++;
  54              		.loc 1 254 0
  55 001a 5C88     		ldrh	r4, [r3, #2]
  56 001c 0134     		add	r4, r4, #1
  57 001e 5C80     		strh	r4, [r3, #2]
 252:.\20648_driver\drivers/inv_mems_mpu_fifo_control.c **** 		sz += ACCEL_DATA_SZ;
  58              		.loc 1 252 0
  59 0020 0824     		mov	r4, #8
  60              	.LVL2:
  61              	.L2:
 255:.\20648_driver\drivers/inv_mems_mpu_fifo_control.c **** 	}
 256:.\20648_driver\drivers/inv_mems_mpu_fifo_control.c ****     
 257:.\20648_driver\drivers/inv_mems_mpu_fifo_control.c **** 	if (*header & GYRO_SET) {
  62              		.loc 1 257 0
  63 0022 0D88     		ldrh	r5, [r1]
  64 0024 6D04     		lsl	r5, r5, #17
  65 0026 0AD5     		bpl	.L3
  66              	.LVL3:
 258:.\20648_driver\drivers/inv_mems_mpu_fifo_control.c **** 		sz += GYRO_DATA_SZ;
 259:.\20648_driver\drivers/inv_mems_mpu_fifo_control.c **** 		if (sample_cnt_array)
  67              		.loc 1 259 0
  68 0028 002B     		cmp	r3, #0
  69 002a 02D0     		beq	.L4
 260:.\20648_driver\drivers/inv_mems_mpu_fifo_control.c **** 			sample_cnt_array[ANDROID_SENSOR_GYROSCOPE_UNCALIBRATED]++;
  70              		.loc 1 260 0
  71 002c 1D8C     		ldrh	r5, [r3, #32]
  72 002e 0135     		add	r5, r5, #1
  73 0030 1D84     		strh	r5, [r3, #32]
  74              	.L4:
 261:.\20648_driver\drivers/inv_mems_mpu_fifo_control.c **** #if (MEMS_CHIP == HW_ICM30630 || MEMS_CHIP == HW_ICM20648 || MEMS_CHIP == HW_ICM20609)
 262:.\20648_driver\drivers/inv_mems_mpu_fifo_control.c **** 		sz += GYRO_BIAS_DATA_SZ;
  75              		.loc 1 262 0
  76 0032 0C34     		add	r4, r4, #12
  77              	.LVL4:
ARM GAS  C:\Users\ADMINI~1\AppData\Local\Temp\ccRFd3Cg.s 			page 7


 263:.\20648_driver\drivers/inv_mems_mpu_fifo_control.c **** 		if (sample_cnt_array)
  78              		.loc 1 263 0
  79 0034 002B     		cmp	r3, #0
  80 0036 02D0     		beq	.L3
 264:.\20648_driver\drivers/inv_mems_mpu_fifo_control.c **** 			sample_cnt_array[ANDROID_SENSOR_GYROSCOPE]++;
  81              		.loc 1 264 0
  82 0038 1D89     		ldrh	r5, [r3, #8]
  83 003a 0135     		add	r5, r5, #1
  84 003c 1D81     		strh	r5, [r3, #8]
  85              	.L3:
 265:.\20648_driver\drivers/inv_mems_mpu_fifo_control.c **** #endif
 266:.\20648_driver\drivers/inv_mems_mpu_fifo_control.c **** 	}
 267:.\20648_driver\drivers/inv_mems_mpu_fifo_control.c ****  
 268:.\20648_driver\drivers/inv_mems_mpu_fifo_control.c **** #if (MEMS_CHIP == HW_ICM20630) || (MEMS_CHIP == HW_ICM20648)
 269:.\20648_driver\drivers/inv_mems_mpu_fifo_control.c **** 	if (*header & CPASS_SET) {
  86              		.loc 1 269 0
  87 003e 0D88     		ldrh	r5, [r1]
  88 0040 AD04     		lsl	r5, r5, #18
  89 0042 05D5     		bpl	.L5
 270:.\20648_driver\drivers/inv_mems_mpu_fifo_control.c **** 		sz += CPASS_DATA_SZ;
  90              		.loc 1 270 0
  91 0044 0634     		add	r4, r4, #6
  92              	.LVL5:
 271:.\20648_driver\drivers/inv_mems_mpu_fifo_control.c **** 		if (sample_cnt_array)
  93              		.loc 1 271 0
  94 0046 002B     		cmp	r3, #0
  95 0048 02D0     		beq	.L5
 272:.\20648_driver\drivers/inv_mems_mpu_fifo_control.c **** 			sample_cnt_array[ANDROID_SENSOR_MAGNETIC_FIELD_UNCALIBRATED]++;
  96              		.loc 1 272 0
  97 004a 9D8B     		ldrh	r5, [r3, #28]
  98 004c 0135     		add	r5, r5, #1
  99 004e 9D83     		strh	r5, [r3, #28]
 100              	.L5:
 273:.\20648_driver\drivers/inv_mems_mpu_fifo_control.c **** 	}
 274:.\20648_driver\drivers/inv_mems_mpu_fifo_control.c ****     
 275:.\20648_driver\drivers/inv_mems_mpu_fifo_control.c **** 	if (*header & ALS_SET) {
 101              		.loc 1 275 0
 102 0050 0D88     		ldrh	r5, [r1]
 103 0052 ED04     		lsl	r5, r5, #19
 104 0054 05D5     		bpl	.L6
 276:.\20648_driver\drivers/inv_mems_mpu_fifo_control.c **** 		sz += ALS_DATA_SZ;
 105              		.loc 1 276 0
 106 0056 0834     		add	r4, r4, #8
 107              	.LVL6:
 277:.\20648_driver\drivers/inv_mems_mpu_fifo_control.c **** 		if (sample_cnt_array)
 108              		.loc 1 277 0
 109 0058 002B     		cmp	r3, #0
 110 005a 02D0     		beq	.L6
 278:.\20648_driver\drivers/inv_mems_mpu_fifo_control.c **** 			sample_cnt_array[ANDROID_SENSOR_LIGHT]++;
 111              		.loc 1 278 0
 112 005c 5D89     		ldrh	r5, [r3, #10]
 113 005e 0135     		add	r5, r5, #1
 114 0060 5D81     		strh	r5, [r3, #10]
 115              	.L6:
 279:.\20648_driver\drivers/inv_mems_mpu_fifo_control.c **** 	}
 280:.\20648_driver\drivers/inv_mems_mpu_fifo_control.c **** #endif
 281:.\20648_driver\drivers/inv_mems_mpu_fifo_control.c **** 
ARM GAS  C:\Users\ADMINI~1\AppData\Local\Temp\ccRFd3Cg.s 			page 8


 282:.\20648_driver\drivers/inv_mems_mpu_fifo_control.c **** 	if (*header & QUAT6_SET) {
 116              		.loc 1 282 0
 117 0062 0D88     		ldrh	r5, [r1]
 118 0064 2D05     		lsl	r5, r5, #20
 119 0066 05D5     		bpl	.L7
 283:.\20648_driver\drivers/inv_mems_mpu_fifo_control.c **** 		sz += QUAT6_DATA_SZ;
 120              		.loc 1 283 0
 121 0068 0C34     		add	r4, r4, #12
 122              	.LVL7:
 284:.\20648_driver\drivers/inv_mems_mpu_fifo_control.c **** 		if (sample_cnt_array)
 123              		.loc 1 284 0
 124 006a 002B     		cmp	r3, #0
 125 006c 02D0     		beq	.L7
 285:.\20648_driver\drivers/inv_mems_mpu_fifo_control.c **** 			sample_cnt_array[ANDROID_SENSOR_GAME_ROTATION_VECTOR]++;
 126              		.loc 1 285 0
 127 006e DD8B     		ldrh	r5, [r3, #30]
 128 0070 0135     		add	r5, r5, #1
 129 0072 DD83     		strh	r5, [r3, #30]
 130              	.L7:
 286:.\20648_driver\drivers/inv_mems_mpu_fifo_control.c **** 	}
 287:.\20648_driver\drivers/inv_mems_mpu_fifo_control.c **** #if (MEMS_CHIP != HW_ICM20609)
 288:.\20648_driver\drivers/inv_mems_mpu_fifo_control.c **** 	if (*header & QUAT9_SET) {
 131              		.loc 1 288 0
 132 0074 0D88     		ldrh	r5, [r1]
 133 0076 6D05     		lsl	r5, r5, #21
 134 0078 05D5     		bpl	.L8
 289:.\20648_driver\drivers/inv_mems_mpu_fifo_control.c **** 		sz += QUAT9_DATA_SZ;
 135              		.loc 1 289 0
 136 007a 0E34     		add	r4, r4, #14
 137              	.LVL8:
 290:.\20648_driver\drivers/inv_mems_mpu_fifo_control.c **** 		if (sample_cnt_array)
 138              		.loc 1 290 0
 139 007c 002B     		cmp	r3, #0
 140 007e 02D0     		beq	.L8
 291:.\20648_driver\drivers/inv_mems_mpu_fifo_control.c **** 			sample_cnt_array[ANDROID_SENSOR_ROTATION_VECTOR]++;
 141              		.loc 1 291 0
 142 0080 DD8A     		ldrh	r5, [r3, #22]
 143 0082 0135     		add	r5, r5, #1
 144 0084 DD82     		strh	r5, [r3, #22]
 145              	.L8:
 292:.\20648_driver\drivers/inv_mems_mpu_fifo_control.c **** 	}
 293:.\20648_driver\drivers/inv_mems_mpu_fifo_control.c **** #endif
 294:.\20648_driver\drivers/inv_mems_mpu_fifo_control.c **** 	if (*header & PQUAT6_SET) 
 146              		.loc 1 294 0
 147 0086 0D88     		ldrh	r5, [r1]
 148 0088 AE05     		lsl	r6, r5, #22
 149 008a 00D5     		bpl	.L9
 295:.\20648_driver\drivers/inv_mems_mpu_fifo_control.c **** 		sz += PQUAT6_DATA_SZ;
 150              		.loc 1 295 0
 151 008c 0634     		add	r4, r4, #6
 152              	.LVL9:
 153              	.L9:
 296:.\20648_driver\drivers/inv_mems_mpu_fifo_control.c ****     
 297:.\20648_driver\drivers/inv_mems_mpu_fifo_control.c **** #if (MEMS_CHIP == HW_ICM20648)
 298:.\20648_driver\drivers/inv_mems_mpu_fifo_control.c **** 	if (*header & GEOMAG_SET) {
 154              		.loc 1 298 0
 155 008e ED05     		lsl	r5, r5, #23
ARM GAS  C:\Users\ADMINI~1\AppData\Local\Temp\ccRFd3Cg.s 			page 9


 156 0090 05D5     		bpl	.L10
 299:.\20648_driver\drivers/inv_mems_mpu_fifo_control.c **** 		sz += GEOMAG_DATA_SZ;
 157              		.loc 1 299 0
 158 0092 0E34     		add	r4, r4, #14
 159              	.LVL10:
 300:.\20648_driver\drivers/inv_mems_mpu_fifo_control.c **** 		if (sample_cnt_array)
 160              		.loc 1 300 0
 161 0094 002B     		cmp	r3, #0
 162 0096 02D0     		beq	.L10
 301:.\20648_driver\drivers/inv_mems_mpu_fifo_control.c **** 			sample_cnt_array[ANDROID_SENSOR_GEOMAGNETIC_ROTATION_VECTOR]++;
 163              		.loc 1 301 0
 164 0098 1D8D     		ldrh	r5, [r3, #40]
 165 009a 0135     		add	r5, r5, #1
 166 009c 1D85     		strh	r5, [r3, #40]
 167              	.L10:
 302:.\20648_driver\drivers/inv_mems_mpu_fifo_control.c **** 	}
 303:.\20648_driver\drivers/inv_mems_mpu_fifo_control.c **** #endif
 304:.\20648_driver\drivers/inv_mems_mpu_fifo_control.c ****     
 305:.\20648_driver\drivers/inv_mems_mpu_fifo_control.c **** #if (MEMS_CHIP == HW_ICM20630 || MEMS_CHIP == HW_ICM20648) 
 306:.\20648_driver\drivers/inv_mems_mpu_fifo_control.c **** 	if (*header & PRESSURE_SET) {
 168              		.loc 1 306 0
 169 009e 0D88     		ldrh	r5, [r1]
 170 00a0 2D06     		lsl	r5, r5, #24
 171 00a2 05D5     		bpl	.L11
 307:.\20648_driver\drivers/inv_mems_mpu_fifo_control.c **** 		sz += PRESSURE_DATA_SZ;
 172              		.loc 1 307 0
 173 00a4 0634     		add	r4, r4, #6
 174              	.LVL11:
 308:.\20648_driver\drivers/inv_mems_mpu_fifo_control.c **** 		if (sample_cnt_array)
 175              		.loc 1 308 0
 176 00a6 002B     		cmp	r3, #0
 177 00a8 02D0     		beq	.L11
 309:.\20648_driver\drivers/inv_mems_mpu_fifo_control.c **** 			sample_cnt_array[ANDROID_SENSOR_PRESSURE]++;
 178              		.loc 1 309 0
 179 00aa 9D89     		ldrh	r5, [r3, #12]
 180 00ac 0135     		add	r5, r5, #1
 181 00ae 9D81     		strh	r5, [r3, #12]
 182              	.L11:
 310:.\20648_driver\drivers/inv_mems_mpu_fifo_control.c **** 	}
 311:.\20648_driver\drivers/inv_mems_mpu_fifo_control.c **** #endif
 312:.\20648_driver\drivers/inv_mems_mpu_fifo_control.c ****     
 313:.\20648_driver\drivers/inv_mems_mpu_fifo_control.c **** #if (MEMS_CHIP != HW_ICM30630 && MEMS_CHIP != HW_ICM20648)
 314:.\20648_driver\drivers/inv_mems_mpu_fifo_control.c **** 	if (*header & GYRO_CALIBR_SET) {
 315:.\20648_driver\drivers/inv_mems_mpu_fifo_control.c **** 		sz += GYRO_CALIBR_DATA_SZ;
 316:.\20648_driver\drivers/inv_mems_mpu_fifo_control.c **** 		if (sample_cnt_array)
 317:.\20648_driver\drivers/inv_mems_mpu_fifo_control.c **** 			sample_cnt_array[ANDROID_SENSOR_GYROSCOPE]++;
 318:.\20648_driver\drivers/inv_mems_mpu_fifo_control.c **** 	}
 319:.\20648_driver\drivers/inv_mems_mpu_fifo_control.c **** #endif
 320:.\20648_driver\drivers/inv_mems_mpu_fifo_control.c **** 	
 321:.\20648_driver\drivers/inv_mems_mpu_fifo_control.c **** #if (MEMS_CHIP == HW_ICM20630 || MEMS_CHIP == HW_ICM20648) 
 322:.\20648_driver\drivers/inv_mems_mpu_fifo_control.c **** 	if (*header & CPASS_CALIBR_SET) {
 183              		.loc 1 322 0
 184 00b0 0D88     		ldrh	r5, [r1]
 185 00b2 AD06     		lsl	r5, r5, #26
 186 00b4 05D5     		bpl	.L12
 323:.\20648_driver\drivers/inv_mems_mpu_fifo_control.c **** 		sz += CPASS_CALIBR_DATA_SZ;
 187              		.loc 1 323 0
ARM GAS  C:\Users\ADMINI~1\AppData\Local\Temp\ccRFd3Cg.s 			page 10


 188 00b6 0C34     		add	r4, r4, #12
 189              	.LVL12:
 324:.\20648_driver\drivers/inv_mems_mpu_fifo_control.c **** 		if (sample_cnt_array)
 190              		.loc 1 324 0
 191 00b8 002B     		cmp	r3, #0
 192 00ba 02D0     		beq	.L12
 325:.\20648_driver\drivers/inv_mems_mpu_fifo_control.c **** 			sample_cnt_array[ANDROID_SENSOR_GEOMAGNETIC_FIELD]++;
 193              		.loc 1 325 0
 194 00bc 9D88     		ldrh	r5, [r3, #4]
 195 00be 0135     		add	r5, r5, #1
 196 00c0 9D80     		strh	r5, [r3, #4]
 197              	.L12:
 326:.\20648_driver\drivers/inv_mems_mpu_fifo_control.c **** 	}
 327:.\20648_driver\drivers/inv_mems_mpu_fifo_control.c **** #endif
 328:.\20648_driver\drivers/inv_mems_mpu_fifo_control.c **** 
 329:.\20648_driver\drivers/inv_mems_mpu_fifo_control.c **** #if (MEMS_CHIP != HW_ICM30630)
 330:.\20648_driver\drivers/inv_mems_mpu_fifo_control.c **** 	if (*header & PED_STEPDET_SET) {
 198              		.loc 1 330 0
 199 00c2 0D88     		ldrh	r5, [r1]
 200 00c4 ED06     		lsl	r5, r5, #27
 201 00c6 05D5     		bpl	.L13
 331:.\20648_driver\drivers/inv_mems_mpu_fifo_control.c **** 		sz += PED_STEPDET_TIMESTAMP_SZ;
 202              		.loc 1 331 0
 203 00c8 0434     		add	r4, r4, #4
 204              	.LVL13:
 332:.\20648_driver\drivers/inv_mems_mpu_fifo_control.c **** 		if (sample_cnt_array)
 205              		.loc 1 332 0
 206 00ca 002B     		cmp	r3, #0
 207 00cc 02D0     		beq	.L13
 333:.\20648_driver\drivers/inv_mems_mpu_fifo_control.c **** 			sample_cnt_array[ANDROID_SENSOR_STEP_DETECTOR]++;
 208              		.loc 1 333 0
 209 00ce 9D8C     		ldrh	r5, [r3, #36]
 210 00d0 0135     		add	r5, r5, #1
 211 00d2 9D84     		strh	r5, [r3, #36]
 212              	.L13:
 334:.\20648_driver\drivers/inv_mems_mpu_fifo_control.c **** 	}
 335:.\20648_driver\drivers/inv_mems_mpu_fifo_control.c **** #endif
 336:.\20648_driver\drivers/inv_mems_mpu_fifo_control.c ****     
 337:.\20648_driver\drivers/inv_mems_mpu_fifo_control.c **** 	if (*header & HEADER2_SET) {
 213              		.loc 1 337 0
 214 00d4 0D88     		ldrh	r5, [r1]
 215 00d6 0821     		mov	r1, #8
 216              	.LVL14:
 217 00d8 2940     		and	r1, r5
 218 00da 06D0     		beq	.L14
 338:.\20648_driver\drivers/inv_mems_mpu_fifo_control.c **** 		*header2 = (((unsigned short)data[2])<<8) | data[3];
 219              		.loc 1 338 0
 220 00dc 8178     		ldrb	r1, [r0, #2]
 221 00de C078     		ldrb	r0, [r0, #3]
 222              	.LVL15:
 223 00e0 0902     		lsl	r1, r1, #8
 224 00e2 0143     		orr	r1, r0
 225 00e4 1180     		strh	r1, [r2]
 339:.\20648_driver\drivers/inv_mems_mpu_fifo_control.c **** 		sz += HEADER2_SZ;
 226              		.loc 1 339 0
 227 00e6 0234     		add	r4, r4, #2
 228              	.LVL16:
ARM GAS  C:\Users\ADMINI~1\AppData\Local\Temp\ccRFd3Cg.s 			page 11


 229 00e8 00E0     		b	.L15
 230              	.LVL17:
 231              	.L14:
 340:.\20648_driver\drivers/inv_mems_mpu_fifo_control.c **** 	} else {
 341:.\20648_driver\drivers/inv_mems_mpu_fifo_control.c **** 		*header2 = 0;
 232              		.loc 1 341 0
 233 00ea 1180     		strh	r1, [r2]
 234              	.LVL18:
 235              	.L15:
 342:.\20648_driver\drivers/inv_mems_mpu_fifo_control.c **** 	}
 343:.\20648_driver\drivers/inv_mems_mpu_fifo_control.c ****     
 344:.\20648_driver\drivers/inv_mems_mpu_fifo_control.c **** 	if (*header2 & ACCEL_ACCURACY_SET) {
 236              		.loc 1 344 0
 237 00ec 1188     		ldrh	r1, [r2]
 238 00ee 4804     		lsl	r0, r1, #17
 239 00f0 00D5     		bpl	.L16
 345:.\20648_driver\drivers/inv_mems_mpu_fifo_control.c **** 		sz += ACCEL_ACCURACY_SZ;
 240              		.loc 1 345 0
 241 00f2 0234     		add	r4, r4, #2
 242              	.LVL19:
 243              	.L16:
 346:.\20648_driver\drivers/inv_mems_mpu_fifo_control.c **** 	}
 347:.\20648_driver\drivers/inv_mems_mpu_fifo_control.c **** 	if (*header2 & GYRO_ACCURACY_SET) {
 244              		.loc 1 347 0
 245 00f4 8804     		lsl	r0, r1, #18
 246 00f6 00D5     		bpl	.L17
 348:.\20648_driver\drivers/inv_mems_mpu_fifo_control.c **** 		sz += GYRO_ACCURACY_SZ;
 247              		.loc 1 348 0
 248 00f8 0234     		add	r4, r4, #2
 249              	.LVL20:
 250              	.L17:
 349:.\20648_driver\drivers/inv_mems_mpu_fifo_control.c **** 	}
 350:.\20648_driver\drivers/inv_mems_mpu_fifo_control.c **** #if (MEMS_CHIP == HW_ICM20630 || MEMS_CHIP == HW_ICM20648) 
 351:.\20648_driver\drivers/inv_mems_mpu_fifo_control.c **** 	if (*header2 & CPASS_ACCURACY_SET) {
 251              		.loc 1 351 0
 252 00fa C804     		lsl	r0, r1, #19
 253 00fc 00D5     		bpl	.L18
 352:.\20648_driver\drivers/inv_mems_mpu_fifo_control.c **** 		sz += CPASS_ACCURACY_SZ;
 254              		.loc 1 352 0
 255 00fe 0234     		add	r4, r4, #2
 256              	.LVL21:
 257              	.L18:
 353:.\20648_driver\drivers/inv_mems_mpu_fifo_control.c **** 	}
 354:.\20648_driver\drivers/inv_mems_mpu_fifo_control.c **** #endif
 355:.\20648_driver\drivers/inv_mems_mpu_fifo_control.c **** 
 356:.\20648_driver\drivers/inv_mems_mpu_fifo_control.c **** #if (MEMS_CHIP == HW_ICM30630)
 357:.\20648_driver\drivers/inv_mems_mpu_fifo_control.c **** 	if (*header2 & FSYNC_SET) {
 358:.\20648_driver\drivers/inv_mems_mpu_fifo_control.c **** 		sz += FSYNC_SZ;
 359:.\20648_driver\drivers/inv_mems_mpu_fifo_control.c **** 	}
 360:.\20648_driver\drivers/inv_mems_mpu_fifo_control.c **** #endif
 361:.\20648_driver\drivers/inv_mems_mpu_fifo_control.c **** 
 362:.\20648_driver\drivers/inv_mems_mpu_fifo_control.c **** #if (MEMS_CHIP == HW_ICM30630 || MEMS_CHIP == HW_ICM20645_E || MEMS_CHIP == HW_ICM20648)
 363:.\20648_driver\drivers/inv_mems_mpu_fifo_control.c **** 	if (*header2 & FLIP_PICKUP_SET) {
 258              		.loc 1 363 0
 259 0100 4905     		lsl	r1, r1, #21
 260 0102 07D5     		bpl	.L19
 364:.\20648_driver\drivers/inv_mems_mpu_fifo_control.c **** 		sz += FLIP_PICKUP_SZ;
ARM GAS  C:\Users\ADMINI~1\AppData\Local\Temp\ccRFd3Cg.s 			page 12


 261              		.loc 1 364 0
 262 0104 0234     		add	r4, r4, #2
 263              	.LVL22:
 365:.\20648_driver\drivers/inv_mems_mpu_fifo_control.c **** 		if (sample_cnt_array)
 264              		.loc 1 365 0
 265 0106 002B     		cmp	r3, #0
 266 0108 04D0     		beq	.L19
 366:.\20648_driver\drivers/inv_mems_mpu_fifo_control.c **** 			sample_cnt_array[ANDROID_SENSOR_FLIP_PICKUP]++;
 267              		.loc 1 366 0
 268 010a 181C     		mov	r0, r3
 269 010c 5830     		add	r0, r0, #88
 270 010e 0188     		ldrh	r1, [r0]
 271 0110 0131     		add	r1, r1, #1
 272 0112 0180     		strh	r1, [r0]
 273              	.L19:
 367:.\20648_driver\drivers/inv_mems_mpu_fifo_control.c **** 	}
 368:.\20648_driver\drivers/inv_mems_mpu_fifo_control.c **** #endif
 369:.\20648_driver\drivers/inv_mems_mpu_fifo_control.c **** #if (MEMS_CHIP == HW_ICM20645_E || MEMS_CHIP == HW_ICM20648)
 370:.\20648_driver\drivers/inv_mems_mpu_fifo_control.c **** 	if (*header2 & ACT_RECOG_SET) {
 274              		.loc 1 370 0
 275 0114 1288     		ldrh	r2, [r2]
 276              	.LVL23:
 277 0116 1206     		lsl	r2, r2, #24
 278 0118 06D5     		bpl	.L20
 371:.\20648_driver\drivers/inv_mems_mpu_fifo_control.c **** 		sz += ACT_RECOG_SZ;
 279              		.loc 1 371 0
 280 011a 0634     		add	r4, r4, #6
 281              	.LVL24:
 372:.\20648_driver\drivers/inv_mems_mpu_fifo_control.c **** 		if (sample_cnt_array)
 282              		.loc 1 372 0
 283 011c 002B     		cmp	r3, #0
 284 011e 03D0     		beq	.L20
 373:.\20648_driver\drivers/inv_mems_mpu_fifo_control.c **** 			sample_cnt_array[ANDROID_SENSOR_ACTIVITY_CLASSIFICATON]++;
 285              		.loc 1 373 0
 286 0120 5A33     		add	r3, r3, #90
 287              	.LVL25:
 288 0122 1A88     		ldrh	r2, [r3]
 289 0124 0132     		add	r2, r2, #1
 290 0126 1A80     		strh	r2, [r3]
 291              	.LVL26:
 292              	.L20:
 374:.\20648_driver\drivers/inv_mems_mpu_fifo_control.c **** 	}
 375:.\20648_driver\drivers/inv_mems_mpu_fifo_control.c **** #endif
 376:.\20648_driver\drivers/inv_mems_mpu_fifo_control.c **** #if (MEMS_CHIP == HW_ICM30630 || MEMS_CHIP == HW_ICM20645_E)
 377:.\20648_driver\drivers/inv_mems_mpu_fifo_control.c **** 	if (*header & FOOTER_SET) {
 378:.\20648_driver\drivers/inv_mems_mpu_fifo_control.c **** 		sz += FOOTER_SZ;
 379:.\20648_driver\drivers/inv_mems_mpu_fifo_control.c **** 	}
 380:.\20648_driver\drivers/inv_mems_mpu_fifo_control.c **** #endif
 381:.\20648_driver\drivers/inv_mems_mpu_fifo_control.c **** 
 382:.\20648_driver\drivers/inv_mems_mpu_fifo_control.c **** #if (MEMS_CHIP == HW_ICM20648) 
 383:.\20648_driver\drivers/inv_mems_mpu_fifo_control.c **** 	sz += ODR_CNT_GYRO_SZ;
 293              		.loc 1 383 0
 294 0128 A01C     		add	r0, r4, #2
 295              	.LVL27:
 384:.\20648_driver\drivers/inv_mems_mpu_fifo_control.c **** #endif
 385:.\20648_driver\drivers/inv_mems_mpu_fifo_control.c **** 
 386:.\20648_driver\drivers/inv_mems_mpu_fifo_control.c **** 	return sz;
ARM GAS  C:\Users\ADMINI~1\AppData\Local\Temp\ccRFd3Cg.s 			page 13


 387:.\20648_driver\drivers/inv_mems_mpu_fifo_control.c **** }
 296              		.loc 1 387 0
 297              		@ sp needed
 298 012a 70BD     		pop	{r4, r5, r6, pc}
 299              		.cfi_endproc
 300              	.LFE10:
 301              		.size	get_packet_size_and_samplecnt, .-get_packet_size_and_samplecnt
 302              		.section	.text.check_fifo_decoded_headers,"ax",%progbits
 303              		.align	1
 304              		.code	16
 305              		.thumb_func
 306              		.type	check_fifo_decoded_headers, %function
 307              	check_fifo_decoded_headers:
 308              	.LFB11:
 388:.\20648_driver\drivers/inv_mems_mpu_fifo_control.c **** 
 389:.\20648_driver\drivers/inv_mems_mpu_fifo_control.c **** static int check_fifo_decoded_headers(unsigned short header, unsigned short header2)
 390:.\20648_driver\drivers/inv_mems_mpu_fifo_control.c **** {
 309              		.loc 1 390 0
 310              		.cfi_startproc
 311              	.LVL28:
 312              		.loc 1 390 0
 313 0000 021E     		sub	r2, r0, #0
 391:.\20648_driver\drivers/inv_mems_mpu_fifo_control.c **** 	unsigned short header_bit_mask = 0;
 392:.\20648_driver\drivers/inv_mems_mpu_fifo_control.c **** 	unsigned short header2_bit_mask = 0;
 393:.\20648_driver\drivers/inv_mems_mpu_fifo_control.c **** 	
 394:.\20648_driver\drivers/inv_mems_mpu_fifo_control.c **** 	// at least 1 bit must be set
 395:.\20648_driver\drivers/inv_mems_mpu_fifo_control.c **** 	if (header == 0)
 314              		.loc 1 395 0
 315 0002 0DD0     		beq	.L109
 316              	.LVL29:
 396:.\20648_driver\drivers/inv_mems_mpu_fifo_control.c **** 		return -1;
 397:.\20648_driver\drivers/inv_mems_mpu_fifo_control.c **** 	
 398:.\20648_driver\drivers/inv_mems_mpu_fifo_control.c **** 	header_bit_mask |= ACCEL_SET;
 399:.\20648_driver\drivers/inv_mems_mpu_fifo_control.c **** 	header_bit_mask |= GYRO_SET;
 400:.\20648_driver\drivers/inv_mems_mpu_fifo_control.c **** #if (MEMS_CHIP == HW_ICM20630) || (MEMS_CHIP == HW_ICM20648)
 401:.\20648_driver\drivers/inv_mems_mpu_fifo_control.c **** 	header_bit_mask |= CPASS_SET;
 402:.\20648_driver\drivers/inv_mems_mpu_fifo_control.c **** 	header_bit_mask |= ALS_SET;
 403:.\20648_driver\drivers/inv_mems_mpu_fifo_control.c **** #endif
 404:.\20648_driver\drivers/inv_mems_mpu_fifo_control.c **** 	header_bit_mask |= QUAT6_SET;
 405:.\20648_driver\drivers/inv_mems_mpu_fifo_control.c **** #if (MEMS_CHIP != HW_ICM20609)
 406:.\20648_driver\drivers/inv_mems_mpu_fifo_control.c **** 	header_bit_mask |= QUAT9_SET;
 407:.\20648_driver\drivers/inv_mems_mpu_fifo_control.c **** #endif
 408:.\20648_driver\drivers/inv_mems_mpu_fifo_control.c **** 	header_bit_mask |= PQUAT6_SET;
 409:.\20648_driver\drivers/inv_mems_mpu_fifo_control.c **** #if (MEMS_CHIP == HW_ICM20648)
 410:.\20648_driver\drivers/inv_mems_mpu_fifo_control.c **** 	header_bit_mask |= GEOMAG_SET;
 411:.\20648_driver\drivers/inv_mems_mpu_fifo_control.c **** #endif
 412:.\20648_driver\drivers/inv_mems_mpu_fifo_control.c **** #if (MEMS_CHIP == HW_ICM20630 || MEMS_CHIP == HW_ICM20648) 
 413:.\20648_driver\drivers/inv_mems_mpu_fifo_control.c **** 	header_bit_mask |= PRESSURE_SET;
 414:.\20648_driver\drivers/inv_mems_mpu_fifo_control.c **** #endif
 415:.\20648_driver\drivers/inv_mems_mpu_fifo_control.c **** #if (MEMS_CHIP != HW_ICM30630)
 416:.\20648_driver\drivers/inv_mems_mpu_fifo_control.c **** 	header_bit_mask |= GYRO_CALIBR_SET;
 417:.\20648_driver\drivers/inv_mems_mpu_fifo_control.c **** #endif
 418:.\20648_driver\drivers/inv_mems_mpu_fifo_control.c **** #if (MEMS_CHIP == HW_ICM20630 || MEMS_CHIP == HW_ICM20648) 
 419:.\20648_driver\drivers/inv_mems_mpu_fifo_control.c **** 	header_bit_mask |= CPASS_CALIBR_SET;
 420:.\20648_driver\drivers/inv_mems_mpu_fifo_control.c **** #endif
 421:.\20648_driver\drivers/inv_mems_mpu_fifo_control.c **** #if (MEMS_CHIP != HW_ICM30630)
 422:.\20648_driver\drivers/inv_mems_mpu_fifo_control.c **** 	header_bit_mask |= PED_STEPDET_SET;
ARM GAS  C:\Users\ADMINI~1\AppData\Local\Temp\ccRFd3Cg.s 			page 14


 423:.\20648_driver\drivers/inv_mems_mpu_fifo_control.c **** #endif
 424:.\20648_driver\drivers/inv_mems_mpu_fifo_control.c **** 	header_bit_mask |= HEADER2_SET;
 425:.\20648_driver\drivers/inv_mems_mpu_fifo_control.c **** 	
 426:.\20648_driver\drivers/inv_mems_mpu_fifo_control.c **** 	if (header & ~header_bit_mask)
 317              		.loc 1 426 0
 318 0004 084B     		ldr	r3, .L114
 319 0006 0340     		and	r3, r0
 320 0008 181E     		sub	r0, r3, #0
 321              	.LVL30:
 322 000a 09D1     		bne	.L109
 427:.\20648_driver\drivers/inv_mems_mpu_fifo_control.c **** 		return -1;
 428:.\20648_driver\drivers/inv_mems_mpu_fifo_control.c **** 	
 429:.\20648_driver\drivers/inv_mems_mpu_fifo_control.c **** 	// at least 1 bit must be set if header 2 is set
 430:.\20648_driver\drivers/inv_mems_mpu_fifo_control.c **** 	if (header & HEADER2_SET) {
 323              		.loc 1 430 0
 324 000c 1307     		lsl	r3, r2, #28
 325 000e 09D5     		bpl	.L106
 326              	.LVL31:
 431:.\20648_driver\drivers/inv_mems_mpu_fifo_control.c **** 		header2_bit_mask |= ACCEL_ACCURACY_SET;
 432:.\20648_driver\drivers/inv_mems_mpu_fifo_control.c **** 		header2_bit_mask |= GYRO_ACCURACY_SET;
 433:.\20648_driver\drivers/inv_mems_mpu_fifo_control.c **** #if (MEMS_CHIP == HW_ICM20630 || MEMS_CHIP == HW_ICM20648) 
 434:.\20648_driver\drivers/inv_mems_mpu_fifo_control.c **** 		header2_bit_mask |= CPASS_ACCURACY_SET;
 435:.\20648_driver\drivers/inv_mems_mpu_fifo_control.c **** #endif
 436:.\20648_driver\drivers/inv_mems_mpu_fifo_control.c **** #if (MEMS_CHIP == HW_ICM30630)
 437:.\20648_driver\drivers/inv_mems_mpu_fifo_control.c **** 		header2_bit_mask |= FSYNC_SET;
 438:.\20648_driver\drivers/inv_mems_mpu_fifo_control.c **** #endif
 439:.\20648_driver\drivers/inv_mems_mpu_fifo_control.c **** #if (MEMS_CHIP == HW_ICM30630 || MEMS_CHIP == HW_ICM20645_E || MEMS_CHIP == HW_ICM20648)
 440:.\20648_driver\drivers/inv_mems_mpu_fifo_control.c **** 		header2_bit_mask |= FLIP_PICKUP_SET;
 441:.\20648_driver\drivers/inv_mems_mpu_fifo_control.c **** #endif
 442:.\20648_driver\drivers/inv_mems_mpu_fifo_control.c **** #if (MEMS_CHIP == HW_ICM20645_E || MEMS_CHIP == HW_ICM20648)
 443:.\20648_driver\drivers/inv_mems_mpu_fifo_control.c **** 		header2_bit_mask |= ACT_RECOG_SET;
 444:.\20648_driver\drivers/inv_mems_mpu_fifo_control.c **** #endif
 445:.\20648_driver\drivers/inv_mems_mpu_fifo_control.c **** #if (MEMS_CHIP == HW_ICM30630 || MEMS_CHIP == HW_ICM20645_E)
 446:.\20648_driver\drivers/inv_mems_mpu_fifo_control.c **** 		header2_bit_mask |= FOOTER_SET;
 447:.\20648_driver\drivers/inv_mems_mpu_fifo_control.c **** #endif
 448:.\20648_driver\drivers/inv_mems_mpu_fifo_control.c **** 		if (header2 == 0)
 327              		.loc 1 448 0
 328 0010 0029     		cmp	r1, #0
 329 0012 05D0     		beq	.L109
 449:.\20648_driver\drivers/inv_mems_mpu_fifo_control.c **** 			return -1;
 450:.\20648_driver\drivers/inv_mems_mpu_fifo_control.c **** 		if (header2 & ~header2_bit_mask)
 330              		.loc 1 450 0
 331 0014 054B     		ldr	r3, .L114+4
 332 0016 1940     		and	r1, r3
 333              	.LVL32:
 334 0018 081C     		mov	r0, r1
 335 001a 411E     		sub	r1, r0, #1
 336 001c 8841     		sbc	r0, r0, r1
 337 001e 00E0     		b	.L113
 338              	.LVL33:
 339              	.L109:
 396:.\20648_driver\drivers/inv_mems_mpu_fifo_control.c **** 	
 340              		.loc 1 396 0
 341 0020 0120     		mov	r0, #1
 342              	.LVL34:
 343              	.L113:
 344 0022 4042     		neg	r0, r0
ARM GAS  C:\Users\ADMINI~1\AppData\Local\Temp\ccRFd3Cg.s 			page 15


 345              	.L106:
 451:.\20648_driver\drivers/inv_mems_mpu_fifo_control.c **** 			return -1;
 452:.\20648_driver\drivers/inv_mems_mpu_fifo_control.c **** 	}
 453:.\20648_driver\drivers/inv_mems_mpu_fifo_control.c **** 
 454:.\20648_driver\drivers/inv_mems_mpu_fifo_control.c ****     return 0;
 455:.\20648_driver\drivers/inv_mems_mpu_fifo_control.c **** }
 346              		.loc 1 455 0
 347              		@ sp needed
 348 0024 7047     		bx	lr
 349              	.L115:
 350 0026 C046     		.align	2
 351              	.L114:
 352 0028 0700FFFF 		.word	-65529
 353 002c 7F8BFFFF 		.word	-29825
 354              		.cfi_endproc
 355              	.LFE11:
 356              		.size	check_fifo_decoded_headers, .-check_fifo_decoded_headers
 357              		.section	.text.dmp_get_fifo_length.part.0,"ax",%progbits
 358              		.align	1
 359              		.code	16
 360              		.thumb_func
 361              		.type	dmp_get_fifo_length.part.0, %function
 362              	dmp_get_fifo_length.part.0:
 363              	.LFB36:
  96:.\20648_driver\drivers/inv_mems_mpu_fifo_control.c **** {
 364              		.loc 1 96 0
 365              		.cfi_startproc
 366              	.LVL35:
 367 0000 37B5     		push	{r0, r1, r2, r4, r5, lr}
 368              		.cfi_def_cfa_offset 24
 369              		.cfi_offset 0, -24
 370              		.cfi_offset 1, -20
 371              		.cfi_offset 2, -16
 372              		.cfi_offset 4, -12
 373              		.cfi_offset 5, -8
 374              		.cfi_offset 14, -4
 106:.\20648_driver\drivers/inv_mems_mpu_fifo_control.c **** 	if (result) 
 375              		.loc 1 106 0
 376 0002 01AD     		add	r5, sp, #4
  96:.\20648_driver\drivers/inv_mems_mpu_fifo_control.c **** {
 377              		.loc 1 96 0
 378 0004 041C     		mov	r4, r0
 106:.\20648_driver\drivers/inv_mems_mpu_fifo_control.c **** 	if (result) 
 379              		.loc 1 106 0
 380 0006 0221     		mov	r1, #2
 381 0008 7020     		mov	r0, #112
 382              	.LVL36:
 383 000a 2A1C     		mov	r2, r5
 384 000c FFF7FEFF 		bl	inv_read_mems_reg
 385              	.LVL37:
 107:.\20648_driver\drivers/inv_mems_mpu_fifo_control.c **** 	{
 386              		.loc 1 107 0
 387 0010 0028     		cmp	r0, #0
 388 0012 04D0     		beq	.L117
 109:.\20648_driver\drivers/inv_mems_mpu_fifo_control.c **** 		*len = 0;
 389              		.loc 1 109 0
 390 0014 4022     		mov	r2, #64
ARM GAS  C:\Users\ADMINI~1\AppData\Local\Temp\ccRFd3Cg.s 			page 16


 391 0016 054B     		ldr	r3, .L120
 392 0018 1A60     		str	r2, [r3]
 110:.\20648_driver\drivers/inv_mems_mpu_fifo_control.c **** 		return result;
 393              		.loc 1 110 0
 394 001a 0023     		mov	r3, #0
 395 001c 03E0     		b	.L119
 396              	.L117:
 114:.\20648_driver\drivers/inv_mems_mpu_fifo_control.c **** 	*len += (uint_fast16_t) (fifoBuf[1]);
 397              		.loc 1 114 0
 398 001e 2B78     		ldrb	r3, [r5]
 115:.\20648_driver\drivers/inv_mems_mpu_fifo_control.c **** 
 399              		.loc 1 115 0
 400 0020 6A78     		ldrb	r2, [r5, #1]
 114:.\20648_driver\drivers/inv_mems_mpu_fifo_control.c **** 	*len += (uint_fast16_t) (fifoBuf[1]);
 401              		.loc 1 114 0
 402 0022 1B02     		lsl	r3, r3, #8
 115:.\20648_driver\drivers/inv_mems_mpu_fifo_control.c **** 
 403              		.loc 1 115 0
 404 0024 9B18     		add	r3, r3, r2
 405              	.L119:
 406 0026 2360     		str	r3, [r4]
 118:.\20648_driver\drivers/inv_mems_mpu_fifo_control.c **** 
 407              		.loc 1 118 0
 408              		@ sp needed
 409              	.LVL38:
 410 0028 3EBD     		pop	{r1, r2, r3, r4, r5, pc}
 411              	.L121:
 412 002a C046     		.align	2
 413              	.L120:
 414 002c 00000000 		.word	.LANCHOR0
 415              		.cfi_endproc
 416              	.LFE36:
 417              		.size	dmp_get_fifo_length.part.0, .-dmp_get_fifo_length.part.0
 418              		.section	.text.mpu_set_FIFO_RST_Diamond,"ax",%progbits
 419              		.align	1
 420              		.global	mpu_set_FIFO_RST_Diamond
 421              		.code	16
 422              		.thumb_func
 423              		.type	mpu_set_FIFO_RST_Diamond, %function
 424              	mpu_set_FIFO_RST_Diamond:
 425              	.LFB4:
  42:.\20648_driver\drivers/inv_mems_mpu_fifo_control.c **** 	inv_error_t result = 0;
 426              		.loc 1 42 0
 427              		.cfi_startproc
 428              	.LVL39:
 429 0000 73B5     		push	{r0, r1, r4, r5, r6, lr}
 430              		.cfi_def_cfa_offset 24
 431              		.cfi_offset 0, -24
 432              		.cfi_offset 1, -20
 433              		.cfi_offset 4, -16
 434              		.cfi_offset 5, -12
 435              		.cfi_offset 6, -8
 436              		.cfi_offset 14, -4
  46:.\20648_driver\drivers/inv_mems_mpu_fifo_control.c ****     
 437              		.loc 1 46 0
 438 0002 6B46     		mov	r3, sp
 439 0004 DC1D     		add	r4, r3, #7
ARM GAS  C:\Users\ADMINI~1\AppData\Local\Temp\ccRFd3Cg.s 			page 17


  42:.\20648_driver\drivers/inv_mems_mpu_fifo_control.c **** 	inv_error_t result = 0;
 440              		.loc 1 42 0
 441 0006 061C     		mov	r6, r0
  46:.\20648_driver\drivers/inv_mems_mpu_fifo_control.c ****     
 442              		.loc 1 46 0
 443 0008 221C     		mov	r2, r4
 444 000a 0121     		mov	r1, #1
 445 000c 6820     		mov	r0, #104
 446              	.LVL40:
 447 000e FFF7FEFF 		bl	inv_read_mems_reg
 448              	.LVL41:
  48:.\20648_driver\drivers/inv_mems_mpu_fifo_control.c **** 	reg |= value;
 449              		.loc 1 48 0
 450 0012 1F22     		mov	r2, #31
 451 0014 2378     		ldrb	r3, [r4]
  46:.\20648_driver\drivers/inv_mems_mpu_fifo_control.c ****     
 452              		.loc 1 46 0
 453 0016 051C     		mov	r5, r0
 454              	.LVL42:
  48:.\20648_driver\drivers/inv_mems_mpu_fifo_control.c **** 	reg |= value;
 455              		.loc 1 48 0
 456 0018 9343     		bic	r3, r2
  49:.\20648_driver\drivers/inv_mems_mpu_fifo_control.c **** 	result |= inv_write_mems_reg(REG_FIFO_RST, 1, &reg);
 457              		.loc 1 49 0
 458 001a 3343     		orr	r3, r6
  50:.\20648_driver\drivers/inv_mems_mpu_fifo_control.c ****     
 459              		.loc 1 50 0
 460 001c 0121     		mov	r1, #1
 461 001e 221C     		mov	r2, r4
 462 0020 6820     		mov	r0, #104
 463              	.LVL43:
  49:.\20648_driver\drivers/inv_mems_mpu_fifo_control.c **** 	result |= inv_write_mems_reg(REG_FIFO_RST, 1, &reg);
 464              		.loc 1 49 0
 465 0022 2370     		strb	r3, [r4]
  50:.\20648_driver\drivers/inv_mems_mpu_fifo_control.c ****     
 466              		.loc 1 50 0
 467 0024 FFF7FEFF 		bl	inv_write_mems_reg
 468              	.LVL44:
  53:.\20648_driver\drivers/inv_mems_mpu_fifo_control.c **** #endif
 469              		.loc 1 53 0
 470              		@ sp needed
  50:.\20648_driver\drivers/inv_mems_mpu_fifo_control.c ****     
 471              		.loc 1 50 0
 472 0028 2843     		orr	r0, r5
 473              	.LVL45:
  53:.\20648_driver\drivers/inv_mems_mpu_fifo_control.c **** #endif
 474              		.loc 1 53 0
 475 002a 76BD     		pop	{r1, r2, r4, r5, r6, pc}
 476              		.cfi_endproc
 477              	.LFE4:
 478              		.size	mpu_set_FIFO_RST_Diamond, .-mpu_set_FIFO_RST_Diamond
 479              		.section	.text.inv_identify_interrupt,"ax",%progbits
 480              		.align	1
 481              		.global	inv_identify_interrupt
 482              		.code	16
 483              		.thumb_func
 484              		.type	inv_identify_interrupt, %function
ARM GAS  C:\Users\ADMINI~1\AppData\Local\Temp\ccRFd3Cg.s 			page 18


 485              	inv_identify_interrupt:
 486              	.LFB5:
  57:.\20648_driver\drivers/inv_mems_mpu_fifo_control.c **** 	unsigned char int_status;
 487              		.loc 1 57 0
 488              		.cfi_startproc
 489              	.LVL46:
 490 0000 37B5     		push	{r0, r1, r2, r4, r5, lr}
 491              		.cfi_def_cfa_offset 24
 492              		.cfi_offset 0, -24
 493              		.cfi_offset 1, -20
 494              		.cfi_offset 2, -16
 495              		.cfi_offset 4, -12
 496              		.cfi_offset 5, -8
 497              		.cfi_offset 14, -4
  57:.\20648_driver\drivers/inv_mems_mpu_fifo_control.c **** 	unsigned char int_status;
 498              		.loc 1 57 0
 499 0002 041E     		sub	r4, r0, #0
  61:.\20648_driver\drivers/inv_mems_mpu_fifo_control.c ****         *int_read = 0;
 500              		.loc 1 61 0
 501 0004 01D0     		beq	.L124
  62:.\20648_driver\drivers/inv_mems_mpu_fifo_control.c ****     
 502              		.loc 1 62 0
 503 0006 0023     		mov	r3, #0
 504 0008 0380     		strh	r3, [r0]
 505              	.L124:
  64:.\20648_driver\drivers/inv_mems_mpu_fifo_control.c ****     if(int_read)
 506              		.loc 1 64 0
 507 000a 6B46     		mov	r3, sp
 508 000c DD1D     		add	r5, r3, #7
 509 000e 1920     		mov	r0, #25
 510              	.LVL47:
 511 0010 0121     		mov	r1, #1
 512 0012 2A1C     		mov	r2, r5
 513 0014 FFF7FEFF 		bl	inv_read_mems_reg
 514              	.LVL48:
  65:.\20648_driver\drivers/inv_mems_mpu_fifo_control.c ****         *int_read = int_status;
 515              		.loc 1 65 0
 516 0018 002C     		cmp	r4, #0
 517 001a 01D0     		beq	.L125
  66:.\20648_driver\drivers/inv_mems_mpu_fifo_control.c **** 
 518              		.loc 1 66 0
 519 001c 2B78     		ldrb	r3, [r5]
 520 001e 2380     		strh	r3, [r4]
 521              	.L125:
  68:.\20648_driver\drivers/inv_mems_mpu_fifo_control.c **** 	if(int_read)
 522              		.loc 1 68 0
 523 0020 1820     		mov	r0, #24
 524 0022 0121     		mov	r1, #1
 525 0024 2A1C     		mov	r2, r5
 526 0026 FFF7FEFF 		bl	inv_read_mems_reg
 527              	.LVL49:
  69:.\20648_driver\drivers/inv_mems_mpu_fifo_control.c **** 		*int_read |= (int_status << 8);
 528              		.loc 1 69 0
 529 002a 002C     		cmp	r4, #0
 530 002c 04D0     		beq	.L126
  70:.\20648_driver\drivers/inv_mems_mpu_fifo_control.c ****     
 531              		.loc 1 70 0
ARM GAS  C:\Users\ADMINI~1\AppData\Local\Temp\ccRFd3Cg.s 			page 19


 532 002e 2B78     		ldrb	r3, [r5]
 533 0030 2288     		ldrh	r2, [r4]
 534 0032 1B02     		lsl	r3, r3, #8
 535 0034 1343     		orr	r3, r2
 536 0036 2380     		strh	r3, [r4]
 537              	.L126:
  85:.\20648_driver\drivers/inv_mems_mpu_fifo_control.c **** 
 538              		.loc 1 85 0
 539              		@ sp needed
 540              	.LVL50:
 541 0038 3EBD     		pop	{r1, r2, r3, r4, r5, pc}
 542              		.cfi_endproc
 543              	.LFE5:
 544              		.size	inv_identify_interrupt, .-inv_identify_interrupt
 545              		.section	.text.dmp_get_fifo_length,"ax",%progbits
 546              		.align	1
 547              		.global	dmp_get_fifo_length
 548              		.code	16
 549              		.thumb_func
 550              		.type	dmp_get_fifo_length, %function
 551              	dmp_get_fifo_length:
 552              	.LFB6:
  97:.\20648_driver\drivers/inv_mems_mpu_fifo_control.c **** 	unsigned char fifoBuf[2];
 553              		.loc 1 97 0
 554              		.cfi_startproc
 555              	.LVL51:
 556 0000 08B5     		push	{r3, lr}
 557              		.cfi_def_cfa_offset 8
 558              		.cfi_offset 3, -8
 559              		.cfi_offset 14, -4
  97:.\20648_driver\drivers/inv_mems_mpu_fifo_control.c **** 	unsigned char fifoBuf[2];
 560              		.loc 1 97 0
 561 0002 031C     		mov	r3, r0
 102:.\20648_driver\drivers/inv_mems_mpu_fifo_control.c ****     
 562              		.loc 1 102 0
 563 0004 1620     		mov	r0, #22
 564              	.LVL52:
 101:.\20648_driver\drivers/inv_mems_mpu_fifo_control.c **** 		return INV_ERROR_INVALID_PARAMETER;
 565              		.loc 1 101 0
 566 0006 002B     		cmp	r3, #0
 567 0008 02D0     		beq	.L137
 568 000a 181C     		mov	r0, r3
 569 000c FFF7FEFF 		bl	dmp_get_fifo_length.part.0
 570              	.LVL53:
 571              	.L137:
 118:.\20648_driver\drivers/inv_mems_mpu_fifo_control.c **** 
 572              		.loc 1 118 0
 573              		@ sp needed
 574 0010 08BD     		pop	{r3, pc}
 575              		.cfi_endproc
 576              	.LFE6:
 577              		.size	dmp_get_fifo_length, .-dmp_get_fifo_length
 578              		.section	.text.dmp_reset_fifo,"ax",%progbits
 579              		.align	1
 580              		.global	dmp_reset_fifo
 581              		.code	16
 582              		.thumb_func
ARM GAS  C:\Users\ADMINI~1\AppData\Local\Temp\ccRFd3Cg.s 			page 20


 583              		.type	dmp_reset_fifo, %function
 584              	dmp_reset_fifo:
 585              	.LFB7:
 128:.\20648_driver\drivers/inv_mems_mpu_fifo_control.c ****     uint_fast16_t len = HARDWARE_FIFO_SIZE;
 586              		.loc 1 128 0
 587              		.cfi_startproc
 129:.\20648_driver\drivers/inv_mems_mpu_fifo_control.c **** 	unsigned char tries = 0;
 588              		.loc 1 129 0
 589 0000 8023     		mov	r3, #128
 128:.\20648_driver\drivers/inv_mems_mpu_fifo_control.c ****     uint_fast16_t len = HARDWARE_FIFO_SIZE;
 590              		.loc 1 128 0
 591 0002 37B5     		push	{r0, r1, r2, r4, r5, lr}
 592              		.cfi_def_cfa_offset 24
 593              		.cfi_offset 0, -24
 594              		.cfi_offset 1, -20
 595              		.cfi_offset 2, -16
 596              		.cfi_offset 4, -12
 597              		.cfi_offset 5, -8
 598              		.cfi_offset 14, -4
 133:.\20648_driver\drivers/inv_mems_mpu_fifo_control.c **** 	{ 
 599              		.loc 1 133 0
 600 0004 0724     		mov	r4, #7
 129:.\20648_driver\drivers/inv_mems_mpu_fifo_control.c **** 	unsigned char tries = 0;
 601              		.loc 1 129 0
 602 0006 DB00     		lsl	r3, r3, #3
 603 0008 0193     		str	r3, [sp, #4]
 604              	.LVL54:
 605              	.L141:
 606 000a 144A     		ldr	r2, .L149
 133:.\20648_driver\drivers/inv_mems_mpu_fifo_control.c **** 	{ 
 607              		.loc 1 133 0
 608 000c 019B     		ldr	r3, [sp, #4]
 136:.\20648_driver\drivers/inv_mems_mpu_fifo_control.c **** 		result |= inv_write_single_mems_reg(REG_USER_CTRL, base_state.user_ctrl);
 609              		.loc 1 136 0
 610 000e D178     		ldrb	r1, [r2, #3]
 133:.\20648_driver\drivers/inv_mems_mpu_fifo_control.c **** 	{ 
 611              		.loc 1 133 0
 612 0010 002B     		cmp	r3, #0
 613 0012 1BD0     		beq	.L143
 614 0014 013C     		sub	r4, r4, #1
 615              	.LVL55:
 616 0016 E4B2     		uxtb	r4, r4
 133:.\20648_driver\drivers/inv_mems_mpu_fifo_control.c **** 	{ 
 617              		.loc 1 133 0 is_stmt 0 discriminator 1
 618 0018 002C     		cmp	r4, #0
 619 001a 17D0     		beq	.L143
 620              	.LVL56:
 136:.\20648_driver\drivers/inv_mems_mpu_fifo_control.c **** 		result |= inv_write_single_mems_reg(REG_USER_CTRL, base_state.user_ctrl);
 621              		.loc 1 136 0 is_stmt 1
 622 001c 3F23     		mov	r3, #63
 137:.\20648_driver\drivers/inv_mems_mpu_fifo_control.c ****                 
 623              		.loc 1 137 0
 624 001e 0320     		mov	r0, #3
 136:.\20648_driver\drivers/inv_mems_mpu_fifo_control.c **** 		result |= inv_write_single_mems_reg(REG_USER_CTRL, base_state.user_ctrl);
 625              		.loc 1 136 0
 626 0020 1940     		and	r1, r3
 627 0022 D170     		strb	r1, [r2, #3]
ARM GAS  C:\Users\ADMINI~1\AppData\Local\Temp\ccRFd3Cg.s 			page 21


 137:.\20648_driver\drivers/inv_mems_mpu_fifo_control.c ****                 
 628              		.loc 1 137 0
 629 0024 FFF7FEFF 		bl	inv_write_single_mems_reg
 630              	.LVL57:
 631 0028 051C     		mov	r5, r0
 632              	.LVL58:
 140:.\20648_driver\drivers/inv_mems_mpu_fifo_control.c **** 		result |= mpu_set_FIFO_RST_Diamond(0x1e);
 633              		.loc 1 140 0
 634 002a 1F20     		mov	r0, #31
 635              	.LVL59:
 636 002c FFF7FEFF 		bl	mpu_set_FIFO_RST_Diamond
 637              	.LVL60:
 638 0030 0543     		orr	r5, r0
 639              	.LVL61:
 141:.\20648_driver\drivers/inv_mems_mpu_fifo_control.c **** #else
 640              		.loc 1 141 0
 641 0032 1E20     		mov	r0, #30
 642 0034 FFF7FEFF 		bl	mpu_set_FIFO_RST_Diamond
 643              	.LVL62:
 150:.\20648_driver\drivers/inv_mems_mpu_fifo_control.c ****         
 644              		.loc 1 150 0
 645 0038 0022     		mov	r2, #0
 646 003a 094B     		ldr	r3, .L149+4
 141:.\20648_driver\drivers/inv_mems_mpu_fifo_control.c **** #else
 647              		.loc 1 141 0
 648 003c 0543     		orr	r5, r0
 649              	.LVL63:
 650              	.LBB4:
 651              	.LBB5:
 652 003e 01A8     		add	r0, sp, #4
 653              	.LBE5:
 654              	.LBE4:
 150:.\20648_driver\drivers/inv_mems_mpu_fifo_control.c ****         
 655              		.loc 1 150 0
 656 0040 1A71     		strb	r2, [r3, #4]
 657              	.LVL64:
 658              	.LBB7:
 659              	.LBB6:
 660 0042 FFF7FEFF 		bl	dmp_get_fifo_length.part.0
 661              	.LVL65:
 662              	.LBE6:
 663              	.LBE7:
 152:.\20648_driver\drivers/inv_mems_mpu_fifo_control.c **** 		if (result) 
 664              		.loc 1 152 0
 665 0046 2843     		orr	r0, r5
 666              	.LVL66:
 153:.\20648_driver\drivers/inv_mems_mpu_fifo_control.c **** 			return result;
 667              		.loc 1 153 0
 668 0048 DFD0     		beq	.L141
 669 004a 05E0     		b	.L142
 670              	.LVL67:
 671              	.L143:
 160:.\20648_driver\drivers/inv_mems_mpu_fifo_control.c **** 	result |= inv_write_single_mems_reg(REG_USER_CTRL, base_state.user_ctrl);
 672              		.loc 1 160 0
 673 004c C023     		mov	r3, #192
 161:.\20648_driver\drivers/inv_mems_mpu_fifo_control.c ****     
 674              		.loc 1 161 0
ARM GAS  C:\Users\ADMINI~1\AppData\Local\Temp\ccRFd3Cg.s 			page 22


 675 004e 0320     		mov	r0, #3
 160:.\20648_driver\drivers/inv_mems_mpu_fifo_control.c **** 	result |= inv_write_single_mems_reg(REG_USER_CTRL, base_state.user_ctrl);
 676              		.loc 1 160 0
 677 0050 1943     		orr	r1, r3
 678 0052 D170     		strb	r1, [r2, #3]
 161:.\20648_driver\drivers/inv_mems_mpu_fifo_control.c ****     
 679              		.loc 1 161 0
 680 0054 FFF7FEFF 		bl	inv_write_single_mems_reg
 681              	.LVL68:
 682              	.L142:
 164:.\20648_driver\drivers/inv_mems_mpu_fifo_control.c **** 
 683              		.loc 1 164 0
 684              		@ sp needed
 685 0058 3EBD     		pop	{r1, r2, r3, r4, r5, pc}
 686              	.L150:
 687 005a C046     		.align	2
 688              	.L149:
 689 005c 00000000 		.word	base_state
 690 0060 00000000 		.word	.LANCHOR0
 691              		.cfi_endproc
 692              	.LFE7:
 693              		.size	dmp_reset_fifo, .-dmp_reset_fifo
 694              		.section	.text.dmp_read_fifo,"ax",%progbits
 695              		.align	1
 696              		.global	dmp_read_fifo
 697              		.code	16
 698              		.thumb_func
 699              		.type	dmp_read_fifo, %function
 700              	dmp_read_fifo:
 701              	.LFB8:
 176:.\20648_driver\drivers/inv_mems_mpu_fifo_control.c **** 	inv_error_t result;
 702              		.loc 1 176 0
 703              		.cfi_startproc
 704              	.LVL69:
 705 0000 F7B5     		push	{r0, r1, r2, r4, r5, r6, r7, lr}
 706              		.cfi_def_cfa_offset 32
 707              		.cfi_offset 0, -32
 708              		.cfi_offset 1, -28
 709              		.cfi_offset 2, -24
 710              		.cfi_offset 4, -20
 711              		.cfi_offset 5, -16
 712              		.cfi_offset 6, -12
 713              		.cfi_offset 7, -8
 714              		.cfi_offset 14, -4
 176:.\20648_driver\drivers/inv_mems_mpu_fifo_control.c **** 	inv_error_t result;
 715              		.loc 1 176 0
 716 0002 0F1C     		mov	r7, r1
 178:.\20648_driver\drivers/inv_mems_mpu_fifo_control.c **** 
 717              		.loc 1 178 0
 718 0004 0024     		mov	r4, #0
 176:.\20648_driver\drivers/inv_mems_mpu_fifo_control.c **** 	inv_error_t result;
 719              		.loc 1 176 0
 720 0006 0190     		str	r0, [sp, #4]
 721              	.LVL70:
 722              	.L152:
 180:.\20648_driver\drivers/inv_mems_mpu_fifo_control.c ****     {
 723              		.loc 1 180 0
ARM GAS  C:\Users\ADMINI~1\AppData\Local\Temp\ccRFd3Cg.s 			page 23


 724 0008 BC42     		cmp	r4, r7
 725 000a 13D2     		bcs	.L157
 726              	.LBB8:
 182:.\20648_driver\drivers/inv_mems_mpu_fifo_control.c ****         
 727              		.loc 1 182 0
 728 000c 3D1B     		sub	r5, r7, r4
 729 000e 102D     		cmp	r5, #16
 730 0010 00D9     		bls	.L153
 731 0012 1025     		mov	r5, #16
 732              	.L153:
 733              	.LVL71:
 184:.\20648_driver\drivers/inv_mems_mpu_fifo_control.c ****         if (result)
 734              		.loc 1 184 0
 735 0014 019B     		ldr	r3, [sp, #4]
 736 0016 7220     		mov	r0, #114
 737 0018 1A19     		add	r2, r3, r4
 738 001a 291C     		mov	r1, r5
 739 001c FFF7FEFF 		bl	inv_read_mems_reg
 740              	.LVL72:
 741 0020 061E     		sub	r6, r0, #0
 742              	.LVL73:
 185:.\20648_driver\drivers/inv_mems_mpu_fifo_control.c **** 		{
 743              		.loc 1 185 0
 744 0022 05D0     		beq	.L154
 187:.\20648_driver\drivers/inv_mems_mpu_fifo_control.c **** 			fifo_info.fifoError = INV_ERROR_FIFO_READ_DATA;
 745              		.loc 1 187 0
 746 0024 FFF7FEFF 		bl	dmp_reset_fifo
 747              	.LVL74:
 188:.\20648_driver\drivers/inv_mems_mpu_fifo_control.c **** 			return result;
 748              		.loc 1 188 0
 749 0028 4122     		mov	r2, #65
 750 002a 044B     		ldr	r3, .L158
 751 002c 1A60     		str	r2, [r3]
 189:.\20648_driver\drivers/inv_mems_mpu_fifo_control.c **** 		}
 752              		.loc 1 189 0
 753 002e 02E0     		b	.L155
 754              	.LVL75:
 755              	.L154:
 192:.\20648_driver\drivers/inv_mems_mpu_fifo_control.c ****     }
 756              		.loc 1 192 0
 757 0030 6419     		add	r4, r4, r5
 758              	.LVL76:
 759 0032 E9E7     		b	.L152
 760              	.LVL77:
 761              	.L157:
 762              	.LBE8:
 195:.\20648_driver\drivers/inv_mems_mpu_fifo_control.c **** }
 763              		.loc 1 195 0
 764 0034 0026     		mov	r6, #0
 765              	.LVL78:
 766              	.L155:
 196:.\20648_driver\drivers/inv_mems_mpu_fifo_control.c **** 
 767              		.loc 1 196 0
 768 0036 301C     		mov	r0, r6
 769              		@ sp needed
 770              	.LVL79:
 771              	.LVL80:
ARM GAS  C:\Users\ADMINI~1\AppData\Local\Temp\ccRFd3Cg.s 			page 24


 772 0038 FEBD     		pop	{r1, r2, r3, r4, r5, r6, r7, pc}
 773              	.L159:
 774 003a C046     		.align	2
 775              	.L158:
 776 003c 00000000 		.word	.LANCHOR0
 777              		.cfi_endproc
 778              	.LFE8:
 779              		.size	dmp_read_fifo, .-dmp_read_fifo
 780              		.section	.text.dmp_get_fifo_all,"ax",%progbits
 781              		.align	1
 782              		.code	16
 783              		.thumb_func
 784              		.type	dmp_get_fifo_all, %function
 785              	dmp_get_fifo_all:
 786              	.LFB9:
 208:.\20648_driver\drivers/inv_mems_mpu_fifo_control.c **** 	inv_error_t result;
 787              		.loc 1 208 0
 788              		.cfi_startproc
 789              	.LVL81:
 790 0000 F7B5     		push	{r0, r1, r2, r4, r5, r6, r7, lr}
 791              		.cfi_def_cfa_offset 32
 792              		.cfi_offset 0, -32
 793              		.cfi_offset 1, -28
 794              		.cfi_offset 2, -24
 795              		.cfi_offset 4, -20
 796              		.cfi_offset 5, -16
 797              		.cfi_offset 6, -12
 798              		.cfi_offset 7, -8
 799              		.cfi_offset 14, -4
 208:.\20648_driver\drivers/inv_mems_mpu_fifo_control.c **** 	inv_error_t result;
 800              		.loc 1 208 0
 801 0002 071C     		mov	r7, r0
 802 0004 0E1C     		mov	r6, r1
 803 0006 151E     		sub	r5, r2, #0
 212:.\20648_driver\drivers/inv_mems_mpu_fifo_control.c **** 		*reset = 0;
 804              		.loc 1 212 0
 805 0008 01D0     		beq	.L161
 213:.\20648_driver\drivers/inv_mems_mpu_fifo_control.c ****    
 806              		.loc 1 213 0
 807 000a 0023     		mov	r3, #0
 808 000c 1360     		str	r3, [r2]
 809              	.L161:
 810              	.LVL82:
 811              	.LBB13:
 812              	.LBB14:
 813 000e 01A8     		add	r0, sp, #4
 814              	.LVL83:
 815 0010 FFF7FEFF 		bl	dmp_get_fifo_length.part.0
 816              	.LVL84:
 817 0014 041E     		sub	r4, r0, #0
 818              	.LBE14:
 819              	.LBE13:
 216:.\20648_driver\drivers/inv_mems_mpu_fifo_control.c **** 		fifo_info.fifoError = result;
 820              		.loc 1 216 0
 821 0016 02D0     		beq	.L162
 217:.\20648_driver\drivers/inv_mems_mpu_fifo_control.c **** 		return 0;
 822              		.loc 1 217 0
ARM GAS  C:\Users\ADMINI~1\AppData\Local\Temp\ccRFd3Cg.s 			page 25


 823 0018 0F4B     		ldr	r3, .L176
 824 001a 1860     		str	r0, [r3]
 825 001c 02E0     		b	.L166
 826              	.L162:
 222:.\20648_driver\drivers/inv_mems_mpu_fifo_control.c **** 		return 0;
 827              		.loc 1 222 0
 828 001e 0199     		ldr	r1, [sp, #4]
 829 0020 0029     		cmp	r1, #0
 830 0022 01D1     		bne	.L164
 831              	.L166:
 223:.\20648_driver\drivers/inv_mems_mpu_fifo_control.c ****     
 832              		.loc 1 223 0
 833 0024 0023     		mov	r3, #0
 834 0026 14E0     		b	.L163
 835              	.L164:
 226:.\20648_driver\drivers/inv_mems_mpu_fifo_control.c **** 		dmp_reset_fifo();
 836              		.loc 1 226 0
 837 0028 B942     		cmp	r1, r7
 838 002a 09D9     		bls	.L165
 839              	.LVL85:
 840              	.LBB15:
 841              	.LBB16:
 227:.\20648_driver\drivers/inv_mems_mpu_fifo_control.c **** 		fifo_info.fifoError = INV_ERROR_FIFO_OVERFLOW;
 842              		.loc 1 227 0
 843 002c FFF7FEFF 		bl	dmp_reset_fifo
 844              	.LVL86:
 228:.\20648_driver\drivers/inv_mems_mpu_fifo_control.c **** 		if(reset)
 845              		.loc 1 228 0
 846 0030 3E22     		mov	r2, #62
 847 0032 094B     		ldr	r3, .L176
 848 0034 1A60     		str	r2, [r3]
 229:.\20648_driver\drivers/inv_mems_mpu_fifo_control.c **** 			*reset = 1;
 849              		.loc 1 229 0
 850 0036 002D     		cmp	r5, #0
 851 0038 F4D0     		beq	.L166
 230:.\20648_driver\drivers/inv_mems_mpu_fifo_control.c **** 		return 0;
 852              		.loc 1 230 0
 853 003a 0123     		mov	r3, #1
 854 003c 2B60     		str	r3, [r5]
 855 003e 07E0     		b	.L175
 856              	.LVL87:
 857              	.L165:
 858              	.LBE16:
 859              	.LBE15:
 234:.\20648_driver\drivers/inv_mems_mpu_fifo_control.c **** 	if (result) {
 860              		.loc 1 234 0
 861 0040 301C     		mov	r0, r6
 862 0042 FFF7FEFF 		bl	dmp_read_fifo
 863              	.LVL88:
 239:.\20648_driver\drivers/inv_mems_mpu_fifo_control.c **** }
 864              		.loc 1 239 0
 865 0046 019B     		ldr	r3, [sp, #4]
 235:.\20648_driver\drivers/inv_mems_mpu_fifo_control.c **** 		fifo_info.fifoError = result;
 866              		.loc 1 235 0
 867 0048 0028     		cmp	r0, #0
 868 004a 02D0     		beq	.L163
 236:.\20648_driver\drivers/inv_mems_mpu_fifo_control.c **** 		return 0;
ARM GAS  C:\Users\ADMINI~1\AppData\Local\Temp\ccRFd3Cg.s 			page 26


 869              		.loc 1 236 0
 870 004c 024B     		ldr	r3, .L176
 871 004e 1860     		str	r0, [r3]
 872              	.LVL89:
 873              	.L175:
 237:.\20648_driver\drivers/inv_mems_mpu_fifo_control.c **** 	}
 874              		.loc 1 237 0
 875 0050 231C     		mov	r3, r4
 876              	.L163:
 240:.\20648_driver\drivers/inv_mems_mpu_fifo_control.c **** 
 877              		.loc 1 240 0
 878 0052 181C     		mov	r0, r3
 879              		@ sp needed
 880              	.LVL90:
 881              	.LVL91:
 882              	.LVL92:
 883 0054 FEBD     		pop	{r1, r2, r3, r4, r5, r6, r7, pc}
 884              	.L177:
 885 0056 C046     		.align	2
 886              	.L176:
 887 0058 00000000 		.word	.LANCHOR0
 888              		.cfi_endproc
 889              	.LFE9:
 890              		.size	dmp_get_fifo_all, .-dmp_get_fifo_all
 891              		.section	.text.inv_mems_fifo_swmirror,"ax",%progbits
 892              		.align	1
 893              		.global	inv_mems_fifo_swmirror
 894              		.code	16
 895              		.thumb_func
 896              		.type	inv_mems_fifo_swmirror, %function
 897              	inv_mems_fifo_swmirror:
 898              	.LFB13:
 456:.\20648_driver\drivers/inv_mems_mpu_fifo_control.c **** 
 457:.\20648_driver\drivers/inv_mems_mpu_fifo_control.c **** /** Software FIFO, mirror of DMP HW FIFO, hence of max HARDWARE_FIFO_SIZE */
 458:.\20648_driver\drivers/inv_mems_mpu_fifo_control.c **** static unsigned char fifo_data[HARDWARE_FIFO_SIZE];
 459:.\20648_driver\drivers/inv_mems_mpu_fifo_control.c ****     
 460:.\20648_driver\drivers/inv_mems_mpu_fifo_control.c **** /** Determine number of samples present in SW FIFO fifo_data containing fifo_size bytes to be analy
 461:.\20648_driver\drivers/inv_mems_mpu_fifo_control.c **** * of samples filled in total_sample_cnt, number of samples per sensor filled in sample_cnt_array ar
 462:.\20648_driver\drivers/inv_mems_mpu_fifo_control.c **** */
 463:.\20648_driver\drivers/inv_mems_mpu_fifo_control.c **** static int extract_sample_cnt(int fifo_size, unsigned short * total_sample_cnt, unsigned short * sa
 464:.\20648_driver\drivers/inv_mems_mpu_fifo_control.c **** {
 465:.\20648_driver\drivers/inv_mems_mpu_fifo_control.c **** 	// Next SW FIFO index to be parsed
 466:.\20648_driver\drivers/inv_mems_mpu_fifo_control.c **** 	int fifo_idx = 0;
 467:.\20648_driver\drivers/inv_mems_mpu_fifo_control.c **** 	
 468:.\20648_driver\drivers/inv_mems_mpu_fifo_control.c **** 	while (fifo_idx < fifo_size) {
 469:.\20648_driver\drivers/inv_mems_mpu_fifo_control.c **** 		unsigned short header;
 470:.\20648_driver\drivers/inv_mems_mpu_fifo_control.c **** 		unsigned short header2;
 471:.\20648_driver\drivers/inv_mems_mpu_fifo_control.c **** 		int need_sz = get_packet_size_and_samplecnt(&fifo_data[fifo_idx], &header, &header2, sample_cnt_a
 472:.\20648_driver\drivers/inv_mems_mpu_fifo_control.c **** 		
 473:.\20648_driver\drivers/inv_mems_mpu_fifo_control.c **** 		// Guarantee there is a full packet before continuing to decode the FIFO packet
 474:.\20648_driver\drivers/inv_mems_mpu_fifo_control.c **** 		if (fifo_size-fifo_idx < need_sz)
 475:.\20648_driver\drivers/inv_mems_mpu_fifo_control.c **** 			goto endSuccess;
 476:.\20648_driver\drivers/inv_mems_mpu_fifo_control.c **** 		
 477:.\20648_driver\drivers/inv_mems_mpu_fifo_control.c **** 		// Decode any error
 478:.\20648_driver\drivers/inv_mems_mpu_fifo_control.c **** 		if (check_fifo_decoded_headers(header, header2)) {
 479:.\20648_driver\drivers/inv_mems_mpu_fifo_control.c **** 			// in that case, stop processing, we might have overflowed so following bytes are non sense
 480:.\20648_driver\drivers/inv_mems_mpu_fifo_control.c **** 			dmp_reset_fifo();
ARM GAS  C:\Users\ADMINI~1\AppData\Local\Temp\ccRFd3Cg.s 			page 27


 481:.\20648_driver\drivers/inv_mems_mpu_fifo_control.c **** 			return -1;
 482:.\20648_driver\drivers/inv_mems_mpu_fifo_control.c **** 		}
 483:.\20648_driver\drivers/inv_mems_mpu_fifo_control.c **** 		
 484:.\20648_driver\drivers/inv_mems_mpu_fifo_control.c **** 		fifo_idx += need_sz;
 485:.\20648_driver\drivers/inv_mems_mpu_fifo_control.c **** 		
 486:.\20648_driver\drivers/inv_mems_mpu_fifo_control.c **** 		// One sample found, increment total sample counter
 487:.\20648_driver\drivers/inv_mems_mpu_fifo_control.c **** 		(*total_sample_cnt)++;
 488:.\20648_driver\drivers/inv_mems_mpu_fifo_control.c **** 	}
 489:.\20648_driver\drivers/inv_mems_mpu_fifo_control.c **** 
 490:.\20648_driver\drivers/inv_mems_mpu_fifo_control.c **** endSuccess:
 491:.\20648_driver\drivers/inv_mems_mpu_fifo_control.c **** #if defined MEMS_AUGMENTED_SENSORS
 492:.\20648_driver\drivers/inv_mems_mpu_fifo_control.c **** 	// Augmented sensors are not part of DMP FIFO, they are computed by DMP driver based on GRV or RV 
 493:.\20648_driver\drivers/inv_mems_mpu_fifo_control.c **** 	// So their sample counts must rely on GRV and RV sample counts
 494:.\20648_driver\drivers/inv_mems_mpu_fifo_control.c **** 	if (sample_cnt_array) {
 495:.\20648_driver\drivers/inv_mems_mpu_fifo_control.c **** 		sample_cnt_array[ANDROID_SENSOR_GRAVITY] += sample_cnt_array[ANDROID_SENSOR_GAME_ROTATION_VECTOR]
 496:.\20648_driver\drivers/inv_mems_mpu_fifo_control.c **** 		sample_cnt_array[ANDROID_SENSOR_LINEAR_ACCELERATION] += sample_cnt_array[ANDROID_SENSOR_GAME_ROTA
 497:.\20648_driver\drivers/inv_mems_mpu_fifo_control.c **** 		sample_cnt_array[ANDROID_SENSOR_ORIENTATION] += sample_cnt_array[ANDROID_SENSOR_ROTATION_VECTOR];
 498:.\20648_driver\drivers/inv_mems_mpu_fifo_control.c **** 	}
 499:.\20648_driver\drivers/inv_mems_mpu_fifo_control.c **** #endif
 500:.\20648_driver\drivers/inv_mems_mpu_fifo_control.c **** 
 501:.\20648_driver\drivers/inv_mems_mpu_fifo_control.c **** 	return 0;
 502:.\20648_driver\drivers/inv_mems_mpu_fifo_control.c **** }
 503:.\20648_driver\drivers/inv_mems_mpu_fifo_control.c **** 
 504:.\20648_driver\drivers/inv_mems_mpu_fifo_control.c **** inv_error_t inv_mems_fifo_swmirror(int *fifo_sw_size, unsigned short * total_sample_cnt, unsigned s
 505:.\20648_driver\drivers/inv_mems_mpu_fifo_control.c **** {
 899              		.loc 1 505 0
 900              		.cfi_startproc
 901              	.LVL93:
 506:.\20648_driver\drivers/inv_mems_mpu_fifo_control.c **** 	int reset=0; 
 902              		.loc 1 506 0
 903 0000 0023     		mov	r3, #0
 505:.\20648_driver\drivers/inv_mems_mpu_fifo_control.c **** 	int reset=0; 
 904              		.loc 1 505 0
 905 0002 F0B5     		push	{r4, r5, r6, r7, lr}
 906              		.cfi_def_cfa_offset 20
 907              		.cfi_offset 4, -20
 908              		.cfi_offset 5, -16
 909              		.cfi_offset 6, -12
 910              		.cfi_offset 7, -8
 911              		.cfi_offset 14, -4
 912 0004 85B0     		sub	sp, sp, #20
 913              		.cfi_def_cfa_offset 40
 505:.\20648_driver\drivers/inv_mems_mpu_fifo_control.c **** 	int reset=0; 
 914              		.loc 1 505 0
 915 0006 0192     		str	r2, [sp, #4]
 916              		.loc 1 506 0
 917 0008 0393     		str	r3, [sp, #12]
 507:.\20648_driver\drivers/inv_mems_mpu_fifo_control.c **** 
 508:.\20648_driver\drivers/inv_mems_mpu_fifo_control.c **** 	*total_sample_cnt = 0;
 918              		.loc 1 508 0
 919 000a 0B80     		strh	r3, [r1]
 509:.\20648_driver\drivers/inv_mems_mpu_fifo_control.c **** 
 510:.\20648_driver\drivers/inv_mems_mpu_fifo_control.c **** 	// Mirror HW FIFO into local SW FIFO, taking into account remaining *fifo_sw_size bytes still pres
 511:.\20648_driver\drivers/inv_mems_mpu_fifo_control.c **** 	if (*fifo_sw_size < HARDWARE_FIFO_SIZE ) {
 920              		.loc 1 511 0
 921 000c 1F4A     		ldr	r2, .L189
 922              	.LVL94:
ARM GAS  C:\Users\ADMINI~1\AppData\Local\Temp\ccRFd3Cg.s 			page 28


 923 000e 0368     		ldr	r3, [r0]
 505:.\20648_driver\drivers/inv_mems_mpu_fifo_control.c **** 	int reset=0; 
 924              		.loc 1 505 0
 925 0010 041C     		mov	r4, r0
 926 0012 0E1C     		mov	r6, r1
 927              		.loc 1 511 0
 928 0014 9342     		cmp	r3, r2
 929 0016 03DD     		ble	.L179
 930              	.LVL95:
 931              	.L182:
 512:.\20648_driver\drivers/inv_mems_mpu_fifo_control.c **** 		*fifo_sw_size += dmp_get_fifo_all( (HARDWARE_FIFO_SIZE - *fifo_sw_size),&fifo_data[*fifo_sw_size]
 513:.\20648_driver\drivers/inv_mems_mpu_fifo_control.c **** 
 514:.\20648_driver\drivers/inv_mems_mpu_fifo_control.c **** 		if (reset)
 515:.\20648_driver\drivers/inv_mems_mpu_fifo_control.c **** 			goto error;
 516:.\20648_driver\drivers/inv_mems_mpu_fifo_control.c **** 	}
 517:.\20648_driver\drivers/inv_mems_mpu_fifo_control.c **** 
 518:.\20648_driver\drivers/inv_mems_mpu_fifo_control.c **** 	// SW FIFO is mirror, we can now parse it to extract total number of samples and number of samples
 519:.\20648_driver\drivers/inv_mems_mpu_fifo_control.c **** 	if (extract_sample_cnt(*fifo_sw_size, total_sample_cnt, sample_cnt_array))
 932              		.loc 1 519 0
 933 0018 2368     		ldr	r3, [r4]
 934              	.LBB20:
 935              	.LBB21:
 466:.\20648_driver\drivers/inv_mems_mpu_fifo_control.c **** 	
 936              		.loc 1 466 0
 937 001a 0025     		mov	r5, #0
 938              	.LBE21:
 939              	.LBE20:
 940              		.loc 1 519 0
 941 001c 0093     		str	r3, [sp]
 942              	.LVL96:
 943 001e 13E0     		b	.L180
 944              	.LVL97:
 945              	.L179:
 512:.\20648_driver\drivers/inv_mems_mpu_fifo_control.c **** 		*fifo_sw_size += dmp_get_fifo_all( (HARDWARE_FIFO_SIZE - *fifo_sw_size),&fifo_data[*fifo_sw_size]
 946              		.loc 1 512 0
 947 0020 8020     		mov	r0, #128
 948              	.LVL98:
 949 0022 1B49     		ldr	r1, .L189+4
 950              	.LVL99:
 951 0024 C000     		lsl	r0, r0, #3
 952 0026 0831     		add	r1, r1, #8
 953 0028 C01A     		sub	r0, r0, r3
 954 002a C918     		add	r1, r1, r3
 955 002c 03AA     		add	r2, sp, #12
 956 002e FFF7FEFF 		bl	dmp_get_fifo_all
 957              	.LVL100:
 958 0032 2368     		ldr	r3, [r4]
 959 0034 1818     		add	r0, r3, r0
 514:.\20648_driver\drivers/inv_mems_mpu_fifo_control.c **** 			goto error;
 960              		.loc 1 514 0
 961 0036 039B     		ldr	r3, [sp, #12]
 512:.\20648_driver\drivers/inv_mems_mpu_fifo_control.c **** 		*fifo_sw_size += dmp_get_fifo_all( (HARDWARE_FIFO_SIZE - *fifo_sw_size),&fifo_data[*fifo_sw_size]
 962              		.loc 1 512 0
 963 0038 2060     		str	r0, [r4]
 514:.\20648_driver\drivers/inv_mems_mpu_fifo_control.c **** 			goto error;
 964              		.loc 1 514 0
 965 003a 002B     		cmp	r3, #0
ARM GAS  C:\Users\ADMINI~1\AppData\Local\Temp\ccRFd3Cg.s 			page 29


 966 003c ECD0     		beq	.L182
 967 003e 1CE0     		b	.L181
 968              	.LVL101:
 969              	.L184:
 970              	.LBB25:
 971              	.LBB24:
 972              	.LBB22:
 487:.\20648_driver\drivers/inv_mems_mpu_fifo_control.c **** 	}
 973              		.loc 1 487 0
 974 0040 3388     		ldrh	r3, [r6]
 484:.\20648_driver\drivers/inv_mems_mpu_fifo_control.c **** 		
 975              		.loc 1 484 0
 976 0042 ED19     		add	r5, r5, r7
 977              	.LVL102:
 487:.\20648_driver\drivers/inv_mems_mpu_fifo_control.c **** 	}
 978              		.loc 1 487 0
 979 0044 0133     		add	r3, r3, #1
 980 0046 3380     		strh	r3, [r6]
 981              	.LVL103:
 982              	.L180:
 983              	.LBE22:
 468:.\20648_driver\drivers/inv_mems_mpu_fifo_control.c **** 		unsigned short header;
 984              		.loc 1 468 0
 985 0048 009B     		ldr	r3, [sp]
 986 004a 9D42     		cmp	r5, r3
 987 004c 1ADA     		bge	.L185
 988              	.LBB23:
 471:.\20648_driver\drivers/inv_mems_mpu_fifo_control.c **** 		
 989              		.loc 1 471 0
 990 004e 1048     		ldr	r0, .L189+4
 991 0050 02A9     		add	r1, sp, #8
 992 0052 0830     		add	r0, r0, #8
 993 0054 019B     		ldr	r3, [sp, #4]
 994 0056 4019     		add	r0, r0, r5
 995 0058 8A1C     		add	r2, r1, #2
 996 005a FFF7FEFF 		bl	get_packet_size_and_samplecnt
 997              	.LVL104:
 474:.\20648_driver\drivers/inv_mems_mpu_fifo_control.c **** 			goto endSuccess;
 998              		.loc 1 474 0
 999 005e 009B     		ldr	r3, [sp]
 471:.\20648_driver\drivers/inv_mems_mpu_fifo_control.c **** 		
 1000              		.loc 1 471 0
 1001 0060 071C     		mov	r7, r0
 1002              	.LVL105:
 474:.\20648_driver\drivers/inv_mems_mpu_fifo_control.c **** 			goto endSuccess;
 1003              		.loc 1 474 0
 1004 0062 5B1B     		sub	r3, r3, r5
 1005 0064 8342     		cmp	r3, r0
 1006 0066 0DDB     		blt	.L185
 478:.\20648_driver\drivers/inv_mems_mpu_fifo_control.c **** 			// in that case, stop processing, we might have overflowed so following bytes are non sense
 1007              		.loc 1 478 0
 1008 0068 02AB     		add	r3, sp, #8
 1009 006a 1888     		ldrh	r0, [r3]
 1010              	.LVL106:
 1011 006c 5988     		ldrh	r1, [r3, #2]
 1012 006e FFF7FEFF 		bl	check_fifo_decoded_headers
 1013              	.LVL107:
ARM GAS  C:\Users\ADMINI~1\AppData\Local\Temp\ccRFd3Cg.s 			page 30


 1014 0072 0028     		cmp	r0, #0
 1015 0074 E4D0     		beq	.L184
 480:.\20648_driver\drivers/inv_mems_mpu_fifo_control.c **** 			return -1;
 1016              		.loc 1 480 0
 1017 0076 FFF7FEFF 		bl	dmp_reset_fifo
 1018              	.LVL108:
 1019              	.L181:
 1020              	.LBE23:
 1021              	.LBE24:
 1022              	.LBE25:
 520:.\20648_driver\drivers/inv_mems_mpu_fifo_control.c **** 			goto error;
 521:.\20648_driver\drivers/inv_mems_mpu_fifo_control.c **** 
 522:.\20648_driver\drivers/inv_mems_mpu_fifo_control.c **** 	return MPU_SUCCESS;
 523:.\20648_driver\drivers/inv_mems_mpu_fifo_control.c **** 	
 524:.\20648_driver\drivers/inv_mems_mpu_fifo_control.c **** error:
 525:.\20648_driver\drivers/inv_mems_mpu_fifo_control.c **** 	*fifo_sw_size = 0;
 1023              		.loc 1 525 0
 1024 007a 0023     		mov	r3, #0
 526:.\20648_driver\drivers/inv_mems_mpu_fifo_control.c **** 	return -1;
 1025              		.loc 1 526 0
 1026 007c 0120     		mov	r0, #1
 525:.\20648_driver\drivers/inv_mems_mpu_fifo_control.c **** 	return -1;
 1027              		.loc 1 525 0
 1028 007e 2360     		str	r3, [r4]
 1029              		.loc 1 526 0
 1030 0080 4042     		neg	r0, r0
 1031 0082 00E0     		b	.L188
 1032              	.LVL109:
 1033              	.L185:
 522:.\20648_driver\drivers/inv_mems_mpu_fifo_control.c **** 	
 1034              		.loc 1 522 0
 1035 0084 0020     		mov	r0, #0
 1036              	.LVL110:
 1037              	.L188:
 527:.\20648_driver\drivers/inv_mems_mpu_fifo_control.c **** 	
 528:.\20648_driver\drivers/inv_mems_mpu_fifo_control.c **** }
 1038              		.loc 1 528 0
 1039 0086 05B0     		add	sp, sp, #20
 1040              		@ sp needed
 1041              	.LVL111:
 1042              	.LVL112:
 1043 0088 F0BD     		pop	{r4, r5, r6, r7, pc}
 1044              	.L190:
 1045 008a C046     		.align	2
 1046              	.L189:
 1047 008c FF030000 		.word	1023
 1048 0090 00000000 		.word	.LANCHOR0
 1049              		.cfi_endproc
 1050              	.LFE13:
 1051              		.size	inv_mems_fifo_swmirror, .-inv_mems_fifo_swmirror
 1052              		.section	.text.inv_decode_3_32bit_elements,"ax",%progbits
 1053              		.align	1
 1054              		.global	inv_decode_3_32bit_elements
 1055              		.code	16
 1056              		.thumb_func
 1057              		.type	inv_decode_3_32bit_elements, %function
 1058              	inv_decode_3_32bit_elements:
ARM GAS  C:\Users\ADMINI~1\AppData\Local\Temp\ccRFd3Cg.s 			page 31


 1059              	.LFB16:
 529:.\20648_driver\drivers/inv_mems_mpu_fifo_control.c **** 
 530:.\20648_driver\drivers/inv_mems_mpu_fifo_control.c **** inv_error_t inv_mems_fifo_pop( unsigned short *user_header, unsigned short *user_header2, int *fifo
 531:.\20648_driver\drivers/inv_mems_mpu_fifo_control.c **** {
 532:.\20648_driver\drivers/inv_mems_mpu_fifo_control.c **** 	int need_sz=0; // size in bytes of packet to be analyzed from FIFO
 533:.\20648_driver\drivers/inv_mems_mpu_fifo_control.c **** 	unsigned char *fifo_ptr = fifo_data; // pointer to next byte in SW FIFO to be parsed
 534:.\20648_driver\drivers/inv_mems_mpu_fifo_control.c ****     
 535:.\20648_driver\drivers/inv_mems_mpu_fifo_control.c **** 	if (*fifo_sw_size > 3) {
 536:.\20648_driver\drivers/inv_mems_mpu_fifo_control.c **** 		// extract headers and number of bytes requested by next sample present in FIFO
 537:.\20648_driver\drivers/inv_mems_mpu_fifo_control.c **** 		need_sz = get_packet_size_and_samplecnt(fifo_data, &fd.header, &fd.header2, 0);
 538:.\20648_driver\drivers/inv_mems_mpu_fifo_control.c **** 
 539:.\20648_driver\drivers/inv_mems_mpu_fifo_control.c **** 		// Guarantee there is a full packet before continuing to decode the FIFO packet
 540:.\20648_driver\drivers/inv_mems_mpu_fifo_control.c **** 		if (*fifo_sw_size < need_sz) {
 541:.\20648_driver\drivers/inv_mems_mpu_fifo_control.c **** 		    return fifo_info.fifoError;
 542:.\20648_driver\drivers/inv_mems_mpu_fifo_control.c **** 		}
 543:.\20648_driver\drivers/inv_mems_mpu_fifo_control.c **** 
 544:.\20648_driver\drivers/inv_mems_mpu_fifo_control.c **** 		fifo_ptr += HEADER_SZ;        
 545:.\20648_driver\drivers/inv_mems_mpu_fifo_control.c **** 		if (fd.header & HEADER2_SET)
 546:.\20648_driver\drivers/inv_mems_mpu_fifo_control.c **** 			fifo_ptr += HEADER2_SZ;        
 547:.\20648_driver\drivers/inv_mems_mpu_fifo_control.c **** 
 548:.\20648_driver\drivers/inv_mems_mpu_fifo_control.c **** 		// extract payload data from SW FIFO
 549:.\20648_driver\drivers/inv_mems_mpu_fifo_control.c **** 		fifo_ptr += inv_decode_one_ivory_fifo_packet(&fd, fifo_ptr);        
 550:.\20648_driver\drivers/inv_mems_mpu_fifo_control.c **** 
 551:.\20648_driver\drivers/inv_mems_mpu_fifo_control.c **** 		// remove first need_sz bytes from SW FIFO
 552:.\20648_driver\drivers/inv_mems_mpu_fifo_control.c **** 		*fifo_sw_size -= need_sz;
 553:.\20648_driver\drivers/inv_mems_mpu_fifo_control.c **** 		if(*fifo_sw_size)
 554:.\20648_driver\drivers/inv_mems_mpu_fifo_control.c **** 			memmove(fifo_data, &fifo_data[need_sz], *fifo_sw_size);// Data left in FIFO
 555:.\20648_driver\drivers/inv_mems_mpu_fifo_control.c **** 
 556:.\20648_driver\drivers/inv_mems_mpu_fifo_control.c **** 		*user_header = fd.header;
 557:.\20648_driver\drivers/inv_mems_mpu_fifo_control.c **** 		*user_header2 = fd.header2;
 558:.\20648_driver\drivers/inv_mems_mpu_fifo_control.c **** 	}
 559:.\20648_driver\drivers/inv_mems_mpu_fifo_control.c **** 
 560:.\20648_driver\drivers/inv_mems_mpu_fifo_control.c **** 	return MPU_SUCCESS;
 561:.\20648_driver\drivers/inv_mems_mpu_fifo_control.c **** }
 562:.\20648_driver\drivers/inv_mems_mpu_fifo_control.c **** 
 563:.\20648_driver\drivers/inv_mems_mpu_fifo_control.c **** inv_error_t dmp_process_fifo( int *left_in_fifo, unsigned short *user_header, unsigned short *user_
 564:.\20648_driver\drivers/inv_mems_mpu_fifo_control.c **** {
 565:.\20648_driver\drivers/inv_mems_mpu_fifo_control.c ****     inv_error_t result = MPU_SUCCESS;
 566:.\20648_driver\drivers/inv_mems_mpu_fifo_control.c ****     int reset=0; 
 567:.\20648_driver\drivers/inv_mems_mpu_fifo_control.c ****     int need_sz=0;
 568:.\20648_driver\drivers/inv_mems_mpu_fifo_control.c ****     unsigned char *fifo_ptr = fifo_data;
 569:.\20648_driver\drivers/inv_mems_mpu_fifo_control.c **** 
 570:.\20648_driver\drivers/inv_mems_mpu_fifo_control.c ****     mpu_time_t ts=0;
 571:.\20648_driver\drivers/inv_mems_mpu_fifo_control.c **** 
 572:.\20648_driver\drivers/inv_mems_mpu_fifo_control.c ****     if(!left_in_fifo)
 573:.\20648_driver\drivers/inv_mems_mpu_fifo_control.c ****         return -1;
 574:.\20648_driver\drivers/inv_mems_mpu_fifo_control.c ****     
 575:.\20648_driver\drivers/inv_mems_mpu_fifo_control.c ****     if (*left_in_fifo < HARDWARE_FIFO_SIZE ) 
 576:.\20648_driver\drivers/inv_mems_mpu_fifo_control.c ****     {
 577:.\20648_driver\drivers/inv_mems_mpu_fifo_control.c ****         *left_in_fifo += dmp_get_fifo_all( (HARDWARE_FIFO_SIZE - *left_in_fifo),&fifo_data[*left_in
 578:.\20648_driver\drivers/inv_mems_mpu_fifo_control.c ****         //sprintf(test_str, "Left in FIFO: %d\r\n",*left_in_fifo);
 579:.\20648_driver\drivers/inv_mems_mpu_fifo_control.c ****         //print_command_console(test_str);
 580:.\20648_driver\drivers/inv_mems_mpu_fifo_control.c ****         if (reset) 
 581:.\20648_driver\drivers/inv_mems_mpu_fifo_control.c ****         {
 582:.\20648_driver\drivers/inv_mems_mpu_fifo_control.c ****             *left_in_fifo = 0;
 583:.\20648_driver\drivers/inv_mems_mpu_fifo_control.c ****             return -1;
 584:.\20648_driver\drivers/inv_mems_mpu_fifo_control.c ****         }
ARM GAS  C:\Users\ADMINI~1\AppData\Local\Temp\ccRFd3Cg.s 			page 32


 585:.\20648_driver\drivers/inv_mems_mpu_fifo_control.c ****     }
 586:.\20648_driver\drivers/inv_mems_mpu_fifo_control.c ****     
 587:.\20648_driver\drivers/inv_mems_mpu_fifo_control.c ****     if (*left_in_fifo > 3) {
 588:.\20648_driver\drivers/inv_mems_mpu_fifo_control.c **** 	// no need to extract number of sample per sensor for current function, so provide 0 as last param
 589:.\20648_driver\drivers/inv_mems_mpu_fifo_control.c ****         need_sz = get_packet_size_and_samplecnt(fifo_data, &fd.header, &fd.header2, 0);
 590:.\20648_driver\drivers/inv_mems_mpu_fifo_control.c ****         
 591:.\20648_driver\drivers/inv_mems_mpu_fifo_control.c ****         // Guarantee there is a full packet before continuing to decode the FIFO packet
 592:.\20648_driver\drivers/inv_mems_mpu_fifo_control.c ****         if (*left_in_fifo < need_sz) {
 593:.\20648_driver\drivers/inv_mems_mpu_fifo_control.c ****             result = fifo_info.fifoError;
 594:.\20648_driver\drivers/inv_mems_mpu_fifo_control.c ****             fifo_info.fifoError = 0;
 595:.\20648_driver\drivers/inv_mems_mpu_fifo_control.c ****             return result;
 596:.\20648_driver\drivers/inv_mems_mpu_fifo_control.c ****         }
 597:.\20648_driver\drivers/inv_mems_mpu_fifo_control.c **** 
 598:.\20648_driver\drivers/inv_mems_mpu_fifo_control.c ****         if(user_header)
 599:.\20648_driver\drivers/inv_mems_mpu_fifo_control.c ****             *user_header = fd.header;
 600:.\20648_driver\drivers/inv_mems_mpu_fifo_control.c ****         
 601:.\20648_driver\drivers/inv_mems_mpu_fifo_control.c ****         if(user_header2)
 602:.\20648_driver\drivers/inv_mems_mpu_fifo_control.c ****             *user_header2 = fd.header2;
 603:.\20648_driver\drivers/inv_mems_mpu_fifo_control.c ****         
 604:.\20648_driver\drivers/inv_mems_mpu_fifo_control.c ****         if (check_fifo_decoded_headers(fd.header, fd.header2)) { 
 605:.\20648_driver\drivers/inv_mems_mpu_fifo_control.c ****             // Decode error
 606:.\20648_driver\drivers/inv_mems_mpu_fifo_control.c ****             dmp_reset_fifo();
 607:.\20648_driver\drivers/inv_mems_mpu_fifo_control.c ****             *left_in_fifo = 0;
 608:.\20648_driver\drivers/inv_mems_mpu_fifo_control.c ****             return -1;
 609:.\20648_driver\drivers/inv_mems_mpu_fifo_control.c ****         }
 610:.\20648_driver\drivers/inv_mems_mpu_fifo_control.c ****         
 611:.\20648_driver\drivers/inv_mems_mpu_fifo_control.c ****         fifo_ptr += HEADER_SZ;
 612:.\20648_driver\drivers/inv_mems_mpu_fifo_control.c ****         
 613:.\20648_driver\drivers/inv_mems_mpu_fifo_control.c ****         if (fd.header & HEADER2_SET)
 614:.\20648_driver\drivers/inv_mems_mpu_fifo_control.c ****             fifo_ptr += HEADER2_SZ;        
 615:.\20648_driver\drivers/inv_mems_mpu_fifo_control.c ****         
 616:.\20648_driver\drivers/inv_mems_mpu_fifo_control.c ****         //time stamp 
 617:.\20648_driver\drivers/inv_mems_mpu_fifo_control.c ****         ts = inv_get_tick_count();
 618:.\20648_driver\drivers/inv_mems_mpu_fifo_control.c ****         
 619:.\20648_driver\drivers/inv_mems_mpu_fifo_control.c ****         fifo_ptr += inv_decode_one_ivory_fifo_packet(&fd, fifo_ptr);
 620:.\20648_driver\drivers/inv_mems_mpu_fifo_control.c **** 
 621:.\20648_driver\drivers/inv_mems_mpu_fifo_control.c ****         if(time_stamp)
 622:.\20648_driver\drivers/inv_mems_mpu_fifo_control.c ****             *time_stamp = ts;
 623:.\20648_driver\drivers/inv_mems_mpu_fifo_control.c ****         
 624:.\20648_driver\drivers/inv_mems_mpu_fifo_control.c ****         /* Parse the data in the fifo, in the order of the data control register, starting with the
 625:.\20648_driver\drivers/inv_mems_mpu_fifo_control.c ****         */
 626:.\20648_driver\drivers/inv_mems_mpu_fifo_control.c ****         
 627:.\20648_driver\drivers/inv_mems_mpu_fifo_control.c ****         
 628:.\20648_driver\drivers/inv_mems_mpu_fifo_control.c ****         *left_in_fifo -= need_sz;
 629:.\20648_driver\drivers/inv_mems_mpu_fifo_control.c ****         if (*left_in_fifo) 
 630:.\20648_driver\drivers/inv_mems_mpu_fifo_control.c ****             memmove(fifo_data, &fifo_data[need_sz], *left_in_fifo);// Data left in FIFO
 631:.\20648_driver\drivers/inv_mems_mpu_fifo_control.c ****     }
 632:.\20648_driver\drivers/inv_mems_mpu_fifo_control.c **** 
 633:.\20648_driver\drivers/inv_mems_mpu_fifo_control.c ****     return result;
 634:.\20648_driver\drivers/inv_mems_mpu_fifo_control.c **** }
 635:.\20648_driver\drivers/inv_mems_mpu_fifo_control.c **** 
 636:.\20648_driver\drivers/inv_mems_mpu_fifo_control.c **** void inv_decode_3_32bit_elements(long *out_data, const unsigned char *in_data)
 637:.\20648_driver\drivers/inv_mems_mpu_fifo_control.c **** {
 1060              		.loc 1 637 0
 1061              		.cfi_startproc
 1062              	.LVL113:
 638:.\20648_driver\drivers/inv_mems_mpu_fifo_control.c ****     out_data[0] = ((long)(0xff & in_data[0]) << 24) | ((long)(0xff & in_data[1]) << 16) | ((long)(0
ARM GAS  C:\Users\ADMINI~1\AppData\Local\Temp\ccRFd3Cg.s 			page 33


 1063              		.loc 1 638 0
 1064 0000 0B78     		ldrb	r3, [r1]
 639:.\20648_driver\drivers/inv_mems_mpu_fifo_control.c ****     out_data[1] = ((long)(0xff & in_data[4]) << 24) | ((long)(0xff & in_data[5]) << 16) | ((long)(0
 640:.\20648_driver\drivers/inv_mems_mpu_fifo_control.c ****     out_data[2] = ((long)(0xff & in_data[8]) << 24) | ((long)(0xff & in_data[9]) << 16) | ((long)(0
 641:.\20648_driver\drivers/inv_mems_mpu_fifo_control.c **** }
 1065              		.loc 1 641 0
 1066              		@ sp needed
 638:.\20648_driver\drivers/inv_mems_mpu_fifo_control.c ****     out_data[0] = ((long)(0xff & in_data[0]) << 24) | ((long)(0xff & in_data[1]) << 16) | ((long)(0
 1067              		.loc 1 638 0
 1068 0002 1A06     		lsl	r2, r3, #24
 1069 0004 4B78     		ldrb	r3, [r1, #1]
 1070 0006 1B04     		lsl	r3, r3, #16
 1071 0008 1343     		orr	r3, r2
 1072 000a CA78     		ldrb	r2, [r1, #3]
 1073 000c 1343     		orr	r3, r2
 1074 000e 8A78     		ldrb	r2, [r1, #2]
 1075 0010 1202     		lsl	r2, r2, #8
 1076 0012 1343     		orr	r3, r2
 1077 0014 0360     		str	r3, [r0]
 639:.\20648_driver\drivers/inv_mems_mpu_fifo_control.c ****     out_data[1] = ((long)(0xff & in_data[4]) << 24) | ((long)(0xff & in_data[5]) << 16) | ((long)(0
 1078              		.loc 1 639 0
 1079 0016 0B79     		ldrb	r3, [r1, #4]
 1080 0018 1A06     		lsl	r2, r3, #24
 1081 001a 4B79     		ldrb	r3, [r1, #5]
 1082 001c 1B04     		lsl	r3, r3, #16
 1083 001e 1343     		orr	r3, r2
 1084 0020 CA79     		ldrb	r2, [r1, #7]
 1085 0022 1343     		orr	r3, r2
 1086 0024 8A79     		ldrb	r2, [r1, #6]
 1087 0026 1202     		lsl	r2, r2, #8
 1088 0028 1343     		orr	r3, r2
 1089 002a 4360     		str	r3, [r0, #4]
 640:.\20648_driver\drivers/inv_mems_mpu_fifo_control.c **** }
 1090              		.loc 1 640 0
 1091 002c 0B7A     		ldrb	r3, [r1, #8]
 1092 002e 1A06     		lsl	r2, r3, #24
 1093 0030 4B7A     		ldrb	r3, [r1, #9]
 1094 0032 1B04     		lsl	r3, r3, #16
 1095 0034 1343     		orr	r3, r2
 1096 0036 CA7A     		ldrb	r2, [r1, #11]
 1097 0038 1343     		orr	r3, r2
 1098 003a 8A7A     		ldrb	r2, [r1, #10]
 1099 003c 1202     		lsl	r2, r2, #8
 1100 003e 1343     		orr	r3, r2
 1101 0040 8360     		str	r3, [r0, #8]
 1102              		.loc 1 641 0
 1103 0042 7047     		bx	lr
 1104              		.cfi_endproc
 1105              	.LFE16:
 1106              		.size	inv_decode_3_32bit_elements, .-inv_decode_3_32bit_elements
 1107              		.section	.text.inv_decode_3_16bit_elements,"ax",%progbits
 1108              		.align	1
 1109              		.global	inv_decode_3_16bit_elements
 1110              		.code	16
 1111              		.thumb_func
 1112              		.type	inv_decode_3_16bit_elements, %function
 1113              	inv_decode_3_16bit_elements:
ARM GAS  C:\Users\ADMINI~1\AppData\Local\Temp\ccRFd3Cg.s 			page 34


 1114              	.LFB17:
 642:.\20648_driver\drivers/inv_mems_mpu_fifo_control.c **** 
 643:.\20648_driver\drivers/inv_mems_mpu_fifo_control.c **** void inv_decode_3_16bit_elements(short *out_data, const unsigned char *in_data)
 644:.\20648_driver\drivers/inv_mems_mpu_fifo_control.c **** {
 1115              		.loc 1 644 0
 1116              		.cfi_startproc
 1117              	.LVL114:
 645:.\20648_driver\drivers/inv_mems_mpu_fifo_control.c ****     out_data[0] = ((short)(0xff & in_data[0]) << 8) | (0xff & in_data[1]);
 1118              		.loc 1 645 0
 1119 0000 0B78     		ldrb	r3, [r1]
 1120 0002 4A78     		ldrb	r2, [r1, #1]
 1121 0004 1B02     		lsl	r3, r3, #8
 1122 0006 1343     		orr	r3, r2
 1123 0008 0380     		strh	r3, [r0]
 646:.\20648_driver\drivers/inv_mems_mpu_fifo_control.c ****     out_data[1] = ((short)(0xff & in_data[2]) << 8) | (0xff & in_data[3]);
 1124              		.loc 1 646 0
 1125 000a 8B78     		ldrb	r3, [r1, #2]
 1126 000c CA78     		ldrb	r2, [r1, #3]
 1127 000e 1B02     		lsl	r3, r3, #8
 1128 0010 1343     		orr	r3, r2
 1129 0012 4380     		strh	r3, [r0, #2]
 647:.\20648_driver\drivers/inv_mems_mpu_fifo_control.c ****     out_data[2] = ((short)(0xff & in_data[4]) << 8) | (0xff & in_data[5]);
 1130              		.loc 1 647 0
 1131 0014 0B79     		ldrb	r3, [r1, #4]
 1132 0016 4A79     		ldrb	r2, [r1, #5]
 1133 0018 1B02     		lsl	r3, r3, #8
 1134 001a 1343     		orr	r3, r2
 1135 001c 8380     		strh	r3, [r0, #4]
 648:.\20648_driver\drivers/inv_mems_mpu_fifo_control.c **** }
 1136              		.loc 1 648 0
 1137              		@ sp needed
 1138 001e 7047     		bx	lr
 1139              		.cfi_endproc
 1140              	.LFE17:
 1141              		.size	inv_decode_3_16bit_elements, .-inv_decode_3_16bit_elements
 1142              		.section	.text.inv_decode_one_ivory_fifo_packet,"ax",%progbits
 1143              		.align	1
 1144              		.global	inv_decode_one_ivory_fifo_packet
 1145              		.code	16
 1146              		.thumb_func
 1147              		.type	inv_decode_one_ivory_fifo_packet, %function
 1148              	inv_decode_one_ivory_fifo_packet:
 1149              	.LFB18:
 649:.\20648_driver\drivers/inv_mems_mpu_fifo_control.c **** 
 650:.\20648_driver\drivers/inv_mems_mpu_fifo_control.c **** /** Decodes one packet of data from Ivory FIFO
 651:.\20648_driver\drivers/inv_mems_mpu_fifo_control.c **** * @param[in] fd Structure to be filled out with data. Assumes header and header2 are already set in
 652:.\20648_driver\drivers/inv_mems_mpu_fifo_control.c **** * @param[in] fifo_ptr FIFO data, points to just after any header information
 653:.\20648_driver\drivers/inv_mems_mpu_fifo_control.c **** * @return Returns the number of bytes consumed in FIFO data.
 654:.\20648_driver\drivers/inv_mems_mpu_fifo_control.c **** */
 655:.\20648_driver\drivers/inv_mems_mpu_fifo_control.c **** int inv_decode_one_ivory_fifo_packet(struct inv_fifo_decoded_t *fd, const unsigned char *fifo_ptr)
 656:.\20648_driver\drivers/inv_mems_mpu_fifo_control.c **** {
 1150              		.loc 1 656 0
 1151              		.cfi_startproc
 1152              	.LVL115:
 1153 0000 F8B5     		push	{r3, r4, r5, r6, r7, lr}
 1154              		.cfi_def_cfa_offset 24
 1155              		.cfi_offset 3, -24
ARM GAS  C:\Users\ADMINI~1\AppData\Local\Temp\ccRFd3Cg.s 			page 35


 1156              		.cfi_offset 4, -20
 1157              		.cfi_offset 5, -16
 1158              		.cfi_offset 6, -12
 1159              		.cfi_offset 7, -8
 1160              		.cfi_offset 14, -4
 657:.\20648_driver\drivers/inv_mems_mpu_fifo_control.c ****     const unsigned char *fifo_ptr_start = fifo_ptr;
 658:.\20648_driver\drivers/inv_mems_mpu_fifo_control.c **** #if (MEMS_CHIP == HW_ICM20648)     
 659:.\20648_driver\drivers/inv_mems_mpu_fifo_control.c **** 	short odr_cntr;
 660:.\20648_driver\drivers/inv_mems_mpu_fifo_control.c **** #endif
 661:.\20648_driver\drivers/inv_mems_mpu_fifo_control.c **** 
 662:.\20648_driver\drivers/inv_mems_mpu_fifo_control.c ****     if (fd->header & ACCEL_SET) {
 1161              		.loc 1 662 0
 1162 0002 071C     		mov	r7, r0
 1163 0004 9A37     		add	r7, r7, #154
 1164 0006 0022     		mov	r2, #0
 1165 0008 BB5E     		ldrsh	r3, [r7, r2]
 656:.\20648_driver\drivers/inv_mems_mpu_fifo_control.c ****     const unsigned char *fifo_ptr_start = fifo_ptr;
 1166              		.loc 1 656 0
 1167 000a 051C     		mov	r5, r0
 1168 000c 0E1C     		mov	r6, r1
 1169 000e 0C1C     		mov	r4, r1
 1170              		.loc 1 662 0
 1171 0010 002B     		cmp	r3, #0
 1172 0012 0FDA     		bge	.L194
 663:.\20648_driver\drivers/inv_mems_mpu_fifo_control.c ****         // do not cast data here, do that when you use it
 664:.\20648_driver\drivers/inv_mems_mpu_fifo_control.c **** #if (MEMS_CHIP == HW_ICM20630)
 665:.\20648_driver\drivers/inv_mems_mpu_fifo_control.c ****         inv_decode_3_16bit_elements(fd->accel_s, fifo_ptr);
 666:.\20648_driver\drivers/inv_mems_mpu_fifo_control.c ****         fd->accel[0] = fd->accel_s[0] << 15;
 667:.\20648_driver\drivers/inv_mems_mpu_fifo_control.c ****         fd->accel[1] = fd->accel_s[1] << 15;
 668:.\20648_driver\drivers/inv_mems_mpu_fifo_control.c ****         fd->accel[2] = fd->accel_s[2] << 15;
 669:.\20648_driver\drivers/inv_mems_mpu_fifo_control.c **** #elif (MEMS_CHIP == HW_ICM20648 || MEMS_CHIP == HW_ICM20609)
 670:.\20648_driver\drivers/inv_mems_mpu_fifo_control.c ****         inv_decode_3_16bit_elements(fd->accel_s, fifo_ptr);
 1173              		.loc 1 670 0
 1174 0014 2C30     		add	r0, r0, #44
 1175              	.LVL116:
 1176 0016 FFF7FEFF 		bl	inv_decode_3_16bit_elements
 1177              	.LVL117:
 671:.\20648_driver\drivers/inv_mems_mpu_fifo_control.c ****         fd->accel[0] = fd->accel_s[0] << 15;
 1178              		.loc 1 671 0
 1179 001a 2C22     		mov	r2, #44
 1180 001c AB5E     		ldrsh	r3, [r5, r2]
 672:.\20648_driver\drivers/inv_mems_mpu_fifo_control.c ****         fd->accel[1] = fd->accel_s[1] << 15;
 673:.\20648_driver\drivers/inv_mems_mpu_fifo_control.c ****         fd->accel[2] = fd->accel_s[2] << 15;
 674:.\20648_driver\drivers/inv_mems_mpu_fifo_control.c **** #elif (MEMS_CHIP == HW_ICM30630 || MEMS_CHIP == HW_ICM20645_E)
 675:.\20648_driver\drivers/inv_mems_mpu_fifo_control.c ****         inv_decode_3_32bit_elements(fd->accel, fifo_ptr);
 676:.\20648_driver\drivers/inv_mems_mpu_fifo_control.c ****         //fd->accel[0] = fd->accel[0] << 4;
 677:.\20648_driver\drivers/inv_mems_mpu_fifo_control.c ****         //fd->accel[1] = fd->accel[1] << 4;
 678:.\20648_driver\drivers/inv_mems_mpu_fifo_control.c ****         //fd->accel[2] = fd->accel[2] << 4;
 679:.\20648_driver\drivers/inv_mems_mpu_fifo_control.c **** #endif
 680:.\20648_driver\drivers/inv_mems_mpu_fifo_control.c ****         fifo_ptr += ACCEL_DATA_SZ;
 1181              		.loc 1 680 0
 1182 001e B41D     		add	r4, r6, #6
 1183              	.LVL118:
 671:.\20648_driver\drivers/inv_mems_mpu_fifo_control.c ****         fd->accel[0] = fd->accel_s[0] << 15;
 1184              		.loc 1 671 0
 1185 0020 DB03     		lsl	r3, r3, #15
 1186 0022 6B63     		str	r3, [r5, #52]
ARM GAS  C:\Users\ADMINI~1\AppData\Local\Temp\ccRFd3Cg.s 			page 36


 672:.\20648_driver\drivers/inv_mems_mpu_fifo_control.c ****         fd->accel[1] = fd->accel_s[1] << 15;
 1187              		.loc 1 672 0
 1188 0024 2E22     		mov	r2, #46
 1189 0026 AB5E     		ldrsh	r3, [r5, r2]
 1190 0028 DB03     		lsl	r3, r3, #15
 1191 002a AB63     		str	r3, [r5, #56]
 673:.\20648_driver\drivers/inv_mems_mpu_fifo_control.c **** #elif (MEMS_CHIP == HW_ICM30630 || MEMS_CHIP == HW_ICM20645_E)
 1192              		.loc 1 673 0
 1193 002c 3022     		mov	r2, #48
 1194 002e AB5E     		ldrsh	r3, [r5, r2]
 1195 0030 DB03     		lsl	r3, r3, #15
 1196 0032 EB63     		str	r3, [r5, #60]
 1197              	.L194:
 681:.\20648_driver\drivers/inv_mems_mpu_fifo_control.c ****     }
 682:.\20648_driver\drivers/inv_mems_mpu_fifo_control.c **** 
 683:.\20648_driver\drivers/inv_mems_mpu_fifo_control.c ****     if (fd->header & GYRO_SET) {
 1198              		.loc 1 683 0
 1199 0034 3B88     		ldrh	r3, [r7]
 1200 0036 5B04     		lsl	r3, r3, #17
 1201 0038 0AD5     		bpl	.L195
 684:.\20648_driver\drivers/inv_mems_mpu_fifo_control.c ****         inv_decode_3_16bit_elements(fd->gyro, fifo_ptr);
 1202              		.loc 1 684 0
 1203 003a 281C     		mov	r0, r5
 1204 003c 211C     		mov	r1, r4
 1205 003e 4030     		add	r0, r0, #64
 1206 0040 FFF7FEFF 		bl	inv_decode_3_16bit_elements
 1207              	.LVL119:
 685:.\20648_driver\drivers/inv_mems_mpu_fifo_control.c ****         fifo_ptr += GYRO_DATA_SZ;
 686:.\20648_driver\drivers/inv_mems_mpu_fifo_control.c **** #if (MEMS_CHIP == HW_ICM30630 || MEMS_CHIP == HW_ICM20648)
 687:.\20648_driver\drivers/inv_mems_mpu_fifo_control.c ****         inv_decode_3_16bit_elements(fd->gyro_bias, fifo_ptr);
 1208              		.loc 1 687 0
 1209 0044 281C     		mov	r0, r5
 685:.\20648_driver\drivers/inv_mems_mpu_fifo_control.c ****         fifo_ptr += GYRO_DATA_SZ;
 1210              		.loc 1 685 0
 1211 0046 A11D     		add	r1, r4, #6
 1212              	.LVL120:
 1213              		.loc 1 687 0
 1214 0048 4630     		add	r0, r0, #70
 1215 004a FFF7FEFF 		bl	inv_decode_3_16bit_elements
 1216              	.LVL121:
 688:.\20648_driver\drivers/inv_mems_mpu_fifo_control.c ****         fifo_ptr += GYRO_BIAS_DATA_SZ;
 1217              		.loc 1 688 0
 1218 004e 0C34     		add	r4, r4, #12
 1219              	.LVL122:
 1220              	.L195:
 689:.\20648_driver\drivers/inv_mems_mpu_fifo_control.c **** #elif (MEMS_CHIP == HW_ICM20609)
 690:.\20648_driver\drivers/inv_mems_mpu_fifo_control.c ****         inv_decode_3_32bit_elements(fd->gyro_bias, fifo_ptr);
 691:.\20648_driver\drivers/inv_mems_mpu_fifo_control.c ****         fifo_ptr += GYRO_BIAS_DATA_SZ;
 692:.\20648_driver\drivers/inv_mems_mpu_fifo_control.c **** #endif
 693:.\20648_driver\drivers/inv_mems_mpu_fifo_control.c ****     }
 694:.\20648_driver\drivers/inv_mems_mpu_fifo_control.c **** 
 695:.\20648_driver\drivers/inv_mems_mpu_fifo_control.c **** #if (MEMS_CHIP == HW_ICM20630) || (MEMS_CHIP == HW_ICM20648) 
 696:.\20648_driver\drivers/inv_mems_mpu_fifo_control.c ****     if (fd->header & CPASS_SET) {
 1221              		.loc 1 696 0
 1222 0050 3B88     		ldrh	r3, [r7]
 1223 0052 9B04     		lsl	r3, r3, #18
 1224 0054 0BD5     		bpl	.L196
ARM GAS  C:\Users\ADMINI~1\AppData\Local\Temp\ccRFd3Cg.s 			page 37


 697:.\20648_driver\drivers/inv_mems_mpu_fifo_control.c ****         inv_decode_3_16bit_elements(fd->cpass_raw_data, fifo_ptr);
 1225              		.loc 1 697 0
 1226 0056 281C     		mov	r0, r5
 1227 0058 211C     		mov	r1, r4
 1228 005a 7430     		add	r0, r0, #116
 1229 005c FFF7FEFF 		bl	inv_decode_3_16bit_elements
 1230              	.LVL123:
 698:.\20648_driver\drivers/inv_mems_mpu_fifo_control.c **** #if defined MEMS_SECONDARY_DEVICE
 699:.\20648_driver\drivers/inv_mems_mpu_fifo_control.c ****         inv_apply_raw_compass_matrix(fd->cpass_raw_data, fd->compass);
 700:.\20648_driver\drivers/inv_mems_mpu_fifo_control.c **** #endif
 701:.\20648_driver\drivers/inv_mems_mpu_fifo_control.c ****         memcpy( fd->cpass_calibr_6chars, fifo_ptr, 6*sizeof(unsigned char));
 1231              		.loc 1 701 0
 1232 0060 281C     		mov	r0, r5
 1233 0062 211C     		mov	r1, r4
 1234 0064 9430     		add	r0, r0, #148
 1235 0066 0622     		mov	r2, #6
 1236 0068 FFF7FEFF 		bl	memcpy
 1237              	.LVL124:
 702:.\20648_driver\drivers/inv_mems_mpu_fifo_control.c ****         fifo_ptr += CPASS_DATA_SZ;
 1238              		.loc 1 702 0
 1239 006c 0634     		add	r4, r4, #6
 1240              	.LVL125:
 1241              	.L196:
 703:.\20648_driver\drivers/inv_mems_mpu_fifo_control.c ****     }
 704:.\20648_driver\drivers/inv_mems_mpu_fifo_control.c **** #endif
 705:.\20648_driver\drivers/inv_mems_mpu_fifo_control.c **** 
 706:.\20648_driver\drivers/inv_mems_mpu_fifo_control.c ****     if (fd->header & QUAT6_SET) {
 1242              		.loc 1 706 0
 1243 006e 3B88     		ldrh	r3, [r7]
 1244 0070 1B05     		lsl	r3, r3, #20
 1245 0072 04D5     		bpl	.L197
 707:.\20648_driver\drivers/inv_mems_mpu_fifo_control.c **** #if (MEMS_CHIP == HW_ICM20609)
 708:.\20648_driver\drivers/inv_mems_mpu_fifo_control.c ****         inv_decode_3_32bit_elements(fd->dmp_3e_6quat, fifo_ptr+2);
 709:.\20648_driver\drivers/inv_mems_mpu_fifo_control.c **** #else 
 710:.\20648_driver\drivers/inv_mems_mpu_fifo_control.c ****         inv_decode_3_32bit_elements(fd->dmp_3e_6quat, fifo_ptr);
 1246              		.loc 1 710 0
 1247 0074 211C     		mov	r1, r4
 1248 0076 281C     		mov	r0, r5
 1249 0078 FFF7FEFF 		bl	inv_decode_3_32bit_elements
 1250              	.LVL126:
 711:.\20648_driver\drivers/inv_mems_mpu_fifo_control.c **** #endif
 712:.\20648_driver\drivers/inv_mems_mpu_fifo_control.c ****         fifo_ptr += QUAT6_DATA_SZ;
 1251              		.loc 1 712 0
 1252 007c 0C34     		add	r4, r4, #12
 1253              	.LVL127:
 1254              	.L197:
 713:.\20648_driver\drivers/inv_mems_mpu_fifo_control.c ****     }
 714:.\20648_driver\drivers/inv_mems_mpu_fifo_control.c ****     
 715:.\20648_driver\drivers/inv_mems_mpu_fifo_control.c **** #if defined MEMS_SECONDARY_DEVICE
 716:.\20648_driver\drivers/inv_mems_mpu_fifo_control.c ****     if (fd->header & PRESSURE_SET) {
 717:.\20648_driver\drivers/inv_mems_mpu_fifo_control.c ****         inv_decode_3_16bit_elements(fd->pressure, fifo_ptr);
 718:.\20648_driver\drivers/inv_mems_mpu_fifo_control.c ****         fifo_ptr += PRESSURE_DATA_SZ;
 719:.\20648_driver\drivers/inv_mems_mpu_fifo_control.c ****     }
 720:.\20648_driver\drivers/inv_mems_mpu_fifo_control.c **** #endif
 721:.\20648_driver\drivers/inv_mems_mpu_fifo_control.c **** #if (MEMS_CHIP != HW_ICM20609)
 722:.\20648_driver\drivers/inv_mems_mpu_fifo_control.c ****     if (fd->header & QUAT9_SET) {
 1255              		.loc 1 722 0
ARM GAS  C:\Users\ADMINI~1\AppData\Local\Temp\ccRFd3Cg.s 			page 38


 1256 007e 3B88     		ldrh	r3, [r7]
 1257 0080 5B05     		lsl	r3, r3, #21
 1258 0082 0BD5     		bpl	.L198
 723:.\20648_driver\drivers/inv_mems_mpu_fifo_control.c ****         inv_decode_3_32bit_elements(fd->dmp_3e_9quat, fifo_ptr);
 1259              		.loc 1 723 0
 1260 0084 281C     		mov	r0, r5
 1261 0086 211C     		mov	r1, r4
 1262 0088 0C30     		add	r0, r0, #12
 1263 008a FFF7FEFF 		bl	inv_decode_3_32bit_elements
 1264              	.LVL128:
 724:.\20648_driver\drivers/inv_mems_mpu_fifo_control.c **** 
 725:.\20648_driver\drivers/inv_mems_mpu_fifo_control.c **** #if (MEMS_CHIP == HW_ICM20630 || MEMS_CHIP == HW_ICM20648)
 726:.\20648_driver\drivers/inv_mems_mpu_fifo_control.c ****         fd->dmp_rv_accuracyQ29 = ((0xff & fifo_ptr[12]) << 24) | ((0xff & fifo_ptr[13]) << 16);
 1265              		.loc 1 726 0
 1266 008e 637B     		ldrb	r3, [r4, #13]
 1267 0090 1A04     		lsl	r2, r3, #16
 1268 0092 237B     		ldrb	r3, [r4, #12]
 727:.\20648_driver\drivers/inv_mems_mpu_fifo_control.c **** #endif
 728:.\20648_driver\drivers/inv_mems_mpu_fifo_control.c **** 
 729:.\20648_driver\drivers/inv_mems_mpu_fifo_control.c ****         fifo_ptr += QUAT9_DATA_SZ;
 1269              		.loc 1 729 0
 1270 0094 0E34     		add	r4, r4, #14
 1271              	.LVL129:
 726:.\20648_driver\drivers/inv_mems_mpu_fifo_control.c **** #endif
 1272              		.loc 1 726 0
 1273 0096 1B06     		lsl	r3, r3, #24
 1274 0098 1343     		orr	r3, r2
 1275 009a AB61     		str	r3, [r5, #24]
 1276              	.L198:
 730:.\20648_driver\drivers/inv_mems_mpu_fifo_control.c ****     }
 731:.\20648_driver\drivers/inv_mems_mpu_fifo_control.c **** #endif
 732:.\20648_driver\drivers/inv_mems_mpu_fifo_control.c ****     
 733:.\20648_driver\drivers/inv_mems_mpu_fifo_control.c **** #if (MEMS_CHIP == HW_ICM20648) 
 734:.\20648_driver\drivers/inv_mems_mpu_fifo_control.c ****     if (fd->header & GEOMAG_SET) {
 1277              		.loc 1 734 0
 1278 009c 3B88     		ldrh	r3, [r7]
 1279 009e DB05     		lsl	r3, r3, #23
 1280 00a0 0BD5     		bpl	.L199
 735:.\20648_driver\drivers/inv_mems_mpu_fifo_control.c ****         inv_decode_3_32bit_elements(fd->dmp_3e_geomagquat, fifo_ptr);
 1281              		.loc 1 735 0
 1282 00a2 281C     		mov	r0, r5
 1283 00a4 211C     		mov	r1, r4
 1284 00a6 1C30     		add	r0, r0, #28
 1285 00a8 FFF7FEFF 		bl	inv_decode_3_32bit_elements
 1286              	.LVL130:
 736:.\20648_driver\drivers/inv_mems_mpu_fifo_control.c ****         fd->dmp_geomag_accuracyQ29 = ((0xff & fifo_ptr[12]) << 24) | ((0xff & fifo_ptr[13]) << 16);
 1287              		.loc 1 736 0
 1288 00ac 637B     		ldrb	r3, [r4, #13]
 1289 00ae 1A04     		lsl	r2, r3, #16
 1290 00b0 237B     		ldrb	r3, [r4, #12]
 737:.\20648_driver\drivers/inv_mems_mpu_fifo_control.c ****         fifo_ptr += GEOMAG_DATA_SZ;
 1291              		.loc 1 737 0
 1292 00b2 0E34     		add	r4, r4, #14
 1293              	.LVL131:
 736:.\20648_driver\drivers/inv_mems_mpu_fifo_control.c ****         fd->dmp_geomag_accuracyQ29 = ((0xff & fifo_ptr[12]) << 24) | ((0xff & fifo_ptr[13]) << 16);
 1294              		.loc 1 736 0
 1295 00b4 1B06     		lsl	r3, r3, #24
ARM GAS  C:\Users\ADMINI~1\AppData\Local\Temp\ccRFd3Cg.s 			page 39


 1296 00b6 1343     		orr	r3, r2
 1297 00b8 AB62     		str	r3, [r5, #40]
 1298              	.L199:
 738:.\20648_driver\drivers/inv_mems_mpu_fifo_control.c ****     }
 739:.\20648_driver\drivers/inv_mems_mpu_fifo_control.c **** #endif
 740:.\20648_driver\drivers/inv_mems_mpu_fifo_control.c **** 
 741:.\20648_driver\drivers/inv_mems_mpu_fifo_control.c **** #if (MEMS_CHIP != HW_ICM30630 && MEMS_CHIP != HW_ICM20648)
 742:.\20648_driver\drivers/inv_mems_mpu_fifo_control.c ****     if (fd->header & GYRO_CALIBR_SET) {
 743:.\20648_driver\drivers/inv_mems_mpu_fifo_control.c ****         inv_decode_3_32bit_elements(fd->gyro_calibr, fifo_ptr);
 744:.\20648_driver\drivers/inv_mems_mpu_fifo_control.c ****         fifo_ptr += GYRO_CALIBR_DATA_SZ;
 745:.\20648_driver\drivers/inv_mems_mpu_fifo_control.c ****     }
 746:.\20648_driver\drivers/inv_mems_mpu_fifo_control.c **** #endif
 747:.\20648_driver\drivers/inv_mems_mpu_fifo_control.c **** 
 748:.\20648_driver\drivers/inv_mems_mpu_fifo_control.c **** #if (MEMS_CHIP == HW_ICM20630) || (MEMS_CHIP == HW_ICM20648) 
 749:.\20648_driver\drivers/inv_mems_mpu_fifo_control.c ****     if (fd->header & CPASS_CALIBR_SET) {
 1299              		.loc 1 749 0
 1300 00ba 3B88     		ldrh	r3, [r7]
 1301 00bc 9B06     		lsl	r3, r3, #26
 1302 00be 0BD5     		bpl	.L200
 750:.\20648_driver\drivers/inv_mems_mpu_fifo_control.c ****         inv_decode_3_32bit_elements(fd->cpass_calibr, fifo_ptr);
 1303              		.loc 1 750 0
 1304 00c0 281C     		mov	r0, r5
 1305 00c2 211C     		mov	r1, r4
 1306 00c4 6430     		add	r0, r0, #100
 1307 00c6 FFF7FEFF 		bl	inv_decode_3_32bit_elements
 1308              	.LVL132:
 751:.\20648_driver\drivers/inv_mems_mpu_fifo_control.c ****         memcpy( fd->cpass_calibr_12chars, fifo_ptr, 12*sizeof(unsigned char));
 1309              		.loc 1 751 0
 1310 00ca 281C     		mov	r0, r5
 1311 00cc 211C     		mov	r1, r4
 1312 00ce 8830     		add	r0, r0, #136
 1313 00d0 0C22     		mov	r2, #12
 1314 00d2 FFF7FEFF 		bl	memcpy
 1315              	.LVL133:
 752:.\20648_driver\drivers/inv_mems_mpu_fifo_control.c ****         fifo_ptr += CPASS_CALIBR_DATA_SZ;
 1316              		.loc 1 752 0
 1317 00d6 0C34     		add	r4, r4, #12
 1318              	.LVL134:
 1319              	.L200:
 753:.\20648_driver\drivers/inv_mems_mpu_fifo_control.c ****     }
 754:.\20648_driver\drivers/inv_mems_mpu_fifo_control.c **** #endif
 755:.\20648_driver\drivers/inv_mems_mpu_fifo_control.c **** 
 756:.\20648_driver\drivers/inv_mems_mpu_fifo_control.c **** #if (MEMS_CHIP != HW_ICM30630)
 757:.\20648_driver\drivers/inv_mems_mpu_fifo_control.c ****     if (fd->header & PED_STEPDET_SET) {
 1320              		.loc 1 757 0
 1321 00d8 3B88     		ldrh	r3, [r7]
 1322 00da DB06     		lsl	r3, r3, #27
 1323 00dc 0BD5     		bpl	.L201
 758:.\20648_driver\drivers/inv_mems_mpu_fifo_control.c ****         fd->ped_step_det_ts = ((0xff & fifo_ptr[0]) << 24) | ((0xff & fifo_ptr[1]) << 16) | ((0xff 
 1324              		.loc 1 758 0
 1325 00de 2378     		ldrb	r3, [r4]
 1326 00e0 1A06     		lsl	r2, r3, #24
 1327 00e2 6378     		ldrb	r3, [r4, #1]
 1328 00e4 1B04     		lsl	r3, r3, #16
 1329 00e6 1343     		orr	r3, r2
 1330 00e8 E278     		ldrb	r2, [r4, #3]
 1331 00ea 1343     		orr	r3, r2
ARM GAS  C:\Users\ADMINI~1\AppData\Local\Temp\ccRFd3Cg.s 			page 40


 1332 00ec A278     		ldrb	r2, [r4, #2]
 759:.\20648_driver\drivers/inv_mems_mpu_fifo_control.c ****         fifo_ptr += PED_STEPDET_TIMESTAMP_SZ;
 1333              		.loc 1 759 0
 1334 00ee 0434     		add	r4, r4, #4
 1335              	.LVL135:
 758:.\20648_driver\drivers/inv_mems_mpu_fifo_control.c ****         fd->ped_step_det_ts = ((0xff & fifo_ptr[0]) << 24) | ((0xff & fifo_ptr[1]) << 16) | ((0xff 
 1336              		.loc 1 758 0
 1337 00f0 1202     		lsl	r2, r2, #8
 1338 00f2 1343     		orr	r3, r2
 1339 00f4 2B67     		str	r3, [r5, #112]
 1340              	.L201:
 760:.\20648_driver\drivers/inv_mems_mpu_fifo_control.c ****     }
 761:.\20648_driver\drivers/inv_mems_mpu_fifo_control.c **** #endif
 762:.\20648_driver\drivers/inv_mems_mpu_fifo_control.c ****         
 763:.\20648_driver\drivers/inv_mems_mpu_fifo_control.c ****     if (fd->header2 & ACCEL_ACCURACY_SET) {
 1341              		.loc 1 763 0
 1342 00f6 2B1C     		mov	r3, r5
 1343 00f8 9C33     		add	r3, r3, #156
 1344 00fa 1B88     		ldrh	r3, [r3]
 1345 00fc 5A04     		lsl	r2, r3, #17
 1346 00fe 07D5     		bpl	.L202
 764:.\20648_driver\drivers/inv_mems_mpu_fifo_control.c ****         fd->accel_accuracy = ((0xff & fifo_ptr[0]) << 8) | (0xff & fifo_ptr[1]);
 1347              		.loc 1 764 0
 1348 0100 2278     		ldrb	r2, [r4]
 1349 0102 6178     		ldrb	r1, [r4, #1]
 1350 0104 1202     		lsl	r2, r2, #8
 1351 0106 0A43     		orr	r2, r1
 1352 0108 291C     		mov	r1, r5
 1353 010a 7A31     		add	r1, r1, #122
 1354 010c 0A80     		strh	r2, [r1]
 765:.\20648_driver\drivers/inv_mems_mpu_fifo_control.c ****         fifo_ptr += ACCEL_ACCURACY_SZ;
 1355              		.loc 1 765 0
 1356 010e 0234     		add	r4, r4, #2
 1357              	.LVL136:
 1358              	.L202:
 766:.\20648_driver\drivers/inv_mems_mpu_fifo_control.c ****     }
 767:.\20648_driver\drivers/inv_mems_mpu_fifo_control.c ****         
 768:.\20648_driver\drivers/inv_mems_mpu_fifo_control.c ****     if (fd->header2 & GYRO_ACCURACY_SET) {
 1359              		.loc 1 768 0
 1360 0110 9A04     		lsl	r2, r3, #18
 1361 0112 07D5     		bpl	.L203
 769:.\20648_driver\drivers/inv_mems_mpu_fifo_control.c ****         fd->gyro_accuracy = ((0xff & fifo_ptr[0]) << 8) | (0xff & fifo_ptr[1]);
 1362              		.loc 1 769 0
 1363 0114 2278     		ldrb	r2, [r4]
 1364 0116 6178     		ldrb	r1, [r4, #1]
 1365 0118 1202     		lsl	r2, r2, #8
 1366 011a 0A43     		orr	r2, r1
 1367 011c 291C     		mov	r1, r5
 1368 011e 7C31     		add	r1, r1, #124
 1369 0120 0A80     		strh	r2, [r1]
 770:.\20648_driver\drivers/inv_mems_mpu_fifo_control.c ****         fifo_ptr += GYRO_ACCURACY_SZ;
 1370              		.loc 1 770 0
 1371 0122 0234     		add	r4, r4, #2
 1372              	.LVL137:
 1373              	.L203:
 771:.\20648_driver\drivers/inv_mems_mpu_fifo_control.c ****     }
 772:.\20648_driver\drivers/inv_mems_mpu_fifo_control.c **** 
ARM GAS  C:\Users\ADMINI~1\AppData\Local\Temp\ccRFd3Cg.s 			page 41


 773:.\20648_driver\drivers/inv_mems_mpu_fifo_control.c **** #if (MEMS_CHIP == HW_ICM20630 || MEMS_CHIP == HW_ICM20648) 
 774:.\20648_driver\drivers/inv_mems_mpu_fifo_control.c ****     if (fd->header2 & CPASS_ACCURACY_SET) {
 1374              		.loc 1 774 0
 1375 0124 DA04     		lsl	r2, r3, #19
 1376 0126 07D5     		bpl	.L204
 775:.\20648_driver\drivers/inv_mems_mpu_fifo_control.c ****         fd->cpass_accuracy = ((0xff & fifo_ptr[0]) << 8) | (0xff & fifo_ptr[1]);
 1377              		.loc 1 775 0
 1378 0128 2278     		ldrb	r2, [r4]
 1379 012a 6178     		ldrb	r1, [r4, #1]
 1380 012c 1202     		lsl	r2, r2, #8
 1381 012e 0A43     		orr	r2, r1
 1382 0130 291C     		mov	r1, r5
 1383 0132 7E31     		add	r1, r1, #126
 1384 0134 0A80     		strh	r2, [r1]
 776:.\20648_driver\drivers/inv_mems_mpu_fifo_control.c ****         fifo_ptr += CPASS_ACCURACY_SZ;
 1385              		.loc 1 776 0
 1386 0136 0234     		add	r4, r4, #2
 1387              	.LVL138:
 1388              	.L204:
 777:.\20648_driver\drivers/inv_mems_mpu_fifo_control.c ****     }
 778:.\20648_driver\drivers/inv_mems_mpu_fifo_control.c **** #endif
 779:.\20648_driver\drivers/inv_mems_mpu_fifo_control.c **** 
 780:.\20648_driver\drivers/inv_mems_mpu_fifo_control.c **** #if (MEMS_CHIP == HW_ICM30630)
 781:.\20648_driver\drivers/inv_mems_mpu_fifo_control.c ****     if (fd->header2 & FSYNC_SET) {
 782:.\20648_driver\drivers/inv_mems_mpu_fifo_control.c ****         fd->fsync = ((0xff & fifo_ptr[0]) << 8) | (0xff & fifo_ptr[1]);
 783:.\20648_driver\drivers/inv_mems_mpu_fifo_control.c ****         fifo_ptr += FSYNC_SZ;
 784:.\20648_driver\drivers/inv_mems_mpu_fifo_control.c ****     }
 785:.\20648_driver\drivers/inv_mems_mpu_fifo_control.c **** #endif
 786:.\20648_driver\drivers/inv_mems_mpu_fifo_control.c **** 
 787:.\20648_driver\drivers/inv_mems_mpu_fifo_control.c **** #if (MEMS_CHIP == HW_ICM30630 || MEMS_CHIP == HW_ICM20645_E || MEMS_CHIP == HW_ICM20648)
 788:.\20648_driver\drivers/inv_mems_mpu_fifo_control.c **** 	if (fd->header2 & FLIP_PICKUP_SET) {
 1389              		.loc 1 788 0
 1390 0138 5A05     		lsl	r2, r3, #21
 1391 013a 07D5     		bpl	.L205
 789:.\20648_driver\drivers/inv_mems_mpu_fifo_control.c **** 		fd->flip_pickup = ((0xff & fifo_ptr[0]) << 8) | (0xff & fifo_ptr[1]);
 1392              		.loc 1 789 0
 1393 013c 2278     		ldrb	r2, [r4]
 1394 013e 6178     		ldrb	r1, [r4, #1]
 1395 0140 1202     		lsl	r2, r2, #8
 1396 0142 0A43     		orr	r2, r1
 1397 0144 291C     		mov	r1, r5
 1398 0146 8631     		add	r1, r1, #134
 1399 0148 0A80     		strh	r2, [r1]
 790:.\20648_driver\drivers/inv_mems_mpu_fifo_control.c **** 		fifo_ptr += FLIP_PICKUP_SZ;
 1400              		.loc 1 790 0
 1401 014a 0234     		add	r4, r4, #2
 1402              	.LVL139:
 1403              	.L205:
 791:.\20648_driver\drivers/inv_mems_mpu_fifo_control.c **** 	}
 792:.\20648_driver\drivers/inv_mems_mpu_fifo_control.c **** #endif
 793:.\20648_driver\drivers/inv_mems_mpu_fifo_control.c **** #if (MEMS_CHIP == HW_ICM20645_E || MEMS_CHIP == HW_ICM20648 )
 794:.\20648_driver\drivers/inv_mems_mpu_fifo_control.c **** 	if (fd->header2 & ACT_RECOG_SET) {
 1404              		.loc 1 794 0
 1405 014c 1B06     		lsl	r3, r3, #24
 1406 014e 13D5     		bpl	.L206
 795:.\20648_driver\drivers/inv_mems_mpu_fifo_control.c **** 		fd->bac_state = ((0xff & fifo_ptr[0]) << 8) | (0xff & fifo_ptr[1]);
 1407              		.loc 1 795 0
ARM GAS  C:\Users\ADMINI~1\AppData\Local\Temp\ccRFd3Cg.s 			page 42


 1408 0150 2378     		ldrb	r3, [r4]
 1409 0152 6278     		ldrb	r2, [r4, #1]
 1410 0154 1B02     		lsl	r3, r3, #8
 1411 0156 1343     		orr	r3, r2
 1412 0158 2A1C     		mov	r2, r5
 1413 015a 8432     		add	r2, r2, #132
 1414 015c 1380     		strh	r3, [r2]
 796:.\20648_driver\drivers/inv_mems_mpu_fifo_control.c **** 		fd->bac_ts     = ((0xff & fifo_ptr[2]) << 24) | ((0xff & fifo_ptr[3]) << 16) | ((0xff & fifo_ptr[
 1415              		.loc 1 796 0
 1416 015e A378     		ldrb	r3, [r4, #2]
 795:.\20648_driver\drivers/inv_mems_mpu_fifo_control.c **** 		fd->bac_state = ((0xff & fifo_ptr[0]) << 8) | (0xff & fifo_ptr[1]);
 1417              		.loc 1 795 0
 1418 0160 291D     		add	r1, r5, #4
 1419              		.loc 1 796 0
 1420 0162 1A06     		lsl	r2, r3, #24
 1421 0164 E378     		ldrb	r3, [r4, #3]
 1422 0166 1B04     		lsl	r3, r3, #16
 1423 0168 1343     		orr	r3, r2
 1424 016a 6279     		ldrb	r2, [r4, #5]
 1425 016c 1343     		orr	r3, r2
 1426 016e 2279     		ldrb	r2, [r4, #4]
 797:.\20648_driver\drivers/inv_mems_mpu_fifo_control.c **** 		fifo_ptr += ACT_RECOG_SZ;
 1427              		.loc 1 797 0
 1428 0170 0634     		add	r4, r4, #6
 1429              	.LVL140:
 796:.\20648_driver\drivers/inv_mems_mpu_fifo_control.c **** 		fd->bac_ts     = ((0xff & fifo_ptr[2]) << 24) | ((0xff & fifo_ptr[3]) << 16) | ((0xff & fifo_ptr[
 1430              		.loc 1 796 0
 1431 0172 1202     		lsl	r2, r2, #8
 1432 0174 1343     		orr	r3, r2
 1433 0176 CB67     		str	r3, [r1, #124]
 1434              	.L206:
 1435              	.LVL141:
 798:.\20648_driver\drivers/inv_mems_mpu_fifo_control.c **** 	}
 799:.\20648_driver\drivers/inv_mems_mpu_fifo_control.c **** #endif
 800:.\20648_driver\drivers/inv_mems_mpu_fifo_control.c **** #if (MEMS_CHIP == HW_ICM30630 || MEMS_CHIP == HW_ICM20645_E)
 801:.\20648_driver\drivers/inv_mems_mpu_fifo_control.c **** 	if (fd->header & FOOTER_SET) {
 802:.\20648_driver\drivers/inv_mems_mpu_fifo_control.c **** 		fd->footer = ((0xff & fifo_ptr[0]) << 8) | (0xff & fifo_ptr[1]);
 803:.\20648_driver\drivers/inv_mems_mpu_fifo_control.c **** 		fifo_ptr += FOOTER_SZ;
 804:.\20648_driver\drivers/inv_mems_mpu_fifo_control.c **** 	}
 805:.\20648_driver\drivers/inv_mems_mpu_fifo_control.c **** #endif
 806:.\20648_driver\drivers/inv_mems_mpu_fifo_control.c **** 
 807:.\20648_driver\drivers/inv_mems_mpu_fifo_control.c **** #if (MEMS_CHIP == HW_ICM20648) 
 808:.\20648_driver\drivers/inv_mems_mpu_fifo_control.c **** 	odr_cntr = ((0xff & fifo_ptr[0]) << 8) | (0xff & fifo_ptr[1]);
 809:.\20648_driver\drivers/inv_mems_mpu_fifo_control.c **** 	// odr_cntr_gyro is odr_cntr & 0xfff
 810:.\20648_driver\drivers/inv_mems_mpu_fifo_control.c **** 	// 9KHz cnt is odr_cntr >> 12
 811:.\20648_driver\drivers/inv_mems_mpu_fifo_control.c **** 	// not used for now, needed only for FSYNC purpose
 812:.\20648_driver\drivers/inv_mems_mpu_fifo_control.c **** 	(void)odr_cntr;
 813:.\20648_driver\drivers/inv_mems_mpu_fifo_control.c **** 	fifo_ptr += ODR_CNT_GYRO_SZ;
 814:.\20648_driver\drivers/inv_mems_mpu_fifo_control.c **** #endif
 815:.\20648_driver\drivers/inv_mems_mpu_fifo_control.c **** 
 816:.\20648_driver\drivers/inv_mems_mpu_fifo_control.c ****     fd->new_data = 1; // Record a new data set
 1436              		.loc 1 816 0
 1437 0178 0123     		mov	r3, #1
 1438 017a A035     		add	r5, r5, #160
 1439              	.LVL142:
 813:.\20648_driver\drivers/inv_mems_mpu_fifo_control.c **** #endif
 1440              		.loc 1 813 0
ARM GAS  C:\Users\ADMINI~1\AppData\Local\Temp\ccRFd3Cg.s 			page 43


 1441 017c 0234     		add	r4, r4, #2
 1442              	.LVL143:
 817:.\20648_driver\drivers/inv_mems_mpu_fifo_control.c **** 
 818:.\20648_driver\drivers/inv_mems_mpu_fifo_control.c ****     return fifo_ptr-fifo_ptr_start;
 1443              		.loc 1 818 0
 1444 017e A01B     		sub	r0, r4, r6
 816:.\20648_driver\drivers/inv_mems_mpu_fifo_control.c **** 
 1445              		.loc 1 816 0
 1446 0180 2B60     		str	r3, [r5]
 1447              	.LVL144:
 819:.\20648_driver\drivers/inv_mems_mpu_fifo_control.c **** }
 1448              		.loc 1 819 0
 1449              		@ sp needed
 1450              	.LVL145:
 1451              	.LVL146:
 1452              	.LVL147:
 1453              	.LVL148:
 1454 0182 F8BD     		pop	{r3, r4, r5, r6, r7, pc}
 1455              		.cfi_endproc
 1456              	.LFE18:
 1457              		.size	inv_decode_one_ivory_fifo_packet, .-inv_decode_one_ivory_fifo_packet
 1458              		.section	.text.inv_mems_fifo_pop,"ax",%progbits
 1459              		.align	1
 1460              		.global	inv_mems_fifo_pop
 1461              		.code	16
 1462              		.thumb_func
 1463              		.type	inv_mems_fifo_pop, %function
 1464              	inv_mems_fifo_pop:
 1465              	.LFB14:
 531:.\20648_driver\drivers/inv_mems_mpu_fifo_control.c **** 	int need_sz=0; // size in bytes of packet to be analyzed from FIFO
 1466              		.loc 1 531 0
 1467              		.cfi_startproc
 1468              	.LVL149:
 1469 0000 F7B5     		push	{r0, r1, r2, r4, r5, r6, r7, lr}
 1470              		.cfi_def_cfa_offset 32
 1471              		.cfi_offset 0, -32
 1472              		.cfi_offset 1, -28
 1473              		.cfi_offset 2, -24
 1474              		.cfi_offset 4, -20
 1475              		.cfi_offset 5, -16
 1476              		.cfi_offset 6, -12
 1477              		.cfi_offset 7, -8
 1478              		.cfi_offset 14, -4
 535:.\20648_driver\drivers/inv_mems_mpu_fifo_control.c **** 		// extract headers and number of bytes requested by next sample present in FIFO
 1479              		.loc 1 535 0
 1480 0002 1468     		ldr	r4, [r2]
 560:.\20648_driver\drivers/inv_mems_mpu_fifo_control.c **** }
 1481              		.loc 1 560 0
 1482 0004 0023     		mov	r3, #0
 535:.\20648_driver\drivers/inv_mems_mpu_fifo_control.c **** 		// extract headers and number of bytes requested by next sample present in FIFO
 1483              		.loc 1 535 0
 1484 0006 032C     		cmp	r4, #3
 1485 0008 2FDD     		ble	.L245
 537:.\20648_driver\drivers/inv_mems_mpu_fifo_control.c **** 
 1486              		.loc 1 537 0
 1487 000a 194F     		ldr	r7, .L255
 1488 000c 0090     		str	r0, [sp]
ARM GAS  C:\Users\ADMINI~1\AppData\Local\Temp\ccRFd3Cg.s 			page 44


 1489 000e 381C     		mov	r0, r7
 1490              	.LVL150:
 1491 0010 151C     		mov	r5, r2
 1492 0012 0191     		str	r1, [sp, #4]
 1493 0014 0830     		add	r0, r0, #8
 1494 0016 1749     		ldr	r1, .L255+4
 1495              	.LVL151:
 1496 0018 174A     		ldr	r2, .L255+8
 1497              	.LVL152:
 1498 001a FFF7FEFF 		bl	get_packet_size_and_samplecnt
 1499              	.LVL153:
 540:.\20648_driver\drivers/inv_mems_mpu_fifo_control.c **** 		    return fifo_info.fifoError;
 1500              		.loc 1 540 0
 1501 001e 2B68     		ldr	r3, [r5]
 537:.\20648_driver\drivers/inv_mems_mpu_fifo_control.c **** 
 1502              		.loc 1 537 0
 1503 0020 061C     		mov	r6, r0
 1504              	.LVL154:
 1505 0022 3C1C     		mov	r4, r7
 540:.\20648_driver\drivers/inv_mems_mpu_fifo_control.c **** 		    return fifo_info.fifoError;
 1506              		.loc 1 540 0
 1507 0024 8342     		cmp	r3, r0
 1508 0026 01DA     		bge	.L246
 541:.\20648_driver\drivers/inv_mems_mpu_fifo_control.c **** 		}
 1509              		.loc 1 541 0
 1510 0028 3B68     		ldr	r3, [r7]
 1511 002a 1EE0     		b	.L245
 1512              	.L246:
 1513              	.LVL155:
 544:.\20648_driver\drivers/inv_mems_mpu_fifo_control.c **** 		if (fd.header & HEADER2_SET)
 1514              		.loc 1 544 0
 1515 002c 391C     		mov	r1, r7
 545:.\20648_driver\drivers/inv_mems_mpu_fifo_control.c **** 			fifo_ptr += HEADER2_SZ;        
 1516              		.loc 1 545 0
 1517 002e 114B     		ldr	r3, .L255+4
 544:.\20648_driver\drivers/inv_mems_mpu_fifo_control.c **** 		if (fd.header & HEADER2_SET)
 1518              		.loc 1 544 0
 1519 0030 0A31     		add	r1, r1, #10
 545:.\20648_driver\drivers/inv_mems_mpu_fifo_control.c **** 			fifo_ptr += HEADER2_SZ;        
 1520              		.loc 1 545 0
 1521 0032 1B88     		ldrh	r3, [r3]
 1522 0034 1B07     		lsl	r3, r3, #28
 1523 0036 01D5     		bpl	.L247
 546:.\20648_driver\drivers/inv_mems_mpu_fifo_control.c **** 
 1524              		.loc 1 546 0
 1525 0038 391C     		mov	r1, r7
 1526 003a 0C31     		add	r1, r1, #12
 1527              	.L247:
 1528              	.LVL156:
 549:.\20648_driver\drivers/inv_mems_mpu_fifo_control.c **** 
 1529              		.loc 1 549 0
 1530 003c 0F4F     		ldr	r7, .L255+12
 1531 003e 381C     		mov	r0, r7
 1532              	.LVL157:
 1533 0040 FFF7FEFF 		bl	inv_decode_one_ivory_fifo_packet
 1534              	.LVL158:
 552:.\20648_driver\drivers/inv_mems_mpu_fifo_control.c **** 		if(*fifo_sw_size)
ARM GAS  C:\Users\ADMINI~1\AppData\Local\Temp\ccRFd3Cg.s 			page 45


 1535              		.loc 1 552 0
 1536 0044 2B68     		ldr	r3, [r5]
 1537 0046 9A1B     		sub	r2, r3, r6
 1538 0048 2A60     		str	r2, [r5]
 553:.\20648_driver\drivers/inv_mems_mpu_fifo_control.c **** 			memmove(fifo_data, &fifo_data[need_sz], *fifo_sw_size);// Data left in FIFO
 1539              		.loc 1 553 0
 1540 004a 04D0     		beq	.L248
 554:.\20648_driver\drivers/inv_mems_mpu_fifo_control.c **** 
 1541              		.loc 1 554 0
 1542 004c 201C     		mov	r0, r4
 1543 004e 0830     		add	r0, r0, #8
 1544 0050 8119     		add	r1, r0, r6
 1545 0052 FFF7FEFF 		bl	memmove
 1546              	.LVL159:
 1547              	.L248:
 556:.\20648_driver\drivers/inv_mems_mpu_fifo_control.c **** 		*user_header2 = fd.header2;
 1548              		.loc 1 556 0
 1549 0056 3B1C     		mov	r3, r7
 1550 0058 9A33     		add	r3, r3, #154
 1551 005a 1B88     		ldrh	r3, [r3]
 1552 005c 009A     		ldr	r2, [sp]
 557:.\20648_driver\drivers/inv_mems_mpu_fifo_control.c **** 	}
 1553              		.loc 1 557 0
 1554 005e 9C37     		add	r7, r7, #156
 556:.\20648_driver\drivers/inv_mems_mpu_fifo_control.c **** 		*user_header2 = fd.header2;
 1555              		.loc 1 556 0
 1556 0060 1380     		strh	r3, [r2]
 557:.\20648_driver\drivers/inv_mems_mpu_fifo_control.c **** 	}
 1557              		.loc 1 557 0
 1558 0062 3B88     		ldrh	r3, [r7]
 1559 0064 019A     		ldr	r2, [sp, #4]
 1560 0066 1380     		strh	r3, [r2]
 560:.\20648_driver\drivers/inv_mems_mpu_fifo_control.c **** }
 1561              		.loc 1 560 0
 1562 0068 0023     		mov	r3, #0
 1563              	.LVL160:
 1564              	.L245:
 561:.\20648_driver\drivers/inv_mems_mpu_fifo_control.c **** 
 1565              		.loc 1 561 0
 1566 006a 181C     		mov	r0, r3
 1567              		@ sp needed
 1568 006c FEBD     		pop	{r1, r2, r3, r4, r5, r6, r7, pc}
 1569              	.L256:
 1570 006e C046     		.align	2
 1571              	.L255:
 1572 0070 00000000 		.word	.LANCHOR0
 1573 0074 9A000000 		.word	fd+154
 1574 0078 9C000000 		.word	fd+156
 1575 007c 00000000 		.word	fd
 1576              		.cfi_endproc
 1577              	.LFE14:
 1578              		.size	inv_mems_fifo_pop, .-inv_mems_fifo_pop
 1579              		.section	.text.dmp_process_fifo,"ax",%progbits
 1580              		.align	1
 1581              		.global	dmp_process_fifo
 1582              		.code	16
 1583              		.thumb_func
ARM GAS  C:\Users\ADMINI~1\AppData\Local\Temp\ccRFd3Cg.s 			page 46


 1584              		.type	dmp_process_fifo, %function
 1585              	dmp_process_fifo:
 1586              	.LFB15:
 564:.\20648_driver\drivers/inv_mems_mpu_fifo_control.c ****     inv_error_t result = MPU_SUCCESS;
 1587              		.loc 1 564 0
 1588              		.cfi_startproc
 1589              	.LVL161:
 1590 0000 F0B5     		push	{r4, r5, r6, r7, lr}
 1591              		.cfi_def_cfa_offset 20
 1592              		.cfi_offset 4, -20
 1593              		.cfi_offset 5, -16
 1594              		.cfi_offset 6, -12
 1595              		.cfi_offset 7, -8
 1596              		.cfi_offset 14, -4
 566:.\20648_driver\drivers/inv_mems_mpu_fifo_control.c ****     int need_sz=0;
 1597              		.loc 1 566 0
 1598 0002 0025     		mov	r5, #0
 564:.\20648_driver\drivers/inv_mems_mpu_fifo_control.c ****     inv_error_t result = MPU_SUCCESS;
 1599              		.loc 1 564 0
 1600 0004 87B0     		sub	sp, sp, #28
 1601              		.cfi_def_cfa_offset 48
 566:.\20648_driver\drivers/inv_mems_mpu_fifo_control.c ****     int need_sz=0;
 1602              		.loc 1 566 0
 1603 0006 0595     		str	r5, [sp, #20]
 1604              	.LVL162:
 572:.\20648_driver\drivers/inv_mems_mpu_fifo_control.c ****         return -1;
 1605              		.loc 1 572 0
 1606 0008 A842     		cmp	r0, r5
 1607 000a 6FD0     		beq	.L268
 1608 000c 1F1C     		mov	r7, r3
 1609 000e 0392     		str	r2, [sp, #12]
 575:.\20648_driver\drivers/inv_mems_mpu_fifo_control.c ****     {
 1610              		.loc 1 575 0
 1611 0010 0368     		ldr	r3, [r0]
 1612              	.LVL163:
 1613 0012 394A     		ldr	r2, .L286
 1614              	.LVL164:
 1615 0014 0291     		str	r1, [sp, #8]
 1616 0016 041C     		mov	r4, r0
 1617 0018 9342     		cmp	r3, r2
 1618 001a 11DC     		bgt	.L259
 577:.\20648_driver\drivers/inv_mems_mpu_fifo_control.c ****         //sprintf(test_str, "Left in FIFO: %d\r\n",*left_in_fifo);
 1619              		.loc 1 577 0
 1620 001c 8020     		mov	r0, #128
 1621              	.LVL165:
 1622 001e 3749     		ldr	r1, .L286+4
 1623              	.LVL166:
 1624 0020 C000     		lsl	r0, r0, #3
 1625 0022 0831     		add	r1, r1, #8
 1626 0024 C01A     		sub	r0, r0, r3
 1627 0026 C918     		add	r1, r1, r3
 1628 0028 05AA     		add	r2, sp, #20
 1629 002a FFF7FEFF 		bl	dmp_get_fifo_all
 1630              	.LVL167:
 1631 002e 2368     		ldr	r3, [r4]
 1632 0030 1818     		add	r0, r3, r0
 580:.\20648_driver\drivers/inv_mems_mpu_fifo_control.c ****         {
ARM GAS  C:\Users\ADMINI~1\AppData\Local\Temp\ccRFd3Cg.s 			page 47


 1633              		.loc 1 580 0
 1634 0032 059B     		ldr	r3, [sp, #20]
 577:.\20648_driver\drivers/inv_mems_mpu_fifo_control.c ****         //sprintf(test_str, "Left in FIFO: %d\r\n",*left_in_fifo);
 1635              		.loc 1 577 0
 1636 0034 2060     		str	r0, [r4]
 580:.\20648_driver\drivers/inv_mems_mpu_fifo_control.c ****         {
 1637              		.loc 1 580 0
 1638 0036 AB42     		cmp	r3, r5
 1639 0038 02D0     		beq	.L259
 582:.\20648_driver\drivers/inv_mems_mpu_fifo_control.c ****             return -1;
 1640              		.loc 1 582 0
 1641 003a 2560     		str	r5, [r4]
 583:.\20648_driver\drivers/inv_mems_mpu_fifo_control.c ****         }
 1642              		.loc 1 583 0
 1643 003c 013D     		sub	r5, r5, #1
 1644 003e 57E0     		b	.L258
 1645              	.L259:
 587:.\20648_driver\drivers/inv_mems_mpu_fifo_control.c **** 	// no need to extract number of sample per sensor for current function, so provide 0 as last param
 1646              		.loc 1 587 0
 1647 0040 2368     		ldr	r3, [r4]
 1648 0042 032B     		cmp	r3, #3
 1649 0044 01DC     		bgt	.L260
 1650              	.LVL168:
 1651              	.L267:
 633:.\20648_driver\drivers/inv_mems_mpu_fifo_control.c **** }
 1652              		.loc 1 633 0
 1653 0046 0025     		mov	r5, #0
 1654 0048 52E0     		b	.L258
 1655              	.LVL169:
 1656              	.L260:
 589:.\20648_driver\drivers/inv_mems_mpu_fifo_control.c ****         
 1657              		.loc 1 589 0
 1658 004a 2C4E     		ldr	r6, .L286+4
 1659 004c 2C4D     		ldr	r5, .L286+8
 1660 004e 301C     		mov	r0, r6
 1661 0050 0023     		mov	r3, #0
 1662 0052 0830     		add	r0, r0, #8
 1663 0054 291C     		mov	r1, r5
 1664 0056 2B4A     		ldr	r2, .L286+12
 1665 0058 FFF7FEFF 		bl	get_packet_size_and_samplecnt
 1666              	.LVL170:
 592:.\20648_driver\drivers/inv_mems_mpu_fifo_control.c ****             result = fifo_info.fifoError;
 1667              		.loc 1 592 0
 1668 005c 2368     		ldr	r3, [r4]
 589:.\20648_driver\drivers/inv_mems_mpu_fifo_control.c ****         
 1669              		.loc 1 589 0
 1670 005e 0190     		str	r0, [sp, #4]
 1671              	.LVL171:
 592:.\20648_driver\drivers/inv_mems_mpu_fifo_control.c ****             result = fifo_info.fifoError;
 1672              		.loc 1 592 0
 1673 0060 8342     		cmp	r3, r0
 1674 0062 03DA     		bge	.L261
 594:.\20648_driver\drivers/inv_mems_mpu_fifo_control.c ****             return result;
 1675              		.loc 1 594 0
 1676 0064 0023     		mov	r3, #0
 593:.\20648_driver\drivers/inv_mems_mpu_fifo_control.c ****             fifo_info.fifoError = 0;
 1677              		.loc 1 593 0
ARM GAS  C:\Users\ADMINI~1\AppData\Local\Temp\ccRFd3Cg.s 			page 48


 1678 0066 3568     		ldr	r5, [r6]
 1679              	.LVL172:
 594:.\20648_driver\drivers/inv_mems_mpu_fifo_control.c ****             return result;
 1680              		.loc 1 594 0
 1681 0068 3360     		str	r3, [r6]
 595:.\20648_driver\drivers/inv_mems_mpu_fifo_control.c ****         }
 1682              		.loc 1 595 0
 1683 006a 41E0     		b	.L258
 1684              	.LVL173:
 1685              	.L261:
 598:.\20648_driver\drivers/inv_mems_mpu_fifo_control.c ****             *user_header = fd.header;
 1686              		.loc 1 598 0
 1687 006c 029B     		ldr	r3, [sp, #8]
 1688 006e 002B     		cmp	r3, #0
 1689 0070 02D0     		beq	.L262
 599:.\20648_driver\drivers/inv_mems_mpu_fifo_control.c ****         
 1690              		.loc 1 599 0
 1691 0072 2B88     		ldrh	r3, [r5]
 1692 0074 029A     		ldr	r2, [sp, #8]
 1693 0076 1380     		strh	r3, [r2]
 1694              	.L262:
 601:.\20648_driver\drivers/inv_mems_mpu_fifo_control.c ****             *user_header2 = fd.header2;
 1695              		.loc 1 601 0
 1696 0078 039B     		ldr	r3, [sp, #12]
 1697 007a 002B     		cmp	r3, #0
 1698 007c 04D0     		beq	.L263
 602:.\20648_driver\drivers/inv_mems_mpu_fifo_control.c ****         
 1699              		.loc 1 602 0
 1700 007e 224B     		ldr	r3, .L286+16
 1701 0080 039A     		ldr	r2, [sp, #12]
 1702 0082 9C33     		add	r3, r3, #156
 1703 0084 1B88     		ldrh	r3, [r3]
 1704 0086 1380     		strh	r3, [r2]
 1705              	.L263:
 604:.\20648_driver\drivers/inv_mems_mpu_fifo_control.c ****             // Decode error
 1706              		.loc 1 604 0
 1707 0088 1F4B     		ldr	r3, .L286+16
 1708 008a 9A33     		add	r3, r3, #154
 1709 008c 1E88     		ldrh	r6, [r3]
 1710 008e 1E4B     		ldr	r3, .L286+16
 1711 0090 301C     		mov	r0, r6
 1712              	.LVL174:
 1713 0092 9C33     		add	r3, r3, #156
 1714 0094 1988     		ldrh	r1, [r3]
 1715 0096 FFF7FEFF 		bl	check_fifo_decoded_headers
 1716              	.LVL175:
 1717 009a 051E     		sub	r5, r0, #0
 1718 009c 04D0     		beq	.L264
 606:.\20648_driver\drivers/inv_mems_mpu_fifo_control.c ****             *left_in_fifo = 0;
 1719              		.loc 1 606 0
 1720 009e FFF7FEFF 		bl	dmp_reset_fifo
 1721              	.LVL176:
 607:.\20648_driver\drivers/inv_mems_mpu_fifo_control.c ****             return -1;
 1722              		.loc 1 607 0
 1723 00a2 0023     		mov	r3, #0
 1724 00a4 2360     		str	r3, [r4]
 1725 00a6 21E0     		b	.L268
ARM GAS  C:\Users\ADMINI~1\AppData\Local\Temp\ccRFd3Cg.s 			page 49


 1726              	.L264:
 1727              	.LVL177:
 611:.\20648_driver\drivers/inv_mems_mpu_fifo_control.c ****         
 1728              		.loc 1 611 0
 1729 00a8 144B     		ldr	r3, .L286+4
 1730 00aa 0A33     		add	r3, r3, #10
 1731 00ac 0293     		str	r3, [sp, #8]
 1732              	.LVL178:
 613:.\20648_driver\drivers/inv_mems_mpu_fifo_control.c ****             fifo_ptr += HEADER2_SZ;        
 1733              		.loc 1 613 0
 1734 00ae 3307     		lsl	r3, r6, #28
 1735 00b0 02D5     		bpl	.L265
 614:.\20648_driver\drivers/inv_mems_mpu_fifo_control.c ****         
 1736              		.loc 1 614 0
 1737 00b2 124B     		ldr	r3, .L286+4
 1738 00b4 0C33     		add	r3, r3, #12
 1739 00b6 0293     		str	r3, [sp, #8]
 1740              	.L265:
 1741              	.LVL179:
 617:.\20648_driver\drivers/inv_mems_mpu_fifo_control.c ****         
 1742              		.loc 1 617 0
 1743 00b8 FFF7FEFF 		bl	inv_get_tick_count
 1744              	.LVL180:
 619:.\20648_driver\drivers/inv_mems_mpu_fifo_control.c **** 
 1745              		.loc 1 619 0
 1746 00bc 0299     		ldr	r1, [sp, #8]
 617:.\20648_driver\drivers/inv_mems_mpu_fifo_control.c ****         
 1747              		.loc 1 617 0
 1748 00be C317     		asr	r3, r0, #31
 1749 00c0 061C     		mov	r6, r0
 619:.\20648_driver\drivers/inv_mems_mpu_fifo_control.c **** 
 1750              		.loc 1 619 0
 1751 00c2 1148     		ldr	r0, .L286+16
 617:.\20648_driver\drivers/inv_mems_mpu_fifo_control.c ****         
 1752              		.loc 1 617 0
 1753 00c4 0393     		str	r3, [sp, #12]
 1754              	.LVL181:
 619:.\20648_driver\drivers/inv_mems_mpu_fifo_control.c **** 
 1755              		.loc 1 619 0
 1756 00c6 FFF7FEFF 		bl	inv_decode_one_ivory_fifo_packet
 1757              	.LVL182:
 621:.\20648_driver\drivers/inv_mems_mpu_fifo_control.c ****             *time_stamp = ts;
 1758              		.loc 1 621 0
 1759 00ca 002F     		cmp	r7, #0
 1760 00cc 02D0     		beq	.L266
 622:.\20648_driver\drivers/inv_mems_mpu_fifo_control.c ****         
 1761              		.loc 1 622 0
 1762 00ce 039B     		ldr	r3, [sp, #12]
 1763 00d0 3E60     		str	r6, [r7]
 1764 00d2 7B60     		str	r3, [r7, #4]
 1765              	.L266:
 628:.\20648_driver\drivers/inv_mems_mpu_fifo_control.c ****         if (*left_in_fifo) 
 1766              		.loc 1 628 0
 1767 00d4 2368     		ldr	r3, [r4]
 1768 00d6 019A     		ldr	r2, [sp, #4]
 1769 00d8 9A1A     		sub	r2, r3, r2
 1770 00da 2260     		str	r2, [r4]
ARM GAS  C:\Users\ADMINI~1\AppData\Local\Temp\ccRFd3Cg.s 			page 50


 629:.\20648_driver\drivers/inv_mems_mpu_fifo_control.c ****             memmove(fifo_data, &fifo_data[need_sz], *left_in_fifo);// Data left in FIFO
 1771              		.loc 1 629 0
 1772 00dc B3D0     		beq	.L267
 630:.\20648_driver\drivers/inv_mems_mpu_fifo_control.c ****     }
 1773              		.loc 1 630 0
 1774 00de 0748     		ldr	r0, .L286+4
 1775 00e0 019B     		ldr	r3, [sp, #4]
 1776 00e2 0830     		add	r0, r0, #8
 1777 00e4 C118     		add	r1, r0, r3
 1778 00e6 FFF7FEFF 		bl	memmove
 1779              	.LVL183:
 1780 00ea 01E0     		b	.L258
 1781              	.LVL184:
 1782              	.L268:
 573:.\20648_driver\drivers/inv_mems_mpu_fifo_control.c ****     
 1783              		.loc 1 573 0
 1784 00ec 0125     		mov	r5, #1
 1785 00ee 6D42     		neg	r5, r5
 1786              	.LVL185:
 1787              	.L258:
 634:.\20648_driver\drivers/inv_mems_mpu_fifo_control.c **** 
 1788              		.loc 1 634 0
 1789 00f0 281C     		mov	r0, r5
 1790 00f2 07B0     		add	sp, sp, #28
 1791              		@ sp needed
 1792 00f4 F0BD     		pop	{r4, r5, r6, r7, pc}
 1793              	.L287:
 1794 00f6 C046     		.align	2
 1795              	.L286:
 1796 00f8 FF030000 		.word	1023
 1797 00fc 00000000 		.word	.LANCHOR0
 1798 0100 9A000000 		.word	fd+154
 1799 0104 9C000000 		.word	fd+156
 1800 0108 00000000 		.word	fd
 1801              		.cfi_endproc
 1802              	.LFE15:
 1803              		.size	dmp_process_fifo, .-dmp_process_fifo
 1804              		.section	.text.dmp_get_accel,"ax",%progbits
 1805              		.align	1
 1806              		.global	dmp_get_accel
 1807              		.code	16
 1808              		.thumb_func
 1809              		.type	dmp_get_accel, %function
 1810              	dmp_get_accel:
 1811              	.LFB19:
 820:.\20648_driver\drivers/inv_mems_mpu_fifo_control.c **** 
 821:.\20648_driver\drivers/inv_mems_mpu_fifo_control.c **** inv_error_t dmp_get_accel(long acl[3])
 822:.\20648_driver\drivers/inv_mems_mpu_fifo_control.c **** {
 1812              		.loc 1 822 0
 1813              		.cfi_startproc
 1814              	.LVL186:
 1815 0000 08B5     		push	{r3, lr}
 1816              		.cfi_def_cfa_offset 8
 1817              		.cfi_offset 3, -8
 1818              		.cfi_offset 14, -4
 823:.\20648_driver\drivers/inv_mems_mpu_fifo_control.c ****     if(!acl) return -1;
 1819              		.loc 1 823 0
ARM GAS  C:\Users\ADMINI~1\AppData\Local\Temp\ccRFd3Cg.s 			page 51


 1820 0002 0028     		cmp	r0, #0
 1821 0004 05D0     		beq	.L290
 824:.\20648_driver\drivers/inv_mems_mpu_fifo_control.c ****     memcpy( acl, fd.accel, 3*sizeof(long));
 1822              		.loc 1 824 0
 1823 0006 0449     		ldr	r1, .L291
 1824 0008 0C22     		mov	r2, #12
 1825 000a FFF7FEFF 		bl	memcpy
 1826              	.LVL187:
 825:.\20648_driver\drivers/inv_mems_mpu_fifo_control.c ****     return MPU_SUCCESS;
 1827              		.loc 1 825 0
 1828 000e 0020     		mov	r0, #0
 1829 0010 01E0     		b	.L289
 1830              	.LVL188:
 1831              	.L290:
 823:.\20648_driver\drivers/inv_mems_mpu_fifo_control.c ****     if(!acl) return -1;
 1832              		.loc 1 823 0
 1833 0012 0120     		mov	r0, #1
 1834              	.LVL189:
 1835 0014 4042     		neg	r0, r0
 1836              	.L289:
 826:.\20648_driver\drivers/inv_mems_mpu_fifo_control.c **** } 
 1837              		.loc 1 826 0
 1838              		@ sp needed
 1839 0016 08BD     		pop	{r3, pc}
 1840              	.L292:
 1841              		.align	2
 1842              	.L291:
 1843 0018 34000000 		.word	fd+52
 1844              		.cfi_endproc
 1845              	.LFE19:
 1846              		.size	dmp_get_accel, .-dmp_get_accel
 1847              		.section	.text.dmp_get_raw_gyro,"ax",%progbits
 1848              		.align	1
 1849              		.global	dmp_get_raw_gyro
 1850              		.code	16
 1851              		.thumb_func
 1852              		.type	dmp_get_raw_gyro, %function
 1853              	dmp_get_raw_gyro:
 1854              	.LFB20:
 827:.\20648_driver\drivers/inv_mems_mpu_fifo_control.c **** 
 828:.\20648_driver\drivers/inv_mems_mpu_fifo_control.c **** inv_error_t dmp_get_raw_gyro(short raw_gyro[3])
 829:.\20648_driver\drivers/inv_mems_mpu_fifo_control.c **** {
 1855              		.loc 1 829 0
 1856              		.cfi_startproc
 1857              	.LVL190:
 830:.\20648_driver\drivers/inv_mems_mpu_fifo_control.c ****     if(!raw_gyro) return -1;
 1858              		.loc 1 830 0
 1859 0000 0028     		cmp	r0, #0
 1860 0002 0BD0     		beq	.L295
 831:.\20648_driver\drivers/inv_mems_mpu_fifo_control.c ****     raw_gyro[0] = fd.gyro[0];
 1861              		.loc 1 831 0
 1862 0004 074B     		ldr	r3, .L296
 1863 0006 9A1C     		add	r2, r3, #2
 1864 0008 D28F     		ldrh	r2, [r2, #62]
 1865 000a 0280     		strh	r2, [r0]
 832:.\20648_driver\drivers/inv_mems_mpu_fifo_control.c ****     raw_gyro[1] = fd.gyro[1];
 1866              		.loc 1 832 0
ARM GAS  C:\Users\ADMINI~1\AppData\Local\Temp\ccRFd3Cg.s 			page 52


 1867 000c 1A1D     		add	r2, r3, #4
 1868 000e D28F     		ldrh	r2, [r2, #62]
 833:.\20648_driver\drivers/inv_mems_mpu_fifo_control.c ****     raw_gyro[2] = fd.gyro[2];
 1869              		.loc 1 833 0
 1870 0010 0633     		add	r3, r3, #6
 832:.\20648_driver\drivers/inv_mems_mpu_fifo_control.c ****     raw_gyro[1] = fd.gyro[1];
 1871              		.loc 1 832 0
 1872 0012 4280     		strh	r2, [r0, #2]
 1873              		.loc 1 833 0
 1874 0014 DB8F     		ldrh	r3, [r3, #62]
 1875 0016 8380     		strh	r3, [r0, #4]
 834:.\20648_driver\drivers/inv_mems_mpu_fifo_control.c ****     return MPU_SUCCESS;
 1876              		.loc 1 834 0
 1877 0018 0020     		mov	r0, #0
 1878              	.LVL191:
 1879 001a 01E0     		b	.L294
 1880              	.LVL192:
 1881              	.L295:
 830:.\20648_driver\drivers/inv_mems_mpu_fifo_control.c ****     raw_gyro[0] = fd.gyro[0];
 1882              		.loc 1 830 0
 1883 001c 0120     		mov	r0, #1
 1884              	.LVL193:
 1885 001e 4042     		neg	r0, r0
 1886              	.L294:
 835:.\20648_driver\drivers/inv_mems_mpu_fifo_control.c **** }
 1887              		.loc 1 835 0
 1888              		@ sp needed
 1889 0020 7047     		bx	lr
 1890              	.L297:
 1891 0022 C046     		.align	2
 1892              	.L296:
 1893 0024 00000000 		.word	fd
 1894              		.cfi_endproc
 1895              	.LFE20:
 1896              		.size	dmp_get_raw_gyro, .-dmp_get_raw_gyro
 1897              		.section	.text.dmp_get_gyro_bias,"ax",%progbits
 1898              		.align	1
 1899              		.global	dmp_get_gyro_bias
 1900              		.code	16
 1901              		.thumb_func
 1902              		.type	dmp_get_gyro_bias, %function
 1903              	dmp_get_gyro_bias:
 1904              	.LFB21:
 836:.\20648_driver\drivers/inv_mems_mpu_fifo_control.c **** 
 837:.\20648_driver\drivers/inv_mems_mpu_fifo_control.c **** #if defined MEMS_SECONDARY_DEVICE
 838:.\20648_driver\drivers/inv_mems_mpu_fifo_control.c **** inv_error_t dmp_get_pressure_raw(short pressure[3])
 839:.\20648_driver\drivers/inv_mems_mpu_fifo_control.c **** {
 840:.\20648_driver\drivers/inv_mems_mpu_fifo_control.c ****     if(!pressure) return -1;
 841:.\20648_driver\drivers/inv_mems_mpu_fifo_control.c ****     memcpy( pressure, fd.pressure, 3*sizeof(short));  
 842:.\20648_driver\drivers/inv_mems_mpu_fifo_control.c ****     return MPU_SUCCESS;
 843:.\20648_driver\drivers/inv_mems_mpu_fifo_control.c **** }
 844:.\20648_driver\drivers/inv_mems_mpu_fifo_control.c **** 
 845:.\20648_driver\drivers/inv_mems_mpu_fifo_control.c **** inv_error_t dmp_get_pressure_temperature(unsigned int * pressure, signed int * temperature)
 846:.\20648_driver\drivers/inv_mems_mpu_fifo_control.c **** {
 847:.\20648_driver\drivers/inv_mems_mpu_fifo_control.c ****     short pressure_raw[3];
 848:.\20648_driver\drivers/inv_mems_mpu_fifo_control.c ****     if(!pressure) return -1;
 849:.\20648_driver\drivers/inv_mems_mpu_fifo_control.c ****     if(!temperature) return -1;
ARM GAS  C:\Users\ADMINI~1\AppData\Local\Temp\ccRFd3Cg.s 			page 53


 850:.\20648_driver\drivers/inv_mems_mpu_fifo_control.c **** 
 851:.\20648_driver\drivers/inv_mems_mpu_fifo_control.c ****     if (dmp_get_pressure_raw(pressure_raw)) return -1;
 852:.\20648_driver\drivers/inv_mems_mpu_fifo_control.c **** 
 853:.\20648_driver\drivers/inv_mems_mpu_fifo_control.c ****     return inv_mems_pressure_bmp280_rawToPascal((unsigned short *)pressure_raw, pressure, temperatu
 854:.\20648_driver\drivers/inv_mems_mpu_fifo_control.c **** }
 855:.\20648_driver\drivers/inv_mems_mpu_fifo_control.c **** #endif
 856:.\20648_driver\drivers/inv_mems_mpu_fifo_control.c **** #if (MEMS_CHIP == HW_ICM20609)
 857:.\20648_driver\drivers/inv_mems_mpu_fifo_control.c **** inv_error_t dmp_get_gyro_bias(long gyro_bias[3])
 858:.\20648_driver\drivers/inv_mems_mpu_fifo_control.c **** {
 859:.\20648_driver\drivers/inv_mems_mpu_fifo_control.c ****     if(!gyro_bias) return -1;  
 860:.\20648_driver\drivers/inv_mems_mpu_fifo_control.c ****     memcpy(gyro_bias, fd.gyro_bias, 3*sizeof(long)); 
 861:.\20648_driver\drivers/inv_mems_mpu_fifo_control.c ****     return MPU_SUCCESS;
 862:.\20648_driver\drivers/inv_mems_mpu_fifo_control.c **** }
 863:.\20648_driver\drivers/inv_mems_mpu_fifo_control.c **** 
 864:.\20648_driver\drivers/inv_mems_mpu_fifo_control.c **** inv_error_t inv_mems_dmp_get_calibrated_gyro(signed long calibratedData[3], short raw[3], signed lo
 865:.\20648_driver\drivers/inv_mems_mpu_fifo_control.c **** {
 866:.\20648_driver\drivers/inv_mems_mpu_fifo_control.c ****     if(!calibratedData) return -1;  
 867:.\20648_driver\drivers/inv_mems_mpu_fifo_control.c ****     if(!raw) return -1;  
 868:.\20648_driver\drivers/inv_mems_mpu_fifo_control.c ****     if(!bias) return -1;  
 869:.\20648_driver\drivers/inv_mems_mpu_fifo_control.c ****     signed long scaled_bias[3];
 870:.\20648_driver\drivers/inv_mems_mpu_fifo_control.c ****     
 871:.\20648_driver\drivers/inv_mems_mpu_fifo_control.c ****     for (int i =0; i<3; i++)
 872:.\20648_driver\drivers/inv_mems_mpu_fifo_control.c ****       scaled_bias[i] = ((bias[i] << 14)/2859) << 1;
 873:.\20648_driver\drivers/inv_mems_mpu_fifo_control.c ****     
 874:.\20648_driver\drivers/inv_mems_mpu_fifo_control.c ****     calibratedData[0] = (raw[0]<<15) - scaled_bias[0];
 875:.\20648_driver\drivers/inv_mems_mpu_fifo_control.c ****     calibratedData[1] = (raw[1]<<15) - scaled_bias[1];
 876:.\20648_driver\drivers/inv_mems_mpu_fifo_control.c ****     calibratedData[2] = (raw[2]<<15) - scaled_bias[2];
 877:.\20648_driver\drivers/inv_mems_mpu_fifo_control.c ****     
 878:.\20648_driver\drivers/inv_mems_mpu_fifo_control.c ****     return MPU_SUCCESS;
 879:.\20648_driver\drivers/inv_mems_mpu_fifo_control.c **** }
 880:.\20648_driver\drivers/inv_mems_mpu_fifo_control.c **** #endif
 881:.\20648_driver\drivers/inv_mems_mpu_fifo_control.c **** 
 882:.\20648_driver\drivers/inv_mems_mpu_fifo_control.c **** #if ((MEMS_CHIP == HW_ICM30630) || (MEMS_CHIP == HW_ICM20648))
 883:.\20648_driver\drivers/inv_mems_mpu_fifo_control.c **** inv_error_t dmp_get_gyro_bias(short gyro_bias[3])
 884:.\20648_driver\drivers/inv_mems_mpu_fifo_control.c **** {
 1905              		.loc 1 884 0
 1906              		.cfi_startproc
 1907              	.LVL194:
 1908 0000 08B5     		push	{r3, lr}
 1909              		.cfi_def_cfa_offset 8
 1910              		.cfi_offset 3, -8
 1911              		.cfi_offset 14, -4
 885:.\20648_driver\drivers/inv_mems_mpu_fifo_control.c ****     if(!gyro_bias) return -1;  
 1912              		.loc 1 885 0
 1913 0002 0028     		cmp	r0, #0
 1914 0004 05D0     		beq	.L300
 886:.\20648_driver\drivers/inv_mems_mpu_fifo_control.c ****     memcpy(gyro_bias, fd.gyro_bias, 3*sizeof(short)); 
 1915              		.loc 1 886 0
 1916 0006 0449     		ldr	r1, .L301
 1917 0008 0622     		mov	r2, #6
 1918 000a FFF7FEFF 		bl	memcpy
 1919              	.LVL195:
 887:.\20648_driver\drivers/inv_mems_mpu_fifo_control.c ****     return MPU_SUCCESS;
 1920              		.loc 1 887 0
 1921 000e 0020     		mov	r0, #0
 1922 0010 01E0     		b	.L299
 1923              	.LVL196:
ARM GAS  C:\Users\ADMINI~1\AppData\Local\Temp\ccRFd3Cg.s 			page 54


 1924              	.L300:
 885:.\20648_driver\drivers/inv_mems_mpu_fifo_control.c ****     if(!gyro_bias) return -1;  
 1925              		.loc 1 885 0
 1926 0012 0120     		mov	r0, #1
 1927              	.LVL197:
 1928 0014 4042     		neg	r0, r0
 1929              	.L299:
 888:.\20648_driver\drivers/inv_mems_mpu_fifo_control.c **** }
 1930              		.loc 1 888 0
 1931              		@ sp needed
 1932 0016 08BD     		pop	{r3, pc}
 1933              	.L302:
 1934              		.align	2
 1935              	.L301:
 1936 0018 46000000 		.word	fd+70
 1937              		.cfi_endproc
 1938              	.LFE21:
 1939              		.size	dmp_get_gyro_bias, .-dmp_get_gyro_bias
 1940              		.section	.text.inv_mems_dmp_get_calibrated_gyro,"ax",%progbits
 1941              		.align	1
 1942              		.global	inv_mems_dmp_get_calibrated_gyro
 1943              		.code	16
 1944              		.thumb_func
 1945              		.type	inv_mems_dmp_get_calibrated_gyro, %function
 1946              	inv_mems_dmp_get_calibrated_gyro:
 1947              	.LFB22:
 889:.\20648_driver\drivers/inv_mems_mpu_fifo_control.c **** 
 890:.\20648_driver\drivers/inv_mems_mpu_fifo_control.c **** 
 891:.\20648_driver\drivers/inv_mems_mpu_fifo_control.c **** inv_error_t inv_mems_dmp_get_calibrated_gyro(signed long calibratedData[3], signed long raw[3], sig
 892:.\20648_driver\drivers/inv_mems_mpu_fifo_control.c **** {
 1948              		.loc 1 892 0
 1949              		.cfi_startproc
 1950              	.LVL198:
 1951 0000 10B5     		push	{r4, lr}
 1952              		.cfi_def_cfa_offset 8
 1953              		.cfi_offset 4, -8
 1954              		.cfi_offset 14, -4
 893:.\20648_driver\drivers/inv_mems_mpu_fifo_control.c ****     if(!calibratedData) return -1;  
 1955              		.loc 1 893 0
 1956 0002 0028     		cmp	r0, #0
 1957 0004 11D0     		beq	.L307
 894:.\20648_driver\drivers/inv_mems_mpu_fifo_control.c ****     if(!raw) return -1;  
 1958              		.loc 1 894 0
 1959 0006 0029     		cmp	r1, #0
 1960 0008 0FD0     		beq	.L307
 895:.\20648_driver\drivers/inv_mems_mpu_fifo_control.c ****     if(!bias) return -1;  
 1961              		.loc 1 895 0
 1962 000a 002A     		cmp	r2, #0
 1963 000c 0DD0     		beq	.L307
 896:.\20648_driver\drivers/inv_mems_mpu_fifo_control.c ****     
 897:.\20648_driver\drivers/inv_mems_mpu_fifo_control.c ****     calibratedData[0] = raw[0] - bias[0];
 1964              		.loc 1 897 0
 1965 000e 1468     		ldr	r4, [r2]
 1966 0010 0B68     		ldr	r3, [r1]
 1967 0012 1B1B     		sub	r3, r3, r4
 1968 0014 0360     		str	r3, [r0]
 898:.\20648_driver\drivers/inv_mems_mpu_fifo_control.c ****     calibratedData[1] = raw[1] - bias[1];
ARM GAS  C:\Users\ADMINI~1\AppData\Local\Temp\ccRFd3Cg.s 			page 55


 1969              		.loc 1 898 0
 1970 0016 5468     		ldr	r4, [r2, #4]
 1971 0018 4B68     		ldr	r3, [r1, #4]
 1972 001a 1B1B     		sub	r3, r3, r4
 1973 001c 4360     		str	r3, [r0, #4]
 899:.\20648_driver\drivers/inv_mems_mpu_fifo_control.c ****     calibratedData[2] = raw[2] - bias[2];
 1974              		.loc 1 899 0
 1975 001e 8B68     		ldr	r3, [r1, #8]
 1976 0020 9268     		ldr	r2, [r2, #8]
 1977              	.LVL199:
 1978 0022 9B1A     		sub	r3, r3, r2
 1979 0024 8360     		str	r3, [r0, #8]
 900:.\20648_driver\drivers/inv_mems_mpu_fifo_control.c ****     
 901:.\20648_driver\drivers/inv_mems_mpu_fifo_control.c ****     return MPU_SUCCESS;
 1980              		.loc 1 901 0
 1981 0026 0020     		mov	r0, #0
 1982              	.LVL200:
 1983 0028 01E0     		b	.L304
 1984              	.LVL201:
 1985              	.L307:
 893:.\20648_driver\drivers/inv_mems_mpu_fifo_control.c ****     if(!raw) return -1;  
 1986              		.loc 1 893 0
 1987 002a 0120     		mov	r0, #1
 1988              	.LVL202:
 1989 002c 4042     		neg	r0, r0
 1990              	.LVL203:
 1991              	.L304:
 902:.\20648_driver\drivers/inv_mems_mpu_fifo_control.c **** }
 1992              		.loc 1 902 0
 1993              		@ sp needed
 1994 002e 10BD     		pop	{r4, pc}
 1995              		.cfi_endproc
 1996              	.LFE22:
 1997              		.size	inv_mems_dmp_get_calibrated_gyro, .-inv_mems_dmp_get_calibrated_gyro
 1998              		.section	.text.dmp_get_6quaternion,"ax",%progbits
 1999              		.align	1
 2000              		.global	dmp_get_6quaternion
 2001              		.code	16
 2002              		.thumb_func
 2003              		.type	dmp_get_6quaternion, %function
 2004              	dmp_get_6quaternion:
 2005              	.LFB23:
 903:.\20648_driver\drivers/inv_mems_mpu_fifo_control.c **** #else
 904:.\20648_driver\drivers/inv_mems_mpu_fifo_control.c **** inv_error_t dmp_get_calibrated_gyro(long cal_gyro[3])
 905:.\20648_driver\drivers/inv_mems_mpu_fifo_control.c **** {
 906:.\20648_driver\drivers/inv_mems_mpu_fifo_control.c ****     if(!cal_gyro) return -1;  
 907:.\20648_driver\drivers/inv_mems_mpu_fifo_control.c ****     memcpy(cal_gyro, fd.gyro_calibr, 3*sizeof(long)); 
 908:.\20648_driver\drivers/inv_mems_mpu_fifo_control.c ****     return MPU_SUCCESS;
 909:.\20648_driver\drivers/inv_mems_mpu_fifo_control.c **** }
 910:.\20648_driver\drivers/inv_mems_mpu_fifo_control.c **** #endif
 911:.\20648_driver\drivers/inv_mems_mpu_fifo_control.c **** 
 912:.\20648_driver\drivers/inv_mems_mpu_fifo_control.c **** inv_error_t dmp_get_6quaternion(long quat[3])
 913:.\20648_driver\drivers/inv_mems_mpu_fifo_control.c **** {
 2006              		.loc 1 913 0
 2007              		.cfi_startproc
 2008              	.LVL204:
 2009 0000 08B5     		push	{r3, lr}
ARM GAS  C:\Users\ADMINI~1\AppData\Local\Temp\ccRFd3Cg.s 			page 56


 2010              		.cfi_def_cfa_offset 8
 2011              		.cfi_offset 3, -8
 2012              		.cfi_offset 14, -4
 914:.\20648_driver\drivers/inv_mems_mpu_fifo_control.c ****     if(!quat) return -1;
 2013              		.loc 1 914 0
 2014 0002 0028     		cmp	r0, #0
 2015 0004 05D0     		beq	.L310
 915:.\20648_driver\drivers/inv_mems_mpu_fifo_control.c ****     memcpy( quat, fd.dmp_3e_6quat, sizeof(fd.dmp_3e_6quat));            
 2016              		.loc 1 915 0
 2017 0006 0449     		ldr	r1, .L311
 2018 0008 0C22     		mov	r2, #12
 2019 000a FFF7FEFF 		bl	memcpy
 2020              	.LVL205:
 916:.\20648_driver\drivers/inv_mems_mpu_fifo_control.c ****     return MPU_SUCCESS;
 2021              		.loc 1 916 0
 2022 000e 0020     		mov	r0, #0
 2023 0010 01E0     		b	.L309
 2024              	.LVL206:
 2025              	.L310:
 914:.\20648_driver\drivers/inv_mems_mpu_fifo_control.c ****     if(!quat) return -1;
 2026              		.loc 1 914 0
 2027 0012 0120     		mov	r0, #1
 2028              	.LVL207:
 2029 0014 4042     		neg	r0, r0
 2030              	.L309:
 917:.\20648_driver\drivers/inv_mems_mpu_fifo_control.c **** }
 2031              		.loc 1 917 0
 2032              		@ sp needed
 2033 0016 08BD     		pop	{r3, pc}
 2034              	.L312:
 2035              		.align	2
 2036              	.L311:
 2037 0018 00000000 		.word	fd
 2038              		.cfi_endproc
 2039              	.LFE23:
 2040              		.size	dmp_get_6quaternion, .-dmp_get_6quaternion
 2041              		.section	.text.dmp_get_9quaternion,"ax",%progbits
 2042              		.align	1
 2043              		.global	dmp_get_9quaternion
 2044              		.code	16
 2045              		.thumb_func
 2046              		.type	dmp_get_9quaternion, %function
 2047              	dmp_get_9quaternion:
 2048              	.LFB24:
 918:.\20648_driver\drivers/inv_mems_mpu_fifo_control.c **** 
 919:.\20648_driver\drivers/inv_mems_mpu_fifo_control.c **** inv_error_t dmp_get_9quaternion(long quat[3])
 920:.\20648_driver\drivers/inv_mems_mpu_fifo_control.c **** {
 2049              		.loc 1 920 0
 2050              		.cfi_startproc
 2051              	.LVL208:
 2052 0000 08B5     		push	{r3, lr}
 2053              		.cfi_def_cfa_offset 8
 2054              		.cfi_offset 3, -8
 2055              		.cfi_offset 14, -4
 921:.\20648_driver\drivers/inv_mems_mpu_fifo_control.c ****     if(!quat) return -1;
 2056              		.loc 1 921 0
 2057 0002 0028     		cmp	r0, #0
ARM GAS  C:\Users\ADMINI~1\AppData\Local\Temp\ccRFd3Cg.s 			page 57


 2058 0004 05D0     		beq	.L315
 922:.\20648_driver\drivers/inv_mems_mpu_fifo_control.c ****     memcpy( quat, fd.dmp_3e_9quat, sizeof(fd.dmp_3e_9quat));            
 2059              		.loc 1 922 0
 2060 0006 0449     		ldr	r1, .L316
 2061 0008 0C22     		mov	r2, #12
 2062 000a FFF7FEFF 		bl	memcpy
 2063              	.LVL209:
 923:.\20648_driver\drivers/inv_mems_mpu_fifo_control.c ****     return MPU_SUCCESS;
 2064              		.loc 1 923 0
 2065 000e 0020     		mov	r0, #0
 2066 0010 01E0     		b	.L314
 2067              	.LVL210:
 2068              	.L315:
 921:.\20648_driver\drivers/inv_mems_mpu_fifo_control.c ****     if(!quat) return -1;
 2069              		.loc 1 921 0
 2070 0012 0120     		mov	r0, #1
 2071              	.LVL211:
 2072 0014 4042     		neg	r0, r0
 2073              	.L314:
 924:.\20648_driver\drivers/inv_mems_mpu_fifo_control.c **** }
 2074              		.loc 1 924 0
 2075              		@ sp needed
 2076 0016 08BD     		pop	{r3, pc}
 2077              	.L317:
 2078              		.align	2
 2079              	.L316:
 2080 0018 0C000000 		.word	fd+12
 2081              		.cfi_endproc
 2082              	.LFE24:
 2083              		.size	dmp_get_9quaternion, .-dmp_get_9quaternion
 2084              		.section	.text.dmp_get_gmrvquaternion,"ax",%progbits
 2085              		.align	1
 2086              		.global	dmp_get_gmrvquaternion
 2087              		.code	16
 2088              		.thumb_func
 2089              		.type	dmp_get_gmrvquaternion, %function
 2090              	dmp_get_gmrvquaternion:
 2091              	.LFB25:
 925:.\20648_driver\drivers/inv_mems_mpu_fifo_control.c **** 
 926:.\20648_driver\drivers/inv_mems_mpu_fifo_control.c **** #if (MEMS_CHIP == HW_ICM20648) 
 927:.\20648_driver\drivers/inv_mems_mpu_fifo_control.c **** inv_error_t dmp_get_gmrvquaternion(long quat[3])
 928:.\20648_driver\drivers/inv_mems_mpu_fifo_control.c **** {
 2092              		.loc 1 928 0
 2093              		.cfi_startproc
 2094              	.LVL212:
 2095 0000 08B5     		push	{r3, lr}
 2096              		.cfi_def_cfa_offset 8
 2097              		.cfi_offset 3, -8
 2098              		.cfi_offset 14, -4
 929:.\20648_driver\drivers/inv_mems_mpu_fifo_control.c ****     if(!quat) return -1;
 2099              		.loc 1 929 0
 2100 0002 0028     		cmp	r0, #0
 2101 0004 05D0     		beq	.L320
 930:.\20648_driver\drivers/inv_mems_mpu_fifo_control.c ****     memcpy( quat, fd.dmp_3e_geomagquat, sizeof(fd.dmp_3e_geomagquat));            
 2102              		.loc 1 930 0
 2103 0006 0449     		ldr	r1, .L321
 2104 0008 0C22     		mov	r2, #12
ARM GAS  C:\Users\ADMINI~1\AppData\Local\Temp\ccRFd3Cg.s 			page 58


 2105 000a FFF7FEFF 		bl	memcpy
 2106              	.LVL213:
 931:.\20648_driver\drivers/inv_mems_mpu_fifo_control.c ****     return MPU_SUCCESS;
 2107              		.loc 1 931 0
 2108 000e 0020     		mov	r0, #0
 2109 0010 01E0     		b	.L319
 2110              	.LVL214:
 2111              	.L320:
 929:.\20648_driver\drivers/inv_mems_mpu_fifo_control.c ****     if(!quat) return -1;
 2112              		.loc 1 929 0
 2113 0012 0120     		mov	r0, #1
 2114              	.LVL215:
 2115 0014 4042     		neg	r0, r0
 2116              	.L319:
 932:.\20648_driver\drivers/inv_mems_mpu_fifo_control.c **** }
 2117              		.loc 1 932 0
 2118              		@ sp needed
 2119 0016 08BD     		pop	{r3, pc}
 2120              	.L322:
 2121              		.align	2
 2122              	.L321:
 2123 0018 1C000000 		.word	fd+28
 2124              		.cfi_endproc
 2125              	.LFE25:
 2126              		.size	dmp_get_gmrvquaternion, .-dmp_get_gmrvquaternion
 2127              		.section	.text.dmp_get_raw_compass,"ax",%progbits
 2128              		.align	1
 2129              		.global	dmp_get_raw_compass
 2130              		.code	16
 2131              		.thumb_func
 2132              		.type	dmp_get_raw_compass, %function
 2133              	dmp_get_raw_compass:
 2134              	.LFB26:
 933:.\20648_driver\drivers/inv_mems_mpu_fifo_control.c **** #endif
 934:.\20648_driver\drivers/inv_mems_mpu_fifo_control.c **** 
 935:.\20648_driver\drivers/inv_mems_mpu_fifo_control.c **** inv_error_t dmp_get_raw_compass(long raw_compass[3])
 936:.\20648_driver\drivers/inv_mems_mpu_fifo_control.c **** {
 2135              		.loc 1 936 0
 2136              		.cfi_startproc
 2137              	.LVL216:
 2138 0000 08B5     		push	{r3, lr}
 2139              		.cfi_def_cfa_offset 8
 2140              		.cfi_offset 3, -8
 2141              		.cfi_offset 14, -4
 937:.\20648_driver\drivers/inv_mems_mpu_fifo_control.c ****     if(!raw_compass) return -1;
 2142              		.loc 1 937 0
 2143 0002 0028     		cmp	r0, #0
 2144 0004 05D0     		beq	.L325
 938:.\20648_driver\drivers/inv_mems_mpu_fifo_control.c ****     memcpy( raw_compass, fd.compass, 3*sizeof(long)); 
 2145              		.loc 1 938 0
 2146 0006 0449     		ldr	r1, .L326
 2147 0008 0C22     		mov	r2, #12
 2148 000a FFF7FEFF 		bl	memcpy
 2149              	.LVL217:
 939:.\20648_driver\drivers/inv_mems_mpu_fifo_control.c ****     return MPU_SUCCESS;
 2150              		.loc 1 939 0
 2151 000e 0020     		mov	r0, #0
ARM GAS  C:\Users\ADMINI~1\AppData\Local\Temp\ccRFd3Cg.s 			page 59


 2152 0010 01E0     		b	.L324
 2153              	.LVL218:
 2154              	.L325:
 937:.\20648_driver\drivers/inv_mems_mpu_fifo_control.c ****     if(!raw_compass) return -1;
 2155              		.loc 1 937 0
 2156 0012 0120     		mov	r0, #1
 2157              	.LVL219:
 2158 0014 4042     		neg	r0, r0
 2159              	.L324:
 940:.\20648_driver\drivers/inv_mems_mpu_fifo_control.c **** }
 2160              		.loc 1 940 0
 2161              		@ sp needed
 2162 0016 08BD     		pop	{r3, pc}
 2163              	.L327:
 2164              		.align	2
 2165              	.L326:
 2166 0018 58000000 		.word	fd+88
 2167              		.cfi_endproc
 2168              	.LFE26:
 2169              		.size	dmp_get_raw_compass, .-dmp_get_raw_compass
 2170              		.section	.text.dmp_get_calibrated_compass,"ax",%progbits
 2171              		.align	1
 2172              		.global	dmp_get_calibrated_compass
 2173              		.code	16
 2174              		.thumb_func
 2175              		.type	dmp_get_calibrated_compass, %function
 2176              	dmp_get_calibrated_compass:
 2177              	.LFB27:
 941:.\20648_driver\drivers/inv_mems_mpu_fifo_control.c **** 
 942:.\20648_driver\drivers/inv_mems_mpu_fifo_control.c **** inv_error_t dmp_get_calibrated_compass(long cal_compass[3])
 943:.\20648_driver\drivers/inv_mems_mpu_fifo_control.c **** {
 2178              		.loc 1 943 0
 2179              		.cfi_startproc
 2180              	.LVL220:
 2181 0000 08B5     		push	{r3, lr}
 2182              		.cfi_def_cfa_offset 8
 2183              		.cfi_offset 3, -8
 2184              		.cfi_offset 14, -4
 944:.\20648_driver\drivers/inv_mems_mpu_fifo_control.c ****     if(!cal_compass) return -1;
 2185              		.loc 1 944 0
 2186 0002 0028     		cmp	r0, #0
 2187 0004 05D0     		beq	.L330
 945:.\20648_driver\drivers/inv_mems_mpu_fifo_control.c ****     memcpy( cal_compass, fd.cpass_calibr, 3*sizeof(long));  
 2188              		.loc 1 945 0
 2189 0006 0449     		ldr	r1, .L331
 2190 0008 0C22     		mov	r2, #12
 2191 000a FFF7FEFF 		bl	memcpy
 2192              	.LVL221:
 946:.\20648_driver\drivers/inv_mems_mpu_fifo_control.c ****     return MPU_SUCCESS;
 2193              		.loc 1 946 0
 2194 000e 0020     		mov	r0, #0
 2195 0010 01E0     		b	.L329
 2196              	.LVL222:
 2197              	.L330:
 944:.\20648_driver\drivers/inv_mems_mpu_fifo_control.c ****     if(!cal_compass) return -1;
 2198              		.loc 1 944 0
 2199 0012 0120     		mov	r0, #1
ARM GAS  C:\Users\ADMINI~1\AppData\Local\Temp\ccRFd3Cg.s 			page 60


 2200              	.LVL223:
 2201 0014 4042     		neg	r0, r0
 2202              	.L329:
 947:.\20648_driver\drivers/inv_mems_mpu_fifo_control.c **** }
 2203              		.loc 1 947 0
 2204              		@ sp needed
 2205 0016 08BD     		pop	{r3, pc}
 2206              	.L332:
 2207              		.align	2
 2208              	.L331:
 2209 0018 64000000 		.word	fd+100
 2210              		.cfi_endproc
 2211              	.LFE27:
 2212              		.size	dmp_get_calibrated_compass, .-dmp_get_calibrated_compass
 2213              		.section	.text.dmp_get_bac_state,"ax",%progbits
 2214              		.align	1
 2215              		.global	dmp_get_bac_state
 2216              		.code	16
 2217              		.thumb_func
 2218              		.type	dmp_get_bac_state, %function
 2219              	dmp_get_bac_state:
 2220              	.LFB28:
 948:.\20648_driver\drivers/inv_mems_mpu_fifo_control.c **** 
 949:.\20648_driver\drivers/inv_mems_mpu_fifo_control.c **** inv_error_t dmp_get_bac_state(uint16_t *bac_state)
 950:.\20648_driver\drivers/inv_mems_mpu_fifo_control.c **** {
 2221              		.loc 1 950 0
 2222              		.cfi_startproc
 2223              	.LVL224:
 951:.\20648_driver\drivers/inv_mems_mpu_fifo_control.c **** 	if(!bac_state) return -1;
 2224              		.loc 1 951 0
 2225 0000 0028     		cmp	r0, #0
 2226 0002 05D0     		beq	.L335
 952:.\20648_driver\drivers/inv_mems_mpu_fifo_control.c **** 	*bac_state = fd.bac_state;
 2227              		.loc 1 952 0
 2228 0004 044B     		ldr	r3, .L336
 2229 0006 8433     		add	r3, r3, #132
 2230 0008 1B88     		ldrh	r3, [r3]
 2231 000a 0380     		strh	r3, [r0]
 953:.\20648_driver\drivers/inv_mems_mpu_fifo_control.c **** 	return INV_SUCCESS;
 2232              		.loc 1 953 0
 2233 000c 0020     		mov	r0, #0
 2234              	.LVL225:
 2235 000e 01E0     		b	.L334
 2236              	.LVL226:
 2237              	.L335:
 951:.\20648_driver\drivers/inv_mems_mpu_fifo_control.c **** 	if(!bac_state) return -1;
 2238              		.loc 1 951 0
 2239 0010 0120     		mov	r0, #1
 2240              	.LVL227:
 2241 0012 4042     		neg	r0, r0
 2242              	.L334:
 954:.\20648_driver\drivers/inv_mems_mpu_fifo_control.c **** }
 2243              		.loc 1 954 0
 2244              		@ sp needed
 2245 0014 7047     		bx	lr
 2246              	.L337:
 2247 0016 C046     		.align	2
ARM GAS  C:\Users\ADMINI~1\AppData\Local\Temp\ccRFd3Cg.s 			page 61


 2248              	.L336:
 2249 0018 00000000 		.word	fd
 2250              		.cfi_endproc
 2251              	.LFE28:
 2252              		.size	dmp_get_bac_state, .-dmp_get_bac_state
 2253              		.section	.text.dmp_get_bac_ts,"ax",%progbits
 2254              		.align	1
 2255              		.global	dmp_get_bac_ts
 2256              		.code	16
 2257              		.thumb_func
 2258              		.type	dmp_get_bac_ts, %function
 2259              	dmp_get_bac_ts:
 2260              	.LFB29:
 955:.\20648_driver\drivers/inv_mems_mpu_fifo_control.c **** 
 956:.\20648_driver\drivers/inv_mems_mpu_fifo_control.c **** inv_error_t dmp_get_bac_ts(long *bac_ts)
 957:.\20648_driver\drivers/inv_mems_mpu_fifo_control.c **** {
 2261              		.loc 1 957 0
 2262              		.cfi_startproc
 2263              	.LVL228:
 958:.\20648_driver\drivers/inv_mems_mpu_fifo_control.c **** 	if(!bac_ts) return -1;
 2264              		.loc 1 958 0
 2265 0000 0028     		cmp	r0, #0
 2266 0002 05D0     		beq	.L340
 959:.\20648_driver\drivers/inv_mems_mpu_fifo_control.c **** 	*bac_ts = fd.bac_ts;
 2267              		.loc 1 959 0
 2268 0004 044B     		ldr	r3, .L341
 2269 0006 0433     		add	r3, r3, #4
 2270 0008 DB6F     		ldr	r3, [r3, #124]
 2271 000a 0360     		str	r3, [r0]
 960:.\20648_driver\drivers/inv_mems_mpu_fifo_control.c **** 	return INV_SUCCESS;
 2272              		.loc 1 960 0
 2273 000c 0020     		mov	r0, #0
 2274              	.LVL229:
 2275 000e 01E0     		b	.L339
 2276              	.LVL230:
 2277              	.L340:
 958:.\20648_driver\drivers/inv_mems_mpu_fifo_control.c **** 	if(!bac_ts) return -1;
 2278              		.loc 1 958 0
 2279 0010 0120     		mov	r0, #1
 2280              	.LVL231:
 2281 0012 4042     		neg	r0, r0
 2282              	.L339:
 961:.\20648_driver\drivers/inv_mems_mpu_fifo_control.c **** }
 2283              		.loc 1 961 0
 2284              		@ sp needed
 2285 0014 7047     		bx	lr
 2286              	.L342:
 2287 0016 C046     		.align	2
 2288              	.L341:
 2289 0018 00000000 		.word	fd
 2290              		.cfi_endproc
 2291              	.LFE29:
 2292              		.size	dmp_get_bac_ts, .-dmp_get_bac_ts
 2293              		.section	.text.dmp_get_flip_pickup_state,"ax",%progbits
 2294              		.align	1
 2295              		.global	dmp_get_flip_pickup_state
 2296              		.code	16
ARM GAS  C:\Users\ADMINI~1\AppData\Local\Temp\ccRFd3Cg.s 			page 62


 2297              		.thumb_func
 2298              		.type	dmp_get_flip_pickup_state, %function
 2299              	dmp_get_flip_pickup_state:
 2300              	.LFB30:
 962:.\20648_driver\drivers/inv_mems_mpu_fifo_control.c **** 
 963:.\20648_driver\drivers/inv_mems_mpu_fifo_control.c **** inv_error_t dmp_get_flip_pickup_state(uint16_t *flip_pickup)
 964:.\20648_driver\drivers/inv_mems_mpu_fifo_control.c **** {
 2301              		.loc 1 964 0
 2302              		.cfi_startproc
 2303              	.LVL232:
 965:.\20648_driver\drivers/inv_mems_mpu_fifo_control.c **** 	if(!flip_pickup) return -1;
 2304              		.loc 1 965 0
 2305 0000 0028     		cmp	r0, #0
 2306 0002 05D0     		beq	.L345
 966:.\20648_driver\drivers/inv_mems_mpu_fifo_control.c **** 	*flip_pickup = fd.flip_pickup;
 2307              		.loc 1 966 0
 2308 0004 044B     		ldr	r3, .L346
 2309 0006 8633     		add	r3, r3, #134
 2310 0008 1B88     		ldrh	r3, [r3]
 2311 000a 0380     		strh	r3, [r0]
 967:.\20648_driver\drivers/inv_mems_mpu_fifo_control.c **** 	return INV_SUCCESS;
 2312              		.loc 1 967 0
 2313 000c 0020     		mov	r0, #0
 2314              	.LVL233:
 2315 000e 01E0     		b	.L344
 2316              	.LVL234:
 2317              	.L345:
 965:.\20648_driver\drivers/inv_mems_mpu_fifo_control.c **** 	if(!flip_pickup) return -1;
 2318              		.loc 1 965 0
 2319 0010 0120     		mov	r0, #1
 2320              	.LVL235:
 2321 0012 4042     		neg	r0, r0
 2322              	.L344:
 968:.\20648_driver\drivers/inv_mems_mpu_fifo_control.c **** }
 2323              		.loc 1 968 0
 2324              		@ sp needed
 2325 0014 7047     		bx	lr
 2326              	.L347:
 2327 0016 C046     		.align	2
 2328              	.L346:
 2329 0018 00000000 		.word	fd
 2330              		.cfi_endproc
 2331              	.LFE30:
 2332              		.size	dmp_get_flip_pickup_state, .-dmp_get_flip_pickup_state
 2333              		.section	.text.inv_get_accel_accuracy,"ax",%progbits
 2334              		.align	1
 2335              		.global	inv_get_accel_accuracy
 2336              		.code	16
 2337              		.thumb_func
 2338              		.type	inv_get_accel_accuracy, %function
 2339              	inv_get_accel_accuracy:
 2340              	.LFB31:
 969:.\20648_driver\drivers/inv_mems_mpu_fifo_control.c **** 
 970:.\20648_driver\drivers/inv_mems_mpu_fifo_control.c **** /** Returns accuracy of accel.
 971:.\20648_driver\drivers/inv_mems_mpu_fifo_control.c ****  * @return Accuracy of accel with 0 being not accurate, and 3 being most accurate.
 972:.\20648_driver\drivers/inv_mems_mpu_fifo_control.c **** */
 973:.\20648_driver\drivers/inv_mems_mpu_fifo_control.c **** int inv_get_accel_accuracy(void)
ARM GAS  C:\Users\ADMINI~1\AppData\Local\Temp\ccRFd3Cg.s 			page 63


 974:.\20648_driver\drivers/inv_mems_mpu_fifo_control.c **** {
 2341              		.loc 1 974 0
 2342              		.cfi_startproc
 975:.\20648_driver\drivers/inv_mems_mpu_fifo_control.c **** 	return fd.accel_accuracy;
 2343              		.loc 1 975 0
 2344 0000 024B     		ldr	r3, .L349
 976:.\20648_driver\drivers/inv_mems_mpu_fifo_control.c **** }
 2345              		.loc 1 976 0
 2346              		@ sp needed
 975:.\20648_driver\drivers/inv_mems_mpu_fifo_control.c **** 	return fd.accel_accuracy;
 2347              		.loc 1 975 0
 2348 0002 7A33     		add	r3, r3, #122
 2349 0004 0020     		mov	r0, #0
 2350 0006 185E     		ldrsh	r0, [r3, r0]
 2351              		.loc 1 976 0
 2352 0008 7047     		bx	lr
 2353              	.L350:
 2354 000a C046     		.align	2
 2355              	.L349:
 2356 000c 00000000 		.word	fd
 2357              		.cfi_endproc
 2358              	.LFE31:
 2359              		.size	inv_get_accel_accuracy, .-inv_get_accel_accuracy
 2360              		.section	.text.inv_get_gyro_accuracy,"ax",%progbits
 2361              		.align	1
 2362              		.global	inv_get_gyro_accuracy
 2363              		.code	16
 2364              		.thumb_func
 2365              		.type	inv_get_gyro_accuracy, %function
 2366              	inv_get_gyro_accuracy:
 2367              	.LFB32:
 977:.\20648_driver\drivers/inv_mems_mpu_fifo_control.c **** 
 978:.\20648_driver\drivers/inv_mems_mpu_fifo_control.c **** /** Returns accuracy of gyro.
 979:.\20648_driver\drivers/inv_mems_mpu_fifo_control.c ****  * @return Accuracy of gyro with 0 being not accurate, and 3 being most accurate.
 980:.\20648_driver\drivers/inv_mems_mpu_fifo_control.c **** */
 981:.\20648_driver\drivers/inv_mems_mpu_fifo_control.c **** int inv_get_gyro_accuracy(void)
 982:.\20648_driver\drivers/inv_mems_mpu_fifo_control.c **** {
 2368              		.loc 1 982 0
 2369              		.cfi_startproc
 983:.\20648_driver\drivers/inv_mems_mpu_fifo_control.c **** 	return fd.gyro_accuracy;
 2370              		.loc 1 983 0
 2371 0000 024B     		ldr	r3, .L352
 984:.\20648_driver\drivers/inv_mems_mpu_fifo_control.c **** }
 2372              		.loc 1 984 0
 2373              		@ sp needed
 983:.\20648_driver\drivers/inv_mems_mpu_fifo_control.c **** 	return fd.gyro_accuracy;
 2374              		.loc 1 983 0
 2375 0002 7C33     		add	r3, r3, #124
 2376 0004 0020     		mov	r0, #0
 2377 0006 185E     		ldrsh	r0, [r3, r0]
 2378              		.loc 1 984 0
 2379 0008 7047     		bx	lr
 2380              	.L353:
 2381 000a C046     		.align	2
 2382              	.L352:
 2383 000c 00000000 		.word	fd
 2384              		.cfi_endproc
ARM GAS  C:\Users\ADMINI~1\AppData\Local\Temp\ccRFd3Cg.s 			page 64


 2385              	.LFE32:
 2386              		.size	inv_get_gyro_accuracy, .-inv_get_gyro_accuracy
 2387              		.section	.text.inv_get_mag_accuracy,"ax",%progbits
 2388              		.align	1
 2389              		.global	inv_get_mag_accuracy
 2390              		.code	16
 2391              		.thumb_func
 2392              		.type	inv_get_mag_accuracy, %function
 2393              	inv_get_mag_accuracy:
 2394              	.LFB33:
 985:.\20648_driver\drivers/inv_mems_mpu_fifo_control.c **** 
 986:.\20648_driver\drivers/inv_mems_mpu_fifo_control.c **** /** Returns accuracy of compass.
 987:.\20648_driver\drivers/inv_mems_mpu_fifo_control.c ****  * @return Accuracy of compass with 0 being not accurate, and 3 being most accurate.
 988:.\20648_driver\drivers/inv_mems_mpu_fifo_control.c **** */
 989:.\20648_driver\drivers/inv_mems_mpu_fifo_control.c **** int inv_get_mag_accuracy(void)
 990:.\20648_driver\drivers/inv_mems_mpu_fifo_control.c **** {
 2395              		.loc 1 990 0
 2396              		.cfi_startproc
 991:.\20648_driver\drivers/inv_mems_mpu_fifo_control.c **** 	return fd.cpass_accuracy;
 2397              		.loc 1 991 0
 2398 0000 024B     		ldr	r3, .L355
 992:.\20648_driver\drivers/inv_mems_mpu_fifo_control.c **** }
 2399              		.loc 1 992 0
 2400              		@ sp needed
 991:.\20648_driver\drivers/inv_mems_mpu_fifo_control.c **** 	return fd.cpass_accuracy;
 2401              		.loc 1 991 0
 2402 0002 7E33     		add	r3, r3, #126
 2403 0004 0020     		mov	r0, #0
 2404 0006 185E     		ldrsh	r0, [r3, r0]
 2405              		.loc 1 992 0
 2406 0008 7047     		bx	lr
 2407              	.L356:
 2408 000a C046     		.align	2
 2409              	.L355:
 2410 000c 00000000 		.word	fd
 2411              		.cfi_endproc
 2412              	.LFE33:
 2413              		.size	inv_get_mag_accuracy, .-inv_get_mag_accuracy
 2414              		.section	.text.inv_get_gmrv_accuracy,"ax",%progbits
 2415              		.align	1
 2416              		.global	inv_get_gmrv_accuracy
 2417              		.code	16
 2418              		.thumb_func
 2419              		.type	inv_get_gmrv_accuracy, %function
 2420              	inv_get_gmrv_accuracy:
 2421              	.LFB34:
 993:.\20648_driver\drivers/inv_mems_mpu_fifo_control.c **** 
 994:.\20648_driver\drivers/inv_mems_mpu_fifo_control.c **** #if (MEMS_CHIP == HW_ICM20648)
 995:.\20648_driver\drivers/inv_mems_mpu_fifo_control.c **** /** Returns accuracy of geomagnetic rotation vector.
 996:.\20648_driver\drivers/inv_mems_mpu_fifo_control.c ****  * @return Accuracy of GMRV in Q29.
 997:.\20648_driver\drivers/inv_mems_mpu_fifo_control.c **** */
 998:.\20648_driver\drivers/inv_mems_mpu_fifo_control.c **** int inv_get_gmrv_accuracy(void)
 999:.\20648_driver\drivers/inv_mems_mpu_fifo_control.c **** {
 2422              		.loc 1 999 0
 2423              		.cfi_startproc
1000:.\20648_driver\drivers/inv_mems_mpu_fifo_control.c **** 	return fd.dmp_geomag_accuracyQ29;
 2424              		.loc 1 1000 0
ARM GAS  C:\Users\ADMINI~1\AppData\Local\Temp\ccRFd3Cg.s 			page 65


 2425 0000 014B     		ldr	r3, .L358
1001:.\20648_driver\drivers/inv_mems_mpu_fifo_control.c **** }
 2426              		.loc 1 1001 0
 2427              		@ sp needed
1000:.\20648_driver\drivers/inv_mems_mpu_fifo_control.c **** 	return fd.dmp_geomag_accuracyQ29;
 2428              		.loc 1 1000 0
 2429 0002 986A     		ldr	r0, [r3, #40]
 2430              		.loc 1 1001 0
 2431 0004 7047     		bx	lr
 2432              	.L359:
 2433 0006 C046     		.align	2
 2434              	.L358:
 2435 0008 00000000 		.word	fd
 2436              		.cfi_endproc
 2437              	.LFE34:
 2438              		.size	inv_get_gmrv_accuracy, .-inv_get_gmrv_accuracy
 2439              		.section	.text.inv_get_rv_accuracy,"ax",%progbits
 2440              		.align	1
 2441              		.global	inv_get_rv_accuracy
 2442              		.code	16
 2443              		.thumb_func
 2444              		.type	inv_get_rv_accuracy, %function
 2445              	inv_get_rv_accuracy:
 2446              	.LFB35:
1002:.\20648_driver\drivers/inv_mems_mpu_fifo_control.c **** #endif
1003:.\20648_driver\drivers/inv_mems_mpu_fifo_control.c **** 
1004:.\20648_driver\drivers/inv_mems_mpu_fifo_control.c **** #if (MEMS_CHIP == HW_ICM20630 || MEMS_CHIP == HW_ICM20648)
1005:.\20648_driver\drivers/inv_mems_mpu_fifo_control.c **** /** Returns accuracy of rotation vector.
1006:.\20648_driver\drivers/inv_mems_mpu_fifo_control.c ****  * @return Accuracy of RV in Q29.
1007:.\20648_driver\drivers/inv_mems_mpu_fifo_control.c **** */
1008:.\20648_driver\drivers/inv_mems_mpu_fifo_control.c **** int inv_get_rv_accuracy(void)
1009:.\20648_driver\drivers/inv_mems_mpu_fifo_control.c **** {
 2447              		.loc 1 1009 0
 2448              		.cfi_startproc
1010:.\20648_driver\drivers/inv_mems_mpu_fifo_control.c **** 	return fd.dmp_rv_accuracyQ29;
 2449              		.loc 1 1010 0
 2450 0000 014B     		ldr	r3, .L361
1011:.\20648_driver\drivers/inv_mems_mpu_fifo_control.c **** }
 2451              		.loc 1 1011 0
 2452              		@ sp needed
1010:.\20648_driver\drivers/inv_mems_mpu_fifo_control.c **** 	return fd.dmp_rv_accuracyQ29;
 2453              		.loc 1 1010 0
 2454 0002 9869     		ldr	r0, [r3, #24]
 2455              		.loc 1 1011 0
 2456 0004 7047     		bx	lr
 2457              	.L362:
 2458 0006 C046     		.align	2
 2459              	.L361:
 2460 0008 00000000 		.word	fd
 2461              		.cfi_endproc
 2462              	.LFE35:
 2463              		.size	inv_get_rv_accuracy, .-inv_get_rv_accuracy
 2464              		.comm	fd,164,4
 2465              		.bss
 2466              		.align	2
 2467              		.set	.LANCHOR0,. + 0
 2468              		.type	fifo_info, %object
ARM GAS  C:\Users\ADMINI~1\AppData\Local\Temp\ccRFd3Cg.s 			page 66


 2469              		.size	fifo_info, 8
 2470              	fifo_info:
 2471 0000 00000000 		.space	8
 2471      00000000 
 2472              		.type	fifo_data, %object
 2473              		.size	fifo_data, 1024
 2474              	fifo_data:
 2475 0008 00000000 		.space	1024
 2475      00000000 
 2475      00000000 
 2475      00000000 
 2475      00000000 
 2476              		.text
 2477              	.Letext0:
 2478              		.file 2 "c:\\program files (x86)\\cypress\\psoc creator\\3.3\\psoc creator\\import\\gnu\\arm\\4.9.
 2479              		.file 3 "c:\\program files (x86)\\cypress\\psoc creator\\3.3\\psoc creator\\import\\gnu\\arm\\4.9.
 2480              		.file 4 "c:\\program files (x86)\\cypress\\psoc creator\\3.3\\psoc creator\\import\\gnu\\arm\\4.9.
 2481              		.file 5 "./.\\20648_driver\\common\\mltypes.h"
 2482              		.file 6 "./.\\20648_driver\\invn\\invn_types.h"
 2483              		.file 7 "./.\\20648_driver\\drivers\\inv_mems_mpu_fifo_control.h"
 2484              		.file 8 "./.\\20648_driver\\drivers\\inv_mems_base_driver.h"
 2485              		.file 9 "./.\\20648_driver\\drivers\\inv_mems_transport.h"
 2486              		.file 10 "c:\\program files (x86)\\cypress\\psoc creator\\3.3\\psoc creator\\import\\gnu\\arm\\4.9
 2487              		.file 11 "./.\\20648_driver\\drivers\\inv_mems_defines.h"
 2488              		.file 12 "./.\\20648_driver\\common\\inv_mems_drv_hook.h"
 2489              		.section	.debug_info,"",%progbits
 2490              	.Ldebug_info0:
 2491 0000 9F130000 		.4byte	0x139f
 2492 0004 0400     		.2byte	0x4
 2493 0006 00000000 		.4byte	.Ldebug_abbrev0
 2494 000a 04       		.byte	0x4
 2495 000b 01       		.uleb128 0x1
 2496 000c D7040000 		.4byte	.LASF193
 2497 0010 01       		.byte	0x1
 2498 0011 830C0000 		.4byte	.LASF194
 2499 0015 360D0000 		.4byte	.LASF195
 2500 0019 48000000 		.4byte	.Ldebug_ranges0+0x48
 2501 001d 00000000 		.4byte	0
 2502 0021 00000000 		.4byte	.Ldebug_line0
 2503 0025 02       		.uleb128 0x2
 2504 0026 04       		.byte	0x4
 2505 0027 05       		.byte	0x5
 2506 0028 696E7400 		.ascii	"int\000"
 2507 002c 03       		.uleb128 0x3
 2508 002d F0050000 		.4byte	.LASF2
 2509 0031 02       		.byte	0x2
 2510 0032 D4       		.byte	0xd4
 2511 0033 37000000 		.4byte	0x37
 2512 0037 04       		.uleb128 0x4
 2513 0038 04       		.byte	0x4
 2514 0039 07       		.byte	0x7
 2515 003a E7000000 		.4byte	.LASF0
 2516 003e 04       		.uleb128 0x4
 2517 003f 01       		.byte	0x1
 2518 0040 06       		.byte	0x6
 2519 0041 240E0000 		.4byte	.LASF1
 2520 0045 03       		.uleb128 0x3
ARM GAS  C:\Users\ADMINI~1\AppData\Local\Temp\ccRFd3Cg.s 			page 67


 2521 0046 3E0B0000 		.4byte	.LASF3
 2522 004a 03       		.byte	0x3
 2523 004b 1D       		.byte	0x1d
 2524 004c 50000000 		.4byte	0x50
 2525 0050 04       		.uleb128 0x4
 2526 0051 01       		.byte	0x1
 2527 0052 08       		.byte	0x8
 2528 0053 550C0000 		.4byte	.LASF4
 2529 0057 04       		.uleb128 0x4
 2530 0058 02       		.byte	0x2
 2531 0059 05       		.byte	0x5
 2532 005a 1A0A0000 		.4byte	.LASF5
 2533 005e 03       		.uleb128 0x3
 2534 005f 7A040000 		.4byte	.LASF6
 2535 0063 03       		.byte	0x3
 2536 0064 2B       		.byte	0x2b
 2537 0065 69000000 		.4byte	0x69
 2538 0069 04       		.uleb128 0x4
 2539 006a 02       		.byte	0x2
 2540 006b 07       		.byte	0x7
 2541 006c 300E0000 		.4byte	.LASF7
 2542 0070 04       		.uleb128 0x4
 2543 0071 04       		.byte	0x4
 2544 0072 05       		.byte	0x5
 2545 0073 640A0000 		.4byte	.LASF8
 2546 0077 04       		.uleb128 0x4
 2547 0078 04       		.byte	0x4
 2548 0079 07       		.byte	0x7
 2549 007a B00B0000 		.4byte	.LASF9
 2550 007e 04       		.uleb128 0x4
 2551 007f 08       		.byte	0x8
 2552 0080 05       		.byte	0x5
 2553 0081 FF070000 		.4byte	.LASF10
 2554 0085 04       		.uleb128 0x4
 2555 0086 08       		.byte	0x8
 2556 0087 07       		.byte	0x7
 2557 0088 08040000 		.4byte	.LASF11
 2558 008c 04       		.uleb128 0x4
 2559 008d 04       		.byte	0x4
 2560 008e 07       		.byte	0x7
 2561 008f A70B0000 		.4byte	.LASF12
 2562 0093 05       		.uleb128 0x5
 2563 0094 04       		.byte	0x4
 2564 0095 06       		.uleb128 0x6
 2565 0096 04       		.byte	0x4
 2566 0097 50000000 		.4byte	0x50
 2567 009b 04       		.uleb128 0x4
 2568 009c 01       		.byte	0x1
 2569 009d 08       		.byte	0x8
 2570 009e EE060000 		.4byte	.LASF13
 2571 00a2 06       		.uleb128 0x6
 2572 00a3 04       		.byte	0x4
 2573 00a4 A8000000 		.4byte	0xa8
 2574 00a8 07       		.uleb128 0x7
 2575 00a9 03       		.uleb128 0x3
 2576 00aa 6E070000 		.4byte	.LASF14
 2577 00ae 04       		.byte	0x4
ARM GAS  C:\Users\ADMINI~1\AppData\Local\Temp\ccRFd3Cg.s 			page 68


 2578 00af 15       		.byte	0x15
 2579 00b0 45000000 		.4byte	0x45
 2580 00b4 03       		.uleb128 0x3
 2581 00b5 AC090000 		.4byte	.LASF15
 2582 00b9 04       		.byte	0x4
 2583 00ba 21       		.byte	0x21
 2584 00bb 5E000000 		.4byte	0x5e
 2585 00bf 03       		.uleb128 0x3
 2586 00c0 00000000 		.4byte	.LASF16
 2587 00c4 04       		.byte	0x4
 2588 00c5 55       		.byte	0x55
 2589 00c6 37000000 		.4byte	0x37
 2590 00ca 08       		.uleb128 0x8
 2591 00cb E0050000 		.4byte	.LASF196
 2592 00cf 01       		.byte	0x1
 2593 00d0 0B       		.byte	0xb
 2594 00d1 9202     		.2byte	0x292
 2595 00d3 04020000 		.4byte	0x204
 2596 00d7 09       		.uleb128 0x9
 2597 00d8 2E010000 		.4byte	.LASF17
 2598 00dc 00       		.sleb128 0
 2599 00dd 09       		.uleb128 0x9
 2600 00de E60A0000 		.4byte	.LASF18
 2601 00e2 01       		.sleb128 1
 2602 00e3 09       		.uleb128 0x9
 2603 00e4 1D090000 		.4byte	.LASF19
 2604 00e8 02       		.sleb128 2
 2605 00e9 09       		.uleb128 0x9
 2606 00ea 6C060000 		.4byte	.LASF20
 2607 00ee 03       		.sleb128 3
 2608 00ef 09       		.uleb128 0x9
 2609 00f0 090F0000 		.4byte	.LASF21
 2610 00f4 04       		.sleb128 4
 2611 00f5 09       		.uleb128 0x9
 2612 00f6 E7030000 		.4byte	.LASF22
 2613 00fa 05       		.sleb128 5
 2614 00fb 09       		.uleb128 0x9
 2615 00fc AD060000 		.4byte	.LASF23
 2616 0100 06       		.sleb128 6
 2617 0101 09       		.uleb128 0x9
 2618 0102 51060000 		.4byte	.LASF24
 2619 0106 07       		.sleb128 7
 2620 0107 09       		.uleb128 0x9
 2621 0108 C7030000 		.4byte	.LASF25
 2622 010c 08       		.sleb128 8
 2623 010d 09       		.uleb128 0x9
 2624 010e B0080000 		.4byte	.LASF26
 2625 0112 09       		.sleb128 9
 2626 0113 09       		.uleb128 0x9
 2627 0114 E60E0000 		.4byte	.LASF27
 2628 0118 0A       		.sleb128 10
 2629 0119 09       		.uleb128 0x9
 2630 011a C70E0000 		.4byte	.LASF28
 2631 011e 0B       		.sleb128 11
 2632 011f 09       		.uleb128 0x9
 2633 0120 73020000 		.4byte	.LASF29
 2634 0124 0C       		.sleb128 12
ARM GAS  C:\Users\ADMINI~1\AppData\Local\Temp\ccRFd3Cg.s 			page 69


 2635 0125 09       		.uleb128 0x9
 2636 0126 010E0000 		.4byte	.LASF30
 2637 012a 0D       		.sleb128 13
 2638 012b 09       		.uleb128 0x9
 2639 012c 0E000000 		.4byte	.LASF31
 2640 0130 0E       		.sleb128 14
 2641 0131 09       		.uleb128 0x9
 2642 0132 B3040000 		.4byte	.LASF32
 2643 0136 0F       		.sleb128 15
 2644 0137 09       		.uleb128 0x9
 2645 0138 25030000 		.4byte	.LASF33
 2646 013c 10       		.sleb128 16
 2647 013d 09       		.uleb128 0x9
 2648 013e 240A0000 		.4byte	.LASF34
 2649 0142 11       		.sleb128 17
 2650 0143 09       		.uleb128 0x9
 2651 0144 080D0000 		.4byte	.LASF35
 2652 0148 12       		.sleb128 18
 2653 0149 09       		.uleb128 0x9
 2654 014a E8090000 		.4byte	.LASF36
 2655 014e 13       		.sleb128 19
 2656 014f 09       		.uleb128 0x9
 2657 0150 AC0A0000 		.4byte	.LASF37
 2658 0154 14       		.sleb128 20
 2659 0155 09       		.uleb128 0x9
 2660 0156 6A010000 		.4byte	.LASF38
 2661 015a 15       		.sleb128 21
 2662 015b 09       		.uleb128 0x9
 2663 015c 430E0000 		.4byte	.LASF39
 2664 0160 16       		.sleb128 22
 2665 0161 09       		.uleb128 0x9
 2666 0162 C8020000 		.4byte	.LASF40
 2667 0166 17       		.sleb128 23
 2668 0167 09       		.uleb128 0x9
 2669 0168 370F0000 		.4byte	.LASF41
 2670 016c 18       		.sleb128 24
 2671 016d 09       		.uleb128 0x9
 2672 016e FD060000 		.4byte	.LASF42
 2673 0172 19       		.sleb128 25
 2674 0173 09       		.uleb128 0x9
 2675 0174 93040000 		.4byte	.LASF43
 2676 0178 1A       		.sleb128 26
 2677 0179 09       		.uleb128 0x9
 2678 017a 40020000 		.4byte	.LASF44
 2679 017e 1B       		.sleb128 27
 2680 017f 09       		.uleb128 0x9
 2681 0180 43000000 		.4byte	.LASF45
 2682 0184 1C       		.sleb128 28
 2683 0185 09       		.uleb128 0x9
 2684 0186 57080000 		.4byte	.LASF46
 2685 018a 1D       		.sleb128 29
 2686 018b 09       		.uleb128 0x9
 2687 018c 6D0A0000 		.4byte	.LASF47
 2688 0190 1E       		.sleb128 30
 2689 0191 09       		.uleb128 0x9
 2690 0192 14060000 		.4byte	.LASF48
 2691 0196 1F       		.sleb128 31
ARM GAS  C:\Users\ADMINI~1\AppData\Local\Temp\ccRFd3Cg.s 			page 70


 2692 0197 09       		.uleb128 0x9
 2693 0198 FD020000 		.4byte	.LASF49
 2694 019c 20       		.sleb128 32
 2695 019d 09       		.uleb128 0x9
 2696 019e 2D080000 		.4byte	.LASF50
 2697 01a2 21       		.sleb128 33
 2698 01a3 09       		.uleb128 0x9
 2699 01a4 A2070000 		.4byte	.LASF51
 2700 01a8 22       		.sleb128 34
 2701 01a9 09       		.uleb128 0x9
 2702 01aa 43070000 		.4byte	.LASF52
 2703 01ae 23       		.sleb128 35
 2704 01af 09       		.uleb128 0x9
 2705 01b0 E9080000 		.4byte	.LASF53
 2706 01b4 24       		.sleb128 36
 2707 01b5 09       		.uleb128 0x9
 2708 01b6 76070000 		.4byte	.LASF54
 2709 01ba 25       		.sleb128 37
 2710 01bb 09       		.uleb128 0x9
 2711 01bc 3C040000 		.4byte	.LASF55
 2712 01c0 26       		.sleb128 38
 2713 01c1 09       		.uleb128 0x9
 2714 01c2 05020000 		.4byte	.LASF56
 2715 01c6 27       		.sleb128 39
 2716 01c7 09       		.uleb128 0x9
 2717 01c8 C7090000 		.4byte	.LASF57
 2718 01cc 28       		.sleb128 40
 2719 01cd 09       		.uleb128 0x9
 2720 01ce E40C0000 		.4byte	.LASF58
 2721 01d2 29       		.sleb128 41
 2722 01d3 09       		.uleb128 0x9
 2723 01d4 4D0A0000 		.4byte	.LASF59
 2724 01d8 2A       		.sleb128 42
 2725 01d9 09       		.uleb128 0x9
 2726 01da C7080000 		.4byte	.LASF60
 2727 01de 2B       		.sleb128 43
 2728 01df 09       		.uleb128 0x9
 2729 01e0 9B030000 		.4byte	.LASF61
 2730 01e4 2C       		.sleb128 44
 2731 01e5 09       		.uleb128 0x9
 2732 01e6 87060000 		.4byte	.LASF62
 2733 01ea 2D       		.sleb128 45
 2734 01eb 09       		.uleb128 0x9
 2735 01ec 84000000 		.4byte	.LASF63
 2736 01f0 2E       		.sleb128 46
 2737 01f1 09       		.uleb128 0x9
 2738 01f2 2D0F0000 		.4byte	.LASF64
 2739 01f6 2F       		.sleb128 47
 2740 01f7 09       		.uleb128 0x9
 2741 01f8 300C0000 		.4byte	.LASF65
 2742 01fc 30       		.sleb128 48
 2743 01fd 09       		.uleb128 0x9
 2744 01fe 0B010000 		.4byte	.LASF66
 2745 0202 31       		.sleb128 49
 2746 0203 00       		.byte	0
 2747 0204 03       		.uleb128 0x3
 2748 0205 FC030000 		.4byte	.LASF67
ARM GAS  C:\Users\ADMINI~1\AppData\Local\Temp\ccRFd3Cg.s 			page 71


 2749 0209 05       		.byte	0x5
 2750 020a 24       		.byte	0x24
 2751 020b 25000000 		.4byte	0x25
 2752 020f 03       		.uleb128 0x3
 2753 0210 54090000 		.4byte	.LASF68
 2754 0214 06       		.byte	0x6
 2755 0215 2F       		.byte	0x2f
 2756 0216 7E000000 		.4byte	0x7e
 2757 021a 0A       		.uleb128 0xa
 2758 021b 2B0B0000 		.4byte	.LASF98
 2759 021f A4       		.byte	0xa4
 2760 0220 07       		.byte	0x7
 2761 0221 18       		.byte	0x18
 2762 0222 5F030000 		.4byte	0x35f
 2763 0226 0B       		.uleb128 0xb
 2764 0227 CD0C0000 		.4byte	.LASF69
 2765 022b 07       		.byte	0x7
 2766 022c 1A       		.byte	0x1a
 2767 022d 5F030000 		.4byte	0x35f
 2768 0231 00       		.byte	0
 2769 0232 0B       		.uleb128 0xb
 2770 0233 360C0000 		.4byte	.LASF70
 2771 0237 07       		.byte	0x7
 2772 0238 1B       		.byte	0x1b
 2773 0239 5F030000 		.4byte	0x35f
 2774 023d 0C       		.byte	0xc
 2775 023e 0B       		.uleb128 0xb
 2776 023f 830E0000 		.4byte	.LASF71
 2777 0243 07       		.byte	0x7
 2778 0244 1D       		.byte	0x1d
 2779 0245 25000000 		.4byte	0x25
 2780 0249 18       		.byte	0x18
 2781 024a 0B       		.uleb128 0xb
 2782 024b E1010000 		.4byte	.LASF72
 2783 024f 07       		.byte	0x7
 2784 0250 20       		.byte	0x20
 2785 0251 5F030000 		.4byte	0x35f
 2786 0255 1C       		.byte	0x1c
 2787 0256 0B       		.uleb128 0xb
 2788 0257 1F070000 		.4byte	.LASF73
 2789 025b 07       		.byte	0x7
 2790 025c 21       		.byte	0x21
 2791 025d 25000000 		.4byte	0x25
 2792 0261 28       		.byte	0x28
 2793 0262 0B       		.uleb128 0xb
 2794 0263 9A070000 		.4byte	.LASF74
 2795 0267 07       		.byte	0x7
 2796 0268 23       		.byte	0x23
 2797 0269 6F030000 		.4byte	0x36f
 2798 026d 2C       		.byte	0x2c
 2799 026e 0B       		.uleb128 0xb
 2800 026f 5F040000 		.4byte	.LASF75
 2801 0273 07       		.byte	0x7
 2802 0274 24       		.byte	0x24
 2803 0275 5F030000 		.4byte	0x35f
 2804 0279 34       		.byte	0x34
 2805 027a 0B       		.uleb128 0xb
ARM GAS  C:\Users\ADMINI~1\AppData\Local\Temp\ccRFd3Cg.s 			page 72


 2806 027b AB080000 		.4byte	.LASF76
 2807 027f 07       		.byte	0x7
 2808 0280 25       		.byte	0x25
 2809 0281 6F030000 		.4byte	0x36f
 2810 0285 40       		.byte	0x40
 2811 0286 0B       		.uleb128 0xb
 2812 0287 4B0C0000 		.4byte	.LASF77
 2813 028b 07       		.byte	0x7
 2814 028c 27       		.byte	0x27
 2815 028d 6F030000 		.4byte	0x36f
 2816 0291 46       		.byte	0x46
 2817 0292 0B       		.uleb128 0xb
 2818 0293 6E040000 		.4byte	.LASF78
 2819 0297 07       		.byte	0x7
 2820 0298 2B       		.byte	0x2b
 2821 0299 5F030000 		.4byte	0x35f
 2822 029d 4C       		.byte	0x4c
 2823 029e 0B       		.uleb128 0xb
 2824 029f BF090000 		.4byte	.LASF79
 2825 02a3 07       		.byte	0x7
 2826 02a4 2C       		.byte	0x2c
 2827 02a5 5F030000 		.4byte	0x35f
 2828 02a9 58       		.byte	0x58
 2829 02aa 0B       		.uleb128 0xb
 2830 02ab 910D0000 		.4byte	.LASF80
 2831 02af 07       		.byte	0x7
 2832 02b0 2D       		.byte	0x2d
 2833 02b1 5F030000 		.4byte	0x35f
 2834 02b5 64       		.byte	0x64
 2835 02b6 0B       		.uleb128 0xb
 2836 02b7 5C020000 		.4byte	.LASF81
 2837 02bb 07       		.byte	0x7
 2838 02bc 2E       		.byte	0x2e
 2839 02bd 70000000 		.4byte	0x70
 2840 02c1 70       		.byte	0x70
 2841 02c2 0B       		.uleb128 0xb
 2842 02c3 84010000 		.4byte	.LASF82
 2843 02c7 07       		.byte	0x7
 2844 02c8 2F       		.byte	0x2f
 2845 02c9 6F030000 		.4byte	0x36f
 2846 02cd 74       		.byte	0x74
 2847 02ce 0B       		.uleb128 0xb
 2848 02cf 1F010000 		.4byte	.LASF83
 2849 02d3 07       		.byte	0x7
 2850 02d4 30       		.byte	0x30
 2851 02d5 57000000 		.4byte	0x57
 2852 02d9 7A       		.byte	0x7a
 2853 02da 0B       		.uleb128 0xb
 2854 02db 650E0000 		.4byte	.LASF84
 2855 02df 07       		.byte	0x7
 2856 02e0 31       		.byte	0x31
 2857 02e1 57000000 		.4byte	0x57
 2858 02e5 7C       		.byte	0x7c
 2859 02e6 0B       		.uleb128 0xb
 2860 02e7 0D080000 		.4byte	.LASF85
 2861 02eb 07       		.byte	0x7
 2862 02ec 32       		.byte	0x32
ARM GAS  C:\Users\ADMINI~1\AppData\Local\Temp\ccRFd3Cg.s 			page 73


 2863 02ed 57000000 		.4byte	0x57
 2864 02f1 7E       		.byte	0x7e
 2865 02f2 0B       		.uleb128 0xb
 2866 02f3 1C080000 		.4byte	.LASF86
 2867 02f7 07       		.byte	0x7
 2868 02f8 39       		.byte	0x39
 2869 02f9 70000000 		.4byte	0x70
 2870 02fd 80       		.byte	0x80
 2871 02fe 0B       		.uleb128 0xb
 2872 02ff A6010000 		.4byte	.LASF87
 2873 0303 07       		.byte	0x7
 2874 0304 3A       		.byte	0x3a
 2875 0305 69000000 		.4byte	0x69
 2876 0309 84       		.byte	0x84
 2877 030a 0B       		.uleb128 0xb
 2878 030b DB000000 		.4byte	.LASF88
 2879 030f 07       		.byte	0x7
 2880 0310 3B       		.byte	0x3b
 2881 0311 57000000 		.4byte	0x57
 2882 0315 86       		.byte	0x86
 2883 0316 0B       		.uleb128 0xb
 2884 0317 86030000 		.4byte	.LASF89
 2885 031b 07       		.byte	0x7
 2886 031c 3C       		.byte	0x3c
 2887 031d 7F030000 		.4byte	0x37f
 2888 0321 88       		.byte	0x88
 2889 0322 0B       		.uleb128 0xb
 2890 0323 C4010000 		.4byte	.LASF90
 2891 0327 07       		.byte	0x7
 2892 0328 3D       		.byte	0x3d
 2893 0329 8F030000 		.4byte	0x38f
 2894 032d 94       		.byte	0x94
 2895 032e 0B       		.uleb128 0xb
 2896 032f 16090000 		.4byte	.LASF91
 2897 0333 07       		.byte	0x7
 2898 0334 3E       		.byte	0x3e
 2899 0335 69000000 		.4byte	0x69
 2900 0339 9A       		.byte	0x9a
 2901 033a 0B       		.uleb128 0xb
 2902 033b 62010000 		.4byte	.LASF92
 2903 033f 07       		.byte	0x7
 2904 0340 3F       		.byte	0x3f
 2905 0341 69000000 		.4byte	0x69
 2906 0345 9C       		.byte	0x9c
 2907 0346 0B       		.uleb128 0xb
 2908 0347 0D060000 		.4byte	.LASF93
 2909 034b 07       		.byte	0x7
 2910 034c 40       		.byte	0x40
 2911 034d 69000000 		.4byte	0x69
 2912 0351 9E       		.byte	0x9e
 2913 0352 0B       		.uleb128 0xb
 2914 0353 7A080000 		.4byte	.LASF94
 2915 0357 07       		.byte	0x7
 2916 0358 41       		.byte	0x41
 2917 0359 25000000 		.4byte	0x25
 2918 035d A0       		.byte	0xa0
 2919 035e 00       		.byte	0
ARM GAS  C:\Users\ADMINI~1\AppData\Local\Temp\ccRFd3Cg.s 			page 74


 2920 035f 0C       		.uleb128 0xc
 2921 0360 70000000 		.4byte	0x70
 2922 0364 6F030000 		.4byte	0x36f
 2923 0368 0D       		.uleb128 0xd
 2924 0369 8C000000 		.4byte	0x8c
 2925 036d 02       		.byte	0x2
 2926 036e 00       		.byte	0
 2927 036f 0C       		.uleb128 0xc
 2928 0370 57000000 		.4byte	0x57
 2929 0374 7F030000 		.4byte	0x37f
 2930 0378 0D       		.uleb128 0xd
 2931 0379 8C000000 		.4byte	0x8c
 2932 037d 02       		.byte	0x2
 2933 037e 00       		.byte	0
 2934 037f 0C       		.uleb128 0xc
 2935 0380 50000000 		.4byte	0x50
 2936 0384 8F030000 		.4byte	0x38f
 2937 0388 0D       		.uleb128 0xd
 2938 0389 8C000000 		.4byte	0x8c
 2939 038d 0B       		.byte	0xb
 2940 038e 00       		.byte	0
 2941 038f 0C       		.uleb128 0xc
 2942 0390 50000000 		.4byte	0x50
 2943 0394 9F030000 		.4byte	0x39f
 2944 0398 0D       		.uleb128 0xd
 2945 0399 8C000000 		.4byte	0x8c
 2946 039d 05       		.byte	0x5
 2947 039e 00       		.byte	0
 2948 039f 04       		.uleb128 0x4
 2949 03a0 08       		.byte	0x8
 2950 03a1 04       		.byte	0x4
 2951 03a2 960E0000 		.4byte	.LASF95
 2952 03a6 04       		.uleb128 0x4
 2953 03a7 04       		.byte	0x4
 2954 03a8 04       		.byte	0x4
 2955 03a9 4B030000 		.4byte	.LASF96
 2956 03ad 04       		.uleb128 0x4
 2957 03ae 08       		.byte	0x8
 2958 03af 04       		.byte	0x4
 2959 03b0 A0090000 		.4byte	.LASF97
 2960 03b4 0A       		.uleb128 0xa
 2961 03b5 85040000 		.4byte	.LASF99
 2962 03b9 12       		.byte	0x12
 2963 03ba 08       		.byte	0x8
 2964 03bb 1D       		.byte	0x1d
 2965 03bc 7B040000 		.4byte	0x47b
 2966 03c0 0B       		.uleb128 0xb
 2967 03c1 220F0000 		.4byte	.LASF100
 2968 03c5 08       		.byte	0x8
 2969 03c6 1F       		.byte	0x1f
 2970 03c7 50000000 		.4byte	0x50
 2971 03cb 00       		.byte	0
 2972 03cc 0B       		.uleb128 0xb
 2973 03cd 3E090000 		.4byte	.LASF101
 2974 03d1 08       		.byte	0x8
 2975 03d2 20       		.byte	0x20
 2976 03d3 50000000 		.4byte	0x50
ARM GAS  C:\Users\ADMINI~1\AppData\Local\Temp\ccRFd3Cg.s 			page 75


 2977 03d7 01       		.byte	0x1
 2978 03d8 0B       		.uleb128 0xb
 2979 03d9 49090000 		.4byte	.LASF102
 2980 03dd 08       		.byte	0x8
 2981 03de 21       		.byte	0x21
 2982 03df 50000000 		.4byte	0x50
 2983 03e3 02       		.byte	0x2
 2984 03e4 0B       		.uleb128 0xb
 2985 03e5 03060000 		.4byte	.LASF103
 2986 03e9 08       		.byte	0x8
 2987 03ea 22       		.byte	0x22
 2988 03eb 50000000 		.4byte	0x50
 2989 03ef 03       		.byte	0x3
 2990 03f0 0B       		.uleb128 0xb
 2991 03f1 D8010000 		.4byte	.LASF104
 2992 03f5 08       		.byte	0x8
 2993 03f6 23       		.byte	0x23
 2994 03f7 50000000 		.4byte	0x50
 2995 03fb 04       		.byte	0x4
 2996 03fc 0B       		.uleb128 0xb
 2997 03fd F4000000 		.4byte	.LASF105
 2998 0401 08       		.byte	0x8
 2999 0402 24       		.byte	0x24
 3000 0403 69000000 		.4byte	0x69
 3001 0407 06       		.byte	0x6
 3002 0408 0B       		.uleb128 0xb
 3003 0409 39000000 		.4byte	.LASF106
 3004 040d 08       		.byte	0x8
 3005 040e 25       		.byte	0x25
 3006 040f 57000000 		.4byte	0x57
 3007 0413 08       		.byte	0x8
 3008 0414 0B       		.uleb128 0xb
 3009 0415 A0020000 		.4byte	.LASF107
 3010 0419 08       		.byte	0x8
 3011 041a 26       		.byte	0x26
 3012 041b 50000000 		.4byte	0x50
 3013 041f 0A       		.byte	0xa
 3014 0420 0B       		.uleb128 0xb
 3015 0421 99050000 		.4byte	.LASF108
 3016 0425 08       		.byte	0x8
 3017 0426 27       		.byte	0x27
 3018 0427 50000000 		.4byte	0x50
 3019 042b 0B       		.byte	0xb
 3020 042c 0B       		.uleb128 0xb
 3021 042d DA080000 		.4byte	.LASF109
 3022 0431 08       		.byte	0x8
 3023 0432 28       		.byte	0x28
 3024 0433 A9000000 		.4byte	0xa9
 3025 0437 0C       		.byte	0xc
 3026 0438 0B       		.uleb128 0xb
 3027 0439 730E0000 		.4byte	.LASF110
 3028 043d 08       		.byte	0x8
 3029 043e 29       		.byte	0x29
 3030 043f A9000000 		.4byte	0xa9
 3031 0443 0D       		.byte	0xd
 3032 0444 0E       		.uleb128 0xe
 3033 0445 970A0000 		.4byte	.LASF111
ARM GAS  C:\Users\ADMINI~1\AppData\Local\Temp\ccRFd3Cg.s 			page 76


 3034 0449 08       		.byte	0x8
 3035 044a 2A       		.byte	0x2a
 3036 044b A9000000 		.4byte	0xa9
 3037 044f 01       		.byte	0x1
 3038 0450 01       		.byte	0x1
 3039 0451 07       		.byte	0x7
 3040 0452 0E       		.byte	0xe
 3041 0453 0E       		.uleb128 0xe
 3042 0454 9D0E0000 		.4byte	.LASF112
 3043 0458 08       		.byte	0x8
 3044 0459 2B       		.byte	0x2b
 3045 045a A9000000 		.4byte	0xa9
 3046 045e 01       		.byte	0x1
 3047 045f 01       		.byte	0x1
 3048 0460 06       		.byte	0x6
 3049 0461 0E       		.byte	0xe
 3050 0462 0B       		.uleb128 0xb
 3051 0463 6F050000 		.4byte	.LASF113
 3052 0467 08       		.byte	0x8
 3053 0468 2C       		.byte	0x2c
 3054 0469 A9000000 		.4byte	0xa9
 3055 046d 0F       		.byte	0xf
 3056 046e 0B       		.uleb128 0xb
 3057 046f D10B0000 		.4byte	.LASF114
 3058 0473 08       		.byte	0x8
 3059 0474 2D       		.byte	0x2d
 3060 0475 A9000000 		.4byte	0xa9
 3061 0479 10       		.byte	0x10
 3062 047a 00       		.byte	0
 3063 047b 0A       		.uleb128 0xa
 3064 047c 62000000 		.4byte	.LASF115
 3065 0480 08       		.byte	0x8
 3066 0481 01       		.byte	0x1
 3067 0482 22       		.byte	0x22
 3068 0483 A0040000 		.4byte	0x4a0
 3069 0487 0B       		.uleb128 0xb
 3070 0488 DA0C0000 		.4byte	.LASF116
 3071 048c 01       		.byte	0x1
 3072 048d 24       		.byte	0x24
 3073 048e 04020000 		.4byte	0x204
 3074 0492 00       		.byte	0
 3075 0493 0B       		.uleb128 0xb
 3076 0494 B0010000 		.4byte	.LASF117
 3077 0498 01       		.byte	0x1
 3078 0499 25       		.byte	0x25
 3079 049a 50000000 		.4byte	0x50
 3080 049e 04       		.byte	0x4
 3081 049f 00       		.byte	0
 3082 04a0 0F       		.uleb128 0xf
 3083 04a1 630B0000 		.4byte	.LASF188
 3084 04a5 01       		.byte	0x1
 3085 04a6 60       		.byte	0x60
 3086 04a7 04020000 		.4byte	0x204
 3087 04ab 01       		.byte	0x1
 3088 04ac D2040000 		.4byte	0x4d2
 3089 04b0 10       		.uleb128 0x10
 3090 04b1 6C656E00 		.ascii	"len\000"
ARM GAS  C:\Users\ADMINI~1\AppData\Local\Temp\ccRFd3Cg.s 			page 77


 3091 04b5 01       		.byte	0x1
 3092 04b6 60       		.byte	0x60
 3093 04b7 D2040000 		.4byte	0x4d2
 3094 04bb 11       		.uleb128 0x11
 3095 04bc E6060000 		.4byte	.LASF118
 3096 04c0 01       		.byte	0x1
 3097 04c1 62       		.byte	0x62
 3098 04c2 D8040000 		.4byte	0x4d8
 3099 04c6 11       		.uleb128 0x11
 3100 04c7 6C020000 		.4byte	.LASF119
 3101 04cb 01       		.byte	0x1
 3102 04cc 63       		.byte	0x63
 3103 04cd 04020000 		.4byte	0x204
 3104 04d1 00       		.byte	0
 3105 04d2 06       		.uleb128 0x6
 3106 04d3 04       		.byte	0x4
 3107 04d4 BF000000 		.4byte	0xbf
 3108 04d8 0C       		.uleb128 0xc
 3109 04d9 50000000 		.4byte	0x50
 3110 04dd E8040000 		.4byte	0x4e8
 3111 04e1 0D       		.uleb128 0xd
 3112 04e2 8C000000 		.4byte	0x8c
 3113 04e6 01       		.byte	0x1
 3114 04e7 00       		.byte	0
 3115 04e8 12       		.uleb128 0x12
 3116 04e9 9E0D0000 		.4byte	.LASF140
 3117 04ed 01       		.byte	0x1
 3118 04ee CF       		.byte	0xcf
 3119 04ef BF000000 		.4byte	0xbf
 3120 04f3 01       		.byte	0x1
 3121 04f4 30050000 		.4byte	0x530
 3122 04f8 13       		.uleb128 0x13
 3123 04f9 A50A0000 		.4byte	.LASF120
 3124 04fd 01       		.byte	0x1
 3125 04fe CF       		.byte	0xcf
 3126 04ff BF000000 		.4byte	0xbf
 3127 0503 13       		.uleb128 0x13
 3128 0504 BA000000 		.4byte	.LASF121
 3129 0508 01       		.byte	0x1
 3130 0509 CF       		.byte	0xcf
 3131 050a 95000000 		.4byte	0x95
 3132 050e 13       		.uleb128 0x13
 3133 050f 120B0000 		.4byte	.LASF122
 3134 0513 01       		.byte	0x1
 3135 0514 CF       		.byte	0xcf
 3136 0515 30050000 		.4byte	0x530
 3137 0519 11       		.uleb128 0x11
 3138 051a 6C020000 		.4byte	.LASF119
 3139 051e 01       		.byte	0x1
 3140 051f D1       		.byte	0xd1
 3141 0520 04020000 		.4byte	0x204
 3142 0524 11       		.uleb128 0x11
 3143 0525 430C0000 		.4byte	.LASF123
 3144 0529 01       		.byte	0x1
 3145 052a D2       		.byte	0xd2
 3146 052b BF000000 		.4byte	0xbf
 3147 052f 00       		.byte	0
ARM GAS  C:\Users\ADMINI~1\AppData\Local\Temp\ccRFd3Cg.s 			page 78


 3148 0530 06       		.uleb128 0x6
 3149 0531 04       		.byte	0x4
 3150 0532 25000000 		.4byte	0x25
 3151 0536 14       		.uleb128 0x14
 3152 0537 D4070000 		.4byte	.LASF126
 3153 053b 01       		.byte	0x1
 3154 053c F5       		.byte	0xf5
 3155 053d BF000000 		.4byte	0xbf
 3156 0541 00000000 		.4byte	.LFB10
 3157 0545 2C010000 		.4byte	.LFE10-.LFB10
 3158 0549 01       		.uleb128 0x1
 3159 054a 9C       		.byte	0x9c
 3160 054b 9A050000 		.4byte	0x59a
 3161 054f 15       		.uleb128 0x15
 3162 0550 36070000 		.4byte	.LASF124
 3163 0554 01       		.byte	0x1
 3164 0555 F5       		.byte	0xf5
 3165 0556 95000000 		.4byte	0x95
 3166 055a 00000000 		.4byte	.LLST0
 3167 055e 15       		.uleb128 0x15
 3168 055f 16090000 		.4byte	.LASF91
 3169 0563 01       		.byte	0x1
 3170 0564 F5       		.byte	0xf5
 3171 0565 9A050000 		.4byte	0x59a
 3172 0569 3A000000 		.4byte	.LLST1
 3173 056d 15       		.uleb128 0x15
 3174 056e 62010000 		.4byte	.LASF92
 3175 0572 01       		.byte	0x1
 3176 0573 F5       		.byte	0xf5
 3177 0574 9A050000 		.4byte	0x59a
 3178 0578 5B000000 		.4byte	.LLST2
 3179 057c 15       		.uleb128 0x15
 3180 057d CF050000 		.4byte	.LASF125
 3181 0581 01       		.byte	0x1
 3182 0582 F5       		.byte	0xf5
 3183 0583 9A050000 		.4byte	0x59a
 3184 0587 7C000000 		.4byte	.LLST3
 3185 058b 16       		.uleb128 0x16
 3186 058c 737A00   		.ascii	"sz\000"
 3187 058f 01       		.byte	0x1
 3188 0590 F7       		.byte	0xf7
 3189 0591 25000000 		.4byte	0x25
 3190 0595 AB000000 		.4byte	.LLST4
 3191 0599 00       		.byte	0
 3192 059a 06       		.uleb128 0x6
 3193 059b 04       		.byte	0x4
 3194 059c 69000000 		.4byte	0x69
 3195 05a0 17       		.uleb128 0x17
 3196 05a1 47010000 		.4byte	.LASF127
 3197 05a5 01       		.byte	0x1
 3198 05a6 8501     		.2byte	0x185
 3199 05a8 25000000 		.4byte	0x25
 3200 05ac 00000000 		.4byte	.LFB11
 3201 05b0 30000000 		.4byte	.LFE11-.LFB11
 3202 05b4 01       		.uleb128 0x1
 3203 05b5 9C       		.byte	0x9c
 3204 05b6 FB050000 		.4byte	0x5fb
ARM GAS  C:\Users\ADMINI~1\AppData\Local\Temp\ccRFd3Cg.s 			page 79


 3205 05ba 18       		.uleb128 0x18
 3206 05bb 16090000 		.4byte	.LASF91
 3207 05bf 01       		.byte	0x1
 3208 05c0 8501     		.2byte	0x185
 3209 05c2 69000000 		.4byte	0x69
 3210 05c6 06010000 		.4byte	.LLST5
 3211 05ca 18       		.uleb128 0x18
 3212 05cb 62010000 		.4byte	.LASF92
 3213 05cf 01       		.byte	0x1
 3214 05d0 8501     		.2byte	0x185
 3215 05d2 69000000 		.4byte	0x69
 3216 05d6 27010000 		.4byte	.LLST6
 3217 05da 19       		.uleb128 0x19
 3218 05db 83080000 		.4byte	.LASF128
 3219 05df 01       		.byte	0x1
 3220 05e0 8701     		.2byte	0x187
 3221 05e2 69000000 		.4byte	0x69
 3222 05e6 61010000 		.4byte	.LLST7
 3223 05ea 19       		.uleb128 0x19
 3224 05eb 8F090000 		.4byte	.LASF129
 3225 05ef 01       		.byte	0x1
 3226 05f0 8801     		.2byte	0x188
 3227 05f2 69000000 		.4byte	0x69
 3228 05f6 82010000 		.4byte	.LLST8
 3229 05fa 00       		.byte	0
 3230 05fb 1A       		.uleb128 0x1a
 3231 05fc A0040000 		.4byte	0x4a0
 3232 0600 00000000 		.4byte	.LFB36
 3233 0604 30000000 		.4byte	.LFE36-.LFB36
 3234 0608 01       		.uleb128 0x1
 3235 0609 9C       		.byte	0x9c
 3236 060a 42060000 		.4byte	0x642
 3237 060e 1B       		.uleb128 0x1b
 3238 060f B0040000 		.4byte	0x4b0
 3239 0613 A4010000 		.4byte	.LLST9
 3240 0617 1C       		.uleb128 0x1c
 3241 0618 BB040000 		.4byte	0x4bb
 3242 061c 02       		.uleb128 0x2
 3243 061d 91       		.byte	0x91
 3244 061e 6C       		.sleb128 -20
 3245 061f 1C       		.uleb128 0x1c
 3246 0620 C6040000 		.4byte	0x4c6
 3247 0624 01       		.uleb128 0x1
 3248 0625 50       		.byte	0x50
 3249 0626 1D       		.uleb128 0x1d
 3250 0627 10000000 		.4byte	.LVL37
 3251 062b 03130000 		.4byte	0x1303
 3252 062f 1E       		.uleb128 0x1e
 3253 0630 01       		.uleb128 0x1
 3254 0631 52       		.byte	0x52
 3255 0632 02       		.uleb128 0x2
 3256 0633 75       		.byte	0x75
 3257 0634 00       		.sleb128 0
 3258 0635 1E       		.uleb128 0x1e
 3259 0636 01       		.uleb128 0x1
 3260 0637 51       		.byte	0x51
 3261 0638 01       		.uleb128 0x1
ARM GAS  C:\Users\ADMINI~1\AppData\Local\Temp\ccRFd3Cg.s 			page 80


 3262 0639 32       		.byte	0x32
 3263 063a 1E       		.uleb128 0x1e
 3264 063b 01       		.uleb128 0x1
 3265 063c 50       		.byte	0x50
 3266 063d 02       		.uleb128 0x2
 3267 063e 08       		.byte	0x8
 3268 063f 70       		.byte	0x70
 3269 0640 00       		.byte	0
 3270 0641 00       		.byte	0
 3271 0642 1F       		.uleb128 0x1f
 3272 0643 AF020000 		.4byte	.LASF131
 3273 0647 01       		.byte	0x1
 3274 0648 29       		.byte	0x29
 3275 0649 04020000 		.4byte	0x204
 3276 064d 00000000 		.4byte	.LFB4
 3277 0651 2C000000 		.4byte	.LFE4-.LFB4
 3278 0655 01       		.uleb128 0x1
 3279 0656 9C       		.byte	0x9c
 3280 0657 C2060000 		.4byte	0x6c2
 3281 065b 15       		.uleb128 0x15
 3282 065c 93050000 		.4byte	.LASF130
 3283 0660 01       		.byte	0x1
 3284 0661 29       		.byte	0x29
 3285 0662 50000000 		.4byte	0x50
 3286 0666 D0010000 		.4byte	.LLST10
 3287 066a 20       		.uleb128 0x20
 3288 066b 6C020000 		.4byte	.LASF119
 3289 066f 01       		.byte	0x1
 3290 0670 2B       		.byte	0x2b
 3291 0671 04020000 		.4byte	0x204
 3292 0675 F1010000 		.4byte	.LLST11
 3293 0679 21       		.uleb128 0x21
 3294 067a 72656700 		.ascii	"reg\000"
 3295 067e 01       		.byte	0x1
 3296 067f 2C       		.byte	0x2c
 3297 0680 50000000 		.4byte	0x50
 3298 0684 02       		.uleb128 0x2
 3299 0685 91       		.byte	0x91
 3300 0686 6F       		.sleb128 -17
 3301 0687 22       		.uleb128 0x22
 3302 0688 12000000 		.4byte	.LVL41
 3303 068c 03130000 		.4byte	0x1303
 3304 0690 A6060000 		.4byte	0x6a6
 3305 0694 1E       		.uleb128 0x1e
 3306 0695 01       		.uleb128 0x1
 3307 0696 52       		.byte	0x52
 3308 0697 02       		.uleb128 0x2
 3309 0698 74       		.byte	0x74
 3310 0699 00       		.sleb128 0
 3311 069a 1E       		.uleb128 0x1e
 3312 069b 01       		.uleb128 0x1
 3313 069c 51       		.byte	0x51
 3314 069d 01       		.uleb128 0x1
 3315 069e 31       		.byte	0x31
 3316 069f 1E       		.uleb128 0x1e
 3317 06a0 01       		.uleb128 0x1
 3318 06a1 50       		.byte	0x50
ARM GAS  C:\Users\ADMINI~1\AppData\Local\Temp\ccRFd3Cg.s 			page 81


 3319 06a2 02       		.uleb128 0x2
 3320 06a3 08       		.byte	0x8
 3321 06a4 68       		.byte	0x68
 3322 06a5 00       		.byte	0
 3323 06a6 1D       		.uleb128 0x1d
 3324 06a7 28000000 		.4byte	.LVL44
 3325 06ab 22130000 		.4byte	0x1322
 3326 06af 1E       		.uleb128 0x1e
 3327 06b0 01       		.uleb128 0x1
 3328 06b1 52       		.byte	0x52
 3329 06b2 02       		.uleb128 0x2
 3330 06b3 74       		.byte	0x74
 3331 06b4 00       		.sleb128 0
 3332 06b5 1E       		.uleb128 0x1e
 3333 06b6 01       		.uleb128 0x1
 3334 06b7 51       		.byte	0x51
 3335 06b8 01       		.uleb128 0x1
 3336 06b9 31       		.byte	0x31
 3337 06ba 1E       		.uleb128 0x1e
 3338 06bb 01       		.uleb128 0x1
 3339 06bc 50       		.byte	0x50
 3340 06bd 02       		.uleb128 0x2
 3341 06be 08       		.byte	0x8
 3342 06bf 68       		.byte	0x68
 3343 06c0 00       		.byte	0
 3344 06c1 00       		.byte	0
 3345 06c2 1F       		.uleb128 0x1f
 3346 06c3 3A060000 		.4byte	.LASF132
 3347 06c7 01       		.byte	0x1
 3348 06c8 38       		.byte	0x38
 3349 06c9 04020000 		.4byte	0x204
 3350 06cd 00000000 		.4byte	.LFB5
 3351 06d1 3A000000 		.4byte	.LFE5-.LFB5
 3352 06d5 01       		.uleb128 0x1
 3353 06d6 9C       		.byte	0x9c
 3354 06d7 40070000 		.4byte	0x740
 3355 06db 15       		.uleb128 0x15
 3356 06dc 37020000 		.4byte	.LASF133
 3357 06e0 01       		.byte	0x1
 3358 06e1 38       		.byte	0x38
 3359 06e2 40070000 		.4byte	0x740
 3360 06e6 36020000 		.4byte	.LLST12
 3361 06ea 23       		.uleb128 0x23
 3362 06eb DB060000 		.4byte	.LASF134
 3363 06ef 01       		.byte	0x1
 3364 06f0 3A       		.byte	0x3a
 3365 06f1 50000000 		.4byte	0x50
 3366 06f5 02       		.uleb128 0x2
 3367 06f6 91       		.byte	0x91
 3368 06f7 6F       		.sleb128 -17
 3369 06f8 20       		.uleb128 0x20
 3370 06f9 6C020000 		.4byte	.LASF119
 3371 06fd 01       		.byte	0x1
 3372 06fe 3B       		.byte	0x3b
 3373 06ff 04020000 		.4byte	0x204
 3374 0703 62020000 		.4byte	.LLST13
 3375 0707 22       		.uleb128 0x22
ARM GAS  C:\Users\ADMINI~1\AppData\Local\Temp\ccRFd3Cg.s 			page 82


 3376 0708 18000000 		.4byte	.LVL48
 3377 070c 03130000 		.4byte	0x1303
 3378 0710 25070000 		.4byte	0x725
 3379 0714 1E       		.uleb128 0x1e
 3380 0715 01       		.uleb128 0x1
 3381 0716 52       		.byte	0x52
 3382 0717 02       		.uleb128 0x2
 3383 0718 75       		.byte	0x75
 3384 0719 00       		.sleb128 0
 3385 071a 1E       		.uleb128 0x1e
 3386 071b 01       		.uleb128 0x1
 3387 071c 51       		.byte	0x51
 3388 071d 01       		.uleb128 0x1
 3389 071e 31       		.byte	0x31
 3390 071f 1E       		.uleb128 0x1e
 3391 0720 01       		.uleb128 0x1
 3392 0721 50       		.byte	0x50
 3393 0722 01       		.uleb128 0x1
 3394 0723 49       		.byte	0x49
 3395 0724 00       		.byte	0
 3396 0725 1D       		.uleb128 0x1d
 3397 0726 2A000000 		.4byte	.LVL49
 3398 072a 03130000 		.4byte	0x1303
 3399 072e 1E       		.uleb128 0x1e
 3400 072f 01       		.uleb128 0x1
 3401 0730 52       		.byte	0x52
 3402 0731 02       		.uleb128 0x2
 3403 0732 75       		.byte	0x75
 3404 0733 00       		.sleb128 0
 3405 0734 1E       		.uleb128 0x1e
 3406 0735 01       		.uleb128 0x1
 3407 0736 51       		.byte	0x51
 3408 0737 01       		.uleb128 0x1
 3409 0738 31       		.byte	0x31
 3410 0739 1E       		.uleb128 0x1e
 3411 073a 01       		.uleb128 0x1
 3412 073b 50       		.byte	0x50
 3413 073c 01       		.uleb128 0x1
 3414 073d 48       		.byte	0x48
 3415 073e 00       		.byte	0
 3416 073f 00       		.byte	0
 3417 0740 06       		.uleb128 0x6
 3418 0741 04       		.byte	0x4
 3419 0742 57000000 		.4byte	0x57
 3420 0746 1A       		.uleb128 0x1a
 3421 0747 A0040000 		.4byte	0x4a0
 3422 074b 00000000 		.4byte	.LFB6
 3423 074f 12000000 		.4byte	.LFE6-.LFB6
 3424 0753 01       		.uleb128 0x1
 3425 0754 9C       		.byte	0x9c
 3426 0755 7F070000 		.4byte	0x77f
 3427 0759 1B       		.uleb128 0x1b
 3428 075a B0040000 		.4byte	0x4b0
 3429 075e 81020000 		.4byte	.LLST14
 3430 0762 24       		.uleb128 0x24
 3431 0763 BB040000 		.4byte	0x4bb
 3432 0767 25       		.uleb128 0x25
ARM GAS  C:\Users\ADMINI~1\AppData\Local\Temp\ccRFd3Cg.s 			page 83


 3433 0768 C6040000 		.4byte	0x4c6
 3434 076c 00       		.byte	0
 3435 076d 1D       		.uleb128 0x1d
 3436 076e 10000000 		.4byte	.LVL53
 3437 0772 FB050000 		.4byte	0x5fb
 3438 0776 1E       		.uleb128 0x1e
 3439 0777 01       		.uleb128 0x1
 3440 0778 50       		.byte	0x50
 3441 0779 03       		.uleb128 0x3
 3442 077a F3       		.byte	0xf3
 3443 077b 01       		.uleb128 0x1
 3444 077c 50       		.byte	0x50
 3445 077d 00       		.byte	0
 3446 077e 00       		.byte	0
 3447 077f 1F       		.uleb128 0x1f
 3448 0780 D70A0000 		.4byte	.LASF135
 3449 0784 01       		.byte	0x1
 3450 0785 7F       		.byte	0x7f
 3451 0786 04020000 		.4byte	0x204
 3452 078a 00000000 		.4byte	.LFB7
 3453 078e 64000000 		.4byte	.LFE7-.LFB7
 3454 0792 01       		.uleb128 0x1
 3455 0793 9C       		.byte	0x9c
 3456 0794 4E080000 		.4byte	0x84e
 3457 0798 21       		.uleb128 0x21
 3458 0799 6C656E00 		.ascii	"len\000"
 3459 079d 01       		.byte	0x1
 3460 079e 81       		.byte	0x81
 3461 079f BF000000 		.4byte	0xbf
 3462 07a3 02       		.uleb128 0x2
 3463 07a4 91       		.byte	0x91
 3464 07a5 6C       		.sleb128 -20
 3465 07a6 20       		.uleb128 0x20
 3466 07a7 A5080000 		.4byte	.LASF136
 3467 07ab 01       		.byte	0x1
 3468 07ac 82       		.byte	0x82
 3469 07ad 50000000 		.4byte	0x50
 3470 07b1 AD020000 		.4byte	.LLST15
 3471 07b5 20       		.uleb128 0x20
 3472 07b6 6C020000 		.4byte	.LASF119
 3473 07ba 01       		.byte	0x1
 3474 07bb 83       		.byte	0x83
 3475 07bc 04020000 		.4byte	0x204
 3476 07c0 D3020000 		.4byte	.LLST16
 3477 07c4 26       		.uleb128 0x26
 3478 07c5 A0040000 		.4byte	0x4a0
 3479 07c9 3E000000 		.4byte	.LBB4
 3480 07cd 00000000 		.4byte	.Ldebug_ranges0+0
 3481 07d1 01       		.byte	0x1
 3482 07d2 98       		.byte	0x98
 3483 07d3 05080000 		.4byte	0x805
 3484 07d7 1B       		.uleb128 0x1b
 3485 07d8 B0040000 		.4byte	0x4b0
 3486 07dc 14030000 		.4byte	.LLST17
 3487 07e0 27       		.uleb128 0x27
 3488 07e1 00000000 		.4byte	.Ldebug_ranges0+0
 3489 07e5 24       		.uleb128 0x24
ARM GAS  C:\Users\ADMINI~1\AppData\Local\Temp\ccRFd3Cg.s 			page 84


 3490 07e6 BB040000 		.4byte	0x4bb
 3491 07ea 28       		.uleb128 0x28
 3492 07eb C6040000 		.4byte	0x4c6
 3493 07ef 34030000 		.4byte	.LLST18
 3494 07f3 1D       		.uleb128 0x1d
 3495 07f4 46000000 		.4byte	.LVL65
 3496 07f8 FB050000 		.4byte	0x5fb
 3497 07fc 1E       		.uleb128 0x1e
 3498 07fd 01       		.uleb128 0x1
 3499 07fe 50       		.byte	0x50
 3500 07ff 02       		.uleb128 0x2
 3501 0800 91       		.byte	0x91
 3502 0801 6C       		.sleb128 -20
 3503 0802 00       		.byte	0
 3504 0803 00       		.byte	0
 3505 0804 00       		.byte	0
 3506 0805 22       		.uleb128 0x22
 3507 0806 28000000 		.4byte	.LVL57
 3508 080a 41130000 		.4byte	0x1341
 3509 080e 18080000 		.4byte	0x818
 3510 0812 1E       		.uleb128 0x1e
 3511 0813 01       		.uleb128 0x1
 3512 0814 50       		.byte	0x50
 3513 0815 01       		.uleb128 0x1
 3514 0816 33       		.byte	0x33
 3515 0817 00       		.byte	0
 3516 0818 22       		.uleb128 0x22
 3517 0819 30000000 		.4byte	.LVL60
 3518 081d 42060000 		.4byte	0x642
 3519 0821 2B080000 		.4byte	0x82b
 3520 0825 1E       		.uleb128 0x1e
 3521 0826 01       		.uleb128 0x1
 3522 0827 50       		.byte	0x50
 3523 0828 01       		.uleb128 0x1
 3524 0829 4F       		.byte	0x4f
 3525 082a 00       		.byte	0
 3526 082b 22       		.uleb128 0x22
 3527 082c 38000000 		.4byte	.LVL62
 3528 0830 42060000 		.4byte	0x642
 3529 0834 3E080000 		.4byte	0x83e
 3530 0838 1E       		.uleb128 0x1e
 3531 0839 01       		.uleb128 0x1
 3532 083a 50       		.byte	0x50
 3533 083b 01       		.uleb128 0x1
 3534 083c 4E       		.byte	0x4e
 3535 083d 00       		.byte	0
 3536 083e 1D       		.uleb128 0x1d
 3537 083f 58000000 		.4byte	.LVL68
 3538 0843 41130000 		.4byte	0x1341
 3539 0847 1E       		.uleb128 0x1e
 3540 0848 01       		.uleb128 0x1
 3541 0849 50       		.byte	0x50
 3542 084a 01       		.uleb128 0x1
 3543 084b 33       		.byte	0x33
 3544 084c 00       		.byte	0
 3545 084d 00       		.byte	0
 3546 084e 1F       		.uleb128 0x1f
ARM GAS  C:\Users\ADMINI~1\AppData\Local\Temp\ccRFd3Cg.s 			page 85


 3547 084f CD060000 		.4byte	.LASF137
 3548 0853 01       		.byte	0x1
 3549 0854 AF       		.byte	0xaf
 3550 0855 04020000 		.4byte	0x204
 3551 0859 00000000 		.4byte	.LFB8
 3552 085d 40000000 		.4byte	.LFE8-.LFB8
 3553 0861 01       		.uleb128 0x1
 3554 0862 9C       		.byte	0x9c
 3555 0863 EA080000 		.4byte	0x8ea
 3556 0867 15       		.uleb128 0x15
 3557 0868 36070000 		.4byte	.LASF124
 3558 086c 01       		.byte	0x1
 3559 086d AF       		.byte	0xaf
 3560 086e 95000000 		.4byte	0x95
 3561 0872 48030000 		.4byte	.LLST19
 3562 0876 29       		.uleb128 0x29
 3563 0877 6C656E00 		.ascii	"len\000"
 3564 087b 01       		.byte	0x1
 3565 087c AF       		.byte	0xaf
 3566 087d BF000000 		.4byte	0xbf
 3567 0881 67030000 		.4byte	.LLST20
 3568 0885 20       		.uleb128 0x20
 3569 0886 6C020000 		.4byte	.LASF119
 3570 088a 01       		.byte	0x1
 3571 088b B1       		.byte	0xb1
 3572 088c 04020000 		.4byte	0x204
 3573 0890 93030000 		.4byte	.LLST21
 3574 0894 20       		.uleb128 0x20
 3575 0895 B5090000 		.4byte	.LASF138
 3576 0899 01       		.byte	0x1
 3577 089a B2       		.byte	0xb2
 3578 089b BF000000 		.4byte	0xbf
 3579 089f D4030000 		.4byte	.LLST22
 3580 08a3 2A       		.uleb128 0x2a
 3581 08a4 0C000000 		.4byte	.LBB8
 3582 08a8 28000000 		.4byte	.LBE8-.LBB8
 3583 08ac 20       		.uleb128 0x20
 3584 08ad 2E0D0000 		.4byte	.LASF139
 3585 08b1 01       		.byte	0x1
 3586 08b2 B6       		.byte	0xb6
 3587 08b3 69000000 		.4byte	0x69
 3588 08b7 F3030000 		.4byte	.LLST23
 3589 08bb 22       		.uleb128 0x22
 3590 08bc 20000000 		.4byte	.LVL72
 3591 08c0 03130000 		.4byte	0x1303
 3592 08c4 DF080000 		.4byte	0x8df
 3593 08c8 1E       		.uleb128 0x1e
 3594 08c9 01       		.uleb128 0x1
 3595 08ca 52       		.byte	0x52
 3596 08cb 06       		.uleb128 0x6
 3597 08cc 91       		.byte	0x91
 3598 08cd 64       		.sleb128 -28
 3599 08ce 06       		.byte	0x6
 3600 08cf 74       		.byte	0x74
 3601 08d0 00       		.sleb128 0
 3602 08d1 22       		.byte	0x22
 3603 08d2 1E       		.uleb128 0x1e
ARM GAS  C:\Users\ADMINI~1\AppData\Local\Temp\ccRFd3Cg.s 			page 86


 3604 08d3 01       		.uleb128 0x1
 3605 08d4 51       		.byte	0x51
 3606 08d5 02       		.uleb128 0x2
 3607 08d6 75       		.byte	0x75
 3608 08d7 00       		.sleb128 0
 3609 08d8 1E       		.uleb128 0x1e
 3610 08d9 01       		.uleb128 0x1
 3611 08da 50       		.byte	0x50
 3612 08db 02       		.uleb128 0x2
 3613 08dc 08       		.byte	0x8
 3614 08dd 72       		.byte	0x72
 3615 08de 00       		.byte	0
 3616 08df 2B       		.uleb128 0x2b
 3617 08e0 28000000 		.4byte	.LVL74
 3618 08e4 7F070000 		.4byte	0x77f
 3619 08e8 00       		.byte	0
 3620 08e9 00       		.byte	0
 3621 08ea 1A       		.uleb128 0x1a
 3622 08eb E8040000 		.4byte	0x4e8
 3623 08ef 00000000 		.4byte	.LFB9
 3624 08f3 5C000000 		.4byte	.LFE9-.LFB9
 3625 08f7 01       		.uleb128 0x1
 3626 08f8 9C       		.byte	0x9c
 3627 08f9 C2090000 		.4byte	0x9c2
 3628 08fd 1B       		.uleb128 0x1b
 3629 08fe F8040000 		.4byte	0x4f8
 3630 0902 06040000 		.4byte	.LLST24
 3631 0906 1B       		.uleb128 0x1b
 3632 0907 03050000 		.4byte	0x503
 3633 090b 32040000 		.4byte	.LLST25
 3634 090f 1B       		.uleb128 0x1b
 3635 0910 0E050000 		.4byte	0x50e
 3636 0914 5E040000 		.4byte	.LLST26
 3637 0918 28       		.uleb128 0x28
 3638 0919 19050000 		.4byte	0x519
 3639 091d 8A040000 		.4byte	.LLST27
 3640 0921 1C       		.uleb128 0x1c
 3641 0922 24050000 		.4byte	0x524
 3642 0926 02       		.uleb128 0x2
 3643 0927 91       		.byte	0x91
 3644 0928 64       		.sleb128 -28
 3645 0929 2C       		.uleb128 0x2c
 3646 092a A0040000 		.4byte	0x4a0
 3647 092e 0E000000 		.4byte	.LBB13
 3648 0932 08000000 		.4byte	.LBE13-.LBB13
 3649 0936 01       		.byte	0x1
 3650 0937 D7       		.byte	0xd7
 3651 0938 6B090000 		.4byte	0x96b
 3652 093c 1B       		.uleb128 0x1b
 3653 093d B0040000 		.4byte	0x4b0
 3654 0941 9D040000 		.4byte	.LLST28
 3655 0945 2A       		.uleb128 0x2a
 3656 0946 0E000000 		.4byte	.LBB14
 3657 094a 08000000 		.4byte	.LBE14-.LBB14
 3658 094e 24       		.uleb128 0x24
 3659 094f BB040000 		.4byte	0x4bb
 3660 0953 25       		.uleb128 0x25
ARM GAS  C:\Users\ADMINI~1\AppData\Local\Temp\ccRFd3Cg.s 			page 87


 3661 0954 C6040000 		.4byte	0x4c6
 3662 0958 00       		.byte	0
 3663 0959 1D       		.uleb128 0x1d
 3664 095a 14000000 		.4byte	.LVL84
 3665 095e FB050000 		.4byte	0x5fb
 3666 0962 1E       		.uleb128 0x1e
 3667 0963 01       		.uleb128 0x1
 3668 0964 50       		.byte	0x50
 3669 0965 02       		.uleb128 0x2
 3670 0966 91       		.byte	0x91
 3671 0967 64       		.sleb128 -28
 3672 0968 00       		.byte	0
 3673 0969 00       		.byte	0
 3674 096a 00       		.byte	0
 3675 096b 2D       		.uleb128 0x2d
 3676 096c 2C000000 		.4byte	.LBB15
 3677 0970 14000000 		.4byte	.LBE15-.LBB15
 3678 0974 B1090000 		.4byte	0x9b1
 3679 0978 1B       		.uleb128 0x1b
 3680 0979 F8040000 		.4byte	0x4f8
 3681 097d CA040000 		.4byte	.LLST29
 3682 0981 1B       		.uleb128 0x1b
 3683 0982 03050000 		.4byte	0x503
 3684 0986 DD040000 		.4byte	.LLST30
 3685 098a 1B       		.uleb128 0x1b
 3686 098b 0E050000 		.4byte	0x50e
 3687 098f F0040000 		.4byte	.LLST31
 3688 0993 2A       		.uleb128 0x2a
 3689 0994 2C000000 		.4byte	.LBB16
 3690 0998 14000000 		.4byte	.LBE16-.LBB16
 3691 099c 24       		.uleb128 0x24
 3692 099d 19050000 		.4byte	0x519
 3693 09a1 24       		.uleb128 0x24
 3694 09a2 24050000 		.4byte	0x524
 3695 09a6 2B       		.uleb128 0x2b
 3696 09a7 30000000 		.4byte	.LVL86
 3697 09ab 7F070000 		.4byte	0x77f
 3698 09af 00       		.byte	0
 3699 09b0 00       		.byte	0
 3700 09b1 1D       		.uleb128 0x1d
 3701 09b2 46000000 		.4byte	.LVL88
 3702 09b6 4E080000 		.4byte	0x84e
 3703 09ba 1E       		.uleb128 0x1e
 3704 09bb 01       		.uleb128 0x1
 3705 09bc 50       		.byte	0x50
 3706 09bd 02       		.uleb128 0x2
 3707 09be 76       		.byte	0x76
 3708 09bf 00       		.sleb128 0
 3709 09c0 00       		.byte	0
 3710 09c1 00       		.byte	0
 3711 09c2 2E       		.uleb128 0x2e
 3712 09c3 80050000 		.4byte	.LASF141
 3713 09c7 01       		.byte	0x1
 3714 09c8 CF01     		.2byte	0x1cf
 3715 09ca 25000000 		.4byte	0x25
 3716 09ce 01       		.byte	0x1
 3717 09cf 320A0000 		.4byte	0xa32
ARM GAS  C:\Users\ADMINI~1\AppData\Local\Temp\ccRFd3Cg.s 			page 88


 3718 09d3 2F       		.uleb128 0x2f
 3719 09d4 23080000 		.4byte	.LASF142
 3720 09d8 01       		.byte	0x1
 3721 09d9 CF01     		.2byte	0x1cf
 3722 09db 25000000 		.4byte	0x25
 3723 09df 2F       		.uleb128 0x2f
 3724 09e0 B6030000 		.4byte	.LASF143
 3725 09e4 01       		.byte	0x1
 3726 09e5 CF01     		.2byte	0x1cf
 3727 09e7 9A050000 		.4byte	0x59a
 3728 09eb 2F       		.uleb128 0x2f
 3729 09ec CF050000 		.4byte	.LASF125
 3730 09f0 01       		.byte	0x1
 3731 09f1 CF01     		.2byte	0x1cf
 3732 09f3 9A050000 		.4byte	0x59a
 3733 09f7 30       		.uleb128 0x30
 3734 09f8 65040000 		.4byte	.LASF144
 3735 09fc 01       		.byte	0x1
 3736 09fd D201     		.2byte	0x1d2
 3737 09ff 25000000 		.4byte	0x25
 3738 0a03 31       		.uleb128 0x31
 3739 0a04 9A080000 		.4byte	.LASF197
 3740 0a08 01       		.byte	0x1
 3741 0a09 EA01     		.2byte	0x1ea
 3742 0a0b 32       		.uleb128 0x32
 3743 0a0c 30       		.uleb128 0x30
 3744 0a0d 16090000 		.4byte	.LASF91
 3745 0a11 01       		.byte	0x1
 3746 0a12 D501     		.2byte	0x1d5
 3747 0a14 69000000 		.4byte	0x69
 3748 0a18 30       		.uleb128 0x30
 3749 0a19 62010000 		.4byte	.LASF92
 3750 0a1d 01       		.byte	0x1
 3751 0a1e D601     		.2byte	0x1d6
 3752 0a20 69000000 		.4byte	0x69
 3753 0a24 30       		.uleb128 0x30
 3754 0a25 3B070000 		.4byte	.LASF145
 3755 0a29 01       		.byte	0x1
 3756 0a2a D701     		.2byte	0x1d7
 3757 0a2c 25000000 		.4byte	0x25
 3758 0a30 00       		.byte	0
 3759 0a31 00       		.byte	0
 3760 0a32 33       		.uleb128 0x33
 3761 0a33 FD0B0000 		.4byte	.LASF146
 3762 0a37 01       		.byte	0x1
 3763 0a38 F801     		.2byte	0x1f8
 3764 0a3a 04020000 		.4byte	0x204
 3765 0a3e 00000000 		.4byte	.LFB13
 3766 0a42 94000000 		.4byte	.LFE13-.LFB13
 3767 0a46 01       		.uleb128 0x1
 3768 0a47 9C       		.byte	0x9c
 3769 0a48 4A0B0000 		.4byte	0xb4a
 3770 0a4c 18       		.uleb128 0x18
 3771 0a4d F2070000 		.4byte	.LASF147
 3772 0a51 01       		.byte	0x1
 3773 0a52 F801     		.2byte	0x1f8
 3774 0a54 30050000 		.4byte	0x530
ARM GAS  C:\Users\ADMINI~1\AppData\Local\Temp\ccRFd3Cg.s 			page 89


 3775 0a58 03050000 		.4byte	.LLST32
 3776 0a5c 18       		.uleb128 0x18
 3777 0a5d B6030000 		.4byte	.LASF143
 3778 0a61 01       		.byte	0x1
 3779 0a62 F801     		.2byte	0x1f8
 3780 0a64 9A050000 		.4byte	0x59a
 3781 0a68 45050000 		.4byte	.LLST33
 3782 0a6c 18       		.uleb128 0x18
 3783 0a6d CF050000 		.4byte	.LASF125
 3784 0a71 01       		.byte	0x1
 3785 0a72 F801     		.2byte	0x1f8
 3786 0a74 9A050000 		.4byte	0x59a
 3787 0a78 87050000 		.4byte	.LLST34
 3788 0a7c 34       		.uleb128 0x34
 3789 0a7d 120B0000 		.4byte	.LASF122
 3790 0a81 01       		.byte	0x1
 3791 0a82 FA01     		.2byte	0x1fa
 3792 0a84 25000000 		.4byte	0x25
 3793 0a88 02       		.uleb128 0x2
 3794 0a89 91       		.byte	0x91
 3795 0a8a 64       		.sleb128 -28
 3796 0a8b 35       		.uleb128 0x35
 3797 0a8c BE010000 		.4byte	.LASF198
 3798 0a90 01       		.byte	0x1
 3799 0a91 0C02     		.2byte	0x20c
 3800 0a93 7A000000 		.4byte	.L181
 3801 0a97 36       		.uleb128 0x36
 3802 0a98 C2090000 		.4byte	0x9c2
 3803 0a9c 1A000000 		.4byte	.LBB20
 3804 0aa0 18000000 		.4byte	.Ldebug_ranges0+0x18
 3805 0aa4 01       		.byte	0x1
 3806 0aa5 0702     		.2byte	0x207
 3807 0aa7 390B0000 		.4byte	0xb39
 3808 0aab 1B       		.uleb128 0x1b
 3809 0aac EB090000 		.4byte	0x9eb
 3810 0ab0 A6050000 		.4byte	.LLST35
 3811 0ab4 1B       		.uleb128 0x1b
 3812 0ab5 DF090000 		.4byte	0x9df
 3813 0ab9 D2050000 		.4byte	.LLST36
 3814 0abd 1B       		.uleb128 0x1b
 3815 0abe D3090000 		.4byte	0x9d3
 3816 0ac2 FB050000 		.4byte	.LLST37
 3817 0ac6 27       		.uleb128 0x27
 3818 0ac7 18000000 		.4byte	.Ldebug_ranges0+0x18
 3819 0acb 28       		.uleb128 0x28
 3820 0acc F7090000 		.4byte	0x9f7
 3821 0ad0 26060000 		.4byte	.LLST38
 3822 0ad4 37       		.uleb128 0x37
 3823 0ad5 030A0000 		.4byte	0xa03
 3824 0ad9 27       		.uleb128 0x27
 3825 0ada 30000000 		.4byte	.Ldebug_ranges0+0x30
 3826 0ade 1C       		.uleb128 0x1c
 3827 0adf 0C0A0000 		.4byte	0xa0c
 3828 0ae3 02       		.uleb128 0x2
 3829 0ae4 91       		.byte	0x91
 3830 0ae5 60       		.sleb128 -32
 3831 0ae6 1C       		.uleb128 0x1c
ARM GAS  C:\Users\ADMINI~1\AppData\Local\Temp\ccRFd3Cg.s 			page 90


 3832 0ae7 180A0000 		.4byte	0xa18
 3833 0aeb 02       		.uleb128 0x2
 3834 0aec 91       		.byte	0x91
 3835 0aed 62       		.sleb128 -30
 3836 0aee 28       		.uleb128 0x28
 3837 0aef 240A0000 		.4byte	0xa24
 3838 0af3 50060000 		.4byte	.LLST39
 3839 0af7 22       		.uleb128 0x22
 3840 0af8 5E000000 		.4byte	.LVL104
 3841 0afc 36050000 		.4byte	0x536
 3842 0b00 240B0000 		.4byte	0xb24
 3843 0b04 1E       		.uleb128 0x1e
 3844 0b05 01       		.uleb128 0x1
 3845 0b06 53       		.byte	0x53
 3846 0b07 03       		.uleb128 0x3
 3847 0b08 91       		.byte	0x91
 3848 0b09 5C       		.sleb128 -36
 3849 0b0a 06       		.byte	0x6
 3850 0b0b 1E       		.uleb128 0x1e
 3851 0b0c 01       		.uleb128 0x1
 3852 0b0d 52       		.byte	0x52
 3853 0b0e 02       		.uleb128 0x2
 3854 0b0f 91       		.byte	0x91
 3855 0b10 62       		.sleb128 -30
 3856 0b11 1E       		.uleb128 0x1e
 3857 0b12 01       		.uleb128 0x1
 3858 0b13 51       		.byte	0x51
 3859 0b14 02       		.uleb128 0x2
 3860 0b15 91       		.byte	0x91
 3861 0b16 60       		.sleb128 -32
 3862 0b17 1E       		.uleb128 0x1e
 3863 0b18 01       		.uleb128 0x1
 3864 0b19 50       		.byte	0x50
 3865 0b1a 08       		.uleb128 0x8
 3866 0b1b 75       		.byte	0x75
 3867 0b1c 00       		.sleb128 0
 3868 0b1d 03       		.byte	0x3
 3869 0b1e 08000000 		.4byte	.LANCHOR0+8
 3870 0b22 22       		.byte	0x22
 3871 0b23 00       		.byte	0
 3872 0b24 2B       		.uleb128 0x2b
 3873 0b25 72000000 		.4byte	.LVL107
 3874 0b29 A0050000 		.4byte	0x5a0
 3875 0b2d 2B       		.uleb128 0x2b
 3876 0b2e 7A000000 		.4byte	.LVL108
 3877 0b32 7F070000 		.4byte	0x77f
 3878 0b36 00       		.byte	0
 3879 0b37 00       		.byte	0
 3880 0b38 00       		.byte	0
 3881 0b39 1D       		.uleb128 0x1d
 3882 0b3a 32000000 		.4byte	.LVL100
 3883 0b3e E8040000 		.4byte	0x4e8
 3884 0b42 1E       		.uleb128 0x1e
 3885 0b43 01       		.uleb128 0x1
 3886 0b44 52       		.byte	0x52
 3887 0b45 02       		.uleb128 0x2
 3888 0b46 91       		.byte	0x91
ARM GAS  C:\Users\ADMINI~1\AppData\Local\Temp\ccRFd3Cg.s 			page 91


 3889 0b47 64       		.sleb128 -28
 3890 0b48 00       		.byte	0
 3891 0b49 00       		.byte	0
 3892 0b4a 38       		.uleb128 0x38
 3893 0b4b 140C0000 		.4byte	.LASF150
 3894 0b4f 01       		.byte	0x1
 3895 0b50 7C02     		.2byte	0x27c
 3896 0b52 00000000 		.4byte	.LFB16
 3897 0b56 44000000 		.4byte	.LFE16-.LFB16
 3898 0b5a 01       		.uleb128 0x1
 3899 0b5b 9C       		.byte	0x9c
 3900 0b5c 7D0B0000 		.4byte	0xb7d
 3901 0b60 39       		.uleb128 0x39
 3902 0b61 6E000000 		.4byte	.LASF148
 3903 0b65 01       		.byte	0x1
 3904 0b66 7C02     		.2byte	0x27c
 3905 0b68 7D0B0000 		.4byte	0xb7d
 3906 0b6c 01       		.uleb128 0x1
 3907 0b6d 50       		.byte	0x50
 3908 0b6e 39       		.uleb128 0x39
 3909 0b6f C5060000 		.4byte	.LASF149
 3910 0b73 01       		.byte	0x1
 3911 0b74 7C02     		.2byte	0x27c
 3912 0b76 830B0000 		.4byte	0xb83
 3913 0b7a 01       		.uleb128 0x1
 3914 0b7b 51       		.byte	0x51
 3915 0b7c 00       		.byte	0
 3916 0b7d 06       		.uleb128 0x6
 3917 0b7e 04       		.byte	0x4
 3918 0b7f 70000000 		.4byte	0x70
 3919 0b83 06       		.uleb128 0x6
 3920 0b84 04       		.byte	0x4
 3921 0b85 890B0000 		.4byte	0xb89
 3922 0b89 3A       		.uleb128 0x3a
 3923 0b8a 50000000 		.4byte	0x50
 3924 0b8e 38       		.uleb128 0x38
 3925 0b8f 5F090000 		.4byte	.LASF151
 3926 0b93 01       		.byte	0x1
 3927 0b94 8302     		.2byte	0x283
 3928 0b96 00000000 		.4byte	.LFB17
 3929 0b9a 20000000 		.4byte	.LFE17-.LFB17
 3930 0b9e 01       		.uleb128 0x1
 3931 0b9f 9C       		.byte	0x9c
 3932 0ba0 C10B0000 		.4byte	0xbc1
 3933 0ba4 39       		.uleb128 0x39
 3934 0ba5 6E000000 		.4byte	.LASF148
 3935 0ba9 01       		.byte	0x1
 3936 0baa 8302     		.2byte	0x283
 3937 0bac 40070000 		.4byte	0x740
 3938 0bb0 01       		.uleb128 0x1
 3939 0bb1 50       		.byte	0x50
 3940 0bb2 39       		.uleb128 0x39
 3941 0bb3 C5060000 		.4byte	.LASF149
 3942 0bb7 01       		.byte	0x1
 3943 0bb8 8302     		.2byte	0x283
 3944 0bba 830B0000 		.4byte	0xb83
 3945 0bbe 01       		.uleb128 0x1
ARM GAS  C:\Users\ADMINI~1\AppData\Local\Temp\ccRFd3Cg.s 			page 92


 3946 0bbf 51       		.byte	0x51
 3947 0bc0 00       		.byte	0
 3948 0bc1 33       		.uleb128 0x33
 3949 0bc2 C80D0000 		.4byte	.LASF152
 3950 0bc6 01       		.byte	0x1
 3951 0bc7 8F02     		.2byte	0x28f
 3952 0bc9 25000000 		.4byte	0x25
 3953 0bcd 00000000 		.4byte	.LFB18
 3954 0bd1 84010000 		.4byte	.LFE18-.LFB18
 3955 0bd5 01       		.uleb128 0x1
 3956 0bd6 9C       		.byte	0x9c
 3957 0bd7 2B0D0000 		.4byte	0xd2b
 3958 0bdb 3B       		.uleb128 0x3b
 3959 0bdc 666400   		.ascii	"fd\000"
 3960 0bdf 01       		.byte	0x1
 3961 0be0 8F02     		.2byte	0x28f
 3962 0be2 2B0D0000 		.4byte	0xd2b
 3963 0be6 79060000 		.4byte	.LLST40
 3964 0bea 18       		.uleb128 0x18
 3965 0beb 02010000 		.4byte	.LASF153
 3966 0bef 01       		.byte	0x1
 3967 0bf0 8F02     		.2byte	0x28f
 3968 0bf2 830B0000 		.4byte	0xb83
 3969 0bf6 C1060000 		.4byte	.LLST41
 3970 0bfa 19       		.uleb128 0x19
 3971 0bfb 030B0000 		.4byte	.LASF154
 3972 0bff 01       		.byte	0x1
 3973 0c00 9102     		.2byte	0x291
 3974 0c02 830B0000 		.4byte	0xb83
 3975 0c06 27070000 		.4byte	.LLST42
 3976 0c0a 19       		.uleb128 0x19
 3977 0c0b 250D0000 		.4byte	.LASF155
 3978 0c0f 01       		.byte	0x1
 3979 0c10 9302     		.2byte	0x293
 3980 0c12 57000000 		.4byte	0x57
 3981 0c16 5E070000 		.4byte	.LLST43
 3982 0c1a 22       		.uleb128 0x22
 3983 0c1b 1A000000 		.4byte	.LVL117
 3984 0c1f 8E0B0000 		.4byte	0xb8e
 3985 0c23 340C0000 		.4byte	0xc34
 3986 0c27 1E       		.uleb128 0x1e
 3987 0c28 01       		.uleb128 0x1
 3988 0c29 51       		.byte	0x51
 3989 0c2a 02       		.uleb128 0x2
 3990 0c2b 74       		.byte	0x74
 3991 0c2c 00       		.sleb128 0
 3992 0c2d 1E       		.uleb128 0x1e
 3993 0c2e 01       		.uleb128 0x1
 3994 0c2f 50       		.byte	0x50
 3995 0c30 02       		.uleb128 0x2
 3996 0c31 75       		.byte	0x75
 3997 0c32 2C       		.sleb128 44
 3998 0c33 00       		.byte	0
 3999 0c34 22       		.uleb128 0x22
 4000 0c35 44000000 		.4byte	.LVL119
 4001 0c39 8E0B0000 		.4byte	0xb8e
 4002 0c3d 4F0C0000 		.4byte	0xc4f
ARM GAS  C:\Users\ADMINI~1\AppData\Local\Temp\ccRFd3Cg.s 			page 93


 4003 0c41 1E       		.uleb128 0x1e
 4004 0c42 01       		.uleb128 0x1
 4005 0c43 51       		.byte	0x51
 4006 0c44 02       		.uleb128 0x2
 4007 0c45 74       		.byte	0x74
 4008 0c46 00       		.sleb128 0
 4009 0c47 1E       		.uleb128 0x1e
 4010 0c48 01       		.uleb128 0x1
 4011 0c49 50       		.byte	0x50
 4012 0c4a 03       		.uleb128 0x3
 4013 0c4b 75       		.byte	0x75
 4014 0c4c C000     		.sleb128 64
 4015 0c4e 00       		.byte	0
 4016 0c4f 22       		.uleb128 0x22
 4017 0c50 4E000000 		.4byte	.LVL121
 4018 0c54 8E0B0000 		.4byte	0xb8e
 4019 0c58 6A0C0000 		.4byte	0xc6a
 4020 0c5c 1E       		.uleb128 0x1e
 4021 0c5d 01       		.uleb128 0x1
 4022 0c5e 51       		.byte	0x51
 4023 0c5f 02       		.uleb128 0x2
 4024 0c60 74       		.byte	0x74
 4025 0c61 06       		.sleb128 6
 4026 0c62 1E       		.uleb128 0x1e
 4027 0c63 01       		.uleb128 0x1
 4028 0c64 50       		.byte	0x50
 4029 0c65 03       		.uleb128 0x3
 4030 0c66 75       		.byte	0x75
 4031 0c67 C600     		.sleb128 70
 4032 0c69 00       		.byte	0
 4033 0c6a 22       		.uleb128 0x22
 4034 0c6b 60000000 		.4byte	.LVL123
 4035 0c6f 8E0B0000 		.4byte	0xb8e
 4036 0c73 850C0000 		.4byte	0xc85
 4037 0c77 1E       		.uleb128 0x1e
 4038 0c78 01       		.uleb128 0x1
 4039 0c79 51       		.byte	0x51
 4040 0c7a 02       		.uleb128 0x2
 4041 0c7b 74       		.byte	0x74
 4042 0c7c 00       		.sleb128 0
 4043 0c7d 1E       		.uleb128 0x1e
 4044 0c7e 01       		.uleb128 0x1
 4045 0c7f 50       		.byte	0x50
 4046 0c80 03       		.uleb128 0x3
 4047 0c81 75       		.byte	0x75
 4048 0c82 F400     		.sleb128 116
 4049 0c84 00       		.byte	0
 4050 0c85 22       		.uleb128 0x22
 4051 0c86 6C000000 		.4byte	.LVL124
 4052 0c8a 5B130000 		.4byte	0x135b
 4053 0c8e A50C0000 		.4byte	0xca5
 4054 0c92 1E       		.uleb128 0x1e
 4055 0c93 01       		.uleb128 0x1
 4056 0c94 52       		.byte	0x52
 4057 0c95 01       		.uleb128 0x1
 4058 0c96 36       		.byte	0x36
 4059 0c97 1E       		.uleb128 0x1e
ARM GAS  C:\Users\ADMINI~1\AppData\Local\Temp\ccRFd3Cg.s 			page 94


 4060 0c98 01       		.uleb128 0x1
 4061 0c99 51       		.byte	0x51
 4062 0c9a 02       		.uleb128 0x2
 4063 0c9b 74       		.byte	0x74
 4064 0c9c 00       		.sleb128 0
 4065 0c9d 1E       		.uleb128 0x1e
 4066 0c9e 01       		.uleb128 0x1
 4067 0c9f 50       		.byte	0x50
 4068 0ca0 03       		.uleb128 0x3
 4069 0ca1 75       		.byte	0x75
 4070 0ca2 9401     		.sleb128 148
 4071 0ca4 00       		.byte	0
 4072 0ca5 22       		.uleb128 0x22
 4073 0ca6 7C000000 		.4byte	.LVL126
 4074 0caa 4A0B0000 		.4byte	0xb4a
 4075 0cae BF0C0000 		.4byte	0xcbf
 4076 0cb2 1E       		.uleb128 0x1e
 4077 0cb3 01       		.uleb128 0x1
 4078 0cb4 51       		.byte	0x51
 4079 0cb5 02       		.uleb128 0x2
 4080 0cb6 74       		.byte	0x74
 4081 0cb7 00       		.sleb128 0
 4082 0cb8 1E       		.uleb128 0x1e
 4083 0cb9 01       		.uleb128 0x1
 4084 0cba 50       		.byte	0x50
 4085 0cbb 02       		.uleb128 0x2
 4086 0cbc 75       		.byte	0x75
 4087 0cbd 00       		.sleb128 0
 4088 0cbe 00       		.byte	0
 4089 0cbf 22       		.uleb128 0x22
 4090 0cc0 8E000000 		.4byte	.LVL128
 4091 0cc4 4A0B0000 		.4byte	0xb4a
 4092 0cc8 D90C0000 		.4byte	0xcd9
 4093 0ccc 1E       		.uleb128 0x1e
 4094 0ccd 01       		.uleb128 0x1
 4095 0cce 51       		.byte	0x51
 4096 0ccf 02       		.uleb128 0x2
 4097 0cd0 74       		.byte	0x74
 4098 0cd1 00       		.sleb128 0
 4099 0cd2 1E       		.uleb128 0x1e
 4100 0cd3 01       		.uleb128 0x1
 4101 0cd4 50       		.byte	0x50
 4102 0cd5 02       		.uleb128 0x2
 4103 0cd6 75       		.byte	0x75
 4104 0cd7 0C       		.sleb128 12
 4105 0cd8 00       		.byte	0
 4106 0cd9 22       		.uleb128 0x22
 4107 0cda AC000000 		.4byte	.LVL130
 4108 0cde 4A0B0000 		.4byte	0xb4a
 4109 0ce2 F30C0000 		.4byte	0xcf3
 4110 0ce6 1E       		.uleb128 0x1e
 4111 0ce7 01       		.uleb128 0x1
 4112 0ce8 51       		.byte	0x51
 4113 0ce9 02       		.uleb128 0x2
 4114 0cea 74       		.byte	0x74
 4115 0ceb 00       		.sleb128 0
 4116 0cec 1E       		.uleb128 0x1e
ARM GAS  C:\Users\ADMINI~1\AppData\Local\Temp\ccRFd3Cg.s 			page 95


 4117 0ced 01       		.uleb128 0x1
 4118 0cee 50       		.byte	0x50
 4119 0cef 02       		.uleb128 0x2
 4120 0cf0 75       		.byte	0x75
 4121 0cf1 1C       		.sleb128 28
 4122 0cf2 00       		.byte	0
 4123 0cf3 22       		.uleb128 0x22
 4124 0cf4 CA000000 		.4byte	.LVL132
 4125 0cf8 4A0B0000 		.4byte	0xb4a
 4126 0cfc 0E0D0000 		.4byte	0xd0e
 4127 0d00 1E       		.uleb128 0x1e
 4128 0d01 01       		.uleb128 0x1
 4129 0d02 51       		.byte	0x51
 4130 0d03 02       		.uleb128 0x2
 4131 0d04 74       		.byte	0x74
 4132 0d05 00       		.sleb128 0
 4133 0d06 1E       		.uleb128 0x1e
 4134 0d07 01       		.uleb128 0x1
 4135 0d08 50       		.byte	0x50
 4136 0d09 03       		.uleb128 0x3
 4137 0d0a 75       		.byte	0x75
 4138 0d0b E400     		.sleb128 100
 4139 0d0d 00       		.byte	0
 4140 0d0e 1D       		.uleb128 0x1d
 4141 0d0f D6000000 		.4byte	.LVL133
 4142 0d13 5B130000 		.4byte	0x135b
 4143 0d17 1E       		.uleb128 0x1e
 4144 0d18 01       		.uleb128 0x1
 4145 0d19 52       		.byte	0x52
 4146 0d1a 01       		.uleb128 0x1
 4147 0d1b 3C       		.byte	0x3c
 4148 0d1c 1E       		.uleb128 0x1e
 4149 0d1d 01       		.uleb128 0x1
 4150 0d1e 51       		.byte	0x51
 4151 0d1f 02       		.uleb128 0x2
 4152 0d20 74       		.byte	0x74
 4153 0d21 00       		.sleb128 0
 4154 0d22 1E       		.uleb128 0x1e
 4155 0d23 01       		.uleb128 0x1
 4156 0d24 50       		.byte	0x50
 4157 0d25 03       		.uleb128 0x3
 4158 0d26 75       		.byte	0x75
 4159 0d27 8801     		.sleb128 136
 4160 0d29 00       		.byte	0
 4161 0d2a 00       		.byte	0
 4162 0d2b 06       		.uleb128 0x6
 4163 0d2c 04       		.byte	0x4
 4164 0d2d 1A020000 		.4byte	0x21a
 4165 0d31 33       		.uleb128 0x33
 4166 0d32 BB0C0000 		.4byte	.LASF156
 4167 0d36 01       		.byte	0x1
 4168 0d37 1202     		.2byte	0x212
 4169 0d39 04020000 		.4byte	0x204
 4170 0d3d 00000000 		.4byte	.LFB14
 4171 0d41 80000000 		.4byte	.LFE14-.LFB14
 4172 0d45 01       		.uleb128 0x1
 4173 0d46 9C       		.byte	0x9c
ARM GAS  C:\Users\ADMINI~1\AppData\Local\Temp\ccRFd3Cg.s 			page 96


 4174 0d47 F60D0000 		.4byte	0xdf6
 4175 0d4b 18       		.uleb128 0x18
 4176 0d4c 30040000 		.4byte	.LASF157
 4177 0d50 01       		.byte	0x1
 4178 0d51 1202     		.2byte	0x212
 4179 0d53 9A050000 		.4byte	0x59a
 4180 0d57 9E070000 		.4byte	.LLST44
 4181 0d5b 18       		.uleb128 0x18
 4182 0d5c 77000000 		.4byte	.LASF158
 4183 0d60 01       		.byte	0x1
 4184 0d61 1202     		.2byte	0x212
 4185 0d63 9A050000 		.4byte	0x59a
 4186 0d67 CB070000 		.4byte	.LLST45
 4187 0d6b 18       		.uleb128 0x18
 4188 0d6c F2070000 		.4byte	.LASF147
 4189 0d70 01       		.byte	0x1
 4190 0d71 1202     		.2byte	0x212
 4191 0d73 30050000 		.4byte	0x530
 4192 0d77 F8070000 		.4byte	.LLST46
 4193 0d7b 19       		.uleb128 0x19
 4194 0d7c 3B070000 		.4byte	.LASF145
 4195 0d80 01       		.byte	0x1
 4196 0d81 1402     		.2byte	0x214
 4197 0d83 25000000 		.4byte	0x25
 4198 0d87 24080000 		.4byte	.LLST47
 4199 0d8b 19       		.uleb128 0x19
 4200 0d8c 02010000 		.4byte	.LASF153
 4201 0d90 01       		.byte	0x1
 4202 0d91 1502     		.2byte	0x215
 4203 0d93 95000000 		.4byte	0x95
 4204 0d97 4E080000 		.4byte	.LLST48
 4205 0d9b 22       		.uleb128 0x22
 4206 0d9c 1E000000 		.4byte	.LVL153
 4207 0da0 36050000 		.4byte	0x536
 4208 0da4 C60D0000 		.4byte	0xdc6
 4209 0da8 1E       		.uleb128 0x1e
 4210 0da9 01       		.uleb128 0x1
 4211 0daa 53       		.byte	0x53
 4212 0dab 01       		.uleb128 0x1
 4213 0dac 30       		.byte	0x30
 4214 0dad 1E       		.uleb128 0x1e
 4215 0dae 01       		.uleb128 0x1
 4216 0daf 52       		.byte	0x52
 4217 0db0 05       		.uleb128 0x5
 4218 0db1 03       		.byte	0x3
 4219 0db2 9C000000 		.4byte	fd+156
 4220 0db6 1E       		.uleb128 0x1e
 4221 0db7 01       		.uleb128 0x1
 4222 0db8 51       		.byte	0x51
 4223 0db9 05       		.uleb128 0x5
 4224 0dba 03       		.byte	0x3
 4225 0dbb 9A000000 		.4byte	fd+154
 4226 0dbf 1E       		.uleb128 0x1e
 4227 0dc0 01       		.uleb128 0x1
 4228 0dc1 50       		.byte	0x50
 4229 0dc2 02       		.uleb128 0x2
 4230 0dc3 77       		.byte	0x77
ARM GAS  C:\Users\ADMINI~1\AppData\Local\Temp\ccRFd3Cg.s 			page 97


 4231 0dc4 08       		.sleb128 8
 4232 0dc5 00       		.byte	0
 4233 0dc6 22       		.uleb128 0x22
 4234 0dc7 44000000 		.4byte	.LVL158
 4235 0dcb C10B0000 		.4byte	0xbc1
 4236 0dcf DA0D0000 		.4byte	0xdda
 4237 0dd3 1E       		.uleb128 0x1e
 4238 0dd4 01       		.uleb128 0x1
 4239 0dd5 50       		.byte	0x50
 4240 0dd6 02       		.uleb128 0x2
 4241 0dd7 77       		.byte	0x77
 4242 0dd8 00       		.sleb128 0
 4243 0dd9 00       		.byte	0
 4244 0dda 1D       		.uleb128 0x1d
 4245 0ddb 56000000 		.4byte	.LVL159
 4246 0ddf 78130000 		.4byte	0x1378
 4247 0de3 1E       		.uleb128 0x1e
 4248 0de4 01       		.uleb128 0x1
 4249 0de5 51       		.byte	0x51
 4250 0de6 07       		.uleb128 0x7
 4251 0de7 74       		.byte	0x74
 4252 0de8 00       		.sleb128 0
 4253 0de9 76       		.byte	0x76
 4254 0dea 00       		.sleb128 0
 4255 0deb 22       		.byte	0x22
 4256 0dec 23       		.byte	0x23
 4257 0ded 08       		.uleb128 0x8
 4258 0dee 1E       		.uleb128 0x1e
 4259 0def 01       		.uleb128 0x1
 4260 0df0 50       		.byte	0x50
 4261 0df1 02       		.uleb128 0x2
 4262 0df2 74       		.byte	0x74
 4263 0df3 08       		.sleb128 8
 4264 0df4 00       		.byte	0
 4265 0df5 00       		.byte	0
 4266 0df6 33       		.uleb128 0x33
 4267 0df7 1F040000 		.4byte	.LASF159
 4268 0dfb 01       		.byte	0x1
 4269 0dfc 3302     		.2byte	0x233
 4270 0dfe 04020000 		.4byte	0x204
 4271 0e02 00000000 		.4byte	.LFB15
 4272 0e06 0C010000 		.4byte	.LFE15-.LFB15
 4273 0e0a 01       		.uleb128 0x1
 4274 0e0b 9C       		.byte	0x9c
 4275 0e0c 3F0F0000 		.4byte	0xf3f
 4276 0e10 18       		.uleb128 0x18
 4277 0e11 F40D0000 		.4byte	.LASF160
 4278 0e15 01       		.byte	0x1
 4279 0e16 3302     		.2byte	0x233
 4280 0e18 30050000 		.4byte	0x530
 4281 0e1c 76080000 		.4byte	.LLST49
 4282 0e20 18       		.uleb128 0x18
 4283 0e21 30040000 		.4byte	.LASF157
 4284 0e25 01       		.byte	0x1
 4285 0e26 3302     		.2byte	0x233
 4286 0e28 9A050000 		.4byte	0x59a
 4287 0e2c A2080000 		.4byte	.LLST50
ARM GAS  C:\Users\ADMINI~1\AppData\Local\Temp\ccRFd3Cg.s 			page 98


 4288 0e30 18       		.uleb128 0x18
 4289 0e31 77000000 		.4byte	.LASF158
 4290 0e35 01       		.byte	0x1
 4291 0e36 3302     		.2byte	0x233
 4292 0e38 9A050000 		.4byte	0x59a
 4293 0e3c E9080000 		.4byte	.LLST51
 4294 0e40 18       		.uleb128 0x18
 4295 0e41 E90D0000 		.4byte	.LASF161
 4296 0e45 01       		.byte	0x1
 4297 0e46 3302     		.2byte	0x233
 4298 0e48 3F0F0000 		.4byte	0xf3f
 4299 0e4c 30090000 		.4byte	.LLST52
 4300 0e50 19       		.uleb128 0x19
 4301 0e51 6C020000 		.4byte	.LASF119
 4302 0e55 01       		.byte	0x1
 4303 0e56 3502     		.2byte	0x235
 4304 0e58 04020000 		.4byte	0x204
 4305 0e5c 5C090000 		.4byte	.LLST53
 4306 0e60 34       		.uleb128 0x34
 4307 0e61 120B0000 		.4byte	.LASF122
 4308 0e65 01       		.byte	0x1
 4309 0e66 3602     		.2byte	0x236
 4310 0e68 25000000 		.4byte	0x25
 4311 0e6c 02       		.uleb128 0x2
 4312 0e6d 91       		.byte	0x91
 4313 0e6e 64       		.sleb128 -28
 4314 0e6f 19       		.uleb128 0x19
 4315 0e70 3B070000 		.4byte	.LASF145
 4316 0e74 01       		.byte	0x1
 4317 0e75 3702     		.2byte	0x237
 4318 0e77 25000000 		.4byte	0x25
 4319 0e7b 87090000 		.4byte	.LLST54
 4320 0e7f 19       		.uleb128 0x19
 4321 0e80 02010000 		.4byte	.LASF153
 4322 0e84 01       		.byte	0x1
 4323 0e85 3802     		.2byte	0x238
 4324 0e87 95000000 		.4byte	0x95
 4325 0e8b BE090000 		.4byte	.LLST55
 4326 0e8f 3C       		.uleb128 0x3c
 4327 0e90 747300   		.ascii	"ts\000"
 4328 0e93 01       		.byte	0x1
 4329 0e94 3A02     		.2byte	0x23a
 4330 0e96 0F020000 		.4byte	0x20f
 4331 0e9a 060A0000 		.4byte	.LLST56
 4332 0e9e 22       		.uleb128 0x22
 4333 0e9f 2E000000 		.4byte	.LVL167
 4334 0ea3 E8040000 		.4byte	0x4e8
 4335 0ea7 B20E0000 		.4byte	0xeb2
 4336 0eab 1E       		.uleb128 0x1e
 4337 0eac 01       		.uleb128 0x1
 4338 0ead 52       		.byte	0x52
 4339 0eae 02       		.uleb128 0x2
 4340 0eaf 91       		.byte	0x91
 4341 0eb0 64       		.sleb128 -28
 4342 0eb1 00       		.byte	0
 4343 0eb2 22       		.uleb128 0x22
 4344 0eb3 5C000000 		.4byte	.LVL170
ARM GAS  C:\Users\ADMINI~1\AppData\Local\Temp\ccRFd3Cg.s 			page 99


 4345 0eb7 36050000 		.4byte	0x536
 4346 0ebb DA0E0000 		.4byte	0xeda
 4347 0ebf 1E       		.uleb128 0x1e
 4348 0ec0 01       		.uleb128 0x1
 4349 0ec1 53       		.byte	0x53
 4350 0ec2 01       		.uleb128 0x1
 4351 0ec3 30       		.byte	0x30
 4352 0ec4 1E       		.uleb128 0x1e
 4353 0ec5 01       		.uleb128 0x1
 4354 0ec6 52       		.byte	0x52
 4355 0ec7 05       		.uleb128 0x5
 4356 0ec8 03       		.byte	0x3
 4357 0ec9 9C000000 		.4byte	fd+156
 4358 0ecd 1E       		.uleb128 0x1e
 4359 0ece 01       		.uleb128 0x1
 4360 0ecf 51       		.byte	0x51
 4361 0ed0 02       		.uleb128 0x2
 4362 0ed1 75       		.byte	0x75
 4363 0ed2 00       		.sleb128 0
 4364 0ed3 1E       		.uleb128 0x1e
 4365 0ed4 01       		.uleb128 0x1
 4366 0ed5 50       		.byte	0x50
 4367 0ed6 02       		.uleb128 0x2
 4368 0ed7 76       		.byte	0x76
 4369 0ed8 08       		.sleb128 8
 4370 0ed9 00       		.byte	0
 4371 0eda 22       		.uleb128 0x22
 4372 0edb 9A000000 		.4byte	.LVL175
 4373 0edf A0050000 		.4byte	0x5a0
 4374 0ee3 EE0E0000 		.4byte	0xeee
 4375 0ee7 1E       		.uleb128 0x1e
 4376 0ee8 01       		.uleb128 0x1
 4377 0ee9 50       		.byte	0x50
 4378 0eea 02       		.uleb128 0x2
 4379 0eeb 76       		.byte	0x76
 4380 0eec 00       		.sleb128 0
 4381 0eed 00       		.byte	0
 4382 0eee 2B       		.uleb128 0x2b
 4383 0eef A2000000 		.4byte	.LVL176
 4384 0ef3 7F070000 		.4byte	0x77f
 4385 0ef7 2B       		.uleb128 0x2b
 4386 0ef8 BC000000 		.4byte	.LVL180
 4387 0efc 97130000 		.4byte	0x1397
 4388 0f00 22       		.uleb128 0x22
 4389 0f01 CA000000 		.4byte	.LVL182
 4390 0f05 C10B0000 		.4byte	0xbc1
 4391 0f09 1E0F0000 		.4byte	0xf1e
 4392 0f0d 1E       		.uleb128 0x1e
 4393 0f0e 01       		.uleb128 0x1
 4394 0f0f 51       		.byte	0x51
 4395 0f10 03       		.uleb128 0x3
 4396 0f11 91       		.byte	0x91
 4397 0f12 58       		.sleb128 -40
 4398 0f13 06       		.byte	0x6
 4399 0f14 1E       		.uleb128 0x1e
 4400 0f15 01       		.uleb128 0x1
 4401 0f16 50       		.byte	0x50
ARM GAS  C:\Users\ADMINI~1\AppData\Local\Temp\ccRFd3Cg.s 			page 100


 4402 0f17 05       		.uleb128 0x5
 4403 0f18 03       		.byte	0x3
 4404 0f19 00000000 		.4byte	fd
 4405 0f1d 00       		.byte	0
 4406 0f1e 1D       		.uleb128 0x1d
 4407 0f1f EA000000 		.4byte	.LVL183
 4408 0f23 78130000 		.4byte	0x1378
 4409 0f27 1E       		.uleb128 0x1e
 4410 0f28 01       		.uleb128 0x1
 4411 0f29 51       		.byte	0x51
 4412 0f2a 09       		.uleb128 0x9
 4413 0f2b 91       		.byte	0x91
 4414 0f2c 54       		.sleb128 -44
 4415 0f2d 06       		.byte	0x6
 4416 0f2e 03       		.byte	0x3
 4417 0f2f 08000000 		.4byte	.LANCHOR0+8
 4418 0f33 22       		.byte	0x22
 4419 0f34 1E       		.uleb128 0x1e
 4420 0f35 01       		.uleb128 0x1
 4421 0f36 50       		.byte	0x50
 4422 0f37 05       		.uleb128 0x5
 4423 0f38 03       		.byte	0x3
 4424 0f39 08000000 		.4byte	.LANCHOR0+8
 4425 0f3d 00       		.byte	0
 4426 0f3e 00       		.byte	0
 4427 0f3f 06       		.uleb128 0x6
 4428 0f40 04       		.byte	0x4
 4429 0f41 0F020000 		.4byte	0x20f
 4430 0f45 33       		.uleb128 0x33
 4431 0f46 BA0D0000 		.4byte	.LASF162
 4432 0f4a 01       		.byte	0x1
 4433 0f4b 3503     		.2byte	0x335
 4434 0f4d 04020000 		.4byte	0x204
 4435 0f51 00000000 		.4byte	.LFB19
 4436 0f55 1C000000 		.4byte	.LFE19-.LFB19
 4437 0f59 01       		.uleb128 0x1
 4438 0f5a 9C       		.byte	0x9c
 4439 0f5b 8F0F0000 		.4byte	0xf8f
 4440 0f5f 3B       		.uleb128 0x3b
 4441 0f60 61636C00 		.ascii	"acl\000"
 4442 0f64 01       		.byte	0x1
 4443 0f65 3503     		.2byte	0x335
 4444 0f67 7D0B0000 		.4byte	0xb7d
 4445 0f6b 6B0A0000 		.4byte	.LLST57
 4446 0f6f 1D       		.uleb128 0x1d
 4447 0f70 0E000000 		.4byte	.LVL187
 4448 0f74 5B130000 		.4byte	0x135b
 4449 0f78 1E       		.uleb128 0x1e
 4450 0f79 01       		.uleb128 0x1
 4451 0f7a 52       		.byte	0x52
 4452 0f7b 01       		.uleb128 0x1
 4453 0f7c 3C       		.byte	0x3c
 4454 0f7d 1E       		.uleb128 0x1e
 4455 0f7e 01       		.uleb128 0x1
 4456 0f7f 51       		.byte	0x51
 4457 0f80 05       		.uleb128 0x5
 4458 0f81 03       		.byte	0x3
ARM GAS  C:\Users\ADMINI~1\AppData\Local\Temp\ccRFd3Cg.s 			page 101


 4459 0f82 34000000 		.4byte	fd+52
 4460 0f86 1E       		.uleb128 0x1e
 4461 0f87 01       		.uleb128 0x1
 4462 0f88 50       		.byte	0x50
 4463 0f89 03       		.uleb128 0x3
 4464 0f8a F3       		.byte	0xf3
 4465 0f8b 01       		.uleb128 0x1
 4466 0f8c 50       		.byte	0x50
 4467 0f8d 00       		.byte	0
 4468 0f8e 00       		.byte	0
 4469 0f8f 33       		.uleb128 0x33
 4470 0f90 EC020000 		.4byte	.LASF163
 4471 0f94 01       		.byte	0x1
 4472 0f95 3C03     		.2byte	0x33c
 4473 0f97 04020000 		.4byte	0x204
 4474 0f9b 00000000 		.4byte	.LFB20
 4475 0f9f 28000000 		.4byte	.LFE20-.LFB20
 4476 0fa3 01       		.uleb128 0x1
 4477 0fa4 9C       		.byte	0x9c
 4478 0fa5 BA0F0000 		.4byte	0xfba
 4479 0fa9 18       		.uleb128 0x18
 4480 0faa 5C0E0000 		.4byte	.LASF164
 4481 0fae 01       		.byte	0x1
 4482 0faf 3C03     		.2byte	0x33c
 4483 0fb1 40070000 		.4byte	0x740
 4484 0fb5 A50A0000 		.4byte	.LLST58
 4485 0fb9 00       		.byte	0
 4486 0fba 33       		.uleb128 0x33
 4487 0fbb 5C0F0000 		.4byte	.LASF165
 4488 0fbf 01       		.byte	0x1
 4489 0fc0 7303     		.2byte	0x373
 4490 0fc2 04020000 		.4byte	0x204
 4491 0fc6 00000000 		.4byte	.LFB21
 4492 0fca 1C000000 		.4byte	.LFE21-.LFB21
 4493 0fce 01       		.uleb128 0x1
 4494 0fcf 9C       		.byte	0x9c
 4495 0fd0 04100000 		.4byte	0x1004
 4496 0fd4 18       		.uleb128 0x18
 4497 0fd5 4B0C0000 		.4byte	.LASF77
 4498 0fd9 01       		.byte	0x1
 4499 0fda 7303     		.2byte	0x373
 4500 0fdc 40070000 		.4byte	0x740
 4501 0fe0 DF0A0000 		.4byte	.LLST59
 4502 0fe4 1D       		.uleb128 0x1d
 4503 0fe5 0E000000 		.4byte	.LVL195
 4504 0fe9 5B130000 		.4byte	0x135b
 4505 0fed 1E       		.uleb128 0x1e
 4506 0fee 01       		.uleb128 0x1
 4507 0fef 52       		.byte	0x52
 4508 0ff0 01       		.uleb128 0x1
 4509 0ff1 36       		.byte	0x36
 4510 0ff2 1E       		.uleb128 0x1e
 4511 0ff3 01       		.uleb128 0x1
 4512 0ff4 51       		.byte	0x51
 4513 0ff5 05       		.uleb128 0x5
 4514 0ff6 03       		.byte	0x3
 4515 0ff7 46000000 		.4byte	fd+70
ARM GAS  C:\Users\ADMINI~1\AppData\Local\Temp\ccRFd3Cg.s 			page 102


 4516 0ffb 1E       		.uleb128 0x1e
 4517 0ffc 01       		.uleb128 0x1
 4518 0ffd 50       		.byte	0x50
 4519 0ffe 03       		.uleb128 0x3
 4520 0fff F3       		.byte	0xf3
 4521 1000 01       		.uleb128 0x1
 4522 1001 50       		.byte	0x50
 4523 1002 00       		.byte	0
 4524 1003 00       		.byte	0
 4525 1004 33       		.uleb128 0x33
 4526 1005 860B0000 		.4byte	.LASF166
 4527 1009 01       		.byte	0x1
 4528 100a 7B03     		.2byte	0x37b
 4529 100c 04020000 		.4byte	0x204
 4530 1010 00000000 		.4byte	.LFB22
 4531 1014 30000000 		.4byte	.LFE22-.LFB22
 4532 1018 01       		.uleb128 0x1
 4533 1019 9C       		.byte	0x9c
 4534 101a 4D100000 		.4byte	0x104d
 4535 101e 18       		.uleb128 0x18
 4536 101f C20B0000 		.4byte	.LASF167
 4537 1023 01       		.byte	0x1
 4538 1024 7B03     		.2byte	0x37b
 4539 1026 7D0B0000 		.4byte	0xb7d
 4540 102a 190B0000 		.4byte	.LLST60
 4541 102e 3D       		.uleb128 0x3d
 4542 102f 72617700 		.ascii	"raw\000"
 4543 1033 01       		.byte	0x1
 4544 1034 7B03     		.2byte	0x37b
 4545 1036 7D0B0000 		.4byte	0xb7d
 4546 103a 01       		.uleb128 0x1
 4547 103b 51       		.byte	0x51
 4548 103c 18       		.uleb128 0x18
 4549 103d B60C0000 		.4byte	.LASF168
 4550 1041 01       		.byte	0x1
 4551 1042 7B03     		.2byte	0x37b
 4552 1044 7D0B0000 		.4byte	0xb7d
 4553 1048 530B0000 		.4byte	.LLST61
 4554 104c 00       		.byte	0
 4555 104d 33       		.uleb128 0x33
 4556 104e 7B090000 		.4byte	.LASF169
 4557 1052 01       		.byte	0x1
 4558 1053 9003     		.2byte	0x390
 4559 1055 04020000 		.4byte	0x204
 4560 1059 00000000 		.4byte	.LFB23
 4561 105d 1C000000 		.4byte	.LFE23-.LFB23
 4562 1061 01       		.uleb128 0x1
 4563 1062 9C       		.byte	0x9c
 4564 1063 97100000 		.4byte	0x1097
 4565 1067 18       		.uleb128 0x18
 4566 1068 75080000 		.4byte	.LASF170
 4567 106c 01       		.byte	0x1
 4568 106d 9003     		.2byte	0x390
 4569 106f 7D0B0000 		.4byte	0xb7d
 4570 1073 8D0B0000 		.4byte	.LLST62
 4571 1077 1D       		.uleb128 0x1d
 4572 1078 0E000000 		.4byte	.LVL205
ARM GAS  C:\Users\ADMINI~1\AppData\Local\Temp\ccRFd3Cg.s 			page 103


 4573 107c 5B130000 		.4byte	0x135b
 4574 1080 1E       		.uleb128 0x1e
 4575 1081 01       		.uleb128 0x1
 4576 1082 52       		.byte	0x52
 4577 1083 01       		.uleb128 0x1
 4578 1084 3C       		.byte	0x3c
 4579 1085 1E       		.uleb128 0x1e
 4580 1086 01       		.uleb128 0x1
 4581 1087 51       		.byte	0x51
 4582 1088 05       		.uleb128 0x5
 4583 1089 03       		.byte	0x3
 4584 108a 00000000 		.4byte	fd
 4585 108e 1E       		.uleb128 0x1e
 4586 108f 01       		.uleb128 0x1
 4587 1090 50       		.byte	0x50
 4588 1091 03       		.uleb128 0x3
 4589 1092 F3       		.byte	0xf3
 4590 1093 01       		.uleb128 0x1
 4591 1094 50       		.byte	0x50
 4592 1095 00       		.byte	0
 4593 1096 00       		.byte	0
 4594 1097 33       		.uleb128 0x33
 4595 1098 6F0C0000 		.4byte	.LASF171
 4596 109c 01       		.byte	0x1
 4597 109d 9703     		.2byte	0x397
 4598 109f 04020000 		.4byte	0x204
 4599 10a3 00000000 		.4byte	.LFB24
 4600 10a7 1C000000 		.4byte	.LFE24-.LFB24
 4601 10ab 01       		.uleb128 0x1
 4602 10ac 9C       		.byte	0x9c
 4603 10ad E1100000 		.4byte	0x10e1
 4604 10b1 18       		.uleb128 0x18
 4605 10b2 75080000 		.4byte	.LASF170
 4606 10b6 01       		.byte	0x1
 4607 10b7 9703     		.2byte	0x397
 4608 10b9 7D0B0000 		.4byte	0xb7d
 4609 10bd C70B0000 		.4byte	.LLST63
 4610 10c1 1D       		.uleb128 0x1d
 4611 10c2 0E000000 		.4byte	.LVL209
 4612 10c6 5B130000 		.4byte	0x135b
 4613 10ca 1E       		.uleb128 0x1e
 4614 10cb 01       		.uleb128 0x1
 4615 10cc 52       		.byte	0x52
 4616 10cd 01       		.uleb128 0x1
 4617 10ce 3C       		.byte	0x3c
 4618 10cf 1E       		.uleb128 0x1e
 4619 10d0 01       		.uleb128 0x1
 4620 10d1 51       		.byte	0x51
 4621 10d2 05       		.uleb128 0x5
 4622 10d3 03       		.byte	0x3
 4623 10d4 0C000000 		.4byte	fd+12
 4624 10d8 1E       		.uleb128 0x1e
 4625 10d9 01       		.uleb128 0x1
 4626 10da 50       		.byte	0x50
 4627 10db 03       		.uleb128 0x3
 4628 10dc F3       		.byte	0xf3
 4629 10dd 01       		.uleb128 0x1
ARM GAS  C:\Users\ADMINI~1\AppData\Local\Temp\ccRFd3Cg.s 			page 104


 4630 10de 50       		.byte	0x50
 4631 10df 00       		.byte	0
 4632 10e0 00       		.byte	0
 4633 10e1 33       		.uleb128 0x33
 4634 10e2 A3000000 		.4byte	.LASF172
 4635 10e6 01       		.byte	0x1
 4636 10e7 9F03     		.2byte	0x39f
 4637 10e9 04020000 		.4byte	0x204
 4638 10ed 00000000 		.4byte	.LFB25
 4639 10f1 1C000000 		.4byte	.LFE25-.LFB25
 4640 10f5 01       		.uleb128 0x1
 4641 10f6 9C       		.byte	0x9c
 4642 10f7 2B110000 		.4byte	0x112b
 4643 10fb 18       		.uleb128 0x18
 4644 10fc 75080000 		.4byte	.LASF170
 4645 1100 01       		.byte	0x1
 4646 1101 9F03     		.2byte	0x39f
 4647 1103 7D0B0000 		.4byte	0xb7d
 4648 1107 010C0000 		.4byte	.LLST64
 4649 110b 1D       		.uleb128 0x1d
 4650 110c 0E000000 		.4byte	.LVL213
 4651 1110 5B130000 		.4byte	0x135b
 4652 1114 1E       		.uleb128 0x1e
 4653 1115 01       		.uleb128 0x1
 4654 1116 52       		.byte	0x52
 4655 1117 01       		.uleb128 0x1
 4656 1118 3C       		.byte	0x3c
 4657 1119 1E       		.uleb128 0x1e
 4658 111a 01       		.uleb128 0x1
 4659 111b 51       		.byte	0x51
 4660 111c 05       		.uleb128 0x5
 4661 111d 03       		.byte	0x3
 4662 111e 1C000000 		.4byte	fd+28
 4663 1122 1E       		.uleb128 0x1e
 4664 1123 01       		.uleb128 0x1
 4665 1124 50       		.byte	0x50
 4666 1125 03       		.uleb128 0x3
 4667 1126 F3       		.byte	0xf3
 4668 1127 01       		.uleb128 0x1
 4669 1128 50       		.byte	0x50
 4670 1129 00       		.byte	0
 4671 112a 00       		.byte	0
 4672 112b 33       		.uleb128 0x33
 4673 112c E90B0000 		.4byte	.LASF173
 4674 1130 01       		.byte	0x1
 4675 1131 A703     		.2byte	0x3a7
 4676 1133 04020000 		.4byte	0x204
 4677 1137 00000000 		.4byte	.LFB26
 4678 113b 1C000000 		.4byte	.LFE26-.LFB26
 4679 113f 01       		.uleb128 0x1
 4680 1140 9C       		.byte	0x9c
 4681 1141 75110000 		.4byte	0x1175
 4682 1145 18       		.uleb128 0x18
 4683 1146 630C0000 		.4byte	.LASF174
 4684 114a 01       		.byte	0x1
 4685 114b A703     		.2byte	0x3a7
 4686 114d 7D0B0000 		.4byte	0xb7d
ARM GAS  C:\Users\ADMINI~1\AppData\Local\Temp\ccRFd3Cg.s 			page 105


 4687 1151 3B0C0000 		.4byte	.LLST65
 4688 1155 1D       		.uleb128 0x1d
 4689 1156 0E000000 		.4byte	.LVL217
 4690 115a 5B130000 		.4byte	0x135b
 4691 115e 1E       		.uleb128 0x1e
 4692 115f 01       		.uleb128 0x1
 4693 1160 52       		.byte	0x52
 4694 1161 01       		.uleb128 0x1
 4695 1162 3C       		.byte	0x3c
 4696 1163 1E       		.uleb128 0x1e
 4697 1164 01       		.uleb128 0x1
 4698 1165 51       		.byte	0x51
 4699 1166 05       		.uleb128 0x5
 4700 1167 03       		.byte	0x3
 4701 1168 58000000 		.4byte	fd+88
 4702 116c 1E       		.uleb128 0x1e
 4703 116d 01       		.uleb128 0x1
 4704 116e 50       		.byte	0x50
 4705 116f 03       		.uleb128 0x3
 4706 1170 F3       		.byte	0xf3
 4707 1171 01       		.uleb128 0x1
 4708 1172 50       		.byte	0x50
 4709 1173 00       		.byte	0
 4710 1174 00       		.byte	0
 4711 1175 33       		.uleb128 0x33
 4712 1176 480B0000 		.4byte	.LASF175
 4713 117a 01       		.byte	0x1
 4714 117b AE03     		.2byte	0x3ae
 4715 117d 04020000 		.4byte	0x204
 4716 1181 00000000 		.4byte	.LFB27
 4717 1185 1C000000 		.4byte	.LFE27-.LFB27
 4718 1189 01       		.uleb128 0x1
 4719 118a 9C       		.byte	0x9c
 4720 118b BF110000 		.4byte	0x11bf
 4721 118f 18       		.uleb128 0x18
 4722 1190 F7050000 		.4byte	.LASF176
 4723 1194 01       		.byte	0x1
 4724 1195 AE03     		.2byte	0x3ae
 4725 1197 7D0B0000 		.4byte	0xb7d
 4726 119b 750C0000 		.4byte	.LLST66
 4727 119f 1D       		.uleb128 0x1d
 4728 11a0 0E000000 		.4byte	.LVL221
 4729 11a4 5B130000 		.4byte	0x135b
 4730 11a8 1E       		.uleb128 0x1e
 4731 11a9 01       		.uleb128 0x1
 4732 11aa 52       		.byte	0x52
 4733 11ab 01       		.uleb128 0x1
 4734 11ac 3C       		.byte	0x3c
 4735 11ad 1E       		.uleb128 0x1e
 4736 11ae 01       		.uleb128 0x1
 4737 11af 51       		.byte	0x51
 4738 11b0 05       		.uleb128 0x5
 4739 11b1 03       		.byte	0x3
 4740 11b2 64000000 		.4byte	fd+100
 4741 11b6 1E       		.uleb128 0x1e
 4742 11b7 01       		.uleb128 0x1
 4743 11b8 50       		.byte	0x50
ARM GAS  C:\Users\ADMINI~1\AppData\Local\Temp\ccRFd3Cg.s 			page 106


 4744 11b9 03       		.uleb128 0x3
 4745 11ba F3       		.byte	0xf3
 4746 11bb 01       		.uleb128 0x1
 4747 11bc 50       		.byte	0x50
 4748 11bd 00       		.byte	0
 4749 11be 00       		.byte	0
 4750 11bf 33       		.uleb128 0x33
 4751 11c0 A9050000 		.4byte	.LASF177
 4752 11c4 01       		.byte	0x1
 4753 11c5 B503     		.2byte	0x3b5
 4754 11c7 04020000 		.4byte	0x204
 4755 11cb 00000000 		.4byte	.LFB28
 4756 11cf 1C000000 		.4byte	.LFE28-.LFB28
 4757 11d3 01       		.uleb128 0x1
 4758 11d4 9C       		.byte	0x9c
 4759 11d5 EA110000 		.4byte	0x11ea
 4760 11d9 18       		.uleb128 0x18
 4761 11da A6010000 		.4byte	.LASF87
 4762 11de 01       		.byte	0x1
 4763 11df B503     		.2byte	0x3b5
 4764 11e1 EA110000 		.4byte	0x11ea
 4765 11e5 AF0C0000 		.4byte	.LLST67
 4766 11e9 00       		.byte	0
 4767 11ea 06       		.uleb128 0x6
 4768 11eb 04       		.byte	0x4
 4769 11ec B4000000 		.4byte	0xb4
 4770 11f0 33       		.uleb128 0x33
 4771 11f1 770B0000 		.4byte	.LASF178
 4772 11f5 01       		.byte	0x1
 4773 11f6 BC03     		.2byte	0x3bc
 4774 11f8 04020000 		.4byte	0x204
 4775 11fc 00000000 		.4byte	.LFB29
 4776 1200 1C000000 		.4byte	.LFE29-.LFB29
 4777 1204 01       		.uleb128 0x1
 4778 1205 9C       		.byte	0x9c
 4779 1206 1B120000 		.4byte	0x121b
 4780 120a 18       		.uleb128 0x18
 4781 120b 1C080000 		.4byte	.LASF86
 4782 120f 01       		.byte	0x1
 4783 1210 BC03     		.2byte	0x3bc
 4784 1212 7D0B0000 		.4byte	0xb7d
 4785 1216 E90C0000 		.4byte	.LLST68
 4786 121a 00       		.byte	0
 4787 121b 33       		.uleb128 0x33
 4788 121c AD0E0000 		.4byte	.LASF179
 4789 1220 01       		.byte	0x1
 4790 1221 C303     		.2byte	0x3c3
 4791 1223 04020000 		.4byte	0x204
 4792 1227 00000000 		.4byte	.LFB30
 4793 122b 1C000000 		.4byte	.LFE30-.LFB30
 4794 122f 01       		.uleb128 0x1
 4795 1230 9C       		.byte	0x9c
 4796 1231 46120000 		.4byte	0x1246
 4797 1235 18       		.uleb128 0x18
 4798 1236 DB000000 		.4byte	.LASF88
 4799 123a 01       		.byte	0x1
 4800 123b C303     		.2byte	0x3c3
ARM GAS  C:\Users\ADMINI~1\AppData\Local\Temp\ccRFd3Cg.s 			page 107


 4801 123d EA110000 		.4byte	0x11ea
 4802 1241 230D0000 		.4byte	.LLST69
 4803 1245 00       		.byte	0
 4804 1246 3E       		.uleb128 0x3e
 4805 1247 59030000 		.4byte	.LASF180
 4806 124b 01       		.byte	0x1
 4807 124c CD03     		.2byte	0x3cd
 4808 124e 25000000 		.4byte	0x25
 4809 1252 00000000 		.4byte	.LFB31
 4810 1256 10000000 		.4byte	.LFE31-.LFB31
 4811 125a 01       		.uleb128 0x1
 4812 125b 9C       		.byte	0x9c
 4813 125c 3E       		.uleb128 0x3e
 4814 125d 70030000 		.4byte	.LASF181
 4815 1261 01       		.byte	0x1
 4816 1262 D503     		.2byte	0x3d5
 4817 1264 25000000 		.4byte	0x25
 4818 1268 00000000 		.4byte	.LFB32
 4819 126c 10000000 		.4byte	.LFE32-.LFB32
 4820 1270 01       		.uleb128 0x1
 4821 1271 9C       		.byte	0x9c
 4822 1272 3E       		.uleb128 0x3e
 4823 1273 8B020000 		.4byte	.LASF182
 4824 1277 01       		.byte	0x1
 4825 1278 DD03     		.2byte	0x3dd
 4826 127a 25000000 		.4byte	0x25
 4827 127e 00000000 		.4byte	.LFB33
 4828 1282 10000000 		.4byte	.LFE33-.LFB33
 4829 1286 01       		.uleb128 0x1
 4830 1287 9C       		.byte	0x9c
 4831 1288 3E       		.uleb128 0x3e
 4832 1289 040A0000 		.4byte	.LASF183
 4833 128d 01       		.byte	0x1
 4834 128e E603     		.2byte	0x3e6
 4835 1290 25000000 		.4byte	0x25
 4836 1294 00000000 		.4byte	.LFB34
 4837 1298 0C000000 		.4byte	.LFE34-.LFB34
 4838 129c 01       		.uleb128 0x1
 4839 129d 9C       		.byte	0x9c
 4840 129e 3E       		.uleb128 0x3e
 4841 129f BB050000 		.4byte	.LASF184
 4842 12a3 01       		.byte	0x1
 4843 12a4 F003     		.2byte	0x3f0
 4844 12a6 25000000 		.4byte	0x25
 4845 12aa 00000000 		.4byte	.LFB35
 4846 12ae 0C000000 		.4byte	.LFE35-.LFB35
 4847 12b2 01       		.uleb128 0x1
 4848 12b3 9C       		.byte	0x9c
 4849 12b4 23       		.uleb128 0x23
 4850 12b5 F3060000 		.4byte	.LASF185
 4851 12b9 01       		.byte	0x1
 4852 12ba 26       		.byte	0x26
 4853 12bb 7B040000 		.4byte	0x47b
 4854 12bf 05       		.uleb128 0x5
 4855 12c0 03       		.byte	0x3
 4856 12c1 00000000 		.4byte	fifo_info
 4857 12c5 0C       		.uleb128 0xc
ARM GAS  C:\Users\ADMINI~1\AppData\Local\Temp\ccRFd3Cg.s 			page 108


 4858 12c6 50000000 		.4byte	0x50
 4859 12ca D6120000 		.4byte	0x12d6
 4860 12ce 3F       		.uleb128 0x3f
 4861 12cf 8C000000 		.4byte	0x8c
 4862 12d3 FF03     		.2byte	0x3ff
 4863 12d5 00       		.byte	0
 4864 12d6 34       		.uleb128 0x34
 4865 12d7 65050000 		.4byte	.LASF186
 4866 12db 01       		.byte	0x1
 4867 12dc CA01     		.2byte	0x1ca
 4868 12de C5120000 		.4byte	0x12c5
 4869 12e2 05       		.uleb128 0x5
 4870 12e3 03       		.byte	0x3
 4871 12e4 08000000 		.4byte	fifo_data
 4872 12e8 40       		.uleb128 0x40
 4873 12e9 AF0D0000 		.4byte	.LASF187
 4874 12ed 08       		.byte	0x8
 4875 12ee 31       		.byte	0x31
 4876 12ef B4030000 		.4byte	0x3b4
 4877 12f3 41       		.uleb128 0x41
 4878 12f4 666400   		.ascii	"fd\000"
 4879 12f7 01       		.byte	0x1
 4880 12f8 20       		.byte	0x20
 4881 12f9 1A020000 		.4byte	0x21a
 4882 12fd 05       		.uleb128 0x5
 4883 12fe 03       		.byte	0x3
 4884 12ff 00000000 		.4byte	fd
 4885 1303 42       		.uleb128 0x42
 4886 1304 F3010000 		.4byte	.LASF189
 4887 1308 09       		.byte	0x9
 4888 1309 40       		.byte	0x40
 4889 130a 04020000 		.4byte	0x204
 4890 130e 22130000 		.4byte	0x1322
 4891 1312 43       		.uleb128 0x43
 4892 1313 B4000000 		.4byte	0xb4
 4893 1317 43       		.uleb128 0x43
 4894 1318 37000000 		.4byte	0x37
 4895 131c 43       		.uleb128 0x43
 4896 131d 95000000 		.4byte	0x95
 4897 1321 00       		.byte	0
 4898 1322 42       		.uleb128 0x42
 4899 1323 93010000 		.4byte	.LASF190
 4900 1327 09       		.byte	0x9
 4901 1328 31       		.byte	0x31
 4902 1329 04020000 		.4byte	0x204
 4903 132d 41130000 		.4byte	0x1341
 4904 1331 43       		.uleb128 0x43
 4905 1332 B4000000 		.4byte	0xb4
 4906 1336 43       		.uleb128 0x43
 4907 1337 37000000 		.4byte	0x37
 4908 133b 43       		.uleb128 0x43
 4909 133c 830B0000 		.4byte	0xb83
 4910 1340 00       		.byte	0
 4911 1341 42       		.uleb128 0x42
 4912 1342 C1000000 		.4byte	.LASF191
 4913 1346 09       		.byte	0x9
 4914 1347 38       		.byte	0x38
ARM GAS  C:\Users\ADMINI~1\AppData\Local\Temp\ccRFd3Cg.s 			page 109


 4915 1348 04020000 		.4byte	0x204
 4916 134c 5B130000 		.4byte	0x135b
 4917 1350 43       		.uleb128 0x43
 4918 1351 B4000000 		.4byte	0xb4
 4919 1355 43       		.uleb128 0x43
 4920 1356 890B0000 		.4byte	0xb89
 4921 135a 00       		.byte	0
 4922 135b 44       		.uleb128 0x44
 4923 135c 93080000 		.4byte	.LASF199
 4924 1360 93000000 		.4byte	0x93
 4925 1364 78130000 		.4byte	0x1378
 4926 1368 43       		.uleb128 0x43
 4927 1369 93000000 		.4byte	0x93
 4928 136d 43       		.uleb128 0x43
 4929 136e A2000000 		.4byte	0xa2
 4930 1372 43       		.uleb128 0x43
 4931 1373 8C000000 		.4byte	0x8c
 4932 1377 00       		.byte	0
 4933 1378 42       		.uleb128 0x42
 4934 1379 51030000 		.4byte	.LASF192
 4935 137d 0A       		.byte	0xa
 4936 137e 18       		.byte	0x18
 4937 137f 93000000 		.4byte	0x93
 4938 1383 97130000 		.4byte	0x1397
 4939 1387 43       		.uleb128 0x43
 4940 1388 93000000 		.4byte	0x93
 4941 138c 43       		.uleb128 0x43
 4942 138d A2000000 		.4byte	0xa2
 4943 1391 43       		.uleb128 0x43
 4944 1392 2C000000 		.4byte	0x2c
 4945 1396 00       		.byte	0
 4946 1397 45       		.uleb128 0x45
 4947 1398 180B0000 		.4byte	.LASF200
 4948 139c 0C       		.byte	0xc
 4949 139d 36       		.byte	0x36
 4950 139e 70000000 		.4byte	0x70
 4951 13a2 00       		.byte	0
 4952              		.section	.debug_abbrev,"",%progbits
 4953              	.Ldebug_abbrev0:
 4954 0000 01       		.uleb128 0x1
 4955 0001 11       		.uleb128 0x11
 4956 0002 01       		.byte	0x1
 4957 0003 25       		.uleb128 0x25
 4958 0004 0E       		.uleb128 0xe
 4959 0005 13       		.uleb128 0x13
 4960 0006 0B       		.uleb128 0xb
 4961 0007 03       		.uleb128 0x3
 4962 0008 0E       		.uleb128 0xe
 4963 0009 1B       		.uleb128 0x1b
 4964 000a 0E       		.uleb128 0xe
 4965 000b 55       		.uleb128 0x55
 4966 000c 17       		.uleb128 0x17
 4967 000d 11       		.uleb128 0x11
 4968 000e 01       		.uleb128 0x1
 4969 000f 10       		.uleb128 0x10
 4970 0010 17       		.uleb128 0x17
 4971 0011 00       		.byte	0
ARM GAS  C:\Users\ADMINI~1\AppData\Local\Temp\ccRFd3Cg.s 			page 110


 4972 0012 00       		.byte	0
 4973 0013 02       		.uleb128 0x2
 4974 0014 24       		.uleb128 0x24
 4975 0015 00       		.byte	0
 4976 0016 0B       		.uleb128 0xb
 4977 0017 0B       		.uleb128 0xb
 4978 0018 3E       		.uleb128 0x3e
 4979 0019 0B       		.uleb128 0xb
 4980 001a 03       		.uleb128 0x3
 4981 001b 08       		.uleb128 0x8
 4982 001c 00       		.byte	0
 4983 001d 00       		.byte	0
 4984 001e 03       		.uleb128 0x3
 4985 001f 16       		.uleb128 0x16
 4986 0020 00       		.byte	0
 4987 0021 03       		.uleb128 0x3
 4988 0022 0E       		.uleb128 0xe
 4989 0023 3A       		.uleb128 0x3a
 4990 0024 0B       		.uleb128 0xb
 4991 0025 3B       		.uleb128 0x3b
 4992 0026 0B       		.uleb128 0xb
 4993 0027 49       		.uleb128 0x49
 4994 0028 13       		.uleb128 0x13
 4995 0029 00       		.byte	0
 4996 002a 00       		.byte	0
 4997 002b 04       		.uleb128 0x4
 4998 002c 24       		.uleb128 0x24
 4999 002d 00       		.byte	0
 5000 002e 0B       		.uleb128 0xb
 5001 002f 0B       		.uleb128 0xb
 5002 0030 3E       		.uleb128 0x3e
 5003 0031 0B       		.uleb128 0xb
 5004 0032 03       		.uleb128 0x3
 5005 0033 0E       		.uleb128 0xe
 5006 0034 00       		.byte	0
 5007 0035 00       		.byte	0
 5008 0036 05       		.uleb128 0x5
 5009 0037 0F       		.uleb128 0xf
 5010 0038 00       		.byte	0
 5011 0039 0B       		.uleb128 0xb
 5012 003a 0B       		.uleb128 0xb
 5013 003b 00       		.byte	0
 5014 003c 00       		.byte	0
 5015 003d 06       		.uleb128 0x6
 5016 003e 0F       		.uleb128 0xf
 5017 003f 00       		.byte	0
 5018 0040 0B       		.uleb128 0xb
 5019 0041 0B       		.uleb128 0xb
 5020 0042 49       		.uleb128 0x49
 5021 0043 13       		.uleb128 0x13
 5022 0044 00       		.byte	0
 5023 0045 00       		.byte	0
 5024 0046 07       		.uleb128 0x7
 5025 0047 26       		.uleb128 0x26
 5026 0048 00       		.byte	0
 5027 0049 00       		.byte	0
 5028 004a 00       		.byte	0
ARM GAS  C:\Users\ADMINI~1\AppData\Local\Temp\ccRFd3Cg.s 			page 111


 5029 004b 08       		.uleb128 0x8
 5030 004c 04       		.uleb128 0x4
 5031 004d 01       		.byte	0x1
 5032 004e 03       		.uleb128 0x3
 5033 004f 0E       		.uleb128 0xe
 5034 0050 0B       		.uleb128 0xb
 5035 0051 0B       		.uleb128 0xb
 5036 0052 3A       		.uleb128 0x3a
 5037 0053 0B       		.uleb128 0xb
 5038 0054 3B       		.uleb128 0x3b
 5039 0055 05       		.uleb128 0x5
 5040 0056 01       		.uleb128 0x1
 5041 0057 13       		.uleb128 0x13
 5042 0058 00       		.byte	0
 5043 0059 00       		.byte	0
 5044 005a 09       		.uleb128 0x9
 5045 005b 28       		.uleb128 0x28
 5046 005c 00       		.byte	0
 5047 005d 03       		.uleb128 0x3
 5048 005e 0E       		.uleb128 0xe
 5049 005f 1C       		.uleb128 0x1c
 5050 0060 0D       		.uleb128 0xd
 5051 0061 00       		.byte	0
 5052 0062 00       		.byte	0
 5053 0063 0A       		.uleb128 0xa
 5054 0064 13       		.uleb128 0x13
 5055 0065 01       		.byte	0x1
 5056 0066 03       		.uleb128 0x3
 5057 0067 0E       		.uleb128 0xe
 5058 0068 0B       		.uleb128 0xb
 5059 0069 0B       		.uleb128 0xb
 5060 006a 3A       		.uleb128 0x3a
 5061 006b 0B       		.uleb128 0xb
 5062 006c 3B       		.uleb128 0x3b
 5063 006d 0B       		.uleb128 0xb
 5064 006e 01       		.uleb128 0x1
 5065 006f 13       		.uleb128 0x13
 5066 0070 00       		.byte	0
 5067 0071 00       		.byte	0
 5068 0072 0B       		.uleb128 0xb
 5069 0073 0D       		.uleb128 0xd
 5070 0074 00       		.byte	0
 5071 0075 03       		.uleb128 0x3
 5072 0076 0E       		.uleb128 0xe
 5073 0077 3A       		.uleb128 0x3a
 5074 0078 0B       		.uleb128 0xb
 5075 0079 3B       		.uleb128 0x3b
 5076 007a 0B       		.uleb128 0xb
 5077 007b 49       		.uleb128 0x49
 5078 007c 13       		.uleb128 0x13
 5079 007d 38       		.uleb128 0x38
 5080 007e 0B       		.uleb128 0xb
 5081 007f 00       		.byte	0
 5082 0080 00       		.byte	0
 5083 0081 0C       		.uleb128 0xc
 5084 0082 01       		.uleb128 0x1
 5085 0083 01       		.byte	0x1
ARM GAS  C:\Users\ADMINI~1\AppData\Local\Temp\ccRFd3Cg.s 			page 112


 5086 0084 49       		.uleb128 0x49
 5087 0085 13       		.uleb128 0x13
 5088 0086 01       		.uleb128 0x1
 5089 0087 13       		.uleb128 0x13
 5090 0088 00       		.byte	0
 5091 0089 00       		.byte	0
 5092 008a 0D       		.uleb128 0xd
 5093 008b 21       		.uleb128 0x21
 5094 008c 00       		.byte	0
 5095 008d 49       		.uleb128 0x49
 5096 008e 13       		.uleb128 0x13
 5097 008f 2F       		.uleb128 0x2f
 5098 0090 0B       		.uleb128 0xb
 5099 0091 00       		.byte	0
 5100 0092 00       		.byte	0
 5101 0093 0E       		.uleb128 0xe
 5102 0094 0D       		.uleb128 0xd
 5103 0095 00       		.byte	0
 5104 0096 03       		.uleb128 0x3
 5105 0097 0E       		.uleb128 0xe
 5106 0098 3A       		.uleb128 0x3a
 5107 0099 0B       		.uleb128 0xb
 5108 009a 3B       		.uleb128 0x3b
 5109 009b 0B       		.uleb128 0xb
 5110 009c 49       		.uleb128 0x49
 5111 009d 13       		.uleb128 0x13
 5112 009e 0B       		.uleb128 0xb
 5113 009f 0B       		.uleb128 0xb
 5114 00a0 0D       		.uleb128 0xd
 5115 00a1 0B       		.uleb128 0xb
 5116 00a2 0C       		.uleb128 0xc
 5117 00a3 0B       		.uleb128 0xb
 5118 00a4 38       		.uleb128 0x38
 5119 00a5 0B       		.uleb128 0xb
 5120 00a6 00       		.byte	0
 5121 00a7 00       		.byte	0
 5122 00a8 0F       		.uleb128 0xf
 5123 00a9 2E       		.uleb128 0x2e
 5124 00aa 01       		.byte	0x1
 5125 00ab 3F       		.uleb128 0x3f
 5126 00ac 19       		.uleb128 0x19
 5127 00ad 03       		.uleb128 0x3
 5128 00ae 0E       		.uleb128 0xe
 5129 00af 3A       		.uleb128 0x3a
 5130 00b0 0B       		.uleb128 0xb
 5131 00b1 3B       		.uleb128 0x3b
 5132 00b2 0B       		.uleb128 0xb
 5133 00b3 27       		.uleb128 0x27
 5134 00b4 19       		.uleb128 0x19
 5135 00b5 49       		.uleb128 0x49
 5136 00b6 13       		.uleb128 0x13
 5137 00b7 20       		.uleb128 0x20
 5138 00b8 0B       		.uleb128 0xb
 5139 00b9 01       		.uleb128 0x1
 5140 00ba 13       		.uleb128 0x13
 5141 00bb 00       		.byte	0
 5142 00bc 00       		.byte	0
ARM GAS  C:\Users\ADMINI~1\AppData\Local\Temp\ccRFd3Cg.s 			page 113


 5143 00bd 10       		.uleb128 0x10
 5144 00be 05       		.uleb128 0x5
 5145 00bf 00       		.byte	0
 5146 00c0 03       		.uleb128 0x3
 5147 00c1 08       		.uleb128 0x8
 5148 00c2 3A       		.uleb128 0x3a
 5149 00c3 0B       		.uleb128 0xb
 5150 00c4 3B       		.uleb128 0x3b
 5151 00c5 0B       		.uleb128 0xb
 5152 00c6 49       		.uleb128 0x49
 5153 00c7 13       		.uleb128 0x13
 5154 00c8 00       		.byte	0
 5155 00c9 00       		.byte	0
 5156 00ca 11       		.uleb128 0x11
 5157 00cb 34       		.uleb128 0x34
 5158 00cc 00       		.byte	0
 5159 00cd 03       		.uleb128 0x3
 5160 00ce 0E       		.uleb128 0xe
 5161 00cf 3A       		.uleb128 0x3a
 5162 00d0 0B       		.uleb128 0xb
 5163 00d1 3B       		.uleb128 0x3b
 5164 00d2 0B       		.uleb128 0xb
 5165 00d3 49       		.uleb128 0x49
 5166 00d4 13       		.uleb128 0x13
 5167 00d5 00       		.byte	0
 5168 00d6 00       		.byte	0
 5169 00d7 12       		.uleb128 0x12
 5170 00d8 2E       		.uleb128 0x2e
 5171 00d9 01       		.byte	0x1
 5172 00da 03       		.uleb128 0x3
 5173 00db 0E       		.uleb128 0xe
 5174 00dc 3A       		.uleb128 0x3a
 5175 00dd 0B       		.uleb128 0xb
 5176 00de 3B       		.uleb128 0x3b
 5177 00df 0B       		.uleb128 0xb
 5178 00e0 27       		.uleb128 0x27
 5179 00e1 19       		.uleb128 0x19
 5180 00e2 49       		.uleb128 0x49
 5181 00e3 13       		.uleb128 0x13
 5182 00e4 20       		.uleb128 0x20
 5183 00e5 0B       		.uleb128 0xb
 5184 00e6 01       		.uleb128 0x1
 5185 00e7 13       		.uleb128 0x13
 5186 00e8 00       		.byte	0
 5187 00e9 00       		.byte	0
 5188 00ea 13       		.uleb128 0x13
 5189 00eb 05       		.uleb128 0x5
 5190 00ec 00       		.byte	0
 5191 00ed 03       		.uleb128 0x3
 5192 00ee 0E       		.uleb128 0xe
 5193 00ef 3A       		.uleb128 0x3a
 5194 00f0 0B       		.uleb128 0xb
 5195 00f1 3B       		.uleb128 0x3b
 5196 00f2 0B       		.uleb128 0xb
 5197 00f3 49       		.uleb128 0x49
 5198 00f4 13       		.uleb128 0x13
 5199 00f5 00       		.byte	0
ARM GAS  C:\Users\ADMINI~1\AppData\Local\Temp\ccRFd3Cg.s 			page 114


 5200 00f6 00       		.byte	0
 5201 00f7 14       		.uleb128 0x14
 5202 00f8 2E       		.uleb128 0x2e
 5203 00f9 01       		.byte	0x1
 5204 00fa 03       		.uleb128 0x3
 5205 00fb 0E       		.uleb128 0xe
 5206 00fc 3A       		.uleb128 0x3a
 5207 00fd 0B       		.uleb128 0xb
 5208 00fe 3B       		.uleb128 0x3b
 5209 00ff 0B       		.uleb128 0xb
 5210 0100 27       		.uleb128 0x27
 5211 0101 19       		.uleb128 0x19
 5212 0102 49       		.uleb128 0x49
 5213 0103 13       		.uleb128 0x13
 5214 0104 11       		.uleb128 0x11
 5215 0105 01       		.uleb128 0x1
 5216 0106 12       		.uleb128 0x12
 5217 0107 06       		.uleb128 0x6
 5218 0108 40       		.uleb128 0x40
 5219 0109 18       		.uleb128 0x18
 5220 010a 9742     		.uleb128 0x2117
 5221 010c 19       		.uleb128 0x19
 5222 010d 01       		.uleb128 0x1
 5223 010e 13       		.uleb128 0x13
 5224 010f 00       		.byte	0
 5225 0110 00       		.byte	0
 5226 0111 15       		.uleb128 0x15
 5227 0112 05       		.uleb128 0x5
 5228 0113 00       		.byte	0
 5229 0114 03       		.uleb128 0x3
 5230 0115 0E       		.uleb128 0xe
 5231 0116 3A       		.uleb128 0x3a
 5232 0117 0B       		.uleb128 0xb
 5233 0118 3B       		.uleb128 0x3b
 5234 0119 0B       		.uleb128 0xb
 5235 011a 49       		.uleb128 0x49
 5236 011b 13       		.uleb128 0x13
 5237 011c 02       		.uleb128 0x2
 5238 011d 17       		.uleb128 0x17
 5239 011e 00       		.byte	0
 5240 011f 00       		.byte	0
 5241 0120 16       		.uleb128 0x16
 5242 0121 34       		.uleb128 0x34
 5243 0122 00       		.byte	0
 5244 0123 03       		.uleb128 0x3
 5245 0124 08       		.uleb128 0x8
 5246 0125 3A       		.uleb128 0x3a
 5247 0126 0B       		.uleb128 0xb
 5248 0127 3B       		.uleb128 0x3b
 5249 0128 0B       		.uleb128 0xb
 5250 0129 49       		.uleb128 0x49
 5251 012a 13       		.uleb128 0x13
 5252 012b 02       		.uleb128 0x2
 5253 012c 17       		.uleb128 0x17
 5254 012d 00       		.byte	0
 5255 012e 00       		.byte	0
 5256 012f 17       		.uleb128 0x17
ARM GAS  C:\Users\ADMINI~1\AppData\Local\Temp\ccRFd3Cg.s 			page 115


 5257 0130 2E       		.uleb128 0x2e
 5258 0131 01       		.byte	0x1
 5259 0132 03       		.uleb128 0x3
 5260 0133 0E       		.uleb128 0xe
 5261 0134 3A       		.uleb128 0x3a
 5262 0135 0B       		.uleb128 0xb
 5263 0136 3B       		.uleb128 0x3b
 5264 0137 05       		.uleb128 0x5
 5265 0138 27       		.uleb128 0x27
 5266 0139 19       		.uleb128 0x19
 5267 013a 49       		.uleb128 0x49
 5268 013b 13       		.uleb128 0x13
 5269 013c 11       		.uleb128 0x11
 5270 013d 01       		.uleb128 0x1
 5271 013e 12       		.uleb128 0x12
 5272 013f 06       		.uleb128 0x6
 5273 0140 40       		.uleb128 0x40
 5274 0141 18       		.uleb128 0x18
 5275 0142 9742     		.uleb128 0x2117
 5276 0144 19       		.uleb128 0x19
 5277 0145 01       		.uleb128 0x1
 5278 0146 13       		.uleb128 0x13
 5279 0147 00       		.byte	0
 5280 0148 00       		.byte	0
 5281 0149 18       		.uleb128 0x18
 5282 014a 05       		.uleb128 0x5
 5283 014b 00       		.byte	0
 5284 014c 03       		.uleb128 0x3
 5285 014d 0E       		.uleb128 0xe
 5286 014e 3A       		.uleb128 0x3a
 5287 014f 0B       		.uleb128 0xb
 5288 0150 3B       		.uleb128 0x3b
 5289 0151 05       		.uleb128 0x5
 5290 0152 49       		.uleb128 0x49
 5291 0153 13       		.uleb128 0x13
 5292 0154 02       		.uleb128 0x2
 5293 0155 17       		.uleb128 0x17
 5294 0156 00       		.byte	0
 5295 0157 00       		.byte	0
 5296 0158 19       		.uleb128 0x19
 5297 0159 34       		.uleb128 0x34
 5298 015a 00       		.byte	0
 5299 015b 03       		.uleb128 0x3
 5300 015c 0E       		.uleb128 0xe
 5301 015d 3A       		.uleb128 0x3a
 5302 015e 0B       		.uleb128 0xb
 5303 015f 3B       		.uleb128 0x3b
 5304 0160 05       		.uleb128 0x5
 5305 0161 49       		.uleb128 0x49
 5306 0162 13       		.uleb128 0x13
 5307 0163 02       		.uleb128 0x2
 5308 0164 17       		.uleb128 0x17
 5309 0165 00       		.byte	0
 5310 0166 00       		.byte	0
 5311 0167 1A       		.uleb128 0x1a
 5312 0168 2E       		.uleb128 0x2e
 5313 0169 01       		.byte	0x1
ARM GAS  C:\Users\ADMINI~1\AppData\Local\Temp\ccRFd3Cg.s 			page 116


 5314 016a 31       		.uleb128 0x31
 5315 016b 13       		.uleb128 0x13
 5316 016c 11       		.uleb128 0x11
 5317 016d 01       		.uleb128 0x1
 5318 016e 12       		.uleb128 0x12
 5319 016f 06       		.uleb128 0x6
 5320 0170 40       		.uleb128 0x40
 5321 0171 18       		.uleb128 0x18
 5322 0172 9742     		.uleb128 0x2117
 5323 0174 19       		.uleb128 0x19
 5324 0175 01       		.uleb128 0x1
 5325 0176 13       		.uleb128 0x13
 5326 0177 00       		.byte	0
 5327 0178 00       		.byte	0
 5328 0179 1B       		.uleb128 0x1b
 5329 017a 05       		.uleb128 0x5
 5330 017b 00       		.byte	0
 5331 017c 31       		.uleb128 0x31
 5332 017d 13       		.uleb128 0x13
 5333 017e 02       		.uleb128 0x2
 5334 017f 17       		.uleb128 0x17
 5335 0180 00       		.byte	0
 5336 0181 00       		.byte	0
 5337 0182 1C       		.uleb128 0x1c
 5338 0183 34       		.uleb128 0x34
 5339 0184 00       		.byte	0
 5340 0185 31       		.uleb128 0x31
 5341 0186 13       		.uleb128 0x13
 5342 0187 02       		.uleb128 0x2
 5343 0188 18       		.uleb128 0x18
 5344 0189 00       		.byte	0
 5345 018a 00       		.byte	0
 5346 018b 1D       		.uleb128 0x1d
 5347 018c 898201   		.uleb128 0x4109
 5348 018f 01       		.byte	0x1
 5349 0190 11       		.uleb128 0x11
 5350 0191 01       		.uleb128 0x1
 5351 0192 31       		.uleb128 0x31
 5352 0193 13       		.uleb128 0x13
 5353 0194 00       		.byte	0
 5354 0195 00       		.byte	0
 5355 0196 1E       		.uleb128 0x1e
 5356 0197 8A8201   		.uleb128 0x410a
 5357 019a 00       		.byte	0
 5358 019b 02       		.uleb128 0x2
 5359 019c 18       		.uleb128 0x18
 5360 019d 9142     		.uleb128 0x2111
 5361 019f 18       		.uleb128 0x18
 5362 01a0 00       		.byte	0
 5363 01a1 00       		.byte	0
 5364 01a2 1F       		.uleb128 0x1f
 5365 01a3 2E       		.uleb128 0x2e
 5366 01a4 01       		.byte	0x1
 5367 01a5 3F       		.uleb128 0x3f
 5368 01a6 19       		.uleb128 0x19
 5369 01a7 03       		.uleb128 0x3
 5370 01a8 0E       		.uleb128 0xe
ARM GAS  C:\Users\ADMINI~1\AppData\Local\Temp\ccRFd3Cg.s 			page 117


 5371 01a9 3A       		.uleb128 0x3a
 5372 01aa 0B       		.uleb128 0xb
 5373 01ab 3B       		.uleb128 0x3b
 5374 01ac 0B       		.uleb128 0xb
 5375 01ad 27       		.uleb128 0x27
 5376 01ae 19       		.uleb128 0x19
 5377 01af 49       		.uleb128 0x49
 5378 01b0 13       		.uleb128 0x13
 5379 01b1 11       		.uleb128 0x11
 5380 01b2 01       		.uleb128 0x1
 5381 01b3 12       		.uleb128 0x12
 5382 01b4 06       		.uleb128 0x6
 5383 01b5 40       		.uleb128 0x40
 5384 01b6 18       		.uleb128 0x18
 5385 01b7 9742     		.uleb128 0x2117
 5386 01b9 19       		.uleb128 0x19
 5387 01ba 01       		.uleb128 0x1
 5388 01bb 13       		.uleb128 0x13
 5389 01bc 00       		.byte	0
 5390 01bd 00       		.byte	0
 5391 01be 20       		.uleb128 0x20
 5392 01bf 34       		.uleb128 0x34
 5393 01c0 00       		.byte	0
 5394 01c1 03       		.uleb128 0x3
 5395 01c2 0E       		.uleb128 0xe
 5396 01c3 3A       		.uleb128 0x3a
 5397 01c4 0B       		.uleb128 0xb
 5398 01c5 3B       		.uleb128 0x3b
 5399 01c6 0B       		.uleb128 0xb
 5400 01c7 49       		.uleb128 0x49
 5401 01c8 13       		.uleb128 0x13
 5402 01c9 02       		.uleb128 0x2
 5403 01ca 17       		.uleb128 0x17
 5404 01cb 00       		.byte	0
 5405 01cc 00       		.byte	0
 5406 01cd 21       		.uleb128 0x21
 5407 01ce 34       		.uleb128 0x34
 5408 01cf 00       		.byte	0
 5409 01d0 03       		.uleb128 0x3
 5410 01d1 08       		.uleb128 0x8
 5411 01d2 3A       		.uleb128 0x3a
 5412 01d3 0B       		.uleb128 0xb
 5413 01d4 3B       		.uleb128 0x3b
 5414 01d5 0B       		.uleb128 0xb
 5415 01d6 49       		.uleb128 0x49
 5416 01d7 13       		.uleb128 0x13
 5417 01d8 02       		.uleb128 0x2
 5418 01d9 18       		.uleb128 0x18
 5419 01da 00       		.byte	0
 5420 01db 00       		.byte	0
 5421 01dc 22       		.uleb128 0x22
 5422 01dd 898201   		.uleb128 0x4109
 5423 01e0 01       		.byte	0x1
 5424 01e1 11       		.uleb128 0x11
 5425 01e2 01       		.uleb128 0x1
 5426 01e3 31       		.uleb128 0x31
 5427 01e4 13       		.uleb128 0x13
ARM GAS  C:\Users\ADMINI~1\AppData\Local\Temp\ccRFd3Cg.s 			page 118


 5428 01e5 01       		.uleb128 0x1
 5429 01e6 13       		.uleb128 0x13
 5430 01e7 00       		.byte	0
 5431 01e8 00       		.byte	0
 5432 01e9 23       		.uleb128 0x23
 5433 01ea 34       		.uleb128 0x34
 5434 01eb 00       		.byte	0
 5435 01ec 03       		.uleb128 0x3
 5436 01ed 0E       		.uleb128 0xe
 5437 01ee 3A       		.uleb128 0x3a
 5438 01ef 0B       		.uleb128 0xb
 5439 01f0 3B       		.uleb128 0x3b
 5440 01f1 0B       		.uleb128 0xb
 5441 01f2 49       		.uleb128 0x49
 5442 01f3 13       		.uleb128 0x13
 5443 01f4 02       		.uleb128 0x2
 5444 01f5 18       		.uleb128 0x18
 5445 01f6 00       		.byte	0
 5446 01f7 00       		.byte	0
 5447 01f8 24       		.uleb128 0x24
 5448 01f9 34       		.uleb128 0x34
 5449 01fa 00       		.byte	0
 5450 01fb 31       		.uleb128 0x31
 5451 01fc 13       		.uleb128 0x13
 5452 01fd 00       		.byte	0
 5453 01fe 00       		.byte	0
 5454 01ff 25       		.uleb128 0x25
 5455 0200 34       		.uleb128 0x34
 5456 0201 00       		.byte	0
 5457 0202 31       		.uleb128 0x31
 5458 0203 13       		.uleb128 0x13
 5459 0204 1C       		.uleb128 0x1c
 5460 0205 0B       		.uleb128 0xb
 5461 0206 00       		.byte	0
 5462 0207 00       		.byte	0
 5463 0208 26       		.uleb128 0x26
 5464 0209 1D       		.uleb128 0x1d
 5465 020a 01       		.byte	0x1
 5466 020b 31       		.uleb128 0x31
 5467 020c 13       		.uleb128 0x13
 5468 020d 52       		.uleb128 0x52
 5469 020e 01       		.uleb128 0x1
 5470 020f 55       		.uleb128 0x55
 5471 0210 17       		.uleb128 0x17
 5472 0211 58       		.uleb128 0x58
 5473 0212 0B       		.uleb128 0xb
 5474 0213 59       		.uleb128 0x59
 5475 0214 0B       		.uleb128 0xb
 5476 0215 01       		.uleb128 0x1
 5477 0216 13       		.uleb128 0x13
 5478 0217 00       		.byte	0
 5479 0218 00       		.byte	0
 5480 0219 27       		.uleb128 0x27
 5481 021a 0B       		.uleb128 0xb
 5482 021b 01       		.byte	0x1
 5483 021c 55       		.uleb128 0x55
 5484 021d 17       		.uleb128 0x17
ARM GAS  C:\Users\ADMINI~1\AppData\Local\Temp\ccRFd3Cg.s 			page 119


 5485 021e 00       		.byte	0
 5486 021f 00       		.byte	0
 5487 0220 28       		.uleb128 0x28
 5488 0221 34       		.uleb128 0x34
 5489 0222 00       		.byte	0
 5490 0223 31       		.uleb128 0x31
 5491 0224 13       		.uleb128 0x13
 5492 0225 02       		.uleb128 0x2
 5493 0226 17       		.uleb128 0x17
 5494 0227 00       		.byte	0
 5495 0228 00       		.byte	0
 5496 0229 29       		.uleb128 0x29
 5497 022a 05       		.uleb128 0x5
 5498 022b 00       		.byte	0
 5499 022c 03       		.uleb128 0x3
 5500 022d 08       		.uleb128 0x8
 5501 022e 3A       		.uleb128 0x3a
 5502 022f 0B       		.uleb128 0xb
 5503 0230 3B       		.uleb128 0x3b
 5504 0231 0B       		.uleb128 0xb
 5505 0232 49       		.uleb128 0x49
 5506 0233 13       		.uleb128 0x13
 5507 0234 02       		.uleb128 0x2
 5508 0235 17       		.uleb128 0x17
 5509 0236 00       		.byte	0
 5510 0237 00       		.byte	0
 5511 0238 2A       		.uleb128 0x2a
 5512 0239 0B       		.uleb128 0xb
 5513 023a 01       		.byte	0x1
 5514 023b 11       		.uleb128 0x11
 5515 023c 01       		.uleb128 0x1
 5516 023d 12       		.uleb128 0x12
 5517 023e 06       		.uleb128 0x6
 5518 023f 00       		.byte	0
 5519 0240 00       		.byte	0
 5520 0241 2B       		.uleb128 0x2b
 5521 0242 898201   		.uleb128 0x4109
 5522 0245 00       		.byte	0
 5523 0246 11       		.uleb128 0x11
 5524 0247 01       		.uleb128 0x1
 5525 0248 31       		.uleb128 0x31
 5526 0249 13       		.uleb128 0x13
 5527 024a 00       		.byte	0
 5528 024b 00       		.byte	0
 5529 024c 2C       		.uleb128 0x2c
 5530 024d 1D       		.uleb128 0x1d
 5531 024e 01       		.byte	0x1
 5532 024f 31       		.uleb128 0x31
 5533 0250 13       		.uleb128 0x13
 5534 0251 11       		.uleb128 0x11
 5535 0252 01       		.uleb128 0x1
 5536 0253 12       		.uleb128 0x12
 5537 0254 06       		.uleb128 0x6
 5538 0255 58       		.uleb128 0x58
 5539 0256 0B       		.uleb128 0xb
 5540 0257 59       		.uleb128 0x59
 5541 0258 0B       		.uleb128 0xb
ARM GAS  C:\Users\ADMINI~1\AppData\Local\Temp\ccRFd3Cg.s 			page 120


 5542 0259 01       		.uleb128 0x1
 5543 025a 13       		.uleb128 0x13
 5544 025b 00       		.byte	0
 5545 025c 00       		.byte	0
 5546 025d 2D       		.uleb128 0x2d
 5547 025e 0B       		.uleb128 0xb
 5548 025f 01       		.byte	0x1
 5549 0260 11       		.uleb128 0x11
 5550 0261 01       		.uleb128 0x1
 5551 0262 12       		.uleb128 0x12
 5552 0263 06       		.uleb128 0x6
 5553 0264 01       		.uleb128 0x1
 5554 0265 13       		.uleb128 0x13
 5555 0266 00       		.byte	0
 5556 0267 00       		.byte	0
 5557 0268 2E       		.uleb128 0x2e
 5558 0269 2E       		.uleb128 0x2e
 5559 026a 01       		.byte	0x1
 5560 026b 03       		.uleb128 0x3
 5561 026c 0E       		.uleb128 0xe
 5562 026d 3A       		.uleb128 0x3a
 5563 026e 0B       		.uleb128 0xb
 5564 026f 3B       		.uleb128 0x3b
 5565 0270 05       		.uleb128 0x5
 5566 0271 27       		.uleb128 0x27
 5567 0272 19       		.uleb128 0x19
 5568 0273 49       		.uleb128 0x49
 5569 0274 13       		.uleb128 0x13
 5570 0275 20       		.uleb128 0x20
 5571 0276 0B       		.uleb128 0xb
 5572 0277 01       		.uleb128 0x1
 5573 0278 13       		.uleb128 0x13
 5574 0279 00       		.byte	0
 5575 027a 00       		.byte	0
 5576 027b 2F       		.uleb128 0x2f
 5577 027c 05       		.uleb128 0x5
 5578 027d 00       		.byte	0
 5579 027e 03       		.uleb128 0x3
 5580 027f 0E       		.uleb128 0xe
 5581 0280 3A       		.uleb128 0x3a
 5582 0281 0B       		.uleb128 0xb
 5583 0282 3B       		.uleb128 0x3b
 5584 0283 05       		.uleb128 0x5
 5585 0284 49       		.uleb128 0x49
 5586 0285 13       		.uleb128 0x13
 5587 0286 00       		.byte	0
 5588 0287 00       		.byte	0
 5589 0288 30       		.uleb128 0x30
 5590 0289 34       		.uleb128 0x34
 5591 028a 00       		.byte	0
 5592 028b 03       		.uleb128 0x3
 5593 028c 0E       		.uleb128 0xe
 5594 028d 3A       		.uleb128 0x3a
 5595 028e 0B       		.uleb128 0xb
 5596 028f 3B       		.uleb128 0x3b
 5597 0290 05       		.uleb128 0x5
 5598 0291 49       		.uleb128 0x49
ARM GAS  C:\Users\ADMINI~1\AppData\Local\Temp\ccRFd3Cg.s 			page 121


 5599 0292 13       		.uleb128 0x13
 5600 0293 00       		.byte	0
 5601 0294 00       		.byte	0
 5602 0295 31       		.uleb128 0x31
 5603 0296 0A       		.uleb128 0xa
 5604 0297 00       		.byte	0
 5605 0298 03       		.uleb128 0x3
 5606 0299 0E       		.uleb128 0xe
 5607 029a 3A       		.uleb128 0x3a
 5608 029b 0B       		.uleb128 0xb
 5609 029c 3B       		.uleb128 0x3b
 5610 029d 05       		.uleb128 0x5
 5611 029e 00       		.byte	0
 5612 029f 00       		.byte	0
 5613 02a0 32       		.uleb128 0x32
 5614 02a1 0B       		.uleb128 0xb
 5615 02a2 01       		.byte	0x1
 5616 02a3 00       		.byte	0
 5617 02a4 00       		.byte	0
 5618 02a5 33       		.uleb128 0x33
 5619 02a6 2E       		.uleb128 0x2e
 5620 02a7 01       		.byte	0x1
 5621 02a8 3F       		.uleb128 0x3f
 5622 02a9 19       		.uleb128 0x19
 5623 02aa 03       		.uleb128 0x3
 5624 02ab 0E       		.uleb128 0xe
 5625 02ac 3A       		.uleb128 0x3a
 5626 02ad 0B       		.uleb128 0xb
 5627 02ae 3B       		.uleb128 0x3b
 5628 02af 05       		.uleb128 0x5
 5629 02b0 27       		.uleb128 0x27
 5630 02b1 19       		.uleb128 0x19
 5631 02b2 49       		.uleb128 0x49
 5632 02b3 13       		.uleb128 0x13
 5633 02b4 11       		.uleb128 0x11
 5634 02b5 01       		.uleb128 0x1
 5635 02b6 12       		.uleb128 0x12
 5636 02b7 06       		.uleb128 0x6
 5637 02b8 40       		.uleb128 0x40
 5638 02b9 18       		.uleb128 0x18
 5639 02ba 9742     		.uleb128 0x2117
 5640 02bc 19       		.uleb128 0x19
 5641 02bd 01       		.uleb128 0x1
 5642 02be 13       		.uleb128 0x13
 5643 02bf 00       		.byte	0
 5644 02c0 00       		.byte	0
 5645 02c1 34       		.uleb128 0x34
 5646 02c2 34       		.uleb128 0x34
 5647 02c3 00       		.byte	0
 5648 02c4 03       		.uleb128 0x3
 5649 02c5 0E       		.uleb128 0xe
 5650 02c6 3A       		.uleb128 0x3a
 5651 02c7 0B       		.uleb128 0xb
 5652 02c8 3B       		.uleb128 0x3b
 5653 02c9 05       		.uleb128 0x5
 5654 02ca 49       		.uleb128 0x49
 5655 02cb 13       		.uleb128 0x13
ARM GAS  C:\Users\ADMINI~1\AppData\Local\Temp\ccRFd3Cg.s 			page 122


 5656 02cc 02       		.uleb128 0x2
 5657 02cd 18       		.uleb128 0x18
 5658 02ce 00       		.byte	0
 5659 02cf 00       		.byte	0
 5660 02d0 35       		.uleb128 0x35
 5661 02d1 0A       		.uleb128 0xa
 5662 02d2 00       		.byte	0
 5663 02d3 03       		.uleb128 0x3
 5664 02d4 0E       		.uleb128 0xe
 5665 02d5 3A       		.uleb128 0x3a
 5666 02d6 0B       		.uleb128 0xb
 5667 02d7 3B       		.uleb128 0x3b
 5668 02d8 05       		.uleb128 0x5
 5669 02d9 11       		.uleb128 0x11
 5670 02da 01       		.uleb128 0x1
 5671 02db 00       		.byte	0
 5672 02dc 00       		.byte	0
 5673 02dd 36       		.uleb128 0x36
 5674 02de 1D       		.uleb128 0x1d
 5675 02df 01       		.byte	0x1
 5676 02e0 31       		.uleb128 0x31
 5677 02e1 13       		.uleb128 0x13
 5678 02e2 52       		.uleb128 0x52
 5679 02e3 01       		.uleb128 0x1
 5680 02e4 55       		.uleb128 0x55
 5681 02e5 17       		.uleb128 0x17
 5682 02e6 58       		.uleb128 0x58
 5683 02e7 0B       		.uleb128 0xb
 5684 02e8 59       		.uleb128 0x59
 5685 02e9 05       		.uleb128 0x5
 5686 02ea 01       		.uleb128 0x1
 5687 02eb 13       		.uleb128 0x13
 5688 02ec 00       		.byte	0
 5689 02ed 00       		.byte	0
 5690 02ee 37       		.uleb128 0x37
 5691 02ef 0A       		.uleb128 0xa
 5692 02f0 00       		.byte	0
 5693 02f1 31       		.uleb128 0x31
 5694 02f2 13       		.uleb128 0x13
 5695 02f3 00       		.byte	0
 5696 02f4 00       		.byte	0
 5697 02f5 38       		.uleb128 0x38
 5698 02f6 2E       		.uleb128 0x2e
 5699 02f7 01       		.byte	0x1
 5700 02f8 3F       		.uleb128 0x3f
 5701 02f9 19       		.uleb128 0x19
 5702 02fa 03       		.uleb128 0x3
 5703 02fb 0E       		.uleb128 0xe
 5704 02fc 3A       		.uleb128 0x3a
 5705 02fd 0B       		.uleb128 0xb
 5706 02fe 3B       		.uleb128 0x3b
 5707 02ff 05       		.uleb128 0x5
 5708 0300 27       		.uleb128 0x27
 5709 0301 19       		.uleb128 0x19
 5710 0302 11       		.uleb128 0x11
 5711 0303 01       		.uleb128 0x1
 5712 0304 12       		.uleb128 0x12
ARM GAS  C:\Users\ADMINI~1\AppData\Local\Temp\ccRFd3Cg.s 			page 123


 5713 0305 06       		.uleb128 0x6
 5714 0306 40       		.uleb128 0x40
 5715 0307 18       		.uleb128 0x18
 5716 0308 9742     		.uleb128 0x2117
 5717 030a 19       		.uleb128 0x19
 5718 030b 01       		.uleb128 0x1
 5719 030c 13       		.uleb128 0x13
 5720 030d 00       		.byte	0
 5721 030e 00       		.byte	0
 5722 030f 39       		.uleb128 0x39
 5723 0310 05       		.uleb128 0x5
 5724 0311 00       		.byte	0
 5725 0312 03       		.uleb128 0x3
 5726 0313 0E       		.uleb128 0xe
 5727 0314 3A       		.uleb128 0x3a
 5728 0315 0B       		.uleb128 0xb
 5729 0316 3B       		.uleb128 0x3b
 5730 0317 05       		.uleb128 0x5
 5731 0318 49       		.uleb128 0x49
 5732 0319 13       		.uleb128 0x13
 5733 031a 02       		.uleb128 0x2
 5734 031b 18       		.uleb128 0x18
 5735 031c 00       		.byte	0
 5736 031d 00       		.byte	0
 5737 031e 3A       		.uleb128 0x3a
 5738 031f 26       		.uleb128 0x26
 5739 0320 00       		.byte	0
 5740 0321 49       		.uleb128 0x49
 5741 0322 13       		.uleb128 0x13
 5742 0323 00       		.byte	0
 5743 0324 00       		.byte	0
 5744 0325 3B       		.uleb128 0x3b
 5745 0326 05       		.uleb128 0x5
 5746 0327 00       		.byte	0
 5747 0328 03       		.uleb128 0x3
 5748 0329 08       		.uleb128 0x8
 5749 032a 3A       		.uleb128 0x3a
 5750 032b 0B       		.uleb128 0xb
 5751 032c 3B       		.uleb128 0x3b
 5752 032d 05       		.uleb128 0x5
 5753 032e 49       		.uleb128 0x49
 5754 032f 13       		.uleb128 0x13
 5755 0330 02       		.uleb128 0x2
 5756 0331 17       		.uleb128 0x17
 5757 0332 00       		.byte	0
 5758 0333 00       		.byte	0
 5759 0334 3C       		.uleb128 0x3c
 5760 0335 34       		.uleb128 0x34
 5761 0336 00       		.byte	0
 5762 0337 03       		.uleb128 0x3
 5763 0338 08       		.uleb128 0x8
 5764 0339 3A       		.uleb128 0x3a
 5765 033a 0B       		.uleb128 0xb
 5766 033b 3B       		.uleb128 0x3b
 5767 033c 05       		.uleb128 0x5
 5768 033d 49       		.uleb128 0x49
 5769 033e 13       		.uleb128 0x13
ARM GAS  C:\Users\ADMINI~1\AppData\Local\Temp\ccRFd3Cg.s 			page 124


 5770 033f 02       		.uleb128 0x2
 5771 0340 17       		.uleb128 0x17
 5772 0341 00       		.byte	0
 5773 0342 00       		.byte	0
 5774 0343 3D       		.uleb128 0x3d
 5775 0344 05       		.uleb128 0x5
 5776 0345 00       		.byte	0
 5777 0346 03       		.uleb128 0x3
 5778 0347 08       		.uleb128 0x8
 5779 0348 3A       		.uleb128 0x3a
 5780 0349 0B       		.uleb128 0xb
 5781 034a 3B       		.uleb128 0x3b
 5782 034b 05       		.uleb128 0x5
 5783 034c 49       		.uleb128 0x49
 5784 034d 13       		.uleb128 0x13
 5785 034e 02       		.uleb128 0x2
 5786 034f 18       		.uleb128 0x18
 5787 0350 00       		.byte	0
 5788 0351 00       		.byte	0
 5789 0352 3E       		.uleb128 0x3e
 5790 0353 2E       		.uleb128 0x2e
 5791 0354 00       		.byte	0
 5792 0355 3F       		.uleb128 0x3f
 5793 0356 19       		.uleb128 0x19
 5794 0357 03       		.uleb128 0x3
 5795 0358 0E       		.uleb128 0xe
 5796 0359 3A       		.uleb128 0x3a
 5797 035a 0B       		.uleb128 0xb
 5798 035b 3B       		.uleb128 0x3b
 5799 035c 05       		.uleb128 0x5
 5800 035d 27       		.uleb128 0x27
 5801 035e 19       		.uleb128 0x19
 5802 035f 49       		.uleb128 0x49
 5803 0360 13       		.uleb128 0x13
 5804 0361 11       		.uleb128 0x11
 5805 0362 01       		.uleb128 0x1
 5806 0363 12       		.uleb128 0x12
 5807 0364 06       		.uleb128 0x6
 5808 0365 40       		.uleb128 0x40
 5809 0366 18       		.uleb128 0x18
 5810 0367 9742     		.uleb128 0x2117
 5811 0369 19       		.uleb128 0x19
 5812 036a 00       		.byte	0
 5813 036b 00       		.byte	0
 5814 036c 3F       		.uleb128 0x3f
 5815 036d 21       		.uleb128 0x21
 5816 036e 00       		.byte	0
 5817 036f 49       		.uleb128 0x49
 5818 0370 13       		.uleb128 0x13
 5819 0371 2F       		.uleb128 0x2f
 5820 0372 05       		.uleb128 0x5
 5821 0373 00       		.byte	0
 5822 0374 00       		.byte	0
 5823 0375 40       		.uleb128 0x40
 5824 0376 34       		.uleb128 0x34
 5825 0377 00       		.byte	0
 5826 0378 03       		.uleb128 0x3
ARM GAS  C:\Users\ADMINI~1\AppData\Local\Temp\ccRFd3Cg.s 			page 125


 5827 0379 0E       		.uleb128 0xe
 5828 037a 3A       		.uleb128 0x3a
 5829 037b 0B       		.uleb128 0xb
 5830 037c 3B       		.uleb128 0x3b
 5831 037d 0B       		.uleb128 0xb
 5832 037e 49       		.uleb128 0x49
 5833 037f 13       		.uleb128 0x13
 5834 0380 3F       		.uleb128 0x3f
 5835 0381 19       		.uleb128 0x19
 5836 0382 3C       		.uleb128 0x3c
 5837 0383 19       		.uleb128 0x19
 5838 0384 00       		.byte	0
 5839 0385 00       		.byte	0
 5840 0386 41       		.uleb128 0x41
 5841 0387 34       		.uleb128 0x34
 5842 0388 00       		.byte	0
 5843 0389 03       		.uleb128 0x3
 5844 038a 08       		.uleb128 0x8
 5845 038b 3A       		.uleb128 0x3a
 5846 038c 0B       		.uleb128 0xb
 5847 038d 3B       		.uleb128 0x3b
 5848 038e 0B       		.uleb128 0xb
 5849 038f 49       		.uleb128 0x49
 5850 0390 13       		.uleb128 0x13
 5851 0391 3F       		.uleb128 0x3f
 5852 0392 19       		.uleb128 0x19
 5853 0393 02       		.uleb128 0x2
 5854 0394 18       		.uleb128 0x18
 5855 0395 00       		.byte	0
 5856 0396 00       		.byte	0
 5857 0397 42       		.uleb128 0x42
 5858 0398 2E       		.uleb128 0x2e
 5859 0399 01       		.byte	0x1
 5860 039a 3F       		.uleb128 0x3f
 5861 039b 19       		.uleb128 0x19
 5862 039c 03       		.uleb128 0x3
 5863 039d 0E       		.uleb128 0xe
 5864 039e 3A       		.uleb128 0x3a
 5865 039f 0B       		.uleb128 0xb
 5866 03a0 3B       		.uleb128 0x3b
 5867 03a1 0B       		.uleb128 0xb
 5868 03a2 27       		.uleb128 0x27
 5869 03a3 19       		.uleb128 0x19
 5870 03a4 49       		.uleb128 0x49
 5871 03a5 13       		.uleb128 0x13
 5872 03a6 3C       		.uleb128 0x3c
 5873 03a7 19       		.uleb128 0x19
 5874 03a8 01       		.uleb128 0x1
 5875 03a9 13       		.uleb128 0x13
 5876 03aa 00       		.byte	0
 5877 03ab 00       		.byte	0
 5878 03ac 43       		.uleb128 0x43
 5879 03ad 05       		.uleb128 0x5
 5880 03ae 00       		.byte	0
 5881 03af 49       		.uleb128 0x49
 5882 03b0 13       		.uleb128 0x13
 5883 03b1 00       		.byte	0
ARM GAS  C:\Users\ADMINI~1\AppData\Local\Temp\ccRFd3Cg.s 			page 126


 5884 03b2 00       		.byte	0
 5885 03b3 44       		.uleb128 0x44
 5886 03b4 2E       		.uleb128 0x2e
 5887 03b5 01       		.byte	0x1
 5888 03b6 3F       		.uleb128 0x3f
 5889 03b7 19       		.uleb128 0x19
 5890 03b8 03       		.uleb128 0x3
 5891 03b9 0E       		.uleb128 0xe
 5892 03ba 27       		.uleb128 0x27
 5893 03bb 19       		.uleb128 0x19
 5894 03bc 49       		.uleb128 0x49
 5895 03bd 13       		.uleb128 0x13
 5896 03be 34       		.uleb128 0x34
 5897 03bf 19       		.uleb128 0x19
 5898 03c0 3C       		.uleb128 0x3c
 5899 03c1 19       		.uleb128 0x19
 5900 03c2 01       		.uleb128 0x1
 5901 03c3 13       		.uleb128 0x13
 5902 03c4 00       		.byte	0
 5903 03c5 00       		.byte	0
 5904 03c6 45       		.uleb128 0x45
 5905 03c7 2E       		.uleb128 0x2e
 5906 03c8 00       		.byte	0
 5907 03c9 3F       		.uleb128 0x3f
 5908 03ca 19       		.uleb128 0x19
 5909 03cb 03       		.uleb128 0x3
 5910 03cc 0E       		.uleb128 0xe
 5911 03cd 3A       		.uleb128 0x3a
 5912 03ce 0B       		.uleb128 0xb
 5913 03cf 3B       		.uleb128 0x3b
 5914 03d0 0B       		.uleb128 0xb
 5915 03d1 27       		.uleb128 0x27
 5916 03d2 19       		.uleb128 0x19
 5917 03d3 49       		.uleb128 0x49
 5918 03d4 13       		.uleb128 0x13
 5919 03d5 3C       		.uleb128 0x3c
 5920 03d6 19       		.uleb128 0x19
 5921 03d7 00       		.byte	0
 5922 03d8 00       		.byte	0
 5923 03d9 00       		.byte	0
 5924              		.section	.debug_loc,"",%progbits
 5925              	.Ldebug_loc0:
 5926              	.LLST0:
 5927 0000 00000000 		.4byte	.LVL0
 5928 0004 E0000000 		.4byte	.LVL15
 5929 0008 0100     		.2byte	0x1
 5930 000a 50       		.byte	0x50
 5931 000b E0000000 		.4byte	.LVL15
 5932 000f EA000000 		.4byte	.LVL17
 5933 0013 0400     		.2byte	0x4
 5934 0015 F3       		.byte	0xf3
 5935 0016 01       		.uleb128 0x1
 5936 0017 50       		.byte	0x50
 5937 0018 9F       		.byte	0x9f
 5938 0019 EA000000 		.4byte	.LVL17
 5939 001d EC000000 		.4byte	.LVL18
 5940 0021 0100     		.2byte	0x1
ARM GAS  C:\Users\ADMINI~1\AppData\Local\Temp\ccRFd3Cg.s 			page 127


 5941 0023 50       		.byte	0x50
 5942 0024 EC000000 		.4byte	.LVL18
 5943 0028 2C010000 		.4byte	.LFE10
 5944 002c 0400     		.2byte	0x4
 5945 002e F3       		.byte	0xf3
 5946 002f 01       		.uleb128 0x1
 5947 0030 50       		.byte	0x50
 5948 0031 9F       		.byte	0x9f
 5949 0032 00000000 		.4byte	0
 5950 0036 00000000 		.4byte	0
 5951              	.LLST1:
 5952 003a 00000000 		.4byte	.LVL0
 5953 003e D8000000 		.4byte	.LVL14
 5954 0042 0100     		.2byte	0x1
 5955 0044 51       		.byte	0x51
 5956 0045 D8000000 		.4byte	.LVL14
 5957 0049 2C010000 		.4byte	.LFE10
 5958 004d 0400     		.2byte	0x4
 5959 004f F3       		.byte	0xf3
 5960 0050 01       		.uleb128 0x1
 5961 0051 51       		.byte	0x51
 5962 0052 9F       		.byte	0x9f
 5963 0053 00000000 		.4byte	0
 5964 0057 00000000 		.4byte	0
 5965              	.LLST2:
 5966 005b 00000000 		.4byte	.LVL0
 5967 005f 16010000 		.4byte	.LVL23
 5968 0063 0100     		.2byte	0x1
 5969 0065 52       		.byte	0x52
 5970 0066 16010000 		.4byte	.LVL23
 5971 006a 2C010000 		.4byte	.LFE10
 5972 006e 0400     		.2byte	0x4
 5973 0070 F3       		.byte	0xf3
 5974 0071 01       		.uleb128 0x1
 5975 0072 52       		.byte	0x52
 5976 0073 9F       		.byte	0x9f
 5977 0074 00000000 		.4byte	0
 5978 0078 00000000 		.4byte	0
 5979              	.LLST3:
 5980 007c 00000000 		.4byte	.LVL0
 5981 0080 22010000 		.4byte	.LVL25
 5982 0084 0100     		.2byte	0x1
 5983 0086 53       		.byte	0x53
 5984 0087 22010000 		.4byte	.LVL25
 5985 008b 28010000 		.4byte	.LVL26
 5986 008f 0400     		.2byte	0x4
 5987 0091 73       		.byte	0x73
 5988 0092 A67F     		.sleb128 -90
 5989 0094 9F       		.byte	0x9f
 5990 0095 28010000 		.4byte	.LVL26
 5991 0099 2C010000 		.4byte	.LFE10
 5992 009d 0400     		.2byte	0x4
 5993 009f F3       		.byte	0xf3
 5994 00a0 01       		.uleb128 0x1
 5995 00a1 53       		.byte	0x53
 5996 00a2 9F       		.byte	0x9f
 5997 00a3 00000000 		.4byte	0
ARM GAS  C:\Users\ADMINI~1\AppData\Local\Temp\ccRFd3Cg.s 			page 128


 5998 00a7 00000000 		.4byte	0
 5999              	.LLST4:
 6000 00ab 00000000 		.4byte	.LVL0
 6001 00af 14000000 		.4byte	.LVL1
 6002 00b3 0200     		.2byte	0x2
 6003 00b5 32       		.byte	0x32
 6004 00b6 9F       		.byte	0x9f
 6005 00b7 14000000 		.4byte	.LVL1
 6006 00bb 22000000 		.4byte	.LVL2
 6007 00bf 0200     		.2byte	0x2
 6008 00c1 38       		.byte	0x38
 6009 00c2 9F       		.byte	0x9f
 6010 00c3 22000000 		.4byte	.LVL2
 6011 00c7 28000000 		.4byte	.LVL3
 6012 00cb 0100     		.2byte	0x1
 6013 00cd 54       		.byte	0x54
 6014 00ce 28000000 		.4byte	.LVL3
 6015 00d2 34000000 		.4byte	.LVL4
 6016 00d6 0300     		.2byte	0x3
 6017 00d8 74       		.byte	0x74
 6018 00d9 06       		.sleb128 6
 6019 00da 9F       		.byte	0x9f
 6020 00db 34000000 		.4byte	.LVL4
 6021 00df 28010000 		.4byte	.LVL26
 6022 00e3 0100     		.2byte	0x1
 6023 00e5 54       		.byte	0x54
 6024 00e6 28010000 		.4byte	.LVL26
 6025 00ea 2A010000 		.4byte	.LVL27
 6026 00ee 0300     		.2byte	0x3
 6027 00f0 74       		.byte	0x74
 6028 00f1 02       		.sleb128 2
 6029 00f2 9F       		.byte	0x9f
 6030 00f3 2A010000 		.4byte	.LVL27
 6031 00f7 2C010000 		.4byte	.LFE10
 6032 00fb 0100     		.2byte	0x1
 6033 00fd 50       		.byte	0x50
 6034 00fe 00000000 		.4byte	0
 6035 0102 00000000 		.4byte	0
 6036              	.LLST5:
 6037 0106 00000000 		.4byte	.LVL28
 6038 010a 0A000000 		.4byte	.LVL30
 6039 010e 0100     		.2byte	0x1
 6040 0110 50       		.byte	0x50
 6041 0111 0A000000 		.4byte	.LVL30
 6042 0115 30000000 		.4byte	.LFE11
 6043 0119 0400     		.2byte	0x4
 6044 011b F3       		.byte	0xf3
 6045 011c 01       		.uleb128 0x1
 6046 011d 50       		.byte	0x50
 6047 011e 9F       		.byte	0x9f
 6048 011f 00000000 		.4byte	0
 6049 0123 00000000 		.4byte	0
 6050              	.LLST6:
 6051 0127 00000000 		.4byte	.LVL28
 6052 012b 18000000 		.4byte	.LVL32
 6053 012f 0100     		.2byte	0x1
 6054 0131 51       		.byte	0x51
ARM GAS  C:\Users\ADMINI~1\AppData\Local\Temp\ccRFd3Cg.s 			page 129


 6055 0132 18000000 		.4byte	.LVL32
 6056 0136 20000000 		.4byte	.LVL33
 6057 013a 0400     		.2byte	0x4
 6058 013c F3       		.byte	0xf3
 6059 013d 01       		.uleb128 0x1
 6060 013e 51       		.byte	0x51
 6061 013f 9F       		.byte	0x9f
 6062 0140 20000000 		.4byte	.LVL33
 6063 0144 22000000 		.4byte	.LVL34
 6064 0148 0100     		.2byte	0x1
 6065 014a 51       		.byte	0x51
 6066 014b 22000000 		.4byte	.LVL34
 6067 014f 30000000 		.4byte	.LFE11
 6068 0153 0400     		.2byte	0x4
 6069 0155 F3       		.byte	0xf3
 6070 0156 01       		.uleb128 0x1
 6071 0157 51       		.byte	0x51
 6072 0158 9F       		.byte	0x9f
 6073 0159 00000000 		.4byte	0
 6074 015d 00000000 		.4byte	0
 6075              	.LLST7:
 6076 0161 00000000 		.4byte	.LVL28
 6077 0165 04000000 		.4byte	.LVL29
 6078 0169 0200     		.2byte	0x2
 6079 016b 30       		.byte	0x30
 6080 016c 9F       		.byte	0x9f
 6081 016d 04000000 		.4byte	.LVL29
 6082 0171 20000000 		.4byte	.LVL33
 6083 0175 0300     		.2byte	0x3
 6084 0177 09       		.byte	0x9
 6085 0178 F8       		.byte	0xf8
 6086 0179 9F       		.byte	0x9f
 6087 017a 00000000 		.4byte	0
 6088 017e 00000000 		.4byte	0
 6089              	.LLST8:
 6090 0182 00000000 		.4byte	.LVL28
 6091 0186 10000000 		.4byte	.LVL31
 6092 018a 0200     		.2byte	0x2
 6093 018c 30       		.byte	0x30
 6094 018d 9F       		.byte	0x9f
 6095 018e 10000000 		.4byte	.LVL31
 6096 0192 20000000 		.4byte	.LVL33
 6097 0196 0400     		.2byte	0x4
 6098 0198 0A       		.byte	0xa
 6099 0199 8074     		.2byte	0x7480
 6100 019b 9F       		.byte	0x9f
 6101 019c 00000000 		.4byte	0
 6102 01a0 00000000 		.4byte	0
 6103              	.LLST9:
 6104 01a4 00000000 		.4byte	.LVL35
 6105 01a8 0A000000 		.4byte	.LVL36
 6106 01ac 0100     		.2byte	0x1
 6107 01ae 50       		.byte	0x50
 6108 01af 0A000000 		.4byte	.LVL36
 6109 01b3 28000000 		.4byte	.LVL38
 6110 01b7 0100     		.2byte	0x1
 6111 01b9 54       		.byte	0x54
ARM GAS  C:\Users\ADMINI~1\AppData\Local\Temp\ccRFd3Cg.s 			page 130


 6112 01ba 28000000 		.4byte	.LVL38
 6113 01be 30000000 		.4byte	.LFE36
 6114 01c2 0400     		.2byte	0x4
 6115 01c4 F3       		.byte	0xf3
 6116 01c5 01       		.uleb128 0x1
 6117 01c6 50       		.byte	0x50
 6118 01c7 9F       		.byte	0x9f
 6119 01c8 00000000 		.4byte	0
 6120 01cc 00000000 		.4byte	0
 6121              	.LLST10:
 6122 01d0 00000000 		.4byte	.LVL39
 6123 01d4 0E000000 		.4byte	.LVL40
 6124 01d8 0100     		.2byte	0x1
 6125 01da 50       		.byte	0x50
 6126 01db 0E000000 		.4byte	.LVL40
 6127 01df 2C000000 		.4byte	.LFE4
 6128 01e3 0400     		.2byte	0x4
 6129 01e5 F3       		.byte	0xf3
 6130 01e6 01       		.uleb128 0x1
 6131 01e7 50       		.byte	0x50
 6132 01e8 9F       		.byte	0x9f
 6133 01e9 00000000 		.4byte	0
 6134 01ed 00000000 		.4byte	0
 6135              	.LLST11:
 6136 01f1 00000000 		.4byte	.LVL39
 6137 01f5 18000000 		.4byte	.LVL42
 6138 01f9 0200     		.2byte	0x2
 6139 01fb 30       		.byte	0x30
 6140 01fc 9F       		.byte	0x9f
 6141 01fd 18000000 		.4byte	.LVL42
 6142 0201 22000000 		.4byte	.LVL43
 6143 0205 0100     		.2byte	0x1
 6144 0207 50       		.byte	0x50
 6145 0208 22000000 		.4byte	.LVL43
 6146 020c 28000000 		.4byte	.LVL44
 6147 0210 0100     		.2byte	0x1
 6148 0212 55       		.byte	0x55
 6149 0213 28000000 		.4byte	.LVL44
 6150 0217 2A000000 		.4byte	.LVL45
 6151 021b 0600     		.2byte	0x6
 6152 021d 70       		.byte	0x70
 6153 021e 00       		.sleb128 0
 6154 021f 75       		.byte	0x75
 6155 0220 00       		.sleb128 0
 6156 0221 21       		.byte	0x21
 6157 0222 9F       		.byte	0x9f
 6158 0223 2A000000 		.4byte	.LVL45
 6159 0227 2C000000 		.4byte	.LFE4
 6160 022b 0100     		.2byte	0x1
 6161 022d 50       		.byte	0x50
 6162 022e 00000000 		.4byte	0
 6163 0232 00000000 		.4byte	0
 6164              	.LLST12:
 6165 0236 00000000 		.4byte	.LVL46
 6166 023a 10000000 		.4byte	.LVL47
 6167 023e 0100     		.2byte	0x1
 6168 0240 50       		.byte	0x50
ARM GAS  C:\Users\ADMINI~1\AppData\Local\Temp\ccRFd3Cg.s 			page 131


 6169 0241 10000000 		.4byte	.LVL47
 6170 0245 38000000 		.4byte	.LVL50
 6171 0249 0100     		.2byte	0x1
 6172 024b 54       		.byte	0x54
 6173 024c 38000000 		.4byte	.LVL50
 6174 0250 3A000000 		.4byte	.LFE5
 6175 0254 0400     		.2byte	0x4
 6176 0256 F3       		.byte	0xf3
 6177 0257 01       		.uleb128 0x1
 6178 0258 50       		.byte	0x50
 6179 0259 9F       		.byte	0x9f
 6180 025a 00000000 		.4byte	0
 6181 025e 00000000 		.4byte	0
 6182              	.LLST13:
 6183 0262 00000000 		.4byte	.LVL46
 6184 0266 18000000 		.4byte	.LVL48
 6185 026a 0200     		.2byte	0x2
 6186 026c 30       		.byte	0x30
 6187 026d 9F       		.byte	0x9f
 6188 026e 2A000000 		.4byte	.LVL49
 6189 0272 3A000000 		.4byte	.LFE5
 6190 0276 0100     		.2byte	0x1
 6191 0278 50       		.byte	0x50
 6192 0279 00000000 		.4byte	0
 6193 027d 00000000 		.4byte	0
 6194              	.LLST14:
 6195 0281 00000000 		.4byte	.LVL51
 6196 0285 06000000 		.4byte	.LVL52
 6197 0289 0100     		.2byte	0x1
 6198 028b 50       		.byte	0x50
 6199 028c 06000000 		.4byte	.LVL52
 6200 0290 0F000000 		.4byte	.LVL53-1
 6201 0294 0100     		.2byte	0x1
 6202 0296 53       		.byte	0x53
 6203 0297 0F000000 		.4byte	.LVL53-1
 6204 029b 12000000 		.4byte	.LFE6
 6205 029f 0400     		.2byte	0x4
 6206 02a1 F3       		.byte	0xf3
 6207 02a2 01       		.uleb128 0x1
 6208 02a3 50       		.byte	0x50
 6209 02a4 9F       		.byte	0x9f
 6210 02a5 00000000 		.4byte	0
 6211 02a9 00000000 		.4byte	0
 6212              	.LLST15:
 6213 02ad 0A000000 		.4byte	.LVL54
 6214 02b1 16000000 		.4byte	.LVL55
 6215 02b5 0500     		.2byte	0x5
 6216 02b7 37       		.byte	0x37
 6217 02b8 74       		.byte	0x74
 6218 02b9 00       		.sleb128 0
 6219 02ba 1C       		.byte	0x1c
 6220 02bb 9F       		.byte	0x9f
 6221 02bc 1C000000 		.4byte	.LVL56
 6222 02c0 4C000000 		.4byte	.LVL67
 6223 02c4 0500     		.2byte	0x5
 6224 02c6 37       		.byte	0x37
 6225 02c7 74       		.byte	0x74
ARM GAS  C:\Users\ADMINI~1\AppData\Local\Temp\ccRFd3Cg.s 			page 132


 6226 02c8 00       		.sleb128 0
 6227 02c9 1C       		.byte	0x1c
 6228 02ca 9F       		.byte	0x9f
 6229 02cb 00000000 		.4byte	0
 6230 02cf 00000000 		.4byte	0
 6231              	.LLST16:
 6232 02d3 0A000000 		.4byte	.LVL54
 6233 02d7 2A000000 		.4byte	.LVL58
 6234 02db 0200     		.2byte	0x2
 6235 02dd 30       		.byte	0x30
 6236 02de 9F       		.byte	0x9f
 6237 02df 2A000000 		.4byte	.LVL58
 6238 02e3 2C000000 		.4byte	.LVL59
 6239 02e7 0100     		.2byte	0x1
 6240 02e9 50       		.byte	0x50
 6241 02ea 2C000000 		.4byte	.LVL59
 6242 02ee 48000000 		.4byte	.LVL66
 6243 02f2 0100     		.2byte	0x1
 6244 02f4 55       		.byte	0x55
 6245 02f5 48000000 		.4byte	.LVL66
 6246 02f9 4C000000 		.4byte	.LVL67
 6247 02fd 0100     		.2byte	0x1
 6248 02ff 50       		.byte	0x50
 6249 0300 4C000000 		.4byte	.LVL67
 6250 0304 58000000 		.4byte	.LVL68
 6251 0308 0200     		.2byte	0x2
 6252 030a 30       		.byte	0x30
 6253 030b 9F       		.byte	0x9f
 6254 030c 00000000 		.4byte	0
 6255 0310 00000000 		.4byte	0
 6256              	.LLST17:
 6257 0314 42000000 		.4byte	.LVL64
 6258 0318 45000000 		.4byte	.LVL65-1
 6259 031c 0100     		.2byte	0x1
 6260 031e 50       		.byte	0x50
 6261 031f 45000000 		.4byte	.LVL65-1
 6262 0323 4C000000 		.4byte	.LVL67
 6263 0327 0300     		.2byte	0x3
 6264 0329 91       		.byte	0x91
 6265 032a 6C       		.sleb128 -20
 6266 032b 9F       		.byte	0x9f
 6267 032c 00000000 		.4byte	0
 6268 0330 00000000 		.4byte	0
 6269              	.LLST18:
 6270 0334 42000000 		.4byte	.LVL64
 6271 0338 4C000000 		.4byte	.LVL67
 6272 033c 0200     		.2byte	0x2
 6273 033e 30       		.byte	0x30
 6274 033f 9F       		.byte	0x9f
 6275 0340 00000000 		.4byte	0
 6276 0344 00000000 		.4byte	0
 6277              	.LLST19:
 6278 0348 00000000 		.4byte	.LVL69
 6279 034c 08000000 		.4byte	.LVL70
 6280 0350 0100     		.2byte	0x1
 6281 0352 50       		.byte	0x50
 6282 0353 08000000 		.4byte	.LVL70
ARM GAS  C:\Users\ADMINI~1\AppData\Local\Temp\ccRFd3Cg.s 			page 133


 6283 0357 40000000 		.4byte	.LFE8
 6284 035b 0200     		.2byte	0x2
 6285 035d 91       		.byte	0x91
 6286 035e 64       		.sleb128 -28
 6287 035f 00000000 		.4byte	0
 6288 0363 00000000 		.4byte	0
 6289              	.LLST20:
 6290 0367 00000000 		.4byte	.LVL69
 6291 036b 08000000 		.4byte	.LVL70
 6292 036f 0100     		.2byte	0x1
 6293 0371 51       		.byte	0x51
 6294 0372 08000000 		.4byte	.LVL70
 6295 0376 38000000 		.4byte	.LVL80
 6296 037a 0100     		.2byte	0x1
 6297 037c 57       		.byte	0x57
 6298 037d 38000000 		.4byte	.LVL80
 6299 0381 40000000 		.4byte	.LFE8
 6300 0385 0400     		.2byte	0x4
 6301 0387 F3       		.byte	0xf3
 6302 0388 01       		.uleb128 0x1
 6303 0389 51       		.byte	0x51
 6304 038a 9F       		.byte	0x9f
 6305 038b 00000000 		.4byte	0
 6306 038f 00000000 		.4byte	0
 6307              	.LLST21:
 6308 0393 08000000 		.4byte	.LVL70
 6309 0397 22000000 		.4byte	.LVL73
 6310 039b 0200     		.2byte	0x2
 6311 039d 30       		.byte	0x30
 6312 039e 9F       		.byte	0x9f
 6313 039f 22000000 		.4byte	.LVL73
 6314 03a3 27000000 		.4byte	.LVL74-1
 6315 03a7 0100     		.2byte	0x1
 6316 03a9 50       		.byte	0x50
 6317 03aa 27000000 		.4byte	.LVL74-1
 6318 03ae 30000000 		.4byte	.LVL75
 6319 03b2 0100     		.2byte	0x1
 6320 03b4 56       		.byte	0x56
 6321 03b5 30000000 		.4byte	.LVL75
 6322 03b9 34000000 		.4byte	.LVL77
 6323 03bd 0100     		.2byte	0x1
 6324 03bf 50       		.byte	0x50
 6325 03c0 34000000 		.4byte	.LVL77
 6326 03c4 36000000 		.4byte	.LVL78
 6327 03c8 0200     		.2byte	0x2
 6328 03ca 30       		.byte	0x30
 6329 03cb 9F       		.byte	0x9f
 6330 03cc 00000000 		.4byte	0
 6331 03d0 00000000 		.4byte	0
 6332              	.LLST22:
 6333 03d4 00000000 		.4byte	.LVL69
 6334 03d8 08000000 		.4byte	.LVL70
 6335 03dc 0200     		.2byte	0x2
 6336 03de 30       		.byte	0x30
 6337 03df 9F       		.byte	0x9f
 6338 03e0 08000000 		.4byte	.LVL70
 6339 03e4 38000000 		.4byte	.LVL79
ARM GAS  C:\Users\ADMINI~1\AppData\Local\Temp\ccRFd3Cg.s 			page 134


 6340 03e8 0100     		.2byte	0x1
 6341 03ea 54       		.byte	0x54
 6342 03eb 00000000 		.4byte	0
 6343 03ef 00000000 		.4byte	0
 6344              	.LLST23:
 6345 03f3 14000000 		.4byte	.LVL71
 6346 03f7 34000000 		.4byte	.LVL77
 6347 03fb 0100     		.2byte	0x1
 6348 03fd 55       		.byte	0x55
 6349 03fe 00000000 		.4byte	0
 6350 0402 00000000 		.4byte	0
 6351              	.LLST24:
 6352 0406 00000000 		.4byte	.LVL81
 6353 040a 10000000 		.4byte	.LVL83
 6354 040e 0100     		.2byte	0x1
 6355 0410 50       		.byte	0x50
 6356 0411 10000000 		.4byte	.LVL83
 6357 0415 54000000 		.4byte	.LVL92
 6358 0419 0100     		.2byte	0x1
 6359 041b 57       		.byte	0x57
 6360 041c 54000000 		.4byte	.LVL92
 6361 0420 5C000000 		.4byte	.LFE9
 6362 0424 0400     		.2byte	0x4
 6363 0426 F3       		.byte	0xf3
 6364 0427 01       		.uleb128 0x1
 6365 0428 50       		.byte	0x50
 6366 0429 9F       		.byte	0x9f
 6367 042a 00000000 		.4byte	0
 6368 042e 00000000 		.4byte	0
 6369              	.LLST25:
 6370 0432 00000000 		.4byte	.LVL81
 6371 0436 13000000 		.4byte	.LVL84-1
 6372 043a 0100     		.2byte	0x1
 6373 043c 51       		.byte	0x51
 6374 043d 13000000 		.4byte	.LVL84-1
 6375 0441 54000000 		.4byte	.LVL91
 6376 0445 0100     		.2byte	0x1
 6377 0447 56       		.byte	0x56
 6378 0448 54000000 		.4byte	.LVL91
 6379 044c 5C000000 		.4byte	.LFE9
 6380 0450 0400     		.2byte	0x4
 6381 0452 F3       		.byte	0xf3
 6382 0453 01       		.uleb128 0x1
 6383 0454 51       		.byte	0x51
 6384 0455 9F       		.byte	0x9f
 6385 0456 00000000 		.4byte	0
 6386 045a 00000000 		.4byte	0
 6387              	.LLST26:
 6388 045e 00000000 		.4byte	.LVL81
 6389 0462 13000000 		.4byte	.LVL84-1
 6390 0466 0100     		.2byte	0x1
 6391 0468 52       		.byte	0x52
 6392 0469 13000000 		.4byte	.LVL84-1
 6393 046d 54000000 		.4byte	.LVL90
 6394 0471 0100     		.2byte	0x1
 6395 0473 55       		.byte	0x55
 6396 0474 54000000 		.4byte	.LVL90
ARM GAS  C:\Users\ADMINI~1\AppData\Local\Temp\ccRFd3Cg.s 			page 135


 6397 0478 5C000000 		.4byte	.LFE9
 6398 047c 0400     		.2byte	0x4
 6399 047e F3       		.byte	0xf3
 6400 047f 01       		.uleb128 0x1
 6401 0480 52       		.byte	0x52
 6402 0481 9F       		.byte	0x9f
 6403 0482 00000000 		.4byte	0
 6404 0486 00000000 		.4byte	0
 6405              	.LLST27:
 6406 048a 46000000 		.4byte	.LVL88
 6407 048e 50000000 		.4byte	.LVL89
 6408 0492 0100     		.2byte	0x1
 6409 0494 50       		.byte	0x50
 6410 0495 00000000 		.4byte	0
 6411 0499 00000000 		.4byte	0
 6412              	.LLST28:
 6413 049d 0E000000 		.4byte	.LVL82
 6414 04a1 10000000 		.4byte	.LVL83
 6415 04a5 0300     		.2byte	0x3
 6416 04a7 91       		.byte	0x91
 6417 04a8 64       		.sleb128 -28
 6418 04a9 9F       		.byte	0x9f
 6419 04aa 10000000 		.4byte	.LVL83
 6420 04ae 13000000 		.4byte	.LVL84-1
 6421 04b2 0100     		.2byte	0x1
 6422 04b4 50       		.byte	0x50
 6423 04b5 13000000 		.4byte	.LVL84-1
 6424 04b9 5C000000 		.4byte	.LFE9
 6425 04bd 0300     		.2byte	0x3
 6426 04bf 91       		.byte	0x91
 6427 04c0 64       		.sleb128 -28
 6428 04c1 9F       		.byte	0x9f
 6429 04c2 00000000 		.4byte	0
 6430 04c6 00000000 		.4byte	0
 6431              	.LLST29:
 6432 04ca 2C000000 		.4byte	.LVL85
 6433 04ce 40000000 		.4byte	.LVL87
 6434 04d2 0100     		.2byte	0x1
 6435 04d4 57       		.byte	0x57
 6436 04d5 00000000 		.4byte	0
 6437 04d9 00000000 		.4byte	0
 6438              	.LLST30:
 6439 04dd 2C000000 		.4byte	.LVL85
 6440 04e1 40000000 		.4byte	.LVL87
 6441 04e5 0100     		.2byte	0x1
 6442 04e7 56       		.byte	0x56
 6443 04e8 00000000 		.4byte	0
 6444 04ec 00000000 		.4byte	0
 6445              	.LLST31:
 6446 04f0 2C000000 		.4byte	.LVL85
 6447 04f4 40000000 		.4byte	.LVL87
 6448 04f8 0100     		.2byte	0x1
 6449 04fa 55       		.byte	0x55
 6450 04fb 00000000 		.4byte	0
 6451 04ff 00000000 		.4byte	0
 6452              	.LLST32:
 6453 0503 00000000 		.4byte	.LVL93
ARM GAS  C:\Users\ADMINI~1\AppData\Local\Temp\ccRFd3Cg.s 			page 136


 6454 0507 18000000 		.4byte	.LVL95
 6455 050b 0100     		.2byte	0x1
 6456 050d 50       		.byte	0x50
 6457 050e 18000000 		.4byte	.LVL95
 6458 0512 20000000 		.4byte	.LVL97
 6459 0516 0100     		.2byte	0x1
 6460 0518 54       		.byte	0x54
 6461 0519 20000000 		.4byte	.LVL97
 6462 051d 22000000 		.4byte	.LVL98
 6463 0521 0100     		.2byte	0x1
 6464 0523 50       		.byte	0x50
 6465 0524 22000000 		.4byte	.LVL98
 6466 0528 88000000 		.4byte	.LVL111
 6467 052c 0100     		.2byte	0x1
 6468 052e 54       		.byte	0x54
 6469 052f 88000000 		.4byte	.LVL111
 6470 0533 94000000 		.4byte	.LFE13
 6471 0537 0400     		.2byte	0x4
 6472 0539 F3       		.byte	0xf3
 6473 053a 01       		.uleb128 0x1
 6474 053b 50       		.byte	0x50
 6475 053c 9F       		.byte	0x9f
 6476 053d 00000000 		.4byte	0
 6477 0541 00000000 		.4byte	0
 6478              	.LLST33:
 6479 0545 00000000 		.4byte	.LVL93
 6480 0549 18000000 		.4byte	.LVL95
 6481 054d 0100     		.2byte	0x1
 6482 054f 51       		.byte	0x51
 6483 0550 18000000 		.4byte	.LVL95
 6484 0554 20000000 		.4byte	.LVL97
 6485 0558 0100     		.2byte	0x1
 6486 055a 56       		.byte	0x56
 6487 055b 20000000 		.4byte	.LVL97
 6488 055f 24000000 		.4byte	.LVL99
 6489 0563 0100     		.2byte	0x1
 6490 0565 51       		.byte	0x51
 6491 0566 24000000 		.4byte	.LVL99
 6492 056a 88000000 		.4byte	.LVL112
 6493 056e 0100     		.2byte	0x1
 6494 0570 56       		.byte	0x56
 6495 0571 88000000 		.4byte	.LVL112
 6496 0575 94000000 		.4byte	.LFE13
 6497 0579 0400     		.2byte	0x4
 6498 057b F3       		.byte	0xf3
 6499 057c 01       		.uleb128 0x1
 6500 057d 51       		.byte	0x51
 6501 057e 9F       		.byte	0x9f
 6502 057f 00000000 		.4byte	0
 6503 0583 00000000 		.4byte	0
 6504              	.LLST34:
 6505 0587 00000000 		.4byte	.LVL93
 6506 058b 0E000000 		.4byte	.LVL94
 6507 058f 0100     		.2byte	0x1
 6508 0591 52       		.byte	0x52
 6509 0592 0E000000 		.4byte	.LVL94
 6510 0596 94000000 		.4byte	.LFE13
ARM GAS  C:\Users\ADMINI~1\AppData\Local\Temp\ccRFd3Cg.s 			page 137


 6511 059a 0200     		.2byte	0x2
 6512 059c 91       		.byte	0x91
 6513 059d 5C       		.sleb128 -36
 6514 059e 00000000 		.4byte	0
 6515 05a2 00000000 		.4byte	0
 6516              	.LLST35:
 6517 05a6 1E000000 		.4byte	.LVL96
 6518 05aa 20000000 		.4byte	.LVL97
 6519 05ae 0200     		.2byte	0x2
 6520 05b0 91       		.byte	0x91
 6521 05b1 5C       		.sleb128 -36
 6522 05b2 40000000 		.4byte	.LVL101
 6523 05b6 7A000000 		.4byte	.LVL108
 6524 05ba 0200     		.2byte	0x2
 6525 05bc 91       		.byte	0x91
 6526 05bd 5C       		.sleb128 -36
 6527 05be 84000000 		.4byte	.LVL109
 6528 05c2 86000000 		.4byte	.LVL110
 6529 05c6 0200     		.2byte	0x2
 6530 05c8 91       		.byte	0x91
 6531 05c9 5C       		.sleb128 -36
 6532 05ca 00000000 		.4byte	0
 6533 05ce 00000000 		.4byte	0
 6534              	.LLST36:
 6535 05d2 1E000000 		.4byte	.LVL96
 6536 05d6 20000000 		.4byte	.LVL97
 6537 05da 0100     		.2byte	0x1
 6538 05dc 56       		.byte	0x56
 6539 05dd 40000000 		.4byte	.LVL101
 6540 05e1 7A000000 		.4byte	.LVL108
 6541 05e5 0100     		.2byte	0x1
 6542 05e7 56       		.byte	0x56
 6543 05e8 84000000 		.4byte	.LVL109
 6544 05ec 86000000 		.4byte	.LVL110
 6545 05f0 0100     		.2byte	0x1
 6546 05f2 56       		.byte	0x56
 6547 05f3 00000000 		.4byte	0
 6548 05f7 00000000 		.4byte	0
 6549              	.LLST37:
 6550 05fb 1E000000 		.4byte	.LVL96
 6551 05ff 20000000 		.4byte	.LVL97
 6552 0603 0100     		.2byte	0x1
 6553 0605 53       		.byte	0x53
 6554 0606 40000000 		.4byte	.LVL101
 6555 060a 7A000000 		.4byte	.LVL108
 6556 060e 0200     		.2byte	0x2
 6557 0610 7D       		.byte	0x7d
 6558 0611 00       		.sleb128 0
 6559 0612 84000000 		.4byte	.LVL109
 6560 0616 86000000 		.4byte	.LVL110
 6561 061a 0200     		.2byte	0x2
 6562 061c 7D       		.byte	0x7d
 6563 061d 00       		.sleb128 0
 6564 061e 00000000 		.4byte	0
 6565 0622 00000000 		.4byte	0
 6566              	.LLST38:
 6567 0626 1E000000 		.4byte	.LVL96
ARM GAS  C:\Users\ADMINI~1\AppData\Local\Temp\ccRFd3Cg.s 			page 138


 6568 062a 20000000 		.4byte	.LVL97
 6569 062e 0200     		.2byte	0x2
 6570 0630 30       		.byte	0x30
 6571 0631 9F       		.byte	0x9f
 6572 0632 40000000 		.4byte	.LVL101
 6573 0636 7A000000 		.4byte	.LVL108
 6574 063a 0100     		.2byte	0x1
 6575 063c 55       		.byte	0x55
 6576 063d 84000000 		.4byte	.LVL109
 6577 0641 86000000 		.4byte	.LVL110
 6578 0645 0100     		.2byte	0x1
 6579 0647 55       		.byte	0x55
 6580 0648 00000000 		.4byte	0
 6581 064c 00000000 		.4byte	0
 6582              	.LLST39:
 6583 0650 40000000 		.4byte	.LVL101
 6584 0654 48000000 		.4byte	.LVL103
 6585 0658 0100     		.2byte	0x1
 6586 065a 57       		.byte	0x57
 6587 065b 62000000 		.4byte	.LVL105
 6588 065f 6C000000 		.4byte	.LVL106
 6589 0663 0100     		.2byte	0x1
 6590 0665 50       		.byte	0x50
 6591 0666 6C000000 		.4byte	.LVL106
 6592 066a 7A000000 		.4byte	.LVL108
 6593 066e 0100     		.2byte	0x1
 6594 0670 57       		.byte	0x57
 6595 0671 00000000 		.4byte	0
 6596 0675 00000000 		.4byte	0
 6597              	.LLST40:
 6598 0679 00000000 		.4byte	.LVL115
 6599 067d 16000000 		.4byte	.LVL116
 6600 0681 0100     		.2byte	0x1
 6601 0683 50       		.byte	0x50
 6602 0684 16000000 		.4byte	.LVL116
 6603 0688 7C010000 		.4byte	.LVL142
 6604 068c 0100     		.2byte	0x1
 6605 068e 55       		.byte	0x55
 6606 068f 7C010000 		.4byte	.LVL142
 6607 0693 82010000 		.4byte	.LVL146
 6608 0697 0400     		.2byte	0x4
 6609 0699 75       		.byte	0x75
 6610 069a E07E     		.sleb128 -160
 6611 069c 9F       		.byte	0x9f
 6612 069d 82010000 		.4byte	.LVL146
 6613 06a1 82010000 		.4byte	.LVL148
 6614 06a5 0400     		.2byte	0x4
 6615 06a7 77       		.byte	0x77
 6616 06a8 E67E     		.sleb128 -154
 6617 06aa 9F       		.byte	0x9f
 6618 06ab 82010000 		.4byte	.LVL148
 6619 06af 84010000 		.4byte	.LFE18
 6620 06b3 0400     		.2byte	0x4
 6621 06b5 F3       		.byte	0xf3
 6622 06b6 01       		.uleb128 0x1
 6623 06b7 50       		.byte	0x50
 6624 06b8 9F       		.byte	0x9f
ARM GAS  C:\Users\ADMINI~1\AppData\Local\Temp\ccRFd3Cg.s 			page 139


 6625 06b9 00000000 		.4byte	0
 6626 06bd 00000000 		.4byte	0
 6627              	.LLST41:
 6628 06c1 00000000 		.4byte	.LVL115
 6629 06c5 19000000 		.4byte	.LVL117-1
 6630 06c9 0100     		.2byte	0x1
 6631 06cb 51       		.byte	0x51
 6632 06cc 19000000 		.4byte	.LVL117-1
 6633 06d0 44000000 		.4byte	.LVL119
 6634 06d4 0100     		.2byte	0x1
 6635 06d6 54       		.byte	0x54
 6636 06d7 44000000 		.4byte	.LVL119
 6637 06db 48000000 		.4byte	.LVL120
 6638 06df 0300     		.2byte	0x3
 6639 06e1 74       		.byte	0x74
 6640 06e2 06       		.sleb128 6
 6641 06e3 9F       		.byte	0x9f
 6642 06e4 48000000 		.4byte	.LVL120
 6643 06e8 4D000000 		.4byte	.LVL121-1
 6644 06ec 0100     		.2byte	0x1
 6645 06ee 51       		.byte	0x51
 6646 06ef 4D000000 		.4byte	.LVL121-1
 6647 06f3 50000000 		.4byte	.LVL122
 6648 06f7 0300     		.2byte	0x3
 6649 06f9 74       		.byte	0x74
 6650 06fa 06       		.sleb128 6
 6651 06fb 9F       		.byte	0x9f
 6652 06fc 50000000 		.4byte	.LVL122
 6653 0700 78010000 		.4byte	.LVL141
 6654 0704 0100     		.2byte	0x1
 6655 0706 54       		.byte	0x54
 6656 0707 78010000 		.4byte	.LVL141
 6657 070b 7E010000 		.4byte	.LVL143
 6658 070f 0300     		.2byte	0x3
 6659 0711 74       		.byte	0x74
 6660 0712 02       		.sleb128 2
 6661 0713 9F       		.byte	0x9f
 6662 0714 7E010000 		.4byte	.LVL143
 6663 0718 82010000 		.4byte	.LVL145
 6664 071c 0100     		.2byte	0x1
 6665 071e 54       		.byte	0x54
 6666 071f 00000000 		.4byte	0
 6667 0723 00000000 		.4byte	0
 6668              	.LLST42:
 6669 0727 00000000 		.4byte	.LVL115
 6670 072b 19000000 		.4byte	.LVL117-1
 6671 072f 0100     		.2byte	0x1
 6672 0731 51       		.byte	0x51
 6673 0732 19000000 		.4byte	.LVL117-1
 6674 0736 20000000 		.4byte	.LVL118
 6675 073a 0100     		.2byte	0x1
 6676 073c 54       		.byte	0x54
 6677 073d 20000000 		.4byte	.LVL118
 6678 0741 82010000 		.4byte	.LVL147
 6679 0745 0100     		.2byte	0x1
 6680 0747 56       		.byte	0x56
 6681 0748 82010000 		.4byte	.LVL147
ARM GAS  C:\Users\ADMINI~1\AppData\Local\Temp\ccRFd3Cg.s 			page 140


 6682 074c 84010000 		.4byte	.LFE18
 6683 0750 0400     		.2byte	0x4
 6684 0752 F3       		.byte	0xf3
 6685 0753 01       		.uleb128 0x1
 6686 0754 51       		.byte	0x51
 6687 0755 9F       		.byte	0x9f
 6688 0756 00000000 		.4byte	0
 6689 075a 00000000 		.4byte	0
 6690              	.LLST43:
 6691 075e 78010000 		.4byte	.LVL141
 6692 0762 7E010000 		.4byte	.LVL143
 6693 0766 1200     		.2byte	0x12
 6694 0768 74       		.byte	0x74
 6695 0769 00       		.sleb128 0
 6696 076a 94       		.byte	0x94
 6697 076b 01       		.byte	0x1
 6698 076c 08       		.byte	0x8
 6699 076d FF       		.byte	0xff
 6700 076e 1A       		.byte	0x1a
 6701 076f 38       		.byte	0x38
 6702 0770 24       		.byte	0x24
 6703 0771 74       		.byte	0x74
 6704 0772 01       		.sleb128 1
 6705 0773 94       		.byte	0x94
 6706 0774 01       		.byte	0x1
 6707 0775 08       		.byte	0x8
 6708 0776 FF       		.byte	0xff
 6709 0777 1A       		.byte	0x1a
 6710 0778 21       		.byte	0x21
 6711 0779 9F       		.byte	0x9f
 6712 077a 7E010000 		.4byte	.LVL143
 6713 077e 82010000 		.4byte	.LVL144
 6714 0782 1200     		.2byte	0x12
 6715 0784 74       		.byte	0x74
 6716 0785 7E       		.sleb128 -2
 6717 0786 94       		.byte	0x94
 6718 0787 01       		.byte	0x1
 6719 0788 08       		.byte	0x8
 6720 0789 FF       		.byte	0xff
 6721 078a 1A       		.byte	0x1a
 6722 078b 38       		.byte	0x38
 6723 078c 24       		.byte	0x24
 6724 078d 74       		.byte	0x74
 6725 078e 7F       		.sleb128 -1
 6726 078f 94       		.byte	0x94
 6727 0790 01       		.byte	0x1
 6728 0791 08       		.byte	0x8
 6729 0792 FF       		.byte	0xff
 6730 0793 1A       		.byte	0x1a
 6731 0794 21       		.byte	0x21
 6732 0795 9F       		.byte	0x9f
 6733 0796 00000000 		.4byte	0
 6734 079a 00000000 		.4byte	0
 6735              	.LLST44:
 6736 079e 00000000 		.4byte	.LVL149
 6737 07a2 10000000 		.4byte	.LVL150
 6738 07a6 0100     		.2byte	0x1
ARM GAS  C:\Users\ADMINI~1\AppData\Local\Temp\ccRFd3Cg.s 			page 141


 6739 07a8 50       		.byte	0x50
 6740 07a9 10000000 		.4byte	.LVL150
 6741 07ad 6A000000 		.4byte	.LVL160
 6742 07b1 0200     		.2byte	0x2
 6743 07b3 7D       		.byte	0x7d
 6744 07b4 00       		.sleb128 0
 6745 07b5 6A000000 		.4byte	.LVL160
 6746 07b9 80000000 		.4byte	.LFE14
 6747 07bd 0400     		.2byte	0x4
 6748 07bf F3       		.byte	0xf3
 6749 07c0 01       		.uleb128 0x1
 6750 07c1 50       		.byte	0x50
 6751 07c2 9F       		.byte	0x9f
 6752 07c3 00000000 		.4byte	0
 6753 07c7 00000000 		.4byte	0
 6754              	.LLST45:
 6755 07cb 00000000 		.4byte	.LVL149
 6756 07cf 18000000 		.4byte	.LVL151
 6757 07d3 0100     		.2byte	0x1
 6758 07d5 51       		.byte	0x51
 6759 07d6 18000000 		.4byte	.LVL151
 6760 07da 6A000000 		.4byte	.LVL160
 6761 07de 0200     		.2byte	0x2
 6762 07e0 91       		.byte	0x91
 6763 07e1 64       		.sleb128 -28
 6764 07e2 6A000000 		.4byte	.LVL160
 6765 07e6 80000000 		.4byte	.LFE14
 6766 07ea 0400     		.2byte	0x4
 6767 07ec F3       		.byte	0xf3
 6768 07ed 01       		.uleb128 0x1
 6769 07ee 51       		.byte	0x51
 6770 07ef 9F       		.byte	0x9f
 6771 07f0 00000000 		.4byte	0
 6772 07f4 00000000 		.4byte	0
 6773              	.LLST46:
 6774 07f8 00000000 		.4byte	.LVL149
 6775 07fc 1A000000 		.4byte	.LVL152
 6776 0800 0100     		.2byte	0x1
 6777 0802 52       		.byte	0x52
 6778 0803 1A000000 		.4byte	.LVL152
 6779 0807 6A000000 		.4byte	.LVL160
 6780 080b 0100     		.2byte	0x1
 6781 080d 55       		.byte	0x55
 6782 080e 6A000000 		.4byte	.LVL160
 6783 0812 80000000 		.4byte	.LFE14
 6784 0816 0400     		.2byte	0x4
 6785 0818 F3       		.byte	0xf3
 6786 0819 01       		.uleb128 0x1
 6787 081a 52       		.byte	0x52
 6788 081b 9F       		.byte	0x9f
 6789 081c 00000000 		.4byte	0
 6790 0820 00000000 		.4byte	0
 6791              	.LLST47:
 6792 0824 00000000 		.4byte	.LVL149
 6793 0828 22000000 		.4byte	.LVL154
 6794 082c 0200     		.2byte	0x2
 6795 082e 30       		.byte	0x30
ARM GAS  C:\Users\ADMINI~1\AppData\Local\Temp\ccRFd3Cg.s 			page 142


 6796 082f 9F       		.byte	0x9f
 6797 0830 22000000 		.4byte	.LVL154
 6798 0834 40000000 		.4byte	.LVL157
 6799 0838 0100     		.2byte	0x1
 6800 083a 50       		.byte	0x50
 6801 083b 40000000 		.4byte	.LVL157
 6802 083f 6A000000 		.4byte	.LVL160
 6803 0843 0100     		.2byte	0x1
 6804 0845 56       		.byte	0x56
 6805 0846 00000000 		.4byte	0
 6806 084a 00000000 		.4byte	0
 6807              	.LLST48:
 6808 084e 00000000 		.4byte	.LVL149
 6809 0852 2C000000 		.4byte	.LVL155
 6810 0856 0600     		.2byte	0x6
 6811 0858 03       		.byte	0x3
 6812 0859 08000000 		.4byte	fifo_data
 6813 085d 9F       		.byte	0x9f
 6814 085e 2C000000 		.4byte	.LVL155
 6815 0862 3C000000 		.4byte	.LVL156
 6816 0866 0600     		.2byte	0x6
 6817 0868 03       		.byte	0x3
 6818 0869 0A000000 		.4byte	fifo_data+2
 6819 086d 9F       		.byte	0x9f
 6820 086e 00000000 		.4byte	0
 6821 0872 00000000 		.4byte	0
 6822              	.LLST49:
 6823 0876 00000000 		.4byte	.LVL161
 6824 087a 1E000000 		.4byte	.LVL165
 6825 087e 0100     		.2byte	0x1
 6826 0880 50       		.byte	0x50
 6827 0881 1E000000 		.4byte	.LVL165
 6828 0885 EC000000 		.4byte	.LVL184
 6829 0889 0100     		.2byte	0x1
 6830 088b 54       		.byte	0x54
 6831 088c EC000000 		.4byte	.LVL184
 6832 0890 0C010000 		.4byte	.LFE15
 6833 0894 0400     		.2byte	0x4
 6834 0896 F3       		.byte	0xf3
 6835 0897 01       		.uleb128 0x1
 6836 0898 50       		.byte	0x50
 6837 0899 9F       		.byte	0x9f
 6838 089a 00000000 		.4byte	0
 6839 089e 00000000 		.4byte	0
 6840              	.LLST50:
 6841 08a2 00000000 		.4byte	.LVL161
 6842 08a6 20000000 		.4byte	.LVL166
 6843 08aa 0100     		.2byte	0x1
 6844 08ac 51       		.byte	0x51
 6845 08ad 20000000 		.4byte	.LVL166
 6846 08b1 46000000 		.4byte	.LVL168
 6847 08b5 0200     		.2byte	0x2
 6848 08b7 91       		.byte	0x91
 6849 08b8 58       		.sleb128 -40
 6850 08b9 46000000 		.4byte	.LVL168
 6851 08bd 4A000000 		.4byte	.LVL169
 6852 08c1 0400     		.2byte	0x4
ARM GAS  C:\Users\ADMINI~1\AppData\Local\Temp\ccRFd3Cg.s 			page 143


 6853 08c3 F3       		.byte	0xf3
 6854 08c4 01       		.uleb128 0x1
 6855 08c5 51       		.byte	0x51
 6856 08c6 9F       		.byte	0x9f
 6857 08c7 4A000000 		.4byte	.LVL169
 6858 08cb AE000000 		.4byte	.LVL178
 6859 08cf 0200     		.2byte	0x2
 6860 08d1 91       		.byte	0x91
 6861 08d2 58       		.sleb128 -40
 6862 08d3 AE000000 		.4byte	.LVL178
 6863 08d7 0C010000 		.4byte	.LFE15
 6864 08db 0400     		.2byte	0x4
 6865 08dd F3       		.byte	0xf3
 6866 08de 01       		.uleb128 0x1
 6867 08df 51       		.byte	0x51
 6868 08e0 9F       		.byte	0x9f
 6869 08e1 00000000 		.4byte	0
 6870 08e5 00000000 		.4byte	0
 6871              	.LLST51:
 6872 08e9 00000000 		.4byte	.LVL161
 6873 08ed 14000000 		.4byte	.LVL164
 6874 08f1 0100     		.2byte	0x1
 6875 08f3 52       		.byte	0x52
 6876 08f4 14000000 		.4byte	.LVL164
 6877 08f8 46000000 		.4byte	.LVL168
 6878 08fc 0200     		.2byte	0x2
 6879 08fe 91       		.byte	0x91
 6880 08ff 5C       		.sleb128 -36
 6881 0900 46000000 		.4byte	.LVL168
 6882 0904 4A000000 		.4byte	.LVL169
 6883 0908 0400     		.2byte	0x4
 6884 090a F3       		.byte	0xf3
 6885 090b 01       		.uleb128 0x1
 6886 090c 52       		.byte	0x52
 6887 090d 9F       		.byte	0x9f
 6888 090e 4A000000 		.4byte	.LVL169
 6889 0912 C6000000 		.4byte	.LVL181
 6890 0916 0200     		.2byte	0x2
 6891 0918 91       		.byte	0x91
 6892 0919 5C       		.sleb128 -36
 6893 091a C6000000 		.4byte	.LVL181
 6894 091e 0C010000 		.4byte	.LFE15
 6895 0922 0400     		.2byte	0x4
 6896 0924 F3       		.byte	0xf3
 6897 0925 01       		.uleb128 0x1
 6898 0926 52       		.byte	0x52
 6899 0927 9F       		.byte	0x9f
 6900 0928 00000000 		.4byte	0
 6901 092c 00000000 		.4byte	0
 6902              	.LLST52:
 6903 0930 00000000 		.4byte	.LVL161
 6904 0934 12000000 		.4byte	.LVL163
 6905 0938 0100     		.2byte	0x1
 6906 093a 53       		.byte	0x53
 6907 093b 12000000 		.4byte	.LVL163
 6908 093f EC000000 		.4byte	.LVL184
 6909 0943 0100     		.2byte	0x1
ARM GAS  C:\Users\ADMINI~1\AppData\Local\Temp\ccRFd3Cg.s 			page 144


 6910 0945 57       		.byte	0x57
 6911 0946 EC000000 		.4byte	.LVL184
 6912 094a 0C010000 		.4byte	.LFE15
 6913 094e 0400     		.2byte	0x4
 6914 0950 F3       		.byte	0xf3
 6915 0951 01       		.uleb128 0x1
 6916 0952 53       		.byte	0x53
 6917 0953 9F       		.byte	0x9f
 6918 0954 00000000 		.4byte	0
 6919 0958 00000000 		.4byte	0
 6920              	.LLST53:
 6921 095c 00000000 		.4byte	.LVL161
 6922 0960 68000000 		.4byte	.LVL172
 6923 0964 0200     		.2byte	0x2
 6924 0966 30       		.byte	0x30
 6925 0967 9F       		.byte	0x9f
 6926 0968 68000000 		.4byte	.LVL172
 6927 096c 6C000000 		.4byte	.LVL173
 6928 0970 0100     		.2byte	0x1
 6929 0972 55       		.byte	0x55
 6930 0973 6C000000 		.4byte	.LVL173
 6931 0977 F0000000 		.4byte	.LVL185
 6932 097b 0200     		.2byte	0x2
 6933 097d 30       		.byte	0x30
 6934 097e 9F       		.byte	0x9f
 6935 097f 00000000 		.4byte	0
 6936 0983 00000000 		.4byte	0
 6937              	.LLST54:
 6938 0987 08000000 		.4byte	.LVL162
 6939 098b 46000000 		.4byte	.LVL168
 6940 098f 0200     		.2byte	0x2
 6941 0991 30       		.byte	0x30
 6942 0992 9F       		.byte	0x9f
 6943 0993 4A000000 		.4byte	.LVL169
 6944 0997 60000000 		.4byte	.LVL171
 6945 099b 0200     		.2byte	0x2
 6946 099d 30       		.byte	0x30
 6947 099e 9F       		.byte	0x9f
 6948 099f 60000000 		.4byte	.LVL171
 6949 09a3 92000000 		.4byte	.LVL174
 6950 09a7 0100     		.2byte	0x1
 6951 09a9 50       		.byte	0x50
 6952 09aa 92000000 		.4byte	.LVL174
 6953 09ae EC000000 		.4byte	.LVL184
 6954 09b2 0200     		.2byte	0x2
 6955 09b4 91       		.byte	0x91
 6956 09b5 54       		.sleb128 -44
 6957 09b6 00000000 		.4byte	0
 6958 09ba 00000000 		.4byte	0
 6959              	.LLST55:
 6960 09be 08000000 		.4byte	.LVL162
 6961 09c2 46000000 		.4byte	.LVL168
 6962 09c6 0600     		.2byte	0x6
 6963 09c8 03       		.byte	0x3
 6964 09c9 08000000 		.4byte	fifo_data
 6965 09cd 9F       		.byte	0x9f
 6966 09ce 4A000000 		.4byte	.LVL169
ARM GAS  C:\Users\ADMINI~1\AppData\Local\Temp\ccRFd3Cg.s 			page 145


 6967 09d2 A8000000 		.4byte	.LVL177
 6968 09d6 0600     		.2byte	0x6
 6969 09d8 03       		.byte	0x3
 6970 09d9 08000000 		.4byte	fifo_data
 6971 09dd 9F       		.byte	0x9f
 6972 09de A8000000 		.4byte	.LVL177
 6973 09e2 B8000000 		.4byte	.LVL179
 6974 09e6 0600     		.2byte	0x6
 6975 09e8 03       		.byte	0x3
 6976 09e9 0A000000 		.4byte	fifo_data+2
 6977 09ed 9F       		.byte	0x9f
 6978 09ee EC000000 		.4byte	.LVL184
 6979 09f2 F0000000 		.4byte	.LVL185
 6980 09f6 0600     		.2byte	0x6
 6981 09f8 03       		.byte	0x3
 6982 09f9 08000000 		.4byte	fifo_data
 6983 09fd 9F       		.byte	0x9f
 6984 09fe 00000000 		.4byte	0
 6985 0a02 00000000 		.4byte	0
 6986              	.LLST56:
 6987 0a06 08000000 		.4byte	.LVL162
 6988 0a0a 46000000 		.4byte	.LVL168
 6989 0a0e 0A00     		.2byte	0xa
 6990 0a10 9E       		.byte	0x9e
 6991 0a11 08       		.uleb128 0x8
 6992 0a12 00000000 		.8byte	0
 6992      00000000 
 6993 0a1a 4A000000 		.4byte	.LVL169
 6994 0a1e C6000000 		.4byte	.LVL181
 6995 0a22 0A00     		.2byte	0xa
 6996 0a24 9E       		.byte	0x9e
 6997 0a25 08       		.uleb128 0x8
 6998 0a26 00000000 		.8byte	0
 6998      00000000 
 6999 0a2e C6000000 		.4byte	.LVL181
 7000 0a32 C9000000 		.4byte	.LVL182-1
 7001 0a36 0600     		.2byte	0x6
 7002 0a38 56       		.byte	0x56
 7003 0a39 93       		.byte	0x93
 7004 0a3a 04       		.uleb128 0x4
 7005 0a3b 53       		.byte	0x53
 7006 0a3c 93       		.byte	0x93
 7007 0a3d 04       		.uleb128 0x4
 7008 0a3e C9000000 		.4byte	.LVL182-1
 7009 0a42 EC000000 		.4byte	.LVL184
 7010 0a46 0700     		.2byte	0x7
 7011 0a48 56       		.byte	0x56
 7012 0a49 93       		.byte	0x93
 7013 0a4a 04       		.uleb128 0x4
 7014 0a4b 91       		.byte	0x91
 7015 0a4c 5C       		.sleb128 -36
 7016 0a4d 93       		.byte	0x93
 7017 0a4e 04       		.uleb128 0x4
 7018 0a4f EC000000 		.4byte	.LVL184
 7019 0a53 F0000000 		.4byte	.LVL185
 7020 0a57 0A00     		.2byte	0xa
 7021 0a59 9E       		.byte	0x9e
ARM GAS  C:\Users\ADMINI~1\AppData\Local\Temp\ccRFd3Cg.s 			page 146


 7022 0a5a 08       		.uleb128 0x8
 7023 0a5b 00000000 		.8byte	0
 7023      00000000 
 7024 0a63 00000000 		.4byte	0
 7025 0a67 00000000 		.4byte	0
 7026              	.LLST57:
 7027 0a6b 00000000 		.4byte	.LVL186
 7028 0a6f 0D000000 		.4byte	.LVL187-1
 7029 0a73 0100     		.2byte	0x1
 7030 0a75 50       		.byte	0x50
 7031 0a76 0D000000 		.4byte	.LVL187-1
 7032 0a7a 12000000 		.4byte	.LVL188
 7033 0a7e 0400     		.2byte	0x4
 7034 0a80 F3       		.byte	0xf3
 7035 0a81 01       		.uleb128 0x1
 7036 0a82 50       		.byte	0x50
 7037 0a83 9F       		.byte	0x9f
 7038 0a84 12000000 		.4byte	.LVL188
 7039 0a88 14000000 		.4byte	.LVL189
 7040 0a8c 0100     		.2byte	0x1
 7041 0a8e 50       		.byte	0x50
 7042 0a8f 14000000 		.4byte	.LVL189
 7043 0a93 1C000000 		.4byte	.LFE19
 7044 0a97 0400     		.2byte	0x4
 7045 0a99 F3       		.byte	0xf3
 7046 0a9a 01       		.uleb128 0x1
 7047 0a9b 50       		.byte	0x50
 7048 0a9c 9F       		.byte	0x9f
 7049 0a9d 00000000 		.4byte	0
 7050 0aa1 00000000 		.4byte	0
 7051              	.LLST58:
 7052 0aa5 00000000 		.4byte	.LVL190
 7053 0aa9 1A000000 		.4byte	.LVL191
 7054 0aad 0100     		.2byte	0x1
 7055 0aaf 50       		.byte	0x50
 7056 0ab0 1A000000 		.4byte	.LVL191
 7057 0ab4 1C000000 		.4byte	.LVL192
 7058 0ab8 0400     		.2byte	0x4
 7059 0aba F3       		.byte	0xf3
 7060 0abb 01       		.uleb128 0x1
 7061 0abc 50       		.byte	0x50
 7062 0abd 9F       		.byte	0x9f
 7063 0abe 1C000000 		.4byte	.LVL192
 7064 0ac2 1E000000 		.4byte	.LVL193
 7065 0ac6 0100     		.2byte	0x1
 7066 0ac8 50       		.byte	0x50
 7067 0ac9 1E000000 		.4byte	.LVL193
 7068 0acd 28000000 		.4byte	.LFE20
 7069 0ad1 0400     		.2byte	0x4
 7070 0ad3 F3       		.byte	0xf3
 7071 0ad4 01       		.uleb128 0x1
 7072 0ad5 50       		.byte	0x50
 7073 0ad6 9F       		.byte	0x9f
 7074 0ad7 00000000 		.4byte	0
 7075 0adb 00000000 		.4byte	0
 7076              	.LLST59:
 7077 0adf 00000000 		.4byte	.LVL194
ARM GAS  C:\Users\ADMINI~1\AppData\Local\Temp\ccRFd3Cg.s 			page 147


 7078 0ae3 0D000000 		.4byte	.LVL195-1
 7079 0ae7 0100     		.2byte	0x1
 7080 0ae9 50       		.byte	0x50
 7081 0aea 0D000000 		.4byte	.LVL195-1
 7082 0aee 12000000 		.4byte	.LVL196
 7083 0af2 0400     		.2byte	0x4
 7084 0af4 F3       		.byte	0xf3
 7085 0af5 01       		.uleb128 0x1
 7086 0af6 50       		.byte	0x50
 7087 0af7 9F       		.byte	0x9f
 7088 0af8 12000000 		.4byte	.LVL196
 7089 0afc 14000000 		.4byte	.LVL197
 7090 0b00 0100     		.2byte	0x1
 7091 0b02 50       		.byte	0x50
 7092 0b03 14000000 		.4byte	.LVL197
 7093 0b07 1C000000 		.4byte	.LFE21
 7094 0b0b 0400     		.2byte	0x4
 7095 0b0d F3       		.byte	0xf3
 7096 0b0e 01       		.uleb128 0x1
 7097 0b0f 50       		.byte	0x50
 7098 0b10 9F       		.byte	0x9f
 7099 0b11 00000000 		.4byte	0
 7100 0b15 00000000 		.4byte	0
 7101              	.LLST60:
 7102 0b19 00000000 		.4byte	.LVL198
 7103 0b1d 28000000 		.4byte	.LVL200
 7104 0b21 0100     		.2byte	0x1
 7105 0b23 50       		.byte	0x50
 7106 0b24 28000000 		.4byte	.LVL200
 7107 0b28 2A000000 		.4byte	.LVL201
 7108 0b2c 0400     		.2byte	0x4
 7109 0b2e F3       		.byte	0xf3
 7110 0b2f 01       		.uleb128 0x1
 7111 0b30 50       		.byte	0x50
 7112 0b31 9F       		.byte	0x9f
 7113 0b32 2A000000 		.4byte	.LVL201
 7114 0b36 2C000000 		.4byte	.LVL202
 7115 0b3a 0100     		.2byte	0x1
 7116 0b3c 50       		.byte	0x50
 7117 0b3d 2C000000 		.4byte	.LVL202
 7118 0b41 30000000 		.4byte	.LFE22
 7119 0b45 0400     		.2byte	0x4
 7120 0b47 F3       		.byte	0xf3
 7121 0b48 01       		.uleb128 0x1
 7122 0b49 50       		.byte	0x50
 7123 0b4a 9F       		.byte	0x9f
 7124 0b4b 00000000 		.4byte	0
 7125 0b4f 00000000 		.4byte	0
 7126              	.LLST61:
 7127 0b53 00000000 		.4byte	.LVL198
 7128 0b57 22000000 		.4byte	.LVL199
 7129 0b5b 0100     		.2byte	0x1
 7130 0b5d 52       		.byte	0x52
 7131 0b5e 22000000 		.4byte	.LVL199
 7132 0b62 2A000000 		.4byte	.LVL201
 7133 0b66 0400     		.2byte	0x4
 7134 0b68 F3       		.byte	0xf3
ARM GAS  C:\Users\ADMINI~1\AppData\Local\Temp\ccRFd3Cg.s 			page 148


 7135 0b69 01       		.uleb128 0x1
 7136 0b6a 52       		.byte	0x52
 7137 0b6b 9F       		.byte	0x9f
 7138 0b6c 2A000000 		.4byte	.LVL201
 7139 0b70 2E000000 		.4byte	.LVL203
 7140 0b74 0100     		.2byte	0x1
 7141 0b76 52       		.byte	0x52
 7142 0b77 2E000000 		.4byte	.LVL203
 7143 0b7b 30000000 		.4byte	.LFE22
 7144 0b7f 0400     		.2byte	0x4
 7145 0b81 F3       		.byte	0xf3
 7146 0b82 01       		.uleb128 0x1
 7147 0b83 52       		.byte	0x52
 7148 0b84 9F       		.byte	0x9f
 7149 0b85 00000000 		.4byte	0
 7150 0b89 00000000 		.4byte	0
 7151              	.LLST62:
 7152 0b8d 00000000 		.4byte	.LVL204
 7153 0b91 0D000000 		.4byte	.LVL205-1
 7154 0b95 0100     		.2byte	0x1
 7155 0b97 50       		.byte	0x50
 7156 0b98 0D000000 		.4byte	.LVL205-1
 7157 0b9c 12000000 		.4byte	.LVL206
 7158 0ba0 0400     		.2byte	0x4
 7159 0ba2 F3       		.byte	0xf3
 7160 0ba3 01       		.uleb128 0x1
 7161 0ba4 50       		.byte	0x50
 7162 0ba5 9F       		.byte	0x9f
 7163 0ba6 12000000 		.4byte	.LVL206
 7164 0baa 14000000 		.4byte	.LVL207
 7165 0bae 0100     		.2byte	0x1
 7166 0bb0 50       		.byte	0x50
 7167 0bb1 14000000 		.4byte	.LVL207
 7168 0bb5 1C000000 		.4byte	.LFE23
 7169 0bb9 0400     		.2byte	0x4
 7170 0bbb F3       		.byte	0xf3
 7171 0bbc 01       		.uleb128 0x1
 7172 0bbd 50       		.byte	0x50
 7173 0bbe 9F       		.byte	0x9f
 7174 0bbf 00000000 		.4byte	0
 7175 0bc3 00000000 		.4byte	0
 7176              	.LLST63:
 7177 0bc7 00000000 		.4byte	.LVL208
 7178 0bcb 0D000000 		.4byte	.LVL209-1
 7179 0bcf 0100     		.2byte	0x1
 7180 0bd1 50       		.byte	0x50
 7181 0bd2 0D000000 		.4byte	.LVL209-1
 7182 0bd6 12000000 		.4byte	.LVL210
 7183 0bda 0400     		.2byte	0x4
 7184 0bdc F3       		.byte	0xf3
 7185 0bdd 01       		.uleb128 0x1
 7186 0bde 50       		.byte	0x50
 7187 0bdf 9F       		.byte	0x9f
 7188 0be0 12000000 		.4byte	.LVL210
 7189 0be4 14000000 		.4byte	.LVL211
 7190 0be8 0100     		.2byte	0x1
 7191 0bea 50       		.byte	0x50
ARM GAS  C:\Users\ADMINI~1\AppData\Local\Temp\ccRFd3Cg.s 			page 149


 7192 0beb 14000000 		.4byte	.LVL211
 7193 0bef 1C000000 		.4byte	.LFE24
 7194 0bf3 0400     		.2byte	0x4
 7195 0bf5 F3       		.byte	0xf3
 7196 0bf6 01       		.uleb128 0x1
 7197 0bf7 50       		.byte	0x50
 7198 0bf8 9F       		.byte	0x9f
 7199 0bf9 00000000 		.4byte	0
 7200 0bfd 00000000 		.4byte	0
 7201              	.LLST64:
 7202 0c01 00000000 		.4byte	.LVL212
 7203 0c05 0D000000 		.4byte	.LVL213-1
 7204 0c09 0100     		.2byte	0x1
 7205 0c0b 50       		.byte	0x50
 7206 0c0c 0D000000 		.4byte	.LVL213-1
 7207 0c10 12000000 		.4byte	.LVL214
 7208 0c14 0400     		.2byte	0x4
 7209 0c16 F3       		.byte	0xf3
 7210 0c17 01       		.uleb128 0x1
 7211 0c18 50       		.byte	0x50
 7212 0c19 9F       		.byte	0x9f
 7213 0c1a 12000000 		.4byte	.LVL214
 7214 0c1e 14000000 		.4byte	.LVL215
 7215 0c22 0100     		.2byte	0x1
 7216 0c24 50       		.byte	0x50
 7217 0c25 14000000 		.4byte	.LVL215
 7218 0c29 1C000000 		.4byte	.LFE25
 7219 0c2d 0400     		.2byte	0x4
 7220 0c2f F3       		.byte	0xf3
 7221 0c30 01       		.uleb128 0x1
 7222 0c31 50       		.byte	0x50
 7223 0c32 9F       		.byte	0x9f
 7224 0c33 00000000 		.4byte	0
 7225 0c37 00000000 		.4byte	0
 7226              	.LLST65:
 7227 0c3b 00000000 		.4byte	.LVL216
 7228 0c3f 0D000000 		.4byte	.LVL217-1
 7229 0c43 0100     		.2byte	0x1
 7230 0c45 50       		.byte	0x50
 7231 0c46 0D000000 		.4byte	.LVL217-1
 7232 0c4a 12000000 		.4byte	.LVL218
 7233 0c4e 0400     		.2byte	0x4
 7234 0c50 F3       		.byte	0xf3
 7235 0c51 01       		.uleb128 0x1
 7236 0c52 50       		.byte	0x50
 7237 0c53 9F       		.byte	0x9f
 7238 0c54 12000000 		.4byte	.LVL218
 7239 0c58 14000000 		.4byte	.LVL219
 7240 0c5c 0100     		.2byte	0x1
 7241 0c5e 50       		.byte	0x50
 7242 0c5f 14000000 		.4byte	.LVL219
 7243 0c63 1C000000 		.4byte	.LFE26
 7244 0c67 0400     		.2byte	0x4
 7245 0c69 F3       		.byte	0xf3
 7246 0c6a 01       		.uleb128 0x1
 7247 0c6b 50       		.byte	0x50
 7248 0c6c 9F       		.byte	0x9f
ARM GAS  C:\Users\ADMINI~1\AppData\Local\Temp\ccRFd3Cg.s 			page 150


 7249 0c6d 00000000 		.4byte	0
 7250 0c71 00000000 		.4byte	0
 7251              	.LLST66:
 7252 0c75 00000000 		.4byte	.LVL220
 7253 0c79 0D000000 		.4byte	.LVL221-1
 7254 0c7d 0100     		.2byte	0x1
 7255 0c7f 50       		.byte	0x50
 7256 0c80 0D000000 		.4byte	.LVL221-1
 7257 0c84 12000000 		.4byte	.LVL222
 7258 0c88 0400     		.2byte	0x4
 7259 0c8a F3       		.byte	0xf3
 7260 0c8b 01       		.uleb128 0x1
 7261 0c8c 50       		.byte	0x50
 7262 0c8d 9F       		.byte	0x9f
 7263 0c8e 12000000 		.4byte	.LVL222
 7264 0c92 14000000 		.4byte	.LVL223
 7265 0c96 0100     		.2byte	0x1
 7266 0c98 50       		.byte	0x50
 7267 0c99 14000000 		.4byte	.LVL223
 7268 0c9d 1C000000 		.4byte	.LFE27
 7269 0ca1 0400     		.2byte	0x4
 7270 0ca3 F3       		.byte	0xf3
 7271 0ca4 01       		.uleb128 0x1
 7272 0ca5 50       		.byte	0x50
 7273 0ca6 9F       		.byte	0x9f
 7274 0ca7 00000000 		.4byte	0
 7275 0cab 00000000 		.4byte	0
 7276              	.LLST67:
 7277 0caf 00000000 		.4byte	.LVL224
 7278 0cb3 0E000000 		.4byte	.LVL225
 7279 0cb7 0100     		.2byte	0x1
 7280 0cb9 50       		.byte	0x50
 7281 0cba 0E000000 		.4byte	.LVL225
 7282 0cbe 10000000 		.4byte	.LVL226
 7283 0cc2 0400     		.2byte	0x4
 7284 0cc4 F3       		.byte	0xf3
 7285 0cc5 01       		.uleb128 0x1
 7286 0cc6 50       		.byte	0x50
 7287 0cc7 9F       		.byte	0x9f
 7288 0cc8 10000000 		.4byte	.LVL226
 7289 0ccc 12000000 		.4byte	.LVL227
 7290 0cd0 0100     		.2byte	0x1
 7291 0cd2 50       		.byte	0x50
 7292 0cd3 12000000 		.4byte	.LVL227
 7293 0cd7 1C000000 		.4byte	.LFE28
 7294 0cdb 0400     		.2byte	0x4
 7295 0cdd F3       		.byte	0xf3
 7296 0cde 01       		.uleb128 0x1
 7297 0cdf 50       		.byte	0x50
 7298 0ce0 9F       		.byte	0x9f
 7299 0ce1 00000000 		.4byte	0
 7300 0ce5 00000000 		.4byte	0
 7301              	.LLST68:
 7302 0ce9 00000000 		.4byte	.LVL228
 7303 0ced 0E000000 		.4byte	.LVL229
 7304 0cf1 0100     		.2byte	0x1
 7305 0cf3 50       		.byte	0x50
ARM GAS  C:\Users\ADMINI~1\AppData\Local\Temp\ccRFd3Cg.s 			page 151


 7306 0cf4 0E000000 		.4byte	.LVL229
 7307 0cf8 10000000 		.4byte	.LVL230
 7308 0cfc 0400     		.2byte	0x4
 7309 0cfe F3       		.byte	0xf3
 7310 0cff 01       		.uleb128 0x1
 7311 0d00 50       		.byte	0x50
 7312 0d01 9F       		.byte	0x9f
 7313 0d02 10000000 		.4byte	.LVL230
 7314 0d06 12000000 		.4byte	.LVL231
 7315 0d0a 0100     		.2byte	0x1
 7316 0d0c 50       		.byte	0x50
 7317 0d0d 12000000 		.4byte	.LVL231
 7318 0d11 1C000000 		.4byte	.LFE29
 7319 0d15 0400     		.2byte	0x4
 7320 0d17 F3       		.byte	0xf3
 7321 0d18 01       		.uleb128 0x1
 7322 0d19 50       		.byte	0x50
 7323 0d1a 9F       		.byte	0x9f
 7324 0d1b 00000000 		.4byte	0
 7325 0d1f 00000000 		.4byte	0
 7326              	.LLST69:
 7327 0d23 00000000 		.4byte	.LVL232
 7328 0d27 0E000000 		.4byte	.LVL233
 7329 0d2b 0100     		.2byte	0x1
 7330 0d2d 50       		.byte	0x50
 7331 0d2e 0E000000 		.4byte	.LVL233
 7332 0d32 10000000 		.4byte	.LVL234
 7333 0d36 0400     		.2byte	0x4
 7334 0d38 F3       		.byte	0xf3
 7335 0d39 01       		.uleb128 0x1
 7336 0d3a 50       		.byte	0x50
 7337 0d3b 9F       		.byte	0x9f
 7338 0d3c 10000000 		.4byte	.LVL234
 7339 0d40 12000000 		.4byte	.LVL235
 7340 0d44 0100     		.2byte	0x1
 7341 0d46 50       		.byte	0x50
 7342 0d47 12000000 		.4byte	.LVL235
 7343 0d4b 1C000000 		.4byte	.LFE30
 7344 0d4f 0400     		.2byte	0x4
 7345 0d51 F3       		.byte	0xf3
 7346 0d52 01       		.uleb128 0x1
 7347 0d53 50       		.byte	0x50
 7348 0d54 9F       		.byte	0x9f
 7349 0d55 00000000 		.4byte	0
 7350 0d59 00000000 		.4byte	0
 7351              		.section	.debug_aranges,"",%progbits
 7352 0000 14010000 		.4byte	0x114
 7353 0004 0200     		.2byte	0x2
 7354 0006 00000000 		.4byte	.Ldebug_info0
 7355 000a 04       		.byte	0x4
 7356 000b 00       		.byte	0
 7357 000c 0000     		.2byte	0
 7358 000e 0000     		.2byte	0
 7359 0010 00000000 		.4byte	.LFB10
 7360 0014 2C010000 		.4byte	.LFE10-.LFB10
 7361 0018 00000000 		.4byte	.LFB11
 7362 001c 30000000 		.4byte	.LFE11-.LFB11
ARM GAS  C:\Users\ADMINI~1\AppData\Local\Temp\ccRFd3Cg.s 			page 152


 7363 0020 00000000 		.4byte	.LFB36
 7364 0024 30000000 		.4byte	.LFE36-.LFB36
 7365 0028 00000000 		.4byte	.LFB4
 7366 002c 2C000000 		.4byte	.LFE4-.LFB4
 7367 0030 00000000 		.4byte	.LFB5
 7368 0034 3A000000 		.4byte	.LFE5-.LFB5
 7369 0038 00000000 		.4byte	.LFB6
 7370 003c 12000000 		.4byte	.LFE6-.LFB6
 7371 0040 00000000 		.4byte	.LFB7
 7372 0044 64000000 		.4byte	.LFE7-.LFB7
 7373 0048 00000000 		.4byte	.LFB8
 7374 004c 40000000 		.4byte	.LFE8-.LFB8
 7375 0050 00000000 		.4byte	.LFB9
 7376 0054 5C000000 		.4byte	.LFE9-.LFB9
 7377 0058 00000000 		.4byte	.LFB13
 7378 005c 94000000 		.4byte	.LFE13-.LFB13
 7379 0060 00000000 		.4byte	.LFB16
 7380 0064 44000000 		.4byte	.LFE16-.LFB16
 7381 0068 00000000 		.4byte	.LFB17
 7382 006c 20000000 		.4byte	.LFE17-.LFB17
 7383 0070 00000000 		.4byte	.LFB18
 7384 0074 84010000 		.4byte	.LFE18-.LFB18
 7385 0078 00000000 		.4byte	.LFB14
 7386 007c 80000000 		.4byte	.LFE14-.LFB14
 7387 0080 00000000 		.4byte	.LFB15
 7388 0084 0C010000 		.4byte	.LFE15-.LFB15
 7389 0088 00000000 		.4byte	.LFB19
 7390 008c 1C000000 		.4byte	.LFE19-.LFB19
 7391 0090 00000000 		.4byte	.LFB20
 7392 0094 28000000 		.4byte	.LFE20-.LFB20
 7393 0098 00000000 		.4byte	.LFB21
 7394 009c 1C000000 		.4byte	.LFE21-.LFB21
 7395 00a0 00000000 		.4byte	.LFB22
 7396 00a4 30000000 		.4byte	.LFE22-.LFB22
 7397 00a8 00000000 		.4byte	.LFB23
 7398 00ac 1C000000 		.4byte	.LFE23-.LFB23
 7399 00b0 00000000 		.4byte	.LFB24
 7400 00b4 1C000000 		.4byte	.LFE24-.LFB24
 7401 00b8 00000000 		.4byte	.LFB25
 7402 00bc 1C000000 		.4byte	.LFE25-.LFB25
 7403 00c0 00000000 		.4byte	.LFB26
 7404 00c4 1C000000 		.4byte	.LFE26-.LFB26
 7405 00c8 00000000 		.4byte	.LFB27
 7406 00cc 1C000000 		.4byte	.LFE27-.LFB27
 7407 00d0 00000000 		.4byte	.LFB28
 7408 00d4 1C000000 		.4byte	.LFE28-.LFB28
 7409 00d8 00000000 		.4byte	.LFB29
 7410 00dc 1C000000 		.4byte	.LFE29-.LFB29
 7411 00e0 00000000 		.4byte	.LFB30
 7412 00e4 1C000000 		.4byte	.LFE30-.LFB30
 7413 00e8 00000000 		.4byte	.LFB31
 7414 00ec 10000000 		.4byte	.LFE31-.LFB31
 7415 00f0 00000000 		.4byte	.LFB32
 7416 00f4 10000000 		.4byte	.LFE32-.LFB32
 7417 00f8 00000000 		.4byte	.LFB33
 7418 00fc 10000000 		.4byte	.LFE33-.LFB33
 7419 0100 00000000 		.4byte	.LFB34
ARM GAS  C:\Users\ADMINI~1\AppData\Local\Temp\ccRFd3Cg.s 			page 153


 7420 0104 0C000000 		.4byte	.LFE34-.LFB34
 7421 0108 00000000 		.4byte	.LFB35
 7422 010c 0C000000 		.4byte	.LFE35-.LFB35
 7423 0110 00000000 		.4byte	0
 7424 0114 00000000 		.4byte	0
 7425              		.section	.debug_ranges,"",%progbits
 7426              	.Ldebug_ranges0:
 7427 0000 3E000000 		.4byte	.LBB4
 7428 0004 40000000 		.4byte	.LBE4
 7429 0008 42000000 		.4byte	.LBB7
 7430 000c 46000000 		.4byte	.LBE7
 7431 0010 00000000 		.4byte	0
 7432 0014 00000000 		.4byte	0
 7433 0018 1A000000 		.4byte	.LBB20
 7434 001c 1C000000 		.4byte	.LBE20
 7435 0020 40000000 		.4byte	.LBB25
 7436 0024 7A000000 		.4byte	.LBE25
 7437 0028 00000000 		.4byte	0
 7438 002c 00000000 		.4byte	0
 7439 0030 40000000 		.4byte	.LBB22
 7440 0034 48000000 		.4byte	.LBE22
 7441 0038 4E000000 		.4byte	.LBB23
 7442 003c 7A000000 		.4byte	.LBE23
 7443 0040 00000000 		.4byte	0
 7444 0044 00000000 		.4byte	0
 7445 0048 00000000 		.4byte	.LFB10
 7446 004c 2C010000 		.4byte	.LFE10
 7447 0050 00000000 		.4byte	.LFB11
 7448 0054 30000000 		.4byte	.LFE11
 7449 0058 00000000 		.4byte	.LFB36
 7450 005c 30000000 		.4byte	.LFE36
 7451 0060 00000000 		.4byte	.LFB4
 7452 0064 2C000000 		.4byte	.LFE4
 7453 0068 00000000 		.4byte	.LFB5
 7454 006c 3A000000 		.4byte	.LFE5
 7455 0070 00000000 		.4byte	.LFB6
 7456 0074 12000000 		.4byte	.LFE6
 7457 0078 00000000 		.4byte	.LFB7
 7458 007c 64000000 		.4byte	.LFE7
 7459 0080 00000000 		.4byte	.LFB8
 7460 0084 40000000 		.4byte	.LFE8
 7461 0088 00000000 		.4byte	.LFB9
 7462 008c 5C000000 		.4byte	.LFE9
 7463 0090 00000000 		.4byte	.LFB13
 7464 0094 94000000 		.4byte	.LFE13
 7465 0098 00000000 		.4byte	.LFB16
 7466 009c 44000000 		.4byte	.LFE16
 7467 00a0 00000000 		.4byte	.LFB17
 7468 00a4 20000000 		.4byte	.LFE17
 7469 00a8 00000000 		.4byte	.LFB18
 7470 00ac 84010000 		.4byte	.LFE18
 7471 00b0 00000000 		.4byte	.LFB14
 7472 00b4 80000000 		.4byte	.LFE14
 7473 00b8 00000000 		.4byte	.LFB15
 7474 00bc 0C010000 		.4byte	.LFE15
 7475 00c0 00000000 		.4byte	.LFB19
 7476 00c4 1C000000 		.4byte	.LFE19
ARM GAS  C:\Users\ADMINI~1\AppData\Local\Temp\ccRFd3Cg.s 			page 154


 7477 00c8 00000000 		.4byte	.LFB20
 7478 00cc 28000000 		.4byte	.LFE20
 7479 00d0 00000000 		.4byte	.LFB21
 7480 00d4 1C000000 		.4byte	.LFE21
 7481 00d8 00000000 		.4byte	.LFB22
 7482 00dc 30000000 		.4byte	.LFE22
 7483 00e0 00000000 		.4byte	.LFB23
 7484 00e4 1C000000 		.4byte	.LFE23
 7485 00e8 00000000 		.4byte	.LFB24
 7486 00ec 1C000000 		.4byte	.LFE24
 7487 00f0 00000000 		.4byte	.LFB25
 7488 00f4 1C000000 		.4byte	.LFE25
 7489 00f8 00000000 		.4byte	.LFB26
 7490 00fc 1C000000 		.4byte	.LFE26
 7491 0100 00000000 		.4byte	.LFB27
 7492 0104 1C000000 		.4byte	.LFE27
 7493 0108 00000000 		.4byte	.LFB28
 7494 010c 1C000000 		.4byte	.LFE28
 7495 0110 00000000 		.4byte	.LFB29
 7496 0114 1C000000 		.4byte	.LFE29
 7497 0118 00000000 		.4byte	.LFB30
 7498 011c 1C000000 		.4byte	.LFE30
 7499 0120 00000000 		.4byte	.LFB31
 7500 0124 10000000 		.4byte	.LFE31
 7501 0128 00000000 		.4byte	.LFB32
 7502 012c 10000000 		.4byte	.LFE32
 7503 0130 00000000 		.4byte	.LFB33
 7504 0134 10000000 		.4byte	.LFE33
 7505 0138 00000000 		.4byte	.LFB34
 7506 013c 0C000000 		.4byte	.LFE34
 7507 0140 00000000 		.4byte	.LFB35
 7508 0144 0C000000 		.4byte	.LFE35
 7509 0148 00000000 		.4byte	0
 7510 014c 00000000 		.4byte	0
 7511              		.section	.debug_line,"",%progbits
 7512              	.Ldebug_line0:
 7513 0000 B5060000 		.section	.debug_str,"MS",%progbits,1
 7513      0200B102 
 7513      00000201 
 7513      FB0E0D00 
 7513      01010101 
 7514              	.LASF16:
 7515 0000 75696E74 		.ascii	"uint_fast16_t\000"
 7515      5F666173 
 7515      7431365F 
 7515      7400
 7516              	.LASF31:
 7517 000e 414E4452 		.ascii	"ANDROID_SENSOR_MAGNETIC_FIELD_UNCALIBRATED\000"
 7517      4F49445F 
 7517      53454E53 
 7517      4F525F4D 
 7517      41474E45 
 7518              	.LASF106:
 7519 0039 61636365 		.ascii	"accel_div\000"
 7519      6C5F6469 
 7519      7600
 7520              	.LASF45:
ARM GAS  C:\Users\ADMINI~1\AppData\Local\Temp\ccRFd3Cg.s 			page 155


 7521 0043 414E4452 		.ascii	"ANDROID_SENSOR_WAKEUP_PRESSURE\000"
 7521      4F49445F 
 7521      53454E53 
 7521      4F525F57 
 7521      414B4555 
 7522              	.LASF115:
 7523 0062 6669666F 		.ascii	"fifo_info_t\000"
 7523      5F696E66 
 7523      6F5F7400 
 7524              	.LASF148:
 7525 006e 6F75745F 		.ascii	"out_data\000"
 7525      64617461 
 7525      00
 7526              	.LASF158:
 7527 0077 75736572 		.ascii	"user_header2\000"
 7527      5F686561 
 7527      64657232 
 7527      00
 7528              	.LASF63:
 7529 0084 414E4452 		.ascii	"ANDROID_SENSOR_SCREEN_ROTATION\000"
 7529      4F49445F 
 7529      53454E53 
 7529      4F525F53 
 7529      43524545 
 7530              	.LASF172:
 7531 00a3 646D705F 		.ascii	"dmp_get_gmrvquaternion\000"
 7531      6765745F 
 7531      676D7276 
 7531      71756174 
 7531      65726E69 
 7532              	.LASF121:
 7533 00ba 62756666 		.ascii	"buffer\000"
 7533      657200
 7534              	.LASF191:
 7535 00c1 696E765F 		.ascii	"inv_write_single_mems_reg\000"
 7535      77726974 
 7535      655F7369 
 7535      6E676C65 
 7535      5F6D656D 
 7536              	.LASF88:
 7537 00db 666C6970 		.ascii	"flip_pickup\000"
 7537      5F706963 
 7537      6B757000 
 7538              	.LASF0:
 7539 00e7 756E7369 		.ascii	"unsigned int\000"
 7539      676E6564 
 7539      20696E74 
 7539      00
 7540              	.LASF105:
 7541 00f4 7365636F 		.ascii	"secondary_div\000"
 7541      6E646172 
 7541      795F6469 
 7541      7600
 7542              	.LASF153:
 7543 0102 6669666F 		.ascii	"fifo_ptr\000"
 7543      5F707472 
 7543      00
ARM GAS  C:\Users\ADMINI~1\AppData\Local\Temp\ccRFd3Cg.s 			page 156


 7544              	.LASF66:
 7545 010b 47454E45 		.ascii	"GENERAL_SENSORS_MAX\000"
 7545      52414C5F 
 7545      53454E53 
 7545      4F52535F 
 7545      4D415800 
 7546              	.LASF83:
 7547 011f 61636365 		.ascii	"accel_accuracy\000"
 7547      6C5F6163 
 7547      63757261 
 7547      637900
 7548              	.LASF17:
 7549 012e 414E4452 		.ascii	"ANDROID_SENSOR_META_DATA\000"
 7549      4F49445F 
 7549      53454E53 
 7549      4F525F4D 
 7549      4554415F 
 7550              	.LASF127:
 7551 0147 63686563 		.ascii	"check_fifo_decoded_headers\000"
 7551      6B5F6669 
 7551      666F5F64 
 7551      65636F64 
 7551      65645F68 
 7552              	.LASF92:
 7553 0162 68656164 		.ascii	"header2\000"
 7553      65723200 
 7554              	.LASF38:
 7555 016a 414E4452 		.ascii	"ANDROID_SENSOR_HEART_RATE\000"
 7555      4F49445F 
 7555      53454E53 
 7555      4F525F48 
 7555      45415254 
 7556              	.LASF82:
 7557 0184 63706173 		.ascii	"cpass_raw_data\000"
 7557      735F7261 
 7557      775F6461 
 7557      746100
 7558              	.LASF190:
 7559 0193 696E765F 		.ascii	"inv_write_mems_reg\000"
 7559      77726974 
 7559      655F6D65 
 7559      6D735F72 
 7559      656700
 7560              	.LASF87:
 7561 01a6 6261635F 		.ascii	"bac_state\000"
 7561      73746174 
 7561      6500
 7562              	.LASF117:
 7563 01b0 6669666F 		.ascii	"fifo_overflow\000"
 7563      5F6F7665 
 7563      72666C6F 
 7563      7700
 7564              	.LASF198:
 7565 01be 6572726F 		.ascii	"error\000"
 7565      7200
 7566              	.LASF90:
 7567 01c4 63706173 		.ascii	"cpass_calibr_6chars\000"
ARM GAS  C:\Users\ADMINI~1\AppData\Local\Temp\ccRFd3Cg.s 			page 157


 7567      735F6361 
 7567      6C696272 
 7567      5F366368 
 7567      61727300 
 7568              	.LASF104:
 7569 01d8 6779726F 		.ascii	"gyro_div\000"
 7569      5F646976 
 7569      00
 7570              	.LASF72:
 7571 01e1 646D705F 		.ascii	"dmp_3e_geomagquat\000"
 7571      33655F67 
 7571      656F6D61 
 7571      67717561 
 7571      7400
 7572              	.LASF189:
 7573 01f3 696E765F 		.ascii	"inv_read_mems_reg\000"
 7573      72656164 
 7573      5F6D656D 
 7573      735F7265 
 7573      6700
 7574              	.LASF56:
 7575 0205 414E4452 		.ascii	"ANDROID_SENSOR_WAKEUP_GEOMAGNETIC_ROTATION_VECTOR\000"
 7575      4F49445F 
 7575      53454E53 
 7575      4F525F57 
 7575      414B4555 
 7576              	.LASF133:
 7577 0237 696E745F 		.ascii	"int_read\000"
 7577      72656164 
 7577      00
 7578              	.LASF44:
 7579 0240 414E4452 		.ascii	"ANDROID_SENSOR_WAKEUP_LIGHT\000"
 7579      4F49445F 
 7579      53454E53 
 7579      4F525F57 
 7579      414B4555 
 7580              	.LASF81:
 7581 025c 7065645F 		.ascii	"ped_step_det_ts\000"
 7581      73746570 
 7581      5F646574 
 7581      5F747300 
 7582              	.LASF119:
 7583 026c 72657375 		.ascii	"result\000"
 7583      6C7400
 7584              	.LASF29:
 7585 0273 414E4452 		.ascii	"ANDROID_SENSOR_HUMIDITY\000"
 7585      4F49445F 
 7585      53454E53 
 7585      4F525F48 
 7585      554D4944 
 7586              	.LASF182:
 7587 028b 696E765F 		.ascii	"inv_get_mag_accuracy\000"
 7587      6765745F 
 7587      6D61675F 
 7587      61636375 
 7587      72616379 
 7588              	.LASF107:
ARM GAS  C:\Users\ADMINI~1\AppData\Local\Temp\ccRFd3Cg.s 			page 158


 7589 02a0 6779726F 		.ascii	"gyro_averaging\000"
 7589      5F617665 
 7589      72616769 
 7589      6E6700
 7590              	.LASF131:
 7591 02af 6D70755F 		.ascii	"mpu_set_FIFO_RST_Diamond\000"
 7591      7365745F 
 7591      4649464F 
 7591      5F525354 
 7591      5F446961 
 7592              	.LASF40:
 7593 02c8 414E4452 		.ascii	"ANDROID_SENSOR_WAKEUP_ACCELEROMETER\000"
 7593      4F49445F 
 7593      53454E53 
 7593      4F525F57 
 7593      414B4555 
 7594              	.LASF163:
 7595 02ec 646D705F 		.ascii	"dmp_get_raw_gyro\000"
 7595      6765745F 
 7595      7261775F 
 7595      6779726F 
 7595      00
 7596              	.LASF49:
 7597 02fd 414E4452 		.ascii	"ANDROID_SENSOR_WAKEUP_RELATIVE_HUMIDITY\000"
 7597      4F49445F 
 7597      53454E53 
 7597      4F525F57 
 7597      414B4555 
 7598              	.LASF33:
 7599 0325 414E4452 		.ascii	"ANDROID_SENSOR_GYROSCOPE_UNCALIBRATED\000"
 7599      4F49445F 
 7599      53454E53 
 7599      4F525F47 
 7599      59524F53 
 7600              	.LASF96:
 7601 034b 666C6F61 		.ascii	"float\000"
 7601      7400
 7602              	.LASF192:
 7603 0351 6D656D6D 		.ascii	"memmove\000"
 7603      6F766500 
 7604              	.LASF180:
 7605 0359 696E765F 		.ascii	"inv_get_accel_accuracy\000"
 7605      6765745F 
 7605      61636365 
 7605      6C5F6163 
 7605      63757261 
 7606              	.LASF181:
 7607 0370 696E765F 		.ascii	"inv_get_gyro_accuracy\000"
 7607      6765745F 
 7607      6779726F 
 7607      5F616363 
 7607      75726163 
 7608              	.LASF89:
 7609 0386 63706173 		.ascii	"cpass_calibr_12chars\000"
 7609      735F6361 
 7609      6C696272 
 7609      5F313263 
ARM GAS  C:\Users\ADMINI~1\AppData\Local\Temp\ccRFd3Cg.s 			page 159


 7609      68617273 
 7610              	.LASF61:
 7611 039b 414E4452 		.ascii	"ANDROID_SENSOR_FLIP_PICKUP\000"
 7611      4F49445F 
 7611      53454E53 
 7611      4F525F46 
 7611      4C49505F 
 7612              	.LASF143:
 7613 03b6 746F7461 		.ascii	"total_sample_cnt\000"
 7613      6C5F7361 
 7613      6D706C65 
 7613      5F636E74 
 7613      00
 7614              	.LASF25:
 7615 03c7 414E4452 		.ascii	"ANDROID_SENSOR_WAKEUP_PROXIMITY\000"
 7615      4F49445F 
 7615      53454E53 
 7615      4F525F57 
 7615      414B4555 
 7616              	.LASF22:
 7617 03e7 414E4452 		.ascii	"ANDROID_SENSOR_LIGHT\000"
 7617      4F49445F 
 7617      53454E53 
 7617      4F525F4C 
 7617      49474854 
 7618              	.LASF67:
 7619 03fc 696E765F 		.ascii	"inv_error_t\000"
 7619      6572726F 
 7619      725F7400 
 7620              	.LASF11:
 7621 0408 6C6F6E67 		.ascii	"long long unsigned int\000"
 7621      206C6F6E 
 7621      6720756E 
 7621      7369676E 
 7621      65642069 
 7622              	.LASF159:
 7623 041f 646D705F 		.ascii	"dmp_process_fifo\000"
 7623      70726F63 
 7623      6573735F 
 7623      6669666F 
 7623      00
 7624              	.LASF157:
 7625 0430 75736572 		.ascii	"user_header\000"
 7625      5F686561 
 7625      64657200 
 7626              	.LASF55:
 7627 043c 414E4452 		.ascii	"ANDROID_SENSOR_WAKEUP_STEP_COUNTER\000"
 7627      4F49445F 
 7627      53454E53 
 7627      4F525F57 
 7627      414B4555 
 7628              	.LASF75:
 7629 045f 61636365 		.ascii	"accel\000"
 7629      6C00
 7630              	.LASF144:
 7631 0465 6669666F 		.ascii	"fifo_idx\000"
 7631      5F696478 
ARM GAS  C:\Users\ADMINI~1\AppData\Local\Temp\ccRFd3Cg.s 			page 160


 7631      00
 7632              	.LASF78:
 7633 046e 6779726F 		.ascii	"gyro_calibr\000"
 7633      5F63616C 
 7633      69627200 
 7634              	.LASF6:
 7635 047a 5F5F7569 		.ascii	"__uint16_t\000"
 7635      6E743136 
 7635      5F7400
 7636              	.LASF99:
 7637 0485 62617365 		.ascii	"base_driver_t\000"
 7637      5F647269 
 7637      7665725F 
 7637      7400
 7638              	.LASF43:
 7639 0493 414E4452 		.ascii	"ANDROID_SENSOR_WAKEUP_GYROSCOPE\000"
 7639      4F49445F 
 7639      53454E53 
 7639      4F525F57 
 7639      414B4555 
 7640              	.LASF32:
 7641 04b3 414E4452 		.ascii	"ANDROID_SENSOR_GAME_ROTATION_VECTOR\000"
 7641      4F49445F 
 7641      53454E53 
 7641      4F525F47 
 7641      414D455F 
 7642              	.LASF193:
 7643 04d7 474E5520 		.ascii	"GNU C 4.9.3 20150303 (release) [ARM/embedded-4_9-br"
 7643      4320342E 
 7643      392E3320 
 7643      32303135 
 7643      30333033 
 7644 050a 616E6368 		.ascii	"anch revision 221220] -mcpu=cortex-m0 -mthumb -g -O"
 7644      20726576 
 7644      6973696F 
 7644      6E203232 
 7644      31323230 
 7645 053d 73202D66 		.ascii	"s -ffunction-sections -ffat-lto-objects\000"
 7645      66756E63 
 7645      74696F6E 
 7645      2D736563 
 7645      74696F6E 
 7646              	.LASF186:
 7647 0565 6669666F 		.ascii	"fifo_data\000"
 7647      5F646174 
 7647      6100
 7648              	.LASF113:
 7649 056f 73657269 		.ascii	"serial_interface\000"
 7649      616C5F69 
 7649      6E746572 
 7649      66616365 
 7649      00
 7650              	.LASF141:
 7651 0580 65787472 		.ascii	"extract_sample_cnt\000"
 7651      6163745F 
 7651      73616D70 
 7651      6C655F63 
ARM GAS  C:\Users\ADMINI~1\AppData\Local\Temp\ccRFd3Cg.s 			page 161


 7651      6E7400
 7652              	.LASF130:
 7653 0593 76616C75 		.ascii	"value\000"
 7653      6500
 7654              	.LASF108:
 7655 0599 61636365 		.ascii	"accel_averaging\000"
 7655      6C5F6176 
 7655      65726167 
 7655      696E6700 
 7656              	.LASF177:
 7657 05a9 646D705F 		.ascii	"dmp_get_bac_state\000"
 7657      6765745F 
 7657      6261635F 
 7657      73746174 
 7657      6500
 7658              	.LASF184:
 7659 05bb 696E765F 		.ascii	"inv_get_rv_accuracy\000"
 7659      6765745F 
 7659      72765F61 
 7659      63637572 
 7659      61637900 
 7660              	.LASF125:
 7661 05cf 73616D70 		.ascii	"sample_cnt_array\000"
 7661      6C655F63 
 7661      6E745F61 
 7661      72726179 
 7661      00
 7662              	.LASF196:
 7663 05e0 414E4452 		.ascii	"ANDROID_SENSORS\000"
 7663      4F49445F 
 7663      53454E53 
 7663      4F525300 
 7664              	.LASF2:
 7665 05f0 73697A65 		.ascii	"size_t\000"
 7665      5F7400
 7666              	.LASF176:
 7667 05f7 63616C5F 		.ascii	"cal_compass\000"
 7667      636F6D70 
 7667      61737300 
 7668              	.LASF103:
 7669 0603 75736572 		.ascii	"user_ctrl\000"
 7669      5F637472 
 7669      6C00
 7670              	.LASF93:
 7671 060d 666F6F74 		.ascii	"footer\000"
 7671      657200
 7672              	.LASF48:
 7673 0614 414E4452 		.ascii	"ANDROID_SENSOR_WAKEUP_ROTATION_VECTOR\000"
 7673      4F49445F 
 7673      53454E53 
 7673      4F525F57 
 7673      414B4555 
 7674              	.LASF132:
 7675 063a 696E765F 		.ascii	"inv_identify_interrupt\000"
 7675      6964656E 
 7675      74696679 
 7675      5F696E74 
ARM GAS  C:\Users\ADMINI~1\AppData\Local\Temp\ccRFd3Cg.s 			page 162


 7675      65727275 
 7676              	.LASF24:
 7677 0651 414E4452 		.ascii	"ANDROID_SENSOR_TEMPERATURE\000"
 7677      4F49445F 
 7677      53454E53 
 7677      4F525F54 
 7677      454D5045 
 7678              	.LASF20:
 7679 066c 414E4452 		.ascii	"ANDROID_SENSOR_ORIENTATION\000"
 7679      4F49445F 
 7679      53454E53 
 7679      4F525F4F 
 7679      5249454E 
 7680              	.LASF62:
 7681 0687 414E4452 		.ascii	"ANDROID_SENSOR_ACTIVITY_CLASSIFICATON\000"
 7681      4F49445F 
 7681      53454E53 
 7681      4F525F41 
 7681      43544956 
 7682              	.LASF23:
 7683 06ad 414E4452 		.ascii	"ANDROID_SENSOR_PRESSURE\000"
 7683      4F49445F 
 7683      53454E53 
 7683      4F525F50 
 7683      52455353 
 7684              	.LASF149:
 7685 06c5 696E5F64 		.ascii	"in_data\000"
 7685      61746100 
 7686              	.LASF137:
 7687 06cd 646D705F 		.ascii	"dmp_read_fifo\000"
 7687      72656164 
 7687      5F666966 
 7687      6F00
 7688              	.LASF134:
 7689 06db 696E745F 		.ascii	"int_status\000"
 7689      73746174 
 7689      757300
 7690              	.LASF118:
 7691 06e6 6669666F 		.ascii	"fifoBuf\000"
 7691      42756600 
 7692              	.LASF13:
 7693 06ee 63686172 		.ascii	"char\000"
 7693      00
 7694              	.LASF185:
 7695 06f3 6669666F 		.ascii	"fifo_info\000"
 7695      5F696E66 
 7695      6F00
 7696              	.LASF42:
 7697 06fd 414E4452 		.ascii	"ANDROID_SENSOR_WAKEUP_ORIENTATION\000"
 7697      4F49445F 
 7697      53454E53 
 7697      4F525F57 
 7697      414B4555 
 7698              	.LASF73:
 7699 071f 646D705F 		.ascii	"dmp_geomag_accuracyQ29\000"
 7699      67656F6D 
 7699      61675F61 
ARM GAS  C:\Users\ADMINI~1\AppData\Local\Temp\ccRFd3Cg.s 			page 163


 7699      63637572 
 7699      61637951 
 7700              	.LASF124:
 7701 0736 64617461 		.ascii	"data\000"
 7701      00
 7702              	.LASF145:
 7703 073b 6E656564 		.ascii	"need_sz\000"
 7703      5F737A00 
 7704              	.LASF52:
 7705 0743 414E4452 		.ascii	"ANDROID_SENSOR_WAKEUP_GAME_ROTATION_VECTOR\000"
 7705      4F49445F 
 7705      53454E53 
 7705      4F525F57 
 7705      414B4555 
 7706              	.LASF14:
 7707 076e 75696E74 		.ascii	"uint8_t\000"
 7707      385F7400 
 7708              	.LASF54:
 7709 0776 414E4452 		.ascii	"ANDROID_SENSOR_WAKEUP_STEP_DETECTOR\000"
 7709      4F49445F 
 7709      53454E53 
 7709      4F525F57 
 7709      414B4555 
 7710              	.LASF74:
 7711 079a 61636365 		.ascii	"accel_s\000"
 7711      6C5F7300 
 7712              	.LASF51:
 7713 07a2 414E4452 		.ascii	"ANDROID_SENSOR_WAKEUP_MAGNETIC_FIELD_UNCALIBRATED\000"
 7713      4F49445F 
 7713      53454E53 
 7713      4F525F57 
 7713      414B4555 
 7714              	.LASF126:
 7715 07d4 6765745F 		.ascii	"get_packet_size_and_samplecnt\000"
 7715      7061636B 
 7715      65745F73 
 7715      697A655F 
 7715      616E645F 
 7716              	.LASF147:
 7717 07f2 6669666F 		.ascii	"fifo_sw_size\000"
 7717      5F73775F 
 7717      73697A65 
 7717      00
 7718              	.LASF10:
 7719 07ff 6C6F6E67 		.ascii	"long long int\000"
 7719      206C6F6E 
 7719      6720696E 
 7719      7400
 7720              	.LASF85:
 7721 080d 63706173 		.ascii	"cpass_accuracy\000"
 7721      735F6163 
 7721      63757261 
 7721      637900
 7722              	.LASF86:
 7723 081c 6261635F 		.ascii	"bac_ts\000"
 7723      747300
 7724              	.LASF142:
ARM GAS  C:\Users\ADMINI~1\AppData\Local\Temp\ccRFd3Cg.s 			page 164


 7725 0823 6669666F 		.ascii	"fifo_size\000"
 7725      5F73697A 
 7725      6500
 7726              	.LASF50:
 7727 082d 414E4452 		.ascii	"ANDROID_SENSOR_WAKEUP_AMBIENT_TEMPERATURE\000"
 7727      4F49445F 
 7727      53454E53 
 7727      4F525F57 
 7727      414B4555 
 7728              	.LASF46:
 7729 0857 414E4452 		.ascii	"ANDROID_SENSOR_WAKEUP_GRAVITY\000"
 7729      4F49445F 
 7729      53454E53 
 7729      4F525F57 
 7729      414B4555 
 7730              	.LASF170:
 7731 0875 71756174 		.ascii	"quat\000"
 7731      00
 7732              	.LASF94:
 7733 087a 6E65775F 		.ascii	"new_data\000"
 7733      64617461 
 7733      00
 7734              	.LASF128:
 7735 0883 68656164 		.ascii	"header_bit_mask\000"
 7735      65725F62 
 7735      69745F6D 
 7735      61736B00 
 7736              	.LASF199:
 7737 0893 6D656D63 		.ascii	"memcpy\000"
 7737      707900
 7738              	.LASF197:
 7739 089a 656E6453 		.ascii	"endSuccess\000"
 7739      75636365 
 7739      737300
 7740              	.LASF136:
 7741 08a5 74726965 		.ascii	"tries\000"
 7741      7300
 7742              	.LASF76:
 7743 08ab 6779726F 		.ascii	"gyro\000"
 7743      00
 7744              	.LASF26:
 7745 08b0 414E4452 		.ascii	"ANDROID_SENSOR_GRAVITY\000"
 7745      4F49445F 
 7745      53454E53 
 7745      4F525F47 
 7745      52415649 
 7746              	.LASF60:
 7747 08c7 414E4452 		.ascii	"ANDROID_SENSOR_B2S\000"
 7747      4F49445F 
 7747      53454E53 
 7747      4F525F42 
 7747      325300
 7748              	.LASF109:
 7749 08da 6779726F 		.ascii	"gyro_fullscale\000"
 7749      5F66756C 
 7749      6C736361 
 7749      6C6500
ARM GAS  C:\Users\ADMINI~1\AppData\Local\Temp\ccRFd3Cg.s 			page 165


 7750              	.LASF53:
 7751 08e9 414E4452 		.ascii	"ANDROID_SENSOR_WAKEUP_GYROSCOPE_UNCALIBRATED\000"
 7751      4F49445F 
 7751      53454E53 
 7751      4F525F57 
 7751      414B4555 
 7752              	.LASF91:
 7753 0916 68656164 		.ascii	"header\000"
 7753      657200
 7754              	.LASF19:
 7755 091d 414E4452 		.ascii	"ANDROID_SENSOR_GEOMAGNETIC_FIELD\000"
 7755      4F49445F 
 7755      53454E53 
 7755      4F525F47 
 7755      454F4D41 
 7756              	.LASF101:
 7757 093e 7077725F 		.ascii	"pwr_mgmt_1\000"
 7757      6D676D74 
 7757      5F3100
 7758              	.LASF102:
 7759 0949 7077725F 		.ascii	"pwr_mgmt_2\000"
 7759      6D676D74 
 7759      5F3200
 7760              	.LASF68:
 7761 0954 6D70755F 		.ascii	"mpu_time_t\000"
 7761      74696D65 
 7761      5F7400
 7762              	.LASF151:
 7763 095f 696E765F 		.ascii	"inv_decode_3_16bit_elements\000"
 7763      6465636F 
 7763      64655F33 
 7763      5F313662 
 7763      69745F65 
 7764              	.LASF169:
 7765 097b 646D705F 		.ascii	"dmp_get_6quaternion\000"
 7765      6765745F 
 7765      36717561 
 7765      7465726E 
 7765      696F6E00 
 7766              	.LASF129:
 7767 098f 68656164 		.ascii	"header2_bit_mask\000"
 7767      6572325F 
 7767      6269745F 
 7767      6D61736B 
 7767      00
 7768              	.LASF97:
 7769 09a0 6C6F6E67 		.ascii	"long double\000"
 7769      20646F75 
 7769      626C6500 
 7770              	.LASF15:
 7771 09ac 75696E74 		.ascii	"uint16_t\000"
 7771      31365F74 
 7771      00
 7772              	.LASF138:
 7773 09b5 62797465 		.ascii	"bytesRead\000"
 7773      73526561 
 7773      6400
ARM GAS  C:\Users\ADMINI~1\AppData\Local\Temp\ccRFd3Cg.s 			page 166


 7774              	.LASF79:
 7775 09bf 636F6D70 		.ascii	"compass\000"
 7775      61737300 
 7776              	.LASF57:
 7777 09c7 414E4452 		.ascii	"ANDROID_SENSOR_WAKEUP_HEART_RATE\000"
 7777      4F49445F 
 7777      53454E53 
 7777      4F525F57 
 7777      414B4555 
 7778              	.LASF36:
 7779 09e8 414E4452 		.ascii	"ANDROID_SENSOR_STEP_COUNTER\000"
 7779      4F49445F 
 7779      53454E53 
 7779      4F525F53 
 7779      5445505F 
 7780              	.LASF183:
 7781 0a04 696E765F 		.ascii	"inv_get_gmrv_accuracy\000"
 7781      6765745F 
 7781      676D7276 
 7781      5F616363 
 7781      75726163 
 7782              	.LASF5:
 7783 0a1a 73686F72 		.ascii	"short int\000"
 7783      7420696E 
 7783      7400
 7784              	.LASF34:
 7785 0a24 414E4452 		.ascii	"ANDROID_SENSOR_WAKEUP_SIGNIFICANT_MOTION\000"
 7785      4F49445F 
 7785      53454E53 
 7785      4F525F57 
 7785      414B4555 
 7786              	.LASF59:
 7787 0a4d 414E4452 		.ascii	"ANDROID_SENSOR_NUM_MAX\000"
 7787      4F49445F 
 7787      53454E53 
 7787      4F525F4E 
 7787      554D5F4D 
 7788              	.LASF8:
 7789 0a64 6C6F6E67 		.ascii	"long int\000"
 7789      20696E74 
 7789      00
 7790              	.LASF47:
 7791 0a6d 414E4452 		.ascii	"ANDROID_SENSOR_WAKEUP_LINEAR_ACCELERATION\000"
 7791      4F49445F 
 7791      53454E53 
 7791      4F525F57 
 7791      414B4555 
 7792              	.LASF111:
 7793 0a97 6C705F65 		.ascii	"lp_en_support\000"
 7793      6E5F7375 
 7793      70706F72 
 7793      7400
 7794              	.LASF120:
 7795 0aa5 6C656E67 		.ascii	"length\000"
 7795      746800
 7796              	.LASF37:
 7797 0aac 414E4452 		.ascii	"ANDROID_SENSOR_GEOMAGNETIC_ROTATION_VECTOR\000"
ARM GAS  C:\Users\ADMINI~1\AppData\Local\Temp\ccRFd3Cg.s 			page 167


 7797      4F49445F 
 7797      53454E53 
 7797      4F525F47 
 7797      454F4D41 
 7798              	.LASF135:
 7799 0ad7 646D705F 		.ascii	"dmp_reset_fifo\000"
 7799      72657365 
 7799      745F6669 
 7799      666F00
 7800              	.LASF18:
 7801 0ae6 414E4452 		.ascii	"ANDROID_SENSOR_ACCELEROMETER\000"
 7801      4F49445F 
 7801      53454E53 
 7801      4F525F41 
 7801      4343454C 
 7802              	.LASF154:
 7803 0b03 6669666F 		.ascii	"fifo_ptr_start\000"
 7803      5F707472 
 7803      5F737461 
 7803      727400
 7804              	.LASF122:
 7805 0b12 72657365 		.ascii	"reset\000"
 7805      7400
 7806              	.LASF200:
 7807 0b18 696E765F 		.ascii	"inv_get_tick_count\000"
 7807      6765745F 
 7807      7469636B 
 7807      5F636F75 
 7807      6E7400
 7808              	.LASF98:
 7809 0b2b 696E765F 		.ascii	"inv_fifo_decoded_t\000"
 7809      6669666F 
 7809      5F646563 
 7809      6F646564 
 7809      5F7400
 7810              	.LASF3:
 7811 0b3e 5F5F7569 		.ascii	"__uint8_t\000"
 7811      6E74385F 
 7811      7400
 7812              	.LASF175:
 7813 0b48 646D705F 		.ascii	"dmp_get_calibrated_compass\000"
 7813      6765745F 
 7813      63616C69 
 7813      62726174 
 7813      65645F63 
 7814              	.LASF188:
 7815 0b63 646D705F 		.ascii	"dmp_get_fifo_length\000"
 7815      6765745F 
 7815      6669666F 
 7815      5F6C656E 
 7815      67746800 
 7816              	.LASF178:
 7817 0b77 646D705F 		.ascii	"dmp_get_bac_ts\000"
 7817      6765745F 
 7817      6261635F 
 7817      747300
 7818              	.LASF166:
ARM GAS  C:\Users\ADMINI~1\AppData\Local\Temp\ccRFd3Cg.s 			page 168


 7819 0b86 696E765F 		.ascii	"inv_mems_dmp_get_calibrated_gyro\000"
 7819      6D656D73 
 7819      5F646D70 
 7819      5F676574 
 7819      5F63616C 
 7820              	.LASF12:
 7821 0ba7 73697A65 		.ascii	"sizetype\000"
 7821      74797065 
 7821      00
 7822              	.LASF9:
 7823 0bb0 6C6F6E67 		.ascii	"long unsigned int\000"
 7823      20756E73 
 7823      69676E65 
 7823      6420696E 
 7823      7400
 7824              	.LASF167:
 7825 0bc2 63616C69 		.ascii	"calibratedData\000"
 7825      62726174 
 7825      65644461 
 7825      746100
 7826              	.LASF114:
 7827 0bd1 74696D65 		.ascii	"timebase_correction_pll\000"
 7827      62617365 
 7827      5F636F72 
 7827      72656374 
 7827      696F6E5F 
 7828              	.LASF173:
 7829 0be9 646D705F 		.ascii	"dmp_get_raw_compass\000"
 7829      6765745F 
 7829      7261775F 
 7829      636F6D70 
 7829      61737300 
 7830              	.LASF146:
 7831 0bfd 696E765F 		.ascii	"inv_mems_fifo_swmirror\000"
 7831      6D656D73 
 7831      5F666966 
 7831      6F5F7377 
 7831      6D697272 
 7832              	.LASF150:
 7833 0c14 696E765F 		.ascii	"inv_decode_3_32bit_elements\000"
 7833      6465636F 
 7833      64655F33 
 7833      5F333262 
 7833      69745F65 
 7834              	.LASF65:
 7835 0c30 53455455 		.ascii	"SETUP\000"
 7835      5000
 7836              	.LASF70:
 7837 0c36 646D705F 		.ascii	"dmp_3e_9quat\000"
 7837      33655F39 
 7837      71756174 
 7837      00
 7838              	.LASF123:
 7839 0c43 696E5F66 		.ascii	"in_fifo\000"
 7839      69666F00 
 7840              	.LASF77:
 7841 0c4b 6779726F 		.ascii	"gyro_bias\000"
ARM GAS  C:\Users\ADMINI~1\AppData\Local\Temp\ccRFd3Cg.s 			page 169


 7841      5F626961 
 7841      7300
 7842              	.LASF4:
 7843 0c55 756E7369 		.ascii	"unsigned char\000"
 7843      676E6564 
 7843      20636861 
 7843      7200
 7844              	.LASF174:
 7845 0c63 7261775F 		.ascii	"raw_compass\000"
 7845      636F6D70 
 7845      61737300 
 7846              	.LASF171:
 7847 0c6f 646D705F 		.ascii	"dmp_get_9quaternion\000"
 7847      6765745F 
 7847      39717561 
 7847      7465726E 
 7847      696F6E00 
 7848              	.LASF194:
 7849 0c83 2E5C3230 		.ascii	".\\20648_driver\\drivers\\inv_mems_mpu_fifo_control"
 7849      3634385F 
 7849      64726976 
 7849      65725C64 
 7849      72697665 
 7850 0cb3 2E6300   		.ascii	".c\000"
 7851              	.LASF168:
 7852 0cb6 62696173 		.ascii	"bias\000"
 7852      00
 7853              	.LASF156:
 7854 0cbb 696E765F 		.ascii	"inv_mems_fifo_pop\000"
 7854      6D656D73 
 7854      5F666966 
 7854      6F5F706F 
 7854      7000
 7855              	.LASF69:
 7856 0ccd 646D705F 		.ascii	"dmp_3e_6quat\000"
 7856      33655F36 
 7856      71756174 
 7856      00
 7857              	.LASF116:
 7858 0cda 6669666F 		.ascii	"fifoError\000"
 7858      4572726F 
 7858      7200
 7859              	.LASF58:
 7860 0ce4 414E4452 		.ascii	"ANDROID_SENSOR_WAKEUP_TILT_DETECTOR\000"
 7860      4F49445F 
 7860      53454E53 
 7860      4F525F57 
 7860      414B4555 
 7861              	.LASF35:
 7862 0d08 414E4452 		.ascii	"ANDROID_SENSOR_STEP_DETECTOR\000"
 7862      4F49445F 
 7862      53454E53 
 7862      4F525F53 
 7862      5445505F 
 7863              	.LASF155:
 7864 0d25 6F64725F 		.ascii	"odr_cntr\000"
 7864      636E7472 
ARM GAS  C:\Users\ADMINI~1\AppData\Local\Temp\ccRFd3Cg.s 			page 170


 7864      00
 7865              	.LASF139:
 7866 0d2e 74686973 		.ascii	"thisLen\000"
 7866      4C656E00 
 7867              	.LASF195:
 7868 0d36 433A5C44 		.ascii	"C:\\Dropbox\\Projects\\George Posture Correction Pr"
 7868      726F7062 
 7868      6F785C50 
 7868      726F6A65 
 7868      6374735C 
 7869 0d66 6F6A6563 		.ascii	"oject\\BackBone\\BackBone_Bootloadable.cydsn\000"
 7869      745C4261 
 7869      636B426F 
 7869      6E655C42 
 7869      61636B42 
 7870              	.LASF80:
 7871 0d91 63706173 		.ascii	"cpass_calibr\000"
 7871      735F6361 
 7871      6C696272 
 7871      00
 7872              	.LASF140:
 7873 0d9e 646D705F 		.ascii	"dmp_get_fifo_all\000"
 7873      6765745F 
 7873      6669666F 
 7873      5F616C6C 
 7873      00
 7874              	.LASF187:
 7875 0daf 62617365 		.ascii	"base_state\000"
 7875      5F737461 
 7875      746500
 7876              	.LASF162:
 7877 0dba 646D705F 		.ascii	"dmp_get_accel\000"
 7877      6765745F 
 7877      61636365 
 7877      6C00
 7878              	.LASF152:
 7879 0dc8 696E765F 		.ascii	"inv_decode_one_ivory_fifo_packet\000"
 7879      6465636F 
 7879      64655F6F 
 7879      6E655F69 
 7879      766F7279 
 7880              	.LASF161:
 7881 0de9 74696D65 		.ascii	"time_stamp\000"
 7881      5F737461 
 7881      6D7000
 7882              	.LASF160:
 7883 0df4 6C656674 		.ascii	"left_in_fifo\000"
 7883      5F696E5F 
 7883      6669666F 
 7883      00
 7884              	.LASF30:
 7885 0e01 414E4452 		.ascii	"ANDROID_SENSOR_AMBIENT_TEMPERATURE\000"
 7885      4F49445F 
 7885      53454E53 
 7885      4F525F41 
 7885      4D424945 
 7886              	.LASF1:
ARM GAS  C:\Users\ADMINI~1\AppData\Local\Temp\ccRFd3Cg.s 			page 171


 7887 0e24 7369676E 		.ascii	"signed char\000"
 7887      65642063 
 7887      68617200 
 7888              	.LASF7:
 7889 0e30 73686F72 		.ascii	"short unsigned int\000"
 7889      7420756E 
 7889      7369676E 
 7889      65642069 
 7889      6E7400
 7890              	.LASF39:
 7891 0e43 414E4452 		.ascii	"ANDROID_SENSOR_PROXIMITY\000"
 7891      4F49445F 
 7891      53454E53 
 7891      4F525F50 
 7891      524F5849 
 7892              	.LASF164:
 7893 0e5c 7261775F 		.ascii	"raw_gyro\000"
 7893      6779726F 
 7893      00
 7894              	.LASF84:
 7895 0e65 6779726F 		.ascii	"gyro_accuracy\000"
 7895      5F616363 
 7895      75726163 
 7895      7900
 7896              	.LASF110:
 7897 0e73 61636365 		.ascii	"accel_fullscale\000"
 7897      6C5F6675 
 7897      6C6C7363 
 7897      616C6500 
 7898              	.LASF71:
 7899 0e83 646D705F 		.ascii	"dmp_rv_accuracyQ29\000"
 7899      72765F61 
 7899      63637572 
 7899      61637951 
 7899      323900
 7900              	.LASF95:
 7901 0e96 646F7562 		.ascii	"double\000"
 7901      6C6500
 7902              	.LASF112:
 7903 0e9d 6669726D 		.ascii	"firmware_loaded\000"
 7903      77617265 
 7903      5F6C6F61 
 7903      64656400 
 7904              	.LASF179:
 7905 0ead 646D705F 		.ascii	"dmp_get_flip_pickup_state\000"
 7905      6765745F 
 7905      666C6970 
 7905      5F706963 
 7905      6B75705F 
 7906              	.LASF28:
 7907 0ec7 414E4452 		.ascii	"ANDROID_SENSOR_ROTATION_VECTOR\000"
 7907      4F49445F 
 7907      53454E53 
 7907      4F525F52 
 7907      4F544154 
 7908              	.LASF27:
 7909 0ee6 414E4452 		.ascii	"ANDROID_SENSOR_LINEAR_ACCELERATION\000"
ARM GAS  C:\Users\ADMINI~1\AppData\Local\Temp\ccRFd3Cg.s 			page 172


 7909      4F49445F 
 7909      53454E53 
 7909      4F525F4C 
 7909      494E4541 
 7910              	.LASF21:
 7911 0f09 414E4452 		.ascii	"ANDROID_SENSOR_GYROSCOPE\000"
 7911      4F49445F 
 7911      53454E53 
 7911      4F525F47 
 7911      59524F53 
 7912              	.LASF100:
 7913 0f22 77616B65 		.ascii	"wake_state\000"
 7913      5F737461 
 7913      746500
 7914              	.LASF64:
 7915 0f2d 53454C46 		.ascii	"SELF_TEST\000"
 7915      5F544553 
 7915      5400
 7916              	.LASF41:
 7917 0f37 414E4452 		.ascii	"ANDROID_SENSOR_WAKEUP_MAGNETIC_FIELD\000"
 7917      4F49445F 
 7917      53454E53 
 7917      4F525F57 
 7917      414B4555 
 7918              	.LASF165:
 7919 0f5c 646D705F 		.ascii	"dmp_get_gyro_bias\000"
 7919      6765745F 
 7919      6779726F 
 7919      5F626961 
 7919      7300
 7920              		.ident	"GCC: (GNU Tools for ARM Embedded Processors) 4.9.3 20150303 (release) [ARM/embedded-4_9-br
