ARM GAS  C:\Users\ADMINI~1\AppData\Local\Temp\ccA9rFPz.s 			page 1


   1              		.cpu cortex-m0
   2              		.fpu softvfp
   3              		.eabi_attribute 20, 1
   4              		.eabi_attribute 21, 1
   5              		.eabi_attribute 23, 3
   6              		.eabi_attribute 24, 1
   7              		.eabi_attribute 25, 1
   8              		.eabi_attribute 26, 1
   9              		.eabi_attribute 30, 4
  10              		.eabi_attribute 34, 0
  11              		.eabi_attribute 18, 4
  12              		.code	16
  13              		.file	"inv_mems_base_driver.c"
  14              		.text
  15              	.Ltext0:
  16              		.cfi_sections	.debug_frame
  17              		.section	.text.inv_mems_prevent_lpen_control,"ax",%progbits
  18              		.align	1
  19              		.global	inv_mems_prevent_lpen_control
  20              		.code	16
  21              		.thumb_func
  22              		.type	inv_mems_prevent_lpen_control, %function
  23              	inv_mems_prevent_lpen_control:
  24              	.LFB0:
  25              		.file 1 ".\\20648_driver\\drivers\\inv_mems_base_driver.c"
   1:.\20648_driver\drivers/inv_mems_base_driver.c **** /*
   2:.\20648_driver\drivers/inv_mems_base_driver.c **** * _________________________________________________________________________________________________
   3:.\20648_driver\drivers/inv_mems_base_driver.c **** * Copyright © 2014-2015 InvenSense Inc. Portions Copyright © 2014-2015 Movea. All rights reserved.
   4:.\20648_driver\drivers/inv_mems_base_driver.c **** * This software, related documentation and any modifications thereto (collectively “Software”) is s
   5:.\20648_driver\drivers/inv_mems_base_driver.c **** * to InvenSense and its licensors' intellectual property rights under U.S. and international copyri
   6:.\20648_driver\drivers/inv_mems_base_driver.c **** * other intellectual property rights laws.
   7:.\20648_driver\drivers/inv_mems_base_driver.c **** * InvenSense and its licensors retain all intellectual property and proprietary rights in and to th
   8:.\20648_driver\drivers/inv_mems_base_driver.c **** * and any use, reproduction, disclosure or distribution of the Software without an express license
   9:.\20648_driver\drivers/inv_mems_base_driver.c **** * agreement from InvenSense is strictly prohibited.
  10:.\20648_driver\drivers/inv_mems_base_driver.c **** * _________________________________________________________________________________________________
  11:.\20648_driver\drivers/inv_mems_base_driver.c **** */
  12:.\20648_driver\drivers/inv_mems_base_driver.c **** #if !defined MEMS_20609
  13:.\20648_driver\drivers/inv_mems_base_driver.c **** 
  14:.\20648_driver\drivers/inv_mems_base_driver.c **** #include ".\20648_driver\drivers\inv_mems_base_driver.h"
  15:.\20648_driver\drivers/inv_mems_base_driver.c **** 
  16:.\20648_driver\drivers/inv_mems_base_driver.c **** #include ".\20648_driver\common\inv_mems_drv_hook.h"
  17:.\20648_driver\drivers/inv_mems_base_driver.c **** #include ".\20648_driver\drivers\inv_mems_transport.h"
  18:.\20648_driver\drivers/inv_mems_base_driver.c **** #include ".\20648_driver\drivers\inv_mems_hw_config.h"
  19:.\20648_driver\drivers/inv_mems_base_driver.c **** #include ".\20648_driver\dmp3\inv_mems_interface_mapping.h"
  20:.\20648_driver\drivers/inv_mems_base_driver.c **** #include ".\20648_driver\drivers\inv_mems_base_control.h"
  21:.\20648_driver\drivers/inv_mems_base_driver.c **** 
  22:.\20648_driver\drivers/inv_mems_base_driver.c **** #if defined MEMS_SECONDARY_DEVICE
  23:.\20648_driver\drivers/inv_mems_base_driver.c **** #include "driver/inv_mems_slave_compass.h"
  24:.\20648_driver\drivers/inv_mems_base_driver.c **** #include "driver/inv_mems_slave_pressure.h"
  25:.\20648_driver\drivers/inv_mems_base_driver.c **** #include "driver/inv_mems_secondary_transport.h"
  26:.\20648_driver\drivers/inv_mems_base_driver.c **** #endif
  27:.\20648_driver\drivers/inv_mems_base_driver.c **** 
  28:.\20648_driver\drivers/inv_mems_base_driver.c **** #include ".\20648_driver\invn\invn_types.h"
  29:.\20648_driver\drivers/inv_mems_base_driver.c **** 
  30:.\20648_driver\drivers/inv_mems_base_driver.c **** 
  31:.\20648_driver\drivers/inv_mems_base_driver.c **** struct base_driver_t base_state;
  32:.\20648_driver\drivers/inv_mems_base_driver.c **** static uint8_t sAllowLpEn = 1;
ARM GAS  C:\Users\ADMINI~1\AppData\Local\Temp\ccA9rFPz.s 			page 2


  33:.\20648_driver\drivers/inv_mems_base_driver.c **** #if defined MEMS_SECONDARY_DEVICE
  34:.\20648_driver\drivers/inv_mems_base_driver.c **** static uint8_t s_compass_available = 0;
  35:.\20648_driver\drivers/inv_mems_base_driver.c **** static uint8_t s_pressure_available = 0;
  36:.\20648_driver\drivers/inv_mems_base_driver.c **** #endif
  37:.\20648_driver\drivers/inv_mems_base_driver.c **** 
  38:.\20648_driver\drivers/inv_mems_base_driver.c **** void inv_mems_prevent_lpen_control(void)
  39:.\20648_driver\drivers/inv_mems_base_driver.c **** {
  26              		.loc 1 39 0
  27              		.cfi_startproc
  40:.\20648_driver\drivers/inv_mems_base_driver.c **** 	sAllowLpEn = 0;
  28              		.loc 1 40 0
  29 0000 0022     		mov	r2, #0
  30 0002 014B     		ldr	r3, .L2
  41:.\20648_driver\drivers/inv_mems_base_driver.c **** }
  31              		.loc 1 41 0
  32              		@ sp needed
  40:.\20648_driver\drivers/inv_mems_base_driver.c **** 	sAllowLpEn = 0;
  33              		.loc 1 40 0
  34 0004 1A70     		strb	r2, [r3]
  35              		.loc 1 41 0
  36 0006 7047     		bx	lr
  37              	.L3:
  38              		.align	2
  39              	.L2:
  40 0008 00000000 		.word	.LANCHOR0
  41              		.cfi_endproc
  42              	.LFE0:
  43              		.size	inv_mems_prevent_lpen_control, .-inv_mems_prevent_lpen_control
  44              		.section	.text.inv_set_chip_power_state,"ax",%progbits
  45              		.align	1
  46              		.global	inv_set_chip_power_state
  47              		.code	16
  48              		.thumb_func
  49              		.type	inv_set_chip_power_state, %function
  50              	inv_set_chip_power_state:
  51              	.LFB3:
  42:.\20648_driver\drivers/inv_mems_base_driver.c **** void inv_mems_allow_lpen_control(void)
  43:.\20648_driver\drivers/inv_mems_base_driver.c **** {
  44:.\20648_driver\drivers/inv_mems_base_driver.c **** 	sAllowLpEn = 1;
  45:.\20648_driver\drivers/inv_mems_base_driver.c **** 	inv_set_chip_power_state(CHIP_LP_ENABLE, 1);
  46:.\20648_driver\drivers/inv_mems_base_driver.c **** }
  47:.\20648_driver\drivers/inv_mems_base_driver.c **** static uint8_t inv_mems_get_lpen_control(void)
  48:.\20648_driver\drivers/inv_mems_base_driver.c **** {
  49:.\20648_driver\drivers/inv_mems_base_driver.c **** 	return sAllowLpEn;
  50:.\20648_driver\drivers/inv_mems_base_driver.c **** }
  51:.\20648_driver\drivers/inv_mems_base_driver.c **** 
  52:.\20648_driver\drivers/inv_mems_base_driver.c **** /*!
  53:.\20648_driver\drivers/inv_mems_base_driver.c ****  ******************************************************************************
  54:.\20648_driver\drivers/inv_mems_base_driver.c ****  *   @brief     This function sets the power state of the Ivory chip 
  55:.\20648_driver\drivers/inv_mems_base_driver.c ****  *				loop
  56:.\20648_driver\drivers/inv_mems_base_driver.c ****  *   @param[in] Function - CHIP_AWAKE, CHIP_LP_ENABLE
  57:.\20648_driver\drivers/inv_mems_base_driver.c ****  *   @param[in] On/Off - The functions are enabled if previously disabled and 
  58:.\20648_driver\drivers/inv_mems_base_driver.c ****                 disabled if previously enabled based on the value of On/Off.
  59:.\20648_driver\drivers/inv_mems_base_driver.c ****  ******************************************************************************
  60:.\20648_driver\drivers/inv_mems_base_driver.c ****  */ 
  61:.\20648_driver\drivers/inv_mems_base_driver.c **** inv_error_t inv_set_chip_power_state(unsigned char func, unsigned char on_off)
  62:.\20648_driver\drivers/inv_mems_base_driver.c **** {
ARM GAS  C:\Users\ADMINI~1\AppData\Local\Temp\ccA9rFPz.s 			page 3


  52              		.loc 1 62 0
  53              		.cfi_startproc
  54              	.LVL0:
  55 0000 F8B5     		push	{r3, r4, r5, r6, r7, lr}
  56              		.cfi_def_cfa_offset 24
  57              		.cfi_offset 3, -24
  58              		.cfi_offset 4, -20
  59              		.cfi_offset 5, -16
  60              		.cfi_offset 6, -12
  61              		.cfi_offset 7, -8
  62              		.cfi_offset 14, -4
  63              		.loc 1 62 0
  64 0002 041E     		sub	r4, r0, #0
  63:.\20648_driver\drivers/inv_mems_base_driver.c **** 	inv_error_t status = 0;
  64:.\20648_driver\drivers/inv_mems_base_driver.c **** 
  65:.\20648_driver\drivers/inv_mems_base_driver.c **** 	switch(func) {
  65              		.loc 1 65 0
  66 0004 012C     		cmp	r4, #1
  67 0006 02D0     		beq	.L6
  68 0008 0228     		cmp	r0, #2
  69 000a 26D0     		beq	.L7
  70 000c 56E0     		b	.L25
  71              	.L6:
  72 000e 2D4D     		ldr	r5, .L26
  66:.\20648_driver\drivers/inv_mems_base_driver.c **** 
  67:.\20648_driver\drivers/inv_mems_base_driver.c **** 		case CHIP_AWAKE:    
  68:.\20648_driver\drivers/inv_mems_base_driver.c **** 			if(on_off){
  69:.\20648_driver\drivers/inv_mems_base_driver.c **** 				if((base_state.wake_state & CHIP_AWAKE) == 0) {// undo sleep_en
  73              		.loc 1 69 0
  74 0010 2B78     		ldrb	r3, [r5]
  68:.\20648_driver\drivers/inv_mems_base_driver.c **** 				if((base_state.wake_state & CHIP_AWAKE) == 0) {// undo sleep_en
  75              		.loc 1 68 0
  76 0012 0029     		cmp	r1, #0
  77 0014 0FD0     		beq	.L8
  63:.\20648_driver\drivers/inv_mems_base_driver.c **** 	inv_error_t status = 0;
  78              		.loc 1 63 0
  79 0016 0026     		mov	r6, #0
  80              		.loc 1 69 0
  81 0018 0342     		tst	r3, r0
  82 001a 50D1     		bne	.L5
  70:.\20648_driver\drivers/inv_mems_base_driver.c **** 					base_state.pwr_mgmt_1 &= ~BIT_SLEEP;
  83              		.loc 1 70 0
  84 001c 4022     		mov	r2, #64
  85 001e 6B78     		ldrb	r3, [r5, #1]
  71:.\20648_driver\drivers/inv_mems_base_driver.c **** 					status = inv_serial_interface_write_hook(REG_PWR_MGMT_1, 1, &base_state.pwr_mgmt_1);
  86              		.loc 1 71 0
  87 0020 0620     		mov	r0, #6
  88              	.LVL1:
  70:.\20648_driver\drivers/inv_mems_base_driver.c **** 					base_state.pwr_mgmt_1 &= ~BIT_SLEEP;
  89              		.loc 1 70 0
  90 0022 9343     		bic	r3, r2
  91              		.loc 1 71 0
  92 0024 211C     		mov	r1, r4
  93              	.LVL2:
  94 0026 284A     		ldr	r2, .L26+4
  70:.\20648_driver\drivers/inv_mems_base_driver.c **** 					base_state.pwr_mgmt_1 &= ~BIT_SLEEP;
  95              		.loc 1 70 0
ARM GAS  C:\Users\ADMINI~1\AppData\Local\Temp\ccA9rFPz.s 			page 4


  96 0028 6B70     		strb	r3, [r5, #1]
  97              		.loc 1 71 0
  98 002a FFF7FEFF 		bl	inv_serial_interface_write_hook
  99              	.LVL3:
  72:.\20648_driver\drivers/inv_mems_base_driver.c **** 					base_state.wake_state |= CHIP_AWAKE;
 100              		.loc 1 72 0
 101 002e 2B78     		ldrb	r3, [r5]
  71:.\20648_driver\drivers/inv_mems_base_driver.c **** 					status = inv_serial_interface_write_hook(REG_PWR_MGMT_1, 1, &base_state.pwr_mgmt_1);
 102              		.loc 1 71 0
 103 0030 061C     		mov	r6, r0
 104              	.LVL4:
 105              		.loc 1 72 0
 106 0032 2343     		orr	r3, r4
 107 0034 0EE0     		b	.L23
 108              	.LVL5:
 109              	.L8:
  63:.\20648_driver\drivers/inv_mems_base_driver.c **** 
 110              		.loc 1 63 0
 111 0036 0E1C     		mov	r6, r1
  73:.\20648_driver\drivers/inv_mems_base_driver.c **** 					inv_sleep_100us(1); // after writing the bit wait 100 Micro Seconds
  74:.\20648_driver\drivers/inv_mems_base_driver.c **** 				}
  75:.\20648_driver\drivers/inv_mems_base_driver.c **** 			} else {
  76:.\20648_driver\drivers/inv_mems_base_driver.c **** 				if(base_state.wake_state & CHIP_AWAKE) {// set sleep_en
 112              		.loc 1 76 0
 113 0038 0342     		tst	r3, r0
 114 003a 40D0     		beq	.L5
  77:.\20648_driver\drivers/inv_mems_base_driver.c **** 					base_state.pwr_mgmt_1 |= BIT_SLEEP;
 115              		.loc 1 77 0
 116 003c 4022     		mov	r2, #64
 117 003e 6B78     		ldrb	r3, [r5, #1]
  78:.\20648_driver\drivers/inv_mems_base_driver.c **** 					status = inv_serial_interface_write_hook(REG_PWR_MGMT_1, 1, &base_state.pwr_mgmt_1);
 118              		.loc 1 78 0
 119 0040 0620     		mov	r0, #6
 120              	.LVL6:
  77:.\20648_driver\drivers/inv_mems_base_driver.c **** 					base_state.pwr_mgmt_1 |= BIT_SLEEP;
 121              		.loc 1 77 0
 122 0042 1343     		orr	r3, r2
 123              		.loc 1 78 0
 124 0044 211C     		mov	r1, r4
 125              	.LVL7:
 126 0046 204A     		ldr	r2, .L26+4
  77:.\20648_driver\drivers/inv_mems_base_driver.c **** 					base_state.pwr_mgmt_1 |= BIT_SLEEP;
 127              		.loc 1 77 0
 128 0048 6B70     		strb	r3, [r5, #1]
 129              		.loc 1 78 0
 130 004a FFF7FEFF 		bl	inv_serial_interface_write_hook
 131              	.LVL8:
 132 004e 061C     		mov	r6, r0
 133              	.LVL9:
  79:.\20648_driver\drivers/inv_mems_base_driver.c **** 					base_state.wake_state &= ~CHIP_AWAKE;
 134              		.loc 1 79 0
 135 0050 2B78     		ldrb	r3, [r5]
 136 0052 A343     		bic	r3, r4
 137              	.L23:
 138 0054 2B70     		strb	r3, [r5]
  80:.\20648_driver\drivers/inv_mems_base_driver.c **** 					inv_sleep_100us(1); // after writing the bit wait 100 Micro Seconds
 139              		.loc 1 80 0
ARM GAS  C:\Users\ADMINI~1\AppData\Local\Temp\ccA9rFPz.s 			page 5


 140 0056 201C     		mov	r0, r4
 141              	.LVL10:
 142 0058 2DE0     		b	.L22
 143              	.LVL11:
 144              	.L7:
  81:.\20648_driver\drivers/inv_mems_base_driver.c **** 				}
  82:.\20648_driver\drivers/inv_mems_base_driver.c **** 			}
  83:.\20648_driver\drivers/inv_mems_base_driver.c **** 		break;
  84:.\20648_driver\drivers/inv_mems_base_driver.c **** 
  85:.\20648_driver\drivers/inv_mems_base_driver.c **** 		case CHIP_LP_ENABLE:
  86:.\20648_driver\drivers/inv_mems_base_driver.c **** 			if(base_state.lp_en_support == 1) {
 145              		.loc 1 86 0
 146 005a 0127     		mov	r7, #1
 147 005c 194D     		ldr	r5, .L26
  63:.\20648_driver\drivers/inv_mems_base_driver.c **** 
 148              		.loc 1 63 0
 149 005e 0026     		mov	r6, #0
 150              		.loc 1 86 0
 151 0060 AB7B     		ldrb	r3, [r5, #14]
 152 0062 3B42     		tst	r3, r7
 153 0064 2BD0     		beq	.L5
  87:.\20648_driver\drivers/inv_mems_base_driver.c **** 				if(on_off) {
 154              		.loc 1 87 0
 155 0066 B142     		cmp	r1, r6
 156 0068 14D0     		beq	.L9
 157              	.LBB4:
 158              	.LBB5:
  49:.\20648_driver\drivers/inv_mems_base_driver.c **** }
 159              		.loc 1 49 0
 160 006a 184B     		ldr	r3, .L26+8
 161              	.LBE5:
 162              	.LBE4:
  88:.\20648_driver\drivers/inv_mems_base_driver.c **** 					if( (inv_mems_get_lpen_control()) && ((base_state.wake_state & CHIP_LP_ENABLE) == 0)){
 163              		.loc 1 88 0
 164 006c 1B78     		ldrb	r3, [r3]
 165 006e B342     		cmp	r3, r6
 166 0070 25D0     		beq	.L5
 167              		.loc 1 88 0 is_stmt 0 discriminator 1
 168 0072 2B78     		ldrb	r3, [r5]
 169 0074 0342     		tst	r3, r0
 170 0076 22D1     		bne	.L5
  89:.\20648_driver\drivers/inv_mems_base_driver.c **** 						base_state.pwr_mgmt_1 |= BIT_LP_EN; // lp_en ON
 171              		.loc 1 89 0 is_stmt 1
 172 0078 2022     		mov	r2, #32
 173 007a 6B78     		ldrb	r3, [r5, #1]
  90:.\20648_driver\drivers/inv_mems_base_driver.c **** 						status = inv_serial_interface_write_hook(REG_PWR_MGMT_1, 1, &base_state.pwr_mgmt_1);
 174              		.loc 1 90 0
 175 007c 0620     		mov	r0, #6
 176              	.LVL12:
  89:.\20648_driver\drivers/inv_mems_base_driver.c **** 						base_state.pwr_mgmt_1 |= BIT_LP_EN; // lp_en ON
 177              		.loc 1 89 0
 178 007e 1343     		orr	r3, r2
 179              		.loc 1 90 0
 180 0080 391C     		mov	r1, r7
 181              	.LVL13:
 182 0082 114A     		ldr	r2, .L26+4
  89:.\20648_driver\drivers/inv_mems_base_driver.c **** 						base_state.pwr_mgmt_1 |= BIT_LP_EN; // lp_en ON
ARM GAS  C:\Users\ADMINI~1\AppData\Local\Temp\ccA9rFPz.s 			page 6


 183              		.loc 1 89 0
 184 0084 6B70     		strb	r3, [r5, #1]
 185              		.loc 1 90 0
 186 0086 FFF7FEFF 		bl	inv_serial_interface_write_hook
 187              	.LVL14:
  91:.\20648_driver\drivers/inv_mems_base_driver.c **** 						base_state.wake_state |= CHIP_LP_ENABLE;
 188              		.loc 1 91 0
 189 008a 2B78     		ldrb	r3, [r5]
  90:.\20648_driver\drivers/inv_mems_base_driver.c **** 						status = inv_serial_interface_write_hook(REG_PWR_MGMT_1, 1, &base_state.pwr_mgmt_1);
 190              		.loc 1 90 0
 191 008c 061C     		mov	r6, r0
 192              	.LVL15:
 193              		.loc 1 91 0
 194 008e 1C43     		orr	r4, r3
 195 0090 2C70     		strb	r4, [r5]
 196 0092 14E0     		b	.L5
 197              	.LVL16:
 198              	.L9:
  92:.\20648_driver\drivers/inv_mems_base_driver.c **** 						#if (MEMS_CHIP != HW_ICM20648) 
  93:.\20648_driver\drivers/inv_mems_base_driver.c **** 						inv_sleep_100us(1); // after writing the bit wait 100 Micro Seconds
  94:.\20648_driver\drivers/inv_mems_base_driver.c **** 						#endif
  95:.\20648_driver\drivers/inv_mems_base_driver.c **** 					}
  96:.\20648_driver\drivers/inv_mems_base_driver.c **** 				} else {
  97:.\20648_driver\drivers/inv_mems_base_driver.c **** 					if(base_state.wake_state & CHIP_LP_ENABLE){
 199              		.loc 1 97 0
 200 0094 2B78     		ldrb	r3, [r5]
 201 0096 0342     		tst	r3, r0
 202 0098 11D0     		beq	.L5
  98:.\20648_driver\drivers/inv_mems_base_driver.c **** 						base_state.pwr_mgmt_1 &= ~BIT_LP_EN; // lp_en off
 203              		.loc 1 98 0
 204 009a 2022     		mov	r2, #32
 205 009c 6B78     		ldrb	r3, [r5, #1]
  99:.\20648_driver\drivers/inv_mems_base_driver.c **** 						status = inv_serial_interface_write_hook(REG_PWR_MGMT_1, 1, &base_state.pwr_mgmt_1);
 206              		.loc 1 99 0
 207 009e 0620     		mov	r0, #6
 208              	.LVL17:
  98:.\20648_driver\drivers/inv_mems_base_driver.c **** 						base_state.pwr_mgmt_1 &= ~BIT_LP_EN; // lp_en off
 209              		.loc 1 98 0
 210 00a0 9343     		bic	r3, r2
 211              		.loc 1 99 0
 212 00a2 391C     		mov	r1, r7
 213              	.LVL18:
 214 00a4 084A     		ldr	r2, .L26+4
  98:.\20648_driver\drivers/inv_mems_base_driver.c **** 						base_state.pwr_mgmt_1 &= ~BIT_LP_EN; // lp_en off
 215              		.loc 1 98 0
 216 00a6 6B70     		strb	r3, [r5, #1]
 217              		.loc 1 99 0
 218 00a8 FFF7FEFF 		bl	inv_serial_interface_write_hook
 219              	.LVL19:
 220 00ac 061C     		mov	r6, r0
 221              	.LVL20:
 100:.\20648_driver\drivers/inv_mems_base_driver.c **** 						base_state.wake_state &= ~CHIP_LP_ENABLE;
 101:.\20648_driver\drivers/inv_mems_base_driver.c **** 						inv_sleep_100us(1); // after writing the bit wait 100 Micro Seconds
 222              		.loc 1 101 0
 223 00ae 381C     		mov	r0, r7
 224              	.LVL21:
 100:.\20648_driver\drivers/inv_mems_base_driver.c **** 						base_state.wake_state &= ~CHIP_LP_ENABLE;
ARM GAS  C:\Users\ADMINI~1\AppData\Local\Temp\ccA9rFPz.s 			page 7


 225              		.loc 1 100 0
 226 00b0 2B78     		ldrb	r3, [r5]
 227 00b2 A343     		bic	r3, r4
 228 00b4 2B70     		strb	r3, [r5]
 229              	.L22:
 230              		.loc 1 101 0
 231 00b6 FFF7FEFF 		bl	inv_sleep_100us
 232              	.LVL22:
 233 00ba 00E0     		b	.L5
 234              	.LVL23:
 235              	.L25:
  63:.\20648_driver\drivers/inv_mems_base_driver.c **** 
 236              		.loc 1 63 0
 237 00bc 0026     		mov	r6, #0
 238              	.LVL24:
 239              	.L5:
 102:.\20648_driver\drivers/inv_mems_base_driver.c **** 					}
 103:.\20648_driver\drivers/inv_mems_base_driver.c **** 				}
 104:.\20648_driver\drivers/inv_mems_base_driver.c **** 			}
 105:.\20648_driver\drivers/inv_mems_base_driver.c **** 		break;
 106:.\20648_driver\drivers/inv_mems_base_driver.c **** 
 107:.\20648_driver\drivers/inv_mems_base_driver.c **** 		default:
 108:.\20648_driver\drivers/inv_mems_base_driver.c **** 		break;
 109:.\20648_driver\drivers/inv_mems_base_driver.c **** 
 110:.\20648_driver\drivers/inv_mems_base_driver.c **** 	}// end switch
 111:.\20648_driver\drivers/inv_mems_base_driver.c **** 
 112:.\20648_driver\drivers/inv_mems_base_driver.c **** 	return status;
 113:.\20648_driver\drivers/inv_mems_base_driver.c **** }
 240              		.loc 1 113 0
 241 00be 301C     		mov	r0, r6
 242              		@ sp needed
 243              	.LVL25:
 244 00c0 F8BD     		pop	{r3, r4, r5, r6, r7, pc}
 245              	.L27:
 246 00c2 C046     		.align	2
 247              	.L26:
 248 00c4 00000000 		.word	base_state
 249 00c8 01000000 		.word	base_state+1
 250 00cc 00000000 		.word	.LANCHOR0
 251              		.cfi_endproc
 252              	.LFE3:
 253              		.size	inv_set_chip_power_state, .-inv_set_chip_power_state
 254              		.section	.text.inv_mems_allow_lpen_control,"ax",%progbits
 255              		.align	1
 256              		.global	inv_mems_allow_lpen_control
 257              		.code	16
 258              		.thumb_func
 259              		.type	inv_mems_allow_lpen_control, %function
 260              	inv_mems_allow_lpen_control:
 261              	.LFB1:
  43:.\20648_driver\drivers/inv_mems_base_driver.c **** 	sAllowLpEn = 1;
 262              		.loc 1 43 0
 263              		.cfi_startproc
  44:.\20648_driver\drivers/inv_mems_base_driver.c **** 	inv_set_chip_power_state(CHIP_LP_ENABLE, 1);
 264              		.loc 1 44 0
 265 0000 0121     		mov	r1, #1
  43:.\20648_driver\drivers/inv_mems_base_driver.c **** 	sAllowLpEn = 1;
ARM GAS  C:\Users\ADMINI~1\AppData\Local\Temp\ccA9rFPz.s 			page 8


 266              		.loc 1 43 0
 267 0002 08B5     		push	{r3, lr}
 268              		.cfi_def_cfa_offset 8
 269              		.cfi_offset 3, -8
 270              		.cfi_offset 14, -4
  44:.\20648_driver\drivers/inv_mems_base_driver.c **** 	inv_set_chip_power_state(CHIP_LP_ENABLE, 1);
 271              		.loc 1 44 0
 272 0004 024B     		ldr	r3, .L29
  45:.\20648_driver\drivers/inv_mems_base_driver.c **** }
 273              		.loc 1 45 0
 274 0006 0220     		mov	r0, #2
  44:.\20648_driver\drivers/inv_mems_base_driver.c **** 	inv_set_chip_power_state(CHIP_LP_ENABLE, 1);
 275              		.loc 1 44 0
 276 0008 1970     		strb	r1, [r3]
  46:.\20648_driver\drivers/inv_mems_base_driver.c **** static uint8_t inv_mems_get_lpen_control(void)
 277              		.loc 1 46 0
 278              		@ sp needed
  45:.\20648_driver\drivers/inv_mems_base_driver.c **** }
 279              		.loc 1 45 0
 280 000a FFF7FEFF 		bl	inv_set_chip_power_state
 281              	.LVL26:
  46:.\20648_driver\drivers/inv_mems_base_driver.c **** static uint8_t inv_mems_get_lpen_control(void)
 282              		.loc 1 46 0
 283 000e 08BD     		pop	{r3, pc}
 284              	.L30:
 285              		.align	2
 286              	.L29:
 287 0010 00000000 		.word	.LANCHOR0
 288              		.cfi_endproc
 289              	.LFE1:
 290              		.size	inv_mems_allow_lpen_control, .-inv_mems_allow_lpen_control
 291              		.section	.text.inv_get_chip_power_state,"ax",%progbits
 292              		.align	1
 293              		.global	inv_get_chip_power_state
 294              		.code	16
 295              		.thumb_func
 296              		.type	inv_get_chip_power_state, %function
 297              	inv_get_chip_power_state:
 298              	.LFB4:
 114:.\20648_driver\drivers/inv_mems_base_driver.c **** 
 115:.\20648_driver\drivers/inv_mems_base_driver.c **** /*!
 116:.\20648_driver\drivers/inv_mems_base_driver.c ****  ******************************************************************************
 117:.\20648_driver\drivers/inv_mems_base_driver.c ****  *   @return    Current wake status of the Ivory chip.
 118:.\20648_driver\drivers/inv_mems_base_driver.c ****  ******************************************************************************
 119:.\20648_driver\drivers/inv_mems_base_driver.c ****  */
 120:.\20648_driver\drivers/inv_mems_base_driver.c **** uint8_t inv_get_chip_power_state()
 121:.\20648_driver\drivers/inv_mems_base_driver.c **** {
 299              		.loc 1 121 0
 300              		.cfi_startproc
 122:.\20648_driver\drivers/inv_mems_base_driver.c ****     return base_state.wake_state;
 301              		.loc 1 122 0
 302 0000 014B     		ldr	r3, .L32
 123:.\20648_driver\drivers/inv_mems_base_driver.c **** }
 303              		.loc 1 123 0
 304              		@ sp needed
 122:.\20648_driver\drivers/inv_mems_base_driver.c ****     return base_state.wake_state;
 305              		.loc 1 122 0
ARM GAS  C:\Users\ADMINI~1\AppData\Local\Temp\ccA9rFPz.s 			page 9


 306 0002 1878     		ldrb	r0, [r3]
 307              		.loc 1 123 0
 308 0004 7047     		bx	lr
 309              	.L33:
 310 0006 C046     		.align	2
 311              	.L32:
 312 0008 00000000 		.word	base_state
 313              		.cfi_endproc
 314              	.LFE4:
 315              		.size	inv_get_chip_power_state, .-inv_get_chip_power_state
 316              		.section	.text.inv_wakeup_mems,"ax",%progbits
 317              		.align	1
 318              		.global	inv_wakeup_mems
 319              		.code	16
 320              		.thumb_func
 321              		.type	inv_wakeup_mems, %function
 322              	inv_wakeup_mems:
 323              	.LFB5:
 124:.\20648_driver\drivers/inv_mems_base_driver.c **** 
 125:.\20648_driver\drivers/inv_mems_base_driver.c **** /** Wakes up DMP3 (MEMS).
 126:.\20648_driver\drivers/inv_mems_base_driver.c **** */
 127:.\20648_driver\drivers/inv_mems_base_driver.c **** inv_error_t inv_wakeup_mems()
 128:.\20648_driver\drivers/inv_mems_base_driver.c **** {
 324              		.loc 1 128 0
 325              		.cfi_startproc
 326              	.LVL27:
 327 0000 37B5     		push	{r0, r1, r2, r4, r5, lr}
 328              		.cfi_def_cfa_offset 24
 329              		.cfi_offset 0, -24
 330              		.cfi_offset 1, -20
 331              		.cfi_offset 2, -16
 332              		.cfi_offset 4, -12
 333              		.cfi_offset 5, -8
 334              		.cfi_offset 14, -4
 129:.\20648_driver\drivers/inv_mems_base_driver.c ****     unsigned char data;
 130:.\20648_driver\drivers/inv_mems_base_driver.c ****     inv_error_t result = INV_SUCCESS;
 131:.\20648_driver\drivers/inv_mems_base_driver.c **** 
 132:.\20648_driver\drivers/inv_mems_base_driver.c ****     result = inv_set_chip_power_state(CHIP_AWAKE, 1);
 335              		.loc 1 132 0
 336 0002 0120     		mov	r0, #1
 337 0004 011C     		mov	r1, r0
 338 0006 FFF7FEFF 		bl	inv_set_chip_power_state
 339              	.LVL28:
 133:.\20648_driver\drivers/inv_mems_base_driver.c ****     
 134:.\20648_driver\drivers/inv_mems_base_driver.c ****     if(base_state.serial_interface == SERIAL_INTERFACE_SPI) {
 340              		.loc 1 134 0
 341 000a 134C     		ldr	r4, .L40
 132:.\20648_driver\drivers/inv_mems_base_driver.c ****     
 342              		.loc 1 132 0
 343 000c 051C     		mov	r5, r0
 344              	.LVL29:
 345              		.loc 1 134 0
 346 000e E37B     		ldrb	r3, [r4, #15]
 347 0010 022B     		cmp	r3, #2
 348 0012 06D1     		bne	.L35
 135:.\20648_driver\drivers/inv_mems_base_driver.c **** 		base_state.user_ctrl |= BIT_I2C_IF_DIS;
 349              		.loc 1 135 0
ARM GAS  C:\Users\ADMINI~1\AppData\Local\Temp\ccA9rFPz.s 			page 10


 350 0014 1021     		mov	r1, #16
 351 0016 E378     		ldrb	r3, [r4, #3]
 136:.\20648_driver\drivers/inv_mems_base_driver.c ****         inv_write_single_mems_reg(REG_USER_CTRL, base_state.user_ctrl);  
 352              		.loc 1 136 0
 353 0018 0320     		mov	r0, #3
 354              	.LVL30:
 135:.\20648_driver\drivers/inv_mems_base_driver.c **** 		base_state.user_ctrl |= BIT_I2C_IF_DIS;
 355              		.loc 1 135 0
 356 001a 1943     		orr	r1, r3
 357 001c E170     		strb	r1, [r4, #3]
 358              		.loc 1 136 0
 359 001e FFF7FEFF 		bl	inv_write_single_mems_reg
 360              	.LVL31:
 361              	.L35:
 137:.\20648_driver\drivers/inv_mems_base_driver.c ****     }		
 138:.\20648_driver\drivers/inv_mems_base_driver.c ****     
 139:.\20648_driver\drivers/inv_mems_base_driver.c ****     data = 0x47;	// FIXME, should set up according to sensor/engines enabled.
 362              		.loc 1 139 0
 363 0022 6B46     		mov	r3, sp
 364 0024 DA1D     		add	r2, r3, #7
 365 0026 4723     		mov	r3, #71
 140:.\20648_driver\drivers/inv_mems_base_driver.c ****     result |= inv_write_mems_reg(REG_PWR_MGMT_2, 1, &data);
 366              		.loc 1 140 0
 367 0028 0720     		mov	r0, #7
 368 002a 0121     		mov	r1, #1
 139:.\20648_driver\drivers/inv_mems_base_driver.c ****     result |= inv_write_mems_reg(REG_PWR_MGMT_2, 1, &data);
 369              		.loc 1 139 0
 370 002c 1370     		strb	r3, [r2]
 371              		.loc 1 140 0
 372 002e FFF7FEFF 		bl	inv_write_mems_reg
 373              	.LVL32:
 141:.\20648_driver\drivers/inv_mems_base_driver.c **** 
 142:.\20648_driver\drivers/inv_mems_base_driver.c ****     if(base_state.firmware_loaded == 1) {
 374              		.loc 1 142 0
 375 0032 A37B     		ldrb	r3, [r4, #14]
 140:.\20648_driver\drivers/inv_mems_base_driver.c **** 
 376              		.loc 1 140 0
 377 0034 0543     		orr	r5, r0
 378              	.LVL33:
 379              		.loc 1 142 0
 380 0036 9B07     		lsl	r3, r3, #30
 381 0038 07D5     		bpl	.L36
 143:.\20648_driver\drivers/inv_mems_base_driver.c ****         base_state.user_ctrl |= BIT_DMP_EN | BIT_FIFO_EN;
 382              		.loc 1 143 0
 383 003a C023     		mov	r3, #192
 384 003c E178     		ldrb	r1, [r4, #3]
 144:.\20648_driver\drivers/inv_mems_base_driver.c ****         result |= inv_write_single_mems_reg(REG_USER_CTRL, base_state.user_ctrl);  
 385              		.loc 1 144 0
 386 003e 0320     		mov	r0, #3
 143:.\20648_driver\drivers/inv_mems_base_driver.c ****         base_state.user_ctrl |= BIT_DMP_EN | BIT_FIFO_EN;
 387              		.loc 1 143 0
 388 0040 1943     		orr	r1, r3
 389 0042 E170     		strb	r1, [r4, #3]
 390              		.loc 1 144 0
 391 0044 FFF7FEFF 		bl	inv_write_single_mems_reg
 392              	.LVL34:
 393 0048 0543     		orr	r5, r0
ARM GAS  C:\Users\ADMINI~1\AppData\Local\Temp\ccA9rFPz.s 			page 11


 394              	.LVL35:
 395              	.L36:
 145:.\20648_driver\drivers/inv_mems_base_driver.c ****     }
 146:.\20648_driver\drivers/inv_mems_base_driver.c **** 
 147:.\20648_driver\drivers/inv_mems_base_driver.c ****     result |= inv_set_chip_power_state(CHIP_LP_ENABLE, 1);
 396              		.loc 1 147 0
 397 004a 0121     		mov	r1, #1
 398 004c 0220     		mov	r0, #2
 399 004e FFF7FEFF 		bl	inv_set_chip_power_state
 400              	.LVL36:
 148:.\20648_driver\drivers/inv_mems_base_driver.c ****     return result;
 149:.\20648_driver\drivers/inv_mems_base_driver.c **** }
 401              		.loc 1 149 0
 402              		@ sp needed
 147:.\20648_driver\drivers/inv_mems_base_driver.c ****     return result;
 403              		.loc 1 147 0
 404 0052 2843     		orr	r0, r5
 405              	.LVL37:
 406              		.loc 1 149 0
 407 0054 3EBD     		pop	{r1, r2, r3, r4, r5, pc}
 408              	.L41:
 409 0056 C046     		.align	2
 410              	.L40:
 411 0058 00000000 		.word	base_state
 412              		.cfi_endproc
 413              	.LFE5:
 414              		.size	inv_wakeup_mems, .-inv_wakeup_mems
 415              		.section	.text.inv_sleep_mems,"ax",%progbits
 416              		.align	1
 417              		.global	inv_sleep_mems
 418              		.code	16
 419              		.thumb_func
 420              		.type	inv_sleep_mems, %function
 421              	inv_sleep_mems:
 422              	.LFB6:
 150:.\20648_driver\drivers/inv_mems_base_driver.c **** 
 151:.\20648_driver\drivers/inv_mems_base_driver.c **** /** Puts DMP3 (MEMS) into the lowest power state. Assumes sensors are all off.
 152:.\20648_driver\drivers/inv_mems_base_driver.c **** */
 153:.\20648_driver\drivers/inv_mems_base_driver.c **** inv_error_t inv_sleep_mems()
 154:.\20648_driver\drivers/inv_mems_base_driver.c **** {
 423              		.loc 1 154 0
 424              		.cfi_startproc
 425 0000 13B5     		push	{r0, r1, r4, lr}
 426              		.cfi_def_cfa_offset 16
 427              		.cfi_offset 0, -16
 428              		.cfi_offset 1, -12
 429              		.cfi_offset 4, -8
 430              		.cfi_offset 14, -4
 155:.\20648_driver\drivers/inv_mems_base_driver.c ****     inv_error_t result;
 156:.\20648_driver\drivers/inv_mems_base_driver.c ****     unsigned char data;
 157:.\20648_driver\drivers/inv_mems_base_driver.c **** 
 158:.\20648_driver\drivers/inv_mems_base_driver.c ****     data = 0x7F;
 431              		.loc 1 158 0
 432 0002 6B46     		mov	r3, sp
 433 0004 DA1D     		add	r2, r3, #7
 434 0006 7F23     		mov	r3, #127
 159:.\20648_driver\drivers/inv_mems_base_driver.c **** 	result = inv_write_mems_reg(REG_PWR_MGMT_2, 1, &data);
ARM GAS  C:\Users\ADMINI~1\AppData\Local\Temp\ccA9rFPz.s 			page 12


 435              		.loc 1 159 0
 436 0008 0121     		mov	r1, #1
 437 000a 0720     		mov	r0, #7
 158:.\20648_driver\drivers/inv_mems_base_driver.c **** 	result = inv_write_mems_reg(REG_PWR_MGMT_2, 1, &data);
 438              		.loc 1 158 0
 439 000c 1370     		strb	r3, [r2]
 440              		.loc 1 159 0
 441 000e FFF7FEFF 		bl	inv_write_mems_reg
 442              	.LVL38:
 160:.\20648_driver\drivers/inv_mems_base_driver.c **** 
 161:.\20648_driver\drivers/inv_mems_base_driver.c ****     result |= inv_set_chip_power_state(CHIP_AWAKE, 0);
 443              		.loc 1 161 0
 444 0012 0021     		mov	r1, #0
 159:.\20648_driver\drivers/inv_mems_base_driver.c **** 
 445              		.loc 1 159 0
 446 0014 041C     		mov	r4, r0
 447              	.LVL39:
 448              		.loc 1 161 0
 449 0016 0120     		mov	r0, #1
 450              	.LVL40:
 451 0018 FFF7FEFF 		bl	inv_set_chip_power_state
 452              	.LVL41:
 162:.\20648_driver\drivers/inv_mems_base_driver.c **** 
 163:.\20648_driver\drivers/inv_mems_base_driver.c ****     return result;
 164:.\20648_driver\drivers/inv_mems_base_driver.c **** }
 453              		.loc 1 164 0
 454              		@ sp needed
 161:.\20648_driver\drivers/inv_mems_base_driver.c **** 
 455              		.loc 1 161 0
 456 001c 2043     		orr	r0, r4
 457              	.LVL42:
 458              		.loc 1 164 0
 459 001e 16BD     		pop	{r1, r2, r4, pc}
 460              		.cfi_endproc
 461              	.LFE6:
 462              		.size	inv_sleep_mems, .-inv_sleep_mems
 463              		.section	.text.inv_set_dmp_address,"ax",%progbits
 464              		.align	1
 465              		.global	inv_set_dmp_address
 466              		.code	16
 467              		.thumb_func
 468              		.type	inv_set_dmp_address, %function
 469              	inv_set_dmp_address:
 470              	.LFB7:
 165:.\20648_driver\drivers/inv_mems_base_driver.c **** 
 166:.\20648_driver\drivers/inv_mems_base_driver.c **** inv_error_t inv_set_dmp_address()
 167:.\20648_driver\drivers/inv_mems_base_driver.c **** {
 471              		.loc 1 167 0
 472              		.cfi_startproc
 168:.\20648_driver\drivers/inv_mems_base_driver.c **** 	inv_error_t result;
 169:.\20648_driver\drivers/inv_mems_base_driver.c ****     unsigned char dmp_cfg[2] = {0};
 473              		.loc 1 169 0
 474 0000 0023     		mov	r3, #0
 167:.\20648_driver\drivers/inv_mems_base_driver.c **** 	inv_error_t result;
 475              		.loc 1 167 0
 476 0002 37B5     		push	{r0, r1, r2, r4, r5, lr}
 477              		.cfi_def_cfa_offset 24
ARM GAS  C:\Users\ADMINI~1\AppData\Local\Temp\ccA9rFPz.s 			page 13


 478              		.cfi_offset 0, -24
 479              		.cfi_offset 1, -20
 480              		.cfi_offset 2, -16
 481              		.cfi_offset 4, -12
 482              		.cfi_offset 5, -8
 483              		.cfi_offset 14, -4
 484              		.loc 1 169 0
 485 0004 01AC     		add	r4, sp, #4
 486 0006 2380     		strh	r3, [r4]
 170:.\20648_driver\drivers/inv_mems_base_driver.c **** 	unsigned short config;
 171:.\20648_driver\drivers/inv_mems_base_driver.c ****     
 172:.\20648_driver\drivers/inv_mems_base_driver.c **** 	// Write DMP Start address
 173:.\20648_driver\drivers/inv_mems_base_driver.c **** 	inv_get_dmp_start_address(&config);
 487              		.loc 1 173 0
 488 0008 6B46     		mov	r3, sp
 489 000a 9D1D     		add	r5, r3, #6
 490 000c 281C     		mov	r0, r5
 491 000e FFF7FEFF 		bl	inv_get_dmp_start_address
 492              	.LVL43:
 174:.\20648_driver\drivers/inv_mems_base_driver.c **** 	/* setup DMP start address and firmware */
 175:.\20648_driver\drivers/inv_mems_base_driver.c **** 	dmp_cfg[0] = (unsigned char)((config >> 8) & 0xff);
 176:.\20648_driver\drivers/inv_mems_base_driver.c **** 	dmp_cfg[1] = (unsigned char)(config & 0xff);
 177:.\20648_driver\drivers/inv_mems_base_driver.c ****     
 178:.\20648_driver\drivers/inv_mems_base_driver.c **** 	result = inv_write_mems_reg(REG_PRGM_START_ADDRH, 2, dmp_cfg);
 493              		.loc 1 178 0
 494 0012 A820     		mov	r0, #168
 175:.\20648_driver\drivers/inv_mems_base_driver.c **** 	dmp_cfg[1] = (unsigned char)(config & 0xff);
 495              		.loc 1 175 0
 496 0014 2B88     		ldrh	r3, [r5]
 497              		.loc 1 178 0
 498 0016 0221     		mov	r1, #2
 175:.\20648_driver\drivers/inv_mems_base_driver.c **** 	dmp_cfg[1] = (unsigned char)(config & 0xff);
 499              		.loc 1 175 0
 500 0018 1A0A     		lsr	r2, r3, #8
 501 001a 2270     		strb	r2, [r4]
 502              		.loc 1 178 0
 503 001c 4000     		lsl	r0, r0, #1
 504 001e 221C     		mov	r2, r4
 176:.\20648_driver\drivers/inv_mems_base_driver.c ****     
 505              		.loc 1 176 0
 506 0020 6370     		strb	r3, [r4, #1]
 179:.\20648_driver\drivers/inv_mems_base_driver.c **** 	return result;
 180:.\20648_driver\drivers/inv_mems_base_driver.c **** }
 507              		.loc 1 180 0
 508              		@ sp needed
 178:.\20648_driver\drivers/inv_mems_base_driver.c **** 	return result;
 509              		.loc 1 178 0
 510 0022 FFF7FEFF 		bl	inv_write_mems_reg
 511              	.LVL44:
 512              		.loc 1 180 0
 513 0026 3EBD     		pop	{r1, r2, r3, r4, r5, pc}
 514              		.cfi_endproc
 515              	.LFE7:
 516              		.size	inv_set_dmp_address, .-inv_set_dmp_address
 517              		.section	.text.inv_set_secondary,"ax",%progbits
 518              		.align	1
 519              		.global	inv_set_secondary
ARM GAS  C:\Users\ADMINI~1\AppData\Local\Temp\ccA9rFPz.s 			page 14


 520              		.code	16
 521              		.thumb_func
 522              		.type	inv_set_secondary, %function
 523              	inv_set_secondary:
 524              	.LFB8:
 181:.\20648_driver\drivers/inv_mems_base_driver.c **** 
 182:.\20648_driver\drivers/inv_mems_base_driver.c **** /**
 183:.\20648_driver\drivers/inv_mems_base_driver.c **** *  @brief      Set up the secondary I2C bus on 20630.
 184:.\20648_driver\drivers/inv_mems_base_driver.c **** *  @param[in]  MPU state varible
 185:.\20648_driver\drivers/inv_mems_base_driver.c **** *  @return     0 if successful.
 186:.\20648_driver\drivers/inv_mems_base_driver.c **** */
 187:.\20648_driver\drivers/inv_mems_base_driver.c **** 
 188:.\20648_driver\drivers/inv_mems_base_driver.c **** inv_error_t inv_set_secondary()
 189:.\20648_driver\drivers/inv_mems_base_driver.c **** {
 525              		.loc 1 189 0
 526              		.cfi_startproc
 527              	.LVL45:
 190:.\20648_driver\drivers/inv_mems_base_driver.c **** 	inv_error_t r = 0;
 528              		.loc 1 190 0
 529 0000 0020     		mov	r0, #0
 189:.\20648_driver\drivers/inv_mems_base_driver.c **** 	inv_error_t r = 0;
 530              		.loc 1 189 0
 531 0002 38B5     		push	{r3, r4, r5, lr}
 532              		.cfi_def_cfa_offset 16
 533              		.cfi_offset 3, -16
 534              		.cfi_offset 4, -12
 535              		.cfi_offset 5, -8
 536              		.cfi_offset 14, -4
 191:.\20648_driver\drivers/inv_mems_base_driver.c ****     static uint8_t lIsInited = 0;
 192:.\20648_driver\drivers/inv_mems_base_driver.c **** 
 193:.\20648_driver\drivers/inv_mems_base_driver.c ****     if(lIsInited == 0)
 537              		.loc 1 193 0
 538 0004 094D     		ldr	r5, .L47
 539 0006 2B78     		ldrb	r3, [r5]
 540 0008 8342     		cmp	r3, r0
 541 000a 0DD1     		bne	.L45
 194:.\20648_driver\drivers/inv_mems_base_driver.c ****     {
 195:.\20648_driver\drivers/inv_mems_base_driver.c ****         r = inv_write_single_mems_reg(REG_I2C_MST_CTRL, BIT_I2C_MST_P_NSR);
 542              		.loc 1 195 0
 543 000c 8220     		mov	r0, #130
 544 000e 1021     		mov	r1, #16
 545 0010 FF30     		add	r0, r0, #255
 546 0012 FFF7FEFF 		bl	inv_write_single_mems_reg
 547              	.LVL46:
 548 0016 041C     		mov	r4, r0
 549              	.LVL47:
 196:.\20648_driver\drivers/inv_mems_base_driver.c **** 
 197:.\20648_driver\drivers/inv_mems_base_driver.c ****         r |= inv_write_single_mems_reg(REG_I2C_MST_ODR_CONFIG, MIN_MST_ODR_CONFIG);
 550              		.loc 1 197 0
 551 0018 C020     		mov	r0, #192
 552              	.LVL48:
 553 001a 0421     		mov	r1, #4
 554 001c 4000     		lsl	r0, r0, #1
 555 001e FFF7FEFF 		bl	inv_write_single_mems_reg
 556              	.LVL49:
 198:.\20648_driver\drivers/inv_mems_base_driver.c ****         
 199:.\20648_driver\drivers/inv_mems_base_driver.c ****         lIsInited = 1;
ARM GAS  C:\Users\ADMINI~1\AppData\Local\Temp\ccA9rFPz.s 			page 15


 557              		.loc 1 199 0
 558 0022 0123     		mov	r3, #1
 197:.\20648_driver\drivers/inv_mems_base_driver.c ****         
 559              		.loc 1 197 0
 560 0024 2043     		orr	r0, r4
 561              	.LVL50:
 562              		.loc 1 199 0
 563 0026 2B70     		strb	r3, [r5]
 564              	.LVL51:
 565              	.L45:
 200:.\20648_driver\drivers/inv_mems_base_driver.c ****     }
 201:.\20648_driver\drivers/inv_mems_base_driver.c **** 	return r;
 202:.\20648_driver\drivers/inv_mems_base_driver.c **** }
 566              		.loc 1 202 0
 567              		@ sp needed
 568 0028 38BD     		pop	{r3, r4, r5, pc}
 569              	.L48:
 570 002a C046     		.align	2
 571              	.L47:
 572 002c 00000000 		.word	.LANCHOR1
 573              		.cfi_endproc
 574              	.LFE8:
 575              		.size	inv_set_secondary, .-inv_set_secondary
 576              		.section	.text.inv_set_gyro_divider,"ax",%progbits
 577              		.align	1
 578              		.global	inv_set_gyro_divider
 579              		.code	16
 580              		.thumb_func
 581              		.type	inv_set_gyro_divider, %function
 582              	inv_set_gyro_divider:
 583              	.LFB10:
 203:.\20648_driver\drivers/inv_mems_base_driver.c **** 
 204:.\20648_driver\drivers/inv_mems_base_driver.c **** /** Should be called once on power up. Loads DMP3, initializes internal variables needed 
 205:.\20648_driver\drivers/inv_mems_base_driver.c **** *   for other lower driver functions.
 206:.\20648_driver\drivers/inv_mems_base_driver.c **** */
 207:.\20648_driver\drivers/inv_mems_base_driver.c **** inv_error_t inv_initialize_lower_driver(enum MEMS_SERIAL_INTERFACE type, const unsigned char *dmp_i
 208:.\20648_driver\drivers/inv_mems_base_driver.c **** {
 209:.\20648_driver\drivers/inv_mems_base_driver.c ****     inv_error_t result = 0;
 210:.\20648_driver\drivers/inv_mems_base_driver.c ****     static unsigned char data;
 211:.\20648_driver\drivers/inv_mems_base_driver.c **** 	unsigned char WhoAmI = 0;
 212:.\20648_driver\drivers/inv_mems_base_driver.c **** 
 213:.\20648_driver\drivers/inv_mems_base_driver.c ****     // Set varialbes to default values
 214:.\20648_driver\drivers/inv_mems_base_driver.c ****     memset(&base_state, 0, sizeof(base_state));
 215:.\20648_driver\drivers/inv_mems_base_driver.c ****     base_state.pwr_mgmt_1 = BIT_CLK_PLL;
 216:.\20648_driver\drivers/inv_mems_base_driver.c ****     base_state.pwr_mgmt_2 = BIT_PWR_ACCEL_STBY | BIT_PWR_GYRO_STBY | BIT_PWR_PRESSURE_STBY;
 217:.\20648_driver\drivers/inv_mems_base_driver.c ****     base_state.serial_interface = type;
 218:.\20648_driver\drivers/inv_mems_base_driver.c ****     result |= inv_read_mems_reg(REG_WHO_AM_I, 1, &WhoAmI);
 219:.\20648_driver\drivers/inv_mems_base_driver.c ****     result |= inv_read_mems_reg(REG_USER_CTRL, 1, &base_state.user_ctrl);
 220:.\20648_driver\drivers/inv_mems_base_driver.c **** 
 221:.\20648_driver\drivers/inv_mems_base_driver.c ****     result |= inv_wakeup_mems();
 222:.\20648_driver\drivers/inv_mems_base_driver.c **** 
 223:.\20648_driver\drivers/inv_mems_base_driver.c **** #if defined MEMS_SECONDARY_DEVICE
 224:.\20648_driver\drivers/inv_mems_base_driver.c **** 	/* secondary cycle mode should be set all the time */
 225:.\20648_driver\drivers/inv_mems_base_driver.c **** 	data = BIT_I2C_MST_CYCLE|BIT_ACCEL_CYCLE|BIT_GYRO_CYCLE;
 226:.\20648_driver\drivers/inv_mems_base_driver.c **** #else
 227:.\20648_driver\drivers/inv_mems_base_driver.c **** 	data = BIT_ACCEL_CYCLE|BIT_GYRO_CYCLE;
 228:.\20648_driver\drivers/inv_mems_base_driver.c **** #endif
ARM GAS  C:\Users\ADMINI~1\AppData\Local\Temp\ccA9rFPz.s 			page 16


 229:.\20648_driver\drivers/inv_mems_base_driver.c **** 	result |= inv_write_mems_reg(REG_LP_CONFIG, 1, &data);
 230:.\20648_driver\drivers/inv_mems_base_driver.c **** 
 231:.\20648_driver\drivers/inv_mems_base_driver.c **** 	// Disable Ivory DMP.
 232:.\20648_driver\drivers/inv_mems_base_driver.c ****     if(base_state.serial_interface == SERIAL_INTERFACE_SPI)   
 233:.\20648_driver\drivers/inv_mems_base_driver.c **** 	    base_state.user_ctrl = BIT_I2C_IF_DIS;
 234:.\20648_driver\drivers/inv_mems_base_driver.c ****     else
 235:.\20648_driver\drivers/inv_mems_base_driver.c **** 	    base_state.user_ctrl = 0;
 236:.\20648_driver\drivers/inv_mems_base_driver.c **** 
 237:.\20648_driver\drivers/inv_mems_base_driver.c ****     result |= inv_write_single_mems_reg(REG_USER_CTRL, base_state.user_ctrl);
 238:.\20648_driver\drivers/inv_mems_base_driver.c **** 
 239:.\20648_driver\drivers/inv_mems_base_driver.c **** 	//Setup Ivory DMP.
 240:.\20648_driver\drivers/inv_mems_base_driver.c ****     result |= inv_load_firmware(dmp_image_sram);
 241:.\20648_driver\drivers/inv_mems_base_driver.c ****     
 242:.\20648_driver\drivers/inv_mems_base_driver.c **** 	if(result)
 243:.\20648_driver\drivers/inv_mems_base_driver.c **** 	{
 244:.\20648_driver\drivers/inv_mems_base_driver.c **** 		return result;
 245:.\20648_driver\drivers/inv_mems_base_driver.c **** 	}
 246:.\20648_driver\drivers/inv_mems_base_driver.c ****     else
 247:.\20648_driver\drivers/inv_mems_base_driver.c **** 	{
 248:.\20648_driver\drivers/inv_mems_base_driver.c ****         base_state.firmware_loaded = 1;
 249:.\20648_driver\drivers/inv_mems_base_driver.c **** 	}
 250:.\20648_driver\drivers/inv_mems_base_driver.c ****     
 251:.\20648_driver\drivers/inv_mems_base_driver.c **** 	result |= inv_set_dmp_address();
 252:.\20648_driver\drivers/inv_mems_base_driver.c ****     // Turn off all sensors on DMP by default.
 253:.\20648_driver\drivers/inv_mems_base_driver.c **** 	//result |= dmp_set_data_output_control1(0);   // FIXME in DMP, these should be off by default.
 254:.\20648_driver\drivers/inv_mems_base_driver.c **** 	result |= dmp_reset_control_registers();
 255:.\20648_driver\drivers/inv_mems_base_driver.c **** 	
 256:.\20648_driver\drivers/inv_mems_base_driver.c **** 	// set FIFO watermark to 80% of actual FIFO size
 257:.\20648_driver\drivers/inv_mems_base_driver.c **** 	result |= dmp_set_FIFO_watermark(800);
 258:.\20648_driver\drivers/inv_mems_base_driver.c **** 
 259:.\20648_driver\drivers/inv_mems_base_driver.c ****     // Enable Interrupts.
 260:.\20648_driver\drivers/inv_mems_base_driver.c ****     data = 0x2;
 261:.\20648_driver\drivers/inv_mems_base_driver.c ****     result |= inv_write_mems_reg(REG_INT_ENABLE, 1, &data); // Enable DMP Interrupt
 262:.\20648_driver\drivers/inv_mems_base_driver.c ****     data = 0x1;
 263:.\20648_driver\drivers/inv_mems_base_driver.c ****     result |= inv_write_mems_reg(REG_INT_ENABLE_2, 1, &data); // Enable FIFO Overflow Interrupt
 264:.\20648_driver\drivers/inv_mems_base_driver.c **** 
 265:.\20648_driver\drivers/inv_mems_base_driver.c ****     
 266:.\20648_driver\drivers/inv_mems_base_driver.c **** 
 267:.\20648_driver\drivers/inv_mems_base_driver.c **** #if (MEMS_CHIP == HW_ICM20648)
 268:.\20648_driver\drivers/inv_mems_base_driver.c **** 	// TRACKING : To have accelerometers datas and the interrupt without gyro enables.
 269:.\20648_driver\drivers/inv_mems_base_driver.c **** 	data = 0XE4;
 270:.\20648_driver\drivers/inv_mems_base_driver.c ****     result |= inv_write_mems_reg(REG_SINGLE_FIFO_PRIORITY_SEL, 1, &data);
 271:.\20648_driver\drivers/inv_mems_base_driver.c **** 
 272:.\20648_driver\drivers/inv_mems_base_driver.c **** 	// Disable HW temp fix
 273:.\20648_driver\drivers/inv_mems_base_driver.c **** 	inv_read_mems_reg(REG_HW_FIX_DISABLE,1,&data);
 274:.\20648_driver\drivers/inv_mems_base_driver.c **** 	data |= 0x08;
 275:.\20648_driver\drivers/inv_mems_base_driver.c **** 	inv_write_mems_reg(REG_HW_FIX_DISABLE,1,&data);
 276:.\20648_driver\drivers/inv_mems_base_driver.c **** #endif
 277:.\20648_driver\drivers/inv_mems_base_driver.c **** 
 278:.\20648_driver\drivers/inv_mems_base_driver.c **** 	// Setup MEMs properties.
 279:.\20648_driver\drivers/inv_mems_base_driver.c ****     base_state.accel_averaging = 1; //Change this value if higher sensor sample avergaing is requir
 280:.\20648_driver\drivers/inv_mems_base_driver.c ****     base_state.gyro_averaging = 1;  //Change this value if higher sensor sample avergaing is requir
 281:.\20648_driver\drivers/inv_mems_base_driver.c **** 	inv_set_gyro_divider(FIFO_DIVIDER);       //Initial sampling rate 1125Hz/10+1 = 102Hz.
 282:.\20648_driver\drivers/inv_mems_base_driver.c ****     inv_set_accel_divider(FIFO_DIVIDER);      //Initial sampling rate 1125Hz/10+1 = 102Hz.
 283:.\20648_driver\drivers/inv_mems_base_driver.c **** 	result |= inv_set_gyro_fullscale(MPU_FS_2000dps);
 284:.\20648_driver\drivers/inv_mems_base_driver.c **** 	result |= inv_set_accel_fullscale(MPU_FS_2G);
 285:.\20648_driver\drivers/inv_mems_base_driver.c **** 
ARM GAS  C:\Users\ADMINI~1\AppData\Local\Temp\ccA9rFPz.s 			page 17


 286:.\20648_driver\drivers/inv_mems_base_driver.c ****     // FIFO Setup.
 287:.\20648_driver\drivers/inv_mems_base_driver.c ****     result |= inv_write_single_mems_reg(REG_FIFO_CFG, BIT_SINGLE_FIFO_CFG); // FIFO Config. fixme d
 288:.\20648_driver\drivers/inv_mems_base_driver.c ****     result |= inv_write_single_mems_reg(REG_FIFO_RST, 0x1f); // Reset all FIFOs.
 289:.\20648_driver\drivers/inv_mems_base_driver.c ****     result |= inv_write_single_mems_reg(REG_FIFO_RST, 0x1e); // Keep all but Gyro FIFO in reset.
 290:.\20648_driver\drivers/inv_mems_base_driver.c ****     result |= inv_write_single_mems_reg(REG_FIFO_EN, 0x0); // Slave FIFO turned off.
 291:.\20648_driver\drivers/inv_mems_base_driver.c ****     result |= inv_write_single_mems_reg(REG_FIFO_EN_2, 0x0); // Hardware FIFO turned off.
 292:.\20648_driver\drivers/inv_mems_base_driver.c ****     
 293:.\20648_driver\drivers/inv_mems_base_driver.c **** 	result |= inv_read_mems(MPU_SOFT_UPDT_ADDR, 1, &data);
 294:.\20648_driver\drivers/inv_mems_base_driver.c **** #if (MEMS_CHIP == HW_ICM20648)
 295:.\20648_driver\drivers/inv_mems_base_driver.c **** 	// Check board version
 296:.\20648_driver\drivers/inv_mems_base_driver.c **** 	if (data & 0x8)
 297:.\20648_driver\drivers/inv_mems_base_driver.c **** 		return INV_ERROR_INVALID_CONFIGURATION;
 298:.\20648_driver\drivers/inv_mems_base_driver.c **** #endif
 299:.\20648_driver\drivers/inv_mems_base_driver.c **** 
 300:.\20648_driver\drivers/inv_mems_base_driver.c ****         base_state.lp_en_support = 1;
 301:.\20648_driver\drivers/inv_mems_base_driver.c **** 	
 302:.\20648_driver\drivers/inv_mems_base_driver.c **** #if (MEMS_CHIP == HW_ICM30630 || MEMS_CHIP == HW_ICM20645_E)
 303:.\20648_driver\drivers/inv_mems_base_driver.c **** 	// Check LP_EN support.
 304:.\20648_driver\drivers/inv_mems_base_driver.c **** 	data &= MPU_SOFT_UPTD_MASK;
 305:.\20648_driver\drivers/inv_mems_base_driver.c **** 	if (data != 0x04)
 306:.\20648_driver\drivers/inv_mems_base_driver.c **** 		base_state.lp_en_support = 0;
 307:.\20648_driver\drivers/inv_mems_base_driver.c **** #endif
 308:.\20648_driver\drivers/inv_mems_base_driver.c **** 	if(base_state.lp_en_support == 1)
 309:.\20648_driver\drivers/inv_mems_base_driver.c **** 		inv_set_chip_power_state(CHIP_LP_ENABLE, 1);
 310:.\20648_driver\drivers/inv_mems_base_driver.c **** 
 311:.\20648_driver\drivers/inv_mems_base_driver.c ****     result |= inv_sleep_mems();   
 312:.\20648_driver\drivers/inv_mems_base_driver.c ****         
 313:.\20648_driver\drivers/inv_mems_base_driver.c ****     return result;
 314:.\20648_driver\drivers/inv_mems_base_driver.c **** }
 315:.\20648_driver\drivers/inv_mems_base_driver.c **** 
 316:.\20648_driver\drivers/inv_mems_base_driver.c **** #if defined MEMS_SECONDARY_DEVICE
 317:.\20648_driver\drivers/inv_mems_base_driver.c **** 
 318:.\20648_driver\drivers/inv_mems_base_driver.c **** static void activate_compass(void)
 319:.\20648_driver\drivers/inv_mems_base_driver.c **** {
 320:.\20648_driver\drivers/inv_mems_base_driver.c **** 	s_compass_available = 1;
 321:.\20648_driver\drivers/inv_mems_base_driver.c **** }
 322:.\20648_driver\drivers/inv_mems_base_driver.c **** 
 323:.\20648_driver\drivers/inv_mems_base_driver.c **** static void desactivate_compass(void)
 324:.\20648_driver\drivers/inv_mems_base_driver.c **** {
 325:.\20648_driver\drivers/inv_mems_base_driver.c **** 	s_compass_available = 0;
 326:.\20648_driver\drivers/inv_mems_base_driver.c **** }
 327:.\20648_driver\drivers/inv_mems_base_driver.c **** 
 328:.\20648_driver\drivers/inv_mems_base_driver.c **** int inv_mems_get_compass_availability(void)
 329:.\20648_driver\drivers/inv_mems_base_driver.c **** {
 330:.\20648_driver\drivers/inv_mems_base_driver.c **** 	return s_compass_available;
 331:.\20648_driver\drivers/inv_mems_base_driver.c **** }
 332:.\20648_driver\drivers/inv_mems_base_driver.c **** 
 333:.\20648_driver\drivers/inv_mems_base_driver.c **** static void activate_pressure(void)
 334:.\20648_driver\drivers/inv_mems_base_driver.c **** {
 335:.\20648_driver\drivers/inv_mems_base_driver.c **** 	s_pressure_available = 1;
 336:.\20648_driver\drivers/inv_mems_base_driver.c **** }
 337:.\20648_driver\drivers/inv_mems_base_driver.c **** 
 338:.\20648_driver\drivers/inv_mems_base_driver.c **** static void desactivate_pressure(void)
 339:.\20648_driver\drivers/inv_mems_base_driver.c **** {
 340:.\20648_driver\drivers/inv_mems_base_driver.c **** 	s_pressure_available = 0;
 341:.\20648_driver\drivers/inv_mems_base_driver.c **** }
 342:.\20648_driver\drivers/inv_mems_base_driver.c **** 
ARM GAS  C:\Users\ADMINI~1\AppData\Local\Temp\ccA9rFPz.s 			page 18


 343:.\20648_driver\drivers/inv_mems_base_driver.c **** int inv_mems_get_pressure_availability(void)
 344:.\20648_driver\drivers/inv_mems_base_driver.c **** {
 345:.\20648_driver\drivers/inv_mems_base_driver.c **** 	return s_pressure_available;
 346:.\20648_driver\drivers/inv_mems_base_driver.c **** }
 347:.\20648_driver\drivers/inv_mems_base_driver.c **** 
 348:.\20648_driver\drivers/inv_mems_base_driver.c **** inv_error_t inv_set_slave_compass_id(int id)
 349:.\20648_driver\drivers/inv_mems_base_driver.c **** {
 350:.\20648_driver\drivers/inv_mems_base_driver.c **** 	inv_error_t result = 0;
 351:.\20648_driver\drivers/inv_mems_base_driver.c **** 
 352:.\20648_driver\drivers/inv_mems_base_driver.c **** 	//result = inv_wakeup_mems();
 353:.\20648_driver\drivers/inv_mems_base_driver.c **** 	//if (result)
 354:.\20648_driver\drivers/inv_mems_base_driver.c **** 	//	return result;
 355:.\20648_driver\drivers/inv_mems_base_driver.c **** 		
 356:.\20648_driver\drivers/inv_mems_base_driver.c **** 	inv_mems_prevent_lpen_control();
 357:.\20648_driver\drivers/inv_mems_base_driver.c **** 	activate_compass();
 358:.\20648_driver\drivers/inv_mems_base_driver.c **** 	
 359:.\20648_driver\drivers/inv_mems_base_driver.c **** 	inv_init_secondary();
 360:.\20648_driver\drivers/inv_mems_base_driver.c **** 
 361:.\20648_driver\drivers/inv_mems_base_driver.c **** 	// Set up the secondary I2C bus on 20630.
 362:.\20648_driver\drivers/inv_mems_base_driver.c **** 	inv_set_secondary();
 363:.\20648_driver\drivers/inv_mems_base_driver.c **** 
 364:.\20648_driver\drivers/inv_mems_base_driver.c **** 	//Setup Compass
 365:.\20648_driver\drivers/inv_mems_base_driver.c **** 	result = inv_setup_compass_akm();
 366:.\20648_driver\drivers/inv_mems_base_driver.c **** 
 367:.\20648_driver\drivers/inv_mems_base_driver.c **** 	//Setup Compass mounting matrix into DMP
 368:.\20648_driver\drivers/inv_mems_base_driver.c **** 	result |= inv_compass_dmp_cal(ACCEL_GYRO_ORIENTATION, COMPASS_ORIENTATION);
 369:.\20648_driver\drivers/inv_mems_base_driver.c **** 	
 370:.\20648_driver\drivers/inv_mems_base_driver.c **** 	if (result)
 371:.\20648_driver\drivers/inv_mems_base_driver.c **** 		desactivate_compass();
 372:.\20648_driver\drivers/inv_mems_base_driver.c **** 
 373:.\20648_driver\drivers/inv_mems_base_driver.c **** 	//result = inv_sleep_mems();
 374:.\20648_driver\drivers/inv_mems_base_driver.c **** 	inv_mems_allow_lpen_control();
 375:.\20648_driver\drivers/inv_mems_base_driver.c **** 	return result;
 376:.\20648_driver\drivers/inv_mems_base_driver.c **** }
 377:.\20648_driver\drivers/inv_mems_base_driver.c **** 
 378:.\20648_driver\drivers/inv_mems_base_driver.c **** inv_error_t inv_set_slave_pressure_id(void)
 379:.\20648_driver\drivers/inv_mems_base_driver.c **** {
 380:.\20648_driver\drivers/inv_mems_base_driver.c **** 	inv_error_t result = 0;
 381:.\20648_driver\drivers/inv_mems_base_driver.c **** 
 382:.\20648_driver\drivers/inv_mems_base_driver.c **** 	//result = inv_wakeup_mems();
 383:.\20648_driver\drivers/inv_mems_base_driver.c **** 	//if (result)
 384:.\20648_driver\drivers/inv_mems_base_driver.c **** 	//	return result;
 385:.\20648_driver\drivers/inv_mems_base_driver.c **** 	
 386:.\20648_driver\drivers/inv_mems_base_driver.c **** 	inv_mems_prevent_lpen_control();
 387:.\20648_driver\drivers/inv_mems_base_driver.c **** 	activate_pressure();
 388:.\20648_driver\drivers/inv_mems_base_driver.c **** 	
 389:.\20648_driver\drivers/inv_mems_base_driver.c **** 	inv_init_secondary();
 390:.\20648_driver\drivers/inv_mems_base_driver.c **** 
 391:.\20648_driver\drivers/inv_mems_base_driver.c **** 	// Set up the secondary I2C bus on 20630.
 392:.\20648_driver\drivers/inv_mems_base_driver.c **** 	inv_set_secondary();
 393:.\20648_driver\drivers/inv_mems_base_driver.c **** 
 394:.\20648_driver\drivers/inv_mems_base_driver.c **** 	//Setup Compass
 395:.\20648_driver\drivers/inv_mems_base_driver.c **** 	result = inv_mems_pressure_setup_bmp();
 396:.\20648_driver\drivers/inv_mems_base_driver.c **** 	
 397:.\20648_driver\drivers/inv_mems_base_driver.c **** 	if (result)
 398:.\20648_driver\drivers/inv_mems_base_driver.c **** 		desactivate_pressure();
 399:.\20648_driver\drivers/inv_mems_base_driver.c **** 
ARM GAS  C:\Users\ADMINI~1\AppData\Local\Temp\ccA9rFPz.s 			page 19


 400:.\20648_driver\drivers/inv_mems_base_driver.c **** 	//result = inv_sleep_mems();
 401:.\20648_driver\drivers/inv_mems_base_driver.c **** 	inv_mems_allow_lpen_control();
 402:.\20648_driver\drivers/inv_mems_base_driver.c **** 	return result;
 403:.\20648_driver\drivers/inv_mems_base_driver.c **** }
 404:.\20648_driver\drivers/inv_mems_base_driver.c **** #endif
 405:.\20648_driver\drivers/inv_mems_base_driver.c **** 
 406:.\20648_driver\drivers/inv_mems_base_driver.c **** inv_error_t inv_set_gyro_divider(unsigned char div)
 407:.\20648_driver\drivers/inv_mems_base_driver.c **** {
 584              		.loc 1 407 0
 585              		.cfi_startproc
 586              	.LVL52:
 587 0000 07B5     		push	{r0, r1, r2, lr}
 588              		.cfi_def_cfa_offset 16
 589              		.cfi_offset 0, -16
 590              		.cfi_offset 1, -12
 591              		.cfi_offset 2, -8
 592              		.cfi_offset 14, -4
 593              		.loc 1 407 0
 594 0002 6B46     		mov	r3, sp
 595 0004 DA1D     		add	r2, r3, #7
 408:.\20648_driver\drivers/inv_mems_base_driver.c ****     base_state.gyro_div = div;
 596              		.loc 1 408 0
 597 0006 044B     		ldr	r3, .L50
 407:.\20648_driver\drivers/inv_mems_base_driver.c ****     base_state.gyro_div = div;
 598              		.loc 1 407 0
 599 0008 1070     		strb	r0, [r2]
 600              		.loc 1 408 0
 601 000a 1871     		strb	r0, [r3, #4]
 409:.\20648_driver\drivers/inv_mems_base_driver.c ****     return inv_write_mems_reg(REG_GYRO_SMPLRT_DIV, 1, &div);
 602              		.loc 1 409 0
 603 000c 8020     		mov	r0, #128
 604              	.LVL53:
 605 000e 0121     		mov	r1, #1
 606 0010 4000     		lsl	r0, r0, #1
 607 0012 FFF7FEFF 		bl	inv_write_mems_reg
 608              	.LVL54:
 410:.\20648_driver\drivers/inv_mems_base_driver.c **** }
 609              		.loc 1 410 0
 610              		@ sp needed
 611 0016 0EBD     		pop	{r1, r2, r3, pc}
 612              	.L51:
 613              		.align	2
 614              	.L50:
 615 0018 00000000 		.word	base_state
 616              		.cfi_endproc
 617              	.LFE10:
 618              		.size	inv_set_gyro_divider, .-inv_set_gyro_divider
 619              		.section	.text.inv_get_gyro_divider,"ax",%progbits
 620              		.align	1
 621              		.global	inv_get_gyro_divider
 622              		.code	16
 623              		.thumb_func
 624              		.type	inv_get_gyro_divider, %function
 625              	inv_get_gyro_divider:
 626              	.LFB11:
 411:.\20648_driver\drivers/inv_mems_base_driver.c **** 
 412:.\20648_driver\drivers/inv_mems_base_driver.c **** unsigned char inv_get_gyro_divider()
ARM GAS  C:\Users\ADMINI~1\AppData\Local\Temp\ccA9rFPz.s 			page 20


 413:.\20648_driver\drivers/inv_mems_base_driver.c **** {
 627              		.loc 1 413 0
 628              		.cfi_startproc
 414:.\20648_driver\drivers/inv_mems_base_driver.c ****     return base_state.gyro_div;
 629              		.loc 1 414 0
 630 0000 014B     		ldr	r3, .L53
 415:.\20648_driver\drivers/inv_mems_base_driver.c **** }
 631              		.loc 1 415 0
 632              		@ sp needed
 414:.\20648_driver\drivers/inv_mems_base_driver.c ****     return base_state.gyro_div;
 633              		.loc 1 414 0
 634 0002 1879     		ldrb	r0, [r3, #4]
 635              		.loc 1 415 0
 636 0004 7047     		bx	lr
 637              	.L54:
 638 0006 C046     		.align	2
 639              	.L53:
 640 0008 00000000 		.word	base_state
 641              		.cfi_endproc
 642              	.LFE11:
 643              		.size	inv_get_gyro_divider, .-inv_get_gyro_divider
 644              		.section	.text.inv_set_secondary_divider,"ax",%progbits
 645              		.align	1
 646              		.global	inv_set_secondary_divider
 647              		.code	16
 648              		.thumb_func
 649              		.type	inv_set_secondary_divider, %function
 650              	inv_set_secondary_divider:
 651              	.LFB12:
 416:.\20648_driver\drivers/inv_mems_base_driver.c **** 
 417:.\20648_driver\drivers/inv_mems_base_driver.c **** inv_error_t inv_set_secondary_divider(unsigned char div)
 418:.\20648_driver\drivers/inv_mems_base_driver.c **** {
 652              		.loc 1 418 0
 653              		.cfi_startproc
 654              	.LVL55:
 655 0000 08B5     		push	{r3, lr}
 656              		.cfi_def_cfa_offset 8
 657              		.cfi_offset 3, -8
 658              		.cfi_offset 14, -4
 419:.\20648_driver\drivers/inv_mems_base_driver.c ****     base_state.secondary_div = 1UL<<div;
 659              		.loc 1 419 0
 660 0002 0123     		mov	r3, #1
 418:.\20648_driver\drivers/inv_mems_base_driver.c ****     base_state.secondary_div = 1UL<<div;
 661              		.loc 1 418 0
 662 0004 011C     		mov	r1, r0
 663              		.loc 1 419 0
 664 0006 8340     		lsl	r3, r3, r0
 420:.\20648_driver\drivers/inv_mems_base_driver.c ****     
 421:.\20648_driver\drivers/inv_mems_base_driver.c ****     return inv_write_single_mems_reg(REG_I2C_MST_ODR_CONFIG, div);
 665              		.loc 1 421 0
 666 0008 C020     		mov	r0, #192
 667              	.LVL56:
 419:.\20648_driver\drivers/inv_mems_base_driver.c ****     
 668              		.loc 1 419 0
 669 000a 034A     		ldr	r2, .L56
 670              		.loc 1 421 0
 671 000c 4000     		lsl	r0, r0, #1
ARM GAS  C:\Users\ADMINI~1\AppData\Local\Temp\ccA9rFPz.s 			page 21


 419:.\20648_driver\drivers/inv_mems_base_driver.c ****     
 672              		.loc 1 419 0
 673 000e D380     		strh	r3, [r2, #6]
 422:.\20648_driver\drivers/inv_mems_base_driver.c **** }
 674              		.loc 1 422 0
 675              		@ sp needed
 421:.\20648_driver\drivers/inv_mems_base_driver.c **** }
 676              		.loc 1 421 0
 677 0010 FFF7FEFF 		bl	inv_write_single_mems_reg
 678              	.LVL57:
 679              		.loc 1 422 0
 680 0014 08BD     		pop	{r3, pc}
 681              	.L57:
 682 0016 C046     		.align	2
 683              	.L56:
 684 0018 00000000 		.word	base_state
 685              		.cfi_endproc
 686              	.LFE12:
 687              		.size	inv_set_secondary_divider, .-inv_set_secondary_divider
 688              		.section	.text.inv_get_secondary_divider,"ax",%progbits
 689              		.align	1
 690              		.global	inv_get_secondary_divider
 691              		.code	16
 692              		.thumb_func
 693              		.type	inv_get_secondary_divider, %function
 694              	inv_get_secondary_divider:
 695              	.LFB13:
 423:.\20648_driver\drivers/inv_mems_base_driver.c **** 
 424:.\20648_driver\drivers/inv_mems_base_driver.c **** unsigned short inv_get_secondary_divider()
 425:.\20648_driver\drivers/inv_mems_base_driver.c **** {
 696              		.loc 1 425 0
 697              		.cfi_startproc
 426:.\20648_driver\drivers/inv_mems_base_driver.c ****     return base_state.secondary_div;
 698              		.loc 1 426 0
 699 0000 014B     		ldr	r3, .L59
 427:.\20648_driver\drivers/inv_mems_base_driver.c **** }
 700              		.loc 1 427 0
 701              		@ sp needed
 426:.\20648_driver\drivers/inv_mems_base_driver.c ****     return base_state.secondary_div;
 702              		.loc 1 426 0
 703 0002 D888     		ldrh	r0, [r3, #6]
 704              		.loc 1 427 0
 705 0004 7047     		bx	lr
 706              	.L60:
 707 0006 C046     		.align	2
 708              	.L59:
 709 0008 00000000 		.word	base_state
 710              		.cfi_endproc
 711              	.LFE13:
 712              		.size	inv_get_secondary_divider, .-inv_get_secondary_divider
 713              		.section	.text.inv_set_accel_divider,"ax",%progbits
 714              		.align	1
 715              		.global	inv_set_accel_divider
 716              		.code	16
 717              		.thumb_func
 718              		.type	inv_set_accel_divider, %function
 719              	inv_set_accel_divider:
ARM GAS  C:\Users\ADMINI~1\AppData\Local\Temp\ccA9rFPz.s 			page 22


 720              	.LFB14:
 428:.\20648_driver\drivers/inv_mems_base_driver.c **** 
 429:.\20648_driver\drivers/inv_mems_base_driver.c **** inv_error_t inv_set_accel_divider(short div)
 430:.\20648_driver\drivers/inv_mems_base_driver.c **** {
 721              		.loc 1 430 0
 722              		.cfi_startproc
 723              	.LVL58:
 724 0000 07B5     		push	{r0, r1, r2, lr}
 725              		.cfi_def_cfa_offset 16
 726              		.cfi_offset 0, -16
 727              		.cfi_offset 1, -12
 728              		.cfi_offset 2, -8
 729              		.cfi_offset 14, -4
 431:.\20648_driver\drivers/inv_mems_base_driver.c ****     unsigned char data[2] = {0};
 432:.\20648_driver\drivers/inv_mems_base_driver.c **** 
 433:.\20648_driver\drivers/inv_mems_base_driver.c ****     base_state.accel_div = div;
 730              		.loc 1 433 0
 731 0002 064B     		ldr	r3, .L62
 431:.\20648_driver\drivers/inv_mems_base_driver.c ****     unsigned char data[2] = {0};
 732              		.loc 1 431 0
 733 0004 01AA     		add	r2, sp, #4
 734              		.loc 1 433 0
 735 0006 1881     		strh	r0, [r3, #8]
 434:.\20648_driver\drivers/inv_mems_base_driver.c ****     data[0] = (unsigned char)(div >> 8);
 435:.\20648_driver\drivers/inv_mems_base_driver.c ****     data[1] = (unsigned char)(div & 0xff);
 736              		.loc 1 435 0
 737 0008 5070     		strb	r0, [r2, #1]
 434:.\20648_driver\drivers/inv_mems_base_driver.c ****     data[0] = (unsigned char)(div >> 8);
 738              		.loc 1 434 0
 739 000a 0312     		asr	r3, r0, #8
 436:.\20648_driver\drivers/inv_mems_base_driver.c **** 
 437:.\20648_driver\drivers/inv_mems_base_driver.c ****     return inv_write_mems_reg(REG_ACCEL_SMPLRT_DIV_1, 2, data);
 740              		.loc 1 437 0
 741 000c 8820     		mov	r0, #136
 742              	.LVL59:
 743 000e 0221     		mov	r1, #2
 744 0010 4000     		lsl	r0, r0, #1
 434:.\20648_driver\drivers/inv_mems_base_driver.c ****     data[0] = (unsigned char)(div >> 8);
 745              		.loc 1 434 0
 746 0012 1370     		strb	r3, [r2]
 438:.\20648_driver\drivers/inv_mems_base_driver.c **** }
 747              		.loc 1 438 0
 748              		@ sp needed
 437:.\20648_driver\drivers/inv_mems_base_driver.c **** }
 749              		.loc 1 437 0
 750 0014 FFF7FEFF 		bl	inv_write_mems_reg
 751              	.LVL60:
 752              		.loc 1 438 0
 753 0018 0EBD     		pop	{r1, r2, r3, pc}
 754              	.L63:
 755 001a C046     		.align	2
 756              	.L62:
 757 001c 00000000 		.word	base_state
 758              		.cfi_endproc
 759              	.LFE14:
 760              		.size	inv_set_accel_divider, .-inv_set_accel_divider
 761              		.section	.text.inv_get_accel_divider,"ax",%progbits
ARM GAS  C:\Users\ADMINI~1\AppData\Local\Temp\ccA9rFPz.s 			page 23


 762              		.align	1
 763              		.global	inv_get_accel_divider
 764              		.code	16
 765              		.thumb_func
 766              		.type	inv_get_accel_divider, %function
 767              	inv_get_accel_divider:
 768              	.LFB15:
 439:.\20648_driver\drivers/inv_mems_base_driver.c **** 
 440:.\20648_driver\drivers/inv_mems_base_driver.c **** short inv_get_accel_divider()
 441:.\20648_driver\drivers/inv_mems_base_driver.c **** {
 769              		.loc 1 441 0
 770              		.cfi_startproc
 442:.\20648_driver\drivers/inv_mems_base_driver.c ****     return base_state.accel_div;
 771              		.loc 1 442 0
 772 0000 014B     		ldr	r3, .L65
 443:.\20648_driver\drivers/inv_mems_base_driver.c **** }
 773              		.loc 1 443 0
 774              		@ sp needed
 442:.\20648_driver\drivers/inv_mems_base_driver.c ****     return base_state.accel_div;
 775              		.loc 1 442 0
 776 0002 0820     		mov	r0, #8
 777 0004 185E     		ldrsh	r0, [r3, r0]
 778              		.loc 1 443 0
 779 0006 7047     		bx	lr
 780              	.L66:
 781              		.align	2
 782              	.L65:
 783 0008 00000000 		.word	base_state
 784              		.cfi_endproc
 785              	.LFE15:
 786              		.size	inv_get_accel_divider, .-inv_get_accel_divider
 787              		.global	__aeabi_idiv
 788              		.global	__aeabi_uidiv
 789              		.section	.text.inv_get_odr_in_units,"ax",%progbits
 790              		.align	1
 791              		.global	inv_get_odr_in_units
 792              		.code	16
 793              		.thumb_func
 794              		.type	inv_get_odr_in_units, %function
 795              	inv_get_odr_in_units:
 796              	.LFB16:
 444:.\20648_driver\drivers/inv_mems_base_driver.c **** 
 445:.\20648_driver\drivers/inv_mems_base_driver.c **** 
 446:.\20648_driver\drivers/inv_mems_base_driver.c **** // not exported in Headers
 447:.\20648_driver\drivers/inv_mems_base_driver.c **** extern unsigned long inv_androidSensor_enabled(unsigned char androidSensor);
 448:.\20648_driver\drivers/inv_mems_base_driver.c **** unsigned char inv_is_gyro_enabled(void);
 449:.\20648_driver\drivers/inv_mems_base_driver.c **** 
 450:.\20648_driver\drivers/inv_mems_base_driver.c **** /*
 451:.\20648_driver\drivers/inv_mems_base_driver.c ****  You can obtain the real odr in Milliseconds, Micro Seconds or Ticks.
 452:.\20648_driver\drivers/inv_mems_base_driver.c ****  Use the enum values: ODR_IN_Ms, ODR_IN_Us or ODR_IN_Ticks,
 453:.\20648_driver\drivers/inv_mems_base_driver.c ****  when calling inv_get_odr_in_units().
 454:.\20648_driver\drivers/inv_mems_base_driver.c **** */
 455:.\20648_driver\drivers/inv_mems_base_driver.c **** uint32_t inv_get_odr_in_units( unsigned short odrInDivider, unsigned char odr_units )
 456:.\20648_driver\drivers/inv_mems_base_driver.c **** {
 797              		.loc 1 456 0
 798              		.cfi_startproc
 799              	.LVL61:
ARM GAS  C:\Users\ADMINI~1\AppData\Local\Temp\ccA9rFPz.s 			page 24


 800 0000 F7B5     		push	{r0, r1, r2, r4, r5, r6, r7, lr}
 801              		.cfi_def_cfa_offset 32
 802              		.cfi_offset 0, -32
 803              		.cfi_offset 1, -28
 804              		.cfi_offset 2, -24
 805              		.cfi_offset 4, -20
 806              		.cfi_offset 5, -16
 807              		.cfi_offset 6, -12
 808              		.cfi_offset 7, -8
 809              		.cfi_offset 14, -4
 457:.\20648_driver\drivers/inv_mems_base_driver.c ****   uint32_t odr=0;
 458:.\20648_driver\drivers/inv_mems_base_driver.c ****   uint32_t Us=0;
 459:.\20648_driver\drivers/inv_mems_base_driver.c ****   unsigned char PLL=0, gyro_is_on=0;
 460:.\20648_driver\drivers/inv_mems_base_driver.c **** 
 461:.\20648_driver\drivers/inv_mems_base_driver.c ****   if(base_state.timebase_correction_pll == 0)
 810              		.loc 1 461 0
 811 0002 204B     		ldr	r3, .L85
 456:.\20648_driver\drivers/inv_mems_base_driver.c ****   uint32_t odr=0;
 812              		.loc 1 456 0
 813 0004 071C     		mov	r7, r0
 814              		.loc 1 461 0
 815 0006 1A7C     		ldrb	r2, [r3, #16]
 456:.\20648_driver\drivers/inv_mems_base_driver.c ****   uint32_t odr=0;
 816              		.loc 1 456 0
 817 0008 0D1C     		mov	r5, r1
 818 000a 1C1C     		mov	r4, r3
 819              		.loc 1 461 0
 820 000c 002A     		cmp	r2, #0
 821 000e 04D1     		bne	.L68
 462:.\20648_driver\drivers/inv_mems_base_driver.c ****     inv_read_mems_reg(REG_TIMEBASE_CORRECTION_PLL, 1, &base_state.timebase_correction_pll);
 822              		.loc 1 462 0
 823 0010 A820     		mov	r0, #168
 824              	.LVL62:
 825 0012 0121     		mov	r1, #1
 826              	.LVL63:
 827 0014 1C4A     		ldr	r2, .L85+4
 828 0016 FFF7FEFF 		bl	inv_read_mems_reg
 829              	.LVL64:
 830              	.L68:
 463:.\20648_driver\drivers/inv_mems_base_driver.c **** 
 464:.\20648_driver\drivers/inv_mems_base_driver.c ****   PLL = base_state.timebase_correction_pll;
 831              		.loc 1 464 0
 832 001a 267C     		ldrb	r6, [r4, #16]
 833              	.LVL65:
 465:.\20648_driver\drivers/inv_mems_base_driver.c **** 
 466:.\20648_driver\drivers/inv_mems_base_driver.c ****   // check if Gyro is currently enabled
 467:.\20648_driver\drivers/inv_mems_base_driver.c ****   gyro_is_on = inv_is_gyro_enabled();
 834              		.loc 1 467 0
 835 001c FFF7FEFF 		bl	inv_is_gyro_enabled
 836              	.LVL66:
 837 0020 0190     		str	r0, [sp, #4]
 838              	.LVL67:
 839 0022 1A48     		ldr	r0, .L85+8
 468:.\20648_driver\drivers/inv_mems_base_driver.c ****     
 469:.\20648_driver\drivers/inv_mems_base_driver.c ****   if( PLL < 0x80 ) // correction positive
 840              		.loc 1 469 0
 841 0024 73B2     		sxtb	r3, r6
ARM GAS  C:\Users\ADMINI~1\AppData\Local\Temp\ccA9rFPz.s 			page 25


 842 0026 1A4C     		ldr	r4, .L85+12
 470:.\20648_driver\drivers/inv_mems_base_driver.c ****   {
 471:.\20648_driver\drivers/inv_mems_base_driver.c ****     // In Micro Seconds
 472:.\20648_driver\drivers/inv_mems_base_driver.c ****     Us = (odrInDivider*1000000L/1125L) * (1270L)/(1270L+ (gyro_is_on ? PLL : 0));
 843              		.loc 1 472 0
 844 0028 7843     		mul	r0, r7
 845 002a 1A49     		ldr	r1, .L85+16
 469:.\20648_driver\drivers/inv_mems_base_driver.c ****   {
 846              		.loc 1 469 0
 847 002c 002B     		cmp	r3, #0
 848 002e 08DB     		blt	.L69
 849              		.loc 1 472 0
 850 0030 FFF7FEFF 		bl	__aeabi_idiv
 851              	.LVL68:
 852 0034 019B     		ldr	r3, [sp, #4]
 853 0036 6043     		mul	r0, r4
 854 0038 211C     		mov	r1, r4
 855 003a 002B     		cmp	r3, #0
 856 003c 0BD0     		beq	.L72
 857              		.loc 1 472 0 is_stmt 0 discriminator 1
 858 003e 3119     		add	r1, r6, r4
 859 0040 09E0     		b	.L72
 860              	.L69:
 861              	.LVL69:
 473:.\20648_driver\drivers/inv_mems_base_driver.c ****     
 474:.\20648_driver\drivers/inv_mems_base_driver.c ****   } else {
 475:.\20648_driver\drivers/inv_mems_base_driver.c **** 
 476:.\20648_driver\drivers/inv_mems_base_driver.c ****     PLL &= 0x7F;
 477:.\20648_driver\drivers/inv_mems_base_driver.c **** 
 478:.\20648_driver\drivers/inv_mems_base_driver.c ****     // In Micro Seconds 
 479:.\20648_driver\drivers/inv_mems_base_driver.c ****     Us = (odrInDivider*1000000L/1125L) * (1270L)/(1270L-(gyro_is_on ? PLL : 0));
 862              		.loc 1 479 0 is_stmt 1
 863 0042 FFF7FEFF 		bl	__aeabi_idiv
 864              	.LVL70:
 865 0046 019B     		ldr	r3, [sp, #4]
 866 0048 6043     		mul	r0, r4
 867 004a 211C     		mov	r1, r4
 868 004c 002B     		cmp	r3, #0
 869 004e 02D0     		beq	.L72
 870              		.loc 1 479 0 is_stmt 0 discriminator 1
 871 0050 7F21     		mov	r1, #127
 872 0052 3140     		and	r1, r6
 873 0054 611A     		sub	r1, r4, r1
 874              	.LVL71:
 875              	.L72:
 876              		.loc 1 479 0 discriminator 4
 877 0056 FFF7FEFF 		bl	__aeabi_idiv
 878              	.LVL72:
 480:.\20648_driver\drivers/inv_mems_base_driver.c ****   }
 481:.\20648_driver\drivers/inv_mems_base_driver.c **** 
 482:.\20648_driver\drivers/inv_mems_base_driver.c ****   switch( odr_units ) {
 879              		.loc 1 482 0 is_stmt 1 discriminator 4
 880 005a 012D     		cmp	r5, #1
 881 005c 10D0     		beq	.L73
 882              		.loc 1 482 0 is_stmt 0
 883 005e 002D     		cmp	r5, #0
 884 0060 08D0     		beq	.L75
ARM GAS  C:\Users\ADMINI~1\AppData\Local\Temp\ccA9rFPz.s 			page 26


 885 0062 022D     		cmp	r5, #2
 886 0064 0BD1     		bne	.L84
 483:.\20648_driver\drivers/inv_mems_base_driver.c ****     
 484:.\20648_driver\drivers/inv_mems_base_driver.c ****       // ret in Milliseconds 
 485:.\20648_driver\drivers/inv_mems_base_driver.c ****       case ODR_IN_Ms:
 486:.\20648_driver\drivers/inv_mems_base_driver.c ****         odr = Us/1000;          
 487:.\20648_driver\drivers/inv_mems_base_driver.c ****         break;
 488:.\20648_driver\drivers/inv_mems_base_driver.c ****         
 489:.\20648_driver\drivers/inv_mems_base_driver.c ****       // ret in Micro
 490:.\20648_driver\drivers/inv_mems_base_driver.c ****       case ODR_IN_Us:
 491:.\20648_driver\drivers/inv_mems_base_driver.c ****         odr = Us;               
 492:.\20648_driver\drivers/inv_mems_base_driver.c ****         break;
 493:.\20648_driver\drivers/inv_mems_base_driver.c ****         
 494:.\20648_driver\drivers/inv_mems_base_driver.c ****       // ret in Ticks
 495:.\20648_driver\drivers/inv_mems_base_driver.c ****       case ODR_IN_Ticks:
 496:.\20648_driver\drivers/inv_mems_base_driver.c ****         odr = (Us/1000) * (32768/1125);// According to Mars
 887              		.loc 1 496 0 is_stmt 1
 888 0066 FA21     		mov	r1, #250
 889 0068 8900     		lsl	r1, r1, #2
 890 006a FFF7FEFF 		bl	__aeabi_uidiv
 891              	.LVL73:
 892 006e 1D23     		mov	r3, #29
 893 0070 5843     		mul	r0, r3
 894              	.LVL74:
 497:.\20648_driver\drivers/inv_mems_base_driver.c ****         break;   
 895              		.loc 1 497 0
 896 0072 05E0     		b	.L73
 897              	.LVL75:
 898              	.L75:
 486:.\20648_driver\drivers/inv_mems_base_driver.c ****         break;
 899              		.loc 1 486 0
 900 0074 FA21     		mov	r1, #250
 901 0076 8900     		lsl	r1, r1, #2
 902 0078 FFF7FEFF 		bl	__aeabi_uidiv
 903              	.LVL76:
 487:.\20648_driver\drivers/inv_mems_base_driver.c ****         
 904              		.loc 1 487 0
 905 007c 00E0     		b	.L73
 906              	.LVL77:
 907              	.L84:
 457:.\20648_driver\drivers/inv_mems_base_driver.c ****   uint32_t Us=0;
 908              		.loc 1 457 0
 909 007e 0020     		mov	r0, #0
 910              	.LVL78:
 911              	.L73:
 498:.\20648_driver\drivers/inv_mems_base_driver.c ****   }
 499:.\20648_driver\drivers/inv_mems_base_driver.c ****   
 500:.\20648_driver\drivers/inv_mems_base_driver.c ****   return odr;
 501:.\20648_driver\drivers/inv_mems_base_driver.c **** }
 912              		.loc 1 501 0
 913              		@ sp needed
 914 0080 FEBD     		pop	{r1, r2, r3, r4, r5, r6, r7, pc}
 915              	.L86:
 916 0082 C046     		.align	2
 917              	.L85:
 918 0084 00000000 		.word	base_state
 919 0088 10000000 		.word	base_state+16
ARM GAS  C:\Users\ADMINI~1\AppData\Local\Temp\ccA9rFPz.s 			page 27


 920 008c 40420F00 		.word	1000000
 921 0090 F6040000 		.word	1270
 922 0094 65040000 		.word	1125
 923              		.cfi_endproc
 924              	.LFE16:
 925              		.size	inv_get_odr_in_units, .-inv_get_odr_in_units
 926              		.global	__aeabi_lmul
 927              		.global	__aeabi_uldivmod
 928              		.section	.text.inv_set_gyro_sf,"ax",%progbits
 929              		.align	1
 930              		.global	inv_set_gyro_sf
 931              		.code	16
 932              		.thumb_func
 933              		.type	inv_set_gyro_sf, %function
 934              	inv_set_gyro_sf:
 935              	.LFB17:
 502:.\20648_driver\drivers/inv_mems_base_driver.c ****  
 503:.\20648_driver\drivers/inv_mems_base_driver.c **** /**
 504:.\20648_driver\drivers/inv_mems_base_driver.c **** * Sets the DMP for a particular gyro configuration.
 505:.\20648_driver\drivers/inv_mems_base_driver.c **** * @param[in] gyro_div Value written to GYRO_SMPLRT_DIV register, where
 506:.\20648_driver\drivers/inv_mems_base_driver.c **** *            0=1125Hz sample rate, 1=562.5Hz sample rate, ... 4=225Hz sample rate, ...
 507:.\20648_driver\drivers/inv_mems_base_driver.c **** *            10=102.2727Hz sample rate, ... etc.
 508:.\20648_driver\drivers/inv_mems_base_driver.c **** * @param[in] gyro_level 0=250 dps, 1=500 dps, 2=1000 dps, 3=2000 dps
 509:.\20648_driver\drivers/inv_mems_base_driver.c **** */
 510:.\20648_driver\drivers/inv_mems_base_driver.c **** inv_error_t inv_set_gyro_sf(unsigned char div, int gyro_level)
 511:.\20648_driver\drivers/inv_mems_base_driver.c **** {
 936              		.loc 1 511 0
 937              		.cfi_startproc
 938              	.LVL79:
 939 0000 F8B5     		push	{r3, r4, r5, r6, r7, lr}
 940              		.cfi_def_cfa_offset 24
 941              		.cfi_offset 3, -24
 942              		.cfi_offset 4, -20
 943              		.cfi_offset 5, -16
 944              		.cfi_offset 6, -12
 945              		.cfi_offset 7, -8
 946              		.cfi_offset 14, -4
 512:.\20648_driver\drivers/inv_mems_base_driver.c ****     long gyro_sf;
 513:.\20648_driver\drivers/inv_mems_base_driver.c ****     static long lLastGyroSf = 0;
 514:.\20648_driver\drivers/inv_mems_base_driver.c ****     inv_error_t result = 0;
 947              		.loc 1 514 0
 948 0002 0025     		mov	r5, #0
 515:.\20648_driver\drivers/inv_mems_base_driver.c **** 
 516:.\20648_driver\drivers/inv_mems_base_driver.c ****     if(base_state.timebase_correction_pll == 0)
 949              		.loc 1 516 0
 950 0004 214B     		ldr	r3, .L98
 511:.\20648_driver\drivers/inv_mems_base_driver.c ****     long gyro_sf;
 951              		.loc 1 511 0
 952 0006 061C     		mov	r6, r0
 953              		.loc 1 516 0
 954 0008 1A7C     		ldrb	r2, [r3, #16]
 511:.\20648_driver\drivers/inv_mems_base_driver.c ****     long gyro_sf;
 955              		.loc 1 511 0
 956 000a 0F1C     		mov	r7, r1
 957 000c 1C1C     		mov	r4, r3
 958              		.loc 1 516 0
 959 000e AA42     		cmp	r2, r5
ARM GAS  C:\Users\ADMINI~1\AppData\Local\Temp\ccA9rFPz.s 			page 28


 960 0010 05D1     		bne	.L88
 517:.\20648_driver\drivers/inv_mems_base_driver.c ****         result |= inv_read_mems_reg(REG_TIMEBASE_CORRECTION_PLL, 1, &base_state.timebase_correction
 961              		.loc 1 517 0
 962 0012 A820     		mov	r0, #168
 963              	.LVL80:
 964 0014 0121     		mov	r1, #1
 965              	.LVL81:
 966 0016 1E4A     		ldr	r2, .L98+4
 967 0018 FFF7FEFF 		bl	inv_read_mems_reg
 968              	.LVL82:
 969 001c 051C     		mov	r5, r0
 970              	.LVL83:
 971              	.L88:
 972 001e 0120     		mov	r0, #1
 973              	.LBB6:
 518:.\20648_driver\drivers/inv_mems_base_driver.c **** 
 519:.\20648_driver\drivers/inv_mems_base_driver.c **** {
 520:.\20648_driver\drivers/inv_mems_base_driver.c ****     unsigned    long    long    const   MagicConstant       =   264446880937391LL;
 521:.\20648_driver\drivers/inv_mems_base_driver.c ****     unsigned    long    long    const   MagicConstantScale  =   100000LL;
 522:.\20648_driver\drivers/inv_mems_base_driver.c ****     unsigned    long    long            ResultLL;
 523:.\20648_driver\drivers/inv_mems_base_driver.c ****     
 524:.\20648_driver\drivers/inv_mems_base_driver.c ****     if  (base_state.timebase_correction_pll & 0x80)
 974              		.loc 1 524 0
 975 0020 247C     		ldrb	r4, [r4, #16]
 976 0022 3218     		add	r2, r6, r0
 977 0024 63B2     		sxtb	r3, r4
 525:.\20648_driver\drivers/inv_mems_base_driver.c ****     {
 526:.\20648_driver\drivers/inv_mems_base_driver.c ****         ResultLL    = (MagicConstant * (long long)(1UL << gyro_level) * (1 + div) / (1270 - (base_s
 978              		.loc 1 526 0
 979 0026 B840     		lsl	r0, r0, r7
 524:.\20648_driver\drivers/inv_mems_base_driver.c ****     {
 980              		.loc 1 524 0
 981 0028 002B     		cmp	r3, #0
 982 002a 0CDA     		bge	.L89
 983              		.loc 1 526 0
 984 002c D317     		asr	r3, r2, #31
 985 002e 0021     		mov	r1, #0
 986 0030 FFF7FEFF 		bl	__aeabi_lmul
 987              	.LVL84:
 988 0034 174A     		ldr	r2, .L98+8
 989 0036 184B     		ldr	r3, .L98+12
 990 0038 FFF7FEFF 		bl	__aeabi_lmul
 991              	.LVL85:
 992 003c 7F22     		mov	r2, #127
 993 003e 174B     		ldr	r3, .L98+16
 994 0040 1440     		and	r4, r2
 995 0042 1A1B     		sub	r2, r3, r4
 996 0044 09E0     		b	.L97
 997              	.L89:
 527:.\20648_driver\drivers/inv_mems_base_driver.c ****     }
 528:.\20648_driver\drivers/inv_mems_base_driver.c ****     else
 529:.\20648_driver\drivers/inv_mems_base_driver.c ****     {
 530:.\20648_driver\drivers/inv_mems_base_driver.c ****         ResultLL    = (MagicConstant * (long long)(1UL << gyro_level) * (1 + div) / (1270 + base_st
 998              		.loc 1 530 0
 999 0046 D317     		asr	r3, r2, #31
 1000 0048 0021     		mov	r1, #0
 1001 004a FFF7FEFF 		bl	__aeabi_lmul
ARM GAS  C:\Users\ADMINI~1\AppData\Local\Temp\ccA9rFPz.s 			page 29


 1002              	.LVL86:
 1003 004e 114A     		ldr	r2, .L98+8
 1004 0050 114B     		ldr	r3, .L98+12
 1005 0052 FFF7FEFF 		bl	__aeabi_lmul
 1006              	.LVL87:
 1007 0056 114B     		ldr	r3, .L98+16
 1008 0058 E218     		add	r2, r4, r3
 1009              	.L97:
 1010 005a D317     		asr	r3, r2, #31
 1011 005c FFF7FEFF 		bl	__aeabi_uldivmod
 1012              	.LVL88:
 1013 0060 0F4A     		ldr	r2, .L98+20
 1014 0062 0023     		mov	r3, #0
 1015 0064 FFF7FEFF 		bl	__aeabi_uldivmod
 1016              	.LVL89:
 531:.\20648_driver\drivers/inv_mems_base_driver.c ****     }
 532:.\20648_driver\drivers/inv_mems_base_driver.c **** /*
 533:.\20648_driver\drivers/inv_mems_base_driver.c ****     In above deprecated FP version, worst case arguments can produce a result that overflows a sign
 534:.\20648_driver\drivers/inv_mems_base_driver.c ****     Here, for such cases, we emulate the FP behavior of setting the result to the maximum positive 
 535:.\20648_driver\drivers/inv_mems_base_driver.c ****     the compiler's conversion of a u64 to an s32 is simple truncation of the u64's high half, sadly
 536:.\20648_driver\drivers/inv_mems_base_driver.c **** */
 537:.\20648_driver\drivers/inv_mems_base_driver.c ****     if  (ResultLL > 0x7FFFFFFF) 
 1017              		.loc 1 537 0
 1018 0068 0029     		cmp	r1, #0
 1019 006a 03D1     		bne	.L95
 1020 006c 0D4B     		ldr	r3, .L98+24
 538:.\20648_driver\drivers/inv_mems_base_driver.c ****     {
 539:.\20648_driver\drivers/inv_mems_base_driver.c ****         gyro_sf =   0x7FFFFFFF;
 540:.\20648_driver\drivers/inv_mems_base_driver.c ****     }
 541:.\20648_driver\drivers/inv_mems_base_driver.c ****     else
 542:.\20648_driver\drivers/inv_mems_base_driver.c ****     {
 543:.\20648_driver\drivers/inv_mems_base_driver.c ****         gyro_sf =   (long)ResultLL;
 1021              		.loc 1 543 0
 1022 006e 041E     		sub	r4, r0, #0
 537:.\20648_driver\drivers/inv_mems_base_driver.c ****     {
 1023              		.loc 1 537 0
 1024 0070 9C42     		cmp	r4, r3
 1025 0072 00D9     		bls	.L91
 1026              	.L95:
 539:.\20648_driver\drivers/inv_mems_base_driver.c ****     }
 1027              		.loc 1 539 0
 1028 0074 0B4C     		ldr	r4, .L98+24
 1029              	.L91:
 1030              	.LVL90:
 1031              	.LBE6:
 544:.\20648_driver\drivers/inv_mems_base_driver.c ****     }
 545:.\20648_driver\drivers/inv_mems_base_driver.c **** }
 546:.\20648_driver\drivers/inv_mems_base_driver.c **** 
 547:.\20648_driver\drivers/inv_mems_base_driver.c ****     if (gyro_sf != lLastGyroSf)
 1032              		.loc 1 547 0
 1033 0076 0C4E     		ldr	r6, .L98+28
 1034 0078 7368     		ldr	r3, [r6, #4]
 1035 007a 9C42     		cmp	r4, r3
 1036 007c 04D0     		beq	.L93
 548:.\20648_driver\drivers/inv_mems_base_driver.c ****     {
 549:.\20648_driver\drivers/inv_mems_base_driver.c ****         result |= dmp_set_gyro_sf(gyro_sf);
 1037              		.loc 1 549 0
ARM GAS  C:\Users\ADMINI~1\AppData\Local\Temp\ccA9rFPz.s 			page 30


 1038 007e 201C     		mov	r0, r4
 1039              	.LVL91:
 1040 0080 FFF7FEFF 		bl	dmp_set_gyro_sf
 1041              	.LVL92:
 550:.\20648_driver\drivers/inv_mems_base_driver.c ****         lLastGyroSf = gyro_sf;
 1042              		.loc 1 550 0
 1043 0084 7460     		str	r4, [r6, #4]
 549:.\20648_driver\drivers/inv_mems_base_driver.c ****         lLastGyroSf = gyro_sf;
 1044              		.loc 1 549 0
 1045 0086 0543     		orr	r5, r0
 1046              	.LVL93:
 1047              	.L93:
 551:.\20648_driver\drivers/inv_mems_base_driver.c ****     }
 552:.\20648_driver\drivers/inv_mems_base_driver.c **** 
 553:.\20648_driver\drivers/inv_mems_base_driver.c ****     return result;
 554:.\20648_driver\drivers/inv_mems_base_driver.c **** }
 1048              		.loc 1 554 0
 1049 0088 281C     		mov	r0, r5
 1050              		@ sp needed
 1051              	.LVL94:
 1052              	.LVL95:
 1053              	.LVL96:
 1054 008a F8BD     		pop	{r3, r4, r5, r6, r7, pc}
 1055              	.L99:
 1056              		.align	2
 1057              	.L98:
 1058 008c 00000000 		.word	base_state
 1059 0090 10000000 		.word	base_state+16
 1060 0094 AF756656 		.word	1449555375
 1061 0098 83F00000 		.word	61571
 1062 009c F6040000 		.word	1270
 1063 00a0 A0860100 		.word	100000
 1064 00a4 FFFFFF7F 		.word	2147483647
 1065 00a8 00000000 		.word	.LANCHOR1
 1066              		.cfi_endproc
 1067              	.LFE17:
 1068              		.size	inv_set_gyro_sf, .-inv_set_gyro_sf
 1069              		.section	.text.inv_get_gyro_fullscale,"ax",%progbits
 1070              		.align	1
 1071              		.global	inv_get_gyro_fullscale
 1072              		.code	16
 1073              		.thumb_func
 1074              		.type	inv_get_gyro_fullscale, %function
 1075              	inv_get_gyro_fullscale:
 1076              	.LFB19:
 555:.\20648_driver\drivers/inv_mems_base_driver.c **** 
 556:.\20648_driver\drivers/inv_mems_base_driver.c **** inv_error_t inv_set_gyro_fullscale(int level)
 557:.\20648_driver\drivers/inv_mems_base_driver.c **** {
 558:.\20648_driver\drivers/inv_mems_base_driver.c **** 	inv_error_t result;
 559:.\20648_driver\drivers/inv_mems_base_driver.c ****     base_state.gyro_fullscale = level;
 560:.\20648_driver\drivers/inv_mems_base_driver.c **** 	result = inv_set_mems_gyro_fullscale(level);
 561:.\20648_driver\drivers/inv_mems_base_driver.c **** 	result |= inv_set_gyro_sf(base_state.gyro_div, level);
 562:.\20648_driver\drivers/inv_mems_base_driver.c **** 
 563:.\20648_driver\drivers/inv_mems_base_driver.c **** 	return result;
 564:.\20648_driver\drivers/inv_mems_base_driver.c **** }
 565:.\20648_driver\drivers/inv_mems_base_driver.c **** 
 566:.\20648_driver\drivers/inv_mems_base_driver.c **** uint8_t inv_get_gyro_fullscale()
ARM GAS  C:\Users\ADMINI~1\AppData\Local\Temp\ccA9rFPz.s 			page 31


 567:.\20648_driver\drivers/inv_mems_base_driver.c **** {
 1077              		.loc 1 567 0
 1078              		.cfi_startproc
 568:.\20648_driver\drivers/inv_mems_base_driver.c **** 	return base_state.gyro_fullscale;
 1079              		.loc 1 568 0
 1080 0000 014B     		ldr	r3, .L101
 569:.\20648_driver\drivers/inv_mems_base_driver.c **** }
 1081              		.loc 1 569 0
 1082              		@ sp needed
 568:.\20648_driver\drivers/inv_mems_base_driver.c **** 	return base_state.gyro_fullscale;
 1083              		.loc 1 568 0
 1084 0002 187B     		ldrb	r0, [r3, #12]
 1085              		.loc 1 569 0
 1086 0004 7047     		bx	lr
 1087              	.L102:
 1088 0006 C046     		.align	2
 1089              	.L101:
 1090 0008 00000000 		.word	base_state
 1091              		.cfi_endproc
 1092              	.LFE19:
 1093              		.size	inv_get_gyro_fullscale, .-inv_get_gyro_fullscale
 1094              		.section	.text.inv_set_mems_gyro_fullscale,"ax",%progbits
 1095              		.align	1
 1096              		.global	inv_set_mems_gyro_fullscale
 1097              		.code	16
 1098              		.thumb_func
 1099              		.type	inv_set_mems_gyro_fullscale, %function
 1100              	inv_set_mems_gyro_fullscale:
 1101              	.LFB20:
 570:.\20648_driver\drivers/inv_mems_base_driver.c **** 
 571:.\20648_driver\drivers/inv_mems_base_driver.c **** 
 572:.\20648_driver\drivers/inv_mems_base_driver.c **** inv_error_t inv_set_mems_gyro_fullscale(int level)
 573:.\20648_driver\drivers/inv_mems_base_driver.c **** {
 1102              		.loc 1 573 0
 1103              		.cfi_startproc
 1104              	.LVL97:
 1105 0000 F7B5     		push	{r0, r1, r2, r4, r5, r6, r7, lr}
 1106              		.cfi_def_cfa_offset 32
 1107              		.cfi_offset 0, -32
 1108              		.cfi_offset 1, -28
 1109              		.cfi_offset 2, -24
 1110              		.cfi_offset 4, -20
 1111              		.cfi_offset 5, -16
 1112              		.cfi_offset 6, -12
 1113              		.cfi_offset 7, -8
 1114              		.cfi_offset 14, -4
 574:.\20648_driver\drivers/inv_mems_base_driver.c **** 	inv_error_t result = 0;
 575:.\20648_driver\drivers/inv_mems_base_driver.c **** 	unsigned char gyro_config_1_reg;
 576:.\20648_driver\drivers/inv_mems_base_driver.c ****     unsigned char gyro_config_2_reg;
 577:.\20648_driver\drivers/inv_mems_base_driver.c ****     unsigned char dec3_cfg;
 578:.\20648_driver\drivers/inv_mems_base_driver.c ****     
 579:.\20648_driver\drivers/inv_mems_base_driver.c ****     if (level >= NUM_MPU_GFS)
 580:.\20648_driver\drivers/inv_mems_base_driver.c **** 		return INV_ERROR_INVALID_PARAMETER;
 1115              		.loc 1 580 0
 1116 0002 1625     		mov	r5, #22
 579:.\20648_driver\drivers/inv_mems_base_driver.c **** 		return INV_ERROR_INVALID_PARAMETER;
 1117              		.loc 1 579 0
ARM GAS  C:\Users\ADMINI~1\AppData\Local\Temp\ccA9rFPz.s 			page 32


 1118 0004 0328     		cmp	r0, #3
 1119 0006 45DC     		bgt	.L104
 1120              	.LBB9:
 1121              	.LBB10:
 581:.\20648_driver\drivers/inv_mems_base_driver.c ****     
 582:.\20648_driver\drivers/inv_mems_base_driver.c **** 	result |= inv_read_mems_reg(REG_GYRO_CONFIG_1, 1, &gyro_config_1_reg);
 1122              		.loc 1 582 0
 1123 0008 6B46     		mov	r3, sp
 1124 000a 061C     		mov	r6, r0
 1125              	.LVL98:
 1126 000c 0220     		mov	r0, #2
 1127              	.LVL99:
 1128 000e 0124     		mov	r4, #1
 1129 0010 9F1D     		add	r7, r3, #6
 1130 0012 0121     		mov	r1, #1
 1131 0014 3A1C     		mov	r2, r7
 1132 0016 FF30     		add	r0, r0, #255
 1133 0018 FFF7FEFF 		bl	inv_read_mems_reg
 1134              	.LVL100:
 583:.\20648_driver\drivers/inv_mems_base_driver.c ****     gyro_config_1_reg &= 0xC0;
 1135              		.loc 1 583 0
 1136 001c 3F23     		mov	r3, #63
 584:.\20648_driver\drivers/inv_mems_base_driver.c **** 	gyro_config_1_reg |= (level << 1) | 1;  //fchoice = 1, filter = 0.
 1137              		.loc 1 584 0
 1138 001e A640     		lsl	r6, r6, r4
 1139              	.LVL101:
 582:.\20648_driver\drivers/inv_mems_base_driver.c ****     gyro_config_1_reg &= 0xC0;
 1140              		.loc 1 582 0
 1141 0020 051C     		mov	r5, r0
 1142              	.LVL102:
 583:.\20648_driver\drivers/inv_mems_base_driver.c ****     gyro_config_1_reg &= 0xC0;
 1143              		.loc 1 583 0
 1144 0022 3878     		ldrb	r0, [r7]
 1145              	.LVL103:
 585:.\20648_driver\drivers/inv_mems_base_driver.c **** 	result |= inv_write_mems_reg(REG_GYRO_CONFIG_1, 1, &gyro_config_1_reg);
 1146              		.loc 1 585 0
 1147 0024 211C     		mov	r1, r4
 583:.\20648_driver\drivers/inv_mems_base_driver.c **** 	gyro_config_1_reg |= (level << 1) | 1;  //fchoice = 1, filter = 0.
 1148              		.loc 1 583 0
 1149 0026 9843     		bic	r0, r3
 1150 0028 2043     		orr	r0, r4
 584:.\20648_driver\drivers/inv_mems_base_driver.c **** 	result |= inv_write_mems_reg(REG_GYRO_CONFIG_1, 1, &gyro_config_1_reg);
 1151              		.loc 1 584 0
 1152 002a 0643     		orr	r6, r0
 1153              		.loc 1 585 0
 1154 002c 0220     		mov	r0, #2
 1155 002e 3A1C     		mov	r2, r7
 1156 0030 FF30     		add	r0, r0, #255
 584:.\20648_driver\drivers/inv_mems_base_driver.c **** 	result |= inv_write_mems_reg(REG_GYRO_CONFIG_1, 1, &gyro_config_1_reg);
 1157              		.loc 1 584 0
 1158 0032 3E70     		strb	r6, [r7]
 1159              		.loc 1 585 0
 1160 0034 FFF7FEFF 		bl	inv_write_mems_reg
 1161              	.LVL104:
 586:.\20648_driver\drivers/inv_mems_base_driver.c **** 
 587:.\20648_driver\drivers/inv_mems_base_driver.c ****     result |= inv_read_mems_reg(REG_GYRO_CONFIG_2, 1, &gyro_config_2_reg);
 1162              		.loc 1 587 0
ARM GAS  C:\Users\ADMINI~1\AppData\Local\Temp\ccA9rFPz.s 			page 33


 1163 0038 6B46     		mov	r3, sp
 585:.\20648_driver\drivers/inv_mems_base_driver.c **** 
 1164              		.loc 1 585 0
 1165 003a 0543     		orr	r5, r0
 1166              	.LVL105:
 1167              		.loc 1 587 0
 1168 003c 8120     		mov	r0, #129
 1169 003e DE1D     		add	r6, r3, #7
 1170 0040 211C     		mov	r1, r4
 1171 0042 321C     		mov	r2, r6
 1172 0044 4000     		lsl	r0, r0, #1
 1173 0046 FFF7FEFF 		bl	inv_read_mems_reg
 1174              	.LVL106:
 1175 004a 0543     		orr	r5, r0
 1176              	.LVL107:
 588:.\20648_driver\drivers/inv_mems_base_driver.c **** 	gyro_config_2_reg &= 0xF8;
 1177              		.loc 1 588 0
 1178 004c 0720     		mov	r0, #7
 589:.\20648_driver\drivers/inv_mems_base_driver.c **** 	
 590:.\20648_driver\drivers/inv_mems_base_driver.c ****     switch(base_state.gyro_averaging) {
 1179              		.loc 1 590 0
 1180 004e 124B     		ldr	r3, .L120
 588:.\20648_driver\drivers/inv_mems_base_driver.c **** 	gyro_config_2_reg &= 0xF8;
 1181              		.loc 1 588 0
 1182 0050 3178     		ldrb	r1, [r6]
 1183              		.loc 1 590 0
 1184 0052 9A7A     		ldrb	r2, [r3, #10]
 588:.\20648_driver\drivers/inv_mems_base_driver.c **** 	gyro_config_2_reg &= 0xF8;
 1185              		.loc 1 588 0
 1186 0054 8143     		bic	r1, r0
 591:.\20648_driver\drivers/inv_mems_base_driver.c ****     case 1:
 592:.\20648_driver\drivers/inv_mems_base_driver.c ****         dec3_cfg = 0;
 593:.\20648_driver\drivers/inv_mems_base_driver.c ****         break;
 594:.\20648_driver\drivers/inv_mems_base_driver.c ****     case 2:
 595:.\20648_driver\drivers/inv_mems_base_driver.c ****         dec3_cfg = 1;
 596:.\20648_driver\drivers/inv_mems_base_driver.c ****         break;
 597:.\20648_driver\drivers/inv_mems_base_driver.c ****     case 4:
 598:.\20648_driver\drivers/inv_mems_base_driver.c ****         dec3_cfg = 2;
 599:.\20648_driver\drivers/inv_mems_base_driver.c ****         break;
 600:.\20648_driver\drivers/inv_mems_base_driver.c ****     case 8:
 601:.\20648_driver\drivers/inv_mems_base_driver.c ****         dec3_cfg = 3;
 602:.\20648_driver\drivers/inv_mems_base_driver.c ****         break;
 603:.\20648_driver\drivers/inv_mems_base_driver.c ****     case 16:
 604:.\20648_driver\drivers/inv_mems_base_driver.c ****         dec3_cfg = 4;
 1187              		.loc 1 604 0
 1188 0056 0423     		mov	r3, #4
 590:.\20648_driver\drivers/inv_mems_base_driver.c ****     case 1:
 1189              		.loc 1 590 0
 1190 0058 102A     		cmp	r2, #16
 1191 005a 14D0     		beq	.L105
 1192 005c 09D8     		bhi	.L107
 598:.\20648_driver\drivers/inv_mems_base_driver.c ****         break;
 1193              		.loc 1 598 0
 1194 005e 023B     		sub	r3, r3, #2
 590:.\20648_driver\drivers/inv_mems_base_driver.c ****     case 1:
 1195              		.loc 1 590 0
 1196 0060 042A     		cmp	r2, #4
ARM GAS  C:\Users\ADMINI~1\AppData\Local\Temp\ccA9rFPz.s 			page 34


 1197 0062 10D0     		beq	.L105
 601:.\20648_driver\drivers/inv_mems_base_driver.c ****         break;
 1198              		.loc 1 601 0
 1199 0064 1B19     		add	r3, r3, r4
 590:.\20648_driver\drivers/inv_mems_base_driver.c ****     case 1:
 1200              		.loc 1 590 0
 1201 0066 082A     		cmp	r2, #8
 1202 0068 0DD0     		beq	.L105
 595:.\20648_driver\drivers/inv_mems_base_driver.c ****         break;
 1203              		.loc 1 595 0
 1204 006a 231C     		mov	r3, r4
 590:.\20648_driver\drivers/inv_mems_base_driver.c ****     case 1:
 1205              		.loc 1 590 0
 1206 006c 022A     		cmp	r2, #2
 1207 006e 09D1     		bne	.L115
 1208 0070 09E0     		b	.L105
 1209              	.L107:
 605:.\20648_driver\drivers/inv_mems_base_driver.c ****         break;
 606:.\20648_driver\drivers/inv_mems_base_driver.c ****     case 32:
 607:.\20648_driver\drivers/inv_mems_base_driver.c ****         dec3_cfg = 5;
 608:.\20648_driver\drivers/inv_mems_base_driver.c ****         break;
 609:.\20648_driver\drivers/inv_mems_base_driver.c ****     case 64:
 610:.\20648_driver\drivers/inv_mems_base_driver.c ****         dec3_cfg = 6;
 1210              		.loc 1 610 0
 1211 0072 0623     		mov	r3, #6
 590:.\20648_driver\drivers/inv_mems_base_driver.c ****     case 1:
 1212              		.loc 1 590 0
 1213 0074 402A     		cmp	r2, #64
 1214 0076 06D0     		beq	.L105
 611:.\20648_driver\drivers/inv_mems_base_driver.c ****         break;
 612:.\20648_driver\drivers/inv_mems_base_driver.c ****     case 128:
 613:.\20648_driver\drivers/inv_mems_base_driver.c ****         dec3_cfg = 7;
 1215              		.loc 1 613 0
 1216 0078 031C     		mov	r3, r0
 590:.\20648_driver\drivers/inv_mems_base_driver.c ****     case 1:
 1217              		.loc 1 590 0
 1218 007a 802A     		cmp	r2, #128
 1219 007c 03D0     		beq	.L105
 607:.\20648_driver\drivers/inv_mems_base_driver.c ****         break;
 1220              		.loc 1 607 0
 1221 007e 0523     		mov	r3, #5
 590:.\20648_driver\drivers/inv_mems_base_driver.c ****     case 1:
 1222              		.loc 1 590 0
 1223 0080 202A     		cmp	r2, #32
 1224 0082 00D0     		beq	.L105
 1225              	.L115:
 592:.\20648_driver\drivers/inv_mems_base_driver.c ****         break;
 1226              		.loc 1 592 0
 1227 0084 0023     		mov	r3, #0
 1228              	.L105:
 1229              	.LVL108:
 614:.\20648_driver\drivers/inv_mems_base_driver.c ****         break;
 615:.\20648_driver\drivers/inv_mems_base_driver.c ****     default:
 616:.\20648_driver\drivers/inv_mems_base_driver.c ****         dec3_cfg = 0;
 617:.\20648_driver\drivers/inv_mems_base_driver.c ****         break;
 618:.\20648_driver\drivers/inv_mems_base_driver.c ****     }
 619:.\20648_driver\drivers/inv_mems_base_driver.c **** 	gyro_config_2_reg |= dec3_cfg;  
ARM GAS  C:\Users\ADMINI~1\AppData\Local\Temp\ccA9rFPz.s 			page 35


 620:.\20648_driver\drivers/inv_mems_base_driver.c **** 	result |= inv_write_single_mems_reg(REG_GYRO_CONFIG_2, gyro_config_2_reg);
 1230              		.loc 1 620 0
 1231 0086 8120     		mov	r0, #129
 619:.\20648_driver\drivers/inv_mems_base_driver.c **** 	result |= inv_write_single_mems_reg(REG_GYRO_CONFIG_2, gyro_config_2_reg);
 1232              		.loc 1 619 0
 1233 0088 1943     		orr	r1, r3
 1234              		.loc 1 620 0
 1235 008a 4000     		lsl	r0, r0, #1
 619:.\20648_driver\drivers/inv_mems_base_driver.c **** 	result |= inv_write_single_mems_reg(REG_GYRO_CONFIG_2, gyro_config_2_reg);
 1236              		.loc 1 619 0
 1237 008c 3170     		strb	r1, [r6]
 1238              		.loc 1 620 0
 1239 008e FFF7FEFF 		bl	inv_write_single_mems_reg
 1240              	.LVL109:
 1241 0092 0543     		orr	r5, r0
 1242              	.LVL110:
 1243              	.L104:
 1244              	.LBE10:
 1245              	.LBE9:
 621:.\20648_driver\drivers/inv_mems_base_driver.c **** 
 622:.\20648_driver\drivers/inv_mems_base_driver.c **** 	return result;
 623:.\20648_driver\drivers/inv_mems_base_driver.c **** }
 1246              		.loc 1 623 0
 1247 0094 281C     		mov	r0, r5
 1248              		@ sp needed
 1249 0096 FEBD     		pop	{r1, r2, r3, r4, r5, r6, r7, pc}
 1250              	.L121:
 1251              		.align	2
 1252              	.L120:
 1253 0098 00000000 		.word	base_state
 1254              		.cfi_endproc
 1255              	.LFE20:
 1256              		.size	inv_set_mems_gyro_fullscale, .-inv_set_mems_gyro_fullscale
 1257              		.section	.text.inv_set_gyro_fullscale,"ax",%progbits
 1258              		.align	1
 1259              		.global	inv_set_gyro_fullscale
 1260              		.code	16
 1261              		.thumb_func
 1262              		.type	inv_set_gyro_fullscale, %function
 1263              	inv_set_gyro_fullscale:
 1264              	.LFB18:
 557:.\20648_driver\drivers/inv_mems_base_driver.c **** 	inv_error_t result;
 1265              		.loc 1 557 0
 1266              		.cfi_startproc
 1267              	.LVL111:
 1268 0000 70B5     		push	{r4, r5, r6, lr}
 1269              		.cfi_def_cfa_offset 16
 1270              		.cfi_offset 4, -16
 1271              		.cfi_offset 5, -12
 1272              		.cfi_offset 6, -8
 1273              		.cfi_offset 14, -4
 559:.\20648_driver\drivers/inv_mems_base_driver.c **** 	result = inv_set_mems_gyro_fullscale(level);
 1274              		.loc 1 559 0
 1275 0002 064E     		ldr	r6, .L123
 557:.\20648_driver\drivers/inv_mems_base_driver.c **** 	inv_error_t result;
 1276              		.loc 1 557 0
 1277 0004 051C     		mov	r5, r0
ARM GAS  C:\Users\ADMINI~1\AppData\Local\Temp\ccA9rFPz.s 			page 36


 559:.\20648_driver\drivers/inv_mems_base_driver.c **** 	result = inv_set_mems_gyro_fullscale(level);
 1278              		.loc 1 559 0
 1279 0006 3073     		strb	r0, [r6, #12]
 560:.\20648_driver\drivers/inv_mems_base_driver.c **** 	result |= inv_set_gyro_sf(base_state.gyro_div, level);
 1280              		.loc 1 560 0
 1281 0008 FFF7FEFF 		bl	inv_set_mems_gyro_fullscale
 1282              	.LVL112:
 561:.\20648_driver\drivers/inv_mems_base_driver.c **** 
 1283              		.loc 1 561 0
 1284 000c 291C     		mov	r1, r5
 560:.\20648_driver\drivers/inv_mems_base_driver.c **** 	result |= inv_set_gyro_sf(base_state.gyro_div, level);
 1285              		.loc 1 560 0
 1286 000e 041C     		mov	r4, r0
 1287              	.LVL113:
 561:.\20648_driver\drivers/inv_mems_base_driver.c **** 
 1288              		.loc 1 561 0
 1289 0010 3079     		ldrb	r0, [r6, #4]
 1290              	.LVL114:
 1291 0012 FFF7FEFF 		bl	inv_set_gyro_sf
 1292              	.LVL115:
 564:.\20648_driver\drivers/inv_mems_base_driver.c **** 
 1293              		.loc 1 564 0
 1294              		@ sp needed
 561:.\20648_driver\drivers/inv_mems_base_driver.c **** 
 1295              		.loc 1 561 0
 1296 0016 2043     		orr	r0, r4
 1297              	.LVL116:
 1298              	.LVL117:
 564:.\20648_driver\drivers/inv_mems_base_driver.c **** 
 1299              		.loc 1 564 0
 1300 0018 70BD     		pop	{r4, r5, r6, pc}
 1301              	.L124:
 1302 001a C046     		.align	2
 1303              	.L123:
 1304 001c 00000000 		.word	base_state
 1305              		.cfi_endproc
 1306              	.LFE18:
 1307              		.size	inv_set_gyro_fullscale, .-inv_set_gyro_fullscale
 1308              		.section	.text.inv_get_accel_fullscale,"ax",%progbits
 1309              		.align	1
 1310              		.global	inv_get_accel_fullscale
 1311              		.code	16
 1312              		.thumb_func
 1313              		.type	inv_get_accel_fullscale, %function
 1314              	inv_get_accel_fullscale:
 1315              	.LFB22:
 624:.\20648_driver\drivers/inv_mems_base_driver.c **** 
 625:.\20648_driver\drivers/inv_mems_base_driver.c **** 
 626:.\20648_driver\drivers/inv_mems_base_driver.c **** inv_error_t inv_set_accel_fullscale(int level)
 627:.\20648_driver\drivers/inv_mems_base_driver.c **** {
 628:.\20648_driver\drivers/inv_mems_base_driver.c **** 	inv_error_t result;
 629:.\20648_driver\drivers/inv_mems_base_driver.c ****     base_state.accel_fullscale = level;
 630:.\20648_driver\drivers/inv_mems_base_driver.c **** 	result = inv_set_mems_accel_fullscale(level);
 631:.\20648_driver\drivers/inv_mems_base_driver.c ****     result |= dmp_set_accel_fsr(2<<level);
 632:.\20648_driver\drivers/inv_mems_base_driver.c ****     result |= dmp_set_accel_scale2(2<<level);
 633:.\20648_driver\drivers/inv_mems_base_driver.c **** 
 634:.\20648_driver\drivers/inv_mems_base_driver.c **** 	return result;
ARM GAS  C:\Users\ADMINI~1\AppData\Local\Temp\ccA9rFPz.s 			page 37


 635:.\20648_driver\drivers/inv_mems_base_driver.c **** }
 636:.\20648_driver\drivers/inv_mems_base_driver.c **** 
 637:.\20648_driver\drivers/inv_mems_base_driver.c **** uint8_t inv_get_accel_fullscale()
 638:.\20648_driver\drivers/inv_mems_base_driver.c **** {
 1316              		.loc 1 638 0
 1317              		.cfi_startproc
 639:.\20648_driver\drivers/inv_mems_base_driver.c **** 	return base_state.accel_fullscale;
 1318              		.loc 1 639 0
 1319 0000 014B     		ldr	r3, .L126
 640:.\20648_driver\drivers/inv_mems_base_driver.c **** }
 1320              		.loc 1 640 0
 1321              		@ sp needed
 639:.\20648_driver\drivers/inv_mems_base_driver.c **** 	return base_state.accel_fullscale;
 1322              		.loc 1 639 0
 1323 0002 587B     		ldrb	r0, [r3, #13]
 1324              		.loc 1 640 0
 1325 0004 7047     		bx	lr
 1326              	.L127:
 1327 0006 C046     		.align	2
 1328              	.L126:
 1329 0008 00000000 		.word	base_state
 1330              		.cfi_endproc
 1331              	.LFE22:
 1332              		.size	inv_get_accel_fullscale, .-inv_get_accel_fullscale
 1333              		.section	.text.inv_set_mems_accel_fullscale,"ax",%progbits
 1334              		.align	1
 1335              		.global	inv_set_mems_accel_fullscale
 1336              		.code	16
 1337              		.thumb_func
 1338              		.type	inv_set_mems_accel_fullscale, %function
 1339              	inv_set_mems_accel_fullscale:
 1340              	.LFB23:
 641:.\20648_driver\drivers/inv_mems_base_driver.c **** 
 642:.\20648_driver\drivers/inv_mems_base_driver.c **** 
 643:.\20648_driver\drivers/inv_mems_base_driver.c **** inv_error_t inv_set_mems_accel_fullscale(int level)
 644:.\20648_driver\drivers/inv_mems_base_driver.c **** {
 1341              		.loc 1 644 0
 1342              		.cfi_startproc
 1343              	.LVL118:
 1344 0000 F7B5     		push	{r0, r1, r2, r4, r5, r6, r7, lr}
 1345              		.cfi_def_cfa_offset 32
 1346              		.cfi_offset 0, -32
 1347              		.cfi_offset 1, -28
 1348              		.cfi_offset 2, -24
 1349              		.cfi_offset 4, -20
 1350              		.cfi_offset 5, -16
 1351              		.cfi_offset 6, -12
 1352              		.cfi_offset 7, -8
 1353              		.cfi_offset 14, -4
 645:.\20648_driver\drivers/inv_mems_base_driver.c **** 	inv_error_t result = 0;
 646:.\20648_driver\drivers/inv_mems_base_driver.c **** 	unsigned char accel_config_1_reg;
 647:.\20648_driver\drivers/inv_mems_base_driver.c ****     unsigned char accel_config_2_reg;
 648:.\20648_driver\drivers/inv_mems_base_driver.c ****     unsigned char dec3_cfg;
 649:.\20648_driver\drivers/inv_mems_base_driver.c ****     
 650:.\20648_driver\drivers/inv_mems_base_driver.c **** 	if (level >= NUM_MPU_AFS)
 651:.\20648_driver\drivers/inv_mems_base_driver.c **** 		return INV_ERROR_INVALID_PARAMETER;
 1354              		.loc 1 651 0
ARM GAS  C:\Users\ADMINI~1\AppData\Local\Temp\ccA9rFPz.s 			page 38


 1355 0002 1626     		mov	r6, #22
 650:.\20648_driver\drivers/inv_mems_base_driver.c **** 		return INV_ERROR_INVALID_PARAMETER;
 1356              		.loc 1 650 0
 1357 0004 0328     		cmp	r0, #3
 1358 0006 37DC     		bgt	.L129
 1359              	.LBB13:
 1360              	.LBB14:
 652:.\20648_driver\drivers/inv_mems_base_driver.c ****     
 653:.\20648_driver\drivers/inv_mems_base_driver.c **** 	result |= inv_read_mems_reg(REG_ACCEL_CONFIG, 1, &accel_config_1_reg);
 1361              		.loc 1 653 0
 1362 0008 6B46     		mov	r3, sp
 1363 000a 071C     		mov	r7, r0
 1364              	.LVL119:
 1365 000c 8A20     		mov	r0, #138
 1366              	.LVL120:
 1367 000e 9C1D     		add	r4, r3, #6
 1368 0010 221C     		mov	r2, r4
 1369 0012 4000     		lsl	r0, r0, #1
 1370 0014 0121     		mov	r1, #1
 1371 0016 FFF7FEFF 		bl	inv_read_mems_reg
 1372              	.LVL121:
 654:.\20648_driver\drivers/inv_mems_base_driver.c **** 	accel_config_1_reg &= 0xC0;
 1373              		.loc 1 654 0
 1374 001a 3F22     		mov	r2, #63
 1375 001c 2378     		ldrb	r3, [r4]
 655:.\20648_driver\drivers/inv_mems_base_driver.c **** 
 656:.\20648_driver\drivers/inv_mems_base_driver.c **** 	if(base_state.accel_averaging > 1)
 1376              		.loc 1 656 0
 1377 001e 174D     		ldr	r5, .L135
 654:.\20648_driver\drivers/inv_mems_base_driver.c **** 	accel_config_1_reg &= 0xC0;
 1378              		.loc 1 654 0
 1379 0020 9343     		bic	r3, r2
 1380              		.loc 1 656 0
 1381 0022 EA7A     		ldrb	r2, [r5, #11]
 653:.\20648_driver\drivers/inv_mems_base_driver.c **** 	accel_config_1_reg &= 0xC0;
 1382              		.loc 1 653 0
 1383 0024 061C     		mov	r6, r0
 1384              	.LVL122:
 654:.\20648_driver\drivers/inv_mems_base_driver.c **** 	accel_config_1_reg &= 0xC0;
 1385              		.loc 1 654 0
 1386 0026 181C     		mov	r0, r3
 1387              	.LVL123:
 1388 0028 7B00     		lsl	r3, r7, #1
 1389              		.loc 1 656 0
 1390 002a 012A     		cmp	r2, #1
 1391 002c 01D9     		bls	.L130
 1392 002e 3922     		mov	r2, #57
 1393 0030 1043     		orr	r0, r2
 1394              	.L130:
 657:.\20648_driver\drivers/inv_mems_base_driver.c ****         accel_config_1_reg |= (7 << 3) | (level << 1) | 1;   //fchoice = 1, filter = 7.
 658:.\20648_driver\drivers/inv_mems_base_driver.c ****     else
 659:.\20648_driver\drivers/inv_mems_base_driver.c ****         accel_config_1_reg |= (level << 1);  //fchoice = 0, filter = 0.
 1395              		.loc 1 659 0
 1396 0032 0343     		orr	r3, r0
 660:.\20648_driver\drivers/inv_mems_base_driver.c ****     
 661:.\20648_driver\drivers/inv_mems_base_driver.c **** 	result |= inv_write_single_mems_reg(REG_ACCEL_CONFIG, accel_config_1_reg);
 1397              		.loc 1 661 0
ARM GAS  C:\Users\ADMINI~1\AppData\Local\Temp\ccA9rFPz.s 			page 39


 1398 0034 8A20     		mov	r0, #138
 659:.\20648_driver\drivers/inv_mems_base_driver.c ****     
 1399              		.loc 1 659 0
 1400 0036 2370     		strb	r3, [r4]
 1401              		.loc 1 661 0
 1402 0038 2178     		ldrb	r1, [r4]
 1403 003a 4000     		lsl	r0, r0, #1
 1404 003c FFF7FEFF 		bl	inv_write_single_mems_reg
 1405              	.LVL124:
 1406 0040 EB7A     		ldrb	r3, [r5, #11]
 1407 0042 0643     		orr	r6, r0
 1408              	.LVL125:
 1409 0044 083B     		sub	r3, r3, #8
 1410 0046 DBB2     		uxtb	r3, r3
 662:.\20648_driver\drivers/inv_mems_base_driver.c ****     
 663:.\20648_driver\drivers/inv_mems_base_driver.c ****     switch(base_state.accel_averaging) {
 1411              		.loc 1 663 0
 1412 0048 0025     		mov	r5, #0
 1413 004a 182B     		cmp	r3, #24
 1414 004c 01D8     		bhi	.L132
 1415 004e 0C4A     		ldr	r2, .L135+4
 1416 0050 D55C     		ldrb	r5, [r2, r3]
 1417              	.L132:
 1418              	.LVL126:
 664:.\20648_driver\drivers/inv_mems_base_driver.c ****     case 1:
 665:.\20648_driver\drivers/inv_mems_base_driver.c ****         dec3_cfg = 0;
 666:.\20648_driver\drivers/inv_mems_base_driver.c ****         break;
 667:.\20648_driver\drivers/inv_mems_base_driver.c ****     case 4:
 668:.\20648_driver\drivers/inv_mems_base_driver.c ****         dec3_cfg = 0;
 669:.\20648_driver\drivers/inv_mems_base_driver.c ****         break;
 670:.\20648_driver\drivers/inv_mems_base_driver.c ****     case 8:
 671:.\20648_driver\drivers/inv_mems_base_driver.c ****         dec3_cfg = 1;
 672:.\20648_driver\drivers/inv_mems_base_driver.c ****         break;
 673:.\20648_driver\drivers/inv_mems_base_driver.c ****     case 16:
 674:.\20648_driver\drivers/inv_mems_base_driver.c ****         dec3_cfg = 2;
 675:.\20648_driver\drivers/inv_mems_base_driver.c ****         break;
 676:.\20648_driver\drivers/inv_mems_base_driver.c ****     case 32:
 677:.\20648_driver\drivers/inv_mems_base_driver.c ****         dec3_cfg = 3;
 678:.\20648_driver\drivers/inv_mems_base_driver.c ****         break;
 679:.\20648_driver\drivers/inv_mems_base_driver.c ****     default:
 680:.\20648_driver\drivers/inv_mems_base_driver.c ****         dec3_cfg = 0;
 681:.\20648_driver\drivers/inv_mems_base_driver.c ****         break;
 682:.\20648_driver\drivers/inv_mems_base_driver.c ****     }
 683:.\20648_driver\drivers/inv_mems_base_driver.c ****     
 684:.\20648_driver\drivers/inv_mems_base_driver.c ****     result |= inv_read_mems_reg(REG_ACCEL_CONFIG_2, 1, &accel_config_2_reg);
 1419              		.loc 1 684 0
 1420 0052 6B46     		mov	r3, sp
 1421 0054 1620     		mov	r0, #22
 1422 0056 DC1D     		add	r4, r3, #7
 1423 0058 0121     		mov	r1, #1
 1424 005a 221C     		mov	r2, r4
 1425 005c FF30     		add	r0, r0, #255
 1426 005e FFF7FEFF 		bl	inv_read_mems_reg
 1427              	.LVL127:
 685:.\20648_driver\drivers/inv_mems_base_driver.c **** 	accel_config_2_reg &= 0xFC;
 1428              		.loc 1 685 0
 1429 0062 0323     		mov	r3, #3
ARM GAS  C:\Users\ADMINI~1\AppData\Local\Temp\ccA9rFPz.s 			page 40


 684:.\20648_driver\drivers/inv_mems_base_driver.c **** 	accel_config_2_reg &= 0xFC;
 1430              		.loc 1 684 0
 1431 0064 0643     		orr	r6, r0
 1432              	.LVL128:
 686:.\20648_driver\drivers/inv_mems_base_driver.c ****     
 687:.\20648_driver\drivers/inv_mems_base_driver.c ****     accel_config_2_reg |=  dec3_cfg;
 688:.\20648_driver\drivers/inv_mems_base_driver.c ****     result |= inv_write_single_mems_reg(REG_ACCEL_CONFIG_2, accel_config_2_reg);
 1433              		.loc 1 688 0
 1434 0066 1620     		mov	r0, #22
 685:.\20648_driver\drivers/inv_mems_base_driver.c ****     
 1435              		.loc 1 685 0
 1436 0068 2178     		ldrb	r1, [r4]
 1437              		.loc 1 688 0
 1438 006a FF30     		add	r0, r0, #255
 685:.\20648_driver\drivers/inv_mems_base_driver.c ****     
 1439              		.loc 1 685 0
 1440 006c 9943     		bic	r1, r3
 687:.\20648_driver\drivers/inv_mems_base_driver.c ****     result |= inv_write_single_mems_reg(REG_ACCEL_CONFIG_2, accel_config_2_reg);
 1441              		.loc 1 687 0
 1442 006e 2943     		orr	r1, r5
 1443 0070 2170     		strb	r1, [r4]
 1444              		.loc 1 688 0
 1445 0072 FFF7FEFF 		bl	inv_write_single_mems_reg
 1446              	.LVL129:
 1447 0076 0643     		orr	r6, r0
 1448              	.LVL130:
 1449              	.L129:
 1450              	.LBE14:
 1451              	.LBE13:
 689:.\20648_driver\drivers/inv_mems_base_driver.c **** 
 690:.\20648_driver\drivers/inv_mems_base_driver.c **** 	return result;
 691:.\20648_driver\drivers/inv_mems_base_driver.c **** }
 1452              		.loc 1 691 0
 1453 0078 301C     		mov	r0, r6
 1454              		@ sp needed
 1455 007a FEBD     		pop	{r1, r2, r3, r4, r5, r6, r7, pc}
 1456              	.L136:
 1457              		.align	2
 1458              	.L135:
 1459 007c 00000000 		.word	base_state
 1460 0080 00000000 		.word	.LANCHOR2
 1461              		.cfi_endproc
 1462              	.LFE23:
 1463              		.size	inv_set_mems_accel_fullscale, .-inv_set_mems_accel_fullscale
 1464              		.section	.text.inv_set_accel_fullscale,"ax",%progbits
 1465              		.align	1
 1466              		.global	inv_set_accel_fullscale
 1467              		.code	16
 1468              		.thumb_func
 1469              		.type	inv_set_accel_fullscale, %function
 1470              	inv_set_accel_fullscale:
 1471              	.LFB21:
 627:.\20648_driver\drivers/inv_mems_base_driver.c **** 	inv_error_t result;
 1472              		.loc 1 627 0
 1473              		.cfi_startproc
 1474              	.LVL131:
 1475 0000 38B5     		push	{r3, r4, r5, lr}
ARM GAS  C:\Users\ADMINI~1\AppData\Local\Temp\ccA9rFPz.s 			page 41


 1476              		.cfi_def_cfa_offset 16
 1477              		.cfi_offset 3, -16
 1478              		.cfi_offset 4, -12
 1479              		.cfi_offset 5, -8
 1480              		.cfi_offset 14, -4
 629:.\20648_driver\drivers/inv_mems_base_driver.c **** 	result = inv_set_mems_accel_fullscale(level);
 1481              		.loc 1 629 0
 1482 0002 094B     		ldr	r3, .L138
 627:.\20648_driver\drivers/inv_mems_base_driver.c **** 	inv_error_t result;
 1483              		.loc 1 627 0
 1484 0004 041C     		mov	r4, r0
 629:.\20648_driver\drivers/inv_mems_base_driver.c **** 	result = inv_set_mems_accel_fullscale(level);
 1485              		.loc 1 629 0
 1486 0006 5873     		strb	r0, [r3, #13]
 630:.\20648_driver\drivers/inv_mems_base_driver.c ****     result |= dmp_set_accel_fsr(2<<level);
 1487              		.loc 1 630 0
 1488 0008 FFF7FEFF 		bl	inv_set_mems_accel_fullscale
 1489              	.LVL132:
 631:.\20648_driver\drivers/inv_mems_base_driver.c ****     result |= dmp_set_accel_scale2(2<<level);
 1490              		.loc 1 631 0
 1491 000c 0223     		mov	r3, #2
 1492 000e A340     		lsl	r3, r3, r4
 1493 0010 1CB2     		sxth	r4, r3
 1494              	.LVL133:
 630:.\20648_driver\drivers/inv_mems_base_driver.c ****     result |= dmp_set_accel_fsr(2<<level);
 1495              		.loc 1 630 0
 1496 0012 051C     		mov	r5, r0
 1497              	.LVL134:
 631:.\20648_driver\drivers/inv_mems_base_driver.c ****     result |= dmp_set_accel_scale2(2<<level);
 1498              		.loc 1 631 0
 1499 0014 201C     		mov	r0, r4
 1500              	.LVL135:
 1501 0016 FFF7FEFF 		bl	dmp_set_accel_fsr
 1502              	.LVL136:
 1503 001a 0543     		orr	r5, r0
 1504              	.LVL137:
 632:.\20648_driver\drivers/inv_mems_base_driver.c **** 
 1505              		.loc 1 632 0
 1506 001c 201C     		mov	r0, r4
 1507 001e FFF7FEFF 		bl	dmp_set_accel_scale2
 1508              	.LVL138:
 635:.\20648_driver\drivers/inv_mems_base_driver.c **** 
 1509              		.loc 1 635 0
 1510              		@ sp needed
 632:.\20648_driver\drivers/inv_mems_base_driver.c **** 
 1511              		.loc 1 632 0
 1512 0022 2843     		orr	r0, r5
 1513              	.LVL139:
 635:.\20648_driver\drivers/inv_mems_base_driver.c **** 
 1514              		.loc 1 635 0
 1515 0024 38BD     		pop	{r3, r4, r5, pc}
 1516              	.L139:
 1517 0026 C046     		.align	2
 1518              	.L138:
 1519 0028 00000000 		.word	base_state
 1520              		.cfi_endproc
 1521              	.LFE21:
ARM GAS  C:\Users\ADMINI~1\AppData\Local\Temp\ccA9rFPz.s 			page 42


 1522              		.size	inv_set_accel_fullscale, .-inv_set_accel_fullscale
 1523              		.section	.text.inv_initialize_lower_driver,"ax",%progbits
 1524              		.align	1
 1525              		.global	inv_initialize_lower_driver
 1526              		.code	16
 1527              		.thumb_func
 1528              		.type	inv_initialize_lower_driver, %function
 1529              	inv_initialize_lower_driver:
 1530              	.LFB9:
 208:.\20648_driver\drivers/inv_mems_base_driver.c ****     inv_error_t result = 0;
 1531              		.loc 1 208 0
 1532              		.cfi_startproc
 1533              	.LVL140:
 1534 0000 F0B5     		push	{r4, r5, r6, r7, lr}
 1535              		.cfi_def_cfa_offset 20
 1536              		.cfi_offset 4, -20
 1537              		.cfi_offset 5, -16
 1538              		.cfi_offset 6, -12
 1539              		.cfi_offset 7, -8
 1540              		.cfi_offset 14, -4
 211:.\20648_driver\drivers/inv_mems_base_driver.c **** 
 1541              		.loc 1 211 0
 1542 0002 0025     		mov	r5, #0
 214:.\20648_driver\drivers/inv_mems_base_driver.c ****     base_state.pwr_mgmt_1 = BIT_CLK_PLL;
 1543              		.loc 1 214 0
 1544 0004 6A4C     		ldr	r4, .L150
 208:.\20648_driver\drivers/inv_mems_base_driver.c ****     inv_error_t result = 0;
 1545              		.loc 1 208 0
 1546 0006 8FB0     		sub	sp, sp, #60
 1547              		.cfi_def_cfa_offset 80
 211:.\20648_driver\drivers/inv_mems_base_driver.c **** 
 1548              		.loc 1 211 0
 1549 0008 0CAB     		add	r3, sp, #48
 208:.\20648_driver\drivers/inv_mems_base_driver.c ****     inv_error_t result = 0;
 1550              		.loc 1 208 0
 1551 000a 0090     		str	r0, [sp]
 1552 000c 0191     		str	r1, [sp, #4]
 214:.\20648_driver\drivers/inv_mems_base_driver.c ****     base_state.pwr_mgmt_1 = BIT_CLK_PLL;
 1553              		.loc 1 214 0
 1554 000e 1222     		mov	r2, #18
 1555 0010 291C     		mov	r1, r5
 1556              	.LVL141:
 1557 0012 201C     		mov	r0, r4
 1558              	.LVL142:
 211:.\20648_driver\drivers/inv_mems_base_driver.c **** 
 1559              		.loc 1 211 0
 1560 0014 DF1D     		add	r7, r3, #7
 1561 0016 DD71     		strb	r5, [r3, #7]
 214:.\20648_driver\drivers/inv_mems_base_driver.c ****     base_state.pwr_mgmt_1 = BIT_CLK_PLL;
 1562              		.loc 1 214 0
 1563 0018 FFF7FEFF 		bl	memset
 1564              	.LVL143:
 216:.\20648_driver\drivers/inv_mems_base_driver.c ****     base_state.serial_interface = type;
 1565              		.loc 1 216 0
 1566 001c 7F23     		mov	r3, #127
 1567 001e A370     		strb	r3, [r4, #2]
 217:.\20648_driver\drivers/inv_mems_base_driver.c ****     result |= inv_read_mems_reg(REG_WHO_AM_I, 1, &WhoAmI);
ARM GAS  C:\Users\ADMINI~1\AppData\Local\Temp\ccA9rFPz.s 			page 43


 1568              		.loc 1 217 0
 1569 0020 6B46     		mov	r3, sp
 215:.\20648_driver\drivers/inv_mems_base_driver.c ****     base_state.pwr_mgmt_2 = BIT_PWR_ACCEL_STBY | BIT_PWR_GYRO_STBY | BIT_PWR_PRESSURE_STBY;
 1570              		.loc 1 215 0
 1571 0022 0126     		mov	r6, #1
 217:.\20648_driver\drivers/inv_mems_base_driver.c ****     result |= inv_read_mems_reg(REG_WHO_AM_I, 1, &WhoAmI);
 1572              		.loc 1 217 0
 1573 0024 1B78     		ldrb	r3, [r3]
 218:.\20648_driver\drivers/inv_mems_base_driver.c ****     result |= inv_read_mems_reg(REG_USER_CTRL, 1, &base_state.user_ctrl);
 1574              		.loc 1 218 0
 1575 0026 3A1C     		mov	r2, r7
 1576 0028 311C     		mov	r1, r6
 1577 002a 281C     		mov	r0, r5
 217:.\20648_driver\drivers/inv_mems_base_driver.c ****     result |= inv_read_mems_reg(REG_WHO_AM_I, 1, &WhoAmI);
 1578              		.loc 1 217 0
 1579 002c E373     		strb	r3, [r4, #15]
 215:.\20648_driver\drivers/inv_mems_base_driver.c ****     base_state.pwr_mgmt_2 = BIT_PWR_ACCEL_STBY | BIT_PWR_GYRO_STBY | BIT_PWR_PRESSURE_STBY;
 1580              		.loc 1 215 0
 1581 002e 6670     		strb	r6, [r4, #1]
 218:.\20648_driver\drivers/inv_mems_base_driver.c ****     result |= inv_read_mems_reg(REG_USER_CTRL, 1, &base_state.user_ctrl);
 1582              		.loc 1 218 0
 1583 0030 FFF7FEFF 		bl	inv_read_mems_reg
 1584              	.LVL144:
 219:.\20648_driver\drivers/inv_mems_base_driver.c **** 
 1585              		.loc 1 219 0
 1586 0034 311C     		mov	r1, r6
 1587 0036 5F4A     		ldr	r2, .L150+4
 218:.\20648_driver\drivers/inv_mems_base_driver.c ****     result |= inv_read_mems_reg(REG_USER_CTRL, 1, &base_state.user_ctrl);
 1588              		.loc 1 218 0
 1589 0038 071C     		mov	r7, r0
 1590              	.LVL145:
 219:.\20648_driver\drivers/inv_mems_base_driver.c **** 
 1591              		.loc 1 219 0
 1592 003a 0320     		mov	r0, #3
 1593              	.LVL146:
 1594 003c FFF7FEFF 		bl	inv_read_mems_reg
 1595              	.LVL147:
 1596 0040 0743     		orr	r7, r0
 1597              	.LVL148:
 221:.\20648_driver\drivers/inv_mems_base_driver.c **** 
 1598              		.loc 1 221 0
 1599 0042 FFF7FEFF 		bl	inv_wakeup_mems
 1600              	.LVL149:
 227:.\20648_driver\drivers/inv_mems_base_driver.c **** #endif
 1601              		.loc 1 227 0
 1602 0046 3023     		mov	r3, #48
 1603 0048 5B4A     		ldr	r2, .L150+8
 221:.\20648_driver\drivers/inv_mems_base_driver.c **** 
 1604              		.loc 1 221 0
 1605 004a 0743     		orr	r7, r0
 1606              	.LVL150:
 227:.\20648_driver\drivers/inv_mems_base_driver.c **** #endif
 1607              		.loc 1 227 0
 1608 004c 1372     		strb	r3, [r2, #8]
 229:.\20648_driver\drivers/inv_mems_base_driver.c **** 
 1609              		.loc 1 229 0
 1610 004e 0520     		mov	r0, #5
ARM GAS  C:\Users\ADMINI~1\AppData\Local\Temp\ccA9rFPz.s 			page 44


 1611 0050 0832     		add	r2, r2, #8
 1612 0052 311C     		mov	r1, r6
 1613 0054 FFF7FEFF 		bl	inv_write_mems_reg
 1614              	.LVL151:
 232:.\20648_driver\drivers/inv_mems_base_driver.c **** 	    base_state.user_ctrl = BIT_I2C_IF_DIS;
 1615              		.loc 1 232 0
 1616 0058 E37B     		ldrb	r3, [r4, #15]
 229:.\20648_driver\drivers/inv_mems_base_driver.c **** 
 1617              		.loc 1 229 0
 1618 005a 0743     		orr	r7, r0
 1619              	.LVL152:
 232:.\20648_driver\drivers/inv_mems_base_driver.c **** 	    base_state.user_ctrl = BIT_I2C_IF_DIS;
 1620              		.loc 1 232 0
 1621 005c 022B     		cmp	r3, #2
 1622 005e 02D1     		bne	.L141
 233:.\20648_driver\drivers/inv_mems_base_driver.c ****     else
 1623              		.loc 1 233 0
 1624 0060 0E33     		add	r3, r3, #14
 1625 0062 E370     		strb	r3, [r4, #3]
 1626 0064 00E0     		b	.L142
 1627              	.L141:
 235:.\20648_driver\drivers/inv_mems_base_driver.c **** 
 1628              		.loc 1 235 0
 1629 0066 E570     		strb	r5, [r4, #3]
 1630              	.L142:
 237:.\20648_driver\drivers/inv_mems_base_driver.c **** 
 1631              		.loc 1 237 0
 1632 0068 E178     		ldrb	r1, [r4, #3]
 1633 006a 0320     		mov	r0, #3
 1634 006c FFF7FEFF 		bl	inv_write_single_mems_reg
 1635              	.LVL153:
 1636 0070 0743     		orr	r7, r0
 1637              	.LVL154:
 240:.\20648_driver\drivers/inv_mems_base_driver.c ****     
 1638              		.loc 1 240 0
 1639 0072 0198     		ldr	r0, [sp, #4]
 1640 0074 FFF7FEFF 		bl	inv_load_firmware
 1641              	.LVL155:
 1642 0078 0743     		orr	r7, r0
 1643              	.LVL156:
 1644 007a 381E     		sub	r0, r7, #0
 242:.\20648_driver\drivers/inv_mems_base_driver.c **** 	{
 1645              		.loc 1 242 0
 1646 007c 00D0     		beq	.LCB1405
 1647 007e 95E0     		b	.L143	@long jump
 1648              	.LCB1405:
 248:.\20648_driver\drivers/inv_mems_base_driver.c **** 	}
 1649              		.loc 1 248 0
 1650 0080 0222     		mov	r2, #2
 1651 0082 A37B     		ldrb	r3, [r4, #14]
 262:.\20648_driver\drivers/inv_mems_base_driver.c ****     result |= inv_write_mems_reg(REG_INT_ENABLE_2, 1, &data); // Enable FIFO Overflow Interrupt
 1652              		.loc 1 262 0
 1653 0084 0125     		mov	r5, #1
 248:.\20648_driver\drivers/inv_mems_base_driver.c **** 	}
 1654              		.loc 1 248 0
 1655 0086 1343     		orr	r3, r2
 1656 0088 A373     		strb	r3, [r4, #14]
ARM GAS  C:\Users\ADMINI~1\AppData\Local\Temp\ccA9rFPz.s 			page 45


 251:.\20648_driver\drivers/inv_mems_base_driver.c ****     // Turn off all sensors on DMP by default.
 1657              		.loc 1 251 0
 1658 008a FFF7FEFF 		bl	inv_set_dmp_address
 1659              	.LVL157:
 1660 008e 0090     		str	r0, [sp]
 1661              	.LVL158:
 254:.\20648_driver\drivers/inv_mems_base_driver.c **** 	
 1662              		.loc 1 254 0
 1663 0090 FFF7FEFF 		bl	dmp_reset_control_registers
 1664              	.LVL159:
 1665 0094 0190     		str	r0, [sp, #4]
 1666              	.LVL160:
 257:.\20648_driver\drivers/inv_mems_base_driver.c **** 
 1667              		.loc 1 257 0
 1668 0096 C820     		mov	r0, #200
 1669              	.LVL161:
 1670 0098 8000     		lsl	r0, r0, #2
 1671 009a FFF7FEFF 		bl	dmp_set_FIFO_watermark
 1672              	.LVL162:
 260:.\20648_driver\drivers/inv_mems_base_driver.c ****     result |= inv_write_mems_reg(REG_INT_ENABLE, 1, &data); // Enable DMP Interrupt
 1673              		.loc 1 260 0
 1674 009e 464A     		ldr	r2, .L150+8
 1675 00a0 0223     		mov	r3, #2
 261:.\20648_driver\drivers/inv_mems_base_driver.c ****     data = 0x1;
 1676              		.loc 1 261 0
 1677 00a2 161C     		mov	r6, r2
 1678 00a4 0836     		add	r6, r6, #8
 260:.\20648_driver\drivers/inv_mems_base_driver.c ****     result |= inv_write_mems_reg(REG_INT_ENABLE, 1, &data); // Enable DMP Interrupt
 1679              		.loc 1 260 0
 1680 00a6 1372     		strb	r3, [r2, #8]
 257:.\20648_driver\drivers/inv_mems_base_driver.c **** 
 1681              		.loc 1 257 0
 1682 00a8 0290     		str	r0, [sp, #8]
 1683              	.LVL163:
 261:.\20648_driver\drivers/inv_mems_base_driver.c ****     data = 0x1;
 1684              		.loc 1 261 0
 1685 00aa 321C     		mov	r2, r6
 1686 00ac 0121     		mov	r1, #1
 1687 00ae 1020     		mov	r0, #16
 1688              	.LVL164:
 1689 00b0 FFF7FEFF 		bl	inv_write_mems_reg
 1690              	.LVL165:
 262:.\20648_driver\drivers/inv_mems_base_driver.c ****     result |= inv_write_mems_reg(REG_INT_ENABLE_2, 1, &data); // Enable FIFO Overflow Interrupt
 1691              		.loc 1 262 0
 1692 00b4 404B     		ldr	r3, .L150+8
 263:.\20648_driver\drivers/inv_mems_base_driver.c **** 
 1693              		.loc 1 263 0
 1694 00b6 321C     		mov	r2, r6
 261:.\20648_driver\drivers/inv_mems_base_driver.c ****     data = 0x1;
 1695              		.loc 1 261 0
 1696 00b8 0390     		str	r0, [sp, #12]
 1697              	.LVL166:
 263:.\20648_driver\drivers/inv_mems_base_driver.c **** 
 1698              		.loc 1 263 0
 1699 00ba 291C     		mov	r1, r5
 1700 00bc 1220     		mov	r0, #18
 1701              	.LVL167:
ARM GAS  C:\Users\ADMINI~1\AppData\Local\Temp\ccA9rFPz.s 			page 46


 262:.\20648_driver\drivers/inv_mems_base_driver.c ****     result |= inv_write_mems_reg(REG_INT_ENABLE_2, 1, &data); // Enable FIFO Overflow Interrupt
 1702              		.loc 1 262 0
 1703 00be 1D72     		strb	r5, [r3, #8]
 263:.\20648_driver\drivers/inv_mems_base_driver.c **** 
 1704              		.loc 1 263 0
 1705 00c0 FFF7FEFF 		bl	inv_write_mems_reg
 1706              	.LVL168:
 269:.\20648_driver\drivers/inv_mems_base_driver.c ****     result |= inv_write_mems_reg(REG_SINGLE_FIFO_PRIORITY_SEL, 1, &data);
 1707              		.loc 1 269 0
 1708 00c4 E423     		mov	r3, #228
 1709 00c6 3C4A     		ldr	r2, .L150+8
 263:.\20648_driver\drivers/inv_mems_base_driver.c **** 
 1710              		.loc 1 263 0
 1711 00c8 0490     		str	r0, [sp, #16]
 1712              	.LVL169:
 269:.\20648_driver\drivers/inv_mems_base_driver.c ****     result |= inv_write_mems_reg(REG_SINGLE_FIFO_PRIORITY_SEL, 1, &data);
 1713              		.loc 1 269 0
 1714 00ca 1372     		strb	r3, [r2, #8]
 270:.\20648_driver\drivers/inv_mems_base_driver.c **** 
 1715              		.loc 1 270 0
 1716 00cc 291C     		mov	r1, r5
 1717 00ce 321C     		mov	r2, r6
 1718 00d0 2620     		mov	r0, #38
 1719              	.LVL170:
 1720 00d2 FFF7FEFF 		bl	inv_write_mems_reg
 1721              	.LVL171:
 273:.\20648_driver\drivers/inv_mems_base_driver.c **** 	data |= 0x08;
 1722              		.loc 1 273 0
 1723 00d6 321C     		mov	r2, r6
 270:.\20648_driver\drivers/inv_mems_base_driver.c **** 
 1724              		.loc 1 270 0
 1725 00d8 0590     		str	r0, [sp, #20]
 1726              	.LVL172:
 273:.\20648_driver\drivers/inv_mems_base_driver.c **** 	data |= 0x08;
 1727              		.loc 1 273 0
 1728 00da 291C     		mov	r1, r5
 1729 00dc 7520     		mov	r0, #117
 1730              	.LVL173:
 1731 00de FFF7FEFF 		bl	inv_read_mems_reg
 1732              	.LVL174:
 274:.\20648_driver\drivers/inv_mems_base_driver.c **** 	inv_write_mems_reg(REG_HW_FIX_DISABLE,1,&data);
 1733              		.loc 1 274 0
 1734 00e2 0822     		mov	r2, #8
 1735 00e4 344B     		ldr	r3, .L150+8
 275:.\20648_driver\drivers/inv_mems_base_driver.c **** #endif
 1736              		.loc 1 275 0
 1737 00e6 291C     		mov	r1, r5
 274:.\20648_driver\drivers/inv_mems_base_driver.c **** 	inv_write_mems_reg(REG_HW_FIX_DISABLE,1,&data);
 1738              		.loc 1 274 0
 1739 00e8 1B7A     		ldrb	r3, [r3, #8]
 275:.\20648_driver\drivers/inv_mems_base_driver.c **** #endif
 1740              		.loc 1 275 0
 1741 00ea 7520     		mov	r0, #117
 274:.\20648_driver\drivers/inv_mems_base_driver.c **** 	inv_write_mems_reg(REG_HW_FIX_DISABLE,1,&data);
 1742              		.loc 1 274 0
 1743 00ec 1343     		orr	r3, r2
 1744 00ee 324A     		ldr	r2, .L150+8
ARM GAS  C:\Users\ADMINI~1\AppData\Local\Temp\ccA9rFPz.s 			page 47


 1745 00f0 1372     		strb	r3, [r2, #8]
 275:.\20648_driver\drivers/inv_mems_base_driver.c **** #endif
 1746              		.loc 1 275 0
 1747 00f2 321C     		mov	r2, r6
 1748 00f4 FFF7FEFF 		bl	inv_write_mems_reg
 1749              	.LVL175:
 281:.\20648_driver\drivers/inv_mems_base_driver.c ****     inv_set_accel_divider(FIFO_DIVIDER);      //Initial sampling rate 1125Hz/10+1 = 102Hz.
 1750              		.loc 1 281 0
 1751 00f8 0A20     		mov	r0, #10
 279:.\20648_driver\drivers/inv_mems_base_driver.c ****     base_state.gyro_averaging = 1;  //Change this value if higher sensor sample avergaing is requir
 1752              		.loc 1 279 0
 1753 00fa E572     		strb	r5, [r4, #11]
 280:.\20648_driver\drivers/inv_mems_base_driver.c **** 	inv_set_gyro_divider(FIFO_DIVIDER);       //Initial sampling rate 1125Hz/10+1 = 102Hz.
 1754              		.loc 1 280 0
 1755 00fc A572     		strb	r5, [r4, #10]
 281:.\20648_driver\drivers/inv_mems_base_driver.c ****     inv_set_accel_divider(FIFO_DIVIDER);      //Initial sampling rate 1125Hz/10+1 = 102Hz.
 1756              		.loc 1 281 0
 1757 00fe FFF7FEFF 		bl	inv_set_gyro_divider
 1758              	.LVL176:
 282:.\20648_driver\drivers/inv_mems_base_driver.c **** 	result |= inv_set_gyro_fullscale(MPU_FS_2000dps);
 1759              		.loc 1 282 0
 1760 0102 0A20     		mov	r0, #10
 1761 0104 FFF7FEFF 		bl	inv_set_accel_divider
 1762              	.LVL177:
 283:.\20648_driver\drivers/inv_mems_base_driver.c **** 	result |= inv_set_accel_fullscale(MPU_FS_2G);
 1763              		.loc 1 283 0
 1764 0108 0320     		mov	r0, #3
 1765 010a FFF7FEFF 		bl	inv_set_gyro_fullscale
 1766              	.LVL178:
 1767 010e 0690     		str	r0, [sp, #24]
 1768              	.LVL179:
 284:.\20648_driver\drivers/inv_mems_base_driver.c **** 
 1769              		.loc 1 284 0
 1770 0110 381C     		mov	r0, r7
 1771              	.LVL180:
 1772 0112 FFF7FEFF 		bl	inv_set_accel_fullscale
 1773              	.LVL181:
 287:.\20648_driver\drivers/inv_mems_base_driver.c ****     result |= inv_write_single_mems_reg(REG_FIFO_RST, 0x1f); // Reset all FIFOs.
 1774              		.loc 1 287 0
 1775 0116 391C     		mov	r1, r7
 284:.\20648_driver\drivers/inv_mems_base_driver.c **** 
 1776              		.loc 1 284 0
 1777 0118 0790     		str	r0, [sp, #28]
 1778              	.LVL182:
 287:.\20648_driver\drivers/inv_mems_base_driver.c ****     result |= inv_write_single_mems_reg(REG_FIFO_RST, 0x1f); // Reset all FIFOs.
 1779              		.loc 1 287 0
 1780 011a 7620     		mov	r0, #118
 1781              	.LVL183:
 1782 011c FFF7FEFF 		bl	inv_write_single_mems_reg
 1783              	.LVL184:
 288:.\20648_driver\drivers/inv_mems_base_driver.c ****     result |= inv_write_single_mems_reg(REG_FIFO_RST, 0x1e); // Keep all but Gyro FIFO in reset.
 1784              		.loc 1 288 0
 1785 0120 1F21     		mov	r1, #31
 287:.\20648_driver\drivers/inv_mems_base_driver.c ****     result |= inv_write_single_mems_reg(REG_FIFO_RST, 0x1f); // Reset all FIFOs.
 1786              		.loc 1 287 0
 1787 0122 0890     		str	r0, [sp, #32]
 1788              	.LVL185:
ARM GAS  C:\Users\ADMINI~1\AppData\Local\Temp\ccA9rFPz.s 			page 48


 288:.\20648_driver\drivers/inv_mems_base_driver.c ****     result |= inv_write_single_mems_reg(REG_FIFO_RST, 0x1e); // Keep all but Gyro FIFO in reset.
 1789              		.loc 1 288 0
 1790 0124 6820     		mov	r0, #104
 1791              	.LVL186:
 1792 0126 FFF7FEFF 		bl	inv_write_single_mems_reg
 1793              	.LVL187:
 289:.\20648_driver\drivers/inv_mems_base_driver.c ****     result |= inv_write_single_mems_reg(REG_FIFO_EN, 0x0); // Slave FIFO turned off.
 1794              		.loc 1 289 0
 1795 012a 1E21     		mov	r1, #30
 288:.\20648_driver\drivers/inv_mems_base_driver.c ****     result |= inv_write_single_mems_reg(REG_FIFO_RST, 0x1e); // Keep all but Gyro FIFO in reset.
 1796              		.loc 1 288 0
 1797 012c 0990     		str	r0, [sp, #36]
 1798              	.LVL188:
 289:.\20648_driver\drivers/inv_mems_base_driver.c ****     result |= inv_write_single_mems_reg(REG_FIFO_EN, 0x0); // Slave FIFO turned off.
 1799              		.loc 1 289 0
 1800 012e 6820     		mov	r0, #104
 1801              	.LVL189:
 1802 0130 FFF7FEFF 		bl	inv_write_single_mems_reg
 1803              	.LVL190:
 290:.\20648_driver\drivers/inv_mems_base_driver.c ****     result |= inv_write_single_mems_reg(REG_FIFO_EN_2, 0x0); // Hardware FIFO turned off.
 1804              		.loc 1 290 0
 1805 0134 391C     		mov	r1, r7
 289:.\20648_driver\drivers/inv_mems_base_driver.c ****     result |= inv_write_single_mems_reg(REG_FIFO_EN, 0x0); // Slave FIFO turned off.
 1806              		.loc 1 289 0
 1807 0136 0A90     		str	r0, [sp, #40]
 1808              	.LVL191:
 290:.\20648_driver\drivers/inv_mems_base_driver.c ****     result |= inv_write_single_mems_reg(REG_FIFO_EN_2, 0x0); // Hardware FIFO turned off.
 1809              		.loc 1 290 0
 1810 0138 6620     		mov	r0, #102
 1811              	.LVL192:
 1812 013a FFF7FEFF 		bl	inv_write_single_mems_reg
 1813              	.LVL193:
 291:.\20648_driver\drivers/inv_mems_base_driver.c ****     
 1814              		.loc 1 291 0
 1815 013e 391C     		mov	r1, r7
 290:.\20648_driver\drivers/inv_mems_base_driver.c ****     result |= inv_write_single_mems_reg(REG_FIFO_EN_2, 0x0); // Hardware FIFO turned off.
 1816              		.loc 1 290 0
 1817 0140 0B90     		str	r0, [sp, #44]
 1818              	.LVL194:
 291:.\20648_driver\drivers/inv_mems_base_driver.c ****     
 1819              		.loc 1 291 0
 1820 0142 6720     		mov	r0, #103
 1821              	.LVL195:
 1822 0144 FFF7FEFF 		bl	inv_write_single_mems_reg
 1823              	.LVL196:
 293:.\20648_driver\drivers/inv_mems_base_driver.c **** #if (MEMS_CHIP == HW_ICM20648)
 1824              		.loc 1 293 0
 1825 0148 321C     		mov	r2, r6
 291:.\20648_driver\drivers/inv_mems_base_driver.c ****     
 1826              		.loc 1 291 0
 1827 014a 071C     		mov	r7, r0
 1828              	.LVL197:
 293:.\20648_driver\drivers/inv_mems_base_driver.c **** #if (MEMS_CHIP == HW_ICM20648)
 1829              		.loc 1 293 0
 1830 014c 291C     		mov	r1, r5
 1831 014e 8620     		mov	r0, #134
 1832 0150 FFF7FEFF 		bl	inv_read_mems
ARM GAS  C:\Users\ADMINI~1\AppData\Local\Temp\ccA9rFPz.s 			page 49


 1833              	.LVL198:
 296:.\20648_driver\drivers/inv_mems_base_driver.c **** 		return INV_ERROR_INVALID_CONFIGURATION;
 1834              		.loc 1 296 0
 1835 0154 0822     		mov	r2, #8
 1836 0156 184B     		ldr	r3, .L150+8
 293:.\20648_driver\drivers/inv_mems_base_driver.c **** #if (MEMS_CHIP == HW_ICM20648)
 1837              		.loc 1 293 0
 1838 0158 061C     		mov	r6, r0
 296:.\20648_driver\drivers/inv_mems_base_driver.c **** 		return INV_ERROR_INVALID_CONFIGURATION;
 1839              		.loc 1 296 0
 1840 015a 1B7A     		ldrb	r3, [r3, #8]
 297:.\20648_driver\drivers/inv_mems_base_driver.c **** #endif
 1841              		.loc 1 297 0
 1842 015c 3120     		mov	r0, #49
 296:.\20648_driver\drivers/inv_mems_base_driver.c **** 		return INV_ERROR_INVALID_CONFIGURATION;
 1843              		.loc 1 296 0
 1844 015e 1342     		tst	r3, r2
 1845 0160 24D1     		bne	.L143
 300:.\20648_driver\drivers/inv_mems_base_driver.c **** 	
 1846              		.loc 1 300 0
 1847 0162 A37B     		ldrb	r3, [r4, #14]
 1848 0164 2B43     		orr	r3, r5
 1849 0166 A373     		strb	r3, [r4, #14]
 308:.\20648_driver\drivers/inv_mems_base_driver.c **** 		inv_set_chip_power_state(CHIP_LP_ENABLE, 1);
 1850              		.loc 1 308 0
 1851 0168 2B42     		tst	r3, r5
 1852 016a 03D0     		beq	.L144
 309:.\20648_driver\drivers/inv_mems_base_driver.c **** 
 1853              		.loc 1 309 0
 1854 016c 2F38     		sub	r0, r0, #47
 1855 016e 291C     		mov	r1, r5
 1856 0170 FFF7FEFF 		bl	inv_set_chip_power_state
 1857              	.LVL199:
 1858              	.L144:
 311:.\20648_driver\drivers/inv_mems_base_driver.c ****         
 1859              		.loc 1 311 0
 1860 0174 FFF7FEFF 		bl	inv_sleep_mems
 1861              	.LVL200:
 254:.\20648_driver\drivers/inv_mems_base_driver.c **** 	
 1862              		.loc 1 254 0
 1863 0178 009A     		ldr	r2, [sp]
 1864 017a 019B     		ldr	r3, [sp, #4]
 1865 017c 1343     		orr	r3, r2
 257:.\20648_driver\drivers/inv_mems_base_driver.c **** 
 1866              		.loc 1 257 0
 1867 017e 029A     		ldr	r2, [sp, #8]
 1868 0180 1343     		orr	r3, r2
 261:.\20648_driver\drivers/inv_mems_base_driver.c ****     data = 0x1;
 1869              		.loc 1 261 0
 1870 0182 039A     		ldr	r2, [sp, #12]
 1871 0184 1343     		orr	r3, r2
 263:.\20648_driver\drivers/inv_mems_base_driver.c **** 
 1872              		.loc 1 263 0
 1873 0186 049A     		ldr	r2, [sp, #16]
 1874 0188 1343     		orr	r3, r2
 270:.\20648_driver\drivers/inv_mems_base_driver.c **** 
 1875              		.loc 1 270 0
ARM GAS  C:\Users\ADMINI~1\AppData\Local\Temp\ccA9rFPz.s 			page 50


 1876 018a 059A     		ldr	r2, [sp, #20]
 1877 018c 1343     		orr	r3, r2
 283:.\20648_driver\drivers/inv_mems_base_driver.c **** 	result |= inv_set_accel_fullscale(MPU_FS_2G);
 1878              		.loc 1 283 0
 1879 018e 069A     		ldr	r2, [sp, #24]
 1880 0190 1343     		orr	r3, r2
 284:.\20648_driver\drivers/inv_mems_base_driver.c **** 
 1881              		.loc 1 284 0
 1882 0192 079A     		ldr	r2, [sp, #28]
 1883 0194 1343     		orr	r3, r2
 287:.\20648_driver\drivers/inv_mems_base_driver.c ****     result |= inv_write_single_mems_reg(REG_FIFO_RST, 0x1f); // Reset all FIFOs.
 1884              		.loc 1 287 0
 1885 0196 089A     		ldr	r2, [sp, #32]
 1886 0198 1343     		orr	r3, r2
 288:.\20648_driver\drivers/inv_mems_base_driver.c ****     result |= inv_write_single_mems_reg(REG_FIFO_RST, 0x1e); // Keep all but Gyro FIFO in reset.
 1887              		.loc 1 288 0
 1888 019a 099A     		ldr	r2, [sp, #36]
 1889 019c 1343     		orr	r3, r2
 289:.\20648_driver\drivers/inv_mems_base_driver.c ****     result |= inv_write_single_mems_reg(REG_FIFO_EN, 0x0); // Slave FIFO turned off.
 1890              		.loc 1 289 0
 1891 019e 0A9A     		ldr	r2, [sp, #40]
 1892 01a0 1343     		orr	r3, r2
 290:.\20648_driver\drivers/inv_mems_base_driver.c ****     result |= inv_write_single_mems_reg(REG_FIFO_EN_2, 0x0); // Hardware FIFO turned off.
 1893              		.loc 1 290 0
 1894 01a2 0B9A     		ldr	r2, [sp, #44]
 1895 01a4 1343     		orr	r3, r2
 291:.\20648_driver\drivers/inv_mems_base_driver.c ****     
 1896              		.loc 1 291 0
 1897 01a6 1F43     		orr	r7, r3
 293:.\20648_driver\drivers/inv_mems_base_driver.c **** #if (MEMS_CHIP == HW_ICM20648)
 1898              		.loc 1 293 0
 1899 01a8 3E43     		orr	r6, r7
 311:.\20648_driver\drivers/inv_mems_base_driver.c ****         
 1900              		.loc 1 311 0
 1901 01aa 3043     		orr	r0, r6
 1902              	.L143:
 314:.\20648_driver\drivers/inv_mems_base_driver.c **** 
 1903              		.loc 1 314 0
 1904 01ac 0FB0     		add	sp, sp, #60
 1905              		@ sp needed
 1906 01ae F0BD     		pop	{r4, r5, r6, r7, pc}
 1907              	.L151:
 1908              		.align	2
 1909              	.L150:
 1910 01b0 00000000 		.word	base_state
 1911 01b4 03000000 		.word	base_state+3
 1912 01b8 00000000 		.word	.LANCHOR1
 1913              		.cfi_endproc
 1914              	.LFE9:
 1915              		.size	inv_initialize_lower_driver, .-inv_initialize_lower_driver
 1916              		.section	.text.inv_enable_mems_hw_sensors,"ax",%progbits
 1917              		.align	1
 1918              		.global	inv_enable_mems_hw_sensors
 1919              		.code	16
 1920              		.thumb_func
 1921              		.type	inv_enable_mems_hw_sensors, %function
 1922              	inv_enable_mems_hw_sensors:
ARM GAS  C:\Users\ADMINI~1\AppData\Local\Temp\ccA9rFPz.s 			page 51


 1923              	.LFB24:
 692:.\20648_driver\drivers/inv_mems_base_driver.c **** 
 693:.\20648_driver\drivers/inv_mems_base_driver.c **** 
 694:.\20648_driver\drivers/inv_mems_base_driver.c **** inv_error_t inv_enable_mems_hw_sensors(int bit_mask)
 695:.\20648_driver\drivers/inv_mems_base_driver.c **** {
 1924              		.loc 1 695 0
 1925              		.cfi_startproc
 1926              	.LVL201:
 696:.\20648_driver\drivers/inv_mems_base_driver.c **** 	inv_error_t rc = INV_SUCCESS;
 697:.\20648_driver\drivers/inv_mems_base_driver.c **** 
 698:.\20648_driver\drivers/inv_mems_base_driver.c ****     if ((base_state.pwr_mgmt_2 == (BIT_PWR_ACCEL_STBY | BIT_PWR_GYRO_STBY | BIT_PWR_PRESSURE_STBY))
 1927              		.loc 1 698 0
 1928 0000 8022     		mov	r2, #128
 695:.\20648_driver\drivers/inv_mems_base_driver.c **** 	inv_error_t rc = INV_SUCCESS;
 1929              		.loc 1 695 0
 1930 0002 10B5     		push	{r4, lr}
 1931              		.cfi_def_cfa_offset 8
 1932              		.cfi_offset 4, -8
 1933              		.cfi_offset 14, -4
 1934              		.loc 1 698 0
 1935 0004 114B     		ldr	r3, .L160
 1936 0006 0240     		and	r2, r0
 1937 0008 9978     		ldrb	r1, [r3, #2]
 695:.\20648_driver\drivers/inv_mems_base_driver.c **** 	inv_error_t rc = INV_SUCCESS;
 1938              		.loc 1 695 0
 1939 000a 041C     		mov	r4, r0
 1940              		.loc 1 698 0
 1941 000c 7F39     		sub	r1, r1, #127
 1942 000e 4842     		neg	r0, r1
 1943 0010 4141     		adc	r1, r1, r0
 1944              	.LVL202:
 696:.\20648_driver\drivers/inv_mems_base_driver.c **** 	inv_error_t rc = INV_SUCCESS;
 1945              		.loc 1 696 0
 1946 0012 0020     		mov	r0, #0
 1947              		.loc 1 698 0
 1948 0014 0A43     		orr	r2, r1
 1949 0016 8242     		cmp	r2, r0
 1950 0018 16D0     		beq	.L153
 699:.\20648_driver\drivers/inv_mems_base_driver.c ****         // All sensors off, or override is on
 700:.\20648_driver\drivers/inv_mems_base_driver.c ****         base_state.pwr_mgmt_2 = 0; // Zero means all sensors are on
 701:.\20648_driver\drivers/inv_mems_base_driver.c ****         // Gyro and Accel were off
 702:.\20648_driver\drivers/inv_mems_base_driver.c ****         if ((bit_mask & 2) == 0) {
 1951              		.loc 1 702 0
 1952 001a A207     		lsl	r2, r4, #30
 1953 001c 01D5     		bpl	.L154
 700:.\20648_driver\drivers/inv_mems_base_driver.c ****         // Gyro and Accel were off
 1954              		.loc 1 700 0
 1955 001e 9870     		strb	r0, [r3, #2]
 1956 0020 01E0     		b	.L155
 1957              	.L154:
 703:.\20648_driver\drivers/inv_mems_base_driver.c ****             base_state.pwr_mgmt_2 = BIT_PWR_ACCEL_STBY; // Turn off accel
 1958              		.loc 1 703 0
 1959 0022 3822     		mov	r2, #56
 1960 0024 9A70     		strb	r2, [r3, #2]
 1961              	.L155:
 704:.\20648_driver\drivers/inv_mems_base_driver.c ****         }
 705:.\20648_driver\drivers/inv_mems_base_driver.c ****         if ((bit_mask & 1) == 0) {
ARM GAS  C:\Users\ADMINI~1\AppData\Local\Temp\ccA9rFPz.s 			page 52


 1962              		.loc 1 705 0
 1963 0026 E207     		lsl	r2, r4, #31
 1964 0028 03D4     		bmi	.L156
 706:.\20648_driver\drivers/inv_mems_base_driver.c ****             base_state.pwr_mgmt_2 |= BIT_PWR_GYRO_STBY; // Turn off gyro
 1965              		.loc 1 706 0
 1966 002a 0721     		mov	r1, #7
 1967 002c 9A78     		ldrb	r2, [r3, #2]
 1968 002e 0A43     		orr	r2, r1
 1969 0030 9A70     		strb	r2, [r3, #2]
 1970              	.L156:
 707:.\20648_driver\drivers/inv_mems_base_driver.c ****         }
 708:.\20648_driver\drivers/inv_mems_base_driver.c ****         if ((bit_mask & 4) == 0) {
 1971              		.loc 1 708 0
 1972 0032 6207     		lsl	r2, r4, #29
 1973 0034 03D4     		bmi	.L157
 709:.\20648_driver\drivers/inv_mems_base_driver.c ****             base_state.pwr_mgmt_2 |= BIT_PWR_PRESSURE_STBY; // Turn off pressure
 1974              		.loc 1 709 0
 1975 0036 4021     		mov	r1, #64
 1976 0038 9A78     		ldrb	r2, [r3, #2]
 1977 003a 0A43     		orr	r2, r1
 1978 003c 9A70     		strb	r2, [r3, #2]
 1979              	.L157:
 710:.\20648_driver\drivers/inv_mems_base_driver.c ****         }
 711:.\20648_driver\drivers/inv_mems_base_driver.c **** 
 712:.\20648_driver\drivers/inv_mems_base_driver.c ****         rc |= inv_write_mems_reg(REG_PWR_MGMT_2, 1, &base_state.pwr_mgmt_2);
 1980              		.loc 1 712 0
 1981 003e 0720     		mov	r0, #7
 1982 0040 0121     		mov	r1, #1
 1983 0042 034A     		ldr	r2, .L160+4
 1984 0044 FFF7FEFF 		bl	inv_write_mems_reg
 1985              	.LVL203:
 1986              	.L153:
 713:.\20648_driver\drivers/inv_mems_base_driver.c ****     }
 714:.\20648_driver\drivers/inv_mems_base_driver.c **** 	
 715:.\20648_driver\drivers/inv_mems_base_driver.c **** #if defined MEMS_SECONDARY_DEVICE
 716:.\20648_driver\drivers/inv_mems_base_driver.c **** 	{
 717:.\20648_driver\drivers/inv_mems_base_driver.c **** 		if (bit_mask & SECONDARY_COMPASS_AVAILABLE) {
 718:.\20648_driver\drivers/inv_mems_base_driver.c **** 			rc |= inv_resume_akm();
 719:.\20648_driver\drivers/inv_mems_base_driver.c **** 		} else
 720:.\20648_driver\drivers/inv_mems_base_driver.c **** 			rc |= inv_suspend_akm();
 721:.\20648_driver\drivers/inv_mems_base_driver.c **** 
 722:.\20648_driver\drivers/inv_mems_base_driver.c **** 		if (bit_mask & SECONDARY_PRESSURE_AVAILABLE) {
 723:.\20648_driver\drivers/inv_mems_base_driver.c **** 			rc |= inv_mems_pressure_resume_bmp();
 724:.\20648_driver\drivers/inv_mems_base_driver.c **** 		} else {
 725:.\20648_driver\drivers/inv_mems_base_driver.c **** 			rc |= inv_mems_pressure_suspend_bmp();
 726:.\20648_driver\drivers/inv_mems_base_driver.c **** 		}
 727:.\20648_driver\drivers/inv_mems_base_driver.c **** 	}
 728:.\20648_driver\drivers/inv_mems_base_driver.c **** #endif
 729:.\20648_driver\drivers/inv_mems_base_driver.c ****     return rc;
 730:.\20648_driver\drivers/inv_mems_base_driver.c **** }
 1987              		.loc 1 730 0
 1988              		@ sp needed
 1989              	.LVL204:
 1990 0048 10BD     		pop	{r4, pc}
 1991              	.L161:
 1992 004a C046     		.align	2
 1993              	.L160:
ARM GAS  C:\Users\ADMINI~1\AppData\Local\Temp\ccA9rFPz.s 			page 53


 1994 004c 00000000 		.word	base_state
 1995 0050 02000000 		.word	base_state+2
 1996              		.cfi_endproc
 1997              	.LFE24:
 1998              		.size	inv_enable_mems_hw_sensors, .-inv_enable_mems_hw_sensors
 1999              		.section	.text.inv_set_serial_comm,"ax",%progbits
 2000              		.align	1
 2001              		.global	inv_set_serial_comm
 2002              		.code	16
 2003              		.thumb_func
 2004              		.type	inv_set_serial_comm, %function
 2005              	inv_set_serial_comm:
 2006              	.LFB25:
 731:.\20648_driver\drivers/inv_mems_base_driver.c **** 
 732:.\20648_driver\drivers/inv_mems_base_driver.c **** inv_error_t inv_set_serial_comm(enum MEMS_SERIAL_INTERFACE type)
 733:.\20648_driver\drivers/inv_mems_base_driver.c **** {
 2007              		.loc 1 733 0
 2008              		.cfi_startproc
 2009              	.LVL205:
 734:.\20648_driver\drivers/inv_mems_base_driver.c ****     base_state.serial_interface = type;
 2010              		.loc 1 734 0
 2011 0000 014B     		ldr	r3, .L163
 735:.\20648_driver\drivers/inv_mems_base_driver.c **** 
 736:.\20648_driver\drivers/inv_mems_base_driver.c **** 	return INV_SUCCESS;
 737:.\20648_driver\drivers/inv_mems_base_driver.c **** }
 2012              		.loc 1 737 0
 2013              		@ sp needed
 734:.\20648_driver\drivers/inv_mems_base_driver.c ****     base_state.serial_interface = type;
 2014              		.loc 1 734 0
 2015 0002 D873     		strb	r0, [r3, #15]
 2016              		.loc 1 737 0
 2017 0004 0020     		mov	r0, #0
 2018              	.LVL206:
 2019 0006 7047     		bx	lr
 2020              	.L164:
 2021              		.align	2
 2022              	.L163:
 2023 0008 00000000 		.word	base_state
 2024              		.cfi_endproc
 2025              	.LFE25:
 2026              		.size	inv_set_serial_comm, .-inv_set_serial_comm
 2027              		.section	.text.inv_set_int1_assertion,"ax",%progbits
 2028              		.align	1
 2029              		.global	inv_set_int1_assertion
 2030              		.code	16
 2031              		.thumb_func
 2032              		.type	inv_set_int1_assertion, %function
 2033              	inv_set_int1_assertion:
 2034              	.LFB26:
 738:.\20648_driver\drivers/inv_mems_base_driver.c **** 
 739:.\20648_driver\drivers/inv_mems_base_driver.c **** 
 740:.\20648_driver\drivers/inv_mems_base_driver.c **** inv_error_t inv_set_int1_assertion(int enable)
 741:.\20648_driver\drivers/inv_mems_base_driver.c **** {
 2035              		.loc 1 741 0
 2036              		.cfi_startproc
 2037              	.LVL207:
 2038 0000 73B5     		push	{r0, r1, r4, r5, r6, lr}
ARM GAS  C:\Users\ADMINI~1\AppData\Local\Temp\ccA9rFPz.s 			page 54


 2039              		.cfi_def_cfa_offset 24
 2040              		.cfi_offset 0, -24
 2041              		.cfi_offset 1, -20
 2042              		.cfi_offset 4, -16
 2043              		.cfi_offset 5, -12
 2044              		.cfi_offset 6, -8
 2045              		.cfi_offset 14, -4
 742:.\20648_driver\drivers/inv_mems_base_driver.c **** 	inv_error_t   result = 0;
 743:.\20648_driver\drivers/inv_mems_base_driver.c **** 	// unsigned char reg_pin_cfg;
 744:.\20648_driver\drivers/inv_mems_base_driver.c **** 	unsigned char reg_int_enable;
 745:.\20648_driver\drivers/inv_mems_base_driver.c **** 
 746:.\20648_driver\drivers/inv_mems_base_driver.c **** 	// INT1 held until interrupt status is cleared
 747:.\20648_driver\drivers/inv_mems_base_driver.c **** 	/*
 748:.\20648_driver\drivers/inv_mems_base_driver.c **** 	result         |= inv_read_mems_reg(REG_INT_PIN_CFG, 1, &reg_pin_cfg);
 749:.\20648_driver\drivers/inv_mems_base_driver.c **** 	reg_pin_cfg    |= BIT_INT_LATCH_EN ;	// Latchen : BIT5 held the IT until register is read
 750:.\20648_driver\drivers/inv_mems_base_driver.c **** 	result         |= inv_write_single_mems_reg(REG_INT_PIN_CFG, reg_pin_cfg);
 751:.\20648_driver\drivers/inv_mems_base_driver.c **** 	*/
 752:.\20648_driver\drivers/inv_mems_base_driver.c **** 
 753:.\20648_driver\drivers/inv_mems_base_driver.c **** 	// Set int1 enable
 754:.\20648_driver\drivers/inv_mems_base_driver.c **** 	result         |= inv_read_mems_reg(REG_INT_ENABLE, 1, &reg_int_enable);
 2046              		.loc 1 754 0
 2047 0002 6B46     		mov	r3, sp
 2048 0004 DC1D     		add	r4, r3, #7
 2049 0006 221C     		mov	r2, r4
 741:.\20648_driver\drivers/inv_mems_base_driver.c **** 	inv_error_t   result = 0;
 2050              		.loc 1 741 0
 2051 0008 061C     		mov	r6, r0
 2052              		.loc 1 754 0
 2053 000a 0121     		mov	r1, #1
 2054 000c 1020     		mov	r0, #16
 2055              	.LVL208:
 2056 000e FFF7FEFF 		bl	inv_read_mems_reg
 2057              	.LVL209:
 2058 0012 2378     		ldrb	r3, [r4]
 2059 0014 051C     		mov	r5, r0
 2060              	.LVL210:
 2061 0016 0222     		mov	r2, #2
 755:.\20648_driver\drivers/inv_mems_base_driver.c **** 
 756:.\20648_driver\drivers/inv_mems_base_driver.c **** 	if(enable)
 2062              		.loc 1 756 0
 2063 0018 002E     		cmp	r6, #0
 2064 001a 01D0     		beq	.L166
 757:.\20648_driver\drivers/inv_mems_base_driver.c **** 	{ // Enable bit
 758:.\20648_driver\drivers/inv_mems_base_driver.c **** 	  reg_int_enable |= BIT_DMP_INT_EN;
 2065              		.loc 1 758 0
 2066 001c 1343     		orr	r3, r2
 2067 001e 00E0     		b	.L168
 2068              	.L166:
 759:.\20648_driver\drivers/inv_mems_base_driver.c **** 	}
 760:.\20648_driver\drivers/inv_mems_base_driver.c **** 	else
 761:.\20648_driver\drivers/inv_mems_base_driver.c **** 	{ // Disable bit
 762:.\20648_driver\drivers/inv_mems_base_driver.c **** 	  reg_int_enable &= ~BIT_DMP_INT_EN;
 2069              		.loc 1 762 0
 2070 0020 9343     		bic	r3, r2
 2071              	.L168:
 2072 0022 2370     		strb	r3, [r4]
 763:.\20648_driver\drivers/inv_mems_base_driver.c **** 	}
ARM GAS  C:\Users\ADMINI~1\AppData\Local\Temp\ccA9rFPz.s 			page 55


 764:.\20648_driver\drivers/inv_mems_base_driver.c **** 
 765:.\20648_driver\drivers/inv_mems_base_driver.c **** 	result         |= inv_write_single_mems_reg(REG_INT_ENABLE, reg_int_enable);
 2073              		.loc 1 765 0
 2074 0024 2178     		ldrb	r1, [r4]
 2075 0026 1020     		mov	r0, #16
 2076              	.LVL211:
 2077 0028 FFF7FEFF 		bl	inv_write_single_mems_reg
 2078              	.LVL212:
 766:.\20648_driver\drivers/inv_mems_base_driver.c **** 
 767:.\20648_driver\drivers/inv_mems_base_driver.c **** 	return result;
 768:.\20648_driver\drivers/inv_mems_base_driver.c **** }
 2079              		.loc 1 768 0
 2080              		@ sp needed
 765:.\20648_driver\drivers/inv_mems_base_driver.c **** 
 2081              		.loc 1 765 0
 2082 002c 2843     		orr	r0, r5
 2083              	.LVL213:
 2084              	.LVL214:
 2085              		.loc 1 768 0
 2086 002e 76BD     		pop	{r1, r2, r4, r5, r6, pc}
 2087              		.cfi_endproc
 2088              	.LFE26:
 2089              		.size	inv_set_int1_assertion, .-inv_set_int1_assertion
 2090              		.section	.text.inv_accel_read_hw_reg_data,"ax",%progbits
 2091              		.align	1
 2092              		.global	inv_accel_read_hw_reg_data
 2093              		.code	16
 2094              		.thumb_func
 2095              		.type	inv_accel_read_hw_reg_data, %function
 2096              	inv_accel_read_hw_reg_data:
 2097              	.LFB27:
 769:.\20648_driver\drivers/inv_mems_base_driver.c **** 
 770:.\20648_driver\drivers/inv_mems_base_driver.c **** 
 771:.\20648_driver\drivers/inv_mems_base_driver.c **** /**
 772:.\20648_driver\drivers/inv_mems_base_driver.c **** *  @brief      Read accel data stored in hw reg
 773:.\20648_driver\drivers/inv_mems_base_driver.c **** *  @param[in]  level  See mpu_accel_fs
 774:.\20648_driver\drivers/inv_mems_base_driver.c **** *  @return     INV_SUCCESS if successful
 775:.\20648_driver\drivers/inv_mems_base_driver.c **** */
 776:.\20648_driver\drivers/inv_mems_base_driver.c **** inv_error_t inv_accel_read_hw_reg_data(short accel_hw_reg_data[3])
 777:.\20648_driver\drivers/inv_mems_base_driver.c **** {
 2098              		.loc 1 777 0
 2099              		.cfi_startproc
 2100              	.LVL215:
 2101 0000 13B5     		push	{r0, r1, r4, lr}
 2102              		.cfi_def_cfa_offset 16
 2103              		.cfi_offset 0, -16
 2104              		.cfi_offset 1, -12
 2105              		.cfi_offset 4, -8
 2106              		.cfi_offset 14, -4
 2107              		.loc 1 777 0
 2108 0002 041C     		mov	r4, r0
 778:.\20648_driver\drivers/inv_mems_base_driver.c **** 	inv_error_t   result        = 0;
 779:.\20648_driver\drivers/inv_mems_base_driver.c ****     uint8_t       accel_data[6];      // Store 6 bytes for that
 780:.\20648_driver\drivers/inv_mems_base_driver.c **** 
 781:.\20648_driver\drivers/inv_mems_base_driver.c ****     // read mem regs
 782:.\20648_driver\drivers/inv_mems_base_driver.c **** 	result         = inv_read_mems_reg(REG_ACCEL_XOUT_H_SH, 6, (unsigned char *) &accel_data);
 2109              		.loc 1 782 0
ARM GAS  C:\Users\ADMINI~1\AppData\Local\Temp\ccA9rFPz.s 			page 56


 2110 0004 6A46     		mov	r2, sp
 2111 0006 0621     		mov	r1, #6
 2112 0008 2D20     		mov	r0, #45
 2113              	.LVL216:
 2114 000a FFF7FEFF 		bl	inv_read_mems_reg
 2115              	.LVL217:
 783:.\20648_driver\drivers/inv_mems_base_driver.c **** 
 784:.\20648_driver\drivers/inv_mems_base_driver.c **** 	// Assign axys !
 785:.\20648_driver\drivers/inv_mems_base_driver.c **** 	accel_hw_reg_data[0] = (accel_data[0] << 8) + accel_data[1];
 2116              		.loc 1 785 0
 2117 000e 6B46     		mov	r3, sp
 2118 0010 6A46     		mov	r2, sp
 2119 0012 1B78     		ldrb	r3, [r3]
 2120 0014 5278     		ldrb	r2, [r2, #1]
 2121 0016 1B02     		lsl	r3, r3, #8
 2122 0018 D318     		add	r3, r2, r3
 2123 001a 2380     		strh	r3, [r4]
 786:.\20648_driver\drivers/inv_mems_base_driver.c **** 	accel_hw_reg_data[1] = (accel_data[2] << 8) + accel_data[3];
 2124              		.loc 1 786 0
 2125 001c 6B46     		mov	r3, sp
 2126 001e 6A46     		mov	r2, sp
 2127 0020 9B78     		ldrb	r3, [r3, #2]
 2128 0022 D278     		ldrb	r2, [r2, #3]
 2129 0024 1B02     		lsl	r3, r3, #8
 2130 0026 D318     		add	r3, r2, r3
 2131 0028 6380     		strh	r3, [r4, #2]
 787:.\20648_driver\drivers/inv_mems_base_driver.c **** 	accel_hw_reg_data[2] = (accel_data[4] << 8) + accel_data[5];
 2132              		.loc 1 787 0
 2133 002a 6B46     		mov	r3, sp
 2134 002c 6A46     		mov	r2, sp
 2135 002e 1B79     		ldrb	r3, [r3, #4]
 2136 0030 5279     		ldrb	r2, [r2, #5]
 2137 0032 1B02     		lsl	r3, r3, #8
 2138 0034 D318     		add	r3, r2, r3
 2139 0036 A380     		strh	r3, [r4, #4]
 788:.\20648_driver\drivers/inv_mems_base_driver.c **** 
 789:.\20648_driver\drivers/inv_mems_base_driver.c **** 	return result;
 790:.\20648_driver\drivers/inv_mems_base_driver.c **** }
 2140              		.loc 1 790 0
 2141              		@ sp needed
 2142              	.LVL218:
 2143 0038 16BD     		pop	{r1, r2, r4, pc}
 2144              		.cfi_endproc
 2145              	.LFE27:
 2146              		.size	inv_accel_read_hw_reg_data, .-inv_accel_read_hw_reg_data
 2147              		.comm	base_state,18,2
 2148              		.section	.rodata
 2149              		.set	.LANCHOR2,. + 0
 2150              		.type	CSWTCH.48, %object
 2151              		.size	CSWTCH.48, 25
 2152              	CSWTCH.48:
 2153 0000 01       		.byte	1
 2154 0001 00       		.byte	0
 2155 0002 00       		.byte	0
 2156 0003 00       		.byte	0
 2157 0004 00       		.byte	0
 2158 0005 00       		.byte	0
ARM GAS  C:\Users\ADMINI~1\AppData\Local\Temp\ccA9rFPz.s 			page 57


 2159 0006 00       		.byte	0
 2160 0007 00       		.byte	0
 2161 0008 02       		.byte	2
 2162 0009 00       		.byte	0
 2163 000a 00       		.byte	0
 2164 000b 00       		.byte	0
 2165 000c 00       		.byte	0
 2166 000d 00       		.byte	0
 2167 000e 00       		.byte	0
 2168 000f 00       		.byte	0
 2169 0010 00       		.byte	0
 2170 0011 00       		.byte	0
 2171 0012 00       		.byte	0
 2172 0013 00       		.byte	0
 2173 0014 00       		.byte	0
 2174 0015 00       		.byte	0
 2175 0016 00       		.byte	0
 2176 0017 00       		.byte	0
 2177 0018 03       		.byte	3
 2178              		.data
 2179              		.set	.LANCHOR0,. + 0
 2180              		.type	sAllowLpEn, %object
 2181              		.size	sAllowLpEn, 1
 2182              	sAllowLpEn:
 2183 0000 01       		.byte	1
 2184              		.bss
 2185              		.align	2
 2186              		.set	.LANCHOR1,. + 0
 2187              		.type	lIsInited.5366, %object
 2188              		.size	lIsInited.5366, 1
 2189              	lIsInited.5366:
 2190 0000 00       		.space	1
 2191 0001 000000   		.space	3
 2192              		.type	lLastGyroSf.5411, %object
 2193              		.size	lLastGyroSf.5411, 4
 2194              	lLastGyroSf.5411:
 2195 0004 00000000 		.space	4
 2196              		.type	data.5372, %object
 2197              		.size	data.5372, 1
 2198              	data.5372:
 2199 0008 00       		.space	1
 2200 0009 000000   		.text
 2201              	.Letext0:
 2202              		.file 2 "c:\\program files (x86)\\cypress\\psoc creator\\3.3\\psoc creator\\import\\gnu\\arm\\4.9.
 2203              		.file 3 "c:\\program files (x86)\\cypress\\psoc creator\\3.3\\psoc creator\\import\\gnu\\arm\\4.9.
 2204              		.file 4 "./.\\20648_driver\\drivers\\inv_mems_defines.h"
 2205              		.file 5 "./.\\20648_driver\\common\\mltypes.h"
 2206              		.file 6 "./.\\20648_driver\\drivers\\inv_mems_base_driver.h"
 2207              		.file 7 "./.\\20648_driver\\drivers\\inv_mems_base_control.h"
 2208              		.file 8 "./.\\20648_driver\\common\\inv_mems_drv_hook.h"
 2209              		.file 9 "./.\\20648_driver\\drivers\\inv_mems_transport.h"
 2210              		.file 10 "./.\\20648_driver\\dmp3\\inv_mems_interface_mapping.h"
 2211              		.section	.debug_info,"",%progbits
 2212              	.Ldebug_info0:
 2213 0000 55110000 		.4byte	0x1155
 2214 0004 0400     		.2byte	0x4
 2215 0006 00000000 		.4byte	.Ldebug_abbrev0
ARM GAS  C:\Users\ADMINI~1\AppData\Local\Temp\ccA9rFPz.s 			page 58


 2216 000a 04       		.byte	0x4
 2217 000b 01       		.uleb128 0x1
 2218 000c DC020000 		.4byte	.LASF126
 2219 0010 01       		.byte	0x1
 2220 0011 8D000000 		.4byte	.LASF127
 2221 0015 82070000 		.4byte	.LASF128
 2222 0019 00000000 		.4byte	.Ldebug_ranges0+0
 2223 001d 00000000 		.4byte	0
 2224 0021 00000000 		.4byte	.Ldebug_line0
 2225 0025 02       		.uleb128 0x2
 2226 0026 04       		.byte	0x4
 2227 0027 05       		.byte	0x5
 2228 0028 696E7400 		.ascii	"int\000"
 2229 002c 03       		.uleb128 0x3
 2230 002d 04       		.byte	0x4
 2231 002e 07       		.byte	0x7
 2232 002f F1000000 		.4byte	.LASF0
 2233 0033 03       		.uleb128 0x3
 2234 0034 01       		.byte	0x1
 2235 0035 06       		.byte	0x6
 2236 0036 24080000 		.4byte	.LASF1
 2237 003a 04       		.uleb128 0x4
 2238 003b 24060000 		.4byte	.LASF4
 2239 003f 02       		.byte	0x2
 2240 0040 1D       		.byte	0x1d
 2241 0041 45000000 		.4byte	0x45
 2242 0045 03       		.uleb128 0x3
 2243 0046 01       		.byte	0x1
 2244 0047 08       		.byte	0x8
 2245 0048 12070000 		.4byte	.LASF2
 2246 004c 03       		.uleb128 0x3
 2247 004d 02       		.byte	0x2
 2248 004e 05       		.byte	0x5
 2249 004f C5050000 		.4byte	.LASF3
 2250 0053 04       		.uleb128 0x4
 2251 0054 B4020000 		.4byte	.LASF5
 2252 0058 02       		.byte	0x2
 2253 0059 2B       		.byte	0x2b
 2254 005a 5E000000 		.4byte	0x5e
 2255 005e 03       		.uleb128 0x3
 2256 005f 02       		.byte	0x2
 2257 0060 07       		.byte	0x7
 2258 0061 5F080000 		.4byte	.LASF6
 2259 0065 03       		.uleb128 0x3
 2260 0066 04       		.byte	0x4
 2261 0067 05       		.byte	0x5
 2262 0068 E9050000 		.4byte	.LASF7
 2263 006c 04       		.uleb128 0x4
 2264 006d 20070000 		.4byte	.LASF8
 2265 0071 02       		.byte	0x2
 2266 0072 41       		.byte	0x41
 2267 0073 77000000 		.4byte	0x77
 2268 0077 03       		.uleb128 0x3
 2269 0078 04       		.byte	0x4
 2270 0079 07       		.byte	0x7
 2271 007a 8E060000 		.4byte	.LASF9
 2272 007e 03       		.uleb128 0x3
ARM GAS  C:\Users\ADMINI~1\AppData\Local\Temp\ccA9rFPz.s 			page 59


 2273 007f 08       		.byte	0x8
 2274 0080 05       		.byte	0x5
 2275 0081 6B040000 		.4byte	.LASF10
 2276 0085 03       		.uleb128 0x3
 2277 0086 08       		.byte	0x8
 2278 0087 07       		.byte	0x7
 2279 0088 90020000 		.4byte	.LASF11
 2280 008c 03       		.uleb128 0x3
 2281 008d 04       		.byte	0x4
 2282 008e 07       		.byte	0x7
 2283 008f 85060000 		.4byte	.LASF12
 2284 0093 05       		.uleb128 0x5
 2285 0094 04       		.byte	0x4
 2286 0095 06       		.uleb128 0x6
 2287 0096 04       		.byte	0x4
 2288 0097 45000000 		.4byte	0x45
 2289 009b 03       		.uleb128 0x3
 2290 009c 01       		.byte	0x1
 2291 009d 08       		.byte	0x8
 2292 009e 1D040000 		.4byte	.LASF13
 2293 00a2 04       		.uleb128 0x4
 2294 00a3 45040000 		.4byte	.LASF14
 2295 00a7 03       		.byte	0x3
 2296 00a8 15       		.byte	0x15
 2297 00a9 3A000000 		.4byte	0x3a
 2298 00ad 04       		.uleb128 0x4
 2299 00ae 88050000 		.4byte	.LASF15
 2300 00b2 03       		.byte	0x3
 2301 00b3 21       		.byte	0x21
 2302 00b4 53000000 		.4byte	0x53
 2303 00b8 04       		.uleb128 0x4
 2304 00b9 37020000 		.4byte	.LASF16
 2305 00bd 03       		.byte	0x3
 2306 00be 2D       		.byte	0x2d
 2307 00bf 6C000000 		.4byte	0x6c
 2308 00c3 07       		.uleb128 0x7
 2309 00c4 C1080000 		.4byte	.LASF20
 2310 00c8 01       		.byte	0x1
 2311 00c9 04       		.byte	0x4
 2312 00ca 7402     		.2byte	0x274
 2313 00cc E3000000 		.4byte	0xe3
 2314 00d0 08       		.uleb128 0x8
 2315 00d1 0C010000 		.4byte	.LASF17
 2316 00d5 01       		.sleb128 1
 2317 00d6 08       		.uleb128 0x8
 2318 00d7 6E000000 		.4byte	.LASF18
 2319 00db 02       		.sleb128 2
 2320 00dc 08       		.uleb128 0x8
 2321 00dd 33070000 		.4byte	.LASF19
 2322 00e1 03       		.sleb128 3
 2323 00e2 00       		.byte	0
 2324 00e3 07       		.uleb128 0x7
 2325 00e4 1C000000 		.4byte	.LASF21
 2326 00e8 01       		.byte	0x1
 2327 00e9 04       		.byte	0x4
 2328 00ea 7A02     		.2byte	0x27a
 2329 00ec 0F010000 		.4byte	0x10f
ARM GAS  C:\Users\ADMINI~1\AppData\Local\Temp\ccA9rFPz.s 			page 60


 2330 00f0 08       		.uleb128 0x8
 2331 00f1 AA050000 		.4byte	.LASF22
 2332 00f5 00       		.sleb128 0
 2333 00f6 08       		.uleb128 0x8
 2334 00f7 7B060000 		.4byte	.LASF23
 2335 00fb 01       		.sleb128 1
 2336 00fc 08       		.uleb128 0x8
 2337 00fd 83000000 		.4byte	.LASF24
 2338 0101 02       		.sleb128 2
 2339 0102 08       		.uleb128 0x8
 2340 0103 10060000 		.4byte	.LASF25
 2341 0107 03       		.sleb128 3
 2342 0108 08       		.uleb128 0x8
 2343 0109 78010000 		.4byte	.LASF26
 2344 010d 04       		.sleb128 4
 2345 010e 00       		.byte	0
 2346 010f 07       		.uleb128 0x7
 2347 0110 BB000000 		.4byte	.LASF27
 2348 0114 01       		.byte	0x1
 2349 0115 04       		.byte	0x4
 2350 0116 8202     		.2byte	0x282
 2351 0118 3B010000 		.4byte	0x13b
 2352 011c 08       		.uleb128 0x8
 2353 011d B1010000 		.4byte	.LASF28
 2354 0121 00       		.sleb128 0
 2355 0122 08       		.uleb128 0x8
 2356 0123 FF060000 		.4byte	.LASF29
 2357 0127 01       		.sleb128 1
 2358 0128 08       		.uleb128 0x8
 2359 0129 A7030000 		.4byte	.LASF30
 2360 012d 02       		.sleb128 2
 2361 012e 08       		.uleb128 0x8
 2362 012f F7070000 		.4byte	.LASF31
 2363 0133 03       		.sleb128 3
 2364 0134 08       		.uleb128 0x8
 2365 0135 AF040000 		.4byte	.LASF32
 2366 0139 04       		.sleb128 4
 2367 013a 00       		.byte	0
 2368 013b 04       		.uleb128 0x4
 2369 013c 84020000 		.4byte	.LASF33
 2370 0140 05       		.byte	0x5
 2371 0141 24       		.byte	0x24
 2372 0142 25000000 		.4byte	0x25
 2373 0146 09       		.uleb128 0x9
 2374 0147 BF020000 		.4byte	.LASF129
 2375 014b 12       		.byte	0x12
 2376 014c 06       		.byte	0x6
 2377 014d 1D       		.byte	0x1d
 2378 014e 0D020000 		.4byte	0x20d
 2379 0152 0A       		.uleb128 0xa
 2380 0153 FC080000 		.4byte	.LASF34
 2381 0157 06       		.byte	0x6
 2382 0158 1F       		.byte	0x1f
 2383 0159 45000000 		.4byte	0x45
 2384 015d 00       		.byte	0
 2385 015e 0A       		.uleb128 0xa
 2386 015f 49050000 		.4byte	.LASF35
ARM GAS  C:\Users\ADMINI~1\AppData\Local\Temp\ccA9rFPz.s 			page 61


 2387 0163 06       		.byte	0x6
 2388 0164 20       		.byte	0x20
 2389 0165 45000000 		.4byte	0x45
 2390 0169 01       		.byte	0x1
 2391 016a 0A       		.uleb128 0xa
 2392 016b 54050000 		.4byte	.LASF36
 2393 016f 06       		.byte	0x6
 2394 0170 21       		.byte	0x21
 2395 0171 45000000 		.4byte	0x45
 2396 0175 02       		.byte	0x2
 2397 0176 0A       		.uleb128 0xa
 2398 0177 9D030000 		.4byte	.LASF37
 2399 017b 06       		.byte	0x6
 2400 017c 22       		.byte	0x22
 2401 017d 45000000 		.4byte	0x45
 2402 0181 03       		.byte	0x3
 2403 0182 0A       		.uleb128 0xa
 2404 0183 89010000 		.4byte	.LASF38
 2405 0187 06       		.byte	0x6
 2406 0188 23       		.byte	0x23
 2407 0189 45000000 		.4byte	0x45
 2408 018d 04       		.byte	0x4
 2409 018e 0A       		.uleb128 0xa
 2410 018f FE000000 		.4byte	.LASF39
 2411 0193 06       		.byte	0x6
 2412 0194 24       		.byte	0x24
 2413 0195 5E000000 		.4byte	0x5e
 2414 0199 06       		.byte	0x6
 2415 019a 0A       		.uleb128 0xa
 2416 019b 29000000 		.4byte	.LASF40
 2417 019f 06       		.byte	0x6
 2418 01a0 25       		.byte	0x25
 2419 01a1 4C000000 		.4byte	0x4c
 2420 01a5 08       		.byte	0x8
 2421 01a6 0A       		.uleb128 0xa
 2422 01a7 1D020000 		.4byte	.LASF41
 2423 01ab 06       		.byte	0x6
 2424 01ac 26       		.byte	0x26
 2425 01ad 45000000 		.4byte	0x45
 2426 01b1 0A       		.byte	0xa
 2427 01b2 0A       		.uleb128 0xa
 2428 01b3 82030000 		.4byte	.LASF42
 2429 01b7 06       		.byte	0x6
 2430 01b8 27       		.byte	0x27
 2431 01b9 45000000 		.4byte	0x45
 2432 01bd 0B       		.byte	0xb
 2433 01be 0A       		.uleb128 0xa
 2434 01bf 3A050000 		.4byte	.LASF43
 2435 01c3 06       		.byte	0x6
 2436 01c4 28       		.byte	0x28
 2437 01c5 A2000000 		.4byte	0xa2
 2438 01c9 0C       		.byte	0xc
 2439 01ca 0A       		.uleb128 0xa
 2440 01cb F2050000 		.4byte	.LASF44
 2441 01cf 06       		.byte	0x6
 2442 01d0 29       		.byte	0x29
 2443 01d1 A2000000 		.4byte	0xa2
ARM GAS  C:\Users\ADMINI~1\AppData\Local\Temp\ccA9rFPz.s 			page 62


 2444 01d5 0D       		.byte	0xd
 2445 01d6 0B       		.uleb128 0xb
 2446 01d7 02060000 		.4byte	.LASF45
 2447 01db 06       		.byte	0x6
 2448 01dc 2A       		.byte	0x2a
 2449 01dd A2000000 		.4byte	0xa2
 2450 01e1 01       		.byte	0x1
 2451 01e2 01       		.byte	0x1
 2452 01e3 07       		.byte	0x7
 2453 01e4 0E       		.byte	0xe
 2454 01e5 0B       		.uleb128 0xb
 2455 01e6 22040000 		.4byte	.LASF46
 2456 01ea 06       		.byte	0x6
 2457 01eb 2B       		.byte	0x2b
 2458 01ec A2000000 		.4byte	0xa2
 2459 01f0 01       		.byte	0x1
 2460 01f1 01       		.byte	0x1
 2461 01f2 06       		.byte	0x6
 2462 01f3 0E       		.byte	0xe
 2463 01f4 0A       		.uleb128 0xa
 2464 01f5 71030000 		.4byte	.LASF47
 2465 01f9 06       		.byte	0x6
 2466 01fa 2C       		.byte	0x2c
 2467 01fb A2000000 		.4byte	0xa2
 2468 01ff 0F       		.byte	0xf
 2469 0200 0A       		.uleb128 0xa
 2470 0201 A0060000 		.4byte	.LASF48
 2471 0205 06       		.byte	0x6
 2472 0206 2D       		.byte	0x2d
 2473 0207 A2000000 		.4byte	0xa2
 2474 020b 10       		.byte	0x10
 2475 020c 00       		.byte	0
 2476 020d 0C       		.uleb128 0xc
 2477 020e A7020000 		.4byte	.LASF49
 2478 0212 01       		.byte	0x1
 2479 0213 07       		.byte	0x7
 2480 0214 F9       		.byte	0xf9
 2481 0215 2C020000 		.4byte	0x22c
 2482 0219 08       		.uleb128 0x8
 2483 021a 46010000 		.4byte	.LASF50
 2484 021e 00       		.sleb128 0
 2485 021f 08       		.uleb128 0x8
 2486 0220 B4050000 		.4byte	.LASF51
 2487 0224 01       		.sleb128 1
 2488 0225 08       		.uleb128 0x8
 2489 0226 A4010000 		.4byte	.LASF52
 2490 022a 02       		.sleb128 2
 2491 022b 00       		.byte	0
 2492 022c 0D       		.uleb128 0xd
 2493 022d A7080000 		.4byte	.LASF130
 2494 0231 01       		.byte	0x1
 2495 0232 2F       		.byte	0x2f
 2496 0233 A2000000 		.4byte	0xa2
 2497 0237 01       		.byte	0x1
 2498 0238 0E       		.uleb128 0xe
 2499 0239 30080000 		.4byte	.LASF57
 2500 023d 01       		.byte	0x1
ARM GAS  C:\Users\ADMINI~1\AppData\Local\Temp\ccA9rFPz.s 			page 63


 2501 023e 3C02     		.2byte	0x23c
 2502 0240 3B010000 		.4byte	0x13b
 2503 0244 01       		.byte	0x1
 2504 0245 86020000 		.4byte	0x286
 2505 0249 0F       		.uleb128 0xf
 2506 024a 50010000 		.4byte	.LASF59
 2507 024e 01       		.byte	0x1
 2508 024f 3C02     		.2byte	0x23c
 2509 0251 25000000 		.4byte	0x25
 2510 0255 10       		.uleb128 0x10
 2511 0256 58020000 		.4byte	.LASF53
 2512 025a 01       		.byte	0x1
 2513 025b 3E02     		.2byte	0x23e
 2514 025d 3B010000 		.4byte	0x13b
 2515 0261 10       		.uleb128 0x10
 2516 0262 0B040000 		.4byte	.LASF54
 2517 0266 01       		.byte	0x1
 2518 0267 3F02     		.2byte	0x23f
 2519 0269 45000000 		.4byte	0x45
 2520 026d 10       		.uleb128 0x10
 2521 026e C7000000 		.4byte	.LASF55
 2522 0272 01       		.byte	0x1
 2523 0273 4002     		.2byte	0x240
 2524 0275 45000000 		.4byte	0x45
 2525 0279 10       		.uleb128 0x10
 2526 027a 21010000 		.4byte	.LASF56
 2527 027e 01       		.byte	0x1
 2528 027f 4102     		.2byte	0x241
 2529 0281 45000000 		.4byte	0x45
 2530 0285 00       		.byte	0
 2531 0286 0E       		.uleb128 0xe
 2532 0287 5F050000 		.4byte	.LASF58
 2533 028b 01       		.byte	0x1
 2534 028c 8302     		.2byte	0x283
 2535 028e 3B010000 		.4byte	0x13b
 2536 0292 01       		.byte	0x1
 2537 0293 D4020000 		.4byte	0x2d4
 2538 0297 0F       		.uleb128 0xf
 2539 0298 50010000 		.4byte	.LASF59
 2540 029c 01       		.byte	0x1
 2541 029d 8302     		.2byte	0x283
 2542 029f 25000000 		.4byte	0x25
 2543 02a3 10       		.uleb128 0x10
 2544 02a4 58020000 		.4byte	.LASF53
 2545 02a8 01       		.byte	0x1
 2546 02a9 8502     		.2byte	0x285
 2547 02ab 3B010000 		.4byte	0x13b
 2548 02af 10       		.uleb128 0x10
 2549 02b0 4C080000 		.4byte	.LASF60
 2550 02b4 01       		.byte	0x1
 2551 02b5 8602     		.2byte	0x286
 2552 02b7 45000000 		.4byte	0x45
 2553 02bb 10       		.uleb128 0x10
 2554 02bc FE040000 		.4byte	.LASF61
 2555 02c0 01       		.byte	0x1
 2556 02c1 8702     		.2byte	0x287
 2557 02c3 45000000 		.4byte	0x45
ARM GAS  C:\Users\ADMINI~1\AppData\Local\Temp\ccA9rFPz.s 			page 64


 2558 02c7 10       		.uleb128 0x10
 2559 02c8 21010000 		.4byte	.LASF56
 2560 02cc 01       		.byte	0x1
 2561 02cd 8802     		.2byte	0x288
 2562 02cf 45000000 		.4byte	0x45
 2563 02d3 00       		.byte	0
 2564 02d4 11       		.uleb128 0x11
 2565 02d5 79040000 		.4byte	.LASF78
 2566 02d9 01       		.byte	0x1
 2567 02da 26       		.byte	0x26
 2568 02db 00000000 		.4byte	.LFB0
 2569 02df 0C000000 		.4byte	.LFE0-.LFB0
 2570 02e3 01       		.uleb128 0x1
 2571 02e4 9C       		.byte	0x9c
 2572 02e5 12       		.uleb128 0x12
 2573 02e6 72080000 		.4byte	.LASF64
 2574 02ea 01       		.byte	0x1
 2575 02eb 3D       		.byte	0x3d
 2576 02ec 3B010000 		.4byte	0x13b
 2577 02f0 00000000 		.4byte	.LFB3
 2578 02f4 D0000000 		.4byte	.LFE3-.LFB3
 2579 02f8 01       		.uleb128 0x1
 2580 02f9 9C       		.byte	0x9c
 2581 02fa CC030000 		.4byte	0x3cc
 2582 02fe 13       		.uleb128 0x13
 2583 02ff 84010000 		.4byte	.LASF62
 2584 0303 01       		.byte	0x1
 2585 0304 3D       		.byte	0x3d
 2586 0305 45000000 		.4byte	0x45
 2587 0309 00000000 		.4byte	.LLST0
 2588 030d 13       		.uleb128 0x13
 2589 030e EA080000 		.4byte	.LASF63
 2590 0312 01       		.byte	0x1
 2591 0313 3D       		.byte	0x3d
 2592 0314 45000000 		.4byte	0x45
 2593 0318 85000000 		.4byte	.LLST1
 2594 031c 14       		.uleb128 0x14
 2595 031d 4D040000 		.4byte	.LASF66
 2596 0321 01       		.byte	0x1
 2597 0322 3F       		.byte	0x3f
 2598 0323 3B010000 		.4byte	0x13b
 2599 0327 0A010000 		.4byte	.LLST2
 2600 032b 15       		.uleb128 0x15
 2601 032c 2C020000 		.4byte	0x22c
 2602 0330 6A000000 		.4byte	.LBB4
 2603 0334 02000000 		.4byte	.LBE4-.LBB4
 2604 0338 01       		.byte	0x1
 2605 0339 58       		.byte	0x58
 2606 033a 16       		.uleb128 0x16
 2607 033b 2E000000 		.4byte	.LVL3
 2608 033f F60F0000 		.4byte	0xff6
 2609 0343 5C030000 		.4byte	0x35c
 2610 0347 17       		.uleb128 0x17
 2611 0348 01       		.uleb128 0x1
 2612 0349 52       		.byte	0x52
 2613 034a 05       		.uleb128 0x5
 2614 034b 03       		.byte	0x3
ARM GAS  C:\Users\ADMINI~1\AppData\Local\Temp\ccA9rFPz.s 			page 65


 2615 034c 01000000 		.4byte	base_state+1
 2616 0350 17       		.uleb128 0x17
 2617 0351 01       		.uleb128 0x1
 2618 0352 51       		.byte	0x51
 2619 0353 02       		.uleb128 0x2
 2620 0354 74       		.byte	0x74
 2621 0355 00       		.sleb128 0
 2622 0356 17       		.uleb128 0x17
 2623 0357 01       		.uleb128 0x1
 2624 0358 50       		.byte	0x50
 2625 0359 01       		.uleb128 0x1
 2626 035a 36       		.byte	0x36
 2627 035b 00       		.byte	0
 2628 035c 16       		.uleb128 0x16
 2629 035d 4E000000 		.4byte	.LVL8
 2630 0361 F60F0000 		.4byte	0xff6
 2631 0365 7E030000 		.4byte	0x37e
 2632 0369 17       		.uleb128 0x17
 2633 036a 01       		.uleb128 0x1
 2634 036b 52       		.byte	0x52
 2635 036c 05       		.uleb128 0x5
 2636 036d 03       		.byte	0x3
 2637 036e 01000000 		.4byte	base_state+1
 2638 0372 17       		.uleb128 0x17
 2639 0373 01       		.uleb128 0x1
 2640 0374 51       		.byte	0x51
 2641 0375 02       		.uleb128 0x2
 2642 0376 74       		.byte	0x74
 2643 0377 00       		.sleb128 0
 2644 0378 17       		.uleb128 0x17
 2645 0379 01       		.uleb128 0x1
 2646 037a 50       		.byte	0x50
 2647 037b 01       		.uleb128 0x1
 2648 037c 36       		.byte	0x36
 2649 037d 00       		.byte	0
 2650 037e 16       		.uleb128 0x16
 2651 037f 8A000000 		.4byte	.LVL14
 2652 0383 F60F0000 		.4byte	0xff6
 2653 0387 A0030000 		.4byte	0x3a0
 2654 038b 17       		.uleb128 0x17
 2655 038c 01       		.uleb128 0x1
 2656 038d 52       		.byte	0x52
 2657 038e 05       		.uleb128 0x5
 2658 038f 03       		.byte	0x3
 2659 0390 01000000 		.4byte	base_state+1
 2660 0394 17       		.uleb128 0x17
 2661 0395 01       		.uleb128 0x1
 2662 0396 51       		.byte	0x51
 2663 0397 02       		.uleb128 0x2
 2664 0398 77       		.byte	0x77
 2665 0399 00       		.sleb128 0
 2666 039a 17       		.uleb128 0x17
 2667 039b 01       		.uleb128 0x1
 2668 039c 50       		.byte	0x50
 2669 039d 01       		.uleb128 0x1
 2670 039e 36       		.byte	0x36
 2671 039f 00       		.byte	0
ARM GAS  C:\Users\ADMINI~1\AppData\Local\Temp\ccA9rFPz.s 			page 66


 2672 03a0 16       		.uleb128 0x16
 2673 03a1 AC000000 		.4byte	.LVL19
 2674 03a5 F60F0000 		.4byte	0xff6
 2675 03a9 C2030000 		.4byte	0x3c2
 2676 03ad 17       		.uleb128 0x17
 2677 03ae 01       		.uleb128 0x1
 2678 03af 52       		.byte	0x52
 2679 03b0 05       		.uleb128 0x5
 2680 03b1 03       		.byte	0x3
 2681 03b2 01000000 		.4byte	base_state+1
 2682 03b6 17       		.uleb128 0x17
 2683 03b7 01       		.uleb128 0x1
 2684 03b8 51       		.byte	0x51
 2685 03b9 02       		.uleb128 0x2
 2686 03ba 77       		.byte	0x77
 2687 03bb 00       		.sleb128 0
 2688 03bc 17       		.uleb128 0x17
 2689 03bd 01       		.uleb128 0x1
 2690 03be 50       		.byte	0x50
 2691 03bf 01       		.uleb128 0x1
 2692 03c0 36       		.byte	0x36
 2693 03c1 00       		.byte	0
 2694 03c2 18       		.uleb128 0x18
 2695 03c3 BA000000 		.4byte	.LVL22
 2696 03c7 20100000 		.4byte	0x1020
 2697 03cb 00       		.byte	0
 2698 03cc 19       		.uleb128 0x19
 2699 03cd 4D060000 		.4byte	.LASF131
 2700 03d1 01       		.byte	0x1
 2701 03d2 2A       		.byte	0x2a
 2702 03d3 00000000 		.4byte	.LFB1
 2703 03d7 14000000 		.4byte	.LFE1-.LFB1
 2704 03db 01       		.uleb128 0x1
 2705 03dc 9C       		.byte	0x9c
 2706 03dd F6030000 		.4byte	0x3f6
 2707 03e1 1A       		.uleb128 0x1a
 2708 03e2 0E000000 		.4byte	.LVL26
 2709 03e6 E5020000 		.4byte	0x2e5
 2710 03ea 17       		.uleb128 0x17
 2711 03eb 01       		.uleb128 0x1
 2712 03ec 51       		.byte	0x51
 2713 03ed 01       		.uleb128 0x1
 2714 03ee 31       		.byte	0x31
 2715 03ef 17       		.uleb128 0x17
 2716 03f0 01       		.uleb128 0x1
 2717 03f1 50       		.byte	0x50
 2718 03f2 01       		.uleb128 0x1
 2719 03f3 32       		.byte	0x32
 2720 03f4 00       		.byte	0
 2721 03f5 00       		.byte	0
 2722 03f6 1B       		.uleb128 0x1b
 2723 03f7 91050000 		.4byte	.LASF75
 2724 03fb 01       		.byte	0x1
 2725 03fc 78       		.byte	0x78
 2726 03fd A2000000 		.4byte	0xa2
 2727 0401 00000000 		.4byte	.LFB4
 2728 0405 0C000000 		.4byte	.LFE4-.LFB4
ARM GAS  C:\Users\ADMINI~1\AppData\Local\Temp\ccA9rFPz.s 			page 67


 2729 0409 01       		.uleb128 0x1
 2730 040a 9C       		.byte	0x9c
 2731 040b 12       		.uleb128 0x12
 2732 040c D4030000 		.4byte	.LASF65
 2733 0410 01       		.byte	0x1
 2734 0411 7F       		.byte	0x7f
 2735 0412 3B010000 		.4byte	0x13b
 2736 0416 00000000 		.4byte	.LFB5
 2737 041a 5C000000 		.4byte	.LFE5-.LFB5
 2738 041e 01       		.uleb128 0x1
 2739 041f 9C       		.byte	0x9c
 2740 0420 B2040000 		.4byte	0x4b2
 2741 0424 1C       		.uleb128 0x1c
 2742 0425 40040000 		.4byte	.LASF67
 2743 0429 01       		.byte	0x1
 2744 042a 81       		.byte	0x81
 2745 042b 45000000 		.4byte	0x45
 2746 042f 02       		.uleb128 0x2
 2747 0430 91       		.byte	0x91
 2748 0431 6F       		.sleb128 -17
 2749 0432 14       		.uleb128 0x14
 2750 0433 58020000 		.4byte	.LASF53
 2751 0437 01       		.byte	0x1
 2752 0438 82       		.byte	0x82
 2753 0439 3B010000 		.4byte	0x13b
 2754 043d A6010000 		.4byte	.LLST3
 2755 0441 16       		.uleb128 0x16
 2756 0442 0A000000 		.4byte	.LVL28
 2757 0446 E5020000 		.4byte	0x2e5
 2758 044a 59040000 		.4byte	0x459
 2759 044e 17       		.uleb128 0x17
 2760 044f 01       		.uleb128 0x1
 2761 0450 51       		.byte	0x51
 2762 0451 01       		.uleb128 0x1
 2763 0452 31       		.byte	0x31
 2764 0453 17       		.uleb128 0x17
 2765 0454 01       		.uleb128 0x1
 2766 0455 50       		.byte	0x50
 2767 0456 01       		.uleb128 0x1
 2768 0457 31       		.byte	0x31
 2769 0458 00       		.byte	0
 2770 0459 16       		.uleb128 0x16
 2771 045a 22000000 		.4byte	.LVL31
 2772 045e 31100000 		.4byte	0x1031
 2773 0462 6C040000 		.4byte	0x46c
 2774 0466 17       		.uleb128 0x17
 2775 0467 01       		.uleb128 0x1
 2776 0468 50       		.byte	0x50
 2777 0469 01       		.uleb128 0x1
 2778 046a 33       		.byte	0x33
 2779 046b 00       		.byte	0
 2780 046c 16       		.uleb128 0x16
 2781 046d 32000000 		.4byte	.LVL32
 2782 0471 4B100000 		.4byte	0x104b
 2783 0475 8A040000 		.4byte	0x48a
 2784 0479 17       		.uleb128 0x17
 2785 047a 01       		.uleb128 0x1
ARM GAS  C:\Users\ADMINI~1\AppData\Local\Temp\ccA9rFPz.s 			page 68


 2786 047b 52       		.byte	0x52
 2787 047c 02       		.uleb128 0x2
 2788 047d 7D       		.byte	0x7d
 2789 047e 07       		.sleb128 7
 2790 047f 17       		.uleb128 0x17
 2791 0480 01       		.uleb128 0x1
 2792 0481 51       		.byte	0x51
 2793 0482 01       		.uleb128 0x1
 2794 0483 31       		.byte	0x31
 2795 0484 17       		.uleb128 0x17
 2796 0485 01       		.uleb128 0x1
 2797 0486 50       		.byte	0x50
 2798 0487 01       		.uleb128 0x1
 2799 0488 37       		.byte	0x37
 2800 0489 00       		.byte	0
 2801 048a 16       		.uleb128 0x16
 2802 048b 48000000 		.4byte	.LVL34
 2803 048f 31100000 		.4byte	0x1031
 2804 0493 9D040000 		.4byte	0x49d
 2805 0497 17       		.uleb128 0x17
 2806 0498 01       		.uleb128 0x1
 2807 0499 50       		.byte	0x50
 2808 049a 01       		.uleb128 0x1
 2809 049b 33       		.byte	0x33
 2810 049c 00       		.byte	0
 2811 049d 1A       		.uleb128 0x1a
 2812 049e 52000000 		.4byte	.LVL36
 2813 04a2 E5020000 		.4byte	0x2e5
 2814 04a6 17       		.uleb128 0x17
 2815 04a7 01       		.uleb128 0x1
 2816 04a8 51       		.byte	0x51
 2817 04a9 01       		.uleb128 0x1
 2818 04aa 31       		.byte	0x31
 2819 04ab 17       		.uleb128 0x17
 2820 04ac 01       		.uleb128 0x1
 2821 04ad 50       		.byte	0x50
 2822 04ae 01       		.uleb128 0x1
 2823 04af 32       		.byte	0x32
 2824 04b0 00       		.byte	0
 2825 04b1 00       		.byte	0
 2826 04b2 12       		.uleb128 0x12
 2827 04b3 E8070000 		.4byte	.LASF68
 2828 04b7 01       		.byte	0x1
 2829 04b8 99       		.byte	0x99
 2830 04b9 3B010000 		.4byte	0x13b
 2831 04bd 00000000 		.4byte	.LFB6
 2832 04c1 20000000 		.4byte	.LFE6-.LFB6
 2833 04c5 01       		.uleb128 0x1
 2834 04c6 9C       		.byte	0x9c
 2835 04c7 1B050000 		.4byte	0x51b
 2836 04cb 14       		.uleb128 0x14
 2837 04cc 58020000 		.4byte	.LASF53
 2838 04d0 01       		.byte	0x1
 2839 04d1 9B       		.byte	0x9b
 2840 04d2 3B010000 		.4byte	0x13b
 2841 04d6 EB010000 		.4byte	.LLST4
 2842 04da 1C       		.uleb128 0x1c
ARM GAS  C:\Users\ADMINI~1\AppData\Local\Temp\ccA9rFPz.s 			page 69


 2843 04db 40040000 		.4byte	.LASF67
 2844 04df 01       		.byte	0x1
 2845 04e0 9C       		.byte	0x9c
 2846 04e1 45000000 		.4byte	0x45
 2847 04e5 02       		.uleb128 0x2
 2848 04e6 91       		.byte	0x91
 2849 04e7 77       		.sleb128 -9
 2850 04e8 16       		.uleb128 0x16
 2851 04e9 12000000 		.4byte	.LVL38
 2852 04ed 4B100000 		.4byte	0x104b
 2853 04f1 06050000 		.4byte	0x506
 2854 04f5 17       		.uleb128 0x17
 2855 04f6 01       		.uleb128 0x1
 2856 04f7 52       		.byte	0x52
 2857 04f8 02       		.uleb128 0x2
 2858 04f9 7D       		.byte	0x7d
 2859 04fa 07       		.sleb128 7
 2860 04fb 17       		.uleb128 0x17
 2861 04fc 01       		.uleb128 0x1
 2862 04fd 51       		.byte	0x51
 2863 04fe 01       		.uleb128 0x1
 2864 04ff 31       		.byte	0x31
 2865 0500 17       		.uleb128 0x17
 2866 0501 01       		.uleb128 0x1
 2867 0502 50       		.byte	0x50
 2868 0503 01       		.uleb128 0x1
 2869 0504 37       		.byte	0x37
 2870 0505 00       		.byte	0
 2871 0506 1A       		.uleb128 0x1a
 2872 0507 1C000000 		.4byte	.LVL41
 2873 050b E5020000 		.4byte	0x2e5
 2874 050f 17       		.uleb128 0x17
 2875 0510 01       		.uleb128 0x1
 2876 0511 51       		.byte	0x51
 2877 0512 01       		.uleb128 0x1
 2878 0513 30       		.byte	0x30
 2879 0514 17       		.uleb128 0x17
 2880 0515 01       		.uleb128 0x1
 2881 0516 50       		.byte	0x50
 2882 0517 01       		.uleb128 0x1
 2883 0518 31       		.byte	0x31
 2884 0519 00       		.byte	0
 2885 051a 00       		.byte	0
 2886 051b 12       		.uleb128 0x12
 2887 051c BF010000 		.4byte	.LASF69
 2888 0520 01       		.byte	0x1
 2889 0521 A6       		.byte	0xa6
 2890 0522 3B010000 		.4byte	0x13b
 2891 0526 00000000 		.4byte	.LFB7
 2892 052a 28000000 		.4byte	.LFE7-.LFB7
 2893 052e 01       		.uleb128 0x1
 2894 052f 9C       		.byte	0x9c
 2895 0530 8E050000 		.4byte	0x58e
 2896 0534 1C       		.uleb128 0x1c
 2897 0535 58020000 		.4byte	.LASF53
 2898 0539 01       		.byte	0x1
 2899 053a A8       		.byte	0xa8
ARM GAS  C:\Users\ADMINI~1\AppData\Local\Temp\ccA9rFPz.s 			page 70


 2900 053b 3B010000 		.4byte	0x13b
 2901 053f 01       		.uleb128 0x1
 2902 0540 50       		.byte	0x50
 2903 0541 1C       		.uleb128 0x1c
 2904 0542 3E010000 		.4byte	.LASF70
 2905 0546 01       		.byte	0x1
 2906 0547 A9       		.byte	0xa9
 2907 0548 8E050000 		.4byte	0x58e
 2908 054c 02       		.uleb128 0x2
 2909 054d 91       		.byte	0x91
 2910 054e 6C       		.sleb128 -20
 2911 054f 1C       		.uleb128 0x1c
 2912 0550 BE050000 		.4byte	.LASF71
 2913 0554 01       		.byte	0x1
 2914 0555 AA       		.byte	0xaa
 2915 0556 5E000000 		.4byte	0x5e
 2916 055a 02       		.uleb128 0x2
 2917 055b 91       		.byte	0x91
 2918 055c 6E       		.sleb128 -18
 2919 055d 16       		.uleb128 0x16
 2920 055e 12000000 		.4byte	.LVL43
 2921 0562 6A100000 		.4byte	0x106a
 2922 0566 71050000 		.4byte	0x571
 2923 056a 17       		.uleb128 0x17
 2924 056b 01       		.uleb128 0x1
 2925 056c 50       		.byte	0x50
 2926 056d 02       		.uleb128 0x2
 2927 056e 75       		.byte	0x75
 2928 056f 00       		.sleb128 0
 2929 0570 00       		.byte	0
 2930 0571 1A       		.uleb128 0x1a
 2931 0572 26000000 		.4byte	.LVL44
 2932 0576 4B100000 		.4byte	0x104b
 2933 057a 17       		.uleb128 0x17
 2934 057b 01       		.uleb128 0x1
 2935 057c 52       		.byte	0x52
 2936 057d 02       		.uleb128 0x2
 2937 057e 74       		.byte	0x74
 2938 057f 00       		.sleb128 0
 2939 0580 17       		.uleb128 0x17
 2940 0581 01       		.uleb128 0x1
 2941 0582 51       		.byte	0x51
 2942 0583 01       		.uleb128 0x1
 2943 0584 32       		.byte	0x32
 2944 0585 17       		.uleb128 0x17
 2945 0586 01       		.uleb128 0x1
 2946 0587 50       		.byte	0x50
 2947 0588 03       		.uleb128 0x3
 2948 0589 0A       		.byte	0xa
 2949 058a 5001     		.2byte	0x150
 2950 058c 00       		.byte	0
 2951 058d 00       		.byte	0
 2952 058e 1D       		.uleb128 0x1d
 2953 058f 45000000 		.4byte	0x45
 2954 0593 9E050000 		.4byte	0x59e
 2955 0597 1E       		.uleb128 0x1e
 2956 0598 8C000000 		.4byte	0x8c
ARM GAS  C:\Users\ADMINI~1\AppData\Local\Temp\ccA9rFPz.s 			page 71


 2957 059c 01       		.byte	0x1
 2958 059d 00       		.byte	0
 2959 059e 12       		.uleb128 0x12
 2960 059f 69060000 		.4byte	.LASF72
 2961 05a3 01       		.byte	0x1
 2962 05a4 BC       		.byte	0xbc
 2963 05a5 3B010000 		.4byte	0x13b
 2964 05a9 00000000 		.4byte	.LFB8
 2965 05ad 30000000 		.4byte	.LFE8-.LFB8
 2966 05b1 01       		.uleb128 0x1
 2967 05b2 9C       		.byte	0x9c
 2968 05b3 06060000 		.4byte	0x606
 2969 05b7 1F       		.uleb128 0x1f
 2970 05b8 7200     		.ascii	"r\000"
 2971 05ba 01       		.byte	0x1
 2972 05bb BE       		.byte	0xbe
 2973 05bc 3B010000 		.4byte	0x13b
 2974 05c0 24020000 		.4byte	.LLST5
 2975 05c4 1C       		.uleb128 0x1c
 2976 05c5 5E070000 		.4byte	.LASF73
 2977 05c9 01       		.byte	0x1
 2978 05ca BF       		.byte	0xbf
 2979 05cb A2000000 		.4byte	0xa2
 2980 05cf 05       		.uleb128 0x5
 2981 05d0 03       		.byte	0x3
 2982 05d1 00000000 		.4byte	lIsInited.5366
 2983 05d5 16       		.uleb128 0x16
 2984 05d6 16000000 		.4byte	.LVL46
 2985 05da 31100000 		.4byte	0x1031
 2986 05de EF050000 		.4byte	0x5ef
 2987 05e2 17       		.uleb128 0x17
 2988 05e3 01       		.uleb128 0x1
 2989 05e4 51       		.byte	0x51
 2990 05e5 01       		.uleb128 0x1
 2991 05e6 40       		.byte	0x40
 2992 05e7 17       		.uleb128 0x17
 2993 05e8 01       		.uleb128 0x1
 2994 05e9 50       		.byte	0x50
 2995 05ea 03       		.uleb128 0x3
 2996 05eb 0A       		.byte	0xa
 2997 05ec 8101     		.2byte	0x181
 2998 05ee 00       		.byte	0
 2999 05ef 1A       		.uleb128 0x1a
 3000 05f0 22000000 		.4byte	.LVL49
 3001 05f4 31100000 		.4byte	0x1031
 3002 05f8 17       		.uleb128 0x17
 3003 05f9 01       		.uleb128 0x1
 3004 05fa 51       		.byte	0x51
 3005 05fb 01       		.uleb128 0x1
 3006 05fc 34       		.byte	0x34
 3007 05fd 17       		.uleb128 0x17
 3008 05fe 01       		.uleb128 0x1
 3009 05ff 50       		.byte	0x50
 3010 0600 03       		.uleb128 0x3
 3011 0601 0A       		.byte	0xa
 3012 0602 8001     		.2byte	0x180
 3013 0604 00       		.byte	0
ARM GAS  C:\Users\ADMINI~1\AppData\Local\Temp\ccA9rFPz.s 			page 72


 3014 0605 00       		.byte	0
 3015 0606 20       		.uleb128 0x20
 3016 0607 6F020000 		.4byte	.LASF74
 3017 060b 01       		.byte	0x1
 3018 060c 9601     		.2byte	0x196
 3019 060e 3B010000 		.4byte	0x13b
 3020 0612 00000000 		.4byte	.LFB10
 3021 0616 1C000000 		.4byte	.LFE10-.LFB10
 3022 061a 01       		.uleb128 0x1
 3023 061b 9C       		.byte	0x9c
 3024 061c 4D060000 		.4byte	0x64d
 3025 0620 21       		.uleb128 0x21
 3026 0621 64697600 		.ascii	"div\000"
 3027 0625 01       		.byte	0x1
 3028 0626 9601     		.2byte	0x196
 3029 0628 45000000 		.4byte	0x45
 3030 062c 59020000 		.4byte	.LLST6
 3031 0630 1A       		.uleb128 0x1a
 3032 0631 16000000 		.4byte	.LVL54
 3033 0635 4B100000 		.4byte	0x104b
 3034 0639 17       		.uleb128 0x17
 3035 063a 01       		.uleb128 0x1
 3036 063b 52       		.byte	0x52
 3037 063c 02       		.uleb128 0x2
 3038 063d 7D       		.byte	0x7d
 3039 063e 07       		.sleb128 7
 3040 063f 17       		.uleb128 0x17
 3041 0640 01       		.uleb128 0x1
 3042 0641 51       		.byte	0x51
 3043 0642 01       		.uleb128 0x1
 3044 0643 31       		.byte	0x31
 3045 0644 17       		.uleb128 0x17
 3046 0645 01       		.uleb128 0x1
 3047 0646 50       		.byte	0x50
 3048 0647 03       		.uleb128 0x3
 3049 0648 0A       		.byte	0xa
 3050 0649 0001     		.2byte	0x100
 3051 064b 00       		.byte	0
 3052 064c 00       		.byte	0
 3053 064d 22       		.uleb128 0x22
 3054 064e E4030000 		.4byte	.LASF76
 3055 0652 01       		.byte	0x1
 3056 0653 9C01     		.2byte	0x19c
 3057 0655 45000000 		.4byte	0x45
 3058 0659 00000000 		.4byte	.LFB11
 3059 065d 0C000000 		.4byte	.LFE11-.LFB11
 3060 0661 01       		.uleb128 0x1
 3061 0662 9C       		.byte	0x9c
 3062 0663 20       		.uleb128 0x20
 3063 0664 B8060000 		.4byte	.LASF77
 3064 0668 01       		.byte	0x1
 3065 0669 A101     		.2byte	0x1a1
 3066 066b 3B010000 		.4byte	0x13b
 3067 066f 00000000 		.4byte	.LFB12
 3068 0673 1C000000 		.4byte	.LFE12-.LFB12
 3069 0677 01       		.uleb128 0x1
 3070 0678 9C       		.byte	0x9c
ARM GAS  C:\Users\ADMINI~1\AppData\Local\Temp\ccA9rFPz.s 			page 73


 3071 0679 9F060000 		.4byte	0x69f
 3072 067d 21       		.uleb128 0x21
 3073 067e 64697600 		.ascii	"div\000"
 3074 0682 01       		.byte	0x1
 3075 0683 A101     		.2byte	0x1a1
 3076 0685 45000000 		.4byte	0x45
 3077 0689 84020000 		.4byte	.LLST7
 3078 068d 1A       		.uleb128 0x1a
 3079 068e 14000000 		.4byte	.LVL57
 3080 0692 31100000 		.4byte	0x1031
 3081 0696 17       		.uleb128 0x17
 3082 0697 01       		.uleb128 0x1
 3083 0698 50       		.byte	0x50
 3084 0699 03       		.uleb128 0x3
 3085 069a 0A       		.byte	0xa
 3086 069b 8001     		.2byte	0x180
 3087 069d 00       		.byte	0
 3088 069e 00       		.byte	0
 3089 069f 23       		.uleb128 0x23
 3090 06a0 CF050000 		.4byte	.LASF79
 3091 06a4 01       		.byte	0x1
 3092 06a5 A801     		.2byte	0x1a8
 3093 06a7 5E000000 		.4byte	0x5e
 3094 06ab 00000000 		.4byte	.LFB13
 3095 06af 0C000000 		.4byte	.LFE13-.LFB13
 3096 06b3 01       		.uleb128 0x1
 3097 06b4 9C       		.byte	0x9c
 3098 06b5 20       		.uleb128 0x20
 3099 06b6 37060000 		.4byte	.LASF80
 3100 06ba 01       		.byte	0x1
 3101 06bb AD01     		.2byte	0x1ad
 3102 06bd 3B010000 		.4byte	0x13b
 3103 06c1 00000000 		.4byte	.LFB14
 3104 06c5 20000000 		.4byte	.LFE14-.LFB14
 3105 06c9 01       		.uleb128 0x1
 3106 06ca 9C       		.byte	0x9c
 3107 06cb 0B070000 		.4byte	0x70b
 3108 06cf 21       		.uleb128 0x21
 3109 06d0 64697600 		.ascii	"div\000"
 3110 06d4 01       		.byte	0x1
 3111 06d5 AD01     		.2byte	0x1ad
 3112 06d7 4C000000 		.4byte	0x4c
 3113 06db A5020000 		.4byte	.LLST8
 3114 06df 24       		.uleb128 0x24
 3115 06e0 40040000 		.4byte	.LASF67
 3116 06e4 01       		.byte	0x1
 3117 06e5 AF01     		.2byte	0x1af
 3118 06e7 8E050000 		.4byte	0x58e
 3119 06eb 02       		.uleb128 0x2
 3120 06ec 91       		.byte	0x91
 3121 06ed 74       		.sleb128 -12
 3122 06ee 1A       		.uleb128 0x1a
 3123 06ef 18000000 		.4byte	.LVL60
 3124 06f3 4B100000 		.4byte	0x104b
 3125 06f7 17       		.uleb128 0x17
 3126 06f8 01       		.uleb128 0x1
 3127 06f9 52       		.byte	0x52
ARM GAS  C:\Users\ADMINI~1\AppData\Local\Temp\ccA9rFPz.s 			page 74


 3128 06fa 02       		.uleb128 0x2
 3129 06fb 91       		.byte	0x91
 3130 06fc 74       		.sleb128 -12
 3131 06fd 17       		.uleb128 0x17
 3132 06fe 01       		.uleb128 0x1
 3133 06ff 51       		.byte	0x51
 3134 0700 01       		.uleb128 0x1
 3135 0701 32       		.byte	0x32
 3136 0702 17       		.uleb128 0x17
 3137 0703 01       		.uleb128 0x1
 3138 0704 50       		.byte	0x50
 3139 0705 03       		.uleb128 0x3
 3140 0706 0A       		.byte	0xa
 3141 0707 1001     		.2byte	0x110
 3142 0709 00       		.byte	0
 3143 070a 00       		.byte	0
 3144 070b 22       		.uleb128 0x22
 3145 070c D2060000 		.4byte	.LASF81
 3146 0710 01       		.byte	0x1
 3147 0711 B801     		.2byte	0x1b8
 3148 0713 4C000000 		.4byte	0x4c
 3149 0717 00000000 		.4byte	.LFB15
 3150 071b 0C000000 		.4byte	.LFE15-.LFB15
 3151 071f 01       		.uleb128 0x1
 3152 0720 9C       		.byte	0x9c
 3153 0721 25       		.uleb128 0x25
 3154 0722 C2040000 		.4byte	.LASF82
 3155 0726 01       		.byte	0x1
 3156 0727 C701     		.2byte	0x1c7
 3157 0729 B8000000 		.4byte	0xb8
 3158 072d 00000000 		.4byte	.LFB16
 3159 0731 98000000 		.4byte	.LFE16-.LFB16
 3160 0735 01       		.uleb128 0x1
 3161 0736 9C       		.byte	0x9c
 3162 0737 C6070000 		.4byte	0x7c6
 3163 073b 26       		.uleb128 0x26
 3164 073c D9000000 		.4byte	.LASF83
 3165 0740 01       		.byte	0x1
 3166 0741 C701     		.2byte	0x1c7
 3167 0743 5E000000 		.4byte	0x5e
 3168 0747 D5020000 		.4byte	.LLST9
 3169 074b 26       		.uleb128 0x26
 3170 074c B6030000 		.4byte	.LASF84
 3171 0750 01       		.byte	0x1
 3172 0751 C701     		.2byte	0x1c7
 3173 0753 45000000 		.4byte	0x45
 3174 0757 F6020000 		.4byte	.LLST10
 3175 075b 27       		.uleb128 0x27
 3176 075c 6F647200 		.ascii	"odr\000"
 3177 0760 01       		.byte	0x1
 3178 0761 C901     		.2byte	0x1c9
 3179 0763 B8000000 		.4byte	0xb8
 3180 0767 17030000 		.4byte	.LLST11
 3181 076b 27       		.uleb128 0x27
 3182 076c 557300   		.ascii	"Us\000"
 3183 076f 01       		.byte	0x1
 3184 0770 CA01     		.2byte	0x1ca
ARM GAS  C:\Users\ADMINI~1\AppData\Local\Temp\ccA9rFPz.s 			page 75


 3185 0772 B8000000 		.4byte	0xb8
 3186 0776 64030000 		.4byte	.LLST12
 3187 077a 27       		.uleb128 0x27
 3188 077b 504C4C00 		.ascii	"PLL\000"
 3189 077f 01       		.byte	0x1
 3190 0780 CB01     		.2byte	0x1cb
 3191 0782 45000000 		.4byte	0x45
 3192 0786 99030000 		.4byte	.LLST13
 3193 078a 28       		.uleb128 0x28
 3194 078b F1080000 		.4byte	.LASF85
 3195 078f 01       		.byte	0x1
 3196 0790 CB01     		.2byte	0x1cb
 3197 0792 45000000 		.4byte	0x45
 3198 0796 C8030000 		.4byte	.LLST14
 3199 079a 16       		.uleb128 0x16
 3200 079b 1A000000 		.4byte	.LVL64
 3201 079f 81100000 		.4byte	0x1081
 3202 07a3 BC070000 		.4byte	0x7bc
 3203 07a7 17       		.uleb128 0x17
 3204 07a8 01       		.uleb128 0x1
 3205 07a9 52       		.byte	0x52
 3206 07aa 05       		.uleb128 0x5
 3207 07ab 03       		.byte	0x3
 3208 07ac 10000000 		.4byte	base_state+16
 3209 07b0 17       		.uleb128 0x17
 3210 07b1 01       		.uleb128 0x1
 3211 07b2 51       		.byte	0x51
 3212 07b3 01       		.uleb128 0x1
 3213 07b4 31       		.byte	0x31
 3214 07b5 17       		.uleb128 0x17
 3215 07b6 01       		.uleb128 0x1
 3216 07b7 50       		.byte	0x50
 3217 07b8 02       		.uleb128 0x2
 3218 07b9 08       		.byte	0x8
 3219 07ba A8       		.byte	0xa8
 3220 07bb 00       		.byte	0
 3221 07bc 18       		.uleb128 0x18
 3222 07bd 20000000 		.4byte	.LVL66
 3223 07c1 A0100000 		.4byte	0x10a0
 3224 07c5 00       		.byte	0
 3225 07c6 25       		.uleb128 0x25
 3226 07c7 EE040000 		.4byte	.LASF86
 3227 07cb 01       		.byte	0x1
 3228 07cc FE01     		.2byte	0x1fe
 3229 07ce 3B010000 		.4byte	0x13b
 3230 07d2 00000000 		.4byte	.LFB17
 3231 07d6 AC000000 		.4byte	.LFE17-.LFB17
 3232 07da 01       		.uleb128 0x1
 3233 07db 9C       		.byte	0x9c
 3234 07dc A7080000 		.4byte	0x8a7
 3235 07e0 21       		.uleb128 0x21
 3236 07e1 64697600 		.ascii	"div\000"
 3237 07e5 01       		.byte	0x1
 3238 07e6 FE01     		.2byte	0x1fe
 3239 07e8 45000000 		.4byte	0x45
 3240 07ec E8030000 		.4byte	.LLST15
 3241 07f0 26       		.uleb128 0x26
ARM GAS  C:\Users\ADMINI~1\AppData\Local\Temp\ccA9rFPz.s 			page 76


 3242 07f1 92030000 		.4byte	.LASF87
 3243 07f5 01       		.byte	0x1
 3244 07f6 FE01     		.2byte	0x1fe
 3245 07f8 25000000 		.4byte	0x25
 3246 07fc 09040000 		.4byte	.LLST16
 3247 0800 28       		.uleb128 0x28
 3248 0801 2B070000 		.4byte	.LASF88
 3249 0805 01       		.byte	0x1
 3250 0806 0002     		.2byte	0x200
 3251 0808 65000000 		.4byte	0x65
 3252 080c 35040000 		.4byte	.LLST17
 3253 0810 24       		.uleb128 0x24
 3254 0811 7C050000 		.4byte	.LASF89
 3255 0815 01       		.byte	0x1
 3256 0816 0102     		.2byte	0x201
 3257 0818 65000000 		.4byte	0x65
 3258 081c 05       		.uleb128 0x5
 3259 081d 03       		.byte	0x3
 3260 081e 04000000 		.4byte	lLastGyroSf.5411
 3261 0822 28       		.uleb128 0x28
 3262 0823 58020000 		.4byte	.LASF53
 3263 0827 01       		.byte	0x1
 3264 0828 0202     		.2byte	0x202
 3265 082a 3B010000 		.4byte	0x13b
 3266 082e 48040000 		.4byte	.LLST18
 3267 0832 29       		.uleb128 0x29
 3268 0833 20000000 		.4byte	.LBB6
 3269 0837 56000000 		.4byte	.LBE6-.LBB6
 3270 083b 74080000 		.4byte	0x874
 3271 083f 2A       		.uleb128 0x2a
 3272 0840 32040000 		.4byte	.LASF90
 3273 0844 01       		.byte	0x1
 3274 0845 0802     		.2byte	0x208
 3275 0847 A7080000 		.4byte	0x8a7
 3276 084b AF756656 		.8byte	0xf083566675af
 3276      83F00000 
 3277 0853 2B       		.uleb128 0x2b
 3278 0854 D7080000 		.4byte	.LASF91
 3279 0858 01       		.byte	0x1
 3280 0859 0902     		.2byte	0x209
 3281 085b A7080000 		.4byte	0x8a7
 3282 085f A0860100 		.4byte	0x186a0
 3283 0863 28       		.uleb128 0x28
 3284 0864 2E060000 		.4byte	.LASF92
 3285 0868 01       		.byte	0x1
 3286 0869 0A02     		.2byte	0x20a
 3287 086b 85000000 		.4byte	0x85
 3288 086f 72040000 		.4byte	.LLST19
 3289 0873 00       		.byte	0
 3290 0874 16       		.uleb128 0x16
 3291 0875 1C000000 		.4byte	.LVL82
 3292 0879 81100000 		.4byte	0x1081
 3293 087d 96080000 		.4byte	0x896
 3294 0881 17       		.uleb128 0x17
 3295 0882 01       		.uleb128 0x1
 3296 0883 52       		.byte	0x52
 3297 0884 05       		.uleb128 0x5
ARM GAS  C:\Users\ADMINI~1\AppData\Local\Temp\ccA9rFPz.s 			page 77


 3298 0885 03       		.byte	0x3
 3299 0886 10000000 		.4byte	base_state+16
 3300 088a 17       		.uleb128 0x17
 3301 088b 01       		.uleb128 0x1
 3302 088c 51       		.byte	0x51
 3303 088d 01       		.uleb128 0x1
 3304 088e 31       		.byte	0x31
 3305 088f 17       		.uleb128 0x17
 3306 0890 01       		.uleb128 0x1
 3307 0891 50       		.byte	0x50
 3308 0892 02       		.uleb128 0x2
 3309 0893 08       		.byte	0x8
 3310 0894 A8       		.byte	0xa8
 3311 0895 00       		.byte	0
 3312 0896 1A       		.uleb128 0x1a
 3313 0897 84000000 		.4byte	.LVL92
 3314 089b AC100000 		.4byte	0x10ac
 3315 089f 17       		.uleb128 0x17
 3316 08a0 01       		.uleb128 0x1
 3317 08a1 50       		.byte	0x50
 3318 08a2 02       		.uleb128 0x2
 3319 08a3 74       		.byte	0x74
 3320 08a4 00       		.sleb128 0
 3321 08a5 00       		.byte	0
 3322 08a6 00       		.byte	0
 3323 08a7 2C       		.uleb128 0x2c
 3324 08a8 85000000 		.4byte	0x85
 3325 08ac 22       		.uleb128 0x22
 3326 08ad E8060000 		.4byte	.LASF93
 3327 08b1 01       		.byte	0x1
 3328 08b2 3602     		.2byte	0x236
 3329 08b4 A2000000 		.4byte	0xa2
 3330 08b8 00000000 		.4byte	.LFB19
 3331 08bc 0C000000 		.4byte	.LFE19-.LFB19
 3332 08c0 01       		.uleb128 0x1
 3333 08c1 9C       		.byte	0x9c
 3334 08c2 2D       		.uleb128 0x2d
 3335 08c3 38020000 		.4byte	0x238
 3336 08c7 00000000 		.4byte	.LFB20
 3337 08cb 9C000000 		.4byte	.LFE20-.LFB20
 3338 08cf 01       		.uleb128 0x1
 3339 08d0 9C       		.byte	0x9c
 3340 08d1 A7090000 		.4byte	0x9a7
 3341 08d5 2E       		.uleb128 0x2e
 3342 08d6 49020000 		.4byte	0x249
 3343 08da 8A040000 		.4byte	.LLST20
 3344 08de 2F       		.uleb128 0x2f
 3345 08df 55020000 		.4byte	0x255
 3346 08e3 00       		.byte	0
 3347 08e4 30       		.uleb128 0x30
 3348 08e5 61020000 		.4byte	0x261
 3349 08e9 30       		.uleb128 0x30
 3350 08ea 6D020000 		.4byte	0x26d
 3351 08ee 30       		.uleb128 0x30
 3352 08ef 79020000 		.4byte	0x279
 3353 08f3 31       		.uleb128 0x31
 3354 08f4 08000000 		.4byte	.LBB9
ARM GAS  C:\Users\ADMINI~1\AppData\Local\Temp\ccA9rFPz.s 			page 78


 3355 08f8 8C000000 		.4byte	.LBE9-.LBB9
 3356 08fc 2E       		.uleb128 0x2e
 3357 08fd 49020000 		.4byte	0x249
 3358 0901 B6040000 		.4byte	.LLST21
 3359 0905 31       		.uleb128 0x31
 3360 0906 08000000 		.4byte	.LBB10
 3361 090a 8C000000 		.4byte	.LBE10-.LBB10
 3362 090e 32       		.uleb128 0x32
 3363 090f 55020000 		.4byte	0x255
 3364 0913 E2040000 		.4byte	.LLST22
 3365 0917 33       		.uleb128 0x33
 3366 0918 61020000 		.4byte	0x261
 3367 091c 02       		.uleb128 0x2
 3368 091d 91       		.byte	0x91
 3369 091e 66       		.sleb128 -26
 3370 091f 33       		.uleb128 0x33
 3371 0920 6D020000 		.4byte	0x26d
 3372 0924 02       		.uleb128 0x2
 3373 0925 91       		.byte	0x91
 3374 0926 67       		.sleb128 -25
 3375 0927 32       		.uleb128 0x32
 3376 0928 79020000 		.4byte	0x279
 3377 092c 00050000 		.4byte	.LLST23
 3378 0930 16       		.uleb128 0x16
 3379 0931 1C000000 		.4byte	.LVL100
 3380 0935 81100000 		.4byte	0x1081
 3381 0939 51090000 		.4byte	0x951
 3382 093d 17       		.uleb128 0x17
 3383 093e 01       		.uleb128 0x1
 3384 093f 52       		.byte	0x52
 3385 0940 02       		.uleb128 0x2
 3386 0941 77       		.byte	0x77
 3387 0942 00       		.sleb128 0
 3388 0943 17       		.uleb128 0x17
 3389 0944 01       		.uleb128 0x1
 3390 0945 51       		.byte	0x51
 3391 0946 02       		.uleb128 0x2
 3392 0947 74       		.byte	0x74
 3393 0948 00       		.sleb128 0
 3394 0949 17       		.uleb128 0x17
 3395 094a 01       		.uleb128 0x1
 3396 094b 50       		.byte	0x50
 3397 094c 03       		.uleb128 0x3
 3398 094d 0A       		.byte	0xa
 3399 094e 0101     		.2byte	0x101
 3400 0950 00       		.byte	0
 3401 0951 16       		.uleb128 0x16
 3402 0952 38000000 		.4byte	.LVL104
 3403 0956 4B100000 		.4byte	0x104b
 3404 095a 72090000 		.4byte	0x972
 3405 095e 17       		.uleb128 0x17
 3406 095f 01       		.uleb128 0x1
 3407 0960 52       		.byte	0x52
 3408 0961 02       		.uleb128 0x2
 3409 0962 77       		.byte	0x77
 3410 0963 00       		.sleb128 0
 3411 0964 17       		.uleb128 0x17
ARM GAS  C:\Users\ADMINI~1\AppData\Local\Temp\ccA9rFPz.s 			page 79


 3412 0965 01       		.uleb128 0x1
 3413 0966 51       		.byte	0x51
 3414 0967 02       		.uleb128 0x2
 3415 0968 74       		.byte	0x74
 3416 0969 00       		.sleb128 0
 3417 096a 17       		.uleb128 0x17
 3418 096b 01       		.uleb128 0x1
 3419 096c 50       		.byte	0x50
 3420 096d 03       		.uleb128 0x3
 3421 096e 0A       		.byte	0xa
 3422 096f 0101     		.2byte	0x101
 3423 0971 00       		.byte	0
 3424 0972 16       		.uleb128 0x16
 3425 0973 4A000000 		.4byte	.LVL106
 3426 0977 81100000 		.4byte	0x1081
 3427 097b 93090000 		.4byte	0x993
 3428 097f 17       		.uleb128 0x17
 3429 0980 01       		.uleb128 0x1
 3430 0981 52       		.byte	0x52
 3431 0982 02       		.uleb128 0x2
 3432 0983 76       		.byte	0x76
 3433 0984 00       		.sleb128 0
 3434 0985 17       		.uleb128 0x17
 3435 0986 01       		.uleb128 0x1
 3436 0987 51       		.byte	0x51
 3437 0988 02       		.uleb128 0x2
 3438 0989 74       		.byte	0x74
 3439 098a 00       		.sleb128 0
 3440 098b 17       		.uleb128 0x17
 3441 098c 01       		.uleb128 0x1
 3442 098d 50       		.byte	0x50
 3443 098e 03       		.uleb128 0x3
 3444 098f 0A       		.byte	0xa
 3445 0990 0201     		.2byte	0x102
 3446 0992 00       		.byte	0
 3447 0993 1A       		.uleb128 0x1a
 3448 0994 92000000 		.4byte	.LVL109
 3449 0998 31100000 		.4byte	0x1031
 3450 099c 17       		.uleb128 0x17
 3451 099d 01       		.uleb128 0x1
 3452 099e 50       		.byte	0x50
 3453 099f 03       		.uleb128 0x3
 3454 09a0 0A       		.byte	0xa
 3455 09a1 0201     		.2byte	0x102
 3456 09a3 00       		.byte	0
 3457 09a4 00       		.byte	0
 3458 09a5 00       		.byte	0
 3459 09a6 00       		.byte	0
 3460 09a7 20       		.uleb128 0x20
 3461 09a8 54040000 		.4byte	.LASF94
 3462 09ac 01       		.byte	0x1
 3463 09ad 2C02     		.2byte	0x22c
 3464 09af 3B010000 		.4byte	0x13b
 3465 09b3 00000000 		.4byte	.LFB18
 3466 09b7 20000000 		.4byte	.LFE18-.LFB18
 3467 09bb 01       		.uleb128 0x1
 3468 09bc 9C       		.byte	0x9c
ARM GAS  C:\Users\ADMINI~1\AppData\Local\Temp\ccA9rFPz.s 			page 80


 3469 09bd 060A0000 		.4byte	0xa06
 3470 09c1 26       		.uleb128 0x26
 3471 09c2 50010000 		.4byte	.LASF59
 3472 09c6 01       		.byte	0x1
 3473 09c7 2C02     		.2byte	0x22c
 3474 09c9 25000000 		.4byte	0x25
 3475 09cd 13050000 		.4byte	.LLST24
 3476 09d1 28       		.uleb128 0x28
 3477 09d2 58020000 		.4byte	.LASF53
 3478 09d6 01       		.byte	0x1
 3479 09d7 2E02     		.2byte	0x22e
 3480 09d9 3B010000 		.4byte	0x13b
 3481 09dd 3F050000 		.4byte	.LLST25
 3482 09e1 16       		.uleb128 0x16
 3483 09e2 0C000000 		.4byte	.LVL112
 3484 09e6 38020000 		.4byte	0x238
 3485 09ea F5090000 		.4byte	0x9f5
 3486 09ee 17       		.uleb128 0x17
 3487 09ef 01       		.uleb128 0x1
 3488 09f0 50       		.byte	0x50
 3489 09f1 02       		.uleb128 0x2
 3490 09f2 75       		.byte	0x75
 3491 09f3 00       		.sleb128 0
 3492 09f4 00       		.byte	0
 3493 09f5 1A       		.uleb128 0x1a
 3494 09f6 16000000 		.4byte	.LVL115
 3495 09fa C6070000 		.4byte	0x7c6
 3496 09fe 17       		.uleb128 0x17
 3497 09ff 01       		.uleb128 0x1
 3498 0a00 51       		.byte	0x51
 3499 0a01 02       		.uleb128 0x2
 3500 0a02 75       		.byte	0x75
 3501 0a03 00       		.sleb128 0
 3502 0a04 00       		.byte	0
 3503 0a05 00       		.byte	0
 3504 0a06 22       		.uleb128 0x22
 3505 0a07 40020000 		.4byte	.LASF95
 3506 0a0b 01       		.byte	0x1
 3507 0a0c 7D02     		.2byte	0x27d
 3508 0a0e A2000000 		.4byte	0xa2
 3509 0a12 00000000 		.4byte	.LFB22
 3510 0a16 0C000000 		.4byte	.LFE22-.LFB22
 3511 0a1a 01       		.uleb128 0x1
 3512 0a1b 9C       		.byte	0x9c
 3513 0a1c 2D       		.uleb128 0x2d
 3514 0a1d 86020000 		.4byte	0x286
 3515 0a21 00000000 		.4byte	.LFB23
 3516 0a25 84000000 		.4byte	.LFE23-.LFB23
 3517 0a29 01       		.uleb128 0x1
 3518 0a2a 9C       		.byte	0x9c
 3519 0a2b F30A0000 		.4byte	0xaf3
 3520 0a2f 2E       		.uleb128 0x2e
 3521 0a30 97020000 		.4byte	0x297
 3522 0a34 78050000 		.4byte	.LLST26
 3523 0a38 2F       		.uleb128 0x2f
 3524 0a39 A3020000 		.4byte	0x2a3
 3525 0a3d 00       		.byte	0
ARM GAS  C:\Users\ADMINI~1\AppData\Local\Temp\ccA9rFPz.s 			page 81


 3526 0a3e 30       		.uleb128 0x30
 3527 0a3f AF020000 		.4byte	0x2af
 3528 0a43 30       		.uleb128 0x30
 3529 0a44 BB020000 		.4byte	0x2bb
 3530 0a48 30       		.uleb128 0x30
 3531 0a49 C7020000 		.4byte	0x2c7
 3532 0a4d 31       		.uleb128 0x31
 3533 0a4e 08000000 		.4byte	.LBB13
 3534 0a52 70000000 		.4byte	.LBE13-.LBB13
 3535 0a56 2E       		.uleb128 0x2e
 3536 0a57 97020000 		.4byte	0x297
 3537 0a5b A4050000 		.4byte	.LLST27
 3538 0a5f 31       		.uleb128 0x31
 3539 0a60 08000000 		.4byte	.LBB14
 3540 0a64 70000000 		.4byte	.LBE14-.LBB14
 3541 0a68 32       		.uleb128 0x32
 3542 0a69 A3020000 		.4byte	0x2a3
 3543 0a6d C2050000 		.4byte	.LLST28
 3544 0a71 33       		.uleb128 0x33
 3545 0a72 AF020000 		.4byte	0x2af
 3546 0a76 02       		.uleb128 0x2
 3547 0a77 91       		.byte	0x91
 3548 0a78 66       		.sleb128 -26
 3549 0a79 33       		.uleb128 0x33
 3550 0a7a BB020000 		.4byte	0x2bb
 3551 0a7e 02       		.uleb128 0x2
 3552 0a7f 91       		.byte	0x91
 3553 0a80 67       		.sleb128 -25
 3554 0a81 32       		.uleb128 0x32
 3555 0a82 C7020000 		.4byte	0x2c7
 3556 0a86 E0050000 		.4byte	.LLST29
 3557 0a8a 16       		.uleb128 0x16
 3558 0a8b 1A000000 		.4byte	.LVL121
 3559 0a8f 81100000 		.4byte	0x1081
 3560 0a93 AA0A0000 		.4byte	0xaaa
 3561 0a97 17       		.uleb128 0x17
 3562 0a98 01       		.uleb128 0x1
 3563 0a99 52       		.byte	0x52
 3564 0a9a 02       		.uleb128 0x2
 3565 0a9b 74       		.byte	0x74
 3566 0a9c 00       		.sleb128 0
 3567 0a9d 17       		.uleb128 0x17
 3568 0a9e 01       		.uleb128 0x1
 3569 0a9f 51       		.byte	0x51
 3570 0aa0 01       		.uleb128 0x1
 3571 0aa1 31       		.byte	0x31
 3572 0aa2 17       		.uleb128 0x17
 3573 0aa3 01       		.uleb128 0x1
 3574 0aa4 50       		.byte	0x50
 3575 0aa5 03       		.uleb128 0x3
 3576 0aa6 0A       		.byte	0xa
 3577 0aa7 1401     		.2byte	0x114
 3578 0aa9 00       		.byte	0
 3579 0aaa 16       		.uleb128 0x16
 3580 0aab 40000000 		.4byte	.LVL124
 3581 0aaf 31100000 		.4byte	0x1031
 3582 0ab3 BF0A0000 		.4byte	0xabf
ARM GAS  C:\Users\ADMINI~1\AppData\Local\Temp\ccA9rFPz.s 			page 82


 3583 0ab7 17       		.uleb128 0x17
 3584 0ab8 01       		.uleb128 0x1
 3585 0ab9 50       		.byte	0x50
 3586 0aba 03       		.uleb128 0x3
 3587 0abb 0A       		.byte	0xa
 3588 0abc 1401     		.2byte	0x114
 3589 0abe 00       		.byte	0
 3590 0abf 16       		.uleb128 0x16
 3591 0ac0 62000000 		.4byte	.LVL127
 3592 0ac4 81100000 		.4byte	0x1081
 3593 0ac8 DF0A0000 		.4byte	0xadf
 3594 0acc 17       		.uleb128 0x17
 3595 0acd 01       		.uleb128 0x1
 3596 0ace 52       		.byte	0x52
 3597 0acf 02       		.uleb128 0x2
 3598 0ad0 74       		.byte	0x74
 3599 0ad1 00       		.sleb128 0
 3600 0ad2 17       		.uleb128 0x17
 3601 0ad3 01       		.uleb128 0x1
 3602 0ad4 51       		.byte	0x51
 3603 0ad5 01       		.uleb128 0x1
 3604 0ad6 31       		.byte	0x31
 3605 0ad7 17       		.uleb128 0x17
 3606 0ad8 01       		.uleb128 0x1
 3607 0ad9 50       		.byte	0x50
 3608 0ada 03       		.uleb128 0x3
 3609 0adb 0A       		.byte	0xa
 3610 0adc 1501     		.2byte	0x115
 3611 0ade 00       		.byte	0
 3612 0adf 1A       		.uleb128 0x1a
 3613 0ae0 76000000 		.4byte	.LVL129
 3614 0ae4 31100000 		.4byte	0x1031
 3615 0ae8 17       		.uleb128 0x17
 3616 0ae9 01       		.uleb128 0x1
 3617 0aea 50       		.byte	0x50
 3618 0aeb 03       		.uleb128 0x3
 3619 0aec 0A       		.byte	0xa
 3620 0aed 1501     		.2byte	0x115
 3621 0aef 00       		.byte	0
 3622 0af0 00       		.byte	0
 3623 0af1 00       		.byte	0
 3624 0af2 00       		.byte	0
 3625 0af3 20       		.uleb128 0x20
 3626 0af4 97040000 		.4byte	.LASF96
 3627 0af8 01       		.byte	0x1
 3628 0af9 7202     		.2byte	0x272
 3629 0afb 3B010000 		.4byte	0x13b
 3630 0aff 00000000 		.4byte	.LFB21
 3631 0b03 2C000000 		.4byte	.LFE21-.LFB21
 3632 0b07 01       		.uleb128 0x1
 3633 0b08 9C       		.byte	0x9c
 3634 0b09 660B0000 		.4byte	0xb66
 3635 0b0d 26       		.uleb128 0x26
 3636 0b0e 50010000 		.4byte	.LASF59
 3637 0b12 01       		.byte	0x1
 3638 0b13 7202     		.2byte	0x272
 3639 0b15 25000000 		.4byte	0x25
ARM GAS  C:\Users\ADMINI~1\AppData\Local\Temp\ccA9rFPz.s 			page 83


 3640 0b19 F3050000 		.4byte	.LLST30
 3641 0b1d 28       		.uleb128 0x28
 3642 0b1e 58020000 		.4byte	.LASF53
 3643 0b22 01       		.byte	0x1
 3644 0b23 7402     		.2byte	0x274
 3645 0b25 3B010000 		.4byte	0x13b
 3646 0b29 1F060000 		.4byte	.LLST31
 3647 0b2d 16       		.uleb128 0x16
 3648 0b2e 0C000000 		.4byte	.LVL132
 3649 0b32 86020000 		.4byte	0x286
 3650 0b36 410B0000 		.4byte	0xb41
 3651 0b3a 17       		.uleb128 0x17
 3652 0b3b 01       		.uleb128 0x1
 3653 0b3c 50       		.byte	0x50
 3654 0b3d 02       		.uleb128 0x2
 3655 0b3e 74       		.byte	0x74
 3656 0b3f 00       		.sleb128 0
 3657 0b40 00       		.byte	0
 3658 0b41 16       		.uleb128 0x16
 3659 0b42 1A000000 		.4byte	.LVL136
 3660 0b46 C1100000 		.4byte	0x10c1
 3661 0b4a 550B0000 		.4byte	0xb55
 3662 0b4e 17       		.uleb128 0x17
 3663 0b4f 01       		.uleb128 0x1
 3664 0b50 50       		.byte	0x50
 3665 0b51 02       		.uleb128 0x2
 3666 0b52 74       		.byte	0x74
 3667 0b53 00       		.sleb128 0
 3668 0b54 00       		.byte	0
 3669 0b55 1A       		.uleb128 0x1a
 3670 0b56 22000000 		.4byte	.LVL138
 3671 0b5a D6100000 		.4byte	0x10d6
 3672 0b5e 17       		.uleb128 0x17
 3673 0b5f 01       		.uleb128 0x1
 3674 0b60 50       		.byte	0x50
 3675 0b61 02       		.uleb128 0x2
 3676 0b62 74       		.byte	0x74
 3677 0b63 00       		.sleb128 0
 3678 0b64 00       		.byte	0
 3679 0b65 00       		.byte	0
 3680 0b66 12       		.uleb128 0x12
 3681 0b67 8B080000 		.4byte	.LASF97
 3682 0b6b 01       		.byte	0x1
 3683 0b6c CF       		.byte	0xcf
 3684 0b6d 3B010000 		.4byte	0x13b
 3685 0b71 00000000 		.4byte	.LFB9
 3686 0b75 BC010000 		.4byte	.LFE9-.LFB9
 3687 0b79 01       		.uleb128 0x1
 3688 0b7a 9C       		.byte	0x9c
 3689 0b7b 550E0000 		.4byte	0xe55
 3690 0b7f 13       		.uleb128 0x13
 3691 0b80 0D070000 		.4byte	.LASF98
 3692 0b84 01       		.byte	0x1
 3693 0b85 CF       		.byte	0xcf
 3694 0b86 C3000000 		.4byte	0xc3
 3695 0b8a 58060000 		.4byte	.LLST32
 3696 0b8e 13       		.uleb128 0x13
ARM GAS  C:\Users\ADMINI~1\AppData\Local\Temp\ccA9rFPz.s 			page 84


 3697 0b8f 69010000 		.4byte	.LASF99
 3698 0b93 01       		.byte	0x1
 3699 0b94 CF       		.byte	0xcf
 3700 0b95 550E0000 		.4byte	0xe55
 3701 0b99 79060000 		.4byte	.LLST33
 3702 0b9d 14       		.uleb128 0x14
 3703 0b9e 58020000 		.4byte	.LASF53
 3704 0ba2 01       		.byte	0x1
 3705 0ba3 D1       		.byte	0xd1
 3706 0ba4 3B010000 		.4byte	0x13b
 3707 0ba8 A7060000 		.4byte	.LLST34
 3708 0bac 1C       		.uleb128 0x1c
 3709 0bad 40040000 		.4byte	.LASF67
 3710 0bb1 01       		.byte	0x1
 3711 0bb2 D2       		.byte	0xd2
 3712 0bb3 45000000 		.4byte	0x45
 3713 0bb7 05       		.uleb128 0x5
 3714 0bb8 03       		.byte	0x3
 3715 0bb9 08000000 		.4byte	data.5372
 3716 0bbd 1C       		.uleb128 0x1c
 3717 0bbe 07090000 		.4byte	.LASF100
 3718 0bc2 01       		.byte	0x1
 3719 0bc3 D3       		.byte	0xd3
 3720 0bc4 45000000 		.4byte	0x45
 3721 0bc8 02       		.uleb128 0x2
 3722 0bc9 91       		.byte	0x91
 3723 0bca 67       		.sleb128 -25
 3724 0bcb 16       		.uleb128 0x16
 3725 0bcc 1C000000 		.4byte	.LVL143
 3726 0bd0 EB100000 		.4byte	0x10eb
 3727 0bd4 EA0B0000 		.4byte	0xbea
 3728 0bd8 17       		.uleb128 0x17
 3729 0bd9 01       		.uleb128 0x1
 3730 0bda 52       		.byte	0x52
 3731 0bdb 01       		.uleb128 0x1
 3732 0bdc 42       		.byte	0x42
 3733 0bdd 17       		.uleb128 0x17
 3734 0bde 01       		.uleb128 0x1
 3735 0bdf 51       		.byte	0x51
 3736 0be0 02       		.uleb128 0x2
 3737 0be1 75       		.byte	0x75
 3738 0be2 00       		.sleb128 0
 3739 0be3 17       		.uleb128 0x17
 3740 0be4 01       		.uleb128 0x1
 3741 0be5 50       		.byte	0x50
 3742 0be6 02       		.uleb128 0x2
 3743 0be7 74       		.byte	0x74
 3744 0be8 00       		.sleb128 0
 3745 0be9 00       		.byte	0
 3746 0bea 16       		.uleb128 0x16
 3747 0beb 34000000 		.4byte	.LVL144
 3748 0bef 81100000 		.4byte	0x1081
 3749 0bf3 0A0C0000 		.4byte	0xc0a
 3750 0bf7 17       		.uleb128 0x17
 3751 0bf8 01       		.uleb128 0x1
 3752 0bf9 52       		.byte	0x52
 3753 0bfa 02       		.uleb128 0x2
ARM GAS  C:\Users\ADMINI~1\AppData\Local\Temp\ccA9rFPz.s 			page 85


 3754 0bfb 77       		.byte	0x77
 3755 0bfc 00       		.sleb128 0
 3756 0bfd 17       		.uleb128 0x17
 3757 0bfe 01       		.uleb128 0x1
 3758 0bff 51       		.byte	0x51
 3759 0c00 02       		.uleb128 0x2
 3760 0c01 76       		.byte	0x76
 3761 0c02 00       		.sleb128 0
 3762 0c03 17       		.uleb128 0x17
 3763 0c04 01       		.uleb128 0x1
 3764 0c05 50       		.byte	0x50
 3765 0c06 02       		.uleb128 0x2
 3766 0c07 75       		.byte	0x75
 3767 0c08 00       		.sleb128 0
 3768 0c09 00       		.byte	0
 3769 0c0a 16       		.uleb128 0x16
 3770 0c0b 40000000 		.4byte	.LVL147
 3771 0c0f 81100000 		.4byte	0x1081
 3772 0c13 2C0C0000 		.4byte	0xc2c
 3773 0c17 17       		.uleb128 0x17
 3774 0c18 01       		.uleb128 0x1
 3775 0c19 52       		.byte	0x52
 3776 0c1a 05       		.uleb128 0x5
 3777 0c1b 03       		.byte	0x3
 3778 0c1c 03000000 		.4byte	base_state+3
 3779 0c20 17       		.uleb128 0x17
 3780 0c21 01       		.uleb128 0x1
 3781 0c22 51       		.byte	0x51
 3782 0c23 02       		.uleb128 0x2
 3783 0c24 76       		.byte	0x76
 3784 0c25 00       		.sleb128 0
 3785 0c26 17       		.uleb128 0x17
 3786 0c27 01       		.uleb128 0x1
 3787 0c28 50       		.byte	0x50
 3788 0c29 01       		.uleb128 0x1
 3789 0c2a 33       		.byte	0x33
 3790 0c2b 00       		.byte	0
 3791 0c2c 18       		.uleb128 0x18
 3792 0c2d 46000000 		.4byte	.LVL149
 3793 0c31 0B040000 		.4byte	0x40b
 3794 0c35 16       		.uleb128 0x16
 3795 0c36 58000000 		.4byte	.LVL151
 3796 0c3a 4B100000 		.4byte	0x104b
 3797 0c3e 570C0000 		.4byte	0xc57
 3798 0c42 17       		.uleb128 0x17
 3799 0c43 01       		.uleb128 0x1
 3800 0c44 52       		.byte	0x52
 3801 0c45 05       		.uleb128 0x5
 3802 0c46 03       		.byte	0x3
 3803 0c47 08000000 		.4byte	.LANCHOR1+8
 3804 0c4b 17       		.uleb128 0x17
 3805 0c4c 01       		.uleb128 0x1
 3806 0c4d 51       		.byte	0x51
 3807 0c4e 02       		.uleb128 0x2
 3808 0c4f 76       		.byte	0x76
 3809 0c50 00       		.sleb128 0
 3810 0c51 17       		.uleb128 0x17
ARM GAS  C:\Users\ADMINI~1\AppData\Local\Temp\ccA9rFPz.s 			page 86


 3811 0c52 01       		.uleb128 0x1
 3812 0c53 50       		.byte	0x50
 3813 0c54 01       		.uleb128 0x1
 3814 0c55 35       		.byte	0x35
 3815 0c56 00       		.byte	0
 3816 0c57 16       		.uleb128 0x16
 3817 0c58 70000000 		.4byte	.LVL153
 3818 0c5c 31100000 		.4byte	0x1031
 3819 0c60 6A0C0000 		.4byte	0xc6a
 3820 0c64 17       		.uleb128 0x17
 3821 0c65 01       		.uleb128 0x1
 3822 0c66 50       		.byte	0x50
 3823 0c67 01       		.uleb128 0x1
 3824 0c68 33       		.byte	0x33
 3825 0c69 00       		.byte	0
 3826 0c6a 16       		.uleb128 0x16
 3827 0c6b 78000000 		.4byte	.LVL155
 3828 0c6f 08110000 		.4byte	0x1108
 3829 0c73 800C0000 		.4byte	0xc80
 3830 0c77 17       		.uleb128 0x17
 3831 0c78 01       		.uleb128 0x1
 3832 0c79 50       		.byte	0x50
 3833 0c7a 04       		.uleb128 0x4
 3834 0c7b 91       		.byte	0x91
 3835 0c7c B47F     		.sleb128 -76
 3836 0c7e 06       		.byte	0x6
 3837 0c7f 00       		.byte	0
 3838 0c80 18       		.uleb128 0x18
 3839 0c81 8E000000 		.4byte	.LVL157
 3840 0c85 1B050000 		.4byte	0x51b
 3841 0c89 18       		.uleb128 0x18
 3842 0c8a 94000000 		.4byte	.LVL159
 3843 0c8e 1D110000 		.4byte	0x111d
 3844 0c92 16       		.uleb128 0x16
 3845 0c93 9E000000 		.4byte	.LVL162
 3846 0c97 28110000 		.4byte	0x1128
 3847 0c9b A70C0000 		.4byte	0xca7
 3848 0c9f 17       		.uleb128 0x17
 3849 0ca0 01       		.uleb128 0x1
 3850 0ca1 50       		.byte	0x50
 3851 0ca2 03       		.uleb128 0x3
 3852 0ca3 0A       		.byte	0xa
 3853 0ca4 2003     		.2byte	0x320
 3854 0ca6 00       		.byte	0
 3855 0ca7 16       		.uleb128 0x16
 3856 0ca8 B4000000 		.4byte	.LVL165
 3857 0cac 4B100000 		.4byte	0x104b
 3858 0cb0 C60C0000 		.4byte	0xcc6
 3859 0cb4 17       		.uleb128 0x17
 3860 0cb5 01       		.uleb128 0x1
 3861 0cb6 52       		.byte	0x52
 3862 0cb7 02       		.uleb128 0x2
 3863 0cb8 76       		.byte	0x76
 3864 0cb9 00       		.sleb128 0
 3865 0cba 17       		.uleb128 0x17
 3866 0cbb 01       		.uleb128 0x1
 3867 0cbc 51       		.byte	0x51
ARM GAS  C:\Users\ADMINI~1\AppData\Local\Temp\ccA9rFPz.s 			page 87


 3868 0cbd 02       		.uleb128 0x2
 3869 0cbe 75       		.byte	0x75
 3870 0cbf 00       		.sleb128 0
 3871 0cc0 17       		.uleb128 0x17
 3872 0cc1 01       		.uleb128 0x1
 3873 0cc2 50       		.byte	0x50
 3874 0cc3 01       		.uleb128 0x1
 3875 0cc4 40       		.byte	0x40
 3876 0cc5 00       		.byte	0
 3877 0cc6 16       		.uleb128 0x16
 3878 0cc7 C4000000 		.4byte	.LVL168
 3879 0ccb 4B100000 		.4byte	0x104b
 3880 0ccf E50C0000 		.4byte	0xce5
 3881 0cd3 17       		.uleb128 0x17
 3882 0cd4 01       		.uleb128 0x1
 3883 0cd5 52       		.byte	0x52
 3884 0cd6 02       		.uleb128 0x2
 3885 0cd7 76       		.byte	0x76
 3886 0cd8 00       		.sleb128 0
 3887 0cd9 17       		.uleb128 0x17
 3888 0cda 01       		.uleb128 0x1
 3889 0cdb 51       		.byte	0x51
 3890 0cdc 02       		.uleb128 0x2
 3891 0cdd 75       		.byte	0x75
 3892 0cde 00       		.sleb128 0
 3893 0cdf 17       		.uleb128 0x17
 3894 0ce0 01       		.uleb128 0x1
 3895 0ce1 50       		.byte	0x50
 3896 0ce2 01       		.uleb128 0x1
 3897 0ce3 42       		.byte	0x42
 3898 0ce4 00       		.byte	0
 3899 0ce5 16       		.uleb128 0x16
 3900 0ce6 D6000000 		.4byte	.LVL171
 3901 0cea 4B100000 		.4byte	0x104b
 3902 0cee 050D0000 		.4byte	0xd05
 3903 0cf2 17       		.uleb128 0x17
 3904 0cf3 01       		.uleb128 0x1
 3905 0cf4 52       		.byte	0x52
 3906 0cf5 02       		.uleb128 0x2
 3907 0cf6 76       		.byte	0x76
 3908 0cf7 00       		.sleb128 0
 3909 0cf8 17       		.uleb128 0x17
 3910 0cf9 01       		.uleb128 0x1
 3911 0cfa 51       		.byte	0x51
 3912 0cfb 02       		.uleb128 0x2
 3913 0cfc 75       		.byte	0x75
 3914 0cfd 00       		.sleb128 0
 3915 0cfe 17       		.uleb128 0x17
 3916 0cff 01       		.uleb128 0x1
 3917 0d00 50       		.byte	0x50
 3918 0d01 02       		.uleb128 0x2
 3919 0d02 08       		.byte	0x8
 3920 0d03 26       		.byte	0x26
 3921 0d04 00       		.byte	0
 3922 0d05 16       		.uleb128 0x16
 3923 0d06 E2000000 		.4byte	.LVL174
 3924 0d0a 81100000 		.4byte	0x1081
ARM GAS  C:\Users\ADMINI~1\AppData\Local\Temp\ccA9rFPz.s 			page 88


 3925 0d0e 250D0000 		.4byte	0xd25
 3926 0d12 17       		.uleb128 0x17
 3927 0d13 01       		.uleb128 0x1
 3928 0d14 52       		.byte	0x52
 3929 0d15 02       		.uleb128 0x2
 3930 0d16 76       		.byte	0x76
 3931 0d17 00       		.sleb128 0
 3932 0d18 17       		.uleb128 0x17
 3933 0d19 01       		.uleb128 0x1
 3934 0d1a 51       		.byte	0x51
 3935 0d1b 02       		.uleb128 0x2
 3936 0d1c 75       		.byte	0x75
 3937 0d1d 00       		.sleb128 0
 3938 0d1e 17       		.uleb128 0x17
 3939 0d1f 01       		.uleb128 0x1
 3940 0d20 50       		.byte	0x50
 3941 0d21 02       		.uleb128 0x2
 3942 0d22 08       		.byte	0x8
 3943 0d23 75       		.byte	0x75
 3944 0d24 00       		.byte	0
 3945 0d25 16       		.uleb128 0x16
 3946 0d26 F8000000 		.4byte	.LVL175
 3947 0d2a 4B100000 		.4byte	0x104b
 3948 0d2e 450D0000 		.4byte	0xd45
 3949 0d32 17       		.uleb128 0x17
 3950 0d33 01       		.uleb128 0x1
 3951 0d34 52       		.byte	0x52
 3952 0d35 02       		.uleb128 0x2
 3953 0d36 76       		.byte	0x76
 3954 0d37 00       		.sleb128 0
 3955 0d38 17       		.uleb128 0x17
 3956 0d39 01       		.uleb128 0x1
 3957 0d3a 51       		.byte	0x51
 3958 0d3b 02       		.uleb128 0x2
 3959 0d3c 75       		.byte	0x75
 3960 0d3d 00       		.sleb128 0
 3961 0d3e 17       		.uleb128 0x17
 3962 0d3f 01       		.uleb128 0x1
 3963 0d40 50       		.byte	0x50
 3964 0d41 02       		.uleb128 0x2
 3965 0d42 08       		.byte	0x8
 3966 0d43 75       		.byte	0x75
 3967 0d44 00       		.byte	0
 3968 0d45 16       		.uleb128 0x16
 3969 0d46 02010000 		.4byte	.LVL176
 3970 0d4a 06060000 		.4byte	0x606
 3971 0d4e 580D0000 		.4byte	0xd58
 3972 0d52 17       		.uleb128 0x17
 3973 0d53 01       		.uleb128 0x1
 3974 0d54 50       		.byte	0x50
 3975 0d55 01       		.uleb128 0x1
 3976 0d56 3A       		.byte	0x3a
 3977 0d57 00       		.byte	0
 3978 0d58 16       		.uleb128 0x16
 3979 0d59 08010000 		.4byte	.LVL177
 3980 0d5d B5060000 		.4byte	0x6b5
 3981 0d61 6B0D0000 		.4byte	0xd6b
ARM GAS  C:\Users\ADMINI~1\AppData\Local\Temp\ccA9rFPz.s 			page 89


 3982 0d65 17       		.uleb128 0x17
 3983 0d66 01       		.uleb128 0x1
 3984 0d67 50       		.byte	0x50
 3985 0d68 01       		.uleb128 0x1
 3986 0d69 3A       		.byte	0x3a
 3987 0d6a 00       		.byte	0
 3988 0d6b 16       		.uleb128 0x16
 3989 0d6c 0E010000 		.4byte	.LVL178
 3990 0d70 A7090000 		.4byte	0x9a7
 3991 0d74 7E0D0000 		.4byte	0xd7e
 3992 0d78 17       		.uleb128 0x17
 3993 0d79 01       		.uleb128 0x1
 3994 0d7a 50       		.byte	0x50
 3995 0d7b 01       		.uleb128 0x1
 3996 0d7c 33       		.byte	0x33
 3997 0d7d 00       		.byte	0
 3998 0d7e 16       		.uleb128 0x16
 3999 0d7f 16010000 		.4byte	.LVL181
 4000 0d83 F30A0000 		.4byte	0xaf3
 4001 0d87 920D0000 		.4byte	0xd92
 4002 0d8b 17       		.uleb128 0x17
 4003 0d8c 01       		.uleb128 0x1
 4004 0d8d 50       		.byte	0x50
 4005 0d8e 02       		.uleb128 0x2
 4006 0d8f 77       		.byte	0x77
 4007 0d90 00       		.sleb128 0
 4008 0d91 00       		.byte	0
 4009 0d92 16       		.uleb128 0x16
 4010 0d93 20010000 		.4byte	.LVL184
 4011 0d97 31100000 		.4byte	0x1031
 4012 0d9b AC0D0000 		.4byte	0xdac
 4013 0d9f 17       		.uleb128 0x17
 4014 0da0 01       		.uleb128 0x1
 4015 0da1 51       		.byte	0x51
 4016 0da2 02       		.uleb128 0x2
 4017 0da3 77       		.byte	0x77
 4018 0da4 00       		.sleb128 0
 4019 0da5 17       		.uleb128 0x17
 4020 0da6 01       		.uleb128 0x1
 4021 0da7 50       		.byte	0x50
 4022 0da8 02       		.uleb128 0x2
 4023 0da9 08       		.byte	0x8
 4024 0daa 76       		.byte	0x76
 4025 0dab 00       		.byte	0
 4026 0dac 16       		.uleb128 0x16
 4027 0dad 2A010000 		.4byte	.LVL187
 4028 0db1 31100000 		.4byte	0x1031
 4029 0db5 C50D0000 		.4byte	0xdc5
 4030 0db9 17       		.uleb128 0x17
 4031 0dba 01       		.uleb128 0x1
 4032 0dbb 51       		.byte	0x51
 4033 0dbc 01       		.uleb128 0x1
 4034 0dbd 4F       		.byte	0x4f
 4035 0dbe 17       		.uleb128 0x17
 4036 0dbf 01       		.uleb128 0x1
 4037 0dc0 50       		.byte	0x50
 4038 0dc1 02       		.uleb128 0x2
ARM GAS  C:\Users\ADMINI~1\AppData\Local\Temp\ccA9rFPz.s 			page 90


 4039 0dc2 08       		.byte	0x8
 4040 0dc3 68       		.byte	0x68
 4041 0dc4 00       		.byte	0
 4042 0dc5 16       		.uleb128 0x16
 4043 0dc6 34010000 		.4byte	.LVL190
 4044 0dca 31100000 		.4byte	0x1031
 4045 0dce DE0D0000 		.4byte	0xdde
 4046 0dd2 17       		.uleb128 0x17
 4047 0dd3 01       		.uleb128 0x1
 4048 0dd4 51       		.byte	0x51
 4049 0dd5 01       		.uleb128 0x1
 4050 0dd6 4E       		.byte	0x4e
 4051 0dd7 17       		.uleb128 0x17
 4052 0dd8 01       		.uleb128 0x1
 4053 0dd9 50       		.byte	0x50
 4054 0dda 02       		.uleb128 0x2
 4055 0ddb 08       		.byte	0x8
 4056 0ddc 68       		.byte	0x68
 4057 0ddd 00       		.byte	0
 4058 0dde 16       		.uleb128 0x16
 4059 0ddf 3E010000 		.4byte	.LVL193
 4060 0de3 31100000 		.4byte	0x1031
 4061 0de7 F80D0000 		.4byte	0xdf8
 4062 0deb 17       		.uleb128 0x17
 4063 0dec 01       		.uleb128 0x1
 4064 0ded 51       		.byte	0x51
 4065 0dee 02       		.uleb128 0x2
 4066 0def 77       		.byte	0x77
 4067 0df0 00       		.sleb128 0
 4068 0df1 17       		.uleb128 0x17
 4069 0df2 01       		.uleb128 0x1
 4070 0df3 50       		.byte	0x50
 4071 0df4 02       		.uleb128 0x2
 4072 0df5 08       		.byte	0x8
 4073 0df6 66       		.byte	0x66
 4074 0df7 00       		.byte	0
 4075 0df8 16       		.uleb128 0x16
 4076 0df9 48010000 		.4byte	.LVL196
 4077 0dfd 31100000 		.4byte	0x1031
 4078 0e01 120E0000 		.4byte	0xe12
 4079 0e05 17       		.uleb128 0x17
 4080 0e06 01       		.uleb128 0x1
 4081 0e07 51       		.byte	0x51
 4082 0e08 02       		.uleb128 0x2
 4083 0e09 77       		.byte	0x77
 4084 0e0a 00       		.sleb128 0
 4085 0e0b 17       		.uleb128 0x17
 4086 0e0c 01       		.uleb128 0x1
 4087 0e0d 50       		.byte	0x50
 4088 0e0e 02       		.uleb128 0x2
 4089 0e0f 08       		.byte	0x8
 4090 0e10 67       		.byte	0x67
 4091 0e11 00       		.byte	0
 4092 0e12 16       		.uleb128 0x16
 4093 0e13 54010000 		.4byte	.LVL198
 4094 0e17 3D110000 		.4byte	0x113d
 4095 0e1b 320E0000 		.4byte	0xe32
ARM GAS  C:\Users\ADMINI~1\AppData\Local\Temp\ccA9rFPz.s 			page 91


 4096 0e1f 17       		.uleb128 0x17
 4097 0e20 01       		.uleb128 0x1
 4098 0e21 52       		.byte	0x52
 4099 0e22 02       		.uleb128 0x2
 4100 0e23 76       		.byte	0x76
 4101 0e24 00       		.sleb128 0
 4102 0e25 17       		.uleb128 0x17
 4103 0e26 01       		.uleb128 0x1
 4104 0e27 51       		.byte	0x51
 4105 0e28 02       		.uleb128 0x2
 4106 0e29 75       		.byte	0x75
 4107 0e2a 00       		.sleb128 0
 4108 0e2b 17       		.uleb128 0x17
 4109 0e2c 01       		.uleb128 0x1
 4110 0e2d 50       		.byte	0x50
 4111 0e2e 02       		.uleb128 0x2
 4112 0e2f 08       		.byte	0x8
 4113 0e30 86       		.byte	0x86
 4114 0e31 00       		.byte	0
 4115 0e32 16       		.uleb128 0x16
 4116 0e33 74010000 		.4byte	.LVL199
 4117 0e37 E5020000 		.4byte	0x2e5
 4118 0e3b 4B0E0000 		.4byte	0xe4b
 4119 0e3f 17       		.uleb128 0x17
 4120 0e40 01       		.uleb128 0x1
 4121 0e41 51       		.byte	0x51
 4122 0e42 02       		.uleb128 0x2
 4123 0e43 75       		.byte	0x75
 4124 0e44 00       		.sleb128 0
 4125 0e45 17       		.uleb128 0x17
 4126 0e46 01       		.uleb128 0x1
 4127 0e47 50       		.byte	0x50
 4128 0e48 01       		.uleb128 0x1
 4129 0e49 32       		.byte	0x32
 4130 0e4a 00       		.byte	0
 4131 0e4b 18       		.uleb128 0x18
 4132 0e4c 78010000 		.4byte	.LVL200
 4133 0e50 B2040000 		.4byte	0x4b2
 4134 0e54 00       		.byte	0
 4135 0e55 06       		.uleb128 0x6
 4136 0e56 04       		.byte	0x4
 4137 0e57 5B0E0000 		.4byte	0xe5b
 4138 0e5b 2C       		.uleb128 0x2c
 4139 0e5c 45000000 		.4byte	0x45
 4140 0e60 20       		.uleb128 0x20
 4141 0e61 D3010000 		.4byte	.LASF101
 4142 0e65 01       		.byte	0x1
 4143 0e66 B602     		.2byte	0x2b6
 4144 0e68 3B010000 		.4byte	0x13b
 4145 0e6c 00000000 		.4byte	.LFB24
 4146 0e70 54000000 		.4byte	.LFE24-.LFB24
 4147 0e74 01       		.uleb128 0x1
 4148 0e75 9C       		.byte	0x9c
 4149 0e76 B70E0000 		.4byte	0xeb7
 4150 0e7a 26       		.uleb128 0x26
 4151 0e7b 1B060000 		.4byte	.LASF102
 4152 0e7f 01       		.byte	0x1
ARM GAS  C:\Users\ADMINI~1\AppData\Local\Temp\ccA9rFPz.s 			page 92


 4153 0e80 B602     		.2byte	0x2b6
 4154 0e82 25000000 		.4byte	0x25
 4155 0e86 5A0A0000 		.4byte	.LLST35
 4156 0e8a 27       		.uleb128 0x27
 4157 0e8b 726300   		.ascii	"rc\000"
 4158 0e8e 01       		.byte	0x1
 4159 0e8f B802     		.2byte	0x2b8
 4160 0e91 3B010000 		.4byte	0x13b
 4161 0e95 860A0000 		.4byte	.LLST36
 4162 0e99 1A       		.uleb128 0x1a
 4163 0e9a 48000000 		.4byte	.LVL203
 4164 0e9e 4B100000 		.4byte	0x104b
 4165 0ea2 17       		.uleb128 0x17
 4166 0ea3 01       		.uleb128 0x1
 4167 0ea4 52       		.byte	0x52
 4168 0ea5 05       		.uleb128 0x5
 4169 0ea6 03       		.byte	0x3
 4170 0ea7 02000000 		.4byte	base_state+2
 4171 0eab 17       		.uleb128 0x17
 4172 0eac 01       		.uleb128 0x1
 4173 0ead 51       		.byte	0x51
 4174 0eae 01       		.uleb128 0x1
 4175 0eaf 31       		.byte	0x31
 4176 0eb0 17       		.uleb128 0x17
 4177 0eb1 01       		.uleb128 0x1
 4178 0eb2 50       		.byte	0x50
 4179 0eb3 01       		.uleb128 0x1
 4180 0eb4 37       		.byte	0x37
 4181 0eb5 00       		.byte	0
 4182 0eb6 00       		.byte	0
 4183 0eb7 20       		.uleb128 0x20
 4184 0eb8 C0030000 		.4byte	.LASF103
 4185 0ebc 01       		.byte	0x1
 4186 0ebd DC02     		.2byte	0x2dc
 4187 0ebf 3B010000 		.4byte	0x13b
 4188 0ec3 00000000 		.4byte	.LFB25
 4189 0ec7 0C000000 		.4byte	.LFE25-.LFB25
 4190 0ecb 01       		.uleb128 0x1
 4191 0ecc 9C       		.byte	0x9c
 4192 0ecd E20E0000 		.4byte	0xee2
 4193 0ed1 26       		.uleb128 0x26
 4194 0ed2 0D070000 		.4byte	.LASF98
 4195 0ed6 01       		.byte	0x1
 4196 0ed7 DC02     		.2byte	0x2dc
 4197 0ed9 C3000000 		.4byte	0xc3
 4198 0edd A50A0000 		.4byte	.LLST37
 4199 0ee1 00       		.byte	0
 4200 0ee2 20       		.uleb128 0x20
 4201 0ee3 D7040000 		.4byte	.LASF104
 4202 0ee7 01       		.byte	0x1
 4203 0ee8 E402     		.2byte	0x2e4
 4204 0eea 3B010000 		.4byte	0x13b
 4205 0eee 00000000 		.4byte	.LFB26
 4206 0ef2 30000000 		.4byte	.LFE26-.LFB26
 4207 0ef6 01       		.uleb128 0x1
 4208 0ef7 9C       		.byte	0x9c
 4209 0ef8 590F0000 		.4byte	0xf59
ARM GAS  C:\Users\ADMINI~1\AppData\Local\Temp\ccA9rFPz.s 			page 93


 4210 0efc 26       		.uleb128 0x26
 4211 0efd 6A030000 		.4byte	.LASF105
 4212 0f01 01       		.byte	0x1
 4213 0f02 E402     		.2byte	0x2e4
 4214 0f04 25000000 		.4byte	0x25
 4215 0f08 C70A0000 		.4byte	.LLST38
 4216 0f0c 28       		.uleb128 0x28
 4217 0f0d 58020000 		.4byte	.LASF53
 4218 0f11 01       		.byte	0x1
 4219 0f12 E602     		.2byte	0x2e6
 4220 0f14 3B010000 		.4byte	0x13b
 4221 0f18 F30A0000 		.4byte	.LLST39
 4222 0f1c 24       		.uleb128 0x24
 4223 0f1d CD020000 		.4byte	.LASF106
 4224 0f21 01       		.byte	0x1
 4225 0f22 E802     		.2byte	0x2e8
 4226 0f24 45000000 		.4byte	0x45
 4227 0f28 02       		.uleb128 0x2
 4228 0f29 91       		.byte	0x91
 4229 0f2a 6F       		.sleb128 -17
 4230 0f2b 16       		.uleb128 0x16
 4231 0f2c 12000000 		.4byte	.LVL209
 4232 0f30 81100000 		.4byte	0x1081
 4233 0f34 490F0000 		.4byte	0xf49
 4234 0f38 17       		.uleb128 0x17
 4235 0f39 01       		.uleb128 0x1
 4236 0f3a 52       		.byte	0x52
 4237 0f3b 02       		.uleb128 0x2
 4238 0f3c 74       		.byte	0x74
 4239 0f3d 00       		.sleb128 0
 4240 0f3e 17       		.uleb128 0x17
 4241 0f3f 01       		.uleb128 0x1
 4242 0f40 51       		.byte	0x51
 4243 0f41 01       		.uleb128 0x1
 4244 0f42 31       		.byte	0x31
 4245 0f43 17       		.uleb128 0x17
 4246 0f44 01       		.uleb128 0x1
 4247 0f45 50       		.byte	0x50
 4248 0f46 01       		.uleb128 0x1
 4249 0f47 40       		.byte	0x40
 4250 0f48 00       		.byte	0
 4251 0f49 1A       		.uleb128 0x1a
 4252 0f4a 2C000000 		.4byte	.LVL212
 4253 0f4e 31100000 		.4byte	0x1031
 4254 0f52 17       		.uleb128 0x17
 4255 0f53 01       		.uleb128 0x1
 4256 0f54 50       		.byte	0x50
 4257 0f55 01       		.uleb128 0x1
 4258 0f56 40       		.byte	0x40
 4259 0f57 00       		.byte	0
 4260 0f58 00       		.byte	0
 4261 0f59 20       		.uleb128 0x20
 4262 0f5a 53000000 		.4byte	.LASF107
 4263 0f5e 01       		.byte	0x1
 4264 0f5f 0803     		.2byte	0x308
 4265 0f61 3B010000 		.4byte	0x13b
 4266 0f65 00000000 		.4byte	.LFB27
ARM GAS  C:\Users\ADMINI~1\AppData\Local\Temp\ccA9rFPz.s 			page 94


 4267 0f69 3A000000 		.4byte	.LFE27-.LFB27
 4268 0f6d 01       		.uleb128 0x1
 4269 0f6e 9C       		.byte	0x9c
 4270 0f6f BE0F0000 		.4byte	0xfbe
 4271 0f73 26       		.uleb128 0x26
 4272 0f74 4C070000 		.4byte	.LASF108
 4273 0f78 01       		.byte	0x1
 4274 0f79 0803     		.2byte	0x308
 4275 0f7b BE0F0000 		.4byte	0xfbe
 4276 0f7f 380B0000 		.4byte	.LLST40
 4277 0f83 28       		.uleb128 0x28
 4278 0f84 58020000 		.4byte	.LASF53
 4279 0f88 01       		.byte	0x1
 4280 0f89 0A03     		.2byte	0x30a
 4281 0f8b 3B010000 		.4byte	0x13b
 4282 0f8f 640B0000 		.4byte	.LLST41
 4283 0f93 24       		.uleb128 0x24
 4284 0f94 E6000000 		.4byte	.LASF109
 4285 0f98 01       		.byte	0x1
 4286 0f99 0B03     		.2byte	0x30b
 4287 0f9b C40F0000 		.4byte	0xfc4
 4288 0f9f 02       		.uleb128 0x2
 4289 0fa0 91       		.byte	0x91
 4290 0fa1 70       		.sleb128 -16
 4291 0fa2 1A       		.uleb128 0x1a
 4292 0fa3 0E000000 		.4byte	.LVL217
 4293 0fa7 81100000 		.4byte	0x1081
 4294 0fab 17       		.uleb128 0x17
 4295 0fac 01       		.uleb128 0x1
 4296 0fad 52       		.byte	0x52
 4297 0fae 02       		.uleb128 0x2
 4298 0faf 7D       		.byte	0x7d
 4299 0fb0 00       		.sleb128 0
 4300 0fb1 17       		.uleb128 0x17
 4301 0fb2 01       		.uleb128 0x1
 4302 0fb3 51       		.byte	0x51
 4303 0fb4 01       		.uleb128 0x1
 4304 0fb5 36       		.byte	0x36
 4305 0fb6 17       		.uleb128 0x17
 4306 0fb7 01       		.uleb128 0x1
 4307 0fb8 50       		.byte	0x50
 4308 0fb9 02       		.uleb128 0x2
 4309 0fba 08       		.byte	0x8
 4310 0fbb 2D       		.byte	0x2d
 4311 0fbc 00       		.byte	0
 4312 0fbd 00       		.byte	0
 4313 0fbe 06       		.uleb128 0x6
 4314 0fbf 04       		.byte	0x4
 4315 0fc0 4C000000 		.4byte	0x4c
 4316 0fc4 1D       		.uleb128 0x1d
 4317 0fc5 A2000000 		.4byte	0xa2
 4318 0fc9 D40F0000 		.4byte	0xfd4
 4319 0fcd 1E       		.uleb128 0x1e
 4320 0fce 8C000000 		.4byte	0x8c
 4321 0fd2 05       		.byte	0x5
 4322 0fd3 00       		.byte	0
 4323 0fd4 1C       		.uleb128 0x1c
ARM GAS  C:\Users\ADMINI~1\AppData\Local\Temp\ccA9rFPz.s 			page 95


 4324 0fd5 2C020000 		.4byte	.LASF110
 4325 0fd9 01       		.byte	0x1
 4326 0fda 20       		.byte	0x20
 4327 0fdb A2000000 		.4byte	0xa2
 4328 0fdf 05       		.uleb128 0x5
 4329 0fe0 03       		.byte	0x3
 4330 0fe1 00000000 		.4byte	sAllowLpEn
 4331 0fe5 34       		.uleb128 0x34
 4332 0fe6 DD070000 		.4byte	.LASF132
 4333 0fea 01       		.byte	0x1
 4334 0feb 1F       		.byte	0x1f
 4335 0fec 46010000 		.4byte	0x146
 4336 0ff0 05       		.uleb128 0x5
 4337 0ff1 03       		.byte	0x3
 4338 0ff2 00000000 		.4byte	base_state
 4339 0ff6 35       		.uleb128 0x35
 4340 0ff7 33000000 		.4byte	.LASF111
 4341 0ffb 08       		.byte	0x8
 4342 0ffc 21       		.byte	0x21
 4343 0ffd 25000000 		.4byte	0x25
 4344 1001 15100000 		.4byte	0x1015
 4345 1005 36       		.uleb128 0x36
 4346 1006 AD000000 		.4byte	0xad
 4347 100a 36       		.uleb128 0x36
 4348 100b B8000000 		.4byte	0xb8
 4349 100f 36       		.uleb128 0x36
 4350 1010 15100000 		.4byte	0x1015
 4351 1014 00       		.byte	0
 4352 1015 06       		.uleb128 0x6
 4353 1016 04       		.byte	0x4
 4354 1017 1B100000 		.4byte	0x101b
 4355 101b 2C       		.uleb128 0x2c
 4356 101c A2000000 		.4byte	0xa2
 4357 1020 37       		.uleb128 0x37
 4358 1021 5F020000 		.4byte	.LASF114
 4359 1025 08       		.byte	0x8
 4360 1026 32       		.byte	0x32
 4361 1027 31100000 		.4byte	0x1031
 4362 102b 36       		.uleb128 0x36
 4363 102c 77000000 		.4byte	0x77
 4364 1030 00       		.byte	0
 4365 1031 35       		.uleb128 0x35
 4366 1032 68070000 		.4byte	.LASF112
 4367 1036 09       		.byte	0x9
 4368 1037 38       		.byte	0x38
 4369 1038 3B010000 		.4byte	0x13b
 4370 103c 4B100000 		.4byte	0x104b
 4371 1040 36       		.uleb128 0x36
 4372 1041 AD000000 		.4byte	0xad
 4373 1045 36       		.uleb128 0x36
 4374 1046 5B0E0000 		.4byte	0xe5b
 4375 104a 00       		.byte	0
 4376 104b 35       		.uleb128 0x35
 4377 104c 56010000 		.4byte	.LASF113
 4378 1050 09       		.byte	0x9
 4379 1051 31       		.byte	0x31
 4380 1052 3B010000 		.4byte	0x13b
ARM GAS  C:\Users\ADMINI~1\AppData\Local\Temp\ccA9rFPz.s 			page 96


 4381 1056 6A100000 		.4byte	0x106a
 4382 105a 36       		.uleb128 0x36
 4383 105b AD000000 		.4byte	0xad
 4384 105f 36       		.uleb128 0x36
 4385 1060 2C000000 		.4byte	0x2c
 4386 1064 36       		.uleb128 0x36
 4387 1065 550E0000 		.4byte	0xe55
 4388 1069 00       		.byte	0
 4389 106a 37       		.uleb128 0x37
 4390 106b EE010000 		.4byte	.LASF115
 4391 106f 0A       		.byte	0xa
 4392 1070 D9       		.byte	0xd9
 4393 1071 7B100000 		.4byte	0x107b
 4394 1075 36       		.uleb128 0x36
 4395 1076 7B100000 		.4byte	0x107b
 4396 107a 00       		.byte	0
 4397 107b 06       		.uleb128 0x6
 4398 107c 04       		.byte	0x4
 4399 107d 5E000000 		.4byte	0x5e
 4400 1081 35       		.uleb128 0x35
 4401 1082 92010000 		.4byte	.LASF116
 4402 1086 09       		.byte	0x9
 4403 1087 40       		.byte	0x40
 4404 1088 3B010000 		.4byte	0x13b
 4405 108c A0100000 		.4byte	0x10a0
 4406 1090 36       		.uleb128 0x36
 4407 1091 AD000000 		.4byte	0xad
 4408 1095 36       		.uleb128 0x36
 4409 1096 2C000000 		.4byte	0x2c
 4410 109a 36       		.uleb128 0x36
 4411 109b 95000000 		.4byte	0x95
 4412 109f 00       		.byte	0
 4413 10a0 38       		.uleb128 0x38
 4414 10a1 2A010000 		.4byte	.LASF122
 4415 10a5 01       		.byte	0x1
 4416 10a6 C001     		.2byte	0x1c0
 4417 10a8 45000000 		.4byte	0x45
 4418 10ac 35       		.uleb128 0x35
 4419 10ad 06080000 		.4byte	.LASF117
 4420 10b1 0A       		.byte	0xa
 4421 10b2 7F       		.byte	0x7f
 4422 10b3 3B010000 		.4byte	0x13b
 4423 10b7 C1100000 		.4byte	0x10c1
 4424 10bb 36       		.uleb128 0x36
 4425 10bc 65000000 		.4byte	0x65
 4426 10c0 00       		.byte	0
 4427 10c1 35       		.uleb128 0x35
 4428 10c2 28050000 		.4byte	.LASF118
 4429 10c6 0A       		.byte	0xa
 4430 10c7 DF       		.byte	0xdf
 4431 10c8 3B010000 		.4byte	0x13b
 4432 10cc D6100000 		.4byte	0x10d6
 4433 10d0 36       		.uleb128 0x36
 4434 10d1 4C000000 		.4byte	0x4c
 4435 10d5 00       		.byte	0
 4436 10d6 35       		.uleb128 0x35
 4437 10d7 08020000 		.4byte	.LASF119
ARM GAS  C:\Users\ADMINI~1\AppData\Local\Temp\ccA9rFPz.s 			page 97


 4438 10db 0A       		.byte	0xa
 4439 10dc E5       		.byte	0xe5
 4440 10dd 3B010000 		.4byte	0x13b
 4441 10e1 EB100000 		.4byte	0x10eb
 4442 10e5 36       		.uleb128 0x36
 4443 10e6 4C000000 		.4byte	0x4c
 4444 10ea 00       		.byte	0
 4445 10eb 39       		.uleb128 0x39
 4446 10ec BB040000 		.4byte	.LASF120
 4447 10f0 93000000 		.4byte	0x93
 4448 10f4 08110000 		.4byte	0x1108
 4449 10f8 36       		.uleb128 0x36
 4450 10f9 93000000 		.4byte	0x93
 4451 10fd 36       		.uleb128 0x36
 4452 10fe 25000000 		.4byte	0x25
 4453 1102 36       		.uleb128 0x36
 4454 1103 8C000000 		.4byte	0x8c
 4455 1107 00       		.byte	0
 4456 1108 35       		.uleb128 0x35
 4457 1109 F9030000 		.4byte	.LASF121
 4458 110d 0A       		.byte	0xa
 4459 110e D4       		.byte	0xd4
 4460 110f 3B010000 		.4byte	0x13b
 4461 1113 1D110000 		.4byte	0x111d
 4462 1117 36       		.uleb128 0x36
 4463 1118 550E0000 		.4byte	0xe55
 4464 111c 00       		.byte	0
 4465 111d 3A       		.uleb128 0x3a
 4466 111e 00000000 		.4byte	.LASF123
 4467 1122 0A       		.byte	0xa
 4468 1123 1F       		.byte	0x1f
 4469 1124 3B010000 		.4byte	0x13b
 4470 1128 35       		.uleb128 0x35
 4471 1129 11050000 		.4byte	.LASF124
 4472 112d 0A       		.byte	0xa
 4473 112e 3B       		.byte	0x3b
 4474 112f 3B010000 		.4byte	0x13b
 4475 1133 3D110000 		.4byte	0x113d
 4476 1137 36       		.uleb128 0x36
 4477 1138 5E000000 		.4byte	0x5e
 4478 113c 00       		.byte	0
 4479 113d 3B       		.uleb128 0x3b
 4480 113e 16080000 		.4byte	.LASF125
 4481 1142 09       		.byte	0x9
 4482 1143 28       		.byte	0x28
 4483 1144 3B010000 		.4byte	0x13b
 4484 1148 36       		.uleb128 0x36
 4485 1149 5E000000 		.4byte	0x5e
 4486 114d 36       		.uleb128 0x36
 4487 114e 2C000000 		.4byte	0x2c
 4488 1152 36       		.uleb128 0x36
 4489 1153 95000000 		.4byte	0x95
 4490 1157 00       		.byte	0
 4491 1158 00       		.byte	0
 4492              		.section	.debug_abbrev,"",%progbits
 4493              	.Ldebug_abbrev0:
 4494 0000 01       		.uleb128 0x1
ARM GAS  C:\Users\ADMINI~1\AppData\Local\Temp\ccA9rFPz.s 			page 98


 4495 0001 11       		.uleb128 0x11
 4496 0002 01       		.byte	0x1
 4497 0003 25       		.uleb128 0x25
 4498 0004 0E       		.uleb128 0xe
 4499 0005 13       		.uleb128 0x13
 4500 0006 0B       		.uleb128 0xb
 4501 0007 03       		.uleb128 0x3
 4502 0008 0E       		.uleb128 0xe
 4503 0009 1B       		.uleb128 0x1b
 4504 000a 0E       		.uleb128 0xe
 4505 000b 55       		.uleb128 0x55
 4506 000c 17       		.uleb128 0x17
 4507 000d 11       		.uleb128 0x11
 4508 000e 01       		.uleb128 0x1
 4509 000f 10       		.uleb128 0x10
 4510 0010 17       		.uleb128 0x17
 4511 0011 00       		.byte	0
 4512 0012 00       		.byte	0
 4513 0013 02       		.uleb128 0x2
 4514 0014 24       		.uleb128 0x24
 4515 0015 00       		.byte	0
 4516 0016 0B       		.uleb128 0xb
 4517 0017 0B       		.uleb128 0xb
 4518 0018 3E       		.uleb128 0x3e
 4519 0019 0B       		.uleb128 0xb
 4520 001a 03       		.uleb128 0x3
 4521 001b 08       		.uleb128 0x8
 4522 001c 00       		.byte	0
 4523 001d 00       		.byte	0
 4524 001e 03       		.uleb128 0x3
 4525 001f 24       		.uleb128 0x24
 4526 0020 00       		.byte	0
 4527 0021 0B       		.uleb128 0xb
 4528 0022 0B       		.uleb128 0xb
 4529 0023 3E       		.uleb128 0x3e
 4530 0024 0B       		.uleb128 0xb
 4531 0025 03       		.uleb128 0x3
 4532 0026 0E       		.uleb128 0xe
 4533 0027 00       		.byte	0
 4534 0028 00       		.byte	0
 4535 0029 04       		.uleb128 0x4
 4536 002a 16       		.uleb128 0x16
 4537 002b 00       		.byte	0
 4538 002c 03       		.uleb128 0x3
 4539 002d 0E       		.uleb128 0xe
 4540 002e 3A       		.uleb128 0x3a
 4541 002f 0B       		.uleb128 0xb
 4542 0030 3B       		.uleb128 0x3b
 4543 0031 0B       		.uleb128 0xb
 4544 0032 49       		.uleb128 0x49
 4545 0033 13       		.uleb128 0x13
 4546 0034 00       		.byte	0
 4547 0035 00       		.byte	0
 4548 0036 05       		.uleb128 0x5
 4549 0037 0F       		.uleb128 0xf
 4550 0038 00       		.byte	0
 4551 0039 0B       		.uleb128 0xb
ARM GAS  C:\Users\ADMINI~1\AppData\Local\Temp\ccA9rFPz.s 			page 99


 4552 003a 0B       		.uleb128 0xb
 4553 003b 00       		.byte	0
 4554 003c 00       		.byte	0
 4555 003d 06       		.uleb128 0x6
 4556 003e 0F       		.uleb128 0xf
 4557 003f 00       		.byte	0
 4558 0040 0B       		.uleb128 0xb
 4559 0041 0B       		.uleb128 0xb
 4560 0042 49       		.uleb128 0x49
 4561 0043 13       		.uleb128 0x13
 4562 0044 00       		.byte	0
 4563 0045 00       		.byte	0
 4564 0046 07       		.uleb128 0x7
 4565 0047 04       		.uleb128 0x4
 4566 0048 01       		.byte	0x1
 4567 0049 03       		.uleb128 0x3
 4568 004a 0E       		.uleb128 0xe
 4569 004b 0B       		.uleb128 0xb
 4570 004c 0B       		.uleb128 0xb
 4571 004d 3A       		.uleb128 0x3a
 4572 004e 0B       		.uleb128 0xb
 4573 004f 3B       		.uleb128 0x3b
 4574 0050 05       		.uleb128 0x5
 4575 0051 01       		.uleb128 0x1
 4576 0052 13       		.uleb128 0x13
 4577 0053 00       		.byte	0
 4578 0054 00       		.byte	0
 4579 0055 08       		.uleb128 0x8
 4580 0056 28       		.uleb128 0x28
 4581 0057 00       		.byte	0
 4582 0058 03       		.uleb128 0x3
 4583 0059 0E       		.uleb128 0xe
 4584 005a 1C       		.uleb128 0x1c
 4585 005b 0D       		.uleb128 0xd
 4586 005c 00       		.byte	0
 4587 005d 00       		.byte	0
 4588 005e 09       		.uleb128 0x9
 4589 005f 13       		.uleb128 0x13
 4590 0060 01       		.byte	0x1
 4591 0061 03       		.uleb128 0x3
 4592 0062 0E       		.uleb128 0xe
 4593 0063 0B       		.uleb128 0xb
 4594 0064 0B       		.uleb128 0xb
 4595 0065 3A       		.uleb128 0x3a
 4596 0066 0B       		.uleb128 0xb
 4597 0067 3B       		.uleb128 0x3b
 4598 0068 0B       		.uleb128 0xb
 4599 0069 01       		.uleb128 0x1
 4600 006a 13       		.uleb128 0x13
 4601 006b 00       		.byte	0
 4602 006c 00       		.byte	0
 4603 006d 0A       		.uleb128 0xa
 4604 006e 0D       		.uleb128 0xd
 4605 006f 00       		.byte	0
 4606 0070 03       		.uleb128 0x3
 4607 0071 0E       		.uleb128 0xe
 4608 0072 3A       		.uleb128 0x3a
ARM GAS  C:\Users\ADMINI~1\AppData\Local\Temp\ccA9rFPz.s 			page 100


 4609 0073 0B       		.uleb128 0xb
 4610 0074 3B       		.uleb128 0x3b
 4611 0075 0B       		.uleb128 0xb
 4612 0076 49       		.uleb128 0x49
 4613 0077 13       		.uleb128 0x13
 4614 0078 38       		.uleb128 0x38
 4615 0079 0B       		.uleb128 0xb
 4616 007a 00       		.byte	0
 4617 007b 00       		.byte	0
 4618 007c 0B       		.uleb128 0xb
 4619 007d 0D       		.uleb128 0xd
 4620 007e 00       		.byte	0
 4621 007f 03       		.uleb128 0x3
 4622 0080 0E       		.uleb128 0xe
 4623 0081 3A       		.uleb128 0x3a
 4624 0082 0B       		.uleb128 0xb
 4625 0083 3B       		.uleb128 0x3b
 4626 0084 0B       		.uleb128 0xb
 4627 0085 49       		.uleb128 0x49
 4628 0086 13       		.uleb128 0x13
 4629 0087 0B       		.uleb128 0xb
 4630 0088 0B       		.uleb128 0xb
 4631 0089 0D       		.uleb128 0xd
 4632 008a 0B       		.uleb128 0xb
 4633 008b 0C       		.uleb128 0xc
 4634 008c 0B       		.uleb128 0xb
 4635 008d 38       		.uleb128 0x38
 4636 008e 0B       		.uleb128 0xb
 4637 008f 00       		.byte	0
 4638 0090 00       		.byte	0
 4639 0091 0C       		.uleb128 0xc
 4640 0092 04       		.uleb128 0x4
 4641 0093 01       		.byte	0x1
 4642 0094 03       		.uleb128 0x3
 4643 0095 0E       		.uleb128 0xe
 4644 0096 0B       		.uleb128 0xb
 4645 0097 0B       		.uleb128 0xb
 4646 0098 3A       		.uleb128 0x3a
 4647 0099 0B       		.uleb128 0xb
 4648 009a 3B       		.uleb128 0x3b
 4649 009b 0B       		.uleb128 0xb
 4650 009c 01       		.uleb128 0x1
 4651 009d 13       		.uleb128 0x13
 4652 009e 00       		.byte	0
 4653 009f 00       		.byte	0
 4654 00a0 0D       		.uleb128 0xd
 4655 00a1 2E       		.uleb128 0x2e
 4656 00a2 00       		.byte	0
 4657 00a3 03       		.uleb128 0x3
 4658 00a4 0E       		.uleb128 0xe
 4659 00a5 3A       		.uleb128 0x3a
 4660 00a6 0B       		.uleb128 0xb
 4661 00a7 3B       		.uleb128 0x3b
 4662 00a8 0B       		.uleb128 0xb
 4663 00a9 27       		.uleb128 0x27
 4664 00aa 19       		.uleb128 0x19
 4665 00ab 49       		.uleb128 0x49
ARM GAS  C:\Users\ADMINI~1\AppData\Local\Temp\ccA9rFPz.s 			page 101


 4666 00ac 13       		.uleb128 0x13
 4667 00ad 20       		.uleb128 0x20
 4668 00ae 0B       		.uleb128 0xb
 4669 00af 00       		.byte	0
 4670 00b0 00       		.byte	0
 4671 00b1 0E       		.uleb128 0xe
 4672 00b2 2E       		.uleb128 0x2e
 4673 00b3 01       		.byte	0x1
 4674 00b4 3F       		.uleb128 0x3f
 4675 00b5 19       		.uleb128 0x19
 4676 00b6 03       		.uleb128 0x3
 4677 00b7 0E       		.uleb128 0xe
 4678 00b8 3A       		.uleb128 0x3a
 4679 00b9 0B       		.uleb128 0xb
 4680 00ba 3B       		.uleb128 0x3b
 4681 00bb 05       		.uleb128 0x5
 4682 00bc 27       		.uleb128 0x27
 4683 00bd 19       		.uleb128 0x19
 4684 00be 49       		.uleb128 0x49
 4685 00bf 13       		.uleb128 0x13
 4686 00c0 20       		.uleb128 0x20
 4687 00c1 0B       		.uleb128 0xb
 4688 00c2 01       		.uleb128 0x1
 4689 00c3 13       		.uleb128 0x13
 4690 00c4 00       		.byte	0
 4691 00c5 00       		.byte	0
 4692 00c6 0F       		.uleb128 0xf
 4693 00c7 05       		.uleb128 0x5
 4694 00c8 00       		.byte	0
 4695 00c9 03       		.uleb128 0x3
 4696 00ca 0E       		.uleb128 0xe
 4697 00cb 3A       		.uleb128 0x3a
 4698 00cc 0B       		.uleb128 0xb
 4699 00cd 3B       		.uleb128 0x3b
 4700 00ce 05       		.uleb128 0x5
 4701 00cf 49       		.uleb128 0x49
 4702 00d0 13       		.uleb128 0x13
 4703 00d1 00       		.byte	0
 4704 00d2 00       		.byte	0
 4705 00d3 10       		.uleb128 0x10
 4706 00d4 34       		.uleb128 0x34
 4707 00d5 00       		.byte	0
 4708 00d6 03       		.uleb128 0x3
 4709 00d7 0E       		.uleb128 0xe
 4710 00d8 3A       		.uleb128 0x3a
 4711 00d9 0B       		.uleb128 0xb
 4712 00da 3B       		.uleb128 0x3b
 4713 00db 05       		.uleb128 0x5
 4714 00dc 49       		.uleb128 0x49
 4715 00dd 13       		.uleb128 0x13
 4716 00de 00       		.byte	0
 4717 00df 00       		.byte	0
 4718 00e0 11       		.uleb128 0x11
 4719 00e1 2E       		.uleb128 0x2e
 4720 00e2 00       		.byte	0
 4721 00e3 3F       		.uleb128 0x3f
 4722 00e4 19       		.uleb128 0x19
ARM GAS  C:\Users\ADMINI~1\AppData\Local\Temp\ccA9rFPz.s 			page 102


 4723 00e5 03       		.uleb128 0x3
 4724 00e6 0E       		.uleb128 0xe
 4725 00e7 3A       		.uleb128 0x3a
 4726 00e8 0B       		.uleb128 0xb
 4727 00e9 3B       		.uleb128 0x3b
 4728 00ea 0B       		.uleb128 0xb
 4729 00eb 27       		.uleb128 0x27
 4730 00ec 19       		.uleb128 0x19
 4731 00ed 11       		.uleb128 0x11
 4732 00ee 01       		.uleb128 0x1
 4733 00ef 12       		.uleb128 0x12
 4734 00f0 06       		.uleb128 0x6
 4735 00f1 40       		.uleb128 0x40
 4736 00f2 18       		.uleb128 0x18
 4737 00f3 9742     		.uleb128 0x2117
 4738 00f5 19       		.uleb128 0x19
 4739 00f6 00       		.byte	0
 4740 00f7 00       		.byte	0
 4741 00f8 12       		.uleb128 0x12
 4742 00f9 2E       		.uleb128 0x2e
 4743 00fa 01       		.byte	0x1
 4744 00fb 3F       		.uleb128 0x3f
 4745 00fc 19       		.uleb128 0x19
 4746 00fd 03       		.uleb128 0x3
 4747 00fe 0E       		.uleb128 0xe
 4748 00ff 3A       		.uleb128 0x3a
 4749 0100 0B       		.uleb128 0xb
 4750 0101 3B       		.uleb128 0x3b
 4751 0102 0B       		.uleb128 0xb
 4752 0103 27       		.uleb128 0x27
 4753 0104 19       		.uleb128 0x19
 4754 0105 49       		.uleb128 0x49
 4755 0106 13       		.uleb128 0x13
 4756 0107 11       		.uleb128 0x11
 4757 0108 01       		.uleb128 0x1
 4758 0109 12       		.uleb128 0x12
 4759 010a 06       		.uleb128 0x6
 4760 010b 40       		.uleb128 0x40
 4761 010c 18       		.uleb128 0x18
 4762 010d 9742     		.uleb128 0x2117
 4763 010f 19       		.uleb128 0x19
 4764 0110 01       		.uleb128 0x1
 4765 0111 13       		.uleb128 0x13
 4766 0112 00       		.byte	0
 4767 0113 00       		.byte	0
 4768 0114 13       		.uleb128 0x13
 4769 0115 05       		.uleb128 0x5
 4770 0116 00       		.byte	0
 4771 0117 03       		.uleb128 0x3
 4772 0118 0E       		.uleb128 0xe
 4773 0119 3A       		.uleb128 0x3a
 4774 011a 0B       		.uleb128 0xb
 4775 011b 3B       		.uleb128 0x3b
 4776 011c 0B       		.uleb128 0xb
 4777 011d 49       		.uleb128 0x49
 4778 011e 13       		.uleb128 0x13
 4779 011f 02       		.uleb128 0x2
ARM GAS  C:\Users\ADMINI~1\AppData\Local\Temp\ccA9rFPz.s 			page 103


 4780 0120 17       		.uleb128 0x17
 4781 0121 00       		.byte	0
 4782 0122 00       		.byte	0
 4783 0123 14       		.uleb128 0x14
 4784 0124 34       		.uleb128 0x34
 4785 0125 00       		.byte	0
 4786 0126 03       		.uleb128 0x3
 4787 0127 0E       		.uleb128 0xe
 4788 0128 3A       		.uleb128 0x3a
 4789 0129 0B       		.uleb128 0xb
 4790 012a 3B       		.uleb128 0x3b
 4791 012b 0B       		.uleb128 0xb
 4792 012c 49       		.uleb128 0x49
 4793 012d 13       		.uleb128 0x13
 4794 012e 02       		.uleb128 0x2
 4795 012f 17       		.uleb128 0x17
 4796 0130 00       		.byte	0
 4797 0131 00       		.byte	0
 4798 0132 15       		.uleb128 0x15
 4799 0133 1D       		.uleb128 0x1d
 4800 0134 00       		.byte	0
 4801 0135 31       		.uleb128 0x31
 4802 0136 13       		.uleb128 0x13
 4803 0137 11       		.uleb128 0x11
 4804 0138 01       		.uleb128 0x1
 4805 0139 12       		.uleb128 0x12
 4806 013a 06       		.uleb128 0x6
 4807 013b 58       		.uleb128 0x58
 4808 013c 0B       		.uleb128 0xb
 4809 013d 59       		.uleb128 0x59
 4810 013e 0B       		.uleb128 0xb
 4811 013f 00       		.byte	0
 4812 0140 00       		.byte	0
 4813 0141 16       		.uleb128 0x16
 4814 0142 898201   		.uleb128 0x4109
 4815 0145 01       		.byte	0x1
 4816 0146 11       		.uleb128 0x11
 4817 0147 01       		.uleb128 0x1
 4818 0148 31       		.uleb128 0x31
 4819 0149 13       		.uleb128 0x13
 4820 014a 01       		.uleb128 0x1
 4821 014b 13       		.uleb128 0x13
 4822 014c 00       		.byte	0
 4823 014d 00       		.byte	0
 4824 014e 17       		.uleb128 0x17
 4825 014f 8A8201   		.uleb128 0x410a
 4826 0152 00       		.byte	0
 4827 0153 02       		.uleb128 0x2
 4828 0154 18       		.uleb128 0x18
 4829 0155 9142     		.uleb128 0x2111
 4830 0157 18       		.uleb128 0x18
 4831 0158 00       		.byte	0
 4832 0159 00       		.byte	0
 4833 015a 18       		.uleb128 0x18
 4834 015b 898201   		.uleb128 0x4109
 4835 015e 00       		.byte	0
 4836 015f 11       		.uleb128 0x11
ARM GAS  C:\Users\ADMINI~1\AppData\Local\Temp\ccA9rFPz.s 			page 104


 4837 0160 01       		.uleb128 0x1
 4838 0161 31       		.uleb128 0x31
 4839 0162 13       		.uleb128 0x13
 4840 0163 00       		.byte	0
 4841 0164 00       		.byte	0
 4842 0165 19       		.uleb128 0x19
 4843 0166 2E       		.uleb128 0x2e
 4844 0167 01       		.byte	0x1
 4845 0168 3F       		.uleb128 0x3f
 4846 0169 19       		.uleb128 0x19
 4847 016a 03       		.uleb128 0x3
 4848 016b 0E       		.uleb128 0xe
 4849 016c 3A       		.uleb128 0x3a
 4850 016d 0B       		.uleb128 0xb
 4851 016e 3B       		.uleb128 0x3b
 4852 016f 0B       		.uleb128 0xb
 4853 0170 27       		.uleb128 0x27
 4854 0171 19       		.uleb128 0x19
 4855 0172 11       		.uleb128 0x11
 4856 0173 01       		.uleb128 0x1
 4857 0174 12       		.uleb128 0x12
 4858 0175 06       		.uleb128 0x6
 4859 0176 40       		.uleb128 0x40
 4860 0177 18       		.uleb128 0x18
 4861 0178 9742     		.uleb128 0x2117
 4862 017a 19       		.uleb128 0x19
 4863 017b 01       		.uleb128 0x1
 4864 017c 13       		.uleb128 0x13
 4865 017d 00       		.byte	0
 4866 017e 00       		.byte	0
 4867 017f 1A       		.uleb128 0x1a
 4868 0180 898201   		.uleb128 0x4109
 4869 0183 01       		.byte	0x1
 4870 0184 11       		.uleb128 0x11
 4871 0185 01       		.uleb128 0x1
 4872 0186 31       		.uleb128 0x31
 4873 0187 13       		.uleb128 0x13
 4874 0188 00       		.byte	0
 4875 0189 00       		.byte	0
 4876 018a 1B       		.uleb128 0x1b
 4877 018b 2E       		.uleb128 0x2e
 4878 018c 00       		.byte	0
 4879 018d 3F       		.uleb128 0x3f
 4880 018e 19       		.uleb128 0x19
 4881 018f 03       		.uleb128 0x3
 4882 0190 0E       		.uleb128 0xe
 4883 0191 3A       		.uleb128 0x3a
 4884 0192 0B       		.uleb128 0xb
 4885 0193 3B       		.uleb128 0x3b
 4886 0194 0B       		.uleb128 0xb
 4887 0195 27       		.uleb128 0x27
 4888 0196 19       		.uleb128 0x19
 4889 0197 49       		.uleb128 0x49
 4890 0198 13       		.uleb128 0x13
 4891 0199 11       		.uleb128 0x11
 4892 019a 01       		.uleb128 0x1
 4893 019b 12       		.uleb128 0x12
ARM GAS  C:\Users\ADMINI~1\AppData\Local\Temp\ccA9rFPz.s 			page 105


 4894 019c 06       		.uleb128 0x6
 4895 019d 40       		.uleb128 0x40
 4896 019e 18       		.uleb128 0x18
 4897 019f 9742     		.uleb128 0x2117
 4898 01a1 19       		.uleb128 0x19
 4899 01a2 00       		.byte	0
 4900 01a3 00       		.byte	0
 4901 01a4 1C       		.uleb128 0x1c
 4902 01a5 34       		.uleb128 0x34
 4903 01a6 00       		.byte	0
 4904 01a7 03       		.uleb128 0x3
 4905 01a8 0E       		.uleb128 0xe
 4906 01a9 3A       		.uleb128 0x3a
 4907 01aa 0B       		.uleb128 0xb
 4908 01ab 3B       		.uleb128 0x3b
 4909 01ac 0B       		.uleb128 0xb
 4910 01ad 49       		.uleb128 0x49
 4911 01ae 13       		.uleb128 0x13
 4912 01af 02       		.uleb128 0x2
 4913 01b0 18       		.uleb128 0x18
 4914 01b1 00       		.byte	0
 4915 01b2 00       		.byte	0
 4916 01b3 1D       		.uleb128 0x1d
 4917 01b4 01       		.uleb128 0x1
 4918 01b5 01       		.byte	0x1
 4919 01b6 49       		.uleb128 0x49
 4920 01b7 13       		.uleb128 0x13
 4921 01b8 01       		.uleb128 0x1
 4922 01b9 13       		.uleb128 0x13
 4923 01ba 00       		.byte	0
 4924 01bb 00       		.byte	0
 4925 01bc 1E       		.uleb128 0x1e
 4926 01bd 21       		.uleb128 0x21
 4927 01be 00       		.byte	0
 4928 01bf 49       		.uleb128 0x49
 4929 01c0 13       		.uleb128 0x13
 4930 01c1 2F       		.uleb128 0x2f
 4931 01c2 0B       		.uleb128 0xb
 4932 01c3 00       		.byte	0
 4933 01c4 00       		.byte	0
 4934 01c5 1F       		.uleb128 0x1f
 4935 01c6 34       		.uleb128 0x34
 4936 01c7 00       		.byte	0
 4937 01c8 03       		.uleb128 0x3
 4938 01c9 08       		.uleb128 0x8
 4939 01ca 3A       		.uleb128 0x3a
 4940 01cb 0B       		.uleb128 0xb
 4941 01cc 3B       		.uleb128 0x3b
 4942 01cd 0B       		.uleb128 0xb
 4943 01ce 49       		.uleb128 0x49
 4944 01cf 13       		.uleb128 0x13
 4945 01d0 02       		.uleb128 0x2
 4946 01d1 17       		.uleb128 0x17
 4947 01d2 00       		.byte	0
 4948 01d3 00       		.byte	0
 4949 01d4 20       		.uleb128 0x20
 4950 01d5 2E       		.uleb128 0x2e
ARM GAS  C:\Users\ADMINI~1\AppData\Local\Temp\ccA9rFPz.s 			page 106


 4951 01d6 01       		.byte	0x1
 4952 01d7 3F       		.uleb128 0x3f
 4953 01d8 19       		.uleb128 0x19
 4954 01d9 03       		.uleb128 0x3
 4955 01da 0E       		.uleb128 0xe
 4956 01db 3A       		.uleb128 0x3a
 4957 01dc 0B       		.uleb128 0xb
 4958 01dd 3B       		.uleb128 0x3b
 4959 01de 05       		.uleb128 0x5
 4960 01df 27       		.uleb128 0x27
 4961 01e0 19       		.uleb128 0x19
 4962 01e1 49       		.uleb128 0x49
 4963 01e2 13       		.uleb128 0x13
 4964 01e3 11       		.uleb128 0x11
 4965 01e4 01       		.uleb128 0x1
 4966 01e5 12       		.uleb128 0x12
 4967 01e6 06       		.uleb128 0x6
 4968 01e7 40       		.uleb128 0x40
 4969 01e8 18       		.uleb128 0x18
 4970 01e9 9742     		.uleb128 0x2117
 4971 01eb 19       		.uleb128 0x19
 4972 01ec 01       		.uleb128 0x1
 4973 01ed 13       		.uleb128 0x13
 4974 01ee 00       		.byte	0
 4975 01ef 00       		.byte	0
 4976 01f0 21       		.uleb128 0x21
 4977 01f1 05       		.uleb128 0x5
 4978 01f2 00       		.byte	0
 4979 01f3 03       		.uleb128 0x3
 4980 01f4 08       		.uleb128 0x8
 4981 01f5 3A       		.uleb128 0x3a
 4982 01f6 0B       		.uleb128 0xb
 4983 01f7 3B       		.uleb128 0x3b
 4984 01f8 05       		.uleb128 0x5
 4985 01f9 49       		.uleb128 0x49
 4986 01fa 13       		.uleb128 0x13
 4987 01fb 02       		.uleb128 0x2
 4988 01fc 17       		.uleb128 0x17
 4989 01fd 00       		.byte	0
 4990 01fe 00       		.byte	0
 4991 01ff 22       		.uleb128 0x22
 4992 0200 2E       		.uleb128 0x2e
 4993 0201 00       		.byte	0
 4994 0202 3F       		.uleb128 0x3f
 4995 0203 19       		.uleb128 0x19
 4996 0204 03       		.uleb128 0x3
 4997 0205 0E       		.uleb128 0xe
 4998 0206 3A       		.uleb128 0x3a
 4999 0207 0B       		.uleb128 0xb
 5000 0208 3B       		.uleb128 0x3b
 5001 0209 05       		.uleb128 0x5
 5002 020a 27       		.uleb128 0x27
 5003 020b 19       		.uleb128 0x19
 5004 020c 49       		.uleb128 0x49
 5005 020d 13       		.uleb128 0x13
 5006 020e 11       		.uleb128 0x11
 5007 020f 01       		.uleb128 0x1
ARM GAS  C:\Users\ADMINI~1\AppData\Local\Temp\ccA9rFPz.s 			page 107


 5008 0210 12       		.uleb128 0x12
 5009 0211 06       		.uleb128 0x6
 5010 0212 40       		.uleb128 0x40
 5011 0213 18       		.uleb128 0x18
 5012 0214 9742     		.uleb128 0x2117
 5013 0216 19       		.uleb128 0x19
 5014 0217 00       		.byte	0
 5015 0218 00       		.byte	0
 5016 0219 23       		.uleb128 0x23
 5017 021a 2E       		.uleb128 0x2e
 5018 021b 00       		.byte	0
 5019 021c 3F       		.uleb128 0x3f
 5020 021d 19       		.uleb128 0x19
 5021 021e 03       		.uleb128 0x3
 5022 021f 0E       		.uleb128 0xe
 5023 0220 3A       		.uleb128 0x3a
 5024 0221 0B       		.uleb128 0xb
 5025 0222 3B       		.uleb128 0x3b
 5026 0223 05       		.uleb128 0x5
 5027 0224 49       		.uleb128 0x49
 5028 0225 13       		.uleb128 0x13
 5029 0226 11       		.uleb128 0x11
 5030 0227 01       		.uleb128 0x1
 5031 0228 12       		.uleb128 0x12
 5032 0229 06       		.uleb128 0x6
 5033 022a 40       		.uleb128 0x40
 5034 022b 18       		.uleb128 0x18
 5035 022c 9742     		.uleb128 0x2117
 5036 022e 19       		.uleb128 0x19
 5037 022f 00       		.byte	0
 5038 0230 00       		.byte	0
 5039 0231 24       		.uleb128 0x24
 5040 0232 34       		.uleb128 0x34
 5041 0233 00       		.byte	0
 5042 0234 03       		.uleb128 0x3
 5043 0235 0E       		.uleb128 0xe
 5044 0236 3A       		.uleb128 0x3a
 5045 0237 0B       		.uleb128 0xb
 5046 0238 3B       		.uleb128 0x3b
 5047 0239 05       		.uleb128 0x5
 5048 023a 49       		.uleb128 0x49
 5049 023b 13       		.uleb128 0x13
 5050 023c 02       		.uleb128 0x2
 5051 023d 18       		.uleb128 0x18
 5052 023e 00       		.byte	0
 5053 023f 00       		.byte	0
 5054 0240 25       		.uleb128 0x25
 5055 0241 2E       		.uleb128 0x2e
 5056 0242 01       		.byte	0x1
 5057 0243 3F       		.uleb128 0x3f
 5058 0244 19       		.uleb128 0x19
 5059 0245 03       		.uleb128 0x3
 5060 0246 0E       		.uleb128 0xe
 5061 0247 3A       		.uleb128 0x3a
 5062 0248 0B       		.uleb128 0xb
 5063 0249 3B       		.uleb128 0x3b
 5064 024a 05       		.uleb128 0x5
ARM GAS  C:\Users\ADMINI~1\AppData\Local\Temp\ccA9rFPz.s 			page 108


 5065 024b 27       		.uleb128 0x27
 5066 024c 19       		.uleb128 0x19
 5067 024d 49       		.uleb128 0x49
 5068 024e 13       		.uleb128 0x13
 5069 024f 11       		.uleb128 0x11
 5070 0250 01       		.uleb128 0x1
 5071 0251 12       		.uleb128 0x12
 5072 0252 06       		.uleb128 0x6
 5073 0253 40       		.uleb128 0x40
 5074 0254 18       		.uleb128 0x18
 5075 0255 9642     		.uleb128 0x2116
 5076 0257 19       		.uleb128 0x19
 5077 0258 01       		.uleb128 0x1
 5078 0259 13       		.uleb128 0x13
 5079 025a 00       		.byte	0
 5080 025b 00       		.byte	0
 5081 025c 26       		.uleb128 0x26
 5082 025d 05       		.uleb128 0x5
 5083 025e 00       		.byte	0
 5084 025f 03       		.uleb128 0x3
 5085 0260 0E       		.uleb128 0xe
 5086 0261 3A       		.uleb128 0x3a
 5087 0262 0B       		.uleb128 0xb
 5088 0263 3B       		.uleb128 0x3b
 5089 0264 05       		.uleb128 0x5
 5090 0265 49       		.uleb128 0x49
 5091 0266 13       		.uleb128 0x13
 5092 0267 02       		.uleb128 0x2
 5093 0268 17       		.uleb128 0x17
 5094 0269 00       		.byte	0
 5095 026a 00       		.byte	0
 5096 026b 27       		.uleb128 0x27
 5097 026c 34       		.uleb128 0x34
 5098 026d 00       		.byte	0
 5099 026e 03       		.uleb128 0x3
 5100 026f 08       		.uleb128 0x8
 5101 0270 3A       		.uleb128 0x3a
 5102 0271 0B       		.uleb128 0xb
 5103 0272 3B       		.uleb128 0x3b
 5104 0273 05       		.uleb128 0x5
 5105 0274 49       		.uleb128 0x49
 5106 0275 13       		.uleb128 0x13
 5107 0276 02       		.uleb128 0x2
 5108 0277 17       		.uleb128 0x17
 5109 0278 00       		.byte	0
 5110 0279 00       		.byte	0
 5111 027a 28       		.uleb128 0x28
 5112 027b 34       		.uleb128 0x34
 5113 027c 00       		.byte	0
 5114 027d 03       		.uleb128 0x3
 5115 027e 0E       		.uleb128 0xe
 5116 027f 3A       		.uleb128 0x3a
 5117 0280 0B       		.uleb128 0xb
 5118 0281 3B       		.uleb128 0x3b
 5119 0282 05       		.uleb128 0x5
 5120 0283 49       		.uleb128 0x49
 5121 0284 13       		.uleb128 0x13
ARM GAS  C:\Users\ADMINI~1\AppData\Local\Temp\ccA9rFPz.s 			page 109


 5122 0285 02       		.uleb128 0x2
 5123 0286 17       		.uleb128 0x17
 5124 0287 00       		.byte	0
 5125 0288 00       		.byte	0
 5126 0289 29       		.uleb128 0x29
 5127 028a 0B       		.uleb128 0xb
 5128 028b 01       		.byte	0x1
 5129 028c 11       		.uleb128 0x11
 5130 028d 01       		.uleb128 0x1
 5131 028e 12       		.uleb128 0x12
 5132 028f 06       		.uleb128 0x6
 5133 0290 01       		.uleb128 0x1
 5134 0291 13       		.uleb128 0x13
 5135 0292 00       		.byte	0
 5136 0293 00       		.byte	0
 5137 0294 2A       		.uleb128 0x2a
 5138 0295 34       		.uleb128 0x34
 5139 0296 00       		.byte	0
 5140 0297 03       		.uleb128 0x3
 5141 0298 0E       		.uleb128 0xe
 5142 0299 3A       		.uleb128 0x3a
 5143 029a 0B       		.uleb128 0xb
 5144 029b 3B       		.uleb128 0x3b
 5145 029c 05       		.uleb128 0x5
 5146 029d 49       		.uleb128 0x49
 5147 029e 13       		.uleb128 0x13
 5148 029f 1C       		.uleb128 0x1c
 5149 02a0 07       		.uleb128 0x7
 5150 02a1 00       		.byte	0
 5151 02a2 00       		.byte	0
 5152 02a3 2B       		.uleb128 0x2b
 5153 02a4 34       		.uleb128 0x34
 5154 02a5 00       		.byte	0
 5155 02a6 03       		.uleb128 0x3
 5156 02a7 0E       		.uleb128 0xe
 5157 02a8 3A       		.uleb128 0x3a
 5158 02a9 0B       		.uleb128 0xb
 5159 02aa 3B       		.uleb128 0x3b
 5160 02ab 05       		.uleb128 0x5
 5161 02ac 49       		.uleb128 0x49
 5162 02ad 13       		.uleb128 0x13
 5163 02ae 1C       		.uleb128 0x1c
 5164 02af 06       		.uleb128 0x6
 5165 02b0 00       		.byte	0
 5166 02b1 00       		.byte	0
 5167 02b2 2C       		.uleb128 0x2c
 5168 02b3 26       		.uleb128 0x26
 5169 02b4 00       		.byte	0
 5170 02b5 49       		.uleb128 0x49
 5171 02b6 13       		.uleb128 0x13
 5172 02b7 00       		.byte	0
 5173 02b8 00       		.byte	0
 5174 02b9 2D       		.uleb128 0x2d
 5175 02ba 2E       		.uleb128 0x2e
 5176 02bb 01       		.byte	0x1
 5177 02bc 31       		.uleb128 0x31
 5178 02bd 13       		.uleb128 0x13
ARM GAS  C:\Users\ADMINI~1\AppData\Local\Temp\ccA9rFPz.s 			page 110


 5179 02be 11       		.uleb128 0x11
 5180 02bf 01       		.uleb128 0x1
 5181 02c0 12       		.uleb128 0x12
 5182 02c1 06       		.uleb128 0x6
 5183 02c2 40       		.uleb128 0x40
 5184 02c3 18       		.uleb128 0x18
 5185 02c4 9742     		.uleb128 0x2117
 5186 02c6 19       		.uleb128 0x19
 5187 02c7 01       		.uleb128 0x1
 5188 02c8 13       		.uleb128 0x13
 5189 02c9 00       		.byte	0
 5190 02ca 00       		.byte	0
 5191 02cb 2E       		.uleb128 0x2e
 5192 02cc 05       		.uleb128 0x5
 5193 02cd 00       		.byte	0
 5194 02ce 31       		.uleb128 0x31
 5195 02cf 13       		.uleb128 0x13
 5196 02d0 02       		.uleb128 0x2
 5197 02d1 17       		.uleb128 0x17
 5198 02d2 00       		.byte	0
 5199 02d3 00       		.byte	0
 5200 02d4 2F       		.uleb128 0x2f
 5201 02d5 34       		.uleb128 0x34
 5202 02d6 00       		.byte	0
 5203 02d7 31       		.uleb128 0x31
 5204 02d8 13       		.uleb128 0x13
 5205 02d9 1C       		.uleb128 0x1c
 5206 02da 0B       		.uleb128 0xb
 5207 02db 00       		.byte	0
 5208 02dc 00       		.byte	0
 5209 02dd 30       		.uleb128 0x30
 5210 02de 34       		.uleb128 0x34
 5211 02df 00       		.byte	0
 5212 02e0 31       		.uleb128 0x31
 5213 02e1 13       		.uleb128 0x13
 5214 02e2 00       		.byte	0
 5215 02e3 00       		.byte	0
 5216 02e4 31       		.uleb128 0x31
 5217 02e5 0B       		.uleb128 0xb
 5218 02e6 01       		.byte	0x1
 5219 02e7 11       		.uleb128 0x11
 5220 02e8 01       		.uleb128 0x1
 5221 02e9 12       		.uleb128 0x12
 5222 02ea 06       		.uleb128 0x6
 5223 02eb 00       		.byte	0
 5224 02ec 00       		.byte	0
 5225 02ed 32       		.uleb128 0x32
 5226 02ee 34       		.uleb128 0x34
 5227 02ef 00       		.byte	0
 5228 02f0 31       		.uleb128 0x31
 5229 02f1 13       		.uleb128 0x13
 5230 02f2 02       		.uleb128 0x2
 5231 02f3 17       		.uleb128 0x17
 5232 02f4 00       		.byte	0
 5233 02f5 00       		.byte	0
 5234 02f6 33       		.uleb128 0x33
 5235 02f7 34       		.uleb128 0x34
ARM GAS  C:\Users\ADMINI~1\AppData\Local\Temp\ccA9rFPz.s 			page 111


 5236 02f8 00       		.byte	0
 5237 02f9 31       		.uleb128 0x31
 5238 02fa 13       		.uleb128 0x13
 5239 02fb 02       		.uleb128 0x2
 5240 02fc 18       		.uleb128 0x18
 5241 02fd 00       		.byte	0
 5242 02fe 00       		.byte	0
 5243 02ff 34       		.uleb128 0x34
 5244 0300 34       		.uleb128 0x34
 5245 0301 00       		.byte	0
 5246 0302 03       		.uleb128 0x3
 5247 0303 0E       		.uleb128 0xe
 5248 0304 3A       		.uleb128 0x3a
 5249 0305 0B       		.uleb128 0xb
 5250 0306 3B       		.uleb128 0x3b
 5251 0307 0B       		.uleb128 0xb
 5252 0308 49       		.uleb128 0x49
 5253 0309 13       		.uleb128 0x13
 5254 030a 3F       		.uleb128 0x3f
 5255 030b 19       		.uleb128 0x19
 5256 030c 02       		.uleb128 0x2
 5257 030d 18       		.uleb128 0x18
 5258 030e 00       		.byte	0
 5259 030f 00       		.byte	0
 5260 0310 35       		.uleb128 0x35
 5261 0311 2E       		.uleb128 0x2e
 5262 0312 01       		.byte	0x1
 5263 0313 3F       		.uleb128 0x3f
 5264 0314 19       		.uleb128 0x19
 5265 0315 03       		.uleb128 0x3
 5266 0316 0E       		.uleb128 0xe
 5267 0317 3A       		.uleb128 0x3a
 5268 0318 0B       		.uleb128 0xb
 5269 0319 3B       		.uleb128 0x3b
 5270 031a 0B       		.uleb128 0xb
 5271 031b 27       		.uleb128 0x27
 5272 031c 19       		.uleb128 0x19
 5273 031d 49       		.uleb128 0x49
 5274 031e 13       		.uleb128 0x13
 5275 031f 3C       		.uleb128 0x3c
 5276 0320 19       		.uleb128 0x19
 5277 0321 01       		.uleb128 0x1
 5278 0322 13       		.uleb128 0x13
 5279 0323 00       		.byte	0
 5280 0324 00       		.byte	0
 5281 0325 36       		.uleb128 0x36
 5282 0326 05       		.uleb128 0x5
 5283 0327 00       		.byte	0
 5284 0328 49       		.uleb128 0x49
 5285 0329 13       		.uleb128 0x13
 5286 032a 00       		.byte	0
 5287 032b 00       		.byte	0
 5288 032c 37       		.uleb128 0x37
 5289 032d 2E       		.uleb128 0x2e
 5290 032e 01       		.byte	0x1
 5291 032f 3F       		.uleb128 0x3f
 5292 0330 19       		.uleb128 0x19
ARM GAS  C:\Users\ADMINI~1\AppData\Local\Temp\ccA9rFPz.s 			page 112


 5293 0331 03       		.uleb128 0x3
 5294 0332 0E       		.uleb128 0xe
 5295 0333 3A       		.uleb128 0x3a
 5296 0334 0B       		.uleb128 0xb
 5297 0335 3B       		.uleb128 0x3b
 5298 0336 0B       		.uleb128 0xb
 5299 0337 27       		.uleb128 0x27
 5300 0338 19       		.uleb128 0x19
 5301 0339 3C       		.uleb128 0x3c
 5302 033a 19       		.uleb128 0x19
 5303 033b 01       		.uleb128 0x1
 5304 033c 13       		.uleb128 0x13
 5305 033d 00       		.byte	0
 5306 033e 00       		.byte	0
 5307 033f 38       		.uleb128 0x38
 5308 0340 2E       		.uleb128 0x2e
 5309 0341 00       		.byte	0
 5310 0342 3F       		.uleb128 0x3f
 5311 0343 19       		.uleb128 0x19
 5312 0344 03       		.uleb128 0x3
 5313 0345 0E       		.uleb128 0xe
 5314 0346 3A       		.uleb128 0x3a
 5315 0347 0B       		.uleb128 0xb
 5316 0348 3B       		.uleb128 0x3b
 5317 0349 05       		.uleb128 0x5
 5318 034a 27       		.uleb128 0x27
 5319 034b 19       		.uleb128 0x19
 5320 034c 49       		.uleb128 0x49
 5321 034d 13       		.uleb128 0x13
 5322 034e 3C       		.uleb128 0x3c
 5323 034f 19       		.uleb128 0x19
 5324 0350 00       		.byte	0
 5325 0351 00       		.byte	0
 5326 0352 39       		.uleb128 0x39
 5327 0353 2E       		.uleb128 0x2e
 5328 0354 01       		.byte	0x1
 5329 0355 3F       		.uleb128 0x3f
 5330 0356 19       		.uleb128 0x19
 5331 0357 03       		.uleb128 0x3
 5332 0358 0E       		.uleb128 0xe
 5333 0359 27       		.uleb128 0x27
 5334 035a 19       		.uleb128 0x19
 5335 035b 49       		.uleb128 0x49
 5336 035c 13       		.uleb128 0x13
 5337 035d 34       		.uleb128 0x34
 5338 035e 19       		.uleb128 0x19
 5339 035f 3C       		.uleb128 0x3c
 5340 0360 19       		.uleb128 0x19
 5341 0361 01       		.uleb128 0x1
 5342 0362 13       		.uleb128 0x13
 5343 0363 00       		.byte	0
 5344 0364 00       		.byte	0
 5345 0365 3A       		.uleb128 0x3a
 5346 0366 2E       		.uleb128 0x2e
 5347 0367 00       		.byte	0
 5348 0368 3F       		.uleb128 0x3f
 5349 0369 19       		.uleb128 0x19
ARM GAS  C:\Users\ADMINI~1\AppData\Local\Temp\ccA9rFPz.s 			page 113


 5350 036a 03       		.uleb128 0x3
 5351 036b 0E       		.uleb128 0xe
 5352 036c 3A       		.uleb128 0x3a
 5353 036d 0B       		.uleb128 0xb
 5354 036e 3B       		.uleb128 0x3b
 5355 036f 0B       		.uleb128 0xb
 5356 0370 27       		.uleb128 0x27
 5357 0371 19       		.uleb128 0x19
 5358 0372 49       		.uleb128 0x49
 5359 0373 13       		.uleb128 0x13
 5360 0374 3C       		.uleb128 0x3c
 5361 0375 19       		.uleb128 0x19
 5362 0376 00       		.byte	0
 5363 0377 00       		.byte	0
 5364 0378 3B       		.uleb128 0x3b
 5365 0379 2E       		.uleb128 0x2e
 5366 037a 01       		.byte	0x1
 5367 037b 3F       		.uleb128 0x3f
 5368 037c 19       		.uleb128 0x19
 5369 037d 03       		.uleb128 0x3
 5370 037e 0E       		.uleb128 0xe
 5371 037f 3A       		.uleb128 0x3a
 5372 0380 0B       		.uleb128 0xb
 5373 0381 3B       		.uleb128 0x3b
 5374 0382 0B       		.uleb128 0xb
 5375 0383 27       		.uleb128 0x27
 5376 0384 19       		.uleb128 0x19
 5377 0385 49       		.uleb128 0x49
 5378 0386 13       		.uleb128 0x13
 5379 0387 3C       		.uleb128 0x3c
 5380 0388 19       		.uleb128 0x19
 5381 0389 00       		.byte	0
 5382 038a 00       		.byte	0
 5383 038b 00       		.byte	0
 5384              		.section	.debug_loc,"",%progbits
 5385              	.Ldebug_loc0:
 5386              	.LLST0:
 5387 0000 00000000 		.4byte	.LVL0
 5388 0004 22000000 		.4byte	.LVL1
 5389 0008 0100     		.2byte	0x1
 5390 000a 50       		.byte	0x50
 5391 000b 22000000 		.4byte	.LVL1
 5392 000f 36000000 		.4byte	.LVL5
 5393 0013 0400     		.2byte	0x4
 5394 0015 F3       		.byte	0xf3
 5395 0016 01       		.uleb128 0x1
 5396 0017 50       		.byte	0x50
 5397 0018 9F       		.byte	0x9f
 5398 0019 36000000 		.4byte	.LVL5
 5399 001d 42000000 		.4byte	.LVL6
 5400 0021 0100     		.2byte	0x1
 5401 0023 50       		.byte	0x50
 5402 0024 42000000 		.4byte	.LVL6
 5403 0028 5A000000 		.4byte	.LVL11
 5404 002c 0400     		.2byte	0x4
 5405 002e F3       		.byte	0xf3
 5406 002f 01       		.uleb128 0x1
ARM GAS  C:\Users\ADMINI~1\AppData\Local\Temp\ccA9rFPz.s 			page 114


 5407 0030 50       		.byte	0x50
 5408 0031 9F       		.byte	0x9f
 5409 0032 5A000000 		.4byte	.LVL11
 5410 0036 7E000000 		.4byte	.LVL12
 5411 003a 0100     		.2byte	0x1
 5412 003c 50       		.byte	0x50
 5413 003d 7E000000 		.4byte	.LVL12
 5414 0041 94000000 		.4byte	.LVL16
 5415 0045 0400     		.2byte	0x4
 5416 0047 F3       		.byte	0xf3
 5417 0048 01       		.uleb128 0x1
 5418 0049 50       		.byte	0x50
 5419 004a 9F       		.byte	0x9f
 5420 004b 94000000 		.4byte	.LVL16
 5421 004f A0000000 		.4byte	.LVL17
 5422 0053 0100     		.2byte	0x1
 5423 0055 50       		.byte	0x50
 5424 0056 A0000000 		.4byte	.LVL17
 5425 005a BC000000 		.4byte	.LVL23
 5426 005e 0400     		.2byte	0x4
 5427 0060 F3       		.byte	0xf3
 5428 0061 01       		.uleb128 0x1
 5429 0062 50       		.byte	0x50
 5430 0063 9F       		.byte	0x9f
 5431 0064 BC000000 		.4byte	.LVL23
 5432 0068 BE000000 		.4byte	.LVL24
 5433 006c 0100     		.2byte	0x1
 5434 006e 50       		.byte	0x50
 5435 006f BE000000 		.4byte	.LVL24
 5436 0073 D0000000 		.4byte	.LFE3
 5437 0077 0400     		.2byte	0x4
 5438 0079 F3       		.byte	0xf3
 5439 007a 01       		.uleb128 0x1
 5440 007b 50       		.byte	0x50
 5441 007c 9F       		.byte	0x9f
 5442 007d 00000000 		.4byte	0
 5443 0081 00000000 		.4byte	0
 5444              	.LLST1:
 5445 0085 00000000 		.4byte	.LVL0
 5446 0089 26000000 		.4byte	.LVL2
 5447 008d 0100     		.2byte	0x1
 5448 008f 51       		.byte	0x51
 5449 0090 26000000 		.4byte	.LVL2
 5450 0094 36000000 		.4byte	.LVL5
 5451 0098 0400     		.2byte	0x4
 5452 009a F3       		.byte	0xf3
 5453 009b 01       		.uleb128 0x1
 5454 009c 51       		.byte	0x51
 5455 009d 9F       		.byte	0x9f
 5456 009e 36000000 		.4byte	.LVL5
 5457 00a2 46000000 		.4byte	.LVL7
 5458 00a6 0100     		.2byte	0x1
 5459 00a8 51       		.byte	0x51
 5460 00a9 46000000 		.4byte	.LVL7
 5461 00ad 5A000000 		.4byte	.LVL11
 5462 00b1 0400     		.2byte	0x4
 5463 00b3 F3       		.byte	0xf3
ARM GAS  C:\Users\ADMINI~1\AppData\Local\Temp\ccA9rFPz.s 			page 115


 5464 00b4 01       		.uleb128 0x1
 5465 00b5 51       		.byte	0x51
 5466 00b6 9F       		.byte	0x9f
 5467 00b7 5A000000 		.4byte	.LVL11
 5468 00bb 82000000 		.4byte	.LVL13
 5469 00bf 0100     		.2byte	0x1
 5470 00c1 51       		.byte	0x51
 5471 00c2 82000000 		.4byte	.LVL13
 5472 00c6 94000000 		.4byte	.LVL16
 5473 00ca 0400     		.2byte	0x4
 5474 00cc F3       		.byte	0xf3
 5475 00cd 01       		.uleb128 0x1
 5476 00ce 51       		.byte	0x51
 5477 00cf 9F       		.byte	0x9f
 5478 00d0 94000000 		.4byte	.LVL16
 5479 00d4 A4000000 		.4byte	.LVL18
 5480 00d8 0100     		.2byte	0x1
 5481 00da 51       		.byte	0x51
 5482 00db A4000000 		.4byte	.LVL18
 5483 00df BC000000 		.4byte	.LVL23
 5484 00e3 0400     		.2byte	0x4
 5485 00e5 F3       		.byte	0xf3
 5486 00e6 01       		.uleb128 0x1
 5487 00e7 51       		.byte	0x51
 5488 00e8 9F       		.byte	0x9f
 5489 00e9 BC000000 		.4byte	.LVL23
 5490 00ed BE000000 		.4byte	.LVL24
 5491 00f1 0100     		.2byte	0x1
 5492 00f3 51       		.byte	0x51
 5493 00f4 BE000000 		.4byte	.LVL24
 5494 00f8 D0000000 		.4byte	.LFE3
 5495 00fc 0400     		.2byte	0x4
 5496 00fe F3       		.byte	0xf3
 5497 00ff 01       		.uleb128 0x1
 5498 0100 51       		.byte	0x51
 5499 0101 9F       		.byte	0x9f
 5500 0102 00000000 		.4byte	0
 5501 0106 00000000 		.4byte	0
 5502              	.LLST2:
 5503 010a 00000000 		.4byte	.LVL0
 5504 010e 32000000 		.4byte	.LVL4
 5505 0112 0200     		.2byte	0x2
 5506 0114 30       		.byte	0x30
 5507 0115 9F       		.byte	0x9f
 5508 0116 32000000 		.4byte	.LVL4
 5509 011a 36000000 		.4byte	.LVL5
 5510 011e 0100     		.2byte	0x1
 5511 0120 50       		.byte	0x50
 5512 0121 36000000 		.4byte	.LVL5
 5513 0125 50000000 		.4byte	.LVL9
 5514 0129 0200     		.2byte	0x2
 5515 012b 30       		.byte	0x30
 5516 012c 9F       		.byte	0x9f
 5517 012d 50000000 		.4byte	.LVL9
 5518 0131 58000000 		.4byte	.LVL10
 5519 0135 0100     		.2byte	0x1
 5520 0137 50       		.byte	0x50
ARM GAS  C:\Users\ADMINI~1\AppData\Local\Temp\ccA9rFPz.s 			page 116


 5521 0138 58000000 		.4byte	.LVL10
 5522 013c 5A000000 		.4byte	.LVL11
 5523 0140 0100     		.2byte	0x1
 5524 0142 56       		.byte	0x56
 5525 0143 5A000000 		.4byte	.LVL11
 5526 0147 8E000000 		.4byte	.LVL15
 5527 014b 0200     		.2byte	0x2
 5528 014d 30       		.byte	0x30
 5529 014e 9F       		.byte	0x9f
 5530 014f 8E000000 		.4byte	.LVL15
 5531 0153 94000000 		.4byte	.LVL16
 5532 0157 0100     		.2byte	0x1
 5533 0159 50       		.byte	0x50
 5534 015a 94000000 		.4byte	.LVL16
 5535 015e AE000000 		.4byte	.LVL20
 5536 0162 0200     		.2byte	0x2
 5537 0164 30       		.byte	0x30
 5538 0165 9F       		.byte	0x9f
 5539 0166 AE000000 		.4byte	.LVL20
 5540 016a B0000000 		.4byte	.LVL21
 5541 016e 0100     		.2byte	0x1
 5542 0170 50       		.byte	0x50
 5543 0171 B0000000 		.4byte	.LVL21
 5544 0175 BC000000 		.4byte	.LVL23
 5545 0179 0100     		.2byte	0x1
 5546 017b 56       		.byte	0x56
 5547 017c BC000000 		.4byte	.LVL23
 5548 0180 BE000000 		.4byte	.LVL24
 5549 0184 0200     		.2byte	0x2
 5550 0186 30       		.byte	0x30
 5551 0187 9F       		.byte	0x9f
 5552 0188 BE000000 		.4byte	.LVL24
 5553 018c C0000000 		.4byte	.LVL25
 5554 0190 0100     		.2byte	0x1
 5555 0192 56       		.byte	0x56
 5556 0193 C0000000 		.4byte	.LVL25
 5557 0197 D0000000 		.4byte	.LFE3
 5558 019b 0100     		.2byte	0x1
 5559 019d 50       		.byte	0x50
 5560 019e 00000000 		.4byte	0
 5561 01a2 00000000 		.4byte	0
 5562              	.LLST3:
 5563 01a6 00000000 		.4byte	.LVL27
 5564 01aa 0E000000 		.4byte	.LVL29
 5565 01ae 0200     		.2byte	0x2
 5566 01b0 30       		.byte	0x30
 5567 01b1 9F       		.byte	0x9f
 5568 01b2 0E000000 		.4byte	.LVL29
 5569 01b6 1A000000 		.4byte	.LVL30
 5570 01ba 0100     		.2byte	0x1
 5571 01bc 50       		.byte	0x50
 5572 01bd 1A000000 		.4byte	.LVL30
 5573 01c1 52000000 		.4byte	.LVL36
 5574 01c5 0100     		.2byte	0x1
 5575 01c7 55       		.byte	0x55
 5576 01c8 52000000 		.4byte	.LVL36
 5577 01cc 54000000 		.4byte	.LVL37
ARM GAS  C:\Users\ADMINI~1\AppData\Local\Temp\ccA9rFPz.s 			page 117


 5578 01d0 0600     		.2byte	0x6
 5579 01d2 70       		.byte	0x70
 5580 01d3 00       		.sleb128 0
 5581 01d4 75       		.byte	0x75
 5582 01d5 00       		.sleb128 0
 5583 01d6 21       		.byte	0x21
 5584 01d7 9F       		.byte	0x9f
 5585 01d8 54000000 		.4byte	.LVL37
 5586 01dc 5C000000 		.4byte	.LFE5
 5587 01e0 0100     		.2byte	0x1
 5588 01e2 50       		.byte	0x50
 5589 01e3 00000000 		.4byte	0
 5590 01e7 00000000 		.4byte	0
 5591              	.LLST4:
 5592 01eb 16000000 		.4byte	.LVL39
 5593 01ef 18000000 		.4byte	.LVL40
 5594 01f3 0100     		.2byte	0x1
 5595 01f5 50       		.byte	0x50
 5596 01f6 18000000 		.4byte	.LVL40
 5597 01fa 1C000000 		.4byte	.LVL41
 5598 01fe 0100     		.2byte	0x1
 5599 0200 54       		.byte	0x54
 5600 0201 1C000000 		.4byte	.LVL41
 5601 0205 1E000000 		.4byte	.LVL42
 5602 0209 0600     		.2byte	0x6
 5603 020b 70       		.byte	0x70
 5604 020c 00       		.sleb128 0
 5605 020d 74       		.byte	0x74
 5606 020e 00       		.sleb128 0
 5607 020f 21       		.byte	0x21
 5608 0210 9F       		.byte	0x9f
 5609 0211 1E000000 		.4byte	.LVL42
 5610 0215 20000000 		.4byte	.LFE6
 5611 0219 0100     		.2byte	0x1
 5612 021b 50       		.byte	0x50
 5613 021c 00000000 		.4byte	0
 5614 0220 00000000 		.4byte	0
 5615              	.LLST5:
 5616 0224 00000000 		.4byte	.LVL45
 5617 0228 18000000 		.4byte	.LVL47
 5618 022c 0200     		.2byte	0x2
 5619 022e 30       		.byte	0x30
 5620 022f 9F       		.byte	0x9f
 5621 0230 18000000 		.4byte	.LVL47
 5622 0234 1A000000 		.4byte	.LVL48
 5623 0238 0100     		.2byte	0x1
 5624 023a 50       		.byte	0x50
 5625 023b 1A000000 		.4byte	.LVL48
 5626 023f 26000000 		.4byte	.LVL50
 5627 0243 0100     		.2byte	0x1
 5628 0245 54       		.byte	0x54
 5629 0246 26000000 		.4byte	.LVL50
 5630 024a 30000000 		.4byte	.LFE8
 5631 024e 0100     		.2byte	0x1
 5632 0250 50       		.byte	0x50
 5633 0251 00000000 		.4byte	0
 5634 0255 00000000 		.4byte	0
ARM GAS  C:\Users\ADMINI~1\AppData\Local\Temp\ccA9rFPz.s 			page 118


 5635              	.LLST6:
 5636 0259 00000000 		.4byte	.LVL52
 5637 025d 0E000000 		.4byte	.LVL53
 5638 0261 0100     		.2byte	0x1
 5639 0263 50       		.byte	0x50
 5640 0264 0E000000 		.4byte	.LVL53
 5641 0268 15000000 		.4byte	.LVL54-1
 5642 026c 0200     		.2byte	0x2
 5643 026e 72       		.byte	0x72
 5644 026f 00       		.sleb128 0
 5645 0270 15000000 		.4byte	.LVL54-1
 5646 0274 1C000000 		.4byte	.LFE10
 5647 0278 0200     		.2byte	0x2
 5648 027a 7D       		.byte	0x7d
 5649 027b 07       		.sleb128 7
 5650 027c 00000000 		.4byte	0
 5651 0280 00000000 		.4byte	0
 5652              	.LLST7:
 5653 0284 00000000 		.4byte	.LVL55
 5654 0288 0A000000 		.4byte	.LVL56
 5655 028c 0100     		.2byte	0x1
 5656 028e 50       		.byte	0x50
 5657 028f 0A000000 		.4byte	.LVL56
 5658 0293 1C000000 		.4byte	.LFE12
 5659 0297 0400     		.2byte	0x4
 5660 0299 F3       		.byte	0xf3
 5661 029a 01       		.uleb128 0x1
 5662 029b 50       		.byte	0x50
 5663 029c 9F       		.byte	0x9f
 5664 029d 00000000 		.4byte	0
 5665 02a1 00000000 		.4byte	0
 5666              	.LLST8:
 5667 02a5 00000000 		.4byte	.LVL58
 5668 02a9 0E000000 		.4byte	.LVL59
 5669 02ad 0100     		.2byte	0x1
 5670 02af 50       		.byte	0x50
 5671 02b0 0E000000 		.4byte	.LVL59
 5672 02b4 17000000 		.4byte	.LVL60-1
 5673 02b8 0500     		.2byte	0x5
 5674 02ba 03       		.byte	0x3
 5675 02bb 08000000 		.4byte	base_state+8
 5676 02bf 17000000 		.4byte	.LVL60-1
 5677 02c3 20000000 		.4byte	.LFE14
 5678 02c7 0400     		.2byte	0x4
 5679 02c9 F3       		.byte	0xf3
 5680 02ca 01       		.uleb128 0x1
 5681 02cb 50       		.byte	0x50
 5682 02cc 9F       		.byte	0x9f
 5683 02cd 00000000 		.4byte	0
 5684 02d1 00000000 		.4byte	0
 5685              	.LLST9:
 5686 02d5 00000000 		.4byte	.LVL61
 5687 02d9 12000000 		.4byte	.LVL62
 5688 02dd 0100     		.2byte	0x1
 5689 02df 50       		.byte	0x50
 5690 02e0 12000000 		.4byte	.LVL62
 5691 02e4 98000000 		.4byte	.LFE16
ARM GAS  C:\Users\ADMINI~1\AppData\Local\Temp\ccA9rFPz.s 			page 119


 5692 02e8 0400     		.2byte	0x4
 5693 02ea F3       		.byte	0xf3
 5694 02eb 01       		.uleb128 0x1
 5695 02ec 50       		.byte	0x50
 5696 02ed 9F       		.byte	0x9f
 5697 02ee 00000000 		.4byte	0
 5698 02f2 00000000 		.4byte	0
 5699              	.LLST10:
 5700 02f6 00000000 		.4byte	.LVL61
 5701 02fa 14000000 		.4byte	.LVL63
 5702 02fe 0100     		.2byte	0x1
 5703 0300 51       		.byte	0x51
 5704 0301 14000000 		.4byte	.LVL63
 5705 0305 98000000 		.4byte	.LFE16
 5706 0309 0400     		.2byte	0x4
 5707 030b F3       		.byte	0xf3
 5708 030c 01       		.uleb128 0x1
 5709 030d 51       		.byte	0x51
 5710 030e 9F       		.byte	0x9f
 5711 030f 00000000 		.4byte	0
 5712 0313 00000000 		.4byte	0
 5713              	.LLST11:
 5714 0317 00000000 		.4byte	.LVL61
 5715 031b 72000000 		.4byte	.LVL74
 5716 031f 0200     		.2byte	0x2
 5717 0321 30       		.byte	0x30
 5718 0322 9F       		.byte	0x9f
 5719 0323 72000000 		.4byte	.LVL74
 5720 0327 74000000 		.4byte	.LVL75
 5721 032b 0100     		.2byte	0x1
 5722 032d 50       		.byte	0x50
 5723 032e 74000000 		.4byte	.LVL75
 5724 0332 7C000000 		.4byte	.LVL76
 5725 0336 0200     		.2byte	0x2
 5726 0338 30       		.byte	0x30
 5727 0339 9F       		.byte	0x9f
 5728 033a 7C000000 		.4byte	.LVL76
 5729 033e 7E000000 		.4byte	.LVL77
 5730 0342 0100     		.2byte	0x1
 5731 0344 50       		.byte	0x50
 5732 0345 7E000000 		.4byte	.LVL77
 5733 0349 80000000 		.4byte	.LVL78
 5734 034d 0200     		.2byte	0x2
 5735 034f 30       		.byte	0x30
 5736 0350 9F       		.byte	0x9f
 5737 0351 80000000 		.4byte	.LVL78
 5738 0355 98000000 		.4byte	.LFE16
 5739 0359 0100     		.2byte	0x1
 5740 035b 50       		.byte	0x50
 5741 035c 00000000 		.4byte	0
 5742 0360 00000000 		.4byte	0
 5743              	.LLST12:
 5744 0364 00000000 		.4byte	.LVL61
 5745 0368 5A000000 		.4byte	.LVL72
 5746 036c 0200     		.2byte	0x2
 5747 036e 30       		.byte	0x30
 5748 036f 9F       		.byte	0x9f
ARM GAS  C:\Users\ADMINI~1\AppData\Local\Temp\ccA9rFPz.s 			page 120


 5749 0370 5A000000 		.4byte	.LVL72
 5750 0374 6D000000 		.4byte	.LVL73-1
 5751 0378 0100     		.2byte	0x1
 5752 037a 50       		.byte	0x50
 5753 037b 74000000 		.4byte	.LVL75
 5754 037f 7B000000 		.4byte	.LVL76-1
 5755 0383 0100     		.2byte	0x1
 5756 0385 50       		.byte	0x50
 5757 0386 7E000000 		.4byte	.LVL77
 5758 038a 80000000 		.4byte	.LVL78
 5759 038e 0100     		.2byte	0x1
 5760 0390 50       		.byte	0x50
 5761 0391 00000000 		.4byte	0
 5762 0395 00000000 		.4byte	0
 5763              	.LLST13:
 5764 0399 00000000 		.4byte	.LVL61
 5765 039d 1C000000 		.4byte	.LVL65
 5766 03a1 0200     		.2byte	0x2
 5767 03a3 30       		.byte	0x30
 5768 03a4 9F       		.byte	0x9f
 5769 03a5 1C000000 		.4byte	.LVL65
 5770 03a9 42000000 		.4byte	.LVL69
 5771 03ad 0100     		.2byte	0x1
 5772 03af 56       		.byte	0x56
 5773 03b0 42000000 		.4byte	.LVL69
 5774 03b4 56000000 		.4byte	.LVL71
 5775 03b8 0600     		.2byte	0x6
 5776 03ba 76       		.byte	0x76
 5777 03bb 00       		.sleb128 0
 5778 03bc 08       		.byte	0x8
 5779 03bd 7F       		.byte	0x7f
 5780 03be 1A       		.byte	0x1a
 5781 03bf 9F       		.byte	0x9f
 5782 03c0 00000000 		.4byte	0
 5783 03c4 00000000 		.4byte	0
 5784              	.LLST14:
 5785 03c8 00000000 		.4byte	.LVL61
 5786 03cc 22000000 		.4byte	.LVL67
 5787 03d0 0200     		.2byte	0x2
 5788 03d2 30       		.byte	0x30
 5789 03d3 9F       		.byte	0x9f
 5790 03d4 22000000 		.4byte	.LVL67
 5791 03d8 98000000 		.4byte	.LFE16
 5792 03dc 0200     		.2byte	0x2
 5793 03de 91       		.byte	0x91
 5794 03df 64       		.sleb128 -28
 5795 03e0 00000000 		.4byte	0
 5796 03e4 00000000 		.4byte	0
 5797              	.LLST15:
 5798 03e8 00000000 		.4byte	.LVL79
 5799 03ec 14000000 		.4byte	.LVL80
 5800 03f0 0100     		.2byte	0x1
 5801 03f2 50       		.byte	0x50
 5802 03f3 14000000 		.4byte	.LVL80
 5803 03f7 AC000000 		.4byte	.LFE17
 5804 03fb 0400     		.2byte	0x4
 5805 03fd F3       		.byte	0xf3
ARM GAS  C:\Users\ADMINI~1\AppData\Local\Temp\ccA9rFPz.s 			page 121


 5806 03fe 01       		.uleb128 0x1
 5807 03ff 50       		.byte	0x50
 5808 0400 9F       		.byte	0x9f
 5809 0401 00000000 		.4byte	0
 5810 0405 00000000 		.4byte	0
 5811              	.LLST16:
 5812 0409 00000000 		.4byte	.LVL79
 5813 040d 16000000 		.4byte	.LVL81
 5814 0411 0100     		.2byte	0x1
 5815 0413 51       		.byte	0x51
 5816 0414 16000000 		.4byte	.LVL81
 5817 0418 8A000000 		.4byte	.LVL96
 5818 041c 0100     		.2byte	0x1
 5819 041e 57       		.byte	0x57
 5820 041f 8A000000 		.4byte	.LVL96
 5821 0423 AC000000 		.4byte	.LFE17
 5822 0427 0400     		.2byte	0x4
 5823 0429 F3       		.byte	0xf3
 5824 042a 01       		.uleb128 0x1
 5825 042b 51       		.byte	0x51
 5826 042c 9F       		.byte	0x9f
 5827 042d 00000000 		.4byte	0
 5828 0431 00000000 		.4byte	0
 5829              	.LLST17:
 5830 0435 76000000 		.4byte	.LVL90
 5831 0439 8A000000 		.4byte	.LVL94
 5832 043d 0100     		.2byte	0x1
 5833 043f 54       		.byte	0x54
 5834 0440 00000000 		.4byte	0
 5835 0444 00000000 		.4byte	0
 5836              	.LLST18:
 5837 0448 00000000 		.4byte	.LVL79
 5838 044c 1E000000 		.4byte	.LVL83
 5839 0450 0200     		.2byte	0x2
 5840 0452 30       		.byte	0x30
 5841 0453 9F       		.byte	0x9f
 5842 0454 1E000000 		.4byte	.LVL83
 5843 0458 8A000000 		.4byte	.LVL95
 5844 045c 0100     		.2byte	0x1
 5845 045e 55       		.byte	0x55
 5846 045f 8A000000 		.4byte	.LVL95
 5847 0463 AC000000 		.4byte	.LFE17
 5848 0467 0100     		.2byte	0x1
 5849 0469 50       		.byte	0x50
 5850 046a 00000000 		.4byte	0
 5851 046e 00000000 		.4byte	0
 5852              	.LLST19:
 5853 0472 68000000 		.4byte	.LVL89
 5854 0476 80000000 		.4byte	.LVL91
 5855 047a 0600     		.2byte	0x6
 5856 047c 50       		.byte	0x50
 5857 047d 93       		.byte	0x93
 5858 047e 04       		.uleb128 0x4
 5859 047f 51       		.byte	0x51
 5860 0480 93       		.byte	0x93
 5861 0481 04       		.uleb128 0x4
 5862 0482 00000000 		.4byte	0
ARM GAS  C:\Users\ADMINI~1\AppData\Local\Temp\ccA9rFPz.s 			page 122


 5863 0486 00000000 		.4byte	0
 5864              	.LLST20:
 5865 048a 00000000 		.4byte	.LVL97
 5866 048e 0E000000 		.4byte	.LVL99
 5867 0492 0100     		.2byte	0x1
 5868 0494 50       		.byte	0x50
 5869 0495 0E000000 		.4byte	.LVL99
 5870 0499 20000000 		.4byte	.LVL101
 5871 049d 0100     		.2byte	0x1
 5872 049f 56       		.byte	0x56
 5873 04a0 20000000 		.4byte	.LVL101
 5874 04a4 9C000000 		.4byte	.LFE20
 5875 04a8 0400     		.2byte	0x4
 5876 04aa F3       		.byte	0xf3
 5877 04ab 01       		.uleb128 0x1
 5878 04ac 50       		.byte	0x50
 5879 04ad 9F       		.byte	0x9f
 5880 04ae 00000000 		.4byte	0
 5881 04b2 00000000 		.4byte	0
 5882              	.LLST21:
 5883 04b6 0C000000 		.4byte	.LVL98
 5884 04ba 0E000000 		.4byte	.LVL99
 5885 04be 0100     		.2byte	0x1
 5886 04c0 50       		.byte	0x50
 5887 04c1 0E000000 		.4byte	.LVL99
 5888 04c5 20000000 		.4byte	.LVL101
 5889 04c9 0100     		.2byte	0x1
 5890 04cb 56       		.byte	0x56
 5891 04cc 20000000 		.4byte	.LVL101
 5892 04d0 94000000 		.4byte	.LVL110
 5893 04d4 0400     		.2byte	0x4
 5894 04d6 F3       		.byte	0xf3
 5895 04d7 01       		.uleb128 0x1
 5896 04d8 50       		.byte	0x50
 5897 04d9 9F       		.byte	0x9f
 5898 04da 00000000 		.4byte	0
 5899 04de 00000000 		.4byte	0
 5900              	.LLST22:
 5901 04e2 22000000 		.4byte	.LVL102
 5902 04e6 24000000 		.4byte	.LVL103
 5903 04ea 0100     		.2byte	0x1
 5904 04ec 50       		.byte	0x50
 5905 04ed 24000000 		.4byte	.LVL103
 5906 04f1 94000000 		.4byte	.LVL110
 5907 04f5 0100     		.2byte	0x1
 5908 04f7 55       		.byte	0x55
 5909 04f8 00000000 		.4byte	0
 5910 04fc 00000000 		.4byte	0
 5911              	.LLST23:
 5912 0500 86000000 		.4byte	.LVL108
 5913 0504 91000000 		.4byte	.LVL109-1
 5914 0508 0100     		.2byte	0x1
 5915 050a 53       		.byte	0x53
 5916 050b 00000000 		.4byte	0
 5917 050f 00000000 		.4byte	0
 5918              	.LLST24:
 5919 0513 00000000 		.4byte	.LVL111
ARM GAS  C:\Users\ADMINI~1\AppData\Local\Temp\ccA9rFPz.s 			page 123


 5920 0517 0B000000 		.4byte	.LVL112-1
 5921 051b 0100     		.2byte	0x1
 5922 051d 50       		.byte	0x50
 5923 051e 0B000000 		.4byte	.LVL112-1
 5924 0522 18000000 		.4byte	.LVL117
 5925 0526 0100     		.2byte	0x1
 5926 0528 55       		.byte	0x55
 5927 0529 18000000 		.4byte	.LVL117
 5928 052d 20000000 		.4byte	.LFE18
 5929 0531 0400     		.2byte	0x4
 5930 0533 F3       		.byte	0xf3
 5931 0534 01       		.uleb128 0x1
 5932 0535 50       		.byte	0x50
 5933 0536 9F       		.byte	0x9f
 5934 0537 00000000 		.4byte	0
 5935 053b 00000000 		.4byte	0
 5936              	.LLST25:
 5937 053f 10000000 		.4byte	.LVL113
 5938 0543 12000000 		.4byte	.LVL114
 5939 0547 0100     		.2byte	0x1
 5940 0549 50       		.byte	0x50
 5941 054a 12000000 		.4byte	.LVL114
 5942 054e 16000000 		.4byte	.LVL115
 5943 0552 0100     		.2byte	0x1
 5944 0554 54       		.byte	0x54
 5945 0555 16000000 		.4byte	.LVL115
 5946 0559 18000000 		.4byte	.LVL116
 5947 055d 0600     		.2byte	0x6
 5948 055f 70       		.byte	0x70
 5949 0560 00       		.sleb128 0
 5950 0561 74       		.byte	0x74
 5951 0562 00       		.sleb128 0
 5952 0563 21       		.byte	0x21
 5953 0564 9F       		.byte	0x9f
 5954 0565 18000000 		.4byte	.LVL116
 5955 0569 20000000 		.4byte	.LFE18
 5956 056d 0100     		.2byte	0x1
 5957 056f 50       		.byte	0x50
 5958 0570 00000000 		.4byte	0
 5959 0574 00000000 		.4byte	0
 5960              	.LLST26:
 5961 0578 00000000 		.4byte	.LVL118
 5962 057c 0E000000 		.4byte	.LVL120
 5963 0580 0100     		.2byte	0x1
 5964 0582 50       		.byte	0x50
 5965 0583 0E000000 		.4byte	.LVL120
 5966 0587 78000000 		.4byte	.LVL130
 5967 058b 0100     		.2byte	0x1
 5968 058d 57       		.byte	0x57
 5969 058e 78000000 		.4byte	.LVL130
 5970 0592 84000000 		.4byte	.LFE23
 5971 0596 0400     		.2byte	0x4
 5972 0598 F3       		.byte	0xf3
 5973 0599 01       		.uleb128 0x1
 5974 059a 50       		.byte	0x50
 5975 059b 9F       		.byte	0x9f
 5976 059c 00000000 		.4byte	0
ARM GAS  C:\Users\ADMINI~1\AppData\Local\Temp\ccA9rFPz.s 			page 124


 5977 05a0 00000000 		.4byte	0
 5978              	.LLST27:
 5979 05a4 0C000000 		.4byte	.LVL119
 5980 05a8 0E000000 		.4byte	.LVL120
 5981 05ac 0100     		.2byte	0x1
 5982 05ae 50       		.byte	0x50
 5983 05af 0E000000 		.4byte	.LVL120
 5984 05b3 78000000 		.4byte	.LVL130
 5985 05b7 0100     		.2byte	0x1
 5986 05b9 57       		.byte	0x57
 5987 05ba 00000000 		.4byte	0
 5988 05be 00000000 		.4byte	0
 5989              	.LLST28:
 5990 05c2 26000000 		.4byte	.LVL122
 5991 05c6 28000000 		.4byte	.LVL123
 5992 05ca 0100     		.2byte	0x1
 5993 05cc 50       		.byte	0x50
 5994 05cd 28000000 		.4byte	.LVL123
 5995 05d1 78000000 		.4byte	.LVL130
 5996 05d5 0100     		.2byte	0x1
 5997 05d7 56       		.byte	0x56
 5998 05d8 00000000 		.4byte	0
 5999 05dc 00000000 		.4byte	0
 6000              	.LLST29:
 6001 05e0 52000000 		.4byte	.LVL126
 6002 05e4 78000000 		.4byte	.LVL130
 6003 05e8 0100     		.2byte	0x1
 6004 05ea 55       		.byte	0x55
 6005 05eb 00000000 		.4byte	0
 6006 05ef 00000000 		.4byte	0
 6007              	.LLST30:
 6008 05f3 00000000 		.4byte	.LVL131
 6009 05f7 0B000000 		.4byte	.LVL132-1
 6010 05fb 0100     		.2byte	0x1
 6011 05fd 50       		.byte	0x50
 6012 05fe 0B000000 		.4byte	.LVL132-1
 6013 0602 12000000 		.4byte	.LVL133
 6014 0606 0100     		.2byte	0x1
 6015 0608 54       		.byte	0x54
 6016 0609 12000000 		.4byte	.LVL133
 6017 060d 2C000000 		.4byte	.LFE21
 6018 0611 0400     		.2byte	0x4
 6019 0613 F3       		.byte	0xf3
 6020 0614 01       		.uleb128 0x1
 6021 0615 50       		.byte	0x50
 6022 0616 9F       		.byte	0x9f
 6023 0617 00000000 		.4byte	0
 6024 061b 00000000 		.4byte	0
 6025              	.LLST31:
 6026 061f 14000000 		.4byte	.LVL134
 6027 0623 16000000 		.4byte	.LVL135
 6028 0627 0100     		.2byte	0x1
 6029 0629 50       		.byte	0x50
 6030 062a 16000000 		.4byte	.LVL135
 6031 062e 22000000 		.4byte	.LVL138
 6032 0632 0100     		.2byte	0x1
 6033 0634 55       		.byte	0x55
ARM GAS  C:\Users\ADMINI~1\AppData\Local\Temp\ccA9rFPz.s 			page 125


 6034 0635 22000000 		.4byte	.LVL138
 6035 0639 24000000 		.4byte	.LVL139
 6036 063d 0600     		.2byte	0x6
 6037 063f 75       		.byte	0x75
 6038 0640 00       		.sleb128 0
 6039 0641 70       		.byte	0x70
 6040 0642 00       		.sleb128 0
 6041 0643 21       		.byte	0x21
 6042 0644 9F       		.byte	0x9f
 6043 0645 24000000 		.4byte	.LVL139
 6044 0649 2C000000 		.4byte	.LFE21
 6045 064d 0100     		.2byte	0x1
 6046 064f 50       		.byte	0x50
 6047 0650 00000000 		.4byte	0
 6048 0654 00000000 		.4byte	0
 6049              	.LLST32:
 6050 0658 00000000 		.4byte	.LVL140
 6051 065c 14000000 		.4byte	.LVL142
 6052 0660 0100     		.2byte	0x1
 6053 0662 50       		.byte	0x50
 6054 0663 14000000 		.4byte	.LVL142
 6055 0667 BC010000 		.4byte	.LFE9
 6056 066b 0400     		.2byte	0x4
 6057 066d F3       		.byte	0xf3
 6058 066e 01       		.uleb128 0x1
 6059 066f 50       		.byte	0x50
 6060 0670 9F       		.byte	0x9f
 6061 0671 00000000 		.4byte	0
 6062 0675 00000000 		.4byte	0
 6063              	.LLST33:
 6064 0679 00000000 		.4byte	.LVL140
 6065 067d 12000000 		.4byte	.LVL141
 6066 0681 0100     		.2byte	0x1
 6067 0683 51       		.byte	0x51
 6068 0684 12000000 		.4byte	.LVL141
 6069 0688 96000000 		.4byte	.LVL160
 6070 068c 0300     		.2byte	0x3
 6071 068e 91       		.byte	0x91
 6072 068f B47F     		.sleb128 -76
 6073 0691 96000000 		.4byte	.LVL160
 6074 0695 BC010000 		.4byte	.LFE9
 6075 0699 0400     		.2byte	0x4
 6076 069b F3       		.byte	0xf3
 6077 069c 01       		.uleb128 0x1
 6078 069d 51       		.byte	0x51
 6079 069e 9F       		.byte	0x9f
 6080 069f 00000000 		.4byte	0
 6081 06a3 00000000 		.4byte	0
 6082              	.LLST34:
 6083 06a7 00000000 		.4byte	.LVL140
 6084 06ab 3A000000 		.4byte	.LVL145
 6085 06af 0200     		.2byte	0x2
 6086 06b1 30       		.byte	0x30
 6087 06b2 9F       		.byte	0x9f
 6088 06b3 3A000000 		.4byte	.LVL145
 6089 06b7 3C000000 		.4byte	.LVL146
 6090 06bb 0100     		.2byte	0x1
ARM GAS  C:\Users\ADMINI~1\AppData\Local\Temp\ccA9rFPz.s 			page 126


 6091 06bd 50       		.byte	0x50
 6092 06be 3C000000 		.4byte	.LVL146
 6093 06c2 90000000 		.4byte	.LVL158
 6094 06c6 0100     		.2byte	0x1
 6095 06c8 57       		.byte	0x57
 6096 06c9 90000000 		.4byte	.LVL158
 6097 06cd 93000000 		.4byte	.LVL159-1
 6098 06d1 0100     		.2byte	0x1
 6099 06d3 50       		.byte	0x50
 6100 06d4 93000000 		.4byte	.LVL159-1
 6101 06d8 96000000 		.4byte	.LVL160
 6102 06dc 0200     		.2byte	0x2
 6103 06de 7D       		.byte	0x7d
 6104 06df 00       		.sleb128 0
 6105 06e0 96000000 		.4byte	.LVL160
 6106 06e4 98000000 		.4byte	.LVL161
 6107 06e8 0700     		.2byte	0x7
 6108 06ea 70       		.byte	0x70
 6109 06eb 00       		.sleb128 0
 6110 06ec 7D       		.byte	0x7d
 6111 06ed 00       		.sleb128 0
 6112 06ee 06       		.byte	0x6
 6113 06ef 21       		.byte	0x21
 6114 06f0 9F       		.byte	0x9f
 6115 06f1 98000000 		.4byte	.LVL161
 6116 06f5 AA000000 		.4byte	.LVL163
 6117 06f9 0900     		.2byte	0x9
 6118 06fb 91       		.byte	0x91
 6119 06fc B47F     		.sleb128 -76
 6120 06fe 06       		.byte	0x6
 6121 06ff 7D       		.byte	0x7d
 6122 0700 00       		.sleb128 0
 6123 0701 06       		.byte	0x6
 6124 0702 21       		.byte	0x21
 6125 0703 9F       		.byte	0x9f
 6126 0704 AA000000 		.4byte	.LVL163
 6127 0708 B0000000 		.4byte	.LVL164
 6128 070c 0C00     		.2byte	0xc
 6129 070e 91       		.byte	0x91
 6130 070f B47F     		.sleb128 -76
 6131 0711 06       		.byte	0x6
 6132 0712 7D       		.byte	0x7d
 6133 0713 00       		.sleb128 0
 6134 0714 06       		.byte	0x6
 6135 0715 21       		.byte	0x21
 6136 0716 70       		.byte	0x70
 6137 0717 00       		.sleb128 0
 6138 0718 21       		.byte	0x21
 6139 0719 9F       		.byte	0x9f
 6140 071a B0000000 		.4byte	.LVL164
 6141 071e BA000000 		.4byte	.LVL166
 6142 0722 0E00     		.2byte	0xe
 6143 0724 91       		.byte	0x91
 6144 0725 B47F     		.sleb128 -76
 6145 0727 06       		.byte	0x6
 6146 0728 7D       		.byte	0x7d
 6147 0729 00       		.sleb128 0
ARM GAS  C:\Users\ADMINI~1\AppData\Local\Temp\ccA9rFPz.s 			page 127


 6148 072a 06       		.byte	0x6
 6149 072b 21       		.byte	0x21
 6150 072c 91       		.byte	0x91
 6151 072d B87F     		.sleb128 -72
 6152 072f 06       		.byte	0x6
 6153 0730 21       		.byte	0x21
 6154 0731 9F       		.byte	0x9f
 6155 0732 BA000000 		.4byte	.LVL166
 6156 0736 BE000000 		.4byte	.LVL167
 6157 073a 1100     		.2byte	0x11
 6158 073c 91       		.byte	0x91
 6159 073d B47F     		.sleb128 -76
 6160 073f 06       		.byte	0x6
 6161 0740 7D       		.byte	0x7d
 6162 0741 00       		.sleb128 0
 6163 0742 06       		.byte	0x6
 6164 0743 21       		.byte	0x21
 6165 0744 91       		.byte	0x91
 6166 0745 B87F     		.sleb128 -72
 6167 0747 06       		.byte	0x6
 6168 0748 21       		.byte	0x21
 6169 0749 70       		.byte	0x70
 6170 074a 00       		.sleb128 0
 6171 074b 21       		.byte	0x21
 6172 074c 9F       		.byte	0x9f
 6173 074d BE000000 		.4byte	.LVL167
 6174 0751 CA000000 		.4byte	.LVL169
 6175 0755 1300     		.2byte	0x13
 6176 0757 91       		.byte	0x91
 6177 0758 B47F     		.sleb128 -76
 6178 075a 06       		.byte	0x6
 6179 075b 7D       		.byte	0x7d
 6180 075c 00       		.sleb128 0
 6181 075d 06       		.byte	0x6
 6182 075e 21       		.byte	0x21
 6183 075f 91       		.byte	0x91
 6184 0760 B87F     		.sleb128 -72
 6185 0762 06       		.byte	0x6
 6186 0763 21       		.byte	0x21
 6187 0764 91       		.byte	0x91
 6188 0765 BC7F     		.sleb128 -68
 6189 0767 06       		.byte	0x6
 6190 0768 21       		.byte	0x21
 6191 0769 9F       		.byte	0x9f
 6192 076a CA000000 		.4byte	.LVL169
 6193 076e D2000000 		.4byte	.LVL170
 6194 0772 1600     		.2byte	0x16
 6195 0774 91       		.byte	0x91
 6196 0775 B47F     		.sleb128 -76
 6197 0777 06       		.byte	0x6
 6198 0778 7D       		.byte	0x7d
 6199 0779 00       		.sleb128 0
 6200 077a 06       		.byte	0x6
 6201 077b 21       		.byte	0x21
 6202 077c 91       		.byte	0x91
 6203 077d B87F     		.sleb128 -72
 6204 077f 06       		.byte	0x6
ARM GAS  C:\Users\ADMINI~1\AppData\Local\Temp\ccA9rFPz.s 			page 128


 6205 0780 21       		.byte	0x21
 6206 0781 91       		.byte	0x91
 6207 0782 BC7F     		.sleb128 -68
 6208 0784 06       		.byte	0x6
 6209 0785 21       		.byte	0x21
 6210 0786 70       		.byte	0x70
 6211 0787 00       		.sleb128 0
 6212 0788 21       		.byte	0x21
 6213 0789 9F       		.byte	0x9f
 6214 078a D2000000 		.4byte	.LVL170
 6215 078e DA000000 		.4byte	.LVL172
 6216 0792 1700     		.2byte	0x17
 6217 0794 91       		.byte	0x91
 6218 0795 B47F     		.sleb128 -76
 6219 0797 06       		.byte	0x6
 6220 0798 7D       		.byte	0x7d
 6221 0799 00       		.sleb128 0
 6222 079a 06       		.byte	0x6
 6223 079b 21       		.byte	0x21
 6224 079c 91       		.byte	0x91
 6225 079d B87F     		.sleb128 -72
 6226 079f 06       		.byte	0x6
 6227 07a0 21       		.byte	0x21
 6228 07a1 91       		.byte	0x91
 6229 07a2 BC7F     		.sleb128 -68
 6230 07a4 06       		.byte	0x6
 6231 07a5 21       		.byte	0x21
 6232 07a6 91       		.byte	0x91
 6233 07a7 40       		.sleb128 -64
 6234 07a8 06       		.byte	0x6
 6235 07a9 21       		.byte	0x21
 6236 07aa 9F       		.byte	0x9f
 6237 07ab DA000000 		.4byte	.LVL172
 6238 07af DE000000 		.4byte	.LVL173
 6239 07b3 1A00     		.2byte	0x1a
 6240 07b5 91       		.byte	0x91
 6241 07b6 B47F     		.sleb128 -76
 6242 07b8 06       		.byte	0x6
 6243 07b9 7D       		.byte	0x7d
 6244 07ba 00       		.sleb128 0
 6245 07bb 06       		.byte	0x6
 6246 07bc 21       		.byte	0x21
 6247 07bd 91       		.byte	0x91
 6248 07be B87F     		.sleb128 -72
 6249 07c0 06       		.byte	0x6
 6250 07c1 21       		.byte	0x21
 6251 07c2 91       		.byte	0x91
 6252 07c3 BC7F     		.sleb128 -68
 6253 07c5 06       		.byte	0x6
 6254 07c6 21       		.byte	0x21
 6255 07c7 91       		.byte	0x91
 6256 07c8 40       		.sleb128 -64
 6257 07c9 06       		.byte	0x6
 6258 07ca 21       		.byte	0x21
 6259 07cb 70       		.byte	0x70
 6260 07cc 00       		.sleb128 0
 6261 07cd 21       		.byte	0x21
ARM GAS  C:\Users\ADMINI~1\AppData\Local\Temp\ccA9rFPz.s 			page 129


 6262 07ce 9F       		.byte	0x9f
 6263 07cf DE000000 		.4byte	.LVL173
 6264 07d3 10010000 		.4byte	.LVL179
 6265 07d7 1B00     		.2byte	0x1b
 6266 07d9 91       		.byte	0x91
 6267 07da B47F     		.sleb128 -76
 6268 07dc 06       		.byte	0x6
 6269 07dd 7D       		.byte	0x7d
 6270 07de 00       		.sleb128 0
 6271 07df 06       		.byte	0x6
 6272 07e0 21       		.byte	0x21
 6273 07e1 91       		.byte	0x91
 6274 07e2 B87F     		.sleb128 -72
 6275 07e4 06       		.byte	0x6
 6276 07e5 21       		.byte	0x21
 6277 07e6 91       		.byte	0x91
 6278 07e7 BC7F     		.sleb128 -68
 6279 07e9 06       		.byte	0x6
 6280 07ea 21       		.byte	0x21
 6281 07eb 91       		.byte	0x91
 6282 07ec 40       		.sleb128 -64
 6283 07ed 06       		.byte	0x6
 6284 07ee 21       		.byte	0x21
 6285 07ef 91       		.byte	0x91
 6286 07f0 44       		.sleb128 -60
 6287 07f1 06       		.byte	0x6
 6288 07f2 21       		.byte	0x21
 6289 07f3 9F       		.byte	0x9f
 6290 07f4 10010000 		.4byte	.LVL179
 6291 07f8 12010000 		.4byte	.LVL180
 6292 07fc 1E00     		.2byte	0x1e
 6293 07fe 91       		.byte	0x91
 6294 07ff B47F     		.sleb128 -76
 6295 0801 06       		.byte	0x6
 6296 0802 7D       		.byte	0x7d
 6297 0803 00       		.sleb128 0
 6298 0804 06       		.byte	0x6
 6299 0805 21       		.byte	0x21
 6300 0806 91       		.byte	0x91
 6301 0807 B87F     		.sleb128 -72
 6302 0809 06       		.byte	0x6
 6303 080a 21       		.byte	0x21
 6304 080b 91       		.byte	0x91
 6305 080c BC7F     		.sleb128 -68
 6306 080e 06       		.byte	0x6
 6307 080f 21       		.byte	0x21
 6308 0810 91       		.byte	0x91
 6309 0811 40       		.sleb128 -64
 6310 0812 06       		.byte	0x6
 6311 0813 21       		.byte	0x21
 6312 0814 91       		.byte	0x91
 6313 0815 44       		.sleb128 -60
 6314 0816 06       		.byte	0x6
 6315 0817 21       		.byte	0x21
 6316 0818 70       		.byte	0x70
 6317 0819 00       		.sleb128 0
 6318 081a 21       		.byte	0x21
ARM GAS  C:\Users\ADMINI~1\AppData\Local\Temp\ccA9rFPz.s 			page 130


 6319 081b 9F       		.byte	0x9f
 6320 081c 12010000 		.4byte	.LVL180
 6321 0820 1A010000 		.4byte	.LVL182
 6322 0824 1F00     		.2byte	0x1f
 6323 0826 91       		.byte	0x91
 6324 0827 B47F     		.sleb128 -76
 6325 0829 06       		.byte	0x6
 6326 082a 7D       		.byte	0x7d
 6327 082b 00       		.sleb128 0
 6328 082c 06       		.byte	0x6
 6329 082d 21       		.byte	0x21
 6330 082e 91       		.byte	0x91
 6331 082f B87F     		.sleb128 -72
 6332 0831 06       		.byte	0x6
 6333 0832 21       		.byte	0x21
 6334 0833 91       		.byte	0x91
 6335 0834 BC7F     		.sleb128 -68
 6336 0836 06       		.byte	0x6
 6337 0837 21       		.byte	0x21
 6338 0838 91       		.byte	0x91
 6339 0839 40       		.sleb128 -64
 6340 083a 06       		.byte	0x6
 6341 083b 21       		.byte	0x21
 6342 083c 91       		.byte	0x91
 6343 083d 44       		.sleb128 -60
 6344 083e 06       		.byte	0x6
 6345 083f 21       		.byte	0x21
 6346 0840 91       		.byte	0x91
 6347 0841 48       		.sleb128 -56
 6348 0842 06       		.byte	0x6
 6349 0843 21       		.byte	0x21
 6350 0844 9F       		.byte	0x9f
 6351 0845 1A010000 		.4byte	.LVL182
 6352 0849 1C010000 		.4byte	.LVL183
 6353 084d 2200     		.2byte	0x22
 6354 084f 91       		.byte	0x91
 6355 0850 B47F     		.sleb128 -76
 6356 0852 06       		.byte	0x6
 6357 0853 7D       		.byte	0x7d
 6358 0854 00       		.sleb128 0
 6359 0855 06       		.byte	0x6
 6360 0856 21       		.byte	0x21
 6361 0857 91       		.byte	0x91
 6362 0858 B87F     		.sleb128 -72
 6363 085a 06       		.byte	0x6
 6364 085b 21       		.byte	0x21
 6365 085c 91       		.byte	0x91
 6366 085d BC7F     		.sleb128 -68
 6367 085f 06       		.byte	0x6
 6368 0860 21       		.byte	0x21
 6369 0861 91       		.byte	0x91
 6370 0862 40       		.sleb128 -64
 6371 0863 06       		.byte	0x6
 6372 0864 21       		.byte	0x21
 6373 0865 91       		.byte	0x91
 6374 0866 44       		.sleb128 -60
 6375 0867 06       		.byte	0x6
ARM GAS  C:\Users\ADMINI~1\AppData\Local\Temp\ccA9rFPz.s 			page 131


 6376 0868 21       		.byte	0x21
 6377 0869 91       		.byte	0x91
 6378 086a 48       		.sleb128 -56
 6379 086b 06       		.byte	0x6
 6380 086c 21       		.byte	0x21
 6381 086d 70       		.byte	0x70
 6382 086e 00       		.sleb128 0
 6383 086f 21       		.byte	0x21
 6384 0870 9F       		.byte	0x9f
 6385 0871 1C010000 		.4byte	.LVL183
 6386 0875 24010000 		.4byte	.LVL185
 6387 0879 2300     		.2byte	0x23
 6388 087b 91       		.byte	0x91
 6389 087c B47F     		.sleb128 -76
 6390 087e 06       		.byte	0x6
 6391 087f 7D       		.byte	0x7d
 6392 0880 00       		.sleb128 0
 6393 0881 06       		.byte	0x6
 6394 0882 21       		.byte	0x21
 6395 0883 91       		.byte	0x91
 6396 0884 B87F     		.sleb128 -72
 6397 0886 06       		.byte	0x6
 6398 0887 21       		.byte	0x21
 6399 0888 91       		.byte	0x91
 6400 0889 BC7F     		.sleb128 -68
 6401 088b 06       		.byte	0x6
 6402 088c 21       		.byte	0x21
 6403 088d 91       		.byte	0x91
 6404 088e 40       		.sleb128 -64
 6405 088f 06       		.byte	0x6
 6406 0890 21       		.byte	0x21
 6407 0891 91       		.byte	0x91
 6408 0892 44       		.sleb128 -60
 6409 0893 06       		.byte	0x6
 6410 0894 21       		.byte	0x21
 6411 0895 91       		.byte	0x91
 6412 0896 48       		.sleb128 -56
 6413 0897 06       		.byte	0x6
 6414 0898 21       		.byte	0x21
 6415 0899 91       		.byte	0x91
 6416 089a 4C       		.sleb128 -52
 6417 089b 06       		.byte	0x6
 6418 089c 21       		.byte	0x21
 6419 089d 9F       		.byte	0x9f
 6420 089e 24010000 		.4byte	.LVL185
 6421 08a2 26010000 		.4byte	.LVL186
 6422 08a6 2600     		.2byte	0x26
 6423 08a8 91       		.byte	0x91
 6424 08a9 B47F     		.sleb128 -76
 6425 08ab 06       		.byte	0x6
 6426 08ac 7D       		.byte	0x7d
 6427 08ad 00       		.sleb128 0
 6428 08ae 06       		.byte	0x6
 6429 08af 21       		.byte	0x21
 6430 08b0 91       		.byte	0x91
 6431 08b1 B87F     		.sleb128 -72
 6432 08b3 06       		.byte	0x6
ARM GAS  C:\Users\ADMINI~1\AppData\Local\Temp\ccA9rFPz.s 			page 132


 6433 08b4 21       		.byte	0x21
 6434 08b5 91       		.byte	0x91
 6435 08b6 BC7F     		.sleb128 -68
 6436 08b8 06       		.byte	0x6
 6437 08b9 21       		.byte	0x21
 6438 08ba 91       		.byte	0x91
 6439 08bb 40       		.sleb128 -64
 6440 08bc 06       		.byte	0x6
 6441 08bd 21       		.byte	0x21
 6442 08be 91       		.byte	0x91
 6443 08bf 44       		.sleb128 -60
 6444 08c0 06       		.byte	0x6
 6445 08c1 21       		.byte	0x21
 6446 08c2 91       		.byte	0x91
 6447 08c3 48       		.sleb128 -56
 6448 08c4 06       		.byte	0x6
 6449 08c5 21       		.byte	0x21
 6450 08c6 91       		.byte	0x91
 6451 08c7 4C       		.sleb128 -52
 6452 08c8 06       		.byte	0x6
 6453 08c9 21       		.byte	0x21
 6454 08ca 70       		.byte	0x70
 6455 08cb 00       		.sleb128 0
 6456 08cc 21       		.byte	0x21
 6457 08cd 9F       		.byte	0x9f
 6458 08ce 26010000 		.4byte	.LVL186
 6459 08d2 2E010000 		.4byte	.LVL188
 6460 08d6 2700     		.2byte	0x27
 6461 08d8 91       		.byte	0x91
 6462 08d9 B47F     		.sleb128 -76
 6463 08db 06       		.byte	0x6
 6464 08dc 7D       		.byte	0x7d
 6465 08dd 00       		.sleb128 0
 6466 08de 06       		.byte	0x6
 6467 08df 21       		.byte	0x21
 6468 08e0 91       		.byte	0x91
 6469 08e1 B87F     		.sleb128 -72
 6470 08e3 06       		.byte	0x6
 6471 08e4 21       		.byte	0x21
 6472 08e5 91       		.byte	0x91
 6473 08e6 BC7F     		.sleb128 -68
 6474 08e8 06       		.byte	0x6
 6475 08e9 21       		.byte	0x21
 6476 08ea 91       		.byte	0x91
 6477 08eb 40       		.sleb128 -64
 6478 08ec 06       		.byte	0x6
 6479 08ed 21       		.byte	0x21
 6480 08ee 91       		.byte	0x91
 6481 08ef 44       		.sleb128 -60
 6482 08f0 06       		.byte	0x6
 6483 08f1 21       		.byte	0x21
 6484 08f2 91       		.byte	0x91
 6485 08f3 48       		.sleb128 -56
 6486 08f4 06       		.byte	0x6
 6487 08f5 21       		.byte	0x21
 6488 08f6 91       		.byte	0x91
 6489 08f7 4C       		.sleb128 -52
ARM GAS  C:\Users\ADMINI~1\AppData\Local\Temp\ccA9rFPz.s 			page 133


 6490 08f8 06       		.byte	0x6
 6491 08f9 21       		.byte	0x21
 6492 08fa 91       		.byte	0x91
 6493 08fb 50       		.sleb128 -48
 6494 08fc 06       		.byte	0x6
 6495 08fd 21       		.byte	0x21
 6496 08fe 9F       		.byte	0x9f
 6497 08ff 2E010000 		.4byte	.LVL188
 6498 0903 30010000 		.4byte	.LVL189
 6499 0907 2A00     		.2byte	0x2a
 6500 0909 91       		.byte	0x91
 6501 090a B47F     		.sleb128 -76
 6502 090c 06       		.byte	0x6
 6503 090d 7D       		.byte	0x7d
 6504 090e 00       		.sleb128 0
 6505 090f 06       		.byte	0x6
 6506 0910 21       		.byte	0x21
 6507 0911 91       		.byte	0x91
 6508 0912 B87F     		.sleb128 -72
 6509 0914 06       		.byte	0x6
 6510 0915 21       		.byte	0x21
 6511 0916 91       		.byte	0x91
 6512 0917 BC7F     		.sleb128 -68
 6513 0919 06       		.byte	0x6
 6514 091a 21       		.byte	0x21
 6515 091b 91       		.byte	0x91
 6516 091c 40       		.sleb128 -64
 6517 091d 06       		.byte	0x6
 6518 091e 21       		.byte	0x21
 6519 091f 91       		.byte	0x91
 6520 0920 44       		.sleb128 -60
 6521 0921 06       		.byte	0x6
 6522 0922 21       		.byte	0x21
 6523 0923 91       		.byte	0x91
 6524 0924 48       		.sleb128 -56
 6525 0925 06       		.byte	0x6
 6526 0926 21       		.byte	0x21
 6527 0927 91       		.byte	0x91
 6528 0928 4C       		.sleb128 -52
 6529 0929 06       		.byte	0x6
 6530 092a 21       		.byte	0x21
 6531 092b 91       		.byte	0x91
 6532 092c 50       		.sleb128 -48
 6533 092d 06       		.byte	0x6
 6534 092e 21       		.byte	0x21
 6535 092f 70       		.byte	0x70
 6536 0930 00       		.sleb128 0
 6537 0931 21       		.byte	0x21
 6538 0932 9F       		.byte	0x9f
 6539 0933 30010000 		.4byte	.LVL189
 6540 0937 38010000 		.4byte	.LVL191
 6541 093b 2B00     		.2byte	0x2b
 6542 093d 91       		.byte	0x91
 6543 093e B47F     		.sleb128 -76
 6544 0940 06       		.byte	0x6
 6545 0941 7D       		.byte	0x7d
 6546 0942 00       		.sleb128 0
ARM GAS  C:\Users\ADMINI~1\AppData\Local\Temp\ccA9rFPz.s 			page 134


 6547 0943 06       		.byte	0x6
 6548 0944 21       		.byte	0x21
 6549 0945 91       		.byte	0x91
 6550 0946 B87F     		.sleb128 -72
 6551 0948 06       		.byte	0x6
 6552 0949 21       		.byte	0x21
 6553 094a 91       		.byte	0x91
 6554 094b BC7F     		.sleb128 -68
 6555 094d 06       		.byte	0x6
 6556 094e 21       		.byte	0x21
 6557 094f 91       		.byte	0x91
 6558 0950 40       		.sleb128 -64
 6559 0951 06       		.byte	0x6
 6560 0952 21       		.byte	0x21
 6561 0953 91       		.byte	0x91
 6562 0954 44       		.sleb128 -60
 6563 0955 06       		.byte	0x6
 6564 0956 21       		.byte	0x21
 6565 0957 91       		.byte	0x91
 6566 0958 48       		.sleb128 -56
 6567 0959 06       		.byte	0x6
 6568 095a 21       		.byte	0x21
 6569 095b 91       		.byte	0x91
 6570 095c 4C       		.sleb128 -52
 6571 095d 06       		.byte	0x6
 6572 095e 21       		.byte	0x21
 6573 095f 91       		.byte	0x91
 6574 0960 50       		.sleb128 -48
 6575 0961 06       		.byte	0x6
 6576 0962 21       		.byte	0x21
 6577 0963 91       		.byte	0x91
 6578 0964 54       		.sleb128 -44
 6579 0965 06       		.byte	0x6
 6580 0966 21       		.byte	0x21
 6581 0967 9F       		.byte	0x9f
 6582 0968 38010000 		.4byte	.LVL191
 6583 096c 3A010000 		.4byte	.LVL192
 6584 0970 2E00     		.2byte	0x2e
 6585 0972 91       		.byte	0x91
 6586 0973 B47F     		.sleb128 -76
 6587 0975 06       		.byte	0x6
 6588 0976 7D       		.byte	0x7d
 6589 0977 00       		.sleb128 0
 6590 0978 06       		.byte	0x6
 6591 0979 21       		.byte	0x21
 6592 097a 91       		.byte	0x91
 6593 097b B87F     		.sleb128 -72
 6594 097d 06       		.byte	0x6
 6595 097e 21       		.byte	0x21
 6596 097f 91       		.byte	0x91
 6597 0980 BC7F     		.sleb128 -68
 6598 0982 06       		.byte	0x6
 6599 0983 21       		.byte	0x21
 6600 0984 91       		.byte	0x91
 6601 0985 40       		.sleb128 -64
 6602 0986 06       		.byte	0x6
 6603 0987 21       		.byte	0x21
ARM GAS  C:\Users\ADMINI~1\AppData\Local\Temp\ccA9rFPz.s 			page 135


 6604 0988 91       		.byte	0x91
 6605 0989 44       		.sleb128 -60
 6606 098a 06       		.byte	0x6
 6607 098b 21       		.byte	0x21
 6608 098c 91       		.byte	0x91
 6609 098d 48       		.sleb128 -56
 6610 098e 06       		.byte	0x6
 6611 098f 21       		.byte	0x21
 6612 0990 91       		.byte	0x91
 6613 0991 4C       		.sleb128 -52
 6614 0992 06       		.byte	0x6
 6615 0993 21       		.byte	0x21
 6616 0994 91       		.byte	0x91
 6617 0995 50       		.sleb128 -48
 6618 0996 06       		.byte	0x6
 6619 0997 21       		.byte	0x21
 6620 0998 91       		.byte	0x91
 6621 0999 54       		.sleb128 -44
 6622 099a 06       		.byte	0x6
 6623 099b 21       		.byte	0x21
 6624 099c 70       		.byte	0x70
 6625 099d 00       		.sleb128 0
 6626 099e 21       		.byte	0x21
 6627 099f 9F       		.byte	0x9f
 6628 09a0 3A010000 		.4byte	.LVL192
 6629 09a4 42010000 		.4byte	.LVL194
 6630 09a8 2F00     		.2byte	0x2f
 6631 09aa 91       		.byte	0x91
 6632 09ab B47F     		.sleb128 -76
 6633 09ad 06       		.byte	0x6
 6634 09ae 7D       		.byte	0x7d
 6635 09af 00       		.sleb128 0
 6636 09b0 06       		.byte	0x6
 6637 09b1 21       		.byte	0x21
 6638 09b2 91       		.byte	0x91
 6639 09b3 B87F     		.sleb128 -72
 6640 09b5 06       		.byte	0x6
 6641 09b6 21       		.byte	0x21
 6642 09b7 91       		.byte	0x91
 6643 09b8 BC7F     		.sleb128 -68
 6644 09ba 06       		.byte	0x6
 6645 09bb 21       		.byte	0x21
 6646 09bc 91       		.byte	0x91
 6647 09bd 40       		.sleb128 -64
 6648 09be 06       		.byte	0x6
 6649 09bf 21       		.byte	0x21
 6650 09c0 91       		.byte	0x91
 6651 09c1 44       		.sleb128 -60
 6652 09c2 06       		.byte	0x6
 6653 09c3 21       		.byte	0x21
 6654 09c4 91       		.byte	0x91
 6655 09c5 48       		.sleb128 -56
 6656 09c6 06       		.byte	0x6
 6657 09c7 21       		.byte	0x21
 6658 09c8 91       		.byte	0x91
 6659 09c9 4C       		.sleb128 -52
 6660 09ca 06       		.byte	0x6
ARM GAS  C:\Users\ADMINI~1\AppData\Local\Temp\ccA9rFPz.s 			page 136


 6661 09cb 21       		.byte	0x21
 6662 09cc 91       		.byte	0x91
 6663 09cd 50       		.sleb128 -48
 6664 09ce 06       		.byte	0x6
 6665 09cf 21       		.byte	0x21
 6666 09d0 91       		.byte	0x91
 6667 09d1 54       		.sleb128 -44
 6668 09d2 06       		.byte	0x6
 6669 09d3 21       		.byte	0x21
 6670 09d4 91       		.byte	0x91
 6671 09d5 58       		.sleb128 -40
 6672 09d6 06       		.byte	0x6
 6673 09d7 21       		.byte	0x21
 6674 09d8 9F       		.byte	0x9f
 6675 09d9 42010000 		.4byte	.LVL194
 6676 09dd 44010000 		.4byte	.LVL195
 6677 09e1 3200     		.2byte	0x32
 6678 09e3 91       		.byte	0x91
 6679 09e4 B47F     		.sleb128 -76
 6680 09e6 06       		.byte	0x6
 6681 09e7 7D       		.byte	0x7d
 6682 09e8 00       		.sleb128 0
 6683 09e9 06       		.byte	0x6
 6684 09ea 21       		.byte	0x21
 6685 09eb 91       		.byte	0x91
 6686 09ec B87F     		.sleb128 -72
 6687 09ee 06       		.byte	0x6
 6688 09ef 21       		.byte	0x21
 6689 09f0 91       		.byte	0x91
 6690 09f1 BC7F     		.sleb128 -68
 6691 09f3 06       		.byte	0x6
 6692 09f4 21       		.byte	0x21
 6693 09f5 91       		.byte	0x91
 6694 09f6 40       		.sleb128 -64
 6695 09f7 06       		.byte	0x6
 6696 09f8 21       		.byte	0x21
 6697 09f9 91       		.byte	0x91
 6698 09fa 44       		.sleb128 -60
 6699 09fb 06       		.byte	0x6
 6700 09fc 21       		.byte	0x21
 6701 09fd 91       		.byte	0x91
 6702 09fe 48       		.sleb128 -56
 6703 09ff 06       		.byte	0x6
 6704 0a00 21       		.byte	0x21
 6705 0a01 91       		.byte	0x91
 6706 0a02 4C       		.sleb128 -52
 6707 0a03 06       		.byte	0x6
 6708 0a04 21       		.byte	0x21
 6709 0a05 91       		.byte	0x91
 6710 0a06 50       		.sleb128 -48
 6711 0a07 06       		.byte	0x6
 6712 0a08 21       		.byte	0x21
 6713 0a09 91       		.byte	0x91
 6714 0a0a 54       		.sleb128 -44
 6715 0a0b 06       		.byte	0x6
 6716 0a0c 21       		.byte	0x21
 6717 0a0d 91       		.byte	0x91
ARM GAS  C:\Users\ADMINI~1\AppData\Local\Temp\ccA9rFPz.s 			page 137


 6718 0a0e 58       		.sleb128 -40
 6719 0a0f 06       		.byte	0x6
 6720 0a10 21       		.byte	0x21
 6721 0a11 70       		.byte	0x70
 6722 0a12 00       		.sleb128 0
 6723 0a13 21       		.byte	0x21
 6724 0a14 9F       		.byte	0x9f
 6725 0a15 44010000 		.4byte	.LVL195
 6726 0a19 4C010000 		.4byte	.LVL197
 6727 0a1d 3300     		.2byte	0x33
 6728 0a1f 91       		.byte	0x91
 6729 0a20 B47F     		.sleb128 -76
 6730 0a22 06       		.byte	0x6
 6731 0a23 7D       		.byte	0x7d
 6732 0a24 00       		.sleb128 0
 6733 0a25 06       		.byte	0x6
 6734 0a26 21       		.byte	0x21
 6735 0a27 91       		.byte	0x91
 6736 0a28 B87F     		.sleb128 -72
 6737 0a2a 06       		.byte	0x6
 6738 0a2b 21       		.byte	0x21
 6739 0a2c 91       		.byte	0x91
 6740 0a2d BC7F     		.sleb128 -68
 6741 0a2f 06       		.byte	0x6
 6742 0a30 21       		.byte	0x21
 6743 0a31 91       		.byte	0x91
 6744 0a32 40       		.sleb128 -64
 6745 0a33 06       		.byte	0x6
 6746 0a34 21       		.byte	0x21
 6747 0a35 91       		.byte	0x91
 6748 0a36 44       		.sleb128 -60
 6749 0a37 06       		.byte	0x6
 6750 0a38 21       		.byte	0x21
 6751 0a39 91       		.byte	0x91
 6752 0a3a 48       		.sleb128 -56
 6753 0a3b 06       		.byte	0x6
 6754 0a3c 21       		.byte	0x21
 6755 0a3d 91       		.byte	0x91
 6756 0a3e 4C       		.sleb128 -52
 6757 0a3f 06       		.byte	0x6
 6758 0a40 21       		.byte	0x21
 6759 0a41 91       		.byte	0x91
 6760 0a42 50       		.sleb128 -48
 6761 0a43 06       		.byte	0x6
 6762 0a44 21       		.byte	0x21
 6763 0a45 91       		.byte	0x91
 6764 0a46 54       		.sleb128 -44
 6765 0a47 06       		.byte	0x6
 6766 0a48 21       		.byte	0x21
 6767 0a49 91       		.byte	0x91
 6768 0a4a 58       		.sleb128 -40
 6769 0a4b 06       		.byte	0x6
 6770 0a4c 21       		.byte	0x21
 6771 0a4d 91       		.byte	0x91
 6772 0a4e 5C       		.sleb128 -36
 6773 0a4f 06       		.byte	0x6
 6774 0a50 21       		.byte	0x21
ARM GAS  C:\Users\ADMINI~1\AppData\Local\Temp\ccA9rFPz.s 			page 138


 6775 0a51 9F       		.byte	0x9f
 6776 0a52 00000000 		.4byte	0
 6777 0a56 00000000 		.4byte	0
 6778              	.LLST35:
 6779 0a5a 00000000 		.4byte	.LVL201
 6780 0a5e 12000000 		.4byte	.LVL202
 6781 0a62 0100     		.2byte	0x1
 6782 0a64 50       		.byte	0x50
 6783 0a65 12000000 		.4byte	.LVL202
 6784 0a69 48000000 		.4byte	.LVL204
 6785 0a6d 0100     		.2byte	0x1
 6786 0a6f 54       		.byte	0x54
 6787 0a70 48000000 		.4byte	.LVL204
 6788 0a74 54000000 		.4byte	.LFE24
 6789 0a78 0400     		.2byte	0x4
 6790 0a7a F3       		.byte	0xf3
 6791 0a7b 01       		.uleb128 0x1
 6792 0a7c 50       		.byte	0x50
 6793 0a7d 9F       		.byte	0x9f
 6794 0a7e 00000000 		.4byte	0
 6795 0a82 00000000 		.4byte	0
 6796              	.LLST36:
 6797 0a86 00000000 		.4byte	.LVL201
 6798 0a8a 48000000 		.4byte	.LVL203
 6799 0a8e 0200     		.2byte	0x2
 6800 0a90 30       		.byte	0x30
 6801 0a91 9F       		.byte	0x9f
 6802 0a92 48000000 		.4byte	.LVL203
 6803 0a96 54000000 		.4byte	.LFE24
 6804 0a9a 0100     		.2byte	0x1
 6805 0a9c 50       		.byte	0x50
 6806 0a9d 00000000 		.4byte	0
 6807 0aa1 00000000 		.4byte	0
 6808              	.LLST37:
 6809 0aa5 00000000 		.4byte	.LVL205
 6810 0aa9 06000000 		.4byte	.LVL206
 6811 0aad 0100     		.2byte	0x1
 6812 0aaf 50       		.byte	0x50
 6813 0ab0 06000000 		.4byte	.LVL206
 6814 0ab4 0C000000 		.4byte	.LFE25
 6815 0ab8 0500     		.2byte	0x5
 6816 0aba 03       		.byte	0x3
 6817 0abb 0F000000 		.4byte	base_state+15
 6818 0abf 00000000 		.4byte	0
 6819 0ac3 00000000 		.4byte	0
 6820              	.LLST38:
 6821 0ac7 00000000 		.4byte	.LVL207
 6822 0acb 0E000000 		.4byte	.LVL208
 6823 0acf 0100     		.2byte	0x1
 6824 0ad1 50       		.byte	0x50
 6825 0ad2 0E000000 		.4byte	.LVL208
 6826 0ad6 2E000000 		.4byte	.LVL214
 6827 0ada 0100     		.2byte	0x1
 6828 0adc 56       		.byte	0x56
 6829 0add 2E000000 		.4byte	.LVL214
 6830 0ae1 30000000 		.4byte	.LFE26
 6831 0ae5 0400     		.2byte	0x4
ARM GAS  C:\Users\ADMINI~1\AppData\Local\Temp\ccA9rFPz.s 			page 139


 6832 0ae7 F3       		.byte	0xf3
 6833 0ae8 01       		.uleb128 0x1
 6834 0ae9 50       		.byte	0x50
 6835 0aea 9F       		.byte	0x9f
 6836 0aeb 00000000 		.4byte	0
 6837 0aef 00000000 		.4byte	0
 6838              	.LLST39:
 6839 0af3 00000000 		.4byte	.LVL207
 6840 0af7 16000000 		.4byte	.LVL210
 6841 0afb 0200     		.2byte	0x2
 6842 0afd 30       		.byte	0x30
 6843 0afe 9F       		.byte	0x9f
 6844 0aff 16000000 		.4byte	.LVL210
 6845 0b03 28000000 		.4byte	.LVL211
 6846 0b07 0100     		.2byte	0x1
 6847 0b09 50       		.byte	0x50
 6848 0b0a 28000000 		.4byte	.LVL211
 6849 0b0e 2C000000 		.4byte	.LVL212
 6850 0b12 0100     		.2byte	0x1
 6851 0b14 55       		.byte	0x55
 6852 0b15 2C000000 		.4byte	.LVL212
 6853 0b19 2E000000 		.4byte	.LVL213
 6854 0b1d 0600     		.2byte	0x6
 6855 0b1f 70       		.byte	0x70
 6856 0b20 00       		.sleb128 0
 6857 0b21 75       		.byte	0x75
 6858 0b22 00       		.sleb128 0
 6859 0b23 21       		.byte	0x21
 6860 0b24 9F       		.byte	0x9f
 6861 0b25 2E000000 		.4byte	.LVL213
 6862 0b29 30000000 		.4byte	.LFE26
 6863 0b2d 0100     		.2byte	0x1
 6864 0b2f 50       		.byte	0x50
 6865 0b30 00000000 		.4byte	0
 6866 0b34 00000000 		.4byte	0
 6867              	.LLST40:
 6868 0b38 00000000 		.4byte	.LVL215
 6869 0b3c 0A000000 		.4byte	.LVL216
 6870 0b40 0100     		.2byte	0x1
 6871 0b42 50       		.byte	0x50
 6872 0b43 0A000000 		.4byte	.LVL216
 6873 0b47 38000000 		.4byte	.LVL218
 6874 0b4b 0100     		.2byte	0x1
 6875 0b4d 54       		.byte	0x54
 6876 0b4e 38000000 		.4byte	.LVL218
 6877 0b52 3A000000 		.4byte	.LFE27
 6878 0b56 0400     		.2byte	0x4
 6879 0b58 F3       		.byte	0xf3
 6880 0b59 01       		.uleb128 0x1
 6881 0b5a 50       		.byte	0x50
 6882 0b5b 9F       		.byte	0x9f
 6883 0b5c 00000000 		.4byte	0
 6884 0b60 00000000 		.4byte	0
 6885              	.LLST41:
 6886 0b64 00000000 		.4byte	.LVL215
 6887 0b68 0E000000 		.4byte	.LVL217
 6888 0b6c 0200     		.2byte	0x2
ARM GAS  C:\Users\ADMINI~1\AppData\Local\Temp\ccA9rFPz.s 			page 140


 6889 0b6e 30       		.byte	0x30
 6890 0b6f 9F       		.byte	0x9f
 6891 0b70 0E000000 		.4byte	.LVL217
 6892 0b74 3A000000 		.4byte	.LFE27
 6893 0b78 0100     		.2byte	0x1
 6894 0b7a 50       		.byte	0x50
 6895 0b7b 00000000 		.4byte	0
 6896 0b7f 00000000 		.4byte	0
 6897              		.section	.debug_aranges,"",%progbits
 6898 0000 EC000000 		.4byte	0xec
 6899 0004 0200     		.2byte	0x2
 6900 0006 00000000 		.4byte	.Ldebug_info0
 6901 000a 04       		.byte	0x4
 6902 000b 00       		.byte	0
 6903 000c 0000     		.2byte	0
 6904 000e 0000     		.2byte	0
 6905 0010 00000000 		.4byte	.LFB0
 6906 0014 0C000000 		.4byte	.LFE0-.LFB0
 6907 0018 00000000 		.4byte	.LFB3
 6908 001c D0000000 		.4byte	.LFE3-.LFB3
 6909 0020 00000000 		.4byte	.LFB1
 6910 0024 14000000 		.4byte	.LFE1-.LFB1
 6911 0028 00000000 		.4byte	.LFB4
 6912 002c 0C000000 		.4byte	.LFE4-.LFB4
 6913 0030 00000000 		.4byte	.LFB5
 6914 0034 5C000000 		.4byte	.LFE5-.LFB5
 6915 0038 00000000 		.4byte	.LFB6
 6916 003c 20000000 		.4byte	.LFE6-.LFB6
 6917 0040 00000000 		.4byte	.LFB7
 6918 0044 28000000 		.4byte	.LFE7-.LFB7
 6919 0048 00000000 		.4byte	.LFB8
 6920 004c 30000000 		.4byte	.LFE8-.LFB8
 6921 0050 00000000 		.4byte	.LFB10
 6922 0054 1C000000 		.4byte	.LFE10-.LFB10
 6923 0058 00000000 		.4byte	.LFB11
 6924 005c 0C000000 		.4byte	.LFE11-.LFB11
 6925 0060 00000000 		.4byte	.LFB12
 6926 0064 1C000000 		.4byte	.LFE12-.LFB12
 6927 0068 00000000 		.4byte	.LFB13
 6928 006c 0C000000 		.4byte	.LFE13-.LFB13
 6929 0070 00000000 		.4byte	.LFB14
 6930 0074 20000000 		.4byte	.LFE14-.LFB14
 6931 0078 00000000 		.4byte	.LFB15
 6932 007c 0C000000 		.4byte	.LFE15-.LFB15
 6933 0080 00000000 		.4byte	.LFB16
 6934 0084 98000000 		.4byte	.LFE16-.LFB16
 6935 0088 00000000 		.4byte	.LFB17
 6936 008c AC000000 		.4byte	.LFE17-.LFB17
 6937 0090 00000000 		.4byte	.LFB19
 6938 0094 0C000000 		.4byte	.LFE19-.LFB19
 6939 0098 00000000 		.4byte	.LFB20
 6940 009c 9C000000 		.4byte	.LFE20-.LFB20
 6941 00a0 00000000 		.4byte	.LFB18
 6942 00a4 20000000 		.4byte	.LFE18-.LFB18
 6943 00a8 00000000 		.4byte	.LFB22
 6944 00ac 0C000000 		.4byte	.LFE22-.LFB22
 6945 00b0 00000000 		.4byte	.LFB23
ARM GAS  C:\Users\ADMINI~1\AppData\Local\Temp\ccA9rFPz.s 			page 141


 6946 00b4 84000000 		.4byte	.LFE23-.LFB23
 6947 00b8 00000000 		.4byte	.LFB21
 6948 00bc 2C000000 		.4byte	.LFE21-.LFB21
 6949 00c0 00000000 		.4byte	.LFB9
 6950 00c4 BC010000 		.4byte	.LFE9-.LFB9
 6951 00c8 00000000 		.4byte	.LFB24
 6952 00cc 54000000 		.4byte	.LFE24-.LFB24
 6953 00d0 00000000 		.4byte	.LFB25
 6954 00d4 0C000000 		.4byte	.LFE25-.LFB25
 6955 00d8 00000000 		.4byte	.LFB26
 6956 00dc 30000000 		.4byte	.LFE26-.LFB26
 6957 00e0 00000000 		.4byte	.LFB27
 6958 00e4 3A000000 		.4byte	.LFE27-.LFB27
 6959 00e8 00000000 		.4byte	0
 6960 00ec 00000000 		.4byte	0
 6961              		.section	.debug_ranges,"",%progbits
 6962              	.Ldebug_ranges0:
 6963 0000 00000000 		.4byte	.LFB0
 6964 0004 0C000000 		.4byte	.LFE0
 6965 0008 00000000 		.4byte	.LFB3
 6966 000c D0000000 		.4byte	.LFE3
 6967 0010 00000000 		.4byte	.LFB1
 6968 0014 14000000 		.4byte	.LFE1
 6969 0018 00000000 		.4byte	.LFB4
 6970 001c 0C000000 		.4byte	.LFE4
 6971 0020 00000000 		.4byte	.LFB5
 6972 0024 5C000000 		.4byte	.LFE5
 6973 0028 00000000 		.4byte	.LFB6
 6974 002c 20000000 		.4byte	.LFE6
 6975 0030 00000000 		.4byte	.LFB7
 6976 0034 28000000 		.4byte	.LFE7
 6977 0038 00000000 		.4byte	.LFB8
 6978 003c 30000000 		.4byte	.LFE8
 6979 0040 00000000 		.4byte	.LFB10
 6980 0044 1C000000 		.4byte	.LFE10
 6981 0048 00000000 		.4byte	.LFB11
 6982 004c 0C000000 		.4byte	.LFE11
 6983 0050 00000000 		.4byte	.LFB12
 6984 0054 1C000000 		.4byte	.LFE12
 6985 0058 00000000 		.4byte	.LFB13
 6986 005c 0C000000 		.4byte	.LFE13
 6987 0060 00000000 		.4byte	.LFB14
 6988 0064 20000000 		.4byte	.LFE14
 6989 0068 00000000 		.4byte	.LFB15
 6990 006c 0C000000 		.4byte	.LFE15
 6991 0070 00000000 		.4byte	.LFB16
 6992 0074 98000000 		.4byte	.LFE16
 6993 0078 00000000 		.4byte	.LFB17
 6994 007c AC000000 		.4byte	.LFE17
 6995 0080 00000000 		.4byte	.LFB19
 6996 0084 0C000000 		.4byte	.LFE19
 6997 0088 00000000 		.4byte	.LFB20
 6998 008c 9C000000 		.4byte	.LFE20
 6999 0090 00000000 		.4byte	.LFB18
 7000 0094 20000000 		.4byte	.LFE18
 7001 0098 00000000 		.4byte	.LFB22
 7002 009c 0C000000 		.4byte	.LFE22
ARM GAS  C:\Users\ADMINI~1\AppData\Local\Temp\ccA9rFPz.s 			page 142


 7003 00a0 00000000 		.4byte	.LFB23
 7004 00a4 84000000 		.4byte	.LFE23
 7005 00a8 00000000 		.4byte	.LFB21
 7006 00ac 2C000000 		.4byte	.LFE21
 7007 00b0 00000000 		.4byte	.LFB9
 7008 00b4 BC010000 		.4byte	.LFE9
 7009 00b8 00000000 		.4byte	.LFB24
 7010 00bc 54000000 		.4byte	.LFE24
 7011 00c0 00000000 		.4byte	.LFB25
 7012 00c4 0C000000 		.4byte	.LFE25
 7013 00c8 00000000 		.4byte	.LFB26
 7014 00cc 30000000 		.4byte	.LFE26
 7015 00d0 00000000 		.4byte	.LFB27
 7016 00d4 3A000000 		.4byte	.LFE27
 7017 00d8 00000000 		.4byte	0
 7018 00dc 00000000 		.4byte	0
 7019              		.section	.debug_line,"",%progbits
 7020              	.Ldebug_line0:
 7021 0000 08060000 		.section	.debug_str,"MS",%progbits,1
 7021      02002A02 
 7021      00000201 
 7021      FB0E0D00 
 7021      01010101 
 7022              	.LASF123:
 7023 0000 646D705F 		.ascii	"dmp_reset_control_registers\000"
 7023      72657365 
 7023      745F636F 
 7023      6E74726F 
 7023      6C5F7265 
 7024              	.LASF21:
 7025 001c 6D70755F 		.ascii	"mpu_accel_fs\000"
 7025      61636365 
 7025      6C5F6673 
 7025      00
 7026              	.LASF40:
 7027 0029 61636365 		.ascii	"accel_div\000"
 7027      6C5F6469 
 7027      7600
 7028              	.LASF111:
 7029 0033 696E765F 		.ascii	"inv_serial_interface_write_hook\000"
 7029      73657269 
 7029      616C5F69 
 7029      6E746572 
 7029      66616365 
 7030              	.LASF107:
 7031 0053 696E765F 		.ascii	"inv_accel_read_hw_reg_data\000"
 7031      61636365 
 7031      6C5F7265 
 7031      61645F68 
 7031      775F7265 
 7032              	.LASF18:
 7033 006e 53455249 		.ascii	"SERIAL_INTERFACE_SPI\000"
 7033      414C5F49 
 7033      4E544552 
 7033      46414345 
 7033      5F535049 
 7034              	.LASF24:
ARM GAS  C:\Users\ADMINI~1\AppData\Local\Temp\ccA9rFPz.s 			page 143


 7035 0083 4D50555F 		.ascii	"MPU_FS_8G\000"
 7035      46535F38 
 7035      4700
 7036              	.LASF127:
 7037 008d 2E5C3230 		.ascii	".\\20648_driver\\drivers\\inv_mems_base_driver.c\000"
 7037      3634385F 
 7037      64726976 
 7037      65725C64 
 7037      72697665 
 7038              	.LASF27:
 7039 00bb 6D70755F 		.ascii	"mpu_gyro_fs\000"
 7039      6779726F 
 7039      5F667300 
 7040              	.LASF55:
 7041 00c7 6779726F 		.ascii	"gyro_config_2_reg\000"
 7041      5F636F6E 
 7041      6669675F 
 7041      325F7265 
 7041      6700
 7042              	.LASF83:
 7043 00d9 6F647249 		.ascii	"odrInDivider\000"
 7043      6E446976 
 7043      69646572 
 7043      00
 7044              	.LASF109:
 7045 00e6 61636365 		.ascii	"accel_data\000"
 7045      6C5F6461 
 7045      746100
 7046              	.LASF0:
 7047 00f1 756E7369 		.ascii	"unsigned int\000"
 7047      676E6564 
 7047      20696E74 
 7047      00
 7048              	.LASF39:
 7049 00fe 7365636F 		.ascii	"secondary_div\000"
 7049      6E646172 
 7049      795F6469 
 7049      7600
 7050              	.LASF17:
 7051 010c 53455249 		.ascii	"SERIAL_INTERFACE_I2C\000"
 7051      414C5F49 
 7051      4E544552 
 7051      46414345 
 7051      5F493243 
 7052              	.LASF56:
 7053 0121 64656333 		.ascii	"dec3_cfg\000"
 7053      5F636667 
 7053      00
 7054              	.LASF122:
 7055 012a 696E765F 		.ascii	"inv_is_gyro_enabled\000"
 7055      69735F67 
 7055      79726F5F 
 7055      656E6162 
 7055      6C656400 
 7056              	.LASF70:
 7057 013e 646D705F 		.ascii	"dmp_cfg\000"
 7057      63666700 
ARM GAS  C:\Users\ADMINI~1\AppData\Local\Temp\ccA9rFPz.s 			page 144


 7058              	.LASF50:
 7059 0146 4F44525F 		.ascii	"ODR_IN_Ms\000"
 7059      494E5F4D 
 7059      7300
 7060              	.LASF59:
 7061 0150 6C657665 		.ascii	"level\000"
 7061      6C00
 7062              	.LASF113:
 7063 0156 696E765F 		.ascii	"inv_write_mems_reg\000"
 7063      77726974 
 7063      655F6D65 
 7063      6D735F72 
 7063      656700
 7064              	.LASF99:
 7065 0169 646D705F 		.ascii	"dmp_image_sram\000"
 7065      696D6167 
 7065      655F7372 
 7065      616D00
 7066              	.LASF26:
 7067 0178 4E554D5F 		.ascii	"NUM_MPU_AFS\000"
 7067      4D50555F 
 7067      41465300 
 7068              	.LASF62:
 7069 0184 66756E63 		.ascii	"func\000"
 7069      00
 7070              	.LASF38:
 7071 0189 6779726F 		.ascii	"gyro_div\000"
 7071      5F646976 
 7071      00
 7072              	.LASF116:
 7073 0192 696E765F 		.ascii	"inv_read_mems_reg\000"
 7073      72656164 
 7073      5F6D656D 
 7073      735F7265 
 7073      6700
 7074              	.LASF52:
 7075 01a4 4F44525F 		.ascii	"ODR_IN_Ticks\000"
 7075      494E5F54 
 7075      69636B73 
 7075      00
 7076              	.LASF28:
 7077 01b1 4D50555F 		.ascii	"MPU_FS_250dps\000"
 7077      46535F32 
 7077      35306470 
 7077      7300
 7078              	.LASF69:
 7079 01bf 696E765F 		.ascii	"inv_set_dmp_address\000"
 7079      7365745F 
 7079      646D705F 
 7079      61646472 
 7079      65737300 
 7080              	.LASF101:
 7081 01d3 696E765F 		.ascii	"inv_enable_mems_hw_sensors\000"
 7081      656E6162 
 7081      6C655F6D 
 7081      656D735F 
 7081      68775F73 
ARM GAS  C:\Users\ADMINI~1\AppData\Local\Temp\ccA9rFPz.s 			page 145


 7082              	.LASF115:
 7083 01ee 696E765F 		.ascii	"inv_get_dmp_start_address\000"
 7083      6765745F 
 7083      646D705F 
 7083      73746172 
 7083      745F6164 
 7084              	.LASF119:
 7085 0208 646D705F 		.ascii	"dmp_set_accel_scale2\000"
 7085      7365745F 
 7085      61636365 
 7085      6C5F7363 
 7085      616C6532 
 7086              	.LASF41:
 7087 021d 6779726F 		.ascii	"gyro_averaging\000"
 7087      5F617665 
 7087      72616769 
 7087      6E6700
 7088              	.LASF110:
 7089 022c 73416C6C 		.ascii	"sAllowLpEn\000"
 7089      6F774C70 
 7089      456E00
 7090              	.LASF16:
 7091 0237 75696E74 		.ascii	"uint32_t\000"
 7091      33325F74 
 7091      00
 7092              	.LASF95:
 7093 0240 696E765F 		.ascii	"inv_get_accel_fullscale\000"
 7093      6765745F 
 7093      61636365 
 7093      6C5F6675 
 7093      6C6C7363 
 7094              	.LASF53:
 7095 0258 72657375 		.ascii	"result\000"
 7095      6C7400
 7096              	.LASF114:
 7097 025f 696E765F 		.ascii	"inv_sleep_100us\000"
 7097      736C6565 
 7097      705F3130 
 7097      30757300 
 7098              	.LASF74:
 7099 026f 696E765F 		.ascii	"inv_set_gyro_divider\000"
 7099      7365745F 
 7099      6779726F 
 7099      5F646976 
 7099      69646572 
 7100              	.LASF33:
 7101 0284 696E765F 		.ascii	"inv_error_t\000"
 7101      6572726F 
 7101      725F7400 
 7102              	.LASF11:
 7103 0290 6C6F6E67 		.ascii	"long long unsigned int\000"
 7103      206C6F6E 
 7103      6720756E 
 7103      7369676E 
 7103      65642069 
 7104              	.LASF49:
 7105 02a7 494E565F 		.ascii	"INV_ODR_TYPE\000"
ARM GAS  C:\Users\ADMINI~1\AppData\Local\Temp\ccA9rFPz.s 			page 146


 7105      4F44525F 
 7105      54595045 
 7105      00
 7106              	.LASF5:
 7107 02b4 5F5F7569 		.ascii	"__uint16_t\000"
 7107      6E743136 
 7107      5F7400
 7108              	.LASF129:
 7109 02bf 62617365 		.ascii	"base_driver_t\000"
 7109      5F647269 
 7109      7665725F 
 7109      7400
 7110              	.LASF106:
 7111 02cd 7265675F 		.ascii	"reg_int_enable\000"
 7111      696E745F 
 7111      656E6162 
 7111      6C6500
 7112              	.LASF126:
 7113 02dc 474E5520 		.ascii	"GNU C 4.9.3 20150303 (release) [ARM/embedded-4_9-br"
 7113      4320342E 
 7113      392E3320 
 7113      32303135 
 7113      30333033 
 7114 030f 616E6368 		.ascii	"anch revision 221220] -mcpu=cortex-m0 -mthumb -g -O"
 7114      20726576 
 7114      6973696F 
 7114      6E203232 
 7114      31323230 
 7115 0342 73202D66 		.ascii	"s -ffunction-sections -ffat-lto-objects\000"
 7115      66756E63 
 7115      74696F6E 
 7115      2D736563 
 7115      74696F6E 
 7116              	.LASF105:
 7117 036a 656E6162 		.ascii	"enable\000"
 7117      6C6500
 7118              	.LASF47:
 7119 0371 73657269 		.ascii	"serial_interface\000"
 7119      616C5F69 
 7119      6E746572 
 7119      66616365 
 7119      00
 7120              	.LASF42:
 7121 0382 61636365 		.ascii	"accel_averaging\000"
 7121      6C5F6176 
 7121      65726167 
 7121      696E6700 
 7122              	.LASF87:
 7123 0392 6779726F 		.ascii	"gyro_level\000"
 7123      5F6C6576 
 7123      656C00
 7124              	.LASF37:
 7125 039d 75736572 		.ascii	"user_ctrl\000"
 7125      5F637472 
 7125      6C00
 7126              	.LASF30:
 7127 03a7 4D50555F 		.ascii	"MPU_FS_1000dps\000"
ARM GAS  C:\Users\ADMINI~1\AppData\Local\Temp\ccA9rFPz.s 			page 147


 7127      46535F31 
 7127      30303064 
 7127      707300
 7128              	.LASF84:
 7129 03b6 6F64725F 		.ascii	"odr_units\000"
 7129      756E6974 
 7129      7300
 7130              	.LASF103:
 7131 03c0 696E765F 		.ascii	"inv_set_serial_comm\000"
 7131      7365745F 
 7131      73657269 
 7131      616C5F63 
 7131      6F6D6D00 
 7132              	.LASF65:
 7133 03d4 696E765F 		.ascii	"inv_wakeup_mems\000"
 7133      77616B65 
 7133      75705F6D 
 7133      656D7300 
 7134              	.LASF76:
 7135 03e4 696E765F 		.ascii	"inv_get_gyro_divider\000"
 7135      6765745F 
 7135      6779726F 
 7135      5F646976 
 7135      69646572 
 7136              	.LASF121:
 7137 03f9 696E765F 		.ascii	"inv_load_firmware\000"
 7137      6C6F6164 
 7137      5F666972 
 7137      6D776172 
 7137      6500
 7138              	.LASF54:
 7139 040b 6779726F 		.ascii	"gyro_config_1_reg\000"
 7139      5F636F6E 
 7139      6669675F 
 7139      315F7265 
 7139      6700
 7140              	.LASF13:
 7141 041d 63686172 		.ascii	"char\000"
 7141      00
 7142              	.LASF46:
 7143 0422 6669726D 		.ascii	"firmware_loaded\000"
 7143      77617265 
 7143      5F6C6F61 
 7143      64656400 
 7144              	.LASF90:
 7145 0432 4D616769 		.ascii	"MagicConstant\000"
 7145      63436F6E 
 7145      7374616E 
 7145      7400
 7146              	.LASF67:
 7147 0440 64617461 		.ascii	"data\000"
 7147      00
 7148              	.LASF14:
 7149 0445 75696E74 		.ascii	"uint8_t\000"
 7149      385F7400 
 7150              	.LASF66:
 7151 044d 73746174 		.ascii	"status\000"
ARM GAS  C:\Users\ADMINI~1\AppData\Local\Temp\ccA9rFPz.s 			page 148


 7151      757300
 7152              	.LASF94:
 7153 0454 696E765F 		.ascii	"inv_set_gyro_fullscale\000"
 7153      7365745F 
 7153      6779726F 
 7153      5F66756C 
 7153      6C736361 
 7154              	.LASF10:
 7155 046b 6C6F6E67 		.ascii	"long long int\000"
 7155      206C6F6E 
 7155      6720696E 
 7155      7400
 7156              	.LASF78:
 7157 0479 696E765F 		.ascii	"inv_mems_prevent_lpen_control\000"
 7157      6D656D73 
 7157      5F707265 
 7157      76656E74 
 7157      5F6C7065 
 7158              	.LASF96:
 7159 0497 696E765F 		.ascii	"inv_set_accel_fullscale\000"
 7159      7365745F 
 7159      61636365 
 7159      6C5F6675 
 7159      6C6C7363 
 7160              	.LASF32:
 7161 04af 4E554D5F 		.ascii	"NUM_MPU_GFS\000"
 7161      4D50555F 
 7161      47465300 
 7162              	.LASF120:
 7163 04bb 6D656D73 		.ascii	"memset\000"
 7163      657400
 7164              	.LASF82:
 7165 04c2 696E765F 		.ascii	"inv_get_odr_in_units\000"
 7165      6765745F 
 7165      6F64725F 
 7165      696E5F75 
 7165      6E697473 
 7166              	.LASF104:
 7167 04d7 696E765F 		.ascii	"inv_set_int1_assertion\000"
 7167      7365745F 
 7167      696E7431 
 7167      5F617373 
 7167      65727469 
 7168              	.LASF86:
 7169 04ee 696E765F 		.ascii	"inv_set_gyro_sf\000"
 7169      7365745F 
 7169      6779726F 
 7169      5F736600 
 7170              	.LASF61:
 7171 04fe 61636365 		.ascii	"accel_config_2_reg\000"
 7171      6C5F636F 
 7171      6E666967 
 7171      5F325F72 
 7171      656700
 7172              	.LASF124:
 7173 0511 646D705F 		.ascii	"dmp_set_FIFO_watermark\000"
 7173      7365745F 
ARM GAS  C:\Users\ADMINI~1\AppData\Local\Temp\ccA9rFPz.s 			page 149


 7173      4649464F 
 7173      5F776174 
 7173      65726D61 
 7174              	.LASF118:
 7175 0528 646D705F 		.ascii	"dmp_set_accel_fsr\000"
 7175      7365745F 
 7175      61636365 
 7175      6C5F6673 
 7175      7200
 7176              	.LASF43:
 7177 053a 6779726F 		.ascii	"gyro_fullscale\000"
 7177      5F66756C 
 7177      6C736361 
 7177      6C6500
 7178              	.LASF35:
 7179 0549 7077725F 		.ascii	"pwr_mgmt_1\000"
 7179      6D676D74 
 7179      5F3100
 7180              	.LASF36:
 7181 0554 7077725F 		.ascii	"pwr_mgmt_2\000"
 7181      6D676D74 
 7181      5F3200
 7182              	.LASF58:
 7183 055f 696E765F 		.ascii	"inv_set_mems_accel_fullscale\000"
 7183      7365745F 
 7183      6D656D73 
 7183      5F616363 
 7183      656C5F66 
 7184              	.LASF89:
 7185 057c 6C4C6173 		.ascii	"lLastGyroSf\000"
 7185      74477972 
 7185      6F536600 
 7186              	.LASF15:
 7187 0588 75696E74 		.ascii	"uint16_t\000"
 7187      31365F74 
 7187      00
 7188              	.LASF75:
 7189 0591 696E765F 		.ascii	"inv_get_chip_power_state\000"
 7189      6765745F 
 7189      63686970 
 7189      5F706F77 
 7189      65725F73 
 7190              	.LASF22:
 7191 05aa 4D50555F 		.ascii	"MPU_FS_2G\000"
 7191      46535F32 
 7191      4700
 7192              	.LASF51:
 7193 05b4 4F44525F 		.ascii	"ODR_IN_Us\000"
 7193      494E5F55 
 7193      7300
 7194              	.LASF71:
 7195 05be 636F6E66 		.ascii	"config\000"
 7195      696700
 7196              	.LASF3:
 7197 05c5 73686F72 		.ascii	"short int\000"
 7197      7420696E 
 7197      7400
ARM GAS  C:\Users\ADMINI~1\AppData\Local\Temp\ccA9rFPz.s 			page 150


 7198              	.LASF79:
 7199 05cf 696E765F 		.ascii	"inv_get_secondary_divider\000"
 7199      6765745F 
 7199      7365636F 
 7199      6E646172 
 7199      795F6469 
 7200              	.LASF7:
 7201 05e9 6C6F6E67 		.ascii	"long int\000"
 7201      20696E74 
 7201      00
 7202              	.LASF44:
 7203 05f2 61636365 		.ascii	"accel_fullscale\000"
 7203      6C5F6675 
 7203      6C6C7363 
 7203      616C6500 
 7204              	.LASF45:
 7205 0602 6C705F65 		.ascii	"lp_en_support\000"
 7205      6E5F7375 
 7205      70706F72 
 7205      7400
 7206              	.LASF25:
 7207 0610 4D50555F 		.ascii	"MPU_FS_16G\000"
 7207      46535F31 
 7207      364700
 7208              	.LASF102:
 7209 061b 6269745F 		.ascii	"bit_mask\000"
 7209      6D61736B 
 7209      00
 7210              	.LASF4:
 7211 0624 5F5F7569 		.ascii	"__uint8_t\000"
 7211      6E74385F 
 7211      7400
 7212              	.LASF92:
 7213 062e 52657375 		.ascii	"ResultLL\000"
 7213      6C744C4C 
 7213      00
 7214              	.LASF80:
 7215 0637 696E765F 		.ascii	"inv_set_accel_divider\000"
 7215      7365745F 
 7215      61636365 
 7215      6C5F6469 
 7215      76696465 
 7216              	.LASF131:
 7217 064d 696E765F 		.ascii	"inv_mems_allow_lpen_control\000"
 7217      6D656D73 
 7217      5F616C6C 
 7217      6F775F6C 
 7217      70656E5F 
 7218              	.LASF72:
 7219 0669 696E765F 		.ascii	"inv_set_secondary\000"
 7219      7365745F 
 7219      7365636F 
 7219      6E646172 
 7219      7900
 7220              	.LASF23:
 7221 067b 4D50555F 		.ascii	"MPU_FS_4G\000"
 7221      46535F34 
ARM GAS  C:\Users\ADMINI~1\AppData\Local\Temp\ccA9rFPz.s 			page 151


 7221      4700
 7222              	.LASF12:
 7223 0685 73697A65 		.ascii	"sizetype\000"
 7223      74797065 
 7223      00
 7224              	.LASF9:
 7225 068e 6C6F6E67 		.ascii	"long unsigned int\000"
 7225      20756E73 
 7225      69676E65 
 7225      6420696E 
 7225      7400
 7226              	.LASF48:
 7227 06a0 74696D65 		.ascii	"timebase_correction_pll\000"
 7227      62617365 
 7227      5F636F72 
 7227      72656374 
 7227      696F6E5F 
 7228              	.LASF77:
 7229 06b8 696E765F 		.ascii	"inv_set_secondary_divider\000"
 7229      7365745F 
 7229      7365636F 
 7229      6E646172 
 7229      795F6469 
 7230              	.LASF81:
 7231 06d2 696E765F 		.ascii	"inv_get_accel_divider\000"
 7231      6765745F 
 7231      61636365 
 7231      6C5F6469 
 7231      76696465 
 7232              	.LASF93:
 7233 06e8 696E765F 		.ascii	"inv_get_gyro_fullscale\000"
 7233      6765745F 
 7233      6779726F 
 7233      5F66756C 
 7233      6C736361 
 7234              	.LASF29:
 7235 06ff 4D50555F 		.ascii	"MPU_FS_500dps\000"
 7235      46535F35 
 7235      30306470 
 7235      7300
 7236              	.LASF98:
 7237 070d 74797065 		.ascii	"type\000"
 7237      00
 7238              	.LASF2:
 7239 0712 756E7369 		.ascii	"unsigned char\000"
 7239      676E6564 
 7239      20636861 
 7239      7200
 7240              	.LASF8:
 7241 0720 5F5F7569 		.ascii	"__uint32_t\000"
 7241      6E743332 
 7241      5F7400
 7242              	.LASF88:
 7243 072b 6779726F 		.ascii	"gyro_sf\000"
 7243      5F736600 
 7244              	.LASF19:
 7245 0733 53455249 		.ascii	"SERIAL_INTERFACE_INVALID\000"
ARM GAS  C:\Users\ADMINI~1\AppData\Local\Temp\ccA9rFPz.s 			page 152


 7245      414C5F49 
 7245      4E544552 
 7245      46414345 
 7245      5F494E56 
 7246              	.LASF108:
 7247 074c 61636365 		.ascii	"accel_hw_reg_data\000"
 7247      6C5F6877 
 7247      5F726567 
 7247      5F646174 
 7247      6100
 7248              	.LASF73:
 7249 075e 6C497349 		.ascii	"lIsInited\000"
 7249      6E697465 
 7249      6400
 7250              	.LASF112:
 7251 0768 696E765F 		.ascii	"inv_write_single_mems_reg\000"
 7251      77726974 
 7251      655F7369 
 7251      6E676C65 
 7251      5F6D656D 
 7252              	.LASF128:
 7253 0782 433A5C44 		.ascii	"C:\\Dropbox\\Projects\\George Posture Correction Pr"
 7253      726F7062 
 7253      6F785C50 
 7253      726F6A65 
 7253      6374735C 
 7254 07b2 6F6A6563 		.ascii	"oject\\BackBone\\BackBone_Bootloadable.cydsn\000"
 7254      745C4261 
 7254      636B426F 
 7254      6E655C42 
 7254      61636B42 
 7255              	.LASF132:
 7256 07dd 62617365 		.ascii	"base_state\000"
 7256      5F737461 
 7256      746500
 7257              	.LASF68:
 7258 07e8 696E765F 		.ascii	"inv_sleep_mems\000"
 7258      736C6565 
 7258      705F6D65 
 7258      6D7300
 7259              	.LASF31:
 7260 07f7 4D50555F 		.ascii	"MPU_FS_2000dps\000"
 7260      46535F32 
 7260      30303064 
 7260      707300
 7261              	.LASF117:
 7262 0806 646D705F 		.ascii	"dmp_set_gyro_sf\000"
 7262      7365745F 
 7262      6779726F 
 7262      5F736600 
 7263              	.LASF125:
 7264 0816 696E765F 		.ascii	"inv_read_mems\000"
 7264      72656164 
 7264      5F6D656D 
 7264      7300
 7265              	.LASF1:
 7266 0824 7369676E 		.ascii	"signed char\000"
ARM GAS  C:\Users\ADMINI~1\AppData\Local\Temp\ccA9rFPz.s 			page 153


 7266      65642063 
 7266      68617200 
 7267              	.LASF57:
 7268 0830 696E765F 		.ascii	"inv_set_mems_gyro_fullscale\000"
 7268      7365745F 
 7268      6D656D73 
 7268      5F677972 
 7268      6F5F6675 
 7269              	.LASF60:
 7270 084c 61636365 		.ascii	"accel_config_1_reg\000"
 7270      6C5F636F 
 7270      6E666967 
 7270      5F315F72 
 7270      656700
 7271              	.LASF6:
 7272 085f 73686F72 		.ascii	"short unsigned int\000"
 7272      7420756E 
 7272      7369676E 
 7272      65642069 
 7272      6E7400
 7273              	.LASF64:
 7274 0872 696E765F 		.ascii	"inv_set_chip_power_state\000"
 7274      7365745F 
 7274      63686970 
 7274      5F706F77 
 7274      65725F73 
 7275              	.LASF97:
 7276 088b 696E765F 		.ascii	"inv_initialize_lower_driver\000"
 7276      696E6974 
 7276      69616C69 
 7276      7A655F6C 
 7276      6F776572 
 7277              	.LASF130:
 7278 08a7 696E765F 		.ascii	"inv_mems_get_lpen_control\000"
 7278      6D656D73 
 7278      5F676574 
 7278      5F6C7065 
 7278      6E5F636F 
 7279              	.LASF20:
 7280 08c1 4D454D53 		.ascii	"MEMS_SERIAL_INTERFACE\000"
 7280      5F534552 
 7280      49414C5F 
 7280      494E5445 
 7280      52464143 
 7281              	.LASF91:
 7282 08d7 4D616769 		.ascii	"MagicConstantScale\000"
 7282      63436F6E 
 7282      7374616E 
 7282      74536361 
 7282      6C6500
 7283              	.LASF63:
 7284 08ea 6F6E5F6F 		.ascii	"on_off\000"
 7284      666600
 7285              	.LASF85:
 7286 08f1 6779726F 		.ascii	"gyro_is_on\000"
 7286      5F69735F 
 7286      6F6E00
ARM GAS  C:\Users\ADMINI~1\AppData\Local\Temp\ccA9rFPz.s 			page 154


 7287              	.LASF34:
 7288 08fc 77616B65 		.ascii	"wake_state\000"
 7288      5F737461 
 7288      746500
 7289              	.LASF100:
 7290 0907 57686F41 		.ascii	"WhoAmI\000"
 7290      6D4900
 7291              		.ident	"GCC: (GNU Tools for ARM Embedded Processors) 4.9.3 20150303 (release) [ARM/embedded-4_9-br
