ARM GAS  C:\Users\ADMINI~1\AppData\Local\Temp\ccPQFHHg.s 			page 1


   1              		.cpu cortex-m0
   2              		.fpu softvfp
   3              		.eabi_attribute 20, 1
   4              		.eabi_attribute 21, 1
   5              		.eabi_attribute 23, 3
   6              		.eabi_attribute 24, 1
   7              		.eabi_attribute 25, 1
   8              		.eabi_attribute 26, 1
   9              		.eabi_attribute 30, 4
  10              		.eabi_attribute 34, 0
  11              		.eabi_attribute 18, 4
  12              		.code	16
  13              		.file	"inv_mems_data_converter.c"
  14              		.text
  15              	.Ltext0:
  16              		.cfi_sections	.debug_frame
  17              		.section	.text.inv_q_mult_q_qi.constprop.0,"ax",%progbits
  18              		.align	1
  19              		.code	16
  20              		.thumb_func
  21              		.type	inv_q_mult_q_qi.constprop.0, %function
  22              	inv_q_mult_q_qi.constprop.0:
  23              	.LFB13:
  24              		.file 1 ".\\20648_driver\\drivers\\inv_mems_data_converter.c"
   1:.\20648_driver\drivers/inv_mems_data_converter.c **** /*
   2:.\20648_driver\drivers/inv_mems_data_converter.c **** * _________________________________________________________________________________________________
   3:.\20648_driver\drivers/inv_mems_data_converter.c **** * Copyright © 2014-2015 InvenSense Inc. Portions Copyright © 2014-2015 Movea. All rights reserved.
   4:.\20648_driver\drivers/inv_mems_data_converter.c **** * This software, related documentation and any modifications thereto (collectively “Software”) is s
   5:.\20648_driver\drivers/inv_mems_data_converter.c **** * to InvenSense and its licensors' intellectual property rights under U.S. and international copyri
   6:.\20648_driver\drivers/inv_mems_data_converter.c **** * other intellectual property rights laws.
   7:.\20648_driver\drivers/inv_mems_data_converter.c **** * InvenSense and its licensors retain all intellectual property and proprietary rights in and to th
   8:.\20648_driver\drivers/inv_mems_data_converter.c **** * and any use, reproduction, disclosure or distribution of the Software without an express license
   9:.\20648_driver\drivers/inv_mems_data_converter.c **** * agreement from InvenSense is strictly prohibited.
  10:.\20648_driver\drivers/inv_mems_data_converter.c **** * _________________________________________________________________________________________________
  11:.\20648_driver\drivers/inv_mems_data_converter.c **** */
  12:.\20648_driver\drivers/inv_mems_data_converter.c **** 
  13:.\20648_driver\drivers/inv_mems_data_converter.c **** #include ".\20648_driver\drivers\inv_mems_data_converter.h"
  14:.\20648_driver\drivers/inv_mems_data_converter.c **** 
  15:.\20648_driver\drivers/inv_mems_data_converter.c **** #include <string.h>
  16:.\20648_driver\drivers/inv_mems_data_converter.c **** 
  17:.\20648_driver\drivers/inv_mems_data_converter.c **** #include ".\20648_driver\invn\mlmath.h"
  18:.\20648_driver\drivers/inv_mems_data_converter.c **** 
  19:.\20648_driver\drivers/inv_mems_data_converter.c **** #define INV_TWO_POWER_NEG_30 9.313225746154785e-010f
  20:.\20648_driver\drivers/inv_mems_data_converter.c **** 
  21:.\20648_driver\drivers/inv_mems_data_converter.c **** static long s_quat_chip_to_body[4] = {(1L<<30), 0, 0, 0};
  22:.\20648_driver\drivers/inv_mems_data_converter.c **** 
  23:.\20648_driver\drivers/inv_mems_data_converter.c **** /** Performs a fixed point quaternion multiply with inverse on second element q1*q2'.
  24:.\20648_driver\drivers/inv_mems_data_converter.c **** * @param[in] q1 First Quaternion Multicand, length 4. 1.0 scaled
  25:.\20648_driver\drivers/inv_mems_data_converter.c **** *            to 2^30
  26:.\20648_driver\drivers/inv_mems_data_converter.c **** * @param[in] q2 Second Quaternion Multicand, length 4. 1.0 scaled
  27:.\20648_driver\drivers/inv_mems_data_converter.c **** *            to 2^30. Inverse will be take before multiply
  28:.\20648_driver\drivers/inv_mems_data_converter.c **** * @param[out] qProd Product after quaternion multiply q1*q2'. Length 4.
  29:.\20648_driver\drivers/inv_mems_data_converter.c **** *             1.0 scaled to 2^30.
  30:.\20648_driver\drivers/inv_mems_data_converter.c **** */
  31:.\20648_driver\drivers/inv_mems_data_converter.c **** static void inv_q_mult_q_qi(const long *q1, const long *q2, long *qProd)
  25              		.loc 1 31 0
  26              		.cfi_startproc
ARM GAS  C:\Users\ADMINI~1\AppData\Local\Temp\ccPQFHHg.s 			page 2


  27              	.LVL0:
  28 0000 F8B5     		push	{r3, r4, r5, r6, r7, lr}
  29              		.cfi_def_cfa_offset 24
  30              		.cfi_offset 3, -24
  31              		.cfi_offset 4, -20
  32              		.cfi_offset 5, -16
  33              		.cfi_offset 6, -12
  34              		.cfi_offset 7, -8
  35              		.cfi_offset 14, -4
  32:.\20648_driver\drivers/inv_mems_data_converter.c **** {
  33:.\20648_driver\drivers/inv_mems_data_converter.c ****     qProd[0] = inv_q30_mult(q1[0], q2[0]) + inv_q30_mult(q1[1], q2[1]) +
  36              		.loc 1 33 0
  37 0002 2C4C     		ldr	r4, .L2
  31:.\20648_driver\drivers/inv_mems_data_converter.c **** {
  38              		.loc 1 31 0
  39 0004 051C     		mov	r5, r0
  40 0006 0F1C     		mov	r7, r1
  41              		.loc 1 33 0
  42 0008 0068     		ldr	r0, [r0]
  43              	.LVL1:
  44 000a 2168     		ldr	r1, [r4]
  45              	.LVL2:
  46 000c FFF7FEFF 		bl	inv_q30_mult
  47              	.LVL3:
  48 0010 6168     		ldr	r1, [r4, #4]
  49 0012 061C     		mov	r6, r0
  50 0014 6868     		ldr	r0, [r5, #4]
  51 0016 FFF7FEFF 		bl	inv_q30_mult
  52              	.LVL4:
  34:.\20648_driver\drivers/inv_mems_data_converter.c ****                inv_q30_mult(q1[2], q2[2]) + inv_q30_mult(q1[3], q2[3]);
  53              		.loc 1 34 0
  54 001a A168     		ldr	r1, [r4, #8]
  33:.\20648_driver\drivers/inv_mems_data_converter.c ****                inv_q30_mult(q1[2], q2[2]) + inv_q30_mult(q1[3], q2[3]);
  55              		.loc 1 33 0
  56 001c 3618     		add	r6, r6, r0
  57              		.loc 1 34 0
  58 001e A868     		ldr	r0, [r5, #8]
  59 0020 FFF7FEFF 		bl	inv_q30_mult
  60              	.LVL5:
  61 0024 E168     		ldr	r1, [r4, #12]
  33:.\20648_driver\drivers/inv_mems_data_converter.c ****                inv_q30_mult(q1[2], q2[2]) + inv_q30_mult(q1[3], q2[3]);
  62              		.loc 1 33 0
  63 0026 3618     		add	r6, r6, r0
  64              		.loc 1 34 0
  65 0028 E868     		ldr	r0, [r5, #12]
  66 002a FFF7FEFF 		bl	inv_q30_mult
  67              	.LVL6:
  68 002e 3018     		add	r0, r6, r0
  33:.\20648_driver\drivers/inv_mems_data_converter.c ****                inv_q30_mult(q1[2], q2[2]) + inv_q30_mult(q1[3], q2[3]);
  69              		.loc 1 33 0
  70 0030 3860     		str	r0, [r7]
  35:.\20648_driver\drivers/inv_mems_data_converter.c **** 
  36:.\20648_driver\drivers/inv_mems_data_converter.c ****     qProd[1] = -inv_q30_mult(q1[0], q2[1]) + inv_q30_mult(q1[1], q2[0]) -
  71              		.loc 1 36 0
  72 0032 6868     		ldr	r0, [r5, #4]
  73 0034 2168     		ldr	r1, [r4]
  74 0036 FFF7FEFF 		bl	inv_q30_mult
ARM GAS  C:\Users\ADMINI~1\AppData\Local\Temp\ccPQFHHg.s 			page 3


  75              	.LVL7:
  76 003a 6168     		ldr	r1, [r4, #4]
  77 003c 061C     		mov	r6, r0
  78 003e 2868     		ldr	r0, [r5]
  79 0040 FFF7FEFF 		bl	inv_q30_mult
  80              	.LVL8:
  37:.\20648_driver\drivers/inv_mems_data_converter.c ****                inv_q30_mult(q1[2], q2[3]) + inv_q30_mult(q1[3], q2[2]);
  81              		.loc 1 37 0
  82 0044 E168     		ldr	r1, [r4, #12]
  36:.\20648_driver\drivers/inv_mems_data_converter.c ****                inv_q30_mult(q1[2], q2[3]) + inv_q30_mult(q1[3], q2[2]);
  83              		.loc 1 36 0
  84 0046 361A     		sub	r6, r6, r0
  85              		.loc 1 37 0
  86 0048 A868     		ldr	r0, [r5, #8]
  87 004a FFF7FEFF 		bl	inv_q30_mult
  88              	.LVL9:
  89 004e A168     		ldr	r1, [r4, #8]
  36:.\20648_driver\drivers/inv_mems_data_converter.c ****                inv_q30_mult(q1[2], q2[3]) + inv_q30_mult(q1[3], q2[2]);
  90              		.loc 1 36 0
  91 0050 361A     		sub	r6, r6, r0
  92              		.loc 1 37 0
  93 0052 E868     		ldr	r0, [r5, #12]
  94 0054 FFF7FEFF 		bl	inv_q30_mult
  95              	.LVL10:
  96 0058 3618     		add	r6, r6, r0
  36:.\20648_driver\drivers/inv_mems_data_converter.c ****                inv_q30_mult(q1[2], q2[3]) + inv_q30_mult(q1[3], q2[2]);
  97              		.loc 1 36 0
  98 005a 7E60     		str	r6, [r7, #4]
  38:.\20648_driver\drivers/inv_mems_data_converter.c **** 
  39:.\20648_driver\drivers/inv_mems_data_converter.c ****     qProd[2] = -inv_q30_mult(q1[0], q2[2]) + inv_q30_mult(q1[1], q2[3]) +
  99              		.loc 1 39 0
 100 005c 6868     		ldr	r0, [r5, #4]
 101 005e E168     		ldr	r1, [r4, #12]
 102 0060 FFF7FEFF 		bl	inv_q30_mult
 103              	.LVL11:
 104 0064 A168     		ldr	r1, [r4, #8]
 105 0066 061C     		mov	r6, r0
 106 0068 2868     		ldr	r0, [r5]
 107 006a FFF7FEFF 		bl	inv_q30_mult
 108              	.LVL12:
  40:.\20648_driver\drivers/inv_mems_data_converter.c ****                inv_q30_mult(q1[2], q2[0]) - inv_q30_mult(q1[3], q2[1]);
 109              		.loc 1 40 0
 110 006e 2168     		ldr	r1, [r4]
  39:.\20648_driver\drivers/inv_mems_data_converter.c ****                inv_q30_mult(q1[2], q2[0]) - inv_q30_mult(q1[3], q2[1]);
 111              		.loc 1 39 0
 112 0070 361A     		sub	r6, r6, r0
 113              		.loc 1 40 0
 114 0072 A868     		ldr	r0, [r5, #8]
 115 0074 FFF7FEFF 		bl	inv_q30_mult
 116              	.LVL13:
 117 0078 6168     		ldr	r1, [r4, #4]
  39:.\20648_driver\drivers/inv_mems_data_converter.c ****                inv_q30_mult(q1[2], q2[0]) - inv_q30_mult(q1[3], q2[1]);
 118              		.loc 1 39 0
 119 007a 3618     		add	r6, r6, r0
 120              		.loc 1 40 0
 121 007c E868     		ldr	r0, [r5, #12]
 122 007e FFF7FEFF 		bl	inv_q30_mult
ARM GAS  C:\Users\ADMINI~1\AppData\Local\Temp\ccPQFHHg.s 			page 4


 123              	.LVL14:
 124 0082 361A     		sub	r6, r6, r0
  39:.\20648_driver\drivers/inv_mems_data_converter.c ****                inv_q30_mult(q1[2], q2[0]) - inv_q30_mult(q1[3], q2[1]);
 125              		.loc 1 39 0
 126 0084 BE60     		str	r6, [r7, #8]
  41:.\20648_driver\drivers/inv_mems_data_converter.c **** 
  42:.\20648_driver\drivers/inv_mems_data_converter.c ****     qProd[3] = -inv_q30_mult(q1[0], q2[3]) - inv_q30_mult(q1[1], q2[2]) +
 127              		.loc 1 42 0
 128 0086 2868     		ldr	r0, [r5]
 129 0088 E168     		ldr	r1, [r4, #12]
 130 008a FFF7FEFF 		bl	inv_q30_mult
 131              	.LVL15:
 132 008e A168     		ldr	r1, [r4, #8]
 133 0090 061C     		mov	r6, r0
 134 0092 6868     		ldr	r0, [r5, #4]
 135 0094 FFF7FEFF 		bl	inv_q30_mult
 136              	.LVL16:
 137 0098 7642     		neg	r6, r6
  43:.\20648_driver\drivers/inv_mems_data_converter.c ****                inv_q30_mult(q1[2], q2[1]) + inv_q30_mult(q1[3], q2[0]);
 138              		.loc 1 43 0
 139 009a 6168     		ldr	r1, [r4, #4]
  42:.\20648_driver\drivers/inv_mems_data_converter.c ****                inv_q30_mult(q1[2], q2[1]) + inv_q30_mult(q1[3], q2[0]);
 140              		.loc 1 42 0
 141 009c 361A     		sub	r6, r6, r0
 142              		.loc 1 43 0
 143 009e A868     		ldr	r0, [r5, #8]
 144 00a0 FFF7FEFF 		bl	inv_q30_mult
 145              	.LVL17:
 146 00a4 2168     		ldr	r1, [r4]
  42:.\20648_driver\drivers/inv_mems_data_converter.c ****                inv_q30_mult(q1[2], q2[1]) + inv_q30_mult(q1[3], q2[0]);
 147              		.loc 1 42 0
 148 00a6 3618     		add	r6, r6, r0
 149              		.loc 1 43 0
 150 00a8 E868     		ldr	r0, [r5, #12]
 151 00aa FFF7FEFF 		bl	inv_q30_mult
 152              	.LVL18:
 153 00ae 3018     		add	r0, r6, r0
  42:.\20648_driver\drivers/inv_mems_data_converter.c ****                inv_q30_mult(q1[2], q2[1]) + inv_q30_mult(q1[3], q2[0]);
 154              		.loc 1 42 0
 155 00b0 F860     		str	r0, [r7, #12]
  44:.\20648_driver\drivers/inv_mems_data_converter.c **** }
 156              		.loc 1 44 0
 157              		@ sp needed
 158              	.LVL19:
 159              	.LVL20:
 160 00b2 F8BD     		pop	{r3, r4, r5, r6, r7, pc}
 161              	.L3:
 162              		.align	2
 163              	.L2:
 164 00b4 00000000 		.word	.LANCHOR0
 165              		.cfi_endproc
 166              	.LFE13:
 167              		.size	inv_q_mult_q_qi.constprop.0, .-inv_q_mult_q_qi.constprop.0
 168              		.section	.text.inv_set_chip_to_body,"ax",%progbits
 169              		.align	1
 170              		.global	inv_set_chip_to_body
 171              		.code	16
ARM GAS  C:\Users\ADMINI~1\AppData\Local\Temp\ccPQFHHg.s 			page 5


 172              		.thumb_func
 173              		.type	inv_set_chip_to_body, %function
 174              	inv_set_chip_to_body:
 175              	.LFB5:
  45:.\20648_driver\drivers/inv_mems_data_converter.c **** 
  46:.\20648_driver\drivers/inv_mems_data_converter.c **** /** Set the transformation used for chip to body frame
  47:.\20648_driver\drivers/inv_mems_data_converter.c **** */
  48:.\20648_driver\drivers/inv_mems_data_converter.c **** void inv_set_chip_to_body(long *quat)
  49:.\20648_driver\drivers/inv_mems_data_converter.c **** {
 176              		.loc 1 49 0
 177              		.cfi_startproc
 178              	.LVL21:
 179 0000 08B5     		push	{r3, lr}
 180              		.cfi_def_cfa_offset 8
 181              		.cfi_offset 3, -8
 182              		.cfi_offset 14, -4
 183              		.loc 1 49 0
 184 0002 011C     		mov	r1, r0
  50:.\20648_driver\drivers/inv_mems_data_converter.c ****     memcpy(s_quat_chip_to_body, quat, sizeof(s_quat_chip_to_body));
 185              		.loc 1 50 0
 186 0004 1022     		mov	r2, #16
 187 0006 0248     		ldr	r0, .L5
 188              	.LVL22:
 189 0008 FFF7FEFF 		bl	memcpy
 190              	.LVL23:
  51:.\20648_driver\drivers/inv_mems_data_converter.c **** }
 191              		.loc 1 51 0
 192              		@ sp needed
 193 000c 08BD     		pop	{r3, pc}
 194              	.L6:
 195 000e C046     		.align	2
 196              	.L5:
 197 0010 00000000 		.word	.LANCHOR0
 198              		.cfi_endproc
 199              	.LFE5:
 200              		.size	inv_set_chip_to_body, .-inv_set_chip_to_body
 201              		.global	__aeabi_i2f
 202              		.global	__aeabi_fmul
 203              		.section	.text.inv_convert_rotation_vector,"ax",%progbits
 204              		.align	1
 205              		.global	inv_convert_rotation_vector
 206              		.code	16
 207              		.thumb_func
 208              		.type	inv_convert_rotation_vector, %function
 209              	inv_convert_rotation_vector:
 210              	.LFB6:
  52:.\20648_driver\drivers/inv_mems_data_converter.c **** 
  53:.\20648_driver\drivers/inv_mems_data_converter.c **** /** Convert fixed point DMP rotation vector to floating point android notation
  54:.\20648_driver\drivers/inv_mems_data_converter.c **** * @param[in] quat 3 element rotation vector from DMP, missing the scalar part. Converts from Chip f
  55:.\20648_driver\drivers/inv_mems_data_converter.c **** * @param[out] values 4 element quaternion in Android format
  56:.\20648_driver\drivers/inv_mems_data_converter.c **** */
  57:.\20648_driver\drivers/inv_mems_data_converter.c **** void inv_convert_rotation_vector(const long *quat, float *values)
  58:.\20648_driver\drivers/inv_mems_data_converter.c **** {
 211              		.loc 1 58 0
 212              		.cfi_startproc
 213              	.LVL24:
 214 0000 30B5     		push	{r4, r5, lr}
ARM GAS  C:\Users\ADMINI~1\AppData\Local\Temp\ccPQFHHg.s 			page 6


 215              		.cfi_def_cfa_offset 12
 216              		.cfi_offset 4, -12
 217              		.cfi_offset 5, -8
 218              		.cfi_offset 14, -4
 219 0002 8BB0     		sub	sp, sp, #44
 220              		.cfi_def_cfa_offset 56
 221              		.loc 1 58 0
 222 0004 0C1C     		mov	r4, r1
  59:.\20648_driver\drivers/inv_mems_data_converter.c ****     long quat4[4];
  60:.\20648_driver\drivers/inv_mems_data_converter.c ****     long quat_body_to_world[4];
  61:.\20648_driver\drivers/inv_mems_data_converter.c **** 
  62:.\20648_driver\drivers/inv_mems_data_converter.c ****     inv_compute_scalar_part(quat, quat4);
 223              		.loc 1 62 0
 224 0006 02A9     		add	r1, sp, #8
 225              	.LVL25:
 226 0008 FFF7FEFF 		bl	inv_compute_scalar_part
 227              	.LVL26:
  63:.\20648_driver\drivers/inv_mems_data_converter.c ****     inv_q_mult_q_qi(quat4, s_quat_chip_to_body, quat_body_to_world);
 228              		.loc 1 63 0
 229 000c 02A8     		add	r0, sp, #8
 230 000e 06A9     		add	r1, sp, #24
 231 0010 FFF7FEFF 		bl	inv_q_mult_q_qi.constprop.0
 232              	.LVL27:
  64:.\20648_driver\drivers/inv_mems_data_converter.c ****     if (quat_body_to_world[0] >= 0) {
 233              		.loc 1 64 0
 234 0014 069D     		ldr	r5, [sp, #24]
 235 0016 002D     		cmp	r5, #0
 236 0018 19DB     		blt	.L8
  65:.\20648_driver\drivers/inv_mems_data_converter.c ****         values[0] = quat_body_to_world[1] * INV_TWO_POWER_NEG_30;
 237              		.loc 1 65 0
 238 001a 0798     		ldr	r0, [sp, #28]
 239 001c FFF7FEFF 		bl	__aeabi_i2f
 240              	.LVL28:
 241 0020 C221     		mov	r1, #194
 242 0022 8905     		lsl	r1, r1, #22
 243 0024 FFF7FEFF 		bl	__aeabi_fmul
 244              	.LVL29:
 245 0028 2060     		str	r0, [r4]
  66:.\20648_driver\drivers/inv_mems_data_converter.c ****         values[1] = quat_body_to_world[2] * INV_TWO_POWER_NEG_30;
 246              		.loc 1 66 0
 247 002a 0898     		ldr	r0, [sp, #32]
 248 002c FFF7FEFF 		bl	__aeabi_i2f
 249              	.LVL30:
 250 0030 C221     		mov	r1, #194
 251 0032 8905     		lsl	r1, r1, #22
 252 0034 FFF7FEFF 		bl	__aeabi_fmul
 253              	.LVL31:
 254 0038 6060     		str	r0, [r4, #4]
  67:.\20648_driver\drivers/inv_mems_data_converter.c ****         values[2] = quat_body_to_world[3] * INV_TWO_POWER_NEG_30;
 255              		.loc 1 67 0
 256 003a 0998     		ldr	r0, [sp, #36]
 257 003c FFF7FEFF 		bl	__aeabi_i2f
 258              	.LVL32:
 259 0040 C221     		mov	r1, #194
 260 0042 8905     		lsl	r1, r1, #22
 261 0044 FFF7FEFF 		bl	__aeabi_fmul
 262              	.LVL33:
ARM GAS  C:\Users\ADMINI~1\AppData\Local\Temp\ccPQFHHg.s 			page 7


 263 0048 A060     		str	r0, [r4, #8]
  68:.\20648_driver\drivers/inv_mems_data_converter.c ****         values[3] = quat_body_to_world[0] * INV_TWO_POWER_NEG_30;
 264              		.loc 1 68 0
 265 004a 281C     		mov	r0, r5
 266 004c 1DE0     		b	.L10
 267              	.L8:
  69:.\20648_driver\drivers/inv_mems_data_converter.c ****     } else {
  70:.\20648_driver\drivers/inv_mems_data_converter.c ****         values[0] = -quat_body_to_world[1] * INV_TWO_POWER_NEG_30;
 268              		.loc 1 70 0
 269 004e 079B     		ldr	r3, [sp, #28]
 270 0050 5842     		neg	r0, r3
 271 0052 0193     		str	r3, [sp, #4]
 272 0054 FFF7FEFF 		bl	__aeabi_i2f
 273              	.LVL34:
 274 0058 C221     		mov	r1, #194
 275 005a 8905     		lsl	r1, r1, #22
 276 005c FFF7FEFF 		bl	__aeabi_fmul
 277              	.LVL35:
  71:.\20648_driver\drivers/inv_mems_data_converter.c ****         values[1] = -quat_body_to_world[2] * INV_TWO_POWER_NEG_30;
 278              		.loc 1 71 0
 279 0060 089B     		ldr	r3, [sp, #32]
  70:.\20648_driver\drivers/inv_mems_data_converter.c ****         values[1] = -quat_body_to_world[2] * INV_TWO_POWER_NEG_30;
 280              		.loc 1 70 0
 281 0062 2060     		str	r0, [r4]
 282              		.loc 1 71 0
 283 0064 5842     		neg	r0, r3
 284 0066 0193     		str	r3, [sp, #4]
 285 0068 FFF7FEFF 		bl	__aeabi_i2f
 286              	.LVL36:
 287 006c C221     		mov	r1, #194
 288 006e 8905     		lsl	r1, r1, #22
 289 0070 FFF7FEFF 		bl	__aeabi_fmul
 290              	.LVL37:
 291 0074 6060     		str	r0, [r4, #4]
  72:.\20648_driver\drivers/inv_mems_data_converter.c ****         values[2] = -quat_body_to_world[3] * INV_TWO_POWER_NEG_30;
 292              		.loc 1 72 0
 293 0076 0998     		ldr	r0, [sp, #36]
 294 0078 4042     		neg	r0, r0
 295 007a FFF7FEFF 		bl	__aeabi_i2f
 296              	.LVL38:
 297 007e C221     		mov	r1, #194
 298 0080 8905     		lsl	r1, r1, #22
 299 0082 FFF7FEFF 		bl	__aeabi_fmul
 300              	.LVL39:
 301 0086 A060     		str	r0, [r4, #8]
  73:.\20648_driver\drivers/inv_mems_data_converter.c ****         values[3] = -quat_body_to_world[0] * INV_TWO_POWER_NEG_30;
 302              		.loc 1 73 0
 303 0088 6842     		neg	r0, r5
 304              	.L10:
 305 008a FFF7FEFF 		bl	__aeabi_i2f
 306              	.LVL40:
 307 008e C221     		mov	r1, #194
 308 0090 8905     		lsl	r1, r1, #22
 309 0092 FFF7FEFF 		bl	__aeabi_fmul
 310              	.LVL41:
 311 0096 E060     		str	r0, [r4, #12]
  74:.\20648_driver\drivers/inv_mems_data_converter.c ****     }
ARM GAS  C:\Users\ADMINI~1\AppData\Local\Temp\ccPQFHHg.s 			page 8


  75:.\20648_driver\drivers/inv_mems_data_converter.c **** }
 312              		.loc 1 75 0
 313 0098 0BB0     		add	sp, sp, #44
 314              		@ sp needed
 315              	.LVL42:
 316 009a 30BD     		pop	{r4, r5, pc}
 317              		.cfi_endproc
 318              	.LFE6:
 319              		.size	inv_convert_rotation_vector, .-inv_convert_rotation_vector
 320              		.section	.text.inv_convert_rotation_vector_1,"ax",%progbits
 321              		.align	1
 322              		.global	inv_convert_rotation_vector_1
 323              		.code	16
 324              		.thumb_func
 325              		.type	inv_convert_rotation_vector_1, %function
 326              	inv_convert_rotation_vector_1:
 327              	.LFB7:
  76:.\20648_driver\drivers/inv_mems_data_converter.c **** 
  77:.\20648_driver\drivers/inv_mems_data_converter.c **** /** Convert fixed point DMP rotation vector to fixed point android notation
  78:.\20648_driver\drivers/inv_mems_data_converter.c **** * @param[in] quat 3 element rotation vector from DMP, missing the scalar part. Converts from Chip f
  79:.\20648_driver\drivers/inv_mems_data_converter.c **** * @param[out] values 4 element quaternion in Android format
  80:.\20648_driver\drivers/inv_mems_data_converter.c **** */
  81:.\20648_driver\drivers/inv_mems_data_converter.c **** void inv_convert_rotation_vector_1(const long *quat, long *values)
  82:.\20648_driver\drivers/inv_mems_data_converter.c **** {
 328              		.loc 1 82 0
 329              		.cfi_startproc
 330              	.LVL43:
 331 0000 10B5     		push	{r4, lr}
 332              		.cfi_def_cfa_offset 8
 333              		.cfi_offset 4, -8
 334              		.cfi_offset 14, -4
 335 0002 88B0     		sub	sp, sp, #32
 336              		.cfi_def_cfa_offset 40
 337              		.loc 1 82 0
 338 0004 0C1C     		mov	r4, r1
  83:.\20648_driver\drivers/inv_mems_data_converter.c ****     long quat4[4];
  84:.\20648_driver\drivers/inv_mems_data_converter.c ****     long quat_body_to_world[4];
  85:.\20648_driver\drivers/inv_mems_data_converter.c **** 
  86:.\20648_driver\drivers/inv_mems_data_converter.c ****     inv_compute_scalar_part(quat, quat4);
 339              		.loc 1 86 0
 340 0006 6946     		mov	r1, sp
 341              	.LVL44:
 342 0008 FFF7FEFF 		bl	inv_compute_scalar_part
 343              	.LVL45:
  87:.\20648_driver\drivers/inv_mems_data_converter.c ****     inv_q_mult_q_qi(quat4, s_quat_chip_to_body, quat_body_to_world);
 344              		.loc 1 87 0
 345 000c 6846     		mov	r0, sp
 346 000e 04A9     		add	r1, sp, #16
 347 0010 FFF7FEFF 		bl	inv_q_mult_q_qi.constprop.0
 348              	.LVL46:
  88:.\20648_driver\drivers/inv_mems_data_converter.c ****     if (quat_body_to_world[0] >= 0) {
 349              		.loc 1 88 0
 350 0014 049B     		ldr	r3, [sp, #16]
 351 0016 0598     		ldr	r0, [sp, #20]
 352 0018 0699     		ldr	r1, [sp, #24]
 353 001a 079A     		ldr	r2, [sp, #28]
 354 001c 002B     		cmp	r3, #0
ARM GAS  C:\Users\ADMINI~1\AppData\Local\Temp\ccPQFHHg.s 			page 9


 355 001e 03DB     		blt	.L13
  89:.\20648_driver\drivers/inv_mems_data_converter.c ****         values[0] = quat_body_to_world[1];
 356              		.loc 1 89 0
 357 0020 2060     		str	r0, [r4]
  90:.\20648_driver\drivers/inv_mems_data_converter.c ****         values[1] = quat_body_to_world[2];
 358              		.loc 1 90 0
 359 0022 6160     		str	r1, [r4, #4]
  91:.\20648_driver\drivers/inv_mems_data_converter.c ****         values[2] = quat_body_to_world[3];
 360              		.loc 1 91 0
 361 0024 A260     		str	r2, [r4, #8]
 362 0026 06E0     		b	.L15
 363              	.L13:
  92:.\20648_driver\drivers/inv_mems_data_converter.c ****         values[3] = quat_body_to_world[0];
  93:.\20648_driver\drivers/inv_mems_data_converter.c ****     } else {
  94:.\20648_driver\drivers/inv_mems_data_converter.c ****         values[0] = -quat_body_to_world[1];
 364              		.loc 1 94 0
 365 0028 4042     		neg	r0, r0
  95:.\20648_driver\drivers/inv_mems_data_converter.c ****         values[1] = -quat_body_to_world[2];
 366              		.loc 1 95 0
 367 002a 4942     		neg	r1, r1
  96:.\20648_driver\drivers/inv_mems_data_converter.c ****         values[2] = -quat_body_to_world[3];
 368              		.loc 1 96 0
 369 002c 5242     		neg	r2, r2
  94:.\20648_driver\drivers/inv_mems_data_converter.c ****         values[1] = -quat_body_to_world[2];
 370              		.loc 1 94 0
 371 002e 2060     		str	r0, [r4]
  95:.\20648_driver\drivers/inv_mems_data_converter.c ****         values[1] = -quat_body_to_world[2];
 372              		.loc 1 95 0
 373 0030 6160     		str	r1, [r4, #4]
 374              		.loc 1 96 0
 375 0032 A260     		str	r2, [r4, #8]
  97:.\20648_driver\drivers/inv_mems_data_converter.c ****         values[3] = -quat_body_to_world[0];
 376              		.loc 1 97 0
 377 0034 5B42     		neg	r3, r3
 378              	.L15:
 379 0036 E360     		str	r3, [r4, #12]
  98:.\20648_driver\drivers/inv_mems_data_converter.c ****     }
  99:.\20648_driver\drivers/inv_mems_data_converter.c **** }
 380              		.loc 1 99 0
 381 0038 08B0     		add	sp, sp, #32
 382              		@ sp needed
 383              	.LVL47:
 384 003a 10BD     		pop	{r4, pc}
 385              		.cfi_endproc
 386              	.LFE7:
 387              		.size	inv_convert_rotation_vector_1, .-inv_convert_rotation_vector_1
 388              		.section	.text.inv_convert_rotation_vector_2,"ax",%progbits
 389              		.align	1
 390              		.global	inv_convert_rotation_vector_2
 391              		.code	16
 392              		.thumb_func
 393              		.type	inv_convert_rotation_vector_2, %function
 394              	inv_convert_rotation_vector_2:
 395              	.LFB8:
 100:.\20648_driver\drivers/inv_mems_data_converter.c **** 
 101:.\20648_driver\drivers/inv_mems_data_converter.c **** /** Convert 3 element fixed point DMP rotation vector to 4 element rotation vector in world frame
 102:.\20648_driver\drivers/inv_mems_data_converter.c **** * @param[in] quat 3 element rotation vector from DMP, missing the scalar part. Converts from Chip f
ARM GAS  C:\Users\ADMINI~1\AppData\Local\Temp\ccPQFHHg.s 			page 10


 103:.\20648_driver\drivers/inv_mems_data_converter.c **** * @param[out] values 4 element quaternion
 104:.\20648_driver\drivers/inv_mems_data_converter.c **** */
 105:.\20648_driver\drivers/inv_mems_data_converter.c **** void inv_convert_rotation_vector_2(const long *quat, long *quat4_world)
 106:.\20648_driver\drivers/inv_mems_data_converter.c **** {
 396              		.loc 1 106 0
 397              		.cfi_startproc
 398              	.LVL48:
 399 0000 10B5     		push	{r4, lr}
 400              		.cfi_def_cfa_offset 8
 401              		.cfi_offset 4, -8
 402              		.cfi_offset 14, -4
 403 0002 0C1C     		mov	r4, r1
 404 0004 88B0     		sub	sp, sp, #32
 405              		.cfi_def_cfa_offset 40
 107:.\20648_driver\drivers/inv_mems_data_converter.c ****     long quat4[4];
 108:.\20648_driver\drivers/inv_mems_data_converter.c ****     long quat_body_to_world[4];
 109:.\20648_driver\drivers/inv_mems_data_converter.c **** 
 110:.\20648_driver\drivers/inv_mems_data_converter.c ****     inv_compute_scalar_part(quat, quat4);
 406              		.loc 1 110 0
 407 0006 6946     		mov	r1, sp
 408              	.LVL49:
 409 0008 FFF7FEFF 		bl	inv_compute_scalar_part
 410              	.LVL50:
 111:.\20648_driver\drivers/inv_mems_data_converter.c ****     inv_q_mult_q_qi(quat4, s_quat_chip_to_body, quat_body_to_world);
 411              		.loc 1 111 0
 412 000c 6846     		mov	r0, sp
 413 000e 04A9     		add	r1, sp, #16
 414 0010 FFF7FEFF 		bl	inv_q_mult_q_qi.constprop.0
 415              	.LVL51:
 112:.\20648_driver\drivers/inv_mems_data_converter.c ****     memcpy(quat4_world, quat_body_to_world, 4*sizeof(long));
 416              		.loc 1 112 0
 417 0014 201C     		mov	r0, r4
 418 0016 04A9     		add	r1, sp, #16
 419 0018 1022     		mov	r2, #16
 420 001a FFF7FEFF 		bl	memcpy
 421              	.LVL52:
 113:.\20648_driver\drivers/inv_mems_data_converter.c **** }
 422              		.loc 1 113 0
 423 001e 08B0     		add	sp, sp, #32
 424              		@ sp needed
 425              	.LVL53:
 426 0020 10BD     		pop	{r4, pc}
 427              		.cfi_endproc
 428              	.LFE8:
 429              		.size	inv_convert_rotation_vector_2, .-inv_convert_rotation_vector_2
 430              		.section	.text.inv_convert_rotation_vector_3,"ax",%progbits
 431              		.align	1
 432              		.global	inv_convert_rotation_vector_3
 433              		.code	16
 434              		.thumb_func
 435              		.type	inv_convert_rotation_vector_3, %function
 436              	inv_convert_rotation_vector_3:
 437              	.LFB9:
 114:.\20648_driver\drivers/inv_mems_data_converter.c **** 
 115:.\20648_driver\drivers/inv_mems_data_converter.c **** /** Convert 4 element rotation vector in world frame to floating point android notation
 116:.\20648_driver\drivers/inv_mems_data_converter.c **** * @param[in] quat 4 element rotation vector in World frame
 117:.\20648_driver\drivers/inv_mems_data_converter.c **** * @param[out] values in Android format
ARM GAS  C:\Users\ADMINI~1\AppData\Local\Temp\ccPQFHHg.s 			page 11


 118:.\20648_driver\drivers/inv_mems_data_converter.c **** */
 119:.\20648_driver\drivers/inv_mems_data_converter.c **** void inv_convert_rotation_vector_3(const long *quat4_world, float *values)
 120:.\20648_driver\drivers/inv_mems_data_converter.c **** {
 438              		.loc 1 120 0
 439              		.cfi_startproc
 440              	.LVL54:
 441 0000 70B5     		push	{r4, r5, r6, lr}
 442              		.cfi_def_cfa_offset 16
 443              		.cfi_offset 4, -16
 444              		.cfi_offset 5, -12
 445              		.cfi_offset 6, -8
 446              		.cfi_offset 14, -4
 121:.\20648_driver\drivers/inv_mems_data_converter.c ****     if (quat4_world[0] >= 0) {
 447              		.loc 1 121 0
 448 0002 0668     		ldr	r6, [r0]
 120:.\20648_driver\drivers/inv_mems_data_converter.c ****     if (quat4_world[0] >= 0) {
 449              		.loc 1 120 0
 450 0004 051C     		mov	r5, r0
 451 0006 0C1C     		mov	r4, r1
 452              		.loc 1 121 0
 453 0008 002E     		cmp	r6, #0
 454 000a 19DB     		blt	.L18
 122:.\20648_driver\drivers/inv_mems_data_converter.c ****         values[0] = quat4_world[1] * INV_TWO_POWER_NEG_30;
 455              		.loc 1 122 0
 456 000c 4068     		ldr	r0, [r0, #4]
 457              	.LVL55:
 458 000e FFF7FEFF 		bl	__aeabi_i2f
 459              	.LVL56:
 460 0012 C221     		mov	r1, #194
 461 0014 8905     		lsl	r1, r1, #22
 462 0016 FFF7FEFF 		bl	__aeabi_fmul
 463              	.LVL57:
 464 001a 2060     		str	r0, [r4]
 123:.\20648_driver\drivers/inv_mems_data_converter.c ****         values[1] = quat4_world[2] * INV_TWO_POWER_NEG_30;
 465              		.loc 1 123 0
 466 001c A868     		ldr	r0, [r5, #8]
 467 001e FFF7FEFF 		bl	__aeabi_i2f
 468              	.LVL58:
 469 0022 C221     		mov	r1, #194
 470 0024 8905     		lsl	r1, r1, #22
 471 0026 FFF7FEFF 		bl	__aeabi_fmul
 472              	.LVL59:
 473 002a 6060     		str	r0, [r4, #4]
 124:.\20648_driver\drivers/inv_mems_data_converter.c ****         values[2] = quat4_world[3] * INV_TWO_POWER_NEG_30;
 474              		.loc 1 124 0
 475 002c E868     		ldr	r0, [r5, #12]
 476 002e FFF7FEFF 		bl	__aeabi_i2f
 477              	.LVL60:
 478 0032 C221     		mov	r1, #194
 479 0034 8905     		lsl	r1, r1, #22
 480 0036 FFF7FEFF 		bl	__aeabi_fmul
 481              	.LVL61:
 482 003a A060     		str	r0, [r4, #8]
 125:.\20648_driver\drivers/inv_mems_data_converter.c ****         values[3] = quat4_world[0] * INV_TWO_POWER_NEG_30;
 483              		.loc 1 125 0
 484 003c 301C     		mov	r0, r6
 485 003e 1BE0     		b	.L20
ARM GAS  C:\Users\ADMINI~1\AppData\Local\Temp\ccPQFHHg.s 			page 12


 486              	.LVL62:
 487              	.L18:
 126:.\20648_driver\drivers/inv_mems_data_converter.c ****     } else {
 127:.\20648_driver\drivers/inv_mems_data_converter.c ****         values[0] = -quat4_world[1] * INV_TWO_POWER_NEG_30;
 488              		.loc 1 127 0
 489 0040 4368     		ldr	r3, [r0, #4]
 490 0042 5842     		neg	r0, r3
 491              	.LVL63:
 492 0044 FFF7FEFF 		bl	__aeabi_i2f
 493              	.LVL64:
 494 0048 C221     		mov	r1, #194
 495 004a 8905     		lsl	r1, r1, #22
 496 004c FFF7FEFF 		bl	__aeabi_fmul
 497              	.LVL65:
 128:.\20648_driver\drivers/inv_mems_data_converter.c ****         values[1] = -quat4_world[2] * INV_TWO_POWER_NEG_30;
 498              		.loc 1 128 0
 499 0050 AB68     		ldr	r3, [r5, #8]
 127:.\20648_driver\drivers/inv_mems_data_converter.c ****         values[1] = -quat4_world[2] * INV_TWO_POWER_NEG_30;
 500              		.loc 1 127 0
 501 0052 2060     		str	r0, [r4]
 502              		.loc 1 128 0
 503 0054 5842     		neg	r0, r3
 504 0056 FFF7FEFF 		bl	__aeabi_i2f
 505              	.LVL66:
 506 005a C221     		mov	r1, #194
 507 005c 8905     		lsl	r1, r1, #22
 508 005e FFF7FEFF 		bl	__aeabi_fmul
 509              	.LVL67:
 510 0062 6060     		str	r0, [r4, #4]
 129:.\20648_driver\drivers/inv_mems_data_converter.c ****         values[2] = -quat4_world[3] * INV_TWO_POWER_NEG_30;
 511              		.loc 1 129 0
 512 0064 E868     		ldr	r0, [r5, #12]
 513 0066 4042     		neg	r0, r0
 514 0068 FFF7FEFF 		bl	__aeabi_i2f
 515              	.LVL68:
 516 006c C221     		mov	r1, #194
 517 006e 8905     		lsl	r1, r1, #22
 518 0070 FFF7FEFF 		bl	__aeabi_fmul
 519              	.LVL69:
 520 0074 A060     		str	r0, [r4, #8]
 130:.\20648_driver\drivers/inv_mems_data_converter.c ****         values[3] = -quat4_world[0] * INV_TWO_POWER_NEG_30;
 521              		.loc 1 130 0
 522 0076 7042     		neg	r0, r6
 523              	.L20:
 524 0078 FFF7FEFF 		bl	__aeabi_i2f
 525              	.LVL70:
 526 007c C221     		mov	r1, #194
 527 007e 8905     		lsl	r1, r1, #22
 528 0080 FFF7FEFF 		bl	__aeabi_fmul
 529              	.LVL71:
 131:.\20648_driver\drivers/inv_mems_data_converter.c ****     }
 132:.\20648_driver\drivers/inv_mems_data_converter.c **** }
 530              		.loc 1 132 0
 531              		@ sp needed
 130:.\20648_driver\drivers/inv_mems_data_converter.c ****         values[3] = -quat4_world[0] * INV_TWO_POWER_NEG_30;
 532              		.loc 1 130 0
 533 0084 E060     		str	r0, [r4, #12]
ARM GAS  C:\Users\ADMINI~1\AppData\Local\Temp\ccPQFHHg.s 			page 13


 534              	.LVL72:
 535              	.LVL73:
 536              		.loc 1 132 0
 537 0086 70BD     		pop	{r4, r5, r6, pc}
 538              		.cfi_endproc
 539              	.LFE9:
 540              		.size	inv_convert_rotation_vector_3, .-inv_convert_rotation_vector_3
 541              		.global	__aeabi_fdiv
 542              		.global	__aeabi_f2iz
 543              		.section	.text.inv_set_chip_to_body_axis_quaternion,"ax",%progbits
 544              		.align	1
 545              		.global	inv_set_chip_to_body_axis_quaternion
 546              		.code	16
 547              		.thumb_func
 548              		.type	inv_set_chip_to_body_axis_quaternion, %function
 549              	inv_set_chip_to_body_axis_quaternion:
 550              	.LFB10:
 133:.\20648_driver\drivers/inv_mems_data_converter.c **** 
 134:.\20648_driver\drivers/inv_mems_data_converter.c **** void inv_set_chip_to_body_axis_quaternion(signed char *accel_gyro_matrix, float angle)
 135:.\20648_driver\drivers/inv_mems_data_converter.c **** {
 551              		.loc 1 135 0
 552              		.cfi_startproc
 553              	.LVL74:
 554 0000 F0B5     		push	{r4, r5, r6, r7, lr}
 555              		.cfi_def_cfa_offset 20
 556              		.cfi_offset 4, -20
 557              		.cfi_offset 5, -16
 558              		.cfi_offset 6, -12
 559              		.cfi_offset 7, -8
 560              		.cfi_offset 14, -4
 561 0002 071C     		mov	r7, r0
 136:.\20648_driver\drivers/inv_mems_data_converter.c ****     int i;
 137:.\20648_driver\drivers/inv_mems_data_converter.c ****     float rot[9];
 138:.\20648_driver\drivers/inv_mems_data_converter.c ****     long qcb[4],q_all[4];
 139:.\20648_driver\drivers/inv_mems_data_converter.c ****     long q_adjust[4];
 140:.\20648_driver\drivers/inv_mems_data_converter.c ****     for (i=0; i<9; i++) {
 562              		.loc 1 140 0
 563 0004 0024     		mov	r4, #0
 135:.\20648_driver\drivers/inv_mems_data_converter.c ****     int i;
 564              		.loc 1 135 0
 565 0006 99B0     		sub	sp, sp, #100
 566              		.cfi_def_cfa_offset 120
 135:.\20648_driver\drivers/inv_mems_data_converter.c ****     int i;
 567              		.loc 1 135 0
 568 0008 0D1C     		add	r5, r1, #0
 569              	.LVL75:
 570              	.L22:
 571 000a A300     		lsl	r3, r4, #2
 141:.\20648_driver\drivers/inv_mems_data_converter.c ****         rot[i] = (float)accel_gyro_matrix[i];
 572              		.loc 1 141 0 discriminator 3
 573 000c 3857     		ldrsb	r0, [r7, r4]
 574 000e 0193     		str	r3, [sp, #4]
 575 0010 FFF7FEFF 		bl	__aeabi_i2f
 576              	.LVL76:
 577 0014 019B     		ldr	r3, [sp, #4]
 578 0016 0FAE     		add	r6, sp, #60
 140:.\20648_driver\drivers/inv_mems_data_converter.c ****         rot[i] = (float)accel_gyro_matrix[i];
ARM GAS  C:\Users\ADMINI~1\AppData\Local\Temp\ccPQFHHg.s 			page 14


 579              		.loc 1 140 0 discriminator 3
 580 0018 0134     		add	r4, r4, #1
 581              	.LVL77:
 582              		.loc 1 141 0 discriminator 3
 583 001a 9851     		str	r0, [r3, r6]
 140:.\20648_driver\drivers/inv_mems_data_converter.c ****         rot[i] = (float)accel_gyro_matrix[i];
 584              		.loc 1 140 0 discriminator 3
 585 001c 092C     		cmp	r4, #9
 586 001e F4D1     		bne	.L22
 142:.\20648_driver\drivers/inv_mems_data_converter.c ****     }
 143:.\20648_driver\drivers/inv_mems_data_converter.c ****     // Convert Chip to Body transformation matrix to quaternion
 144:.\20648_driver\drivers/inv_mems_data_converter.c ****     inv_rotation_to_quaternion(rot, qcb);
 587              		.loc 1 144 0
 588 0020 301C     		mov	r0, r6
 589 0022 03A9     		add	r1, sp, #12
 590 0024 FFF7FEFF 		bl	inv_rotation_to_quaternion
 591              	.LVL78:
 145:.\20648_driver\drivers/inv_mems_data_converter.c ****     // The quaterion generated is the inverse, take the inverse again.
 146:.\20648_driver\drivers/inv_mems_data_converter.c ****     qcb[1] = -qcb[1];
 592              		.loc 1 146 0
 593 0028 049B     		ldr	r3, [sp, #16]
 147:.\20648_driver\drivers/inv_mems_data_converter.c ****     qcb[2] = -qcb[2];
 148:.\20648_driver\drivers/inv_mems_data_converter.c ****     qcb[3] = -qcb[3];
 149:.\20648_driver\drivers/inv_mems_data_converter.c **** 
 150:.\20648_driver\drivers/inv_mems_data_converter.c ****     // Now rotate by angle, negate angle to rotate other way
 151:.\20648_driver\drivers/inv_mems_data_converter.c ****     q_adjust[0] = (long)((1L<<30) * cosf(-angle*(float)M_PI/180.f/2.f));
 594              		.loc 1 151 0
 595 002a 281C     		add	r0, r5, #0
 146:.\20648_driver\drivers/inv_mems_data_converter.c ****     qcb[2] = -qcb[2];
 596              		.loc 1 146 0
 597 002c 5B42     		neg	r3, r3
 598 002e 0493     		str	r3, [sp, #16]
 147:.\20648_driver\drivers/inv_mems_data_converter.c ****     qcb[2] = -qcb[2];
 599              		.loc 1 147 0
 600 0030 059B     		ldr	r3, [sp, #20]
 601              		.loc 1 151 0
 602 0032 1E49     		ldr	r1, .L23
 147:.\20648_driver\drivers/inv_mems_data_converter.c ****     qcb[2] = -qcb[2];
 603              		.loc 1 147 0
 604 0034 5B42     		neg	r3, r3
 605 0036 0593     		str	r3, [sp, #20]
 148:.\20648_driver\drivers/inv_mems_data_converter.c **** 
 606              		.loc 1 148 0
 607 0038 069B     		ldr	r3, [sp, #24]
 152:.\20648_driver\drivers/inv_mems_data_converter.c ****     q_adjust[1] = 0;
 608              		.loc 1 152 0
 609 003a 0024     		mov	r4, #0
 610              	.LVL79:
 148:.\20648_driver\drivers/inv_mems_data_converter.c **** 
 611              		.loc 1 148 0
 612 003c 0193     		str	r3, [sp, #4]
 613 003e 5B42     		neg	r3, r3
 614 0040 0693     		str	r3, [sp, #24]
 151:.\20648_driver\drivers/inv_mems_data_converter.c ****     q_adjust[1] = 0;
 615              		.loc 1 151 0
 616 0042 FFF7FEFF 		bl	__aeabi_fmul
 617              	.LVL80:
ARM GAS  C:\Users\ADMINI~1\AppData\Local\Temp\ccPQFHHg.s 			page 15


 618 0046 1A49     		ldr	r1, .L23+4
 619 0048 FFF7FEFF 		bl	__aeabi_fdiv
 620              	.LVL81:
 621 004c FC21     		mov	r1, #252
 622 004e 8905     		lsl	r1, r1, #22
 623 0050 FFF7FEFF 		bl	__aeabi_fmul
 624              	.LVL82:
 625 0054 FFF7FEFF 		bl	cosf
 626              	.LVL83:
 627 0058 9D21     		mov	r1, #157
 628 005a C905     		lsl	r1, r1, #23
 629 005c FFF7FEFF 		bl	__aeabi_fmul
 630              	.LVL84:
 631 0060 FFF7FEFF 		bl	__aeabi_f2iz
 632              	.LVL85:
 153:.\20648_driver\drivers/inv_mems_data_converter.c ****     q_adjust[2] = (long)((1L<<30)*sinf(-angle*(float)M_PI/180.f/2.f));
 633              		.loc 1 153 0
 634 0064 8023     		mov	r3, #128
 635 0066 1B06     		lsl	r3, r3, #24
 151:.\20648_driver\drivers/inv_mems_data_converter.c ****     q_adjust[1] = 0;
 636              		.loc 1 151 0
 637 0068 0B90     		str	r0, [sp, #44]
 638              		.loc 1 153 0
 639 006a 1049     		ldr	r1, .L23
 640 006c E818     		add	r0, r5, r3
 152:.\20648_driver\drivers/inv_mems_data_converter.c ****     q_adjust[1] = 0;
 641              		.loc 1 152 0
 642 006e 0C94     		str	r4, [sp, #48]
 643              		.loc 1 153 0
 644 0070 FFF7FEFF 		bl	__aeabi_fmul
 645              	.LVL86:
 646 0074 0E49     		ldr	r1, .L23+4
 647 0076 FFF7FEFF 		bl	__aeabi_fdiv
 648              	.LVL87:
 649 007a FC21     		mov	r1, #252
 650 007c 8905     		lsl	r1, r1, #22
 651 007e FFF7FEFF 		bl	__aeabi_fmul
 652              	.LVL88:
 653 0082 FFF7FEFF 		bl	sinf
 654              	.LVL89:
 655 0086 9D21     		mov	r1, #157
 656 0088 C905     		lsl	r1, r1, #23
 657 008a FFF7FEFF 		bl	__aeabi_fmul
 658              	.LVL90:
 659 008e FFF7FEFF 		bl	__aeabi_f2iz
 660              	.LVL91:
 154:.\20648_driver\drivers/inv_mems_data_converter.c ****     q_adjust[3] = 0;
 155:.\20648_driver\drivers/inv_mems_data_converter.c ****     inv_q_mult(q_adjust, qcb, q_all);
 661              		.loc 1 155 0
 662 0092 03A9     		add	r1, sp, #12
 153:.\20648_driver\drivers/inv_mems_data_converter.c ****     q_adjust[2] = (long)((1L<<30)*sinf(-angle*(float)M_PI/180.f/2.f));
 663              		.loc 1 153 0
 664 0094 0D90     		str	r0, [sp, #52]
 665              		.loc 1 155 0
 666 0096 07AA     		add	r2, sp, #28
 667 0098 0BA8     		add	r0, sp, #44
 154:.\20648_driver\drivers/inv_mems_data_converter.c ****     q_adjust[3] = 0;
ARM GAS  C:\Users\ADMINI~1\AppData\Local\Temp\ccPQFHHg.s 			page 16


 668              		.loc 1 154 0
 669 009a 0E94     		str	r4, [sp, #56]
 670              		.loc 1 155 0
 671 009c FFF7FEFF 		bl	inv_q_mult
 672              	.LVL92:
 156:.\20648_driver\drivers/inv_mems_data_converter.c ****     inv_set_chip_to_body(q_all);
 673              		.loc 1 156 0
 674 00a0 07A8     		add	r0, sp, #28
 675 00a2 FFF7FEFF 		bl	inv_set_chip_to_body
 676              	.LVL93:
 157:.\20648_driver\drivers/inv_mems_data_converter.c **** }
 677              		.loc 1 157 0
 678 00a6 19B0     		add	sp, sp, #100
 679              		@ sp needed
 680              	.LVL94:
 681              	.LVL95:
 682 00a8 F0BD     		pop	{r4, r5, r6, r7, pc}
 683              	.L24:
 684 00aa C046     		.align	2
 685              	.L23:
 686 00ac DB0F4940 		.word	1078530011
 687 00b0 00003443 		.word	1127481344
 688              		.cfi_endproc
 689              	.LFE10:
 690              		.size	inv_set_chip_to_body_axis_quaternion, .-inv_set_chip_to_body_axis_quaternion
 691              		.section	.text.inv_convert_dmp3_to_body,"ax",%progbits
 692              		.align	1
 693              		.global	inv_convert_dmp3_to_body
 694              		.code	16
 695              		.thumb_func
 696              		.type	inv_convert_dmp3_to_body, %function
 697              	inv_convert_dmp3_to_body:
 698              	.LFB11:
 158:.\20648_driver\drivers/inv_mems_data_converter.c **** 
 159:.\20648_driver\drivers/inv_mems_data_converter.c **** void inv_convert_dmp3_to_body(const long *vec3, float scale, float *values)
 160:.\20648_driver\drivers/inv_mems_data_converter.c **** {
 699              		.loc 1 160 0
 700              		.cfi_startproc
 701              	.LVL96:
 702 0000 031C     		mov	r3, r0
 703 0002 30B5     		push	{r4, r5, lr}
 704              		.cfi_def_cfa_offset 12
 705              		.cfi_offset 4, -12
 706              		.cfi_offset 5, -8
 707              		.cfi_offset 14, -4
 708 0004 85B0     		sub	sp, sp, #20
 709              		.cfi_def_cfa_offset 32
 710              		.loc 1 160 0
 711 0006 0D1C     		add	r5, r1, #0
 712 0008 141C     		mov	r4, r2
 161:.\20648_driver\drivers/inv_mems_data_converter.c ****     long out[3];
 162:.\20648_driver\drivers/inv_mems_data_converter.c ****     inv_q_rotate(s_quat_chip_to_body, vec3, out);
 713              		.loc 1 162 0
 714 000a 191C     		mov	r1, r3
 715              	.LVL97:
 716 000c 01AA     		add	r2, sp, #4
 717              	.LVL98:
ARM GAS  C:\Users\ADMINI~1\AppData\Local\Temp\ccPQFHHg.s 			page 17


 718 000e 0D48     		ldr	r0, .L26
 719              	.LVL99:
 720 0010 FFF7FEFF 		bl	inv_q_rotate
 721              	.LVL100:
 163:.\20648_driver\drivers/inv_mems_data_converter.c ****     values[0] = out[0] * scale;
 722              		.loc 1 163 0
 723 0014 0198     		ldr	r0, [sp, #4]
 724 0016 FFF7FEFF 		bl	__aeabi_i2f
 725              	.LVL101:
 726 001a 291C     		add	r1, r5, #0
 727 001c FFF7FEFF 		bl	__aeabi_fmul
 728              	.LVL102:
 729 0020 2060     		str	r0, [r4]
 164:.\20648_driver\drivers/inv_mems_data_converter.c ****     values[1] = out[1] * scale;
 730              		.loc 1 164 0
 731 0022 0298     		ldr	r0, [sp, #8]
 732 0024 FFF7FEFF 		bl	__aeabi_i2f
 733              	.LVL103:
 734 0028 291C     		add	r1, r5, #0
 735 002a FFF7FEFF 		bl	__aeabi_fmul
 736              	.LVL104:
 737 002e 6060     		str	r0, [r4, #4]
 165:.\20648_driver\drivers/inv_mems_data_converter.c ****     values[2] = out[2] * scale;
 738              		.loc 1 165 0
 739 0030 0398     		ldr	r0, [sp, #12]
 740 0032 FFF7FEFF 		bl	__aeabi_i2f
 741              	.LVL105:
 742 0036 291C     		add	r1, r5, #0
 743 0038 FFF7FEFF 		bl	__aeabi_fmul
 744              	.LVL106:
 745 003c A060     		str	r0, [r4, #8]
 166:.\20648_driver\drivers/inv_mems_data_converter.c **** }
 746              		.loc 1 166 0
 747 003e 05B0     		add	sp, sp, #20
 748              		@ sp needed
 749              	.LVL107:
 750              	.LVL108:
 751 0040 30BD     		pop	{r4, r5, pc}
 752              	.L27:
 753 0042 C046     		.align	2
 754              	.L26:
 755 0044 00000000 		.word	.LANCHOR0
 756              		.cfi_endproc
 757              	.LFE11:
 758              		.size	inv_convert_dmp3_to_body, .-inv_convert_dmp3_to_body
 759              		.section	.text.inv_int32_to_little8,"ax",%progbits
 760              		.align	1
 761              		.global	inv_int32_to_little8
 762              		.code	16
 763              		.thumb_func
 764              		.type	inv_int32_to_little8, %function
 765              	inv_int32_to_little8:
 766              	.LFB12:
 167:.\20648_driver\drivers/inv_mems_data_converter.c **** 
 168:.\20648_driver\drivers/inv_mems_data_converter.c **** /** Converts a 32-bit long to a little endian byte stream */
 169:.\20648_driver\drivers/inv_mems_data_converter.c **** unsigned char *inv_int32_to_little8(long x, unsigned char *little8)
 170:.\20648_driver\drivers/inv_mems_data_converter.c **** {
ARM GAS  C:\Users\ADMINI~1\AppData\Local\Temp\ccPQFHHg.s 			page 18


 767              		.loc 1 170 0
 768              		.cfi_startproc
 769              	.LVL109:
 171:.\20648_driver\drivers/inv_mems_data_converter.c ****     little8[3] = (unsigned char)((x >> 24) & 0xff);
 770              		.loc 1 171 0
 771 0000 0316     		asr	r3, r0, #24
 772 0002 CB70     		strb	r3, [r1, #3]
 172:.\20648_driver\drivers/inv_mems_data_converter.c ****     little8[2] = (unsigned char)((x >> 16) & 0xff);
 773              		.loc 1 172 0
 774 0004 0314     		asr	r3, r0, #16
 775 0006 8B70     		strb	r3, [r1, #2]
 173:.\20648_driver\drivers/inv_mems_data_converter.c ****     little8[1] = (unsigned char)((x >> 8) & 0xff);
 776              		.loc 1 173 0
 777 0008 0312     		asr	r3, r0, #8
 174:.\20648_driver\drivers/inv_mems_data_converter.c ****     little8[0] = (unsigned char)(x & 0xff);
 778              		.loc 1 174 0
 779 000a 0870     		strb	r0, [r1]
 173:.\20648_driver\drivers/inv_mems_data_converter.c ****     little8[1] = (unsigned char)((x >> 8) & 0xff);
 780              		.loc 1 173 0
 781 000c 4B70     		strb	r3, [r1, #1]
 175:.\20648_driver\drivers/inv_mems_data_converter.c ****     return little8;
 176:.\20648_driver\drivers/inv_mems_data_converter.c **** }...
 782              		.loc 1 176 0
 783 000e 081C     		mov	r0, r1
 784              	.LVL110:
 785              		@ sp needed
 786 0010 7047     		bx	lr
 787              		.cfi_endproc
 788              	.LFE12:
 789              		.size	inv_int32_to_little8, .-inv_int32_to_little8
 790              		.data
 791              		.align	2
 792              		.set	.LANCHOR0,. + 0
 793              		.type	s_quat_chip_to_body, %object
 794              		.size	s_quat_chip_to_body, 16
 795              	s_quat_chip_to_body:
 796 0000 00000040 		.word	1073741824
 797 0004 00000000 		.word	0
 798 0008 00000000 		.word	0
 799 000c 00000000 		.word	0
 800              		.text
 801              	.Letext0:
 802              		.file 2 "./.\\20648_driver\\invn\\ml_math_func.h"
 803              		.file 3 "c:\\program files (x86)\\cypress\\psoc creator\\3.3\\psoc creator\\import\\gnu\\arm\\4.9.