ARM GAS  C:\Users\ADMINI~1\AppData\Local\Temp\cc6U3Ikc.s 			page 1


   1              		.cpu cortex-m0
   2              		.fpu softvfp
   3              		.eabi_attribute 20, 1
   4              		.eabi_attribute 21, 1
   5              		.eabi_attribute 23, 3
   6              		.eabi_attribute 24, 1
   7              		.eabi_attribute 25, 1
   8              		.eabi_attribute 26, 1
   9              		.eabi_attribute 30, 4
  10              		.eabi_attribute 34, 0
  11              		.eabi_attribute 18, 4
  12              		.code	16
  13              		.file	"inv_mems_secondary_transport.c"
  14              		.text
  15              	.Ltext0:
  16              		.cfi_sections	.debug_frame
  17              		.section	.text.inv_read_secondary,"ax",%progbits
  18              		.align	1
  19              		.global	inv_read_secondary
  20              		.code	16
  21              		.thumb_func
  22              		.type	inv_read_secondary, %function
  23              	inv_read_secondary:
  24              	.LFB1:
  25              		.file 1 ".\\20648_driver\\drivers\\inv_mems_secondary_transport.c"
   1:.\20648_driver\drivers/inv_mems_secondary_transport.c **** /*
   2:.\20648_driver\drivers/inv_mems_secondary_transport.c **** * _________________________________________________________________________________________________
   3:.\20648_driver\drivers/inv_mems_secondary_transport.c **** * Copyright © 2014-2015 InvenSense Inc. Portions Copyright © 2014-2015 Movea. All rights reserved.
   4:.\20648_driver\drivers/inv_mems_secondary_transport.c **** * This software, related documentation and any modifications thereto (collectively “Software”) is s
   5:.\20648_driver\drivers/inv_mems_secondary_transport.c **** * to InvenSense and its licensors' intellectual property rights under U.S. and international copyri
   6:.\20648_driver\drivers/inv_mems_secondary_transport.c **** * other intellectual property rights laws.
   7:.\20648_driver\drivers/inv_mems_secondary_transport.c **** * InvenSense and its licensors retain all intellectual property and proprietary rights in and to th
   8:.\20648_driver\drivers/inv_mems_secondary_transport.c **** * and any use, reproduction, disclosure or distribution of the Software without an express license
   9:.\20648_driver\drivers/inv_mems_secondary_transport.c **** * agreement from InvenSense is strictly prohibited.
  10:.\20648_driver\drivers/inv_mems_secondary_transport.c **** * _________________________________________________________________________________________________
  11:.\20648_driver\drivers/inv_mems_secondary_transport.c **** */
  12:.\20648_driver\drivers/inv_mems_secondary_transport.c **** 
  13:.\20648_driver\drivers/inv_mems_secondary_transport.c **** #include ".\20648_driver\drivers\inv_mems_transport.h"
  14:.\20648_driver\drivers/inv_mems_secondary_transport.c **** 
  15:.\20648_driver\drivers/inv_mems_secondary_transport.c **** #include ".\20648_driver\common\inv_mems_drv_hook.h"
  16:.\20648_driver\drivers/inv_mems_secondary_transport.c **** #include ".\20648_driver\drivers\inv_mems_defines.h"
  17:.\20648_driver\drivers/inv_mems_secondary_transport.c **** #ifndef MEMS_20609
  18:.\20648_driver\drivers/inv_mems_secondary_transport.c **** #include ".\20648_driver\drivers\inv_mems_base_driver.h"
  19:.\20648_driver\drivers/inv_mems_secondary_transport.c **** #else
  20:.\20648_driver\drivers/inv_mems_secondary_transport.c **** #include "driver/inv_mems_base_driver_20609.h"
  21:.\20648_driver\drivers/inv_mems_secondary_transport.c **** #endif
  22:.\20648_driver\drivers/inv_mems_secondary_transport.c **** #include ".\20648_driver\invn\invn_types.h"
  23:.\20648_driver\drivers/inv_mems_secondary_transport.c **** 
  24:.\20648_driver\drivers/inv_mems_secondary_transport.c **** #include ".\20648_driver\drivers\inv_mems_secondary_transport.h"
  25:.\20648_driver\drivers/inv_mems_secondary_transport.c **** 
  26:.\20648_driver\drivers/inv_mems_secondary_transport.c **** /**
  27:.\20648_driver\drivers/inv_mems_secondary_transport.c ****  *  struct inv_secondary_reg - secondary registers data structure.
  28:.\20648_driver\drivers/inv_mems_secondary_transport.c ****  *  @addr:       address of the slave.
  29:.\20648_driver\drivers/inv_mems_secondary_transport.c ****  *  @reg: register address of slave.
  30:.\20648_driver\drivers/inv_mems_secondary_transport.c ****  *  @ctrl: control register.
  31:.\20648_driver\drivers/inv_mems_secondary_transport.c ****  *  @d0: data out register.
  32:.\20648_driver\drivers/inv_mems_secondary_transport.c ****  */
ARM GAS  C:\Users\ADMINI~1\AppData\Local\Temp\cc6U3Ikc.s 			page 2


  33:.\20648_driver\drivers/inv_mems_secondary_transport.c **** struct inv_secondary_reg {
  34:.\20648_driver\drivers/inv_mems_secondary_transport.c **** 	unsigned short addr;
  35:.\20648_driver\drivers/inv_mems_secondary_transport.c **** 	unsigned short reg;
  36:.\20648_driver\drivers/inv_mems_secondary_transport.c **** 	unsigned short ctrl;
  37:.\20648_driver\drivers/inv_mems_secondary_transport.c **** 	unsigned short d0;
  38:.\20648_driver\drivers/inv_mems_secondary_transport.c **** };
  39:.\20648_driver\drivers/inv_mems_secondary_transport.c **** static struct inv_secondary_reg slv_reg[4];
  40:.\20648_driver\drivers/inv_mems_secondary_transport.c **** 
  41:.\20648_driver\drivers/inv_mems_secondary_transport.c **** #if (MEMS_CHIP != HW_ICM20609)
  42:.\20648_driver\drivers/inv_mems_secondary_transport.c **** static unsigned char sSavedI2cOdr;
  43:.\20648_driver\drivers/inv_mems_secondary_transport.c **** #endif
  44:.\20648_driver\drivers/inv_mems_secondary_transport.c **** void inv_init_secondary(void)
  45:.\20648_driver\drivers/inv_mems_secondary_transport.c **** {
  46:.\20648_driver\drivers/inv_mems_secondary_transport.c **** 	slv_reg[0].addr = REG_I2C_SLV0_ADDR;
  47:.\20648_driver\drivers/inv_mems_secondary_transport.c **** 	slv_reg[0].reg  = REG_I2C_SLV0_REG;
  48:.\20648_driver\drivers/inv_mems_secondary_transport.c **** 	slv_reg[0].ctrl = REG_I2C_SLV0_CTRL;
  49:.\20648_driver\drivers/inv_mems_secondary_transport.c **** 	slv_reg[0].d0   = REG_I2C_SLV0_DO;
  50:.\20648_driver\drivers/inv_mems_secondary_transport.c ****     
  51:.\20648_driver\drivers/inv_mems_secondary_transport.c ****     slv_reg[1].addr = REG_I2C_SLV1_ADDR;
  52:.\20648_driver\drivers/inv_mems_secondary_transport.c **** 	slv_reg[1].reg  = REG_I2C_SLV1_REG;
  53:.\20648_driver\drivers/inv_mems_secondary_transport.c **** 	slv_reg[1].ctrl = REG_I2C_SLV1_CTRL;
  54:.\20648_driver\drivers/inv_mems_secondary_transport.c **** 	slv_reg[1].d0   = REG_I2C_SLV1_DO;
  55:.\20648_driver\drivers/inv_mems_secondary_transport.c ****     
  56:.\20648_driver\drivers/inv_mems_secondary_transport.c ****     slv_reg[2].addr = REG_I2C_SLV2_ADDR;
  57:.\20648_driver\drivers/inv_mems_secondary_transport.c **** 	slv_reg[2].reg  = REG_I2C_SLV2_REG;
  58:.\20648_driver\drivers/inv_mems_secondary_transport.c **** 	slv_reg[2].ctrl = REG_I2C_SLV2_CTRL;
  59:.\20648_driver\drivers/inv_mems_secondary_transport.c **** 	slv_reg[2].d0   = REG_I2C_SLV2_DO;
  60:.\20648_driver\drivers/inv_mems_secondary_transport.c **** #if (MEMS_CHIP != HW_ICM20609)   
  61:.\20648_driver\drivers/inv_mems_secondary_transport.c **** 	slv_reg[3].addr = REG_I2C_SLV3_ADDR;
  62:.\20648_driver\drivers/inv_mems_secondary_transport.c **** 	slv_reg[3].reg  = REG_I2C_SLV3_REG;
  63:.\20648_driver\drivers/inv_mems_secondary_transport.c **** 	slv_reg[3].ctrl = REG_I2C_SLV3_CTRL;
  64:.\20648_driver\drivers/inv_mems_secondary_transport.c **** 	slv_reg[3].d0   = REG_I2C_SLV3_DO;
  65:.\20648_driver\drivers/inv_mems_secondary_transport.c **** #endif	
  66:.\20648_driver\drivers/inv_mems_secondary_transport.c **** 	/* Make sure that by default all channels are disabled 
  67:.\20648_driver\drivers/inv_mems_secondary_transport.c **** 	To not inherit from a previous configuration from a previous run*/
  68:.\20648_driver\drivers/inv_mems_secondary_transport.c **** 	inv_mems_secondary_stop_channel(0);
  69:.\20648_driver\drivers/inv_mems_secondary_transport.c **** 	inv_mems_secondary_stop_channel(1);
  70:.\20648_driver\drivers/inv_mems_secondary_transport.c **** 	inv_mems_secondary_stop_channel(2);
  71:.\20648_driver\drivers/inv_mems_secondary_transport.c **** 	inv_mems_secondary_stop_channel(3);
  72:.\20648_driver\drivers/inv_mems_secondary_transport.c **** }
  73:.\20648_driver\drivers/inv_mems_secondary_transport.c **** 
  74:.\20648_driver\drivers/inv_mems_secondary_transport.c **** /* the following functions are used for configuring the secondary devices */
  75:.\20648_driver\drivers/inv_mems_secondary_transport.c **** 
  76:.\20648_driver\drivers/inv_mems_secondary_transport.c **** /*
  77:.\20648_driver\drivers/inv_mems_secondary_transport.c **** * inv_configure_secondary_read(): set secondary registers for reading.
  78:.\20648_driver\drivers/inv_mems_secondary_transport.c **** The chip must be set as bank 3 before calling.
  79:.\20648_driver\drivers/inv_mems_secondary_transport.c **** * This is derived from inv_read_secondary in linux...
  80:.\20648_driver\drivers/inv_mems_secondary_transport.c **** * for now, uses a very simple data struct for the registers
  81:.\20648_driver\drivers/inv_mems_secondary_transport.c **** * 
  82:.\20648_driver\drivers/inv_mems_secondary_transport.c **** * index gives the mapping to the particular SLVx registers
  83:.\20648_driver\drivers/inv_mems_secondary_transport.c **** * addr is the physical address of the device to be accessed
  84:.\20648_driver\drivers/inv_mems_secondary_transport.c **** * reg is the device register we wish to access
  85:.\20648_driver\drivers/inv_mems_secondary_transport.c **** * len is the number of bytes to be read
  86:.\20648_driver\drivers/inv_mems_secondary_transport.c **** * 
  87:.\20648_driver\drivers/inv_mems_secondary_transport.c **** */
  88:.\20648_driver\drivers/inv_mems_secondary_transport.c **** inv_error_t inv_read_secondary(int index, inv_i2c_addr_t addr, unsigned char reg, char len)
  89:.\20648_driver\drivers/inv_mems_secondary_transport.c **** {
ARM GAS  C:\Users\ADMINI~1\AppData\Local\Temp\cc6U3Ikc.s 			page 3


  26              		.loc 1 89 0
  27              		.cfi_startproc
  28              	.LVL0:
  29 0000 F0B5     		push	{r4, r5, r6, r7, lr}
  30              		.cfi_def_cfa_offset 20
  31              		.cfi_offset 4, -20
  32              		.cfi_offset 5, -16
  33              		.cfi_offset 6, -12
  34              		.cfi_offset 7, -8
  35              		.cfi_offset 14, -4
  90:.\20648_driver\drivers/inv_mems_secondary_transport.c **** 	inv_error_t result = 0;
  91:.\20648_driver\drivers/inv_mems_secondary_transport.c ****     unsigned char data;
  92:.\20648_driver\drivers/inv_mems_secondary_transport.c **** 
  93:.\20648_driver\drivers/inv_mems_secondary_transport.c ****     data = INV_MPU_BIT_I2C_READ | addr;
  36              		.loc 1 93 0
  37 0002 8027     		mov	r7, #128
  89:.\20648_driver\drivers/inv_mems_secondary_transport.c **** 	inv_error_t result = 0;
  38              		.loc 1 89 0
  39 0004 87B0     		sub	sp, sp, #28
  40              		.cfi_def_cfa_offset 48
  94:.\20648_driver\drivers/inv_mems_secondary_transport.c **** 	result |= inv_write_mems_reg(slv_reg[index].addr, 1, &data);
  41              		.loc 1 94 0
  42 0006 124E     		ldr	r6, .L2
  89:.\20648_driver\drivers/inv_mems_secondary_transport.c **** 	inv_error_t result = 0;
  43              		.loc 1 89 0
  44 0008 0393     		str	r3, [sp, #12]
  93:.\20648_driver\drivers/inv_mems_secondary_transport.c **** 	result |= inv_write_mems_reg(slv_reg[index].addr, 1, &data);
  45              		.loc 1 93 0
  46 000a 7F42     		neg	r7, r7
  47 000c 04AB     		add	r3, sp, #16
  48              	.LVL1:
  49 000e DD1D     		add	r5, r3, #7
  50 0010 3943     		orr	r1, r7
  51              	.LVL2:
  52              		.loc 1 94 0
  53 0012 C400     		lsl	r4, r0, #3
  89:.\20648_driver\drivers/inv_mems_secondary_transport.c **** 	inv_error_t result = 0;
  54              		.loc 1 89 0
  55 0014 0292     		str	r2, [sp, #8]
  93:.\20648_driver\drivers/inv_mems_secondary_transport.c **** 	result |= inv_write_mems_reg(slv_reg[index].addr, 1, &data);
  56              		.loc 1 93 0
  57 0016 D971     		strb	r1, [r3, #7]
  58              		.loc 1 94 0
  59 0018 A05B     		ldrh	r0, [r4, r6]
  60              	.LVL3:
  61 001a 2A1C     		mov	r2, r5
  62              	.LVL4:
  63 001c 0121     		mov	r1, #1
  64 001e FFF7FEFF 		bl	inv_write_mems_reg
  65              	.LVL5:
  95:.\20648_driver\drivers/inv_mems_secondary_transport.c **** 
  96:.\20648_driver\drivers/inv_mems_secondary_transport.c ****     data = reg;
  66              		.loc 1 96 0
  67 0022 6B46     		mov	r3, sp
  68 0024 1B7A     		ldrb	r3, [r3, #8]
  97:.\20648_driver\drivers/inv_mems_secondary_transport.c **** 	result |= inv_write_mems_reg(slv_reg[index].reg, 1, &data);
  69              		.loc 1 97 0
ARM GAS  C:\Users\ADMINI~1\AppData\Local\Temp\cc6U3Ikc.s 			page 4


  70 0026 3419     		add	r4, r6, r4
  96:.\20648_driver\drivers/inv_mems_secondary_transport.c **** 	result |= inv_write_mems_reg(slv_reg[index].reg, 1, &data);
  71              		.loc 1 96 0
  72 0028 2B70     		strb	r3, [r5]
  94:.\20648_driver\drivers/inv_mems_secondary_transport.c **** 
  73              		.loc 1 94 0
  74 002a 0190     		str	r0, [sp, #4]
  75              	.LVL6:
  76              		.loc 1 97 0
  77 002c 2A1C     		mov	r2, r5
  78 002e 6088     		ldrh	r0, [r4, #2]
  79              	.LVL7:
  80 0030 0121     		mov	r1, #1
  81 0032 FFF7FEFF 		bl	inv_write_mems_reg
  82              	.LVL8:
  98:.\20648_driver\drivers/inv_mems_secondary_transport.c ****     
  99:.\20648_driver\drivers/inv_mems_secondary_transport.c ****     data = INV_MPU_BIT_SLV_EN | len;
  83              		.loc 1 99 0
  84 0036 039B     		ldr	r3, [sp, #12]
  97:.\20648_driver\drivers/inv_mems_secondary_transport.c ****     
  85              		.loc 1 97 0
  86 0038 019E     		ldr	r6, [sp, #4]
  87              		.loc 1 99 0
  88 003a 3B43     		orr	r3, r7
  89 003c 2B70     		strb	r3, [r5]
  97:.\20648_driver\drivers/inv_mems_secondary_transport.c ****     
  90              		.loc 1 97 0
  91 003e 0643     		orr	r6, r0
  92              	.LVL9:
 100:.\20648_driver\drivers/inv_mems_secondary_transport.c **** 	result |= inv_write_mems_reg(slv_reg[index].ctrl, 1, &data);
  93              		.loc 1 100 0
  94 0040 0121     		mov	r1, #1
  95 0042 A088     		ldrh	r0, [r4, #4]
  96 0044 2A1C     		mov	r2, r5
  97 0046 FFF7FEFF 		bl	inv_write_mems_reg
  98              	.LVL10:
  99 004a 3043     		orr	r0, r6
 100              	.LVL11:
 101:.\20648_driver\drivers/inv_mems_secondary_transport.c ****     
 102:.\20648_driver\drivers/inv_mems_secondary_transport.c **** 	return result;
 103:.\20648_driver\drivers/inv_mems_secondary_transport.c **** }
 101              		.loc 1 103 0
 102 004c 07B0     		add	sp, sp, #28
 103              		@ sp needed
 104 004e F0BD     		pop	{r4, r5, r6, r7, pc}
 105              	.L3:
 106              		.align	2
 107              	.L2:
 108 0050 00000000 		.word	.LANCHOR0
 109              		.cfi_endproc
 110              	.LFE1:
 111              		.size	inv_read_secondary, .-inv_read_secondary
 112              		.section	.text.inv_write_secondary,"ax",%progbits
 113              		.align	1
 114              		.global	inv_write_secondary
 115              		.code	16
 116              		.thumb_func
ARM GAS  C:\Users\ADMINI~1\AppData\Local\Temp\cc6U3Ikc.s 			page 5


 117              		.type	inv_write_secondary, %function
 118              	inv_write_secondary:
 119              	.LFB3:
 104:.\20648_driver\drivers/inv_mems_secondary_transport.c **** 
 105:.\20648_driver\drivers/inv_mems_secondary_transport.c **** inv_error_t inv_execute_read_secondary(int index, inv_i2c_addr_t addr, int reg, int len, uint8_t *d
 106:.\20648_driver\drivers/inv_mems_secondary_transport.c **** {
 107:.\20648_driver\drivers/inv_mems_secondary_transport.c **** 	inv_error_t result = 0;
 108:.\20648_driver\drivers/inv_mems_secondary_transport.c **** 
 109:.\20648_driver\drivers/inv_mems_secondary_transport.c **** 	result |= inv_read_secondary(index, addr, reg, len);
 110:.\20648_driver\drivers/inv_mems_secondary_transport.c **** 	
 111:.\20648_driver\drivers/inv_mems_secondary_transport.c **** 	result |= inv_mems_secondary_enable_i2c();
 112:.\20648_driver\drivers/inv_mems_secondary_transport.c ****     
 113:.\20648_driver\drivers/inv_mems_secondary_transport.c **** 	inv_sleep(SECONDARY_INIT_WAIT);
 114:.\20648_driver\drivers/inv_mems_secondary_transport.c ****     
 115:.\20648_driver\drivers/inv_mems_secondary_transport.c **** 	result |= inv_mems_secondary_disable_i2c();
 116:.\20648_driver\drivers/inv_mems_secondary_transport.c **** 
 117:.\20648_driver\drivers/inv_mems_secondary_transport.c ****     result |= inv_read_mems_reg(REG_EXT_SLV_SENS_DATA_00, len, d); 
 118:.\20648_driver\drivers/inv_mems_secondary_transport.c **** 
 119:.\20648_driver\drivers/inv_mems_secondary_transport.c **** 	result |= inv_mems_secondary_stop_channel(index);
 120:.\20648_driver\drivers/inv_mems_secondary_transport.c **** 
 121:.\20648_driver\drivers/inv_mems_secondary_transport.c **** 	return result;
 122:.\20648_driver\drivers/inv_mems_secondary_transport.c **** }
 123:.\20648_driver\drivers/inv_mems_secondary_transport.c **** 
 124:.\20648_driver\drivers/inv_mems_secondary_transport.c **** /*
 125:.\20648_driver\drivers/inv_mems_secondary_transport.c **** * inv_write_secondary(): set secondary registers for writing?.
 126:.\20648_driver\drivers/inv_mems_secondary_transport.c **** The chip must be set as bank 3 before calling.
 127:.\20648_driver\drivers/inv_mems_secondary_transport.c **** * This is derived from inv_write_secondary in linux...
 128:.\20648_driver\drivers/inv_mems_secondary_transport.c **** * for now, uses a very simple data struct for the registers
 129:.\20648_driver\drivers/inv_mems_secondary_transport.c **** * 
 130:.\20648_driver\drivers/inv_mems_secondary_transport.c **** * index gives the mapping to the particular SLVx registers
 131:.\20648_driver\drivers/inv_mems_secondary_transport.c **** * addr is the physical address of the device to be accessed
 132:.\20648_driver\drivers/inv_mems_secondary_transport.c **** * reg is the device register we wish to access
 133:.\20648_driver\drivers/inv_mems_secondary_transport.c **** * len is the number of bytes to be read
 134:.\20648_driver\drivers/inv_mems_secondary_transport.c **** * 
 135:.\20648_driver\drivers/inv_mems_secondary_transport.c **** */
 136:.\20648_driver\drivers/inv_mems_secondary_transport.c **** inv_error_t inv_write_secondary(int index, inv_i2c_addr_t addr, unsigned char reg, char v)
 137:.\20648_driver\drivers/inv_mems_secondary_transport.c **** {
 120              		.loc 1 137 0
 121              		.cfi_startproc
 122              	.LVL12:
 123 0000 F0B5     		push	{r4, r5, r6, r7, lr}
 124              		.cfi_def_cfa_offset 20
 125              		.cfi_offset 4, -20
 126              		.cfi_offset 5, -16
 127              		.cfi_offset 6, -12
 128              		.cfi_offset 7, -8
 129              		.cfi_offset 14, -4
 130 0002 85B0     		sub	sp, sp, #20
 131              		.cfi_def_cfa_offset 40
 138:.\20648_driver\drivers/inv_mems_secondary_transport.c **** 	inv_error_t result = 0;
 139:.\20648_driver\drivers/inv_mems_secondary_transport.c ****     unsigned char data;
 140:.\20648_driver\drivers/inv_mems_secondary_transport.c ****     
 141:.\20648_driver\drivers/inv_mems_secondary_transport.c ****     data = (unsigned char)addr;
 142:.\20648_driver\drivers/inv_mems_secondary_transport.c **** 	result |= inv_write_mems_reg(slv_reg[index].addr, 1, &data);
 132              		.loc 1 142 0
 133 0004 144E     		ldr	r6, .L5
 137:.\20648_driver\drivers/inv_mems_secondary_transport.c **** 	inv_error_t result = 0;
ARM GAS  C:\Users\ADMINI~1\AppData\Local\Temp\cc6U3Ikc.s 			page 6


 134              		.loc 1 137 0
 135 0006 0193     		str	r3, [sp, #4]
 141:.\20648_driver\drivers/inv_mems_secondary_transport.c **** 	result |= inv_write_mems_reg(slv_reg[index].addr, 1, &data);
 136              		.loc 1 141 0
 137 0008 02AB     		add	r3, sp, #8
 138              	.LVL13:
 139 000a DC1D     		add	r4, r3, #7
 140              		.loc 1 142 0
 141 000c C500     		lsl	r5, r0, #3
 141:.\20648_driver\drivers/inv_mems_secondary_transport.c **** 	result |= inv_write_mems_reg(slv_reg[index].addr, 1, &data);
 142              		.loc 1 141 0
 143 000e D971     		strb	r1, [r3, #7]
 137:.\20648_driver\drivers/inv_mems_secondary_transport.c **** 	inv_error_t result = 0;
 144              		.loc 1 137 0
 145 0010 171C     		mov	r7, r2
 146              		.loc 1 142 0
 147 0012 A85B     		ldrh	r0, [r5, r6]
 148              	.LVL14:
 149 0014 221C     		mov	r2, r4
 150              	.LVL15:
 151 0016 0121     		mov	r1, #1
 152              	.LVL16:
 153 0018 FFF7FEFF 		bl	inv_write_mems_reg
 154              	.LVL17:
 143:.\20648_driver\drivers/inv_mems_secondary_transport.c **** 
 144:.\20648_driver\drivers/inv_mems_secondary_transport.c ****     data = reg;
 145:.\20648_driver\drivers/inv_mems_secondary_transport.c **** 	result |= inv_write_mems_reg(slv_reg[index].reg, 1, &data);
 155              		.loc 1 145 0
 156 001c 7519     		add	r5, r6, r5
 142:.\20648_driver\drivers/inv_mems_secondary_transport.c **** 
 157              		.loc 1 142 0
 158 001e 0090     		str	r0, [sp]
 159              	.LVL18:
 144:.\20648_driver\drivers/inv_mems_secondary_transport.c **** 	result |= inv_write_mems_reg(slv_reg[index].reg, 1, &data);
 160              		.loc 1 144 0
 161 0020 2770     		strb	r7, [r4]
 162              		.loc 1 145 0
 163 0022 221C     		mov	r2, r4
 164 0024 6888     		ldrh	r0, [r5, #2]
 165              	.LVL19:
 166 0026 0121     		mov	r1, #1
 167 0028 FFF7FEFF 		bl	inv_write_mems_reg
 168              	.LVL20:
 146:.\20648_driver\drivers/inv_mems_secondary_transport.c **** 
 147:.\20648_driver\drivers/inv_mems_secondary_transport.c ****     data = v;
 169              		.loc 1 147 0
 170 002c 6B46     		mov	r3, sp
 171 002e 1B79     		ldrb	r3, [r3, #4]
 145:.\20648_driver\drivers/inv_mems_secondary_transport.c **** 
 172              		.loc 1 145 0
 173 0030 009E     		ldr	r6, [sp]
 174              		.loc 1 147 0
 175 0032 2370     		strb	r3, [r4]
 148:.\20648_driver\drivers/inv_mems_secondary_transport.c ****     result |= inv_write_mems_reg(slv_reg[index].d0, 1, &data);
 176              		.loc 1 148 0
 177 0034 221C     		mov	r2, r4
 145:.\20648_driver\drivers/inv_mems_secondary_transport.c **** 
ARM GAS  C:\Users\ADMINI~1\AppData\Local\Temp\cc6U3Ikc.s 			page 7


 178              		.loc 1 145 0
 179 0036 0643     		orr	r6, r0
 180              	.LVL21:
 181              		.loc 1 148 0
 182 0038 0121     		mov	r1, #1
 183 003a E888     		ldrh	r0, [r5, #6]
 184 003c FFF7FEFF 		bl	inv_write_mems_reg
 185              	.LVL22:
 149:.\20648_driver\drivers/inv_mems_secondary_transport.c ****     
 150:.\20648_driver\drivers/inv_mems_secondary_transport.c ****     data = INV_MPU_BIT_SLV_EN | 1;
 186              		.loc 1 150 0
 187 0040 8123     		mov	r3, #129
 188 0042 2370     		strb	r3, [r4]
 148:.\20648_driver\drivers/inv_mems_secondary_transport.c ****     result |= inv_write_mems_reg(slv_reg[index].d0, 1, &data);
 189              		.loc 1 148 0
 190 0044 0643     		orr	r6, r0
 191              	.LVL23:
 151:.\20648_driver\drivers/inv_mems_secondary_transport.c **** 	result |= inv_write_mems_reg(slv_reg[index].ctrl, 1, &data);
 192              		.loc 1 151 0
 193 0046 0121     		mov	r1, #1
 194 0048 A888     		ldrh	r0, [r5, #4]
 195 004a 221C     		mov	r2, r4
 196 004c FFF7FEFF 		bl	inv_write_mems_reg
 197              	.LVL24:
 198 0050 3043     		orr	r0, r6
 199              	.LVL25:
 152:.\20648_driver\drivers/inv_mems_secondary_transport.c ****     
 153:.\20648_driver\drivers/inv_mems_secondary_transport.c ****     return result;
 154:.\20648_driver\drivers/inv_mems_secondary_transport.c **** }
 200              		.loc 1 154 0
 201 0052 05B0     		add	sp, sp, #20
 202              		@ sp needed
 203 0054 F0BD     		pop	{r4, r5, r6, r7, pc}
 204              	.L6:
 205 0056 C046     		.align	2
 206              	.L5:
 207 0058 00000000 		.word	.LANCHOR0
 208              		.cfi_endproc
 209              	.LFE3:
 210              		.size	inv_write_secondary, .-inv_write_secondary
 211              		.section	.text.inv_mems_secondary_saveI2cOdr,"ax",%progbits
 212              		.align	1
 213              		.global	inv_mems_secondary_saveI2cOdr
 214              		.code	16
 215              		.thumb_func
 216              		.type	inv_mems_secondary_saveI2cOdr, %function
 217              	inv_mems_secondary_saveI2cOdr:
 218              	.LFB5:
 155:.\20648_driver\drivers/inv_mems_secondary_transport.c **** 
 156:.\20648_driver\drivers/inv_mems_secondary_transport.c **** inv_error_t inv_execute_write_secondary(int index, inv_i2c_addr_t addr, int reg, uint8_t v)
 157:.\20648_driver\drivers/inv_mems_secondary_transport.c **** {
 158:.\20648_driver\drivers/inv_mems_secondary_transport.c **** 	inv_error_t result = 0;
 159:.\20648_driver\drivers/inv_mems_secondary_transport.c **** 
 160:.\20648_driver\drivers/inv_mems_secondary_transport.c **** 	result |= inv_write_secondary(index, addr, reg, v);
 161:.\20648_driver\drivers/inv_mems_secondary_transport.c **** 	
 162:.\20648_driver\drivers/inv_mems_secondary_transport.c **** 	result |= inv_mems_secondary_enable_i2c();
 163:.\20648_driver\drivers/inv_mems_secondary_transport.c ****     
ARM GAS  C:\Users\ADMINI~1\AppData\Local\Temp\cc6U3Ikc.s 			page 8


 164:.\20648_driver\drivers/inv_mems_secondary_transport.c **** 	inv_sleep(SECONDARY_INIT_WAIT);
 165:.\20648_driver\drivers/inv_mems_secondary_transport.c ****     
 166:.\20648_driver\drivers/inv_mems_secondary_transport.c **** 	result |= inv_mems_secondary_disable_i2c();
 167:.\20648_driver\drivers/inv_mems_secondary_transport.c **** 
 168:.\20648_driver\drivers/inv_mems_secondary_transport.c **** 	result |= inv_mems_secondary_stop_channel(index);
 169:.\20648_driver\drivers/inv_mems_secondary_transport.c **** 
 170:.\20648_driver\drivers/inv_mems_secondary_transport.c **** 	return result;
 171:.\20648_driver\drivers/inv_mems_secondary_transport.c **** }
 172:.\20648_driver\drivers/inv_mems_secondary_transport.c **** void inv_mems_secondary_saveI2cOdr(void)
 173:.\20648_driver\drivers/inv_mems_secondary_transport.c **** {
 219              		.loc 1 173 0
 220              		.cfi_startproc
 174:.\20648_driver\drivers/inv_mems_secondary_transport.c **** #if (MEMS_CHIP != HW_ICM20609)	
 175:.\20648_driver\drivers/inv_mems_secondary_transport.c ****         inv_read_mems_reg(REG_I2C_MST_ODR_CONFIG,1,&sSavedI2cOdr);
 176:.\20648_driver\drivers/inv_mems_secondary_transport.c **** #else
 177:.\20648_driver\drivers/inv_mems_secondary_transport.c ****         return;
 178:.\20648_driver\drivers/inv_mems_secondary_transport.c **** #endif
 179:.\20648_driver\drivers/inv_mems_secondary_transport.c **** }
 221              		.loc 1 179 0
 222              		@ sp needed
 223 0000 7047     		bx	lr
 224              		.cfi_endproc
 225              	.LFE5:
 226              		.size	inv_mems_secondary_saveI2cOdr, .-inv_mems_secondary_saveI2cOdr
 227              		.section	.text.inv_mems_secondary_restoreI2cOdr,"ax",%progbits
 228              		.align	1
 229              		.global	inv_mems_secondary_restoreI2cOdr
 230              		.code	16
 231              		.thumb_func
 232              		.type	inv_mems_secondary_restoreI2cOdr, %function
 233              	inv_mems_secondary_restoreI2cOdr:
 234              	.LFB6:
 180:.\20648_driver\drivers/inv_mems_secondary_transport.c **** 
 181:.\20648_driver\drivers/inv_mems_secondary_transport.c **** void inv_mems_secondary_restoreI2cOdr(void)
 182:.\20648_driver\drivers/inv_mems_secondary_transport.c **** {
 235              		.loc 1 182 0
 236              		.cfi_startproc
 183:.\20648_driver\drivers/inv_mems_secondary_transport.c **** #if (MEMS_CHIP != HW_ICM20609)
 184:.\20648_driver\drivers/inv_mems_secondary_transport.c **** 	inv_write_single_mems_reg(REG_I2C_MST_ODR_CONFIG,sSavedI2cOdr);
 185:.\20648_driver\drivers/inv_mems_secondary_transport.c **** #else
 186:.\20648_driver\drivers/inv_mems_secondary_transport.c ****         return;
 187:.\20648_driver\drivers/inv_mems_secondary_transport.c **** #endif
 188:.\20648_driver\drivers/inv_mems_secondary_transport.c **** }
 237              		.loc 1 188 0
 238              		@ sp needed
 239 0000 7047     		bx	lr
 240              		.cfi_endproc
 241              	.LFE6:
 242              		.size	inv_mems_secondary_restoreI2cOdr, .-inv_mems_secondary_restoreI2cOdr
 243              		.section	.text.inv_mems_secondary_stop_channel,"ax",%progbits
 244              		.align	1
 245              		.global	inv_mems_secondary_stop_channel
 246              		.code	16
 247              		.thumb_func
 248              		.type	inv_mems_secondary_stop_channel, %function
 249              	inv_mems_secondary_stop_channel:
 250              	.LFB7:
ARM GAS  C:\Users\ADMINI~1\AppData\Local\Temp\cc6U3Ikc.s 			page 9


 189:.\20648_driver\drivers/inv_mems_secondary_transport.c **** 
 190:.\20648_driver\drivers/inv_mems_secondary_transport.c **** inv_error_t inv_mems_secondary_stop_channel(int index)
 191:.\20648_driver\drivers/inv_mems_secondary_transport.c **** {
 251              		.loc 1 191 0
 252              		.cfi_startproc
 253              	.LVL26:
 254 0000 08B5     		push	{r3, lr}
 255              		.cfi_def_cfa_offset 8
 256              		.cfi_offset 3, -8
 257              		.cfi_offset 14, -4
 192:.\20648_driver\drivers/inv_mems_secondary_transport.c **** 	return inv_write_single_mems_reg(slv_reg[index].ctrl, 0);
 258              		.loc 1 192 0
 259 0002 044B     		ldr	r3, .L10
 260 0004 C000     		lsl	r0, r0, #3
 261              	.LVL27:
 262 0006 1818     		add	r0, r3, r0
 263 0008 8088     		ldrh	r0, [r0, #4]
 264 000a 0021     		mov	r1, #0
 265 000c FFF7FEFF 		bl	inv_write_single_mems_reg
 266              	.LVL28:
 193:.\20648_driver\drivers/inv_mems_secondary_transport.c **** }
 267              		.loc 1 193 0
 268              		@ sp needed
 269 0010 08BD     		pop	{r3, pc}
 270              	.L11:
 271 0012 C046     		.align	2
 272              	.L10:
 273 0014 00000000 		.word	.LANCHOR0
 274              		.cfi_endproc
 275              	.LFE7:
 276              		.size	inv_mems_secondary_stop_channel, .-inv_mems_secondary_stop_channel
 277              		.section	.text.inv_init_secondary,"ax",%progbits
 278              		.align	1
 279              		.global	inv_init_secondary
 280              		.code	16
 281              		.thumb_func
 282              		.type	inv_init_secondary, %function
 283              	inv_init_secondary:
 284              	.LFB0:
  45:.\20648_driver\drivers/inv_mems_secondary_transport.c **** 	slv_reg[0].addr = REG_I2C_SLV0_ADDR;
 285              		.loc 1 45 0
 286              		.cfi_startproc
  46:.\20648_driver\drivers/inv_mems_secondary_transport.c **** 	slv_reg[0].reg  = REG_I2C_SLV0_REG;
 287              		.loc 1 46 0
 288 0000 8422     		mov	r2, #132
  45:.\20648_driver\drivers/inv_mems_secondary_transport.c **** 	slv_reg[0].addr = REG_I2C_SLV0_ADDR;
 289              		.loc 1 45 0
 290 0002 08B5     		push	{r3, lr}
 291              		.cfi_def_cfa_offset 8
 292              		.cfi_offset 3, -8
 293              		.cfi_offset 14, -4
  46:.\20648_driver\drivers/inv_mems_secondary_transport.c **** 	slv_reg[0].reg  = REG_I2C_SLV0_REG;
 294              		.loc 1 46 0
 295 0004 154B     		ldr	r3, .L13
 296 0006 FF32     		add	r2, r2, #255
 297 0008 1A80     		strh	r2, [r3]
  47:.\20648_driver\drivers/inv_mems_secondary_transport.c **** 	slv_reg[0].ctrl = REG_I2C_SLV0_CTRL;
ARM GAS  C:\Users\ADMINI~1\AppData\Local\Temp\cc6U3Ikc.s 			page 10


 298              		.loc 1 47 0
 299 000a 0132     		add	r2, r2, #1
 300 000c 5A80     		strh	r2, [r3, #2]
  48:.\20648_driver\drivers/inv_mems_secondary_transport.c **** 	slv_reg[0].d0   = REG_I2C_SLV0_DO;
 301              		.loc 1 48 0
 302 000e 8622     		mov	r2, #134
 303 0010 FF32     		add	r2, r2, #255
 304 0012 9A80     		strh	r2, [r3, #4]
  49:.\20648_driver\drivers/inv_mems_secondary_transport.c ****     
 305              		.loc 1 49 0
 306 0014 0132     		add	r2, r2, #1
 307 0016 DA80     		strh	r2, [r3, #6]
  51:.\20648_driver\drivers/inv_mems_secondary_transport.c **** 	slv_reg[1].reg  = REG_I2C_SLV1_REG;
 308              		.loc 1 51 0
 309 0018 8822     		mov	r2, #136
 310 001a FF32     		add	r2, r2, #255
 311 001c 1A81     		strh	r2, [r3, #8]
  52:.\20648_driver\drivers/inv_mems_secondary_transport.c **** 	slv_reg[1].ctrl = REG_I2C_SLV1_CTRL;
 312              		.loc 1 52 0
 313 001e 0132     		add	r2, r2, #1
 314 0020 5A81     		strh	r2, [r3, #10]
  53:.\20648_driver\drivers/inv_mems_secondary_transport.c **** 	slv_reg[1].d0   = REG_I2C_SLV1_DO;
 315              		.loc 1 53 0
 316 0022 8A22     		mov	r2, #138
 317 0024 FF32     		add	r2, r2, #255
 318 0026 9A81     		strh	r2, [r3, #12]
  54:.\20648_driver\drivers/inv_mems_secondary_transport.c ****     
 319              		.loc 1 54 0
 320 0028 0132     		add	r2, r2, #1
 321 002a DA81     		strh	r2, [r3, #14]
  56:.\20648_driver\drivers/inv_mems_secondary_transport.c **** 	slv_reg[2].reg  = REG_I2C_SLV2_REG;
 322              		.loc 1 56 0
 323 002c 8C22     		mov	r2, #140
 324 002e FF32     		add	r2, r2, #255
 325 0030 1A82     		strh	r2, [r3, #16]
  57:.\20648_driver\drivers/inv_mems_secondary_transport.c **** 	slv_reg[2].ctrl = REG_I2C_SLV2_CTRL;
 326              		.loc 1 57 0
 327 0032 0132     		add	r2, r2, #1
 328 0034 5A82     		strh	r2, [r3, #18]
  58:.\20648_driver\drivers/inv_mems_secondary_transport.c **** 	slv_reg[2].d0   = REG_I2C_SLV2_DO;
 329              		.loc 1 58 0
 330 0036 8E22     		mov	r2, #142
 331 0038 FF32     		add	r2, r2, #255
 332 003a 9A82     		strh	r2, [r3, #20]
  59:.\20648_driver\drivers/inv_mems_secondary_transport.c **** #if (MEMS_CHIP != HW_ICM20609)   
 333              		.loc 1 59 0
 334 003c 0132     		add	r2, r2, #1
 335 003e DA82     		strh	r2, [r3, #22]
  68:.\20648_driver\drivers/inv_mems_secondary_transport.c **** 	inv_mems_secondary_stop_channel(1);
 336              		.loc 1 68 0
 337 0040 0020     		mov	r0, #0
 338 0042 FFF7FEFF 		bl	inv_mems_secondary_stop_channel
 339              	.LVL29:
  69:.\20648_driver\drivers/inv_mems_secondary_transport.c **** 	inv_mems_secondary_stop_channel(2);
 340              		.loc 1 69 0
 341 0046 0120     		mov	r0, #1
 342 0048 FFF7FEFF 		bl	inv_mems_secondary_stop_channel
ARM GAS  C:\Users\ADMINI~1\AppData\Local\Temp\cc6U3Ikc.s 			page 11


 343              	.LVL30:
  70:.\20648_driver\drivers/inv_mems_secondary_transport.c **** 	inv_mems_secondary_stop_channel(3);
 344              		.loc 1 70 0
 345 004c 0220     		mov	r0, #2
 346 004e FFF7FEFF 		bl	inv_mems_secondary_stop_channel
 347              	.LVL31:
  71:.\20648_driver\drivers/inv_mems_secondary_transport.c **** }
 348              		.loc 1 71 0
 349 0052 0320     		mov	r0, #3
 350 0054 FFF7FEFF 		bl	inv_mems_secondary_stop_channel
 351              	.LVL32:
  72:.\20648_driver\drivers/inv_mems_secondary_transport.c **** 
 352              		.loc 1 72 0
 353              		@ sp needed
 354 0058 08BD     		pop	{r3, pc}
 355              	.L14:
 356 005a C046     		.align	2
 357              	.L13:
 358 005c 00000000 		.word	.LANCHOR0
 359              		.cfi_endproc
 360              	.LFE0:
 361              		.size	inv_init_secondary, .-inv_init_secondary
 362              		.section	.text.inv_mems_secondary_enable_i2c,"ax",%progbits
 363              		.align	1
 364              		.global	inv_mems_secondary_enable_i2c
 365              		.code	16
 366              		.thumb_func
 367              		.type	inv_mems_secondary_enable_i2c, %function
 368              	inv_mems_secondary_enable_i2c:
 369              	.LFB8:
 194:.\20648_driver\drivers/inv_mems_secondary_transport.c **** 
 195:.\20648_driver\drivers/inv_mems_secondary_transport.c **** inv_error_t inv_mems_secondary_enable_i2c(void)
 196:.\20648_driver\drivers/inv_mems_secondary_transport.c **** {
 370              		.loc 1 196 0
 371              		.cfi_startproc
 197:.\20648_driver\drivers/inv_mems_secondary_transport.c **** 	base_state.user_ctrl |= BIT_I2C_MST_EN;
 372              		.loc 1 197 0
 373 0000 2021     		mov	r1, #32
 196:.\20648_driver\drivers/inv_mems_secondary_transport.c **** 	base_state.user_ctrl |= BIT_I2C_MST_EN;
 374              		.loc 1 196 0
 375 0002 08B5     		push	{r3, lr}
 376              		.cfi_def_cfa_offset 8
 377              		.cfi_offset 3, -8
 378              		.cfi_offset 14, -4
 379              		.loc 1 197 0
 380 0004 034A     		ldr	r2, .L16
 198:.\20648_driver\drivers/inv_mems_secondary_transport.c **** 	return inv_write_single_mems_reg(REG_USER_CTRL, base_state.user_ctrl); 
 381              		.loc 1 198 0
 382 0006 0320     		mov	r0, #3
 197:.\20648_driver\drivers/inv_mems_secondary_transport.c **** 	base_state.user_ctrl |= BIT_I2C_MST_EN;
 383              		.loc 1 197 0
 384 0008 D378     		ldrb	r3, [r2, #3]
 199:.\20648_driver\drivers/inv_mems_secondary_transport.c **** }
 385              		.loc 1 199 0
 386              		@ sp needed
 197:.\20648_driver\drivers/inv_mems_secondary_transport.c **** 	return inv_write_single_mems_reg(REG_USER_CTRL, base_state.user_ctrl); 
 387              		.loc 1 197 0
ARM GAS  C:\Users\ADMINI~1\AppData\Local\Temp\cc6U3Ikc.s 			page 12


 388 000a 1943     		orr	r1, r3
 389 000c D170     		strb	r1, [r2, #3]
 198:.\20648_driver\drivers/inv_mems_secondary_transport.c **** 	return inv_write_single_mems_reg(REG_USER_CTRL, base_state.user_ctrl); 
 390              		.loc 1 198 0
 391 000e FFF7FEFF 		bl	inv_write_single_mems_reg
 392              	.LVL33:
 393              		.loc 1 199 0
 394 0012 08BD     		pop	{r3, pc}
 395              	.L17:
 396              		.align	2
 397              	.L16:
 398 0014 00000000 		.word	base_state
 399              		.cfi_endproc
 400              	.LFE8:
 401              		.size	inv_mems_secondary_enable_i2c, .-inv_mems_secondary_enable_i2c
 402              		.section	.text.inv_mems_secondary_disable_i2c,"ax",%progbits
 403              		.align	1
 404              		.global	inv_mems_secondary_disable_i2c
 405              		.code	16
 406              		.thumb_func
 407              		.type	inv_mems_secondary_disable_i2c, %function
 408              	inv_mems_secondary_disable_i2c:
 409              	.LFB9:
 200:.\20648_driver\drivers/inv_mems_secondary_transport.c **** 
 201:.\20648_driver\drivers/inv_mems_secondary_transport.c **** inv_error_t inv_mems_secondary_disable_i2c(void)
 202:.\20648_driver\drivers/inv_mems_secondary_transport.c **** {
 410              		.loc 1 202 0
 411              		.cfi_startproc
 203:.\20648_driver\drivers/inv_mems_secondary_transport.c **** 	base_state.user_ctrl &= ~BIT_I2C_MST_EN;
 412              		.loc 1 203 0
 413 0000 2022     		mov	r2, #32
 202:.\20648_driver\drivers/inv_mems_secondary_transport.c **** 	base_state.user_ctrl &= ~BIT_I2C_MST_EN;
 414              		.loc 1 202 0
 415 0002 08B5     		push	{r3, lr}
 416              		.cfi_def_cfa_offset 8
 417              		.cfi_offset 3, -8
 418              		.cfi_offset 14, -4
 419              		.loc 1 203 0
 420 0004 034B     		ldr	r3, .L19
 204:.\20648_driver\drivers/inv_mems_secondary_transport.c **** 	return inv_write_single_mems_reg(REG_USER_CTRL, base_state.user_ctrl); 
 421              		.loc 1 204 0
 422 0006 0320     		mov	r0, #3
 203:.\20648_driver\drivers/inv_mems_secondary_transport.c **** 	base_state.user_ctrl &= ~BIT_I2C_MST_EN;
 423              		.loc 1 203 0
 424 0008 D978     		ldrb	r1, [r3, #3]
 205:.\20648_driver\drivers/inv_mems_secondary_transport.c **** }
 425              		.loc 1 205 0
 426              		@ sp needed
 203:.\20648_driver\drivers/inv_mems_secondary_transport.c **** 	return inv_write_single_mems_reg(REG_USER_CTRL, base_state.user_ctrl); 
 427              		.loc 1 203 0
 428 000a 9143     		bic	r1, r2
 429 000c D970     		strb	r1, [r3, #3]
 204:.\20648_driver\drivers/inv_mems_secondary_transport.c **** 	return inv_write_single_mems_reg(REG_USER_CTRL, base_state.user_ctrl); 
 430              		.loc 1 204 0
 431 000e FFF7FEFF 		bl	inv_write_single_mems_reg
 432              	.LVL34:
 433              		.loc 1 205 0
ARM GAS  C:\Users\ADMINI~1\AppData\Local\Temp\cc6U3Ikc.s 			page 13


 434 0012 08BD     		pop	{r3, pc}
 435              	.L20:
 436              		.align	2
 437              	.L19:
 438 0014 00000000 		.word	base_state
 439              		.cfi_endproc
 440              	.LFE9:
 441              		.size	inv_mems_secondary_disable_i2c, .-inv_mems_secondary_disable_i2c
 442              		.section	.text.inv_execute_read_secondary,"ax",%progbits
 443              		.align	1
 444              		.global	inv_execute_read_secondary
 445              		.code	16
 446              		.thumb_func
 447              		.type	inv_execute_read_secondary, %function
 448              	inv_execute_read_secondary:
 449              	.LFB2:
 106:.\20648_driver\drivers/inv_mems_secondary_transport.c **** 	inv_error_t result = 0;
 450              		.loc 1 106 0
 451              		.cfi_startproc
 452              	.LVL35:
 453 0000 70B5     		push	{r4, r5, r6, lr}
 454              		.cfi_def_cfa_offset 16
 455              		.cfi_offset 4, -16
 456              		.cfi_offset 5, -12
 457              		.cfi_offset 6, -8
 458              		.cfi_offset 14, -4
 109:.\20648_driver\drivers/inv_mems_secondary_transport.c **** 	
 459              		.loc 1 109 0
 460 0002 D2B2     		uxtb	r2, r2
 461              	.LVL36:
 106:.\20648_driver\drivers/inv_mems_secondary_transport.c **** 	inv_error_t result = 0;
 462              		.loc 1 106 0
 463 0004 1E1C     		mov	r6, r3
 109:.\20648_driver\drivers/inv_mems_secondary_transport.c **** 	
 464              		.loc 1 109 0
 465 0006 DBB2     		uxtb	r3, r3
 466              	.LVL37:
 106:.\20648_driver\drivers/inv_mems_secondary_transport.c **** 	inv_error_t result = 0;
 467              		.loc 1 106 0
 468 0008 051C     		mov	r5, r0
 109:.\20648_driver\drivers/inv_mems_secondary_transport.c **** 	
 469              		.loc 1 109 0
 470 000a FFF7FEFF 		bl	inv_read_secondary
 471              	.LVL38:
 472 000e 041C     		mov	r4, r0
 473              	.LVL39:
 111:.\20648_driver\drivers/inv_mems_secondary_transport.c ****     
 474              		.loc 1 111 0
 475 0010 FFF7FEFF 		bl	inv_mems_secondary_enable_i2c
 476              	.LVL40:
 477 0014 0443     		orr	r4, r0
 478              	.LVL41:
 113:.\20648_driver\drivers/inv_mems_secondary_transport.c ****     
 479              		.loc 1 113 0
 480 0016 3C20     		mov	r0, #60
 481 0018 FFF7FEFF 		bl	inv_sleep
 482              	.LVL42:
ARM GAS  C:\Users\ADMINI~1\AppData\Local\Temp\cc6U3Ikc.s 			page 14


 115:.\20648_driver\drivers/inv_mems_secondary_transport.c **** 
 483              		.loc 1 115 0
 484 001c FFF7FEFF 		bl	inv_mems_secondary_disable_i2c
 485              	.LVL43:
 117:.\20648_driver\drivers/inv_mems_secondary_transport.c **** 
 486              		.loc 1 117 0
 487 0020 311C     		mov	r1, r6
 488 0022 049A     		ldr	r2, [sp, #16]
 115:.\20648_driver\drivers/inv_mems_secondary_transport.c **** 
 489              		.loc 1 115 0
 490 0024 0443     		orr	r4, r0
 491              	.LVL44:
 117:.\20648_driver\drivers/inv_mems_secondary_transport.c **** 
 492              		.loc 1 117 0
 493 0026 3B20     		mov	r0, #59
 494 0028 FFF7FEFF 		bl	inv_read_mems_reg
 495              	.LVL45:
 496 002c 0443     		orr	r4, r0
 497              	.LVL46:
 119:.\20648_driver\drivers/inv_mems_secondary_transport.c **** 
 498              		.loc 1 119 0
 499 002e 281C     		mov	r0, r5
 500 0030 FFF7FEFF 		bl	inv_mems_secondary_stop_channel
 501              	.LVL47:
 122:.\20648_driver\drivers/inv_mems_secondary_transport.c **** 
 502              		.loc 1 122 0
 503              		@ sp needed
 119:.\20648_driver\drivers/inv_mems_secondary_transport.c **** 
 504              		.loc 1 119 0
 505 0034 2043     		orr	r0, r4
 506              	.LVL48:
 507              	.LVL49:
 508              	.LVL50:
 122:.\20648_driver\drivers/inv_mems_secondary_transport.c **** 
 509              		.loc 1 122 0
 510 0036 70BD     		pop	{r4, r5, r6, pc}
 511              		.cfi_endproc
 512              	.LFE2:
 513              		.size	inv_execute_read_secondary, .-inv_execute_read_secondary
 514              		.section	.text.inv_execute_write_secondary,"ax",%progbits
 515              		.align	1
 516              		.global	inv_execute_write_secondary
 517              		.code	16
 518              		.thumb_func
 519              		.type	inv_execute_write_secondary, %function
 520              	inv_execute_write_secondary:
 521              	.LFB4:
 157:.\20648_driver\drivers/inv_mems_secondary_transport.c **** 	inv_error_t result = 0;
 522              		.loc 1 157 0
 523              		.cfi_startproc
 524              	.LVL51:
 525 0000 38B5     		push	{r3, r4, r5, lr}
 526              		.cfi_def_cfa_offset 16
 527              		.cfi_offset 3, -16
 528              		.cfi_offset 4, -12
 529              		.cfi_offset 5, -8
 530              		.cfi_offset 14, -4
ARM GAS  C:\Users\ADMINI~1\AppData\Local\Temp\cc6U3Ikc.s 			page 15


 160:.\20648_driver\drivers/inv_mems_secondary_transport.c **** 	
 531              		.loc 1 160 0
 532 0002 D2B2     		uxtb	r2, r2
 533              	.LVL52:
 157:.\20648_driver\drivers/inv_mems_secondary_transport.c **** 	inv_error_t result = 0;
 534              		.loc 1 157 0
 535 0004 051C     		mov	r5, r0
 160:.\20648_driver\drivers/inv_mems_secondary_transport.c **** 	
 536              		.loc 1 160 0
 537 0006 FFF7FEFF 		bl	inv_write_secondary
 538              	.LVL53:
 539 000a 041C     		mov	r4, r0
 540              	.LVL54:
 162:.\20648_driver\drivers/inv_mems_secondary_transport.c ****     
 541              		.loc 1 162 0
 542 000c FFF7FEFF 		bl	inv_mems_secondary_enable_i2c
 543              	.LVL55:
 544 0010 0443     		orr	r4, r0
 545              	.LVL56:
 164:.\20648_driver\drivers/inv_mems_secondary_transport.c ****     
 546              		.loc 1 164 0
 547 0012 3C20     		mov	r0, #60
 548 0014 FFF7FEFF 		bl	inv_sleep
 549              	.LVL57:
 166:.\20648_driver\drivers/inv_mems_secondary_transport.c **** 
 550              		.loc 1 166 0
 551 0018 FFF7FEFF 		bl	inv_mems_secondary_disable_i2c
 552              	.LVL58:
 553 001c 0443     		orr	r4, r0
 554              	.LVL59:
 168:.\20648_driver\drivers/inv_mems_secondary_transport.c **** 
 555              		.loc 1 168 0
 556 001e 281C     		mov	r0, r5
 557 0020 FFF7FEFF 		bl	inv_mems_secondary_stop_channel
 558              	.LVL60:
 171:.\20648_driver\drivers/inv_mems_secondary_transport.c **** void inv_mems_secondary_saveI2cOdr(void)
 559              		.loc 1 171 0
 560              		@ sp needed
 168:.\20648_driver\drivers/inv_mems_secondary_transport.c **** 
 561              		.loc 1 168 0
 562 0024 2043     		orr	r0, r4
 563              	.LVL61:
 564              	.LVL62:
 171:.\20648_driver\drivers/inv_mems_secondary_transport.c **** void inv_mems_secondary_saveI2cOdr(void)
 565              		.loc 1 171 0
 566 0026 38BD     		pop	{r3, r4, r5, pc}
 567              		.cfi_endproc
 568              	.LFE4:
 569              		.size	inv_execute_write_secondary, .-inv_execute_write_secondary
 570              		.section	.text.inv_mems_secondary_set_odr,"ax",%progbits
 571              		.align	1
 572              		.global	inv_mems_secondary_set_odr
 573              		.code	16
 574              		.thumb_func
 575              		.type	inv_mems_secondary_set_odr, %function
 576              	inv_mems_secondary_set_odr:
 577              	.LFB10:
ARM GAS  C:\Users\ADMINI~1\AppData\Local\Temp\cc6U3Ikc.s 			page 16


 206:.\20648_driver\drivers/inv_mems_secondary_transport.c **** 
 207:.\20648_driver\drivers/inv_mems_secondary_transport.c **** 
 208:.\20648_driver\drivers/inv_mems_secondary_transport.c **** int inv_mems_secondary_set_odr(int divider, unsigned int* effectiveDivider)
 209:.\20648_driver\drivers/inv_mems_secondary_transport.c **** {
 578              		.loc 1 209 0
 579              		.cfi_startproc
 580              	.LVL63:
 581 0000 08B5     		push	{r3, lr}
 582              		.cfi_def_cfa_offset 8
 583              		.cfi_offset 3, -8
 584              		.cfi_offset 14, -4
 210:.\20648_driver\drivers/inv_mems_secondary_transport.c **** 	int mst_odr_config = 0;
 585              		.loc 1 210 0
 586 0002 0023     		mov	r3, #0
 587              	.LVL64:
 588              	.L24:
 211:.\20648_driver\drivers/inv_mems_secondary_transport.c **** 
 212:.\20648_driver\drivers/inv_mems_secondary_transport.c ****     // find 2^x = divider to fit BASE_SAMPLE_RATE/2^REG_I2C_MST_ODR_CONFIG
 213:.\20648_driver\drivers/inv_mems_secondary_transport.c ****     do
 214:.\20648_driver\drivers/inv_mems_secondary_transport.c ****     {
 215:.\20648_driver\drivers/inv_mems_secondary_transport.c **** 		divider>>=1;
 589              		.loc 1 215 0 discriminator 1
 590 0004 4010     		asr	r0, r0, #1
 591              	.LVL65:
 216:.\20648_driver\drivers/inv_mems_secondary_transport.c **** 		mst_odr_config++;
 592              		.loc 1 216 0 discriminator 1
 593 0006 0133     		add	r3, r3, #1
 594              	.LVL66:
 217:.\20648_driver\drivers/inv_mems_secondary_transport.c ****     } while(divider>>1);
 595              		.loc 1 217 0 discriminator 1
 596 0008 4210     		asr	r2, r0, #1
 597 000a FBD1     		bne	.L24
 218:.\20648_driver\drivers/inv_mems_secondary_transport.c ****     
 219:.\20648_driver\drivers/inv_mems_secondary_transport.c **** 	if (mst_odr_config < MIN_MST_ODR_CONFIG)
 598              		.loc 1 219 0
 599 000c 032B     		cmp	r3, #3
 600 000e 00DC     		bgt	.L25
 220:.\20648_driver\drivers/inv_mems_secondary_transport.c **** 		mst_odr_config = MIN_MST_ODR_CONFIG;
 601              		.loc 1 220 0
 602 0010 0423     		mov	r3, #4
 603              	.LVL67:
 604              	.L25:
 221:.\20648_driver\drivers/inv_mems_secondary_transport.c **** 
 222:.\20648_driver\drivers/inv_mems_secondary_transport.c **** 	*effectiveDivider = 1<<mst_odr_config;
 605              		.loc 1 222 0
 606 0012 0122     		mov	r2, #1
 607 0014 9A40     		lsl	r2, r2, r3
 223:.\20648_driver\drivers/inv_mems_secondary_transport.c **** 
 224:.\20648_driver\drivers/inv_mems_secondary_transport.c **** 	return	inv_set_secondary_divider((unsigned char)mst_odr_config);
 608              		.loc 1 224 0
 609 0016 D8B2     		uxtb	r0, r3
 610              	.LVL68:
 222:.\20648_driver\drivers/inv_mems_secondary_transport.c **** 
 611              		.loc 1 222 0
 612 0018 0A60     		str	r2, [r1]
 613              		.loc 1 224 0
 614 001a FFF7FEFF 		bl	inv_set_secondary_divider
ARM GAS  C:\Users\ADMINI~1\AppData\Local\Temp\cc6U3Ikc.s 			page 17


 615              	.LVL69:
 225:.\20648_driver\drivers/inv_mems_secondary_transport.c **** }
 616              		.loc 1 225 0
 617              		@ sp needed
 618 001e 08BD     		pop	{r3, pc}
 619              		.cfi_endproc
 620              	.LFE10:
 621              		.size	inv_mems_secondary_set_odr, .-inv_mems_secondary_set_odr
 622              		.bss
 623              		.align	1
 624              		.set	.LANCHOR0,. + 0
 625              		.type	slv_reg, %object
 626              		.size	slv_reg, 32
 627              	slv_reg:
 628 0000 00000000 		.space	32
 628      00000000 
 628      00000000 
 628      00000000 
 628      00000000 
 629              		.text
 630              	.Letext0:
 631              		.file 2 "c:\\program files (x86)\\cypress\\psoc creator\\3.3\\psoc creator\\import\\gnu\\arm\\4.9.
 632              		.file 3 "c:\\program files (x86)\\cypress\\psoc creator\\3.3\\psoc creator\\import\\gnu\\arm\\4.9.
 633              		.file 4 "./.\\20648_driver\\common\\mltypes.h"
 634              		.file 5 "./.\\20648_driver\\drivers\\inv_mems_base_driver.h"
 635              		.file 6 "./.\\20648_driver\\invn\\invn_types.h"
 636              		.file 7 "./.\\20648_driver\\drivers\\inv_mems_transport.h"
 637              		.file 8 "./.\\20648_driver\\common\\inv_mems_drv_hook.h"