ARM GAS  C:\Users\ADMINI~1\AppData\Local\Temp\ccfMsyrd.s 			page 1


   1              		.cpu cortex-m0
   2              		.fpu softvfp
   3              		.eabi_attribute 20, 1
   4              		.eabi_attribute 21, 1
   5              		.eabi_attribute 23, 3
   6              		.eabi_attribute 24, 1
   7              		.eabi_attribute 25, 1
   8              		.eabi_attribute 26, 1
   9              		.eabi_attribute 30, 4
  10              		.eabi_attribute 34, 0
  11              		.eabi_attribute 18, 4
  12              		.code	16
  13              		.file	"inv_mems_drv_hook.c"
  14              		.text
  15              	.Ltext0:
  16              		.cfi_sections	.debug_frame
  17              		.section	.text.inv_serial_interface_write_hook,"ax",%progbits
  18              		.align	1
  19              		.global	inv_serial_interface_write_hook
  20              		.code	16
  21              		.thumb_func
  22              		.type	inv_serial_interface_write_hook, %function
  23              	inv_serial_interface_write_hook:
  24              	.LFB37:
  25              		.file 1 ".\\20648_driver\\common\\inv_mems_drv_hook.c"
   1:.\20648_driver\common/inv_mems_drv_hook.c **** //#include <Windows.h>
   2:.\20648_driver\common/inv_mems_drv_hook.c **** //#include <conio.h>
   3:.\20648_driver\common/inv_mems_drv_hook.c **** 
   4:.\20648_driver\common/inv_mems_drv_hook.c **** #include <project.h>
   5:.\20648_driver\common/inv_mems_drv_hook.c **** #include <stdio.h>
   6:.\20648_driver\common/inv_mems_drv_hook.c **** #include <string.h>
   7:.\20648_driver\common/inv_mems_drv_hook.c **** #include <i2c_comm.h>
   8:.\20648_driver\common/inv_mems_drv_hook.c **** 
   9:.\20648_driver\common/inv_mems_drv_hook.c **** #include ".\20648_driver\drivers\inv_mems_hw_config.h"
  10:.\20648_driver\common/inv_mems_drv_hook.c **** #include ".\20648_driver\invn\invn_types.h"
  11:.\20648_driver\common/inv_mems_drv_hook.c **** 
  12:.\20648_driver\common/inv_mems_drv_hook.c **** #include "i2c.h"
  13:.\20648_driver\common/inv_mems_drv_hook.c **** //#include "board-st_discovery.h"
  14:.\20648_driver\common/inv_mems_drv_hook.c **** 
  15:.\20648_driver\common/inv_mems_drv_hook.c **** 
  16:.\20648_driver\common/inv_mems_drv_hook.c **** int inv_serial_interface_write_hook(uint16_t reg, uint32_t length, uint8_t *data)
  17:.\20648_driver\common/inv_mems_drv_hook.c **** {
  26              		.loc 1 17 0
  27              		.cfi_startproc
  28              	.LVL0:
  29 0000 10B5     		push	{r4, lr}
  30              		.cfi_def_cfa_offset 8
  31              		.cfi_offset 4, -8
  32              		.cfi_offset 14, -4
  33              		.loc 1 17 0
  34 0002 0C1C     		mov	r4, r1
  35 0004 131C     		mov	r3, r2
  18:.\20648_driver\common/inv_mems_drv_hook.c ****     int result;
  19:.\20648_driver\common/inv_mems_drv_hook.c **** 
  20:.\20648_driver\common/inv_mems_drv_hook.c **** 	/* Replace with I2C write for PSoC4BLE */
  21:.\20648_driver\common/inv_mems_drv_hook.c ****     result = Sensors_I2C_WriteRegister(IVORY_I2C_ADDRESS, (unsigned char)reg, (unsigned short)lengt
  36              		.loc 1 21 0
ARM GAS  C:\Users\ADMINI~1\AppData\Local\Temp\ccfMsyrd.s 			page 2


  37 0006 C1B2     		uxtb	r1, r0
  38              	.LVL1:
  39 0008 A2B2     		uxth	r2, r4
  40              	.LVL2:
  41 000a 6920     		mov	r0, #105
  42              	.LVL3:
  43 000c FFF7FEFF 		bl	Sensors_I2C_WriteRegister
  44              	.LVL4:
  22:.\20648_driver\common/inv_mems_drv_hook.c **** 
  23:.\20648_driver\common/inv_mems_drv_hook.c ****     return result;
  24:.\20648_driver\common/inv_mems_drv_hook.c **** }
  45              		.loc 1 24 0
  46              		@ sp needed
  47              	.LVL5:
  48 0010 10BD     		pop	{r4, pc}
  49              		.cfi_endproc
  50              	.LFE37:
  51              		.size	inv_serial_interface_write_hook, .-inv_serial_interface_write_hook
  52              		.section	.text.inv_serial_interface_read_hook,"ax",%progbits
  53              		.align	1
  54              		.global	inv_serial_interface_read_hook
  55              		.code	16
  56              		.thumb_func
  57              		.type	inv_serial_interface_read_hook, %function
  58              	inv_serial_interface_read_hook:
  59              	.LFB38:
  25:.\20648_driver\common/inv_mems_drv_hook.c **** 
  26:.\20648_driver\common/inv_mems_drv_hook.c **** int inv_serial_interface_read_hook(uint16_t reg, uint32_t length, uint8_t *data)
  27:.\20648_driver\common/inv_mems_drv_hook.c **** {
  60              		.loc 1 27 0
  61              		.cfi_startproc
  62              	.LVL6:
  63 0000 10B5     		push	{r4, lr}
  64              		.cfi_def_cfa_offset 8
  65              		.cfi_offset 4, -8
  66              		.cfi_offset 14, -4
  67              		.loc 1 27 0
  68 0002 0C1C     		mov	r4, r1
  69 0004 131C     		mov	r3, r2
  28:.\20648_driver\common/inv_mems_drv_hook.c **** 	int status;
  29:.\20648_driver\common/inv_mems_drv_hook.c ****     
  30:.\20648_driver\common/inv_mems_drv_hook.c **** 	/* Replace with I2C read for PSoC4BLE */
  31:.\20648_driver\common/inv_mems_drv_hook.c **** 	status= Sensors_I2C_ReadRegister(IVORY_I2C_ADDRESS, (unsigned char)reg, (unsigned short)length, da
  70              		.loc 1 31 0
  71 0006 C1B2     		uxtb	r1, r0
  72              	.LVL7:
  73 0008 A2B2     		uxth	r2, r4
  74              	.LVL8:
  75 000a 6920     		mov	r0, #105
  76              	.LVL9:
  77 000c FFF7FEFF 		bl	Sensors_I2C_ReadRegister
  78              	.LVL10:
  32:.\20648_driver\common/inv_mems_drv_hook.c **** 
  33:.\20648_driver\common/inv_mems_drv_hook.c **** 	return status;
  34:.\20648_driver\common/inv_mems_drv_hook.c **** }
  79              		.loc 1 34 0
  80              		@ sp needed
ARM GAS  C:\Users\ADMINI~1\AppData\Local\Temp\ccfMsyrd.s 			page 3


  81              	.LVL11:
  82 0010 10BD     		pop	{r4, pc}
  83              		.cfi_endproc
  84              	.LFE38:
  85              		.size	inv_serial_interface_read_hook, .-inv_serial_interface_read_hook
  86              		.section	.text.inv_sleep,"ax",%progbits
  87              		.align	1
  88              		.global	inv_sleep
  89              		.code	16
  90              		.thumb_func
  91              		.type	inv_sleep, %function
  92              	inv_sleep:
  93              	.LFB39:
  35:.\20648_driver\common/inv_mems_drv_hook.c **** 
  36:.\20648_driver\common/inv_mems_drv_hook.c **** /**
  37:.\20648_driver\common/inv_mems_drv_hook.c ****  *  @brief  Sleep function.
  38:.\20648_driver\common/inv_mems_drv_hook.c **** **/
  39:.\20648_driver\common/inv_mems_drv_hook.c **** void inv_sleep(unsigned long mSecs)
  40:.\20648_driver\common/inv_mems_drv_hook.c **** {
  94              		.loc 1 40 0
  95              		.cfi_startproc
  96              	.LVL12:
  97 0000 08B5     		push	{r3, lr}
  98              		.cfi_def_cfa_offset 8
  99              		.cfi_offset 3, -8
 100              		.cfi_offset 14, -4
  41:.\20648_driver\common/inv_mems_drv_hook.c **** 	CyDelay(mSecs);
 101              		.loc 1 41 0
 102 0002 FFF7FEFF 		bl	CyDelay
 103              	.LVL13:
  42:.\20648_driver\common/inv_mems_drv_hook.c **** }
 104              		.loc 1 42 0
 105              		@ sp needed
 106 0006 08BD     		pop	{r3, pc}
 107              		.cfi_endproc
 108              	.LFE39:
 109              		.size	inv_sleep, .-inv_sleep
 110              		.section	.text.inv_sleep_100us,"ax",%progbits
 111              		.align	1
 112              		.global	inv_sleep_100us
 113              		.code	16
 114              		.thumb_func
 115              		.type	inv_sleep_100us, %function
 116              	inv_sleep_100us:
 117              	.LFB40:
  43:.\20648_driver\common/inv_mems_drv_hook.c **** 
  44:.\20648_driver\common/inv_mems_drv_hook.c **** void inv_sleep_100us(unsigned long nHowMany100MicroSecondsToSleep)
  45:.\20648_driver\common/inv_mems_drv_hook.c **** {
 118              		.loc 1 45 0
 119              		.cfi_startproc
 120              	.LVL14:
 121 0000 08B5     		push	{r3, lr}
 122              		.cfi_def_cfa_offset 8
 123              		.cfi_offset 3, -8
 124              		.cfi_offset 14, -4
  46:.\20648_driver\common/inv_mems_drv_hook.c ****     (void)nHowMany100MicroSecondsToSleep;
  47:.\20648_driver\common/inv_mems_drv_hook.c ****     CyDelay(1);
ARM GAS  C:\Users\ADMINI~1\AppData\Local\Temp\ccfMsyrd.s 			page 4


 125              		.loc 1 47 0
 126 0002 0120     		mov	r0, #1
 127              	.LVL15:
 128 0004 FFF7FEFF 		bl	CyDelay
 129              	.LVL16:
  48:.\20648_driver\common/inv_mems_drv_hook.c **** }
 130              		.loc 1 48 0
 131              		@ sp needed
 132 0008 08BD     		pop	{r3, pc}
 133              		.cfi_endproc
 134              	.LFE40:
 135              		.size	inv_sleep_100us, .-inv_sleep_100us
 136              		.text
 137              	.Letext0:
 138              		.file 2 "c:\\program files (x86)\\cypress\\psoc creator\\3.3\\psoc creator\\import\\gnu\\arm\\4.9.
 139              		.file 3 "c:\\program files (x86)\\cypress\\psoc creator\\3.3\\psoc creator\\import\\gnu\\arm\\4.9.
 140              		.file 4 "Generated_Source\\PSoC4/cytypes.h"
 141              		.file 5 "./i2c_comm.h"
 142              		.file 6 "Generated_Source\\PSoC4/CyLib.h"