ARM GAS  C:\Users\ADMINI~1\AppData\Local\Temp\ccA9rFPz.s 			page 1


   1              		.cpu cortex-m0
   2              		.fpu softvfp
   3              		.eabi_attribute 20, 1
   4              		.eabi_attribute 21, 1
   5              		.eabi_attribute 23, 3
   6              		.eabi_attribute 24, 1
   7              		.eabi_attribute 25, 1
   8              		.eabi_attribute 26, 1
   9              		.eabi_attribute 30, 4
  10              		.eabi_attribute 34, 0
  11              		.eabi_attribute 18, 4
  12              		.code	16
  13              		.file	"inv_mems_base_driver.c"
  14              		.text
  15              	.Ltext0:
  16              		.cfi_sections	.debug_frame
  17              		.section	.text.inv_mems_prevent_lpen_control,"ax",%progbits
  18              		.align	1
  19              		.global	inv_mems_prevent_lpen_control
  20              		.code	16
  21              		.thumb_func
  22              		.type	inv_mems_prevent_lpen_control, %function
  23              	inv_mems_prevent_lpen_control:
  24              	.LFB0:
  25              		.file 1 ".\\20648_driver\\drivers\\inv_mems_base_driver.c"
   1:.\20648_driver\drivers/inv_mems_base_driver.c **** /*
   2:.\20648_driver\drivers/inv_mems_base_driver.c **** * _________________________________________________________________________________________________
   3:.\20648_driver\drivers/inv_mems_base_driver.c **** * Copyright © 2014-2015 InvenSense Inc. Portions Copyright © 2014-2015 Movea. All rights reserved.
   4:.\20648_driver\drivers/inv_mems_base_driver.c **** * This software, related documentation and any modifications thereto (collectively “Software”) is s
   5:.\20648_driver\drivers/inv_mems_base_driver.c **** * to InvenSense and its licensors' intellectual property rights under U.S. and international copyri
   6:.\20648_driver\drivers/inv_mems_base_driver.c **** * other intellectual property rights laws.
   7:.\20648_driver\drivers/inv_mems_base_driver.c **** * InvenSense and its licensors retain all intellectual property and proprietary rights in and to th
   8:.\20648_driver\drivers/inv_mems_base_driver.c **** * and any use, reproduction, disclosure or distribution of the Software without an express license
   9:.\20648_driver\drivers/inv_mems_base_driver.c **** * agreement from InvenSense is strictly prohibited.
  10:.\20648_driver\drivers/inv_mems_base_driver.c **** * _________________________________________________________________________________________________
  11:.\20648_driver\drivers/inv_mems_base_driver.c **** */
  12:.\20648_driver\drivers/inv_mems_base_driver.c **** #if !defined MEMS_20609
  13:.\20648_driver\drivers/inv_mems_base_driver.c **** 
  14:.\20648_driver\drivers/inv_mems_base_driver.c **** #include ".\20648_driver\drivers\inv_mems_base_driver.h"
  15:.\20648_driver\drivers/inv_mems_base_driver.c **** 
  16:.\20648_driver\drivers/inv_mems_base_driver.c **** #include ".\20648_driver\common\inv_mems_drv_hook.h"
  17:.\20648_driver\drivers/inv_mems_base_driver.c **** #include ".\20648_driver\drivers\inv_mems_transport.h"
  18:.\20648_driver\drivers/inv_mems_base_driver.c **** #include ".\20648_driver\drivers\inv_mems_hw_config.h"
  19:.\20648_driver\drivers/inv_mems_base_driver.c **** #include ".\20648_driver\dmp3\inv_mems_interface_mapping.h"
  20:.\20648_driver\drivers/inv_mems_base_driver.c **** #include ".\20648_driver\drivers\inv_mems_base_control.h"
  21:.\20648_driver\drivers/inv_mems_base_driver.c **** 
  22:.\20648_driver\drivers/inv_mems_base_driver.c **** #if defined MEMS_SECONDARY_DEVICE
  23:.\20648_driver\drivers/inv_mems_base_driver.c **** #include "driver/inv_mems_slave_compass.h"
  24:.\20648_driver\drivers/inv_mems_base_driver.c **** #include "driver/inv_mems_slave_pressure.h"
  25:.\20648_driver\drivers/inv_mems_base_driver.c **** #include "driver/inv_mems_secondary_transport.h"
  26:.\20648_driver\drivers/inv_mems_base_driver.c **** #endif
  27:.\20648_driver\drivers/inv_mems_base_driver.c **** 
  28:.\20648_driver\drivers/inv_mems_base_driver.c **** #include ".\20648_driver\invn\invn_types.h"
  29:.\20648_driver\drivers/inv_mems_base_driver.c **** 
  30:.\20648_driver\drivers/inv_mems_base_driver.c **** 
  31:.\20648_driver\drivers/inv_mems_base_driver.c **** struct base_driver_t base_state;
  32:.\20648_driver\drivers/inv_mems_base_driver.c **** static uint8_t sAllowLpEn = 1;
ARM GAS  C:\Users\ADMINI~1\AppData\Local\Temp\ccA9rFPz.s 			page 2


  33:.\20648_driver\drivers/inv_mems_base_driver.c **** #if defined MEMS_SECONDARY_DEVICE
  34:.\20648_driver\drivers/inv_mems_base_driver.c **** static uint8_t s_compass_available = 0;
  35:.\20648_driver\drivers/inv_mems_base_driver.c **** static uint8_t s_pressure_available = 0;
  36:.\20648_driver\drivers/inv_mems_base_driver.c **** #endif
  37:.\20648_driver\drivers/inv_mems_base_driver.c **** 
  38:.\20648_driver\drivers/inv_mems_base_driver.c **** void inv_mems_prevent_lpen_control(void)
  39:.\20648_driver\drivers/inv_mems_base_driver.c **** {
  26              		.loc 1 39 0
  27              		.cfi_startproc
  40:.\20648_driver\drivers/inv_mems_base_driver.c **** 	sAllowLpEn = 0;
  28              		.loc 1 40 0
  29 0000 0022     		mov	r2, #0
  30 0002 014B     		ldr	r3, .L2
  41:.\20648_driver\drivers/inv_mems_base_driver.c **** }
  31              		.loc 1 41 0
  32              		@ sp needed
  40:.\20648_driver\drivers/inv_mems_base_driver.c **** 	sAllowLpEn = 0;
  33              		.loc 1 40 0
  34 0004 1A70     		strb	r2, [r3]
  35              		.loc 1 41 0
  36 0006 7047     		bx	lr
  37              	.L3:
  38              		.align	2
  39              	.L2:
  40 0008 00000000 		.word	.LANCHOR0
  41              		.cfi_endproc
  42              	.LFE0:
  43              		.size	inv_mems_prevent_lpen_control, .-inv_mems_prevent_lpen_control
  44              		.section	.text.inv_set_chip_power_state,"ax",%progbits
  45              		.align	1
  46              		.global	inv_set_chip_power_state
  47              		.code	16
  48              		.thumb_func
  49              		.type	inv_set_chip_power_state, %function
  50              	inv_set_chip_power_state:
  51              	.LFB3:
  42:.\20648_driver\drivers/inv_mems_base_driver.c **** void inv_mems_allow_lpen_control(void)
  43:.\20648_driver\drivers/inv_mems_base_driver.c **** {
  44:.\20648_driver\drivers/inv_mems_base_driver.c **** 	sAllowLpEn = 1;
  45:.\20648_driver\drivers/inv_mems_base_driver.c **** 	inv_set_chip_power_state(CHIP_LP_ENABLE, 1);
  46:.\20648_driver\drivers/inv_mems_base_driver.c **** }
  47:.\20648_driver\drivers/inv_mems_base_driver.c **** static uint8_t inv_mems_get_lpen_control(void)
  48:.\20648_driver\drivers/inv_mems_base_driver.c **** {
  49:.\20648_driver\drivers/inv_mems_base_driver.c **** 	return sAllowLpEn;
  50:.\20648_driver\drivers/inv_mems_base_driver.c **** }
  51:.\20648_driver\drivers/inv_mems_base_driver.c **** 
  52:.\20648_driver\drivers/inv_mems_base_driver.c **** /*!
  53:.\20648_driver\drivers/inv_mems_base_driver.c ****  ******************************************************************************
  54:.\20648_driver\drivers/inv_mems_base_driver.c ****  *   @brief     This function sets the power state of the Ivory chip 
  55:.\20648_driver\drivers/inv_mems_base_driver.c ****  *				loop
  56:.\20648_driver\drivers/inv_mems_base_driver.c ****  *   @param[in] Function - CHIP_AWAKE, CHIP_LP_ENABLE
  57:.\20648_driver\drivers/inv_mems_base_driver.c ****  *   @param[in] On/Off - The functions are enabled if previously disabled and 
  58:.\20648_driver\drivers/inv_mems_base_driver.c ****                 disabled if previously enabled based on the value of On/Off.
  59:.\20648_driver\drivers/inv_mems_base_driver.c ****  ******************************************************************************
  60:.\20648_driver\drivers/inv_mems_base_driver.c ****  */ 
  61:.\20648_driver\drivers/inv_mems_base_driver.c **** inv_error_t inv_set_chip_power_state(unsigned char func, unsigned char on_off)
  62:.\20648_driver\drivers/inv_mems_base_driver.c **** {
ARM GAS  C:\Users\ADMINI~1\AppData\Local\Temp\ccA9rFPz.s 			page 3


  52              		.loc 1 62 0
  53              		.cfi_startproc
  54              	.LVL0:
  55 0000 F8B5     		push	{r3, r4, r5, r6, r7, lr}
  56              		.cfi_def_cfa_offset 24
  57              		.cfi_offset 3, -24
  58              		.cfi_offset 4, -20
  59              		.cfi_offset 5, -16
  60              		.cfi_offset 6, -12
  61              		.cfi_offset 7, -8
  62              		.cfi_offset 14, -4
  63              		.loc 1 62 0
  64 0002 041E     		sub	r4, r0, #0
  63:.\20648_driver\drivers/inv_mems_base_driver.c **** 	inv_error_t status = 0;
  64:.\20648_driver\drivers/inv_mems_base_driver.c **** 
  65:.\20648_driver\drivers/inv_mems_base_driver.c **** 	switch(func) {
  65              		.loc 1 65 0
  66 0004 012C     		cmp	r4, #1
  67 0006 02D0     		beq	.L6
  68 0008 0228     		cmp	r0, #2
  69 000a 26D0     		beq	.L7
  70 000c 56E0     		b	.L25
  71              	.L6:
  72 000e 2D4D     		ldr	r5, .L26
  66:.\20648_driver\drivers/inv_mems_base_driver.c **** 
  67:.\20648_driver\drivers/inv_mems_base_driver.c **** 		case CHIP_AWAKE:    
  68:.\20648_driver\drivers/inv_mems_base_driver.c **** 			if(on_off){
  69:.\20648_driver\drivers/inv_mems_base_driver.c **** 				if((base_state.wake_state & CHIP_AWAKE) == 0) {// undo sleep_en
  73              		.loc 1 69 0
  74 0010 2B78     		ldrb	r3, [r5]
  68:.\20648_driver\drivers/inv_mems_base_driver.c **** 				if((base_state.wake_state & CHIP_AWAKE) == 0) {// undo sleep_en
  75              		.loc 1 68 0
  76 0012 0029     		cmp	r1, #0
  77 0014 0FD0     		beq	.L8
  63:.\20648_driver\drivers/inv_mems_base_driver.c **** 	inv_error_t status = 0;
  78              		.loc 1 63 0
  79 0016 0026     		mov	r6, #0
  80              		.loc 1 69 0
  81 0018 0342     		tst	r3, r0
  82 001a 50D1     		bne	.L5
  70:.\20648_driver\drivers/inv_mems_base_driver.c **** 					base_state.pwr_mgmt_1 &= ~BIT_SLEEP;
  83              		.loc 1 70 0
  84 001c 4022     		mov	r2, #64
  85 001e 6B78     		ldrb	r3, [r5, #1]
  71:.\20648_driver\drivers/inv_mems_base_driver.c **** 					status = inv_serial_interface_write_hook(REG_PWR_MGMT_1, 1, &base_state.pwr_mgmt_1);
  86              		.loc 1 71 0
  87 0020 0620     		mov	r0, #6
  88              	.LVL1:
  70:.\20648_driver\drivers/inv_mems_base_driver.c **** 					base_state.pwr_mgmt_1 &= ~BIT_SLEEP;
  89              		.loc 1 70 0
  90 0022 9343     		bic	r3, r2
  91              		.loc 1 71 0
  92 0024 211C     		mov	r1, r4
  93              	.LVL2:
  94 0026 284A     		ldr	r2, .L26+4
  70:.\20648_driver\drivers/inv_mems_base_driver.c **** 					base_state.pwr_mgmt_1 &= ~BIT_SLEEP;
  95              		.loc 1 70 0
ARM GAS  C:\Users\ADMINI~1\AppData\Local\Temp\ccA9rFPz.s 			page 4


  96 0028 6B70     		strb	r3, [r5, #1]
  97              		.loc 1 71 0
  98 002a FFF7FEFF 		bl	inv_serial_interface_write_hook
  99              	.LVL3:
  72:.\20648_driver\drivers/inv_mems_base_driver.c **** 					base_state.wake_state |= CHIP_AWAKE;
 100              		.loc 1 72 0
 101 002e 2B78     		ldrb	r3, [r5]
  71:.\20648_driver\drivers/inv_mems_base_driver.c **** 					status = inv_serial_interface_write_hook(REG_PWR_MGMT_1, 1, &base_state.pwr_mgmt_1);
 102              		.loc 1 71 0
 103 0030 061C     		mov	r6, r0
 104              	.LVL4:
 105              		.loc 1 72 0
 106 0032 2343     		orr	r3, r4
 107 0034 0EE0     		b	.L23
 108              	.LVL5:
 109              	.L8:
  63:.\20648_driver\drivers/inv_mems_base_driver.c **** 
 110              		.loc 1 63 0
 111 0036 0E1C     		mov	r6, r1
  73:.\20648_driver\drivers/inv_mems_base_driver.c **** 					inv_sleep_100us(1); // after writing the bit wait 100 Micro Seconds
  74:.\20648_driver\drivers/inv_mems_base_driver.c **** 				}
  75:.\20648_driver\drivers/inv_mems_base_driver.c **** 			} else {
  76:.\20648_driver\drivers/inv_mems_base_driver.c **** 				if(base_state.wake_state & CHIP_AWAKE) {// set sleep_en
 112              		.loc 1 76 0
 113 0038 0342     		tst	r3, r0
 114 003a 40D0     		beq	.L5
  77:.\20648_driver\drivers/inv_mems_base_driver.c **** 					base_state.pwr_mgmt_1 |= BIT_SLEEP;
 115              		.loc 1 77 0
 116 003c 4022     		mov	r2, #64
 117 003e 6B78     		ldrb	r3, [r5, #1]
  78:.\20648_driver\drivers/inv_mems_base_driver.c **** 					status = inv_serial_interface_write_hook(REG_PWR_MGMT_1, 1, &base_state.pwr_mgmt_1);
 118              		.loc 1 78 0
 119 0040 0620     		mov	r0, #6
 120              	.LVL6:
  77:.\20648_driver\drivers/inv_mems_base_driver.c **** 					base_state.pwr_mgmt_1 |= BIT_SLEEP;
 121              		.loc 1 77 0
 122 0042 1343     		orr	r3, r2
 123              		.loc 1 78 0
 124 0044 211C     		mov	r1, r4
 125              	.LVL7:
 126 0046 204A     		ldr	r2, .L26+4
  77:.\20648_driver\drivers/inv_mems_base_driver.c **** 					base_state.pwr_mgmt_1 |= BIT_SLEEP;
 127              		.loc 1 77 0
 128 0048 6B70     		strb	r3, [r5, #1]
 129              		.loc 1 78 0
 130 004a FFF7FEFF 		bl	inv_serial_interface_write_hook
 131              	.LVL8:
 132 004e 061C     		mov	r6, r0
 133              	.LVL9:
  79:.\20648_driver\drivers/inv_mems_base_driver.c **** 					base_state.wake_state &= ~CHIP_AWAKE;
 134              		.loc 1 79 0
 135 0050 2B78     		ldrb	r3, [r5]
 136 0052 A343     		bic	r3, r4
 137              	.L23:
 138 0054 2B70     		strb	r3, [r5]
  80:.\20648_driver\drivers/inv_mems_base_driver.c **** 					inv_sleep_100us(1); // after writing the bit wait 100 Micro Seconds
 139              		.loc 1 80 0
ARM GAS  C:\Users\ADMINI~1\AppData\Local\Temp\ccA9rFPz.s 			page 5


 140 0056 201C     		mov	r0, r4
 141              	.LVL10:
 142 0058 2DE0     		b	.L22
 143              	.LVL11:
 144              	.L7:
  81:.\20648_driver\drivers/inv_mems_base_driver.c **** 				}
  82:.\20648_driver\drivers/inv_mems_base_driver.c **** 			}
  83:.\20648_driver\drivers/inv_mems_base_driver.c **** 		break;
  84:.\20648_driver\drivers/inv_mems_base_driver.c **** 
  85:.\20648_driver\drivers/inv_mems_base_driver.c **** 		case CHIP_LP_ENABLE:
  86:.\20648_driver\drivers/inv_mems_base_driver.c **** 			if(base_state.lp_en_support == 1) {
 145              		.loc 1 86 0
 146 005a 0127     		mov	r7, #1
 147 005c 194D     		ldr	r5, .L26
  63:.\20648_driver\drivers/inv_mems_base_driver.c **** 
 148              		.loc 1 63 0
 149 005e 0026     		mov	r6, #0
 150              		.loc 1 86 0
 151 0060 AB7B     		ldrb	r3, [r5, #14]
 152 0062 3B42     		tst	r3, r7
 153 0064 2BD0     		beq	.L5
  87:.\20648_driver\drivers/inv_mems_base_driver.c **** 				if(on_off) {
 154              		.loc 1 87 0
 155 0066 B142     		cmp	r1, r6
 156 0068 14D0     		beq	.L9
 157              	.LBB4:
 158              	.LBB5:
  49:.\20648_driver\drivers/inv_mems_base_driver.c **** }
 159              		.loc 1 49 0
 160 006a 184B     		ldr	r3, .L26+8
 161              	.LBE5:
 162              	.LBE4:
  88:.\20648_driver\drivers/inv_mems_base_driver.c **** 					if( (inv_mems_get_lpen_control()) && ((base_state.wake_state & CHIP_LP_ENABLE) == 0)){
 163              		.loc 1 88 0
 164 006c 1B78     		ldrb	r3, [r3]
 165 006e B342     		cmp	r3, r6
 166 0070 25D0     		beq	.L5
 167              		.loc 1 88 0 is_stmt 0 discriminator 1
 168 0072 2B78     		ldrb	r3, [r5]
 169 0074 0342     		tst	r3, r0
 170 0076 22D1     		bne	.L5
  89:.\20648_driver\drivers/inv_mems_base_driver.c **** 						base_state.pwr_mgmt_1 |= BIT_LP_EN; // lp_en ON
 171              		.loc 1 89 0 is_stmt 1
 172 0078 2022     		mov	r2, #32
 173 007a 6B78     		ldrb	r3, [r5, #1]
  90:.\20648_driver\drivers/inv_mems_base_driver.c **** 						status = inv_serial_interface_write_hook(REG_PWR_MGMT_1, 1, &base_state.pwr_mgmt_1);
 174              		.loc 1 90 0
 175 007c 0620     		mov	r0, #6
 176              	.LVL12:
  89:.\20648_driver\drivers/inv_mems_base_driver.c **** 						base_state.pwr_mgmt_1 |= BIT_LP_EN; // lp_en ON
 177              		.loc 1 89 0
 178 007e 1343     		orr	r3, r2
 179              		.loc 1 90 0
 180 0080 391C     		mov	r1, r7
 181              	.LVL13:
 182 0082 114A     		ldr	r2, .L26+4
  89:.\20648_driver\drivers/inv_mems_base_driver.c **** 						base_state.pwr_mgmt_1 |= BIT_LP_EN; // lp_en ON
ARM GAS  C:\Users\ADMINI~1\AppData\Local\Temp\ccA9rFPz.s 			page 6


 183              		.loc 1 89 0
 184 0084 6B70     		strb	r3, [r5, #1]
 185              		.loc 1 90 0
 186 0086 FFF7FEFF 		bl	inv_serial_interface_write_hook
 187              	.LVL14:
  91:.\20648_driver\drivers/inv_mems_base_driver.c **** 						base_state.wake_state |= CHIP_LP_ENABLE;
 188              		.loc 1 91 0
 189 008a 2B78     		ldrb	r3, [r5]
  90:.\20648_driver\drivers/inv_mems_base_driver.c **** 						status = inv_serial_interface_write_hook(REG_PWR_MGMT_1, 1, &base_state.pwr_mgmt_1);
 190              		.loc 1 90 0
 191 008c 061C     		mov	r6, r0
 192              	.LVL15:
 193              		.loc 1 91 0
 194 008e 1C43     		orr	r4, r3
 195 0090 2C70     		strb	r4, [r5]
 196 0092 14E0     		b	.L5
 197              	.LVL16:
 198              	.L9:
  92:.\20648_driver\drivers/inv_mems_base_driver.c **** 						#if (MEMS_CHIP != HW_ICM20648) 
  93:.\20648_driver\drivers/inv_mems_base_driver.c **** 						inv_sleep_100us(1); // after writing the bit wait 100 Micro Seconds
  94:.\20648_driver\drivers/inv_mems_base_driver.c **** 						#endif
  95:.\20648_driver\drivers/inv_mems_base_driver.c **** 					}
  96:.\20648_driver\drivers/inv_mems_base_driver.c **** 				} else {
  97:.\20648_driver\drivers/inv_mems_base_driver.c **** 					if(base_state.wake_state & CHIP_LP_ENABLE){
 199              		.loc 1 97 0
 200 0094 2B78     		ldrb	r3, [r5]
 201 0096 0342     		tst	r3, r0
 202 0098 11D0     		beq	.L5
  98:.\20648_driver\drivers/inv_mems_base_driver.c **** 						base_state.pwr_mgmt_1 &= ~BIT_LP_EN; // lp_en off
 203              		.loc 1 98 0
 204 009a 2022     		mov	r2, #32
 205 009c 6B78     		ldrb	r3, [r5, #1]
  99:.\20648_driver\drivers/inv_mems_base_driver.c **** 						status = inv_serial_interface_write_hook(REG_PWR_MGMT_1, 1, &base_state.pwr_mgmt_1);
 206              		.loc 1 99 0
 207 009e 0620     		mov	r0, #6
 208              	.LVL17:
  98:.\20648_driver\drivers/inv_mems_base_driver.c **** 						base_state.pwr_mgmt_1 &= ~BIT_LP_EN; // lp_en off
 209              		.loc 1 98 0
 210 00a0 9343     		bic	r3, r2
 211              		.loc 1 99 0
 212 00a2 391C     		mov	r1, r7
 213              	.LVL18:
 214 00a4 084A     		ldr	r2, .L26+4
  98:.\20648_driver\drivers/inv_mems_base_driver.c **** 						base_state.pwr_mgmt_1 &= ~BIT_LP_EN; // lp_en off
 215              		.loc 1 98 0
 216 00a6 6B70     		strb	r3, [r5, #1]
 217              		.loc 1 99 0
 218 00a8 FFF7FEFF 		bl	inv_serial_interface_write_hook
 219              	.LVL19:
 220 00ac 061C     		mov	r6, r0
 221              	.LVL20:
 100:.\20648_driver\drivers/inv_mems_base_driver.c **** 						base_state.wake_state &= ~CHIP_LP_ENABLE;
 101:.\20648_driver\drivers/inv_mems_base_driver.c **** 						inv_sleep_100us(1); // after writing the bit wait 100 Micro Seconds
 222              		.loc 1 101 0
 223 00ae 381C     		mov	r0, r7
 224              	.LVL21:
 100:.\20648_driver\drivers/inv_mems_base_driver.c **** 						base_state.wake_state &= ~CHIP_LP_ENABLE;
ARM GAS  C:\Users\ADMINI~1\AppData\Local\Temp\ccA9rFPz.s 			page 7


 225              		.loc 1 100 0
 226 00b0 2B78     		ldrb	r3, [r5]
 227 00b2 A343     		bic	r3, r4
 228 00b4 2B70     		strb	r3, [r5]
 229              	.L22:
 230              		.loc 1 101 0
 231 00b6 FFF7FEFF 		bl	inv_sleep_100us
 232              	.LVL22:
 233 00ba 00E0     		b	.L5
 234              	.LVL23:
 235              	.L25:
  63:.\20648_driver\drivers/inv_mems_base_driver.c **** 
 236              		.loc 1 63 0
 237 00bc 0026     		mov	r6, #0
 238              	.LVL24:
 239              	.L5:
 102:.\20648_driver\drivers/inv_mems_base_driver.c **** 					}
 103:.\20648_driver\drivers/inv_mems_base_driver.c **** 				}
 104:.\20648_driver\drivers/inv_mems_base_driver.c **** 			}
 105:.\20648_driver\drivers/inv_mems_base_driver.c **** 		break;
 106:.\20648_driver\drivers/inv_mems_base_driver.c **** 
 107:.\20648_driver\drivers/inv_mems_base_driver.c **** 		default:
 108:.\20648_driver\drivers/inv_mems_base_driver.c **** 		break;
 109:.\20648_driver\drivers/inv_mems_base_driver.c **** 
 110:.\20648_driver\drivers/inv_mems_base_driver.c **** 	}// end switch
 111:.\20648_driver\drivers/inv_mems_base_driver.c **** 
 112:.\20648_driver\drivers/inv_mems_base_driver.c **** 	return status;
 113:.\20648_driver\drivers/inv_mems_base_driver.c **** }
 240              		.loc 1 113 0
 241 00be 301C     		mov	r0, r6
 242              		@ sp needed
 243              	.LVL25:
 244 00c0 F8BD     		pop	{r3, r4, r5, r6, r7, pc}
 245              	.L27:
 246 00c2 C046     		.align	2
 247              	.L26:
 248 00c4 00000000 		.word	base_state
 249 00c8 01000000 		.word	base_state+1
 250 00cc 00000000 		.word	.LANCHOR0
 251              		.cfi_endproc
 252              	.LFE3:
 253              		.size	inv_set_chip_power_state, .-inv_set_chip_power_state
 254              		.section	.text.inv_mems_allow_lpen_control,"ax",%progbits
 255              		.align	1
 256              		.global	inv_mems_allow_lpen_control
 257              		.code	16
 258              		.thumb_func
 259              		.type	inv_mems_allow_lpen_control, %function
 260              	inv_mems_allow_lpen_control:
 261              	.LFB1:
  43:.\20648_driver\drivers/inv_mems_base_driver.c **** 	sAllowLpEn = 1;
 262              		.loc 1 43 0
 263              		.cfi_startproc
  44:.\20648_driver\drivers/inv_mems_base_driver.c **** 	inv_set_chip_power_state(CHIP_LP_ENABLE, 1);
 264              		.loc 1 44 0
 265 0000 0121     		mov	r1, #1
  43:.\20648_driver\drivers/inv_mems_base_driver.c **** 	sAllowLpEn = 1;
ARM GAS  C:\Users\ADMINI~1\AppData\Local\Temp\ccA9rFPz.s 			page 8


 266              		.loc 1 43 0
 267 0002 08B5     		push	{r3, lr}
 268              		.cfi_def_cfa_offset 8
 269              		.cfi_offset 3, -8
 270              		.cfi_offset 14, -4
  44:.\20648_driver\drivers/inv_mems_base_driver.c **** 	inv_set_chip_power_state(CHIP_LP_ENABLE, 1);
 271              		.loc 1 44 0
 272 0004 024B     		ldr	r3, .L29
  45:.\20648_driver\drivers/inv_mems_base_driver.c **** }
 273              		.loc 1 45 0
 274 0006 0220     		mov	r0, #2
  44:.\20648_driver\drivers/inv_mems_base_driver.c **** 	inv_set_chip_power_state(CHIP_LP_ENABLE, 1);
 275              		.loc 1 44 0
 276 0008 1970     		strb	r1, [r3]
  46:.\20648_driver\drivers/inv_mems_base_driver.c **** static uint8_t inv_mems_get_lpen_control(void)
 277              		.loc 1 46 0
 278              		@ sp needed
  45:.\20648_driver\drivers/inv_mems_base_driver.c **** }
 279              		.loc 1 45 0
 280 000a FFF7FEFF 		bl	inv_set_chip_power_state
 281              	.LVL26:
  46:.\20648_driver\drivers/inv_mems_base_driver.c **** static uint8_t inv_mems_get_lpen_control(void)
 282              		.loc 1 46 0
 283 000e 08BD     		pop	{r3, pc}
 284              	.L30:
 285              		.align	2
 286              	.L29:
 287 0010 00000000 		.word	.LANCHOR0
 288              		.cfi_endproc
 289              	.LFE1:
 290              		.size	inv_mems_allow_lpen_control, .-inv_mems_allow_lpen_control
 291              		.section	.text.inv_get_chip_power_state,"ax",%progbits
 292              		.align	1
 293              		.global	inv_get_chip_power_state
 294              		.code	16
 295              		.thumb_func
 296              		.type	inv_get_chip_power_state, %function
 297              	inv_get_chip_power_state:
 298              	.LFB4:
 114:.\20648_driver\drivers/inv_mems_base_driver.c **** 
 115:.\20648_driver\drivers/inv_mems_base_driver.c **** /*!
 116:.\20648_driver\drivers/inv_mems_base_driver.c ****  ******************************************************************************
 117:.\20648_driver\drivers/inv_mems_base_driver.c ****  *   @return    Current wake status of the Ivory chip.
 118:.\20648_driver\drivers/inv_mems_base_driver.c ****  ******************************************************************************
 119:.\20648_driver\drivers/inv_mems_base_driver.c ****  */
 120:.\20648_driver\drivers/inv_mems_base_driver.c **** uint8_t inv_get_chip_power_state()
 121:.\20648_driver\drivers/inv_mems_base_driver.c **** {
 299              		.loc 1 121 0
 300              		.cfi_startproc
 122:.\20648_driver\drivers/inv_mems_base_driver.c ****     return base_state.wake_state;
 301              		.loc 1 122 0
 302 0000 014B     		ldr	r3, .L32
 123:.\20648_driver\drivers/inv_mems_base_driver.c **** }
 303              		.loc 1 123 0
 304              		@ sp needed
 122:.\20648_driver\drivers/inv_mems_base_driver.c ****     return base_state.wake_state;
 305              		.loc 1 122 0
ARM GAS  C:\Users\ADMINI~1\AppData\Local\Temp\ccA9rFPz.s 			page 9


 306 0002 1878     		ldrb	r0, [r3]
 307              		.loc 1 123 0
 308 0004 7047     		bx	lr
 309              	.L33:
 310 0006 C046     		.align	2
 311              	.L32:
 312 0008 00000000 		.word	base_state
 313              		.cfi_endproc
 314              	.LFE4:
 315              		.size	inv_get_chip_power_state, .-inv_get_chip_power_state
 316              		.section	.text.inv_wakeup_mems,"ax",%progbits
 317              		.align	1
 318              		.global	inv_wakeup_mems
 319              		.code	16
 320              		.thumb_func
 321              		.type	inv_wakeup_mems, %function
 322              	inv_wakeup_mems:
 323              	.LFB5:
 124:.\20648_driver\drivers/inv_mems_base_driver.c **** 
 125:.\20648_driver\drivers/inv_mems_base_driver.c **** /** Wakes up DMP3 (MEMS).
 126:.\20648_driver\drivers/inv_mems_base_driver.c **** */
 127:.\20648_driver\drivers/inv_mems_base_driver.c **** inv_error_t inv_wakeup_mems()
 128:.\20648_driver\drivers/inv_mems_base_driver.c **** {
 324              		.loc 1 128 0
 325              		.cfi_startproc
 326              	.LVL27:
 327 0000 37B5     		push	{r0, r1, r2, r4, r5, lr}
 328              		.cfi_def_cfa_offset 24
 329              		.cfi_offset 0, -24
 330              		.cfi_offset 1, -20
 331              		.cfi_offset 2, -16
 332              		.cfi_offset 4, -12
 333              		.cfi_offset 5, -8
 334              		.cfi_offset 14, -4
 129:.\20648_driver\drivers/inv_mems_base_driver.c ****     unsigned char data;
 130:.\20648_driver\drivers/inv_mems_base_driver.c ****     inv_error_t result = INV_SUCCESS;
 131:.\20648_driver\drivers/inv_mems_base_driver.c **** 
 132:.\20648_driver\drivers/inv_mems_base_driver.c ****     result = inv_set_chip_power_state(CHIP_AWAKE, 1);
 335              		.loc 1 132 0
 336 0002 0120     		mov	r0, #1
 337 0004 011C     		mov	r1, r0
 338 0006 FFF7FEFF 		bl	inv_set_chip_power_state
 339              	.LVL28:
 133:.\20648_driver\drivers/inv_mems_base_driver.c ****     
 134:.\20648_driver\drivers/inv_mems_base_driver.c ****     if(base_state.serial_interface == SERIAL_INTERFACE_SPI) {
 340              		.loc 1 134 0
 341 000a 134C     		ldr	r4, .L40
 132:.\20648_driver\drivers/inv_mems_base_driver.c ****     
 342              		.loc 1 132 0
 343 000c 051C     		mov	r5, r0
 344              	.LVL29:
 345              		.loc 1 134 0
 346 000e E37B     		ldrb	r3, [r4, #15]
 347 0010 022B     		cmp	r3, #2
 348 0012 06D1     		bne	.L35
 135:.\20648_driver\drivers/inv_mems_base_driver.c **** 		base_state.user_ctrl |= BIT_I2C_IF_DIS;
 349              		.loc 1 135 0
ARM GAS  C:\Users\ADMINI~1\AppData\Local\Temp\ccA9rFPz.s 			page 10


 350 0014 1021     		mov	r1, #16
 351 0016 E378     		ldrb	r3, [r4, #3]
 136:.\20648_driver\drivers/inv_mems_base_driver.c ****         inv_write_single_mems_reg(REG_USER_CTRL, base_state.user_ctrl);  
 352              		.loc 1 136 0
 353 0018 0320     		mov	r0, #3
 354              	.LVL30:
 135:.\20648_driver\drivers/inv_mems_base_driver.c **** 		base_state.user_ctrl |= BIT_I2C_IF_DIS;
 355              		.loc 1 135 0
 356 001a 1943     		orr	r1, r3
 357 001c E170     		strb	r1, [r4, #3]
 358              		.loc 1 136 0
 359 001e FFF7FEFF 		bl	inv_write_single_mems_reg
 360              	.LVL31:
 361              	.L35:
 137:.\20648_driver\drivers/inv_mems_base_driver.c ****     }		
 138:.\20648_driver\drivers/inv_mems_base_driver.c ****     
 139:.\20648_driver\drivers/inv_mems_base_driver.c ****     data = 0x47;	// FIXME, should set up according to sensor/engines enabled.
 362              		.loc 1 139 0
 363 0022 6B46     		mov	r3, sp
 364 0024 DA1D     		add	r2, r3, #7
 365 0026 4723     		mov	r3, #71
 140:.\20648_driver\drivers/inv_mems_base_driver.c ****     result |= inv_write_mems_reg(REG_PWR_MGMT_2, 1, &data);
 366              		.loc 1 140 0
 367 0028 0720     		mov	r0, #7
 368 002a 0121     		mov	r1, #1
 139:.\20648_driver\drivers/inv_mems_base_driver.c ****     result |= inv_write_mems_reg(REG_PWR_MGMT_2, 1, &data);
 369              		.loc 1 139 0
 370 002c 1370     		strb	r3, [r2]
 371              		.loc 1 140 0
 372 002e FFF7FEFF 		bl	inv_write_mems_reg
 373              	.LVL32:
 141:.\20648_driver\drivers/inv_mems_base_driver.c **** 
 142:.\20648_driver\drivers/inv_mems_base_driver.c ****     if(base_state.firmware_loaded == 1) {
 374              		.loc 1 142 0
 375 0032 A37B     		ldrb	r3, [r4, #14]
 140:.\20648_driver\drivers/inv_mems_base_driver.c **** 
 376              		.loc 1 140 0
 377 0034 0543     		orr	r5, r0
 378              	.LVL33:
 379              		.loc 1 142 0
 380 0036 9B07     		lsl	r3, r3, #30
 381 0038 07D5     		bpl	.L36
 143:.\20648_driver\drivers/inv_mems_base_driver.c ****         base_state.user_ctrl |= BIT_DMP_EN | BIT_FIFO_EN;
 382              		.loc 1 143 0
 383 003a C023     		mov	r3, #192
 384 003c E178     		ldrb	r1, [r4, #3]
 144:.\20648_driver\drivers/inv_mems_base_driver.c ****         result |= inv_write_single_mems_reg(REG_USER_CTRL, base_state.user_ctrl);  
 385              		.loc 1 144 0
 386 003e 0320     		mov	r0, #3
 143:.\20648_driver\drivers/inv_mems_base_driver.c ****         base_state.user_ctrl |= BIT_DMP_EN | BIT_FIFO_EN;
 387              		.loc 1 143 0
 388 0040 1943     		orr	r1, r3
 389 0042 E170     		strb	r1, [r4, #3]
 390              		.loc 1 144 0
 391 0044 FFF7FEFF 		bl	inv_write_single_mems_reg
 392              	.LVL34:
 393 0048 0543     		orr	r5, r0
ARM GAS  C:\Users\ADMINI~1\AppData\Local\Temp\ccA9rFPz.s 			page 11


 394              	.LVL35:
 395              	.L36:
 145:.\20648_driver\drivers/inv_mems_base_driver.c ****     }
 146:.\20648_driver\drivers/inv_mems_base_driver.c **** 
 147:.\20648_driver\drivers/inv_mems_base_driver.c ****     result |= inv_set_chip_power_state(CHIP_LP_ENABLE, 1);
 396              		.loc 1 147 0
 397 004a 0121     		mov	r1, #1
 398 004c 0220     		mov	r0, #2
 399 004e FFF7FEFF 		bl	inv_set_chip_power_state
 400              	.LVL36:
 148:.\20648_driver\drivers/inv_mems_base_driver.c ****     return result;
 149:.\20648_driver\drivers/inv_mems_base_driver.c **** }
 401              		.loc 1 149 0
 402              		@ sp needed
 147:.\20648_driver\drivers/inv_mems_base_driver.c ****     return result;
 403              		.loc 1 147 0
 404 0052 2843     		orr	r0, r5
 405              	.LVL37:
 406              		.loc 1 149 0
 407 0054 3EBD     		pop	{r1, r2, r3, r4, r5, pc}
 408              	.L41:
 409 0056 C046     		.align	2
 410              	.L40:
 411 0058 00000000 		.word	base_state
 412              		.cfi_endproc
 413              	.LFE5:
 414              		.size	inv_wakeup_mems, .-inv_wakeup_mems
 415              		.section	.text.inv_sleep_mems,"ax",%progbits
 416              		.align	1
 417              		.global	inv_sleep_mems
 418              		.code	16
 419              		.thumb_func
 420              		.type	inv_sleep_mems, %function
 421              	inv_sleep_mems:
 422              	.LFB6:
 150:.\20648_driver\drivers/inv_mems_base_driver.c **** 
 151:.\20648_driver\drivers/inv_mems_base_driver.c **** /** Puts DMP3 (MEMS) into the lowest power state. Assumes sensors are all off.
 152:.\20648_driver\drivers/inv_mems_base_driver.c **** */
 153:.\20648_driver\drivers/inv_mems_base_driver.c **** inv_error_t inv_sleep_mems()
 154:.\20648_driver\drivers/inv_mems_base_driver.c **** {
 423              		.loc 1 154 0
 424              		.cfi_startproc
 425 0000 13B5     		push	{r0, r1, r4, lr}
 426              		.cfi_def_cfa_offset 16
 427              		.cfi_offset 0, -16
 428              		.cfi_offset 1, -12
 429              		.cfi_offset 4, -8
 430              		.cfi_offset 14, -4
 155:.\20648_driver\drivers/inv_mems_base_driver.c ****     inv_error_t result;
 156:.\20648_driver\drivers/inv_mems_base_driver.c ****     unsigned char data;
 157:.\20648_driver\drivers/inv_mems_base_driver.c **** 
 158:.\20648_driver\drivers/inv_mems_base_driver.c ****     data = 0x7F;
 431              		.loc 1 158 0
 432 0002 6B46     		mov	r3, sp
 433 0004 DA1D     		add	r2, r3, #7
 434 0006 7F23     		mov	r3, #127
 159:.\20648_driver\drivers/inv_mems_base_driver.c **** 	result = inv_write_mems_reg(REG_PWR_MGMT_2, 1, &data);
ARM GAS  C:\Users\ADMINI~1\AppData\Local\Temp\ccA9rFPz.s 			page 12


 435              		.loc 1 159 0
 436 0008 0121     		mov	r1, #1
 437 000a 0720     		mov	r0, #7
 158:.\20648_driver\drivers/inv_mems_base_driver.c **** 	result = inv_write_mems_reg(REG_PWR_MGMT_2, 1, &data);
 438              		.loc 1 158 0
 439 000c 1370     		strb	r3, [r2]
 440              		.loc 1 159 0
 441 000e FFF7FEFF 		bl	inv_write_mems_reg
 442              	.LVL38:
 160:.\20648_driver\drivers/inv_mems_base_driver.c **** 
 161:.\20648_driver\drivers/inv_mems_base_driver.c ****     result |= inv_set_chip_power_state(CHIP_AWAKE, 0);
 443              		.loc 1 161 0
 444 0012 0021     		mov	r1, #0
 159:.\20648_driver\drivers/inv_mems_base_driver.c **** 
 445              		.loc 1 159 0
 446 0014 041C     		mov	r4, r0
 447              	.LVL39:
 448              		.loc 1 161 0
 449 0016 0120     		mov	r0, #1
 450              	.LVL40:
 451 0018 FFF7FEFF 		bl	inv_set_chip_power_state
 452              	.LVL41:
 162:.\20648_driver\drivers/inv_mems_base_driver.c **** 
 163:.\20648_driver\drivers/inv_mems_base_driver.c ****     return result;
 164:.\20648_driver\drivers/inv_mems_base_driver.c **** }
 453              		.loc 1 164 0
 454              		@ sp needed
 161:.\20648_driver\drivers/inv_mems_base_driver.c **** 
 455              		.loc 1 161 0
 456 001c 2043     		orr	r0, r4
 457              	.LVL42:
 458              		.loc 1 164 0
 459 001e 16BD     		pop	{r1, r2, r4, pc}
 460              		.cfi_endproc
 461              	.LFE6:
 462              		.size	inv_sleep_mems, .-inv_sleep_mems
 463              		.section	.text.inv_set_dmp_address,"ax",%progbits
 464              		.align	1
 465              		.global	inv_set_dmp_address
 466              		.code	16
 467              		.thumb_func
 468              		.type	inv_set_dmp_address, %function
 469              	inv_set_dmp_address:
 470              	.LFB7:
 165:.\20648_driver\drivers/inv_mems_base_driver.c **** 
 166:.\20648_driver\drivers/inv_mems_base_driver.c **** inv_error_t inv_set_dmp_address()
 167:.\20648_driver\drivers/inv_mems_base_driver.c **** {
 471              		.loc 1 167 0
 472              		.cfi_startproc
 168:.\20648_driver\drivers/inv_mems_base_driver.c **** 	inv_error_t result;
 169:.\20648_driver\drivers/inv_mems_base_driver.c ****     unsigned char dmp_cfg[2] = {0};
 473              		.loc 1 169 0
 474 0000 0023     		mov	r3, #0
 167:.\20648_driver\drivers/inv_mems_base_driver.c **** 	inv_error_t result;
 475              		.loc 1 167 0
 476 0002 37B5     		push	{r0, r1, r2, r4, r5, lr}
 477              		.cfi_def_cfa_offset 24
ARM GAS  C:\Users\ADMINI~1\AppData\Local\Temp\ccA9rFPz.s 			page 13


 478              		.cfi_offset 0, -24
 479              		.cfi_offset 1, -20
 480              		.cfi_offset 2, -16
 481              		.cfi_offset 4, -12
 482              		.cfi_offset 5, -8
 483              		.cfi_offset 14, -4
 484              		.loc 1 169 0
 485 0004 01AC     		add	r4, sp, #4
 486 0006 2380     		strh	r3, [r4]
 170:.\20648_driver\drivers/inv_mems_base_driver.c **** 	unsigned short config;
 171:.\20648_driver\drivers/inv_mems_base_driver.c ****     
 172:.\20648_driver\drivers/inv_mems_base_driver.c **** 	// Write DMP Start address
 173:.\20648_driver\drivers/inv_mems_base_driver.c **** 	inv_get_dmp_start_address(&config);
 487              		.loc 1 173 0
 488 0008 6B46     		mov	r3, sp
 489 000a 9D1D     		add	r5, r3, #6
 490 000c 281C     		mov	r0, r5
 491 000e FFF7FEFF 		bl	inv_get_dmp_start_address
 492              	.LVL43:
 174:.\20648_driver\drivers/inv_mems_base_driver.c **** 	/* setup DMP start address and firmware */
 175:.\20648_driver\drivers/inv_mems_base_driver.c **** 	dmp_cfg[0] = (unsigned char)((config >> 8) & 0xff);
 176:.\20648_driver\drivers/inv_mems_base_driver.c **** 	dmp_cfg[1] = (unsigned char)(config & 0xff);
 177:.\20648_driver\drivers/inv_mems_base_driver.c ****     
 178:.\20648_driver\drivers/inv_mems_base_driver.c **** 	result = inv_write_mems_reg(REG_PRGM_START_ADDRH, 2, dmp_cfg);
 493              		.loc 1 178 0
 494 0012 A820     		mov	r0, #168
 175:.\20648_driver\drivers/inv_mems_base_driver.c **** 	dmp_cfg[1] = (unsigned char)(config & 0xff);
 495              		.loc 1 175 0
 496 0014 2B88     		ldrh	r3, [r5]
 497              		.loc 1 178 0
 498 0016 0221     		mov	r1, #2
 175:.\20648_driver\drivers/inv_mems_base_driver.c **** 	dmp_cfg[1] = (unsigned char)(config & 0xff);
 499              		.loc 1 175 0
 500 0018 1A0A     		lsr	r2, r3, #8
 501 001a 2270     		strb	r2, [r4]
 502              		.loc 1 178 0
 503 001c 4000     		lsl	r0, r0, #1
 504 001e 221C     		mov	r2, r4
 176:.\20648_driver\drivers/inv_mems_base_driver.c ****     
 505              		.loc 1 176 0
 506 0020 6370     		strb	r3, [r4, #1]
 179:.\20648_driver\drivers/inv_mems_base_driver.c **** 	return result;
 180:.\20648_driver\drivers/inv_mems_base_driver.c **** }
 507              		.loc 1 180 0
 508              		@ sp needed
 178:.\20648_driver\drivers/inv_mems_base_driver.c **** 	return result;
 509              		.loc 1 178 0
 510 0022 FFF7FEFF 		bl	inv_write_mems_reg
 511              	.LVL44:
 512              		.loc 1 180 0
 513 0026 3EBD     		pop	{r1, r2, r3, r4, r5, pc}
 514              		.cfi_endproc
 515              	.LFE7:
 516              		.size	inv_set_dmp_address, .-inv_set_dmp_address
 517              		.section	.text.inv_set_secondary,"ax",%progbits
 518              		.align	1
 519              		.global	inv_set_secondary
ARM GAS  C:\Users\ADMINI~1\AppData\Local\Temp\ccA9rFPz.s 			page 14


 520              		.code	16
 521              		.thumb_func
 522              		.type	inv_set_secondary, %function
 523              	inv_set_secondary:
 524              	.LFB8:
 181:.\20648_driver\drivers/inv_mems_base_driver.c **** 
 182:.\20648_driver\drivers/inv_mems_base_driver.c **** /**
 183:.\20648_driver\drivers/inv_mems_base_driver.c **** *  @brief      Set up the secondary I2C bus on 20630.
 184:.\20648_driver\drivers/inv_mems_base_driver.c **** *  @param[in]  MPU state varible
 185:.\20648_driver\drivers/inv_mems_base_driver.c **** *  @return     0 if successful.
 186:.\20648_driver\drivers/inv_mems_base_driver.c **** */
 187:.\20648_driver\drivers/inv_mems_base_driver.c **** 
 188:.\20648_driver\drivers/inv_mems_base_driver.c **** inv_error_t inv_set_secondary()
 189:.\20648_driver\drivers/inv_mems_base_driver.c **** {
 525              		.loc 1 189 0
 526              		.cfi_startproc
 527              	.LVL45:
 190:.\20648_driver\drivers/inv_mems_base_driver.c **** 	inv_error_t r = 0;
 528              		.loc 1 190 0
 529 0000 0020     		mov	r0, #0
 189:.\20648_driver\drivers/inv_mems_base_driver.c **** 	inv_error_t r = 0;
 530              		.loc 1 189 0
 531 0002 38B5     		push	{r3, r4, r5, lr}
 532              		.cfi_def_cfa_offset 16
 533              		.cfi_offset 3, -16
 534              		.cfi_offset 4, -12
 535              		.cfi_offset 5, -8
 536              		.cfi_offset 14, -4
 191:.\20648_driver\drivers/inv_mems_base_driver.c ****     static uint8_t lIsInited = 0;
 192:.\20648_driver\drivers/inv_mems_base_driver.c **** 
 193:.\20648_driver\drivers/inv_mems_base_driver.c ****     if(lIsInited == 0)
 537              		.loc 1 193 0
 538 0004 094D     		ldr	r5, .L47
 539 0006 2B78     		ldrb	r3, [r5]
 540 0008 8342     		cmp	r3, r0
 541 000a 0DD1     		bne	.L45
 194:.\20648_driver\drivers/inv_mems_base_driver.c ****     {
 195:.\20648_driver\drivers/inv_mems_base_driver.c ****         r = inv_write_single_mems_reg(REG_I2C_MST_CTRL, BIT_I2C_MST_P_NSR);
 542              		.loc 1 195 0
 543 000c 8220     		mov	r0, #130
 544 000e 1021     		mov	r1, #16
 545 0010 FF30     		add	r0, r0, #255
 546 0012 FFF7FEFF 		bl	inv_write_single_mems_reg
 547              	.LVL46:
 548 0016 041C     		mov	r4, r0
 549              	.LVL47:
 196:.\20648_driver\drivers/inv_mems_base_driver.c **** 
 197:.\20648_driver\drivers/inv_mems_base_driver.c ****         r |= inv_write_single_mems_reg(REG_I2C_MST_ODR_CONFIG, MIN_MST_ODR_CONFIG);
 550              		.loc 1 197 0
 551 0018 C020     		mov	r0, #192
 552              	.LVL48:
 553 001a 0421     		mov	r1, #4
 554 001c 4000     		lsl	r0, r0, #1
 555 001e FFF7FEFF 		bl	inv_write_single_mems_reg
 556              	.LVL49:
 198:.\20648_driver\drivers/inv_mems_base_driver.c ****         
 199:.\20648_driver\drivers/inv_mems_base_driver.c ****         lIsInited = 1;
ARM GAS  C:\Users\ADMINI~1\AppData\Local\Temp\ccA9rFPz.s 			page 15


 557              		.loc 1 199 0
 558 0022 0123     		mov	r3, #1
 197:.\20648_driver\drivers/inv_mems_base_driver.c ****         
 559              		.loc 1 197 0
 560 0024 2043     		orr	r0, r4
 561              	.LVL50:
 562              		.loc 1 199 0
 563 0026 2B70     		strb	r3, [r5]
 564              	.LVL51:
 565              	.L45:
 200:.\20648_driver\drivers/inv_mems_base_driver.c ****     }
 201:.\20648_driver\drivers/inv_mems_base_driver.c **** 	return r;
 202:.\20648_driver\drivers/inv_mems_base_driver.c **** }
 566              		.loc 1 202 0
 567              		@ sp needed
 568 0028 38BD     		pop	{r3, r4, r5, pc}
 569              	.L48:
 570 002a C046     		.align	2
 571              	.L47:
 572 002c 00000000 		.word	.LANCHOR1
 573              		.cfi_endproc
 574              	.LFE8:
 575              		.size	inv_set_secondary, .-inv_set_secondary
 576              		.section	.text.inv_set_gyro_divider,"ax",%progbits
 577              		.align	1
 578              		.global	inv_set_gyro_divider
 579              		.code	16
 580              		.thumb_func
 581              		.type	inv_set_gyro_divider, %function
 582              	inv_set_gyro_divider:
 583              	.LFB10:
 203:.\20648_driver\drivers/inv_mems_base_driver.c **** 
 204:.\20648_driver\drivers/inv_mems_base_driver.c **** /** Should be called once on power up. Loads DMP3, initializes internal variables needed 
 205:.\20648_driver\drivers/inv_mems_base_driver.c **** *   for other lower driver functions.
 206:.\20648_driver\drivers/inv_mems_base_driver.c **** */
 207:.\20648_driver\drivers/inv_mems_base_driver.c **** inv_error_t inv_initialize_lower_driver(enum MEMS_SERIAL_INTERFACE type, const unsigned char *dmp_i
 208:.\20648_driver\drivers/inv_mems_base_driver.c **** {
 209:.\20648_driver\drivers/inv_mems_base_driver.c ****     inv_error_t result = 0;
 210:.\20648_driver\drivers/inv_mems_base_driver.c ****     static unsigned char data;
 211:.\20648_driver\drivers/inv_mems_base_driver.c **** 	unsigned char WhoAmI = 0;
 212:.\20648_driver\drivers/inv_mems_base_driver.c **** 
 213:.\20648_driver\drivers/inv_mems_base_driver.c ****     // Set varialbes to default values
 214:.\20648_driver\drivers/inv_mems_base_driver.c ****     memset(&base_state, 0, sizeof(base_state));
 215:.\20648_driver\drivers/inv_mems_base_driver.c ****     base_state.pwr_mgmt_1 = BIT_CLK_PLL;
 216:.\20648_driver\drivers/inv_mems_base_driver.c ****     base_state.pwr_mgmt_2 = BIT_PWR_ACCEL_STBY | BIT_PWR_GYRO_STBY | BIT_PWR_PRESSURE_STBY;
 217:.\20648_driver\drivers/inv_mems_base_driver.c ****     base_state.serial_interface = type;
 218:.\20648_driver\drivers/inv_mems_base_driver.c ****     result |= inv_read_mems_reg(REG_WHO_AM_I, 1, &WhoAmI);
 219:.\20648_driver\drivers/inv_mems_base_driver.c ****     result |= inv_read_mems_reg(REG_USER_CTRL, 1, &base_state.user_ctrl);
 220:.\20648_driver\drivers/inv_mems_base_driver.c **** 
 221:.\20648_driver\drivers/inv_mems_base_driver.c ****     result |= inv_wakeup_mems();
 222:.\20648_driver\drivers/inv_mems_base_driver.c **** 
 223:.\20648_driver\drivers/inv_mems_base_driver.c **** #if defined MEMS_SECONDARY_DEVICE
 224:.\20648_driver\drivers/inv_mems_base_driver.c **** 	/* secondary cycle mode should be set all the time */
 225:.\20648_driver\drivers/inv_mems_base_driver.c **** 	data = BIT_I2C_MST_CYCLE|BIT_ACCEL_CYCLE|BIT_GYRO_CYCLE;
 226:.\20648_driver\drivers/inv_mems_base_driver.c **** #else
 227:.\20648_driver\drivers/inv_mems_base_driver.c **** 	data = BIT_ACCEL_CYCLE|BIT_GYRO_CYCLE;
 228:.\20648_driver\drivers/inv_mems_base_driver.c **** #endif
ARM GAS  C:\Users\ADMINI~1\AppData\Local\Temp\ccA9rFPz.s 			page 16


 229:.\20648_driver\drivers/inv_mems_base_driver.c **** 	result |= inv_write_mems_reg(REG_LP_CONFIG, 1, &data);
 230:.\20648_driver\drivers/inv_mems_base_driver.c **** 
 231:.\20648_driver\drivers/inv_mems_base_driver.c **** 	// Disable Ivory DMP.
 232:.\20648_driver\drivers/inv_mems_base_driver.c ****     if(base_state.serial_interface == SERIAL_INTERFACE_SPI)   
 233:.\20648_driver\drivers/inv_mems_base_driver.c **** 	    base_state.user_ctrl = BIT_I2C_IF_DIS;
 234:.\20648_driver\drivers/inv_mems_base_driver.c ****     else
 235:.\20648_driver\drivers/inv_mems_base_driver.c **** 	    base_state.user_ctrl = 0;
 236:.\20648_driver\drivers/inv_mems_base_driver.c **** 
 237:.\20648_driver\drivers/inv_mems_base_driver.c ****     result |= inv_write_single_mems_reg(REG_USER_CTRL, base_state.user_ctrl);
 238:.\20648_driver\drivers/inv_mems_base_driver.c **** 
 239:.\20648_driver\drivers/inv_mems_base_driver.c **** 	//Setup Ivory DMP.
 240:.\20648_driver\drivers/inv_mems_base_driver.c ****     result |= inv_load_firmware(dmp_image_sram);
 241:.\20648_driver\drivers/inv_mems_base_driver.c ****     
 242:.\20648_driver\drivers/inv_mems_base_driver.c **** 	if(result)
 243:.\20648_driver\drivers/inv_mems_base_driver.c **** 	{
 244:.\20648_driver\drivers/inv_mems_base_driver.c **** 		return result;
 245:.\20648_driver\drivers/inv_mems_base_driver.c **** 	}
 246:.\20648_driver\drivers/inv_mems_base_driver.c ****     else
 247:.\20648_driver\drivers/inv_mems_base_driver.c **** 	{
 248:.\20648_driver\drivers/inv_mems_base_driver.c ****         base_state.firmware_loaded = 1;
 249:.\20648_driver\drivers/inv_mems_base_driver.c **** 	}
 250:.\20648_driver\drivers/inv_mems_base_driver.c ****     
 251:.\20648_driver\drivers/inv_mems_base_driver.c **** 	result |= inv_set_dmp_address();
 252:.\20648_driver\drivers/inv_mems_base_driver.c ****     // Turn off all sensors on DMP by default.
 253:.\20648_driver\drivers/inv_mems_base_driver.c **** 	//result |= dmp_set_data_output_control1(0);   // FIXME in DMP, these should be off by default.
 254:.\20648_driver\drivers/inv_mems_base_driver.c **** 	result |= dmp_reset_control_registers();
 255:.\20648_driver\drivers/inv_mems_base_driver.c **** 	
 256:.\20648_driver\drivers/inv_mems_base_driver.c **** 	// set FIFO watermark to 80% of actual FIFO size
 257:.\20648_driver\drivers/inv_mems_base_driver.c **** 	result |= dmp_set_FIFO_watermark(800);
 258:.\20648_driver\drivers/inv_mems_base_driver.c **** 
 259:.\20648_driver\drivers/inv_mems_base_driver.c ****     // Enable Interrupts.
 260:.\20648_driver\drivers/inv_mems_base_driver.c ****     data = 0x2;
 261:.\20648_driver\drivers/inv_mems_base_driver.c ****     result |= inv_write_mems_reg(REG_INT_ENABLE, 1, &data); // Enable DMP Interrupt
 262:.\20648_driver\drivers/inv_mems_base_driver.c ****     data = 0x1;
 263:.\20648_driver\drivers/inv_mems_base_driver.c ****     result |= inv_write_mems_reg(REG_INT_ENABLE_2, 1, &data); // Enable FIFO Overflow Interrupt
 264:.\20648_driver\drivers/inv_mems_base_driver.c **** 
 265:.\20648_driver\drivers/inv_mems_base_driver.c ****     
 266:.\20648_driver\drivers/inv_mems_base_driver.c **** 
 267:.\20648_driver\drivers/inv_mems_base_driver.c **** #if (MEMS_CHIP == HW_ICM20648)
 268:.\20648_driver\drivers/inv_mems_base_driver.c **** 	// TRACKING : To have accelerometers datas and the interrupt without gyro enables.
 269:.\20648_driver\drivers/inv_mems_base_driver.c **** 	data = 0XE4;
 270:.\20648_driver\drivers/inv_mems_base_driver.c ****     result |= inv_write_mems_reg(REG_SINGLE_FIFO_PRIORITY_SEL, 1, &data);
 271:.\20648_driver\drivers/inv_mems_base_driver.c **** 
 272:.\20648_driver\drivers/inv_mems_base_driver.c **** 	// Disable HW temp fix
 273:.\20648_driver\drivers/inv_mems_base_driver.c **** 	inv_read_mems_reg(REG_HW_FIX_DISABLE,1,&data);
 274:.\20648_driver\drivers/inv_mems_base_driver.c **** 	data |= 0x08;
 275:.\20648_driver\drivers/inv_mems_base_driver.c **** 	inv_write_mems_reg(REG_HW_FIX_DISABLE,1,&data);
 276:.\20648_driver\drivers/inv_mems_base_driver.c **** #endif
 277:.\20648_driver\drivers/inv_mems_base_driver.c **** 
 278:.\20648_driver\drivers/inv_mems_base_driver.c **** 	// Setup MEMs properties.
 279:.\20648_driver\drivers/inv_mems_base_driver.c ****     base_state.accel_averaging = 1; //Change this value if higher sensor sample avergaing is requir
 280:.\20648_driver\drivers/inv_mems_base_driver.c ****     base_state.gyro_averaging = 1;  //Change this value if higher sensor sample avergaing is requir
 281:.\20648_driver\drivers/inv_mems_base_driver.c **** 	inv_set_gyro_divider(FIFO_DIVIDER);       //Initial sampling rate 1125Hz/10+1 = 102Hz.
 282:.\20648_driver\drivers/inv_mems_base_driver.c ****     inv_set_accel_divider(FIFO_DIVIDER);      //Initial sampling rate 1125Hz/10+1 = 102Hz.
 283:.\20648_driver\drivers/inv_mems_base_driver.c **** 	result |= inv_set_gyro_fullscale(MPU_FS_2000dps);
 284:.\20648_driver\drivers/inv_mems_base_driver.c **** 	result |= inv_set_accel_fullscale(MPU_FS_2G);
 285:.\20648_driver\drivers/inv_mems_base_driver.c **** 
ARM GAS  C:\Users\ADMINI~1\AppData\Local\Temp\ccA9rFPz.s 			page 17


 286:.\20648_driver\drivers/inv_mems_base_driver.c ****     // FIFO Setup.
 287:.\20648_driver\drivers/inv_mems_base_driver.c ****     result |= inv_write_single_mems_reg(REG_FIFO_CFG, BIT_SINGLE_FIFO_CFG); // FIFO Config. fixme d
 288:.\20648_driver\drivers/inv_mems_base_driver.c ****     result |= inv_write_single_mems_reg(REG_FIFO_RST, 0x1f); // Reset all FIFOs.
 289:.\20648_driver\drivers/inv_mems_base_driver.c ****     result |= inv_write_single_mems_reg(REG_FIFO_RST, 0x1e); // Keep all but Gyro FIFO in reset.
 290:.\20648_driver\drivers/inv_mems_base_driver.c ****     result |= inv_write_single_mems_reg(REG_FIFO_EN, 0x0); // Slave FIFO turned off.
 291:.\20648_driver\drivers/inv_mems_base_driver.c ****     result |= inv_write_single_mems_reg(REG_FIFO_EN_2, 0x0); // Hardware FIFO turned off.
 292:.\20648_driver\drivers/inv_mems_base_driver.c ****     
 293:.\20648_driver\drivers/inv_mems_base_driver.c **** 	result |= inv_read_mems(MPU_SOFT_UPDT_ADDR, 1, &data);
 294:.\20648_driver\drivers/inv_mems_base_driver.c **** #if (MEMS_CHIP == HW_ICM20648)
 295:.\20648_driver\drivers/inv_mems_base_driver.c **** 	// Check board version
 296:.\20648_driver\drivers/inv_mems_base_driver.c **** 	if (data & 0x8)
 297:.\20648_driver\drivers/inv_mems_base_driver.c **** 		return INV_ERROR_INVALID_CONFIGURATION;
 298:.\20648_driver\drivers/inv_mems_base_driver.c **** #endif
 299:.\20648_driver\drivers/inv_mems_base_driver.c **** 
 300:.\20648_driver\drivers/inv_mems_base_driver.c ****         base_state.lp_en_support = 1;
 301:.\20648_driver\drivers/inv_mems_base_driver.c **** 	
 302:.\20648_driver\drivers/inv_mems_base_driver.c **** #if (MEMS_CHIP == HW_ICM30630 || MEMS_CHIP == HW_ICM20645_E)
 303:.\20648_driver\drivers/inv_mems_base_driver.c **** 	// Check LP_EN support.
 304:.\20648_driver\drivers/inv_mems_base_driver.c **** 	data &= MPU_SOFT_UPTD_MASK;
 305:.\20648_driver\drivers/inv_mems_base_driver.c **** 	if (data != 0x04)
 306:.\20648_driver\drivers/inv_mems_base_driver.c **** 		base_state.lp_en_support = 0;
 307:.\20648_driver\drivers/inv_mems_base_driver.c **** #endif
 308:.\20648_driver\drivers/inv_mems_base_driver.c **** 	if(base_state.lp_en_support == 1)
 309:.\20648_driver\drivers/inv_mems_base_driver.c **** 		inv_set_chip_power_state(CHIP_LP_ENABLE, 1);
 310:.\20648_driver\drivers/inv_mems_base_driver.c **** 
 311:.\20648_driver\drivers/inv_mems_base_driver.c ****     result |= inv_sleep_mems();   
 312:.\20648_driver\drivers/inv_mems_base_driver.c ****         
 313:.\20648_driver\drivers/inv_mems_base_driver.c ****     return result;
 314:.\20648_driver\drivers/inv_mems_base_driver.c **** }
 315:.\20648_driver\drivers/inv_mems_base_driver.c **** 
 316:.\20648_driver\drivers/inv_mems_base_driver.c **** #if defined MEMS_SECONDARY_DEVICE
 317:.\20648_driver\drivers/inv_mems_base_driver.c **** 
 318:.\20648_driver\drivers/inv_mems_base_driver.c **** static void activate_compass(void)
 319:.\20648_driver\drivers/inv_mems_base_driver.c **** {
 320:.\20648_driver\drivers/inv_mems_base_driver.c **** 	s_compass_available = 1;
 321:.\20648_driver\drivers/inv_mems_base_driver.c **** }
 322:.\20648_driver\drivers/inv_mems_base_driver.c **** 
 323:.\20648_driver\drivers/inv_mems_base_driver.c **** static void desactivate_compass(void)
 324:.\20648_driver\drivers/inv_mems_base_driver.c **** {
 325:.\20648_driver\drivers/inv_mems_base_driver.c **** 	s_compass_available = 0;
 326:.\20648_driver\drivers/inv_mems_base_driver.c **** }
 327:.\20648_driver\drivers/inv_mems_base_driver.c **** 
 328:.\20648_driver\drivers/inv_mems_base_driver.c **** int inv_mems_get_compass_availability(void)
 329:.\20648_driver\drivers/inv_mems_base_driver.c **** {
 330:.\20648_driver\drivers/inv_mems_base_driver.c **** 	return s_compass_available;
 331:.\20648_driver\drivers/inv_mems_base_driver.c **** }
 332:.\20648_driver\drivers/inv_mems_base_driver.c **** 
 333:.\20648_driver\drivers/inv_mems_base_driver.c **** static void activate_pressure(void)
 334:.\20648_driver\drivers/inv_mems_base_driver.c **** {
 335:.\20648_driver\drivers/inv_mems_base_driver.c **** 	s_pressure_available = 1;
 336:.\20648_driver\drivers/inv_mems_base_driver.c **** }
 337:.\20648_driver\drivers/inv_mems_base_driver.c **** 
 338:.\20648_driver\drivers/inv_mems_base_driver.c **** static void desactivate_pressure(void)
 339:.\20648_driver\drivers/inv_mems_base_driver.c **** {
 340:.\20648_driver\drivers/inv_mems_base_driver.c **** 	s_pressure_available = 0;
 341:.\20648_driver\drivers/inv_mems_base_driver.c **** }
 342:.\20648_driver\drivers/inv_mems_base_driver.c **** 
ARM GAS  C:\Users\ADMINI~1\AppData\Local\Temp\ccA9rFPz.s 			page 18


 343:.\20648_driver\drivers/inv_mems_base_driver.c **** int inv_mems_get_pressure_availability(void)
 344:.\20648_driver\drivers/inv_mems_base_driver.c **** {
 345:.\20648_driver\drivers/inv_mems_base_driver.c **** 	return s_pressure_available;
 346:.\20648_driver\drivers/inv_mems_base_driver.c **** }
 347:.\20648_driver\drivers/inv_mems_base_driver.c **** 
 348:.\20648_driver\drivers/inv_mems_base_driver.c **** inv_error_t inv_set_slave_compass_id(int id)
 349:.\20648_driver\drivers/inv_mems_base_driver.c **** {
 350:.\20648_driver\drivers/inv_mems_base_driver.c **** 	inv_error_t result = 0;
 351:.\20648_driver\drivers/inv_mems_base_driver.c **** 
 352:.\20648_driver\drivers/inv_mems_base_driver.c **** 	//result = inv_wakeup_mems();
 353:.\20648_driver\drivers/inv_mems_base_driver.c **** 	//if (result)
 354:.\20648_driver\drivers/inv_mems_base_driver.c **** 	//	return result;
 355:.\20648_driver\drivers/inv_mems_base_driver.c **** 		
 356:.\20648_driver\drivers/inv_mems_base_driver.c **** 	inv_mems_prevent_lpen_control();
 357:.\20648_driver\drivers/inv_mems_base_driver.c **** 	activate_compass();
 358:.\20648_driver\drivers/inv_mems_base_driver.c **** 	
 359:.\20648_driver\drivers/inv_mems_base_driver.c **** 	inv_init_secondary();
 360:.\20648_driver\drivers/inv_mems_base_driver.c **** 
 361:.\20648_driver\drivers/inv_mems_base_driver.c **** 	// Set up the secondary I2C bus on 20630.
 362:.\20648_driver\drivers/inv_mems_base_driver.c **** 	inv_set_secondary();
 363:.\20648_driver\drivers/inv_mems_base_driver.c **** 
 364:.\20648_driver\drivers/inv_mems_base_driver.c **** 	//Setup Compass
 365:.\20648_driver\drivers/inv_mems_base_driver.c **** 	result = inv_setup_compass_akm();
 366:.\20648_driver\drivers/inv_mems_base_driver.c **** 
 367:.\20648_driver\drivers/inv_mems_base_driver.c **** 	//Setup Compass mounting matrix into DMP
 368:.\20648_driver\drivers/inv_mems_base_driver.c **** 	result |= inv_compass_dmp_cal(ACCEL_GYRO_ORIENTATION, COMPASS_ORIENTATION);
 369:.\20648_driver\drivers/inv_mems_base_driver.c **** 	
 370:.\20648_driver\drivers/inv_mems_base_driver.c **** 	if (result)
 371:.\20648_driver\drivers/inv_mems_base_driver.c **** 		desactivate_compass();
 372:.\20648_driver\drivers/inv_mems_base_driver.c **** 
 373:.\20648_driver\drivers/inv_mems_base_driver.c **** 	//result = inv_sleep_mems();
 374:.\20648_driver\drivers/inv_mems_base_driver.c **** 	inv_mems_allow_lpen_control();
 375:.\20648_driver\drivers/inv_mems_base_driver.c **** 	return result;
 376:.\20648_driver\drivers/inv_mems_base_driver.c **** }
 377:.\20648_driver\drivers/inv_mems_base_driver.c **** 
 378:.\20648_driver\drivers/inv_mems_base_driver.c **** inv_error_t inv_set_slave_pressure_id(void)
 379:.\20648_driver\drivers/inv_mems_base_driver.c **** {
 380:.\20648_driver\drivers/inv_mems_base_driver.c **** 	inv_error_t result = 0;
 381:.\20648_driver\drivers/inv_mems_base_driver.c **** 
 382:.\20648_driver\drivers/inv_mems_base_driver.c **** 	//result = inv_wakeup_mems();
 383:.\20648_driver\drivers/inv_mems_base_driver.c **** 	//if (result)
 384:.\20648_driver\drivers/inv_mems_base_driver.c **** 	//	return result;
 385:.\20648_driver\drivers/inv_mems_base_driver.c **** 	
 386:.\20648_driver\drivers/inv_mems_base_driver.c **** 	inv_mems_prevent_lpen_control();
 387:.\20648_driver\drivers/inv_mems_base_driver.c **** 	activate_pressure();
 388:.\20648_driver\drivers/inv_mems_base_driver.c **** 	
 389:.\20648_driver\drivers/inv_mems_base_driver.c **** 	inv_init_secondary();
 390:.\20648_driver\drivers/inv_mems_base_driver.c **** 
 391:.\20648_driver\drivers/inv_mems_base_driver.c **** 	// Set up the secondary I2C bus on 20630.
 392:.\20648_driver\drivers/inv_mems_base_driver.c **** 	inv_set_secondary();
 393:.\20648_driver\drivers/inv_mems_base_driver.c **** 
 394:.\20648_driver\drivers/inv_mems_base_driver.c **** 	//Setup Compass
 395:.\20648_driver\drivers/inv_mems_base_driver.c **** 	result = inv_mems_pressure_setup_bmp();
 396:.\20648_driver\drivers/inv_mems_base_driver.c **** 	
 397:.\20648_driver\drivers/inv_mems_base_driver.c **** 	if (result)
 398:.\20648_driver\drivers/inv_mems_base_driver.c **** 		desactivate_pressure();
 399:.\20648_driver\drivers/inv_mems_base_driver.c **** 
ARM GAS  C:\Users\ADMINI~1\AppData\Local\Temp\ccA9rFPz.s 			page 19


 400:.\20648_driver\drivers/inv_mems_base_driver.c **** 	//result = inv_sleep_mems();
 401:.\20648_driver\drivers/inv_mems_base_driver.c **** 	inv_mems_allow_lpen_control();
 402:.\20648_driver\drivers/inv_mems_base_driver.c **** 	return result;
 403:.\20648_driver\drivers/inv_mems_base_driver.c **** }
 404:.\20648_driver\drivers/inv_mems_base_driver.c **** #endif
 405:.\20648_driver\drivers/inv_mems_base_driver.c **** 
 406:.\20648_driver\drivers/inv_mems_base_driver.c **** inv_error_t inv_set_gyro_divider(unsigned char div)
 407:.\20648_driver\drivers/inv_mems_base_driver.c **** {
 584              		.loc 1 407 0
 585              		.cfi_startproc
 586              	.LVL52:
 587 0000 07B5     		push	{r0, r1, r2, lr}
 588              		.cfi_def_cfa_offset 16
 589              		.cfi_offset 0, -16
 590              		.cfi_offset 1, -12
 591              		.cfi_offset 2, -8
 592              		.cfi_offset 14, -4
 593              		.loc 1 407 0
 594 0002 6B46     		mov	r3, sp
 595 0004 DA1D     		add	r2, r3, #7
 408:.\20648_driver\drivers/inv_mems_base_driver.c ****     base_state.gyro_div = div;
 596              		.loc 1 408 0
 597 0006 044B     		ldr	r3, .L50
 407:.\20648_driver\drivers/inv_mems_base_driver.c ****     base_state.gyro_div = div;
 598              		.loc 1 407 0
 599 0008 1070     		strb	r0, [r2]
 600              		.loc 1 408 0
 601 000a 1871     		strb	r0, [r3, #4]
 409:.\20648_driver\drivers/inv_mems_base_driver.c ****     return inv_write_mems_reg(REG_GYRO_SMPLRT_DIV, 1, &div);
 602              		.loc 1 409 0
 603 000c 8020     		mov	r0, #128
 604              	.LVL53:
 605 000e 0121     		mov	r1, #1
 606 0010 4000     		lsl	r0, r0, #1
 607 0012 FFF7FEFF 		bl	inv_write_mems_reg
 608              	.LVL54:
 410:.\20648_driver\drivers/inv_mems_base_driver.c **** }
 609              		.loc 1 410 0
 610              		@ sp needed
 611 0016 0EBD     		pop	{r1, r2, r3, pc}
 612              	.L51:
 613              		.align	2
 614              	.L50:
 615 0018 00000000 		.word	base_state
 616              		.cfi_endproc
 617              	.LFE10:
 618              		.size	inv_set_gyro_divider, .-inv_set_gyro_divider
 619              		.section	.text.inv_get_gyro_divider,"ax",%progbits
 620              		.align	1
 621              		.global	inv_get_gyro_divider
 622              		.code	16
 623              		.thumb_func
 624              		.type	inv_get_gyro_divider, %function
 625              	inv_get_gyro_divider:
 626              	.LFB11:
 411:.\20648_driver\drivers/inv_mems_base_driver.c **** 
 412:.\20648_driver\drivers/inv_mems_base_driver.c **** unsigned char inv_get_gyro_divider()
ARM GAS  C:\Users\ADMINI~1\AppData\Local\Temp\ccA9rFPz.s 			page 20


 413:.\20648_driver\drivers/inv_mems_base_driver.c **** {
 627              		.loc 1 413 0
 628              		.cfi_startproc
 414:.\20648_driver\drivers/inv_mems_base_driver.c ****     return base_state.gyro_div;
 629              		.loc 1 414 0
 630 0000 014B     		ldr	r3, .L53
 415:.\20648_driver\drivers/inv_mems_base_driver.c **** }
 631              		.loc 1 415 0
 632              		@ sp needed
 414:.\20648_driver\drivers/inv_mems_base_driver.c ****     return base_state.gyro_div;
 633              		.loc 1 414 0
 634 0002 1879     		ldrb	r0, [r3, #4]
 635              		.loc 1 415 0
 636 0004 7047     		bx	lr
 637              	.L54:
 638 0006 C046     		.align	2
 639              	.L53:
 640 0008 00000000 		.word	base_state
 641              		.cfi_endproc
 642              	.LFE11:
 643              		.size	inv_get_gyro_divider, .-inv_get_gyro_divider
 644              		.section	.text.inv_set_secondary_divider,"ax",%progbits
 645              		.align	1
 646              		.global	inv_set_secondary_divider
 647              		.code	16
 648              		.thumb_func
 649              		.type	inv_set_secondary_divider, %function
 650              	inv_set_secondary_divider:
 651              	.LFB12:
 416:.\20648_driver\drivers/inv_mems_base_driver.c **** 
 417:.\20648_driver\drivers/inv_mems_base_driver.c **** inv_error_t inv_set_secondary_divider(unsigned char div)
 418:.\20648_driver\drivers/inv_mems_base_driver.c **** {
 652              		.loc 1 418 0
 653              		.cfi_startproc
 654              	.LVL55:
 655 0000 08B5     		push	{r3, lr}
 656              		.cfi_def_cfa_offset 8
 657              		.cfi_offset 3, -8
 658              		.cfi_offset 14, -4
 419:.\20648_driver\drivers/inv_mems_base_driver.c ****     base_state.secondary_div = 1UL<<div;
 659              		.loc 1 419 0
 660 0002 0123     		mov	r3, #1
 418:.\20648_driver\drivers/inv_mems_base_driver.c ****     base_state.secondary_div = 1UL<<div;
 661              		.loc 1 418 0
 662 0004 011C     		mov	r1, r0
 663              		.loc 1 419 0
 664 0006 8340     		lsl	r3, r3, r0
 420:.\20648_driver\drivers/inv_mems_base_driver.c ****     
 421:.\20648_driver\drivers/inv_mems_base_driver.c ****     return inv_write_single_mems_reg(REG_I2C_MST_ODR_CONFIG, div);
 665              		.loc 1 421 0
 666 0008 C020     		mov	r0, #192
 667              	.LVL56:
 419:.\20648_driver\drivers/inv_mems_base_driver.c ****     
 668              		.loc 1 419 0
 669 000a 034A     		ldr	r2, .L56
 670              		.loc 1 421 0
 671 000c 4000     		lsl	r0, r0, #1
ARM GAS  C:\Users\ADMINI~1\AppData\Local\Temp\ccA9rFPz.s 			page 21


 419:.\20648_driver\drivers/inv_mems_base_driver.c ****     
 672              		.loc 1 419 0
 673 000e D380     		strh	r3, [r2, #6]
 422:.\20648_driver\drivers/inv_mems_base_driver.c **** }
 674              		.loc 1 422 0
 675              		@ sp needed
 421:.\20648_driver\drivers/inv_mems_base_driver.c **** }
 676              		.loc 1 421 0
 677 0010 FFF7FEFF 		bl	inv_write_single_mems_reg
 678              	.LVL57:
 679              		.loc 1 422 0
 680 0014 08BD     		pop	{r3, pc}
 681              	.L57:
 682 0016 C046     		.align	2
 683              	.L56:
 684 0018 00000000 		.word	base_state
 685              		.cfi_endproc
 686              	.LFE12:
 687              		.size	inv_set_secondary_divider, .-inv_set_secondary_divider
 688              		.section	.text.inv_get_secondary_divider,"ax",%progbits
 689              		.align	1
 690              		.global	inv_get_secondary_divider
 691              		.code	16
 692              		.thumb_func
 693              		.type	inv_get_secondary_divider, %function
 694              	inv_get_secondary_divider:
 695              	.LFB13:
 423:.\20648_driver\drivers/inv_mems_base_driver.c **** 
 424:.\20648_driver\drivers/inv_mems_base_driver.c **** unsigned short inv_get_secondary_divider()
 425:.\20648_driver\drivers/inv_mems_base_driver.c **** {
 696              		.loc 1 425 0
 697              		.cfi_startproc
 426:.\20648_driver\drivers/inv_mems_base_driver.c ****     return base_state.secondary_div;
 698              		.loc 1 426 0
 699 0000 014B     		ldr	r3, .L59
 427:.\20648_driver\drivers/inv_mems_base_driver.c **** }
 700              		.loc 1 427 0
 701              		@ sp needed
 426:.\20648_driver\drivers/inv_mems_base_driver.c ****     return base_state.secondary_div;
 702              		.loc 1 426 0
 703 0002 D888     		ldrh	r0, [r3, #6]
 704              		.loc 1 427 0
 705 0004 7047     		bx	lr
 706              	.L60:
 707 0006 C046     		.align	2
 708              	.L59:
 709 0008 00000000 		.word	base_state
 710              		.cfi_endproc
 711              	.LFE13:
 712              		.size	inv_get_secondary_divider, .-inv_get_secondary_divider
 713              		.section	.text.inv_set_accel_divider,"ax",%progbits
 714              		.align	1
 715              		.global	inv_set_accel_divider
 716              		.code	16
 717              		.thumb_func
 718              		.type	inv_set_accel_divider, %function
 719              	inv_set_accel_divider:
ARM GAS  C:\Users\ADMINI~1\AppData\Local\Temp\ccA9rFPz.s 			page 22


 720              	.LFB14:
 428:.\20648_driver\drivers/inv_mems_base_driver.c **** 
 429:.\20648_driver\drivers/inv_mems_base_driver.c **** inv_error_t inv_set_accel_divider(short div)
 430:.\20648_driver\drivers/inv_mems_base_driver.c **** {
 721              		.loc 1 430 0
 722              		.cfi_startproc
 723              	.LVL58:
 724 0000 07B5     		push	{r0, r1, r2, lr}
 725              		.cfi_def_cfa_offset 16
 726              		.cfi_offset 0, -16
 727              		.cfi_offset 1, -12
 728              		.cfi_offset 2, -8
 729              		.cfi_offset 14, -4
 431:.\20648_driver\drivers/inv_mems_base_driver.c ****     unsigned char data[2] = {0};
 432:.\20648_driver\drivers/inv_mems_base_driver.c **** 
 433:.\20648_driver\drivers/inv_mems_base_driver.c ****     base_state.accel_div = div;
 730              		.loc 1 433 0
 731 0002 064B     		ldr	r3, .L62
 431:.\20648_driver\drivers/inv_mems_base_driver.c ****     unsigned char data[2] = {0};
 732              		.loc 1 431 0
 733 0004 01AA     		add	r2, sp, #4
 734              		.loc 1 433 0
 735 0006 1881     		strh	r0, [r3, #8]
 434:.\20648_driver\drivers/inv_mems_base_driver.c ****     data[0] = (unsigned char)(div >> 8);
 435:.\20648_driver\drivers/inv_mems_base_driver.c ****     data[1] = (unsigned char)(div & 0xff);
 736              		.loc 1 435 0
 737 0008 5070     		strb	r0, [r2, #1]
 434:.\20648_driver\drivers/inv_mems_base_driver.c ****     data[0] = (unsigned char)(div >> 8);
 738              		.loc 1 434 0
 739 000a 0312     		asr	r3, r0, #8
 436:.\20648_driver\drivers/inv_mems_base_driver.c **** 
 437:.\20648_driver\drivers/inv_mems_base_driver.c ****     return inv_write_mems_reg(REG_ACCEL_SMPLRT_DIV_1, 2, data);
 740              		.loc 1 437 0
 741 000c 8820     		mov	r0, #136
 742              	.LVL59:
 743 000e 0221     		mov	r1, #2
 744 0010 4000     		lsl	r0, r0, #1
 434:.\20648_driver\drivers/inv_mems_base_driver.c ****     data[0] = (unsigned char)(div >> 8);
 745              		.loc 1 434 0
 746 0012 1370     		strb	r3, [r2]
 438:.\20648_driver\drivers/inv_mems_base_driver.c **** }
 747              		.loc 1 438 0
 748              		@ sp needed
 437:.\20648_driver\drivers/inv_mems_base_driver.c **** }
 749              		.loc 1 437 0
 750 0014 FFF7FEFF 		bl	inv_write_mems_reg
 751              	.LVL60:
 752              		.loc 1 438 0
 753 0018 0EBD     		pop	{r1, r2, r3, pc}
 754              	.L63:
 755 001a C046     		.align	2
 756              	.L62:
 757 001c 00000000 		.word	base_state
 758              		.cfi_endproc
 759              	.LFE14:
 760              		.size	inv_set_accel_divider, .-inv_set_accel_divider
 761              		.section	.text.inv_get_accel_divider,"ax",%progbits
ARM GAS  C:\Users\ADMINI~1\AppData\Local\Temp\ccA9rFPz.s 			page 23


 762              		.align	1
 763              		.global	inv_get_accel_divider
 764              		.code	16
 765              		.thumb_func
 766              		.type	inv_get_accel_divider, %function
 767              	inv_get_accel_divider:
 768              	.LFB15:
 439:.\20648_driver\drivers/inv_mems_base_driver.c **** 
 440:.\20648_driver\drivers/inv_mems_base_driver.c **** short inv_get_accel_divider()
 441:.\20648_driver\drivers/inv_mems_base_driver.c **** {
 769              		.loc 1 441 0
 770              		.cfi_startproc
 442:.\20648_driver\drivers/inv_mems_base_driver.c ****     return base_state.accel_div;
 771              		.loc 1 442 0
 772 0000 014B     		ldr	r3, .L65
 443:.\20648_driver\drivers/inv_mems_base_driver.c **** }
 773              		.loc 1 443 0
 774              		@ sp needed
 442:.\20648_driver\drivers/inv_mems_base_driver.c ****     return base_state.accel_div;
 775              		.loc 1 442 0
 776 0002 0820     		mov	r0, #8
 777 0004 185E     		ldrsh	r0, [r3, r0]
 778              		.loc 1 443 0
 779 0006 7047     		bx	lr
 780              	.L66:
 781              		.align	2
 782              	.L65:
 783 0008 00000000 		.word	base_state
 784              		.cfi_endproc
 785              	.LFE15:
 786              		.size	inv_get_accel_divider, .-inv_get_accel_divider
 787              		.global	__aeabi_idiv
 788              		.global	__aeabi_uidiv
 789              		.section	.text.inv_get_odr_in_units,"ax",%progbits
 790              		.align	1
 791              		.global	inv_get_odr_in_units
 792              		.code	16
 793              		.thumb_func
 794              		.type	inv_get_odr_in_units, %function
 795              	inv_get_odr_in_units:
 796              	.LFB16:
 444:.\20648_driver\drivers/inv_mems_base_driver.c **** 
 445:.\20648_driver\drivers/inv_mems_base_driver.c **** 
 446:.\20648_driver\drivers/inv_mems_base_driver.c **** // not exported in Headers
 447:.\20648_driver\drivers/inv_mems_base_driver.c **** extern unsigned long inv_androidSensor_enabled(unsigned char androidSensor);
 448:.\20648_driver\drivers/inv_mems_base_driver.c **** unsigned char inv_is_gyro_enabled(void);
 449:.\20648_driver\drivers/inv_mems_base_driver.c **** 
 450:.\20648_driver\drivers/inv_mems_base_driver.c **** /*
 451:.\20648_driver\drivers/inv_mems_base_driver.c ****  You can obtain the real odr in Milliseconds, Micro Seconds or Ticks.
 452:.\20648_driver\drivers/inv_mems_base_driver.c ****  Use the enum values: ODR_IN_Ms, ODR_IN_Us or ODR_IN_Ticks,
 453:.\20648_driver\drivers/inv_mems_base_driver.c ****  when calling inv_get_odr_in_units().
 454:.\20648_driver\drivers/inv_mems_base_driver.c **** */
 455:.\20648_driver\drivers/inv_mems_base_driver.c **** uint32_t inv_get_odr_in_units( unsigned short odrInDivider, unsigned char odr_units )
 456:.\20648_driver\drivers/inv_mems_base_driver.c **** {
 797              		.loc 1 456 0
 798              		.cfi_startproc
 799              	.LVL61:
ARM GAS  C:\Users\ADMINI~1\AppData\Local\Temp\ccA9rFPz.s 			page 24


 800 0000 F7B5     		push	{r0, r1, r2, r4, r5, r6, r7, lr}
 801              		.cfi_def_cfa_offset 32
 802              		.cfi_offset 0, -32
 803              		.cfi_offset 1, -28
 804              		.cfi_offset 2, -24
 805              		.cfi_offset 4, -20
 806              		.cfi_offset 5, -16
 807              		.cfi_offset 6, -12
 808              		.cfi_offset 7, -8
 809              		.cfi_offset 14, -4
 457:.\20648_driver\drivers/inv_mems_base_driver.c ****   uint32_t odr=0;
 458:.\20648_driver\drivers/inv_mems_base_driver.c ****   uint32_t Us=0;
 459:.\20648_driver\drivers/inv_mems_base_driver.c ****   unsigned char PLL=0, gyro_is_on=0;
 460:.\20648_driver\drivers/inv_mems_base_driver.c **** 
 461:.\20648_driver\drivers/inv_mems_base_driver.c ****   if(base_state.timebase_correction_pll == 0)
 810              		.loc 1 461 0
 811 0002 204B     		ldr	r3, .L85
 456:.\20648_driver\drivers/inv_mems_base_driver.c ****   uint32_t odr=0;
 812              		.loc 1 456 0
 813 0004 071C     		mov	r7, r0
 814              		.loc 1 461 0
 815 0006 1A7C     		ldrb	r2, [r3, #16]
 456:.\20648_driver\drivers/inv_mems_base_driver.c ****   uint32_t odr=0;
 816              		.loc 1 456 0
 817 0008 0D1C     		mov	r5, r1
 818 000a 1C1C     		mov	r4, r3
 819              		.loc 1 461 0
 820 000c 002A     		cmp	r2, #0
 821 000e 04D1     		bne	.L68
 462:.\20648_driver\drivers/inv_mems_base_driver.c ****     inv_read_mems_reg(REG_TIMEBASE_CORRECTION_PLL, 1, &base_state.timebase_correction_pll);
 822              		.loc 1 462 0
 823 0010 A820     		mov	r0, #168
 824              	.LVL62:
 825 0012 0121     		mov	r1, #1
 826              	.LVL63:
 827 0014 1C4A     		ldr	r2, .L85+4
 828 0016 FFF7FEFF 		bl	inv_read_mems_reg
 829              	.LVL64:
 830              	.L68:
 463:.\20648_driver\drivers/inv_mems_base_driver.c **** 
 464:.\20648_driver\drivers/inv_mems_base_driver.c ****   PLL = base_state.timebase_correction_pll;
 831              		.loc 1 464 0
 832 001a 267C     		ldrb	r6, [r4, #16]
 833              	.LVL65:
 465:.\20648_driver\drivers/inv_mems_base_driver.c **** 
 466:.\20648_driver\drivers/inv_mems_base_driver.c ****   // check if Gyro is currently enabled
 467:.\20648_driver\drivers/inv_mems_base_driver.c ****   gyro_is_on = inv_is_gyro_enabled();
 834              		.loc 1 467 0
 835 001c FFF7FEFF 		bl	inv_is_gyro_enabled
 836              	.LVL66:
 837 0020 0190     		str	r0, [sp, #4]
 838              	.LVL67:
 839 0022 1A48     		ldr	r0, .L85+8
 468:.\20648_driver\drivers/inv_mems_base_driver.c ****     
 469:.\20648_driver\drivers/inv_mems_base_driver.c ****   if( PLL < 0x80 ) // correction positive
 840              		.loc 1 469 0
 841 0024 73B2     		sxtb	r3, r6
ARM GAS  C:\Users\ADMINI~1\AppData\Local\Temp\ccA9rFPz.s 			page 25


 842 0026 1A4C     		ldr	r4, .L85+12
 470:.\20648_driver\drivers/inv_mems_base_driver.c ****   {
 471:.\20648_driver\drivers/inv_mems_base_driver.c ****     // In Micro Seconds
 472:.\20648_driver\drivers/inv_mems_base_driver.c ****     Us = (odrInDivider*1000000L/1125L) * (1270L)/(1270L+ (gyro_is_on ? PLL : 0));
 843              		.loc 1 472 0
 844 0028 7843     		mul	r0, r7
 845 002a 1A49     		ldr	r1, .L85+16
 469:.\20648_driver\drivers/inv_mems_base_driver.c ****   {
 846              		.loc 1 469 0
 847 002c 002B     		cmp	r3, #0
 848 002e 08DB     		blt	.L69
 849              		.loc 1 472 0
 850 0030 FFF7FEFF 		bl	__aeabi_idiv
 851              	.LVL68:
 852 0034 019B     		ldr	r3, [sp, #4]
 853 0036 6043     		mul	r0, r4
 854 0038 211C     		mov	r1, r4
 855 003a 002B     		cmp	r3, #0
 856 003c 0BD0     		beq	.L72
 857              		.loc 1 472 0 is_stmt 0 discriminator 1
 858 003e 3119     		add	r1, r6, r4
 859 0040 09E0     		b	.L72
 860              	.L69:
 861              	.LVL69:
 473:.\20648_driver\drivers/inv_mems_base_driver.c ****     
 474:.\20648_driver\drivers/inv_mems_base_driver.c ****   } else {
 475:.\20648_driver\drivers/inv_mems_base_driver.c **** 
 476:.\20648_driver\drivers/inv_mems_base_driver.c ****     PLL &= 0x7F;
 477:.\20648_driver\drivers/inv_mems_base_driver.c **** 
 478:.\20648_driver\drivers/inv_mems_base_driver.c ****     // In Micro Seconds 
 479:.\20648_driver\drivers/inv_mems_base_driver.c ****     Us = (odrInDivider*1000000L/1125L) * (1270L)/(1270L-(gyro_is_on ? PLL : 0));
 862              		.loc 1 479 0 is_stmt 1
 863 0042 FFF7FEFF 		bl	__aeabi_idiv
 864              	.LVL70:
 865 0046 019B     		ldr	r3, [sp, #4]
 866 0048 6043     		mul	r0, r4
 867 004a 211C     		mov	r1, r4
 868 004c 002B     		cmp	r3, #0
 869 004e 02D0     		beq	.L72
 870              		.loc 1 479 0 is_stmt 0 discriminator 1
 871 0050 7F21     		mov	r1, #127
 872 0052 3140     		and	r1, r6
 873 0054 611A     		sub	r1, r4, r1
 874              	.LVL71:
 875              	.L72:
 876              		.loc 1 479 0 discriminator 4
 877 0056 FFF7FEFF 		bl	__aeabi_idiv
 878              	.LVL72:
 480:.\20648_driver\drivers/inv_mems_base_driver.c ****   }
 481:.\20648_driver\drivers/inv_mems_base_driver.c **** 
 482:.\20648_driver\drivers/inv_mems_base_driver.c ****   switch( odr_units ) {
 879              		.loc 1 482 0 is_stmt 1 discriminator 4
 880 005a 012D     		cmp	r5, #1
 881 005c 10D0     		beq	.L73
 882              		.loc 1 482 0 is_stmt 0
 883 005e 002D     		cmp	r5, #0
 884 0060 08D0     		beq	.L75
ARM GAS  C:\Users\ADMINI~1\AppData\Local\Temp\ccA9rFPz.s 			page 26


 885 0062 022D     		cmp	r5, #2
 886 0064 0BD1     		bne	.L84
 483:.\20648_driver\drivers/inv_mems_base_driver.c ****     
 484:.\20648_driver\drivers/inv_mems_base_driver.c ****       // ret in Milliseconds 
 485:.\20648_driver\drivers/inv_mems_base_driver.c ****       case ODR_IN_Ms:
 486:.\20648_driver\drivers/inv_mems_base_driver.c ****         odr = Us/1000;          
 487:.\20648_driver\drivers/inv_mems_base_driver.c ****         break;
 488:.\20648_driver\drivers/inv_mems_base_driver.c ****         
 489:.\20648_driver\drivers/inv_mems_base_driver.c ****       // ret in Micro
 490:.\20648_driver\drivers/inv_mems_base_driver.c ****       case ODR_IN_Us:
 491:.\20648_driver\drivers/inv_mems_base_driver.c ****         odr = Us;               
 492:.\20648_driver\drivers/inv_mems_base_driver.c ****         break;
 493:.\20648_driver\drivers/inv_mems_base_driver.c ****         
 494:.\20648_driver\drivers/inv_mems_base_driver.c ****       // ret in Ticks
 495:.\20648_driver\drivers/inv_mems_base_driver.c ****       case ODR_IN_Ticks:
 496:.\20648_driver\drivers/inv_mems_base_driver.c ****         odr = (Us/1000) * (32768/1125);// According to Mars
 887              		.loc 1 496 0 is_stmt 1
 888 0066 FA21     		mov	r1, #250
 889 0068 8900     		lsl	r1, r1, #2
 890 006a FFF7FEFF 		bl	__aeabi_uidiv
 891              	.LVL73:
 892 006e 1D23     		mov	r3, #29
 893 0070 5843     		mul	r0, r3
 894              	.LVL74:
 497:.\20648_driver\drivers/inv_mems_base_driver.c ****         break;   
 895              		.loc 1 497 0
 896 0072 05E0     		b	.L73
 897              	.LVL75:
 898              	.L75:
 486:.\20648_driver\drivers/inv_mems_base_driver.c ****         break;
 899              		.loc 1 486 0
 900 0074 FA21     		mov	r1, #250
 901 0076 8900     		lsl	r1, r1, #2
 902 0078 FFF7FEFF 		bl	__aeabi_uidiv
 903              	.LVL76:
 487:.\20648_driver\drivers/inv_mems_base_driver.c ****         
 904              		.loc 1 487 0
 905 007c 00E0     		b	.L73
 906              	.LVL77:
 907              	.L84:
 457:.\20648_driver\drivers/inv_mems_base_driver.c ****   uint32_t Us=0;
 908              		.loc 1 457 0
 909 007e 0020     		mov	r0, #0
 910              	.LVL78:
 911              	.L73:
 498:.\20648_driver\drivers/inv_mems_base_driver.c ****   }
 499:.\20648_driver\drivers/inv_mems_base_driver.c ****   
 500:.\20648_driver\drivers/inv_mems_base_driver.c ****   return odr;
 501:.\20648_driver\drivers/inv_mems_base_driver.c **** }
 912              		.loc 1 501 0
 913              		@ sp needed
 914 0080 FEBD     		pop	{r1, r2, r3, r4, r5, r6, r7, pc}
 915              	.L86:
 916 0082 C046     		.align	2
 917              	.L85:
 918 0084 00000000 		.word	base_state
 919 0088 10000000 		.word	base_state+16
ARM GAS  C:\Users\ADMINI~1\AppData\Local\Temp\ccA9rFPz.s 			page 27


 920 008c 40420F00 		.word	1000000
 921 0090 F6040000 		.word	1270
 922 0094 65040000 		.word	1125
 923              		.cfi_endproc
 924              	.LFE16:
 925              		.size	inv_get_odr_in_units, .-inv_get_odr_in_units
 926              		.global	__aeabi_lmul
 927              		.global	__aeabi_uldivmod
 928              		.section	.text.inv_set_gyro_sf,"ax",%progbits
 929              		.align	1
 930              		.global	inv_set_gyro_sf
 931              		.code	16
 932              		.thumb_func
 933              		.type	inv_set_gyro_sf, %function
 934              	inv_set_gyro_sf:
 935              	.LFB17:
 502:.\20648_driver\drivers/inv_mems_base_driver.c ****  
 503:.\20648_driver\drivers/inv_mems_base_driver.c **** /**
 504:.\20648_driver\drivers/inv_mems_base_driver.c **** * Sets the DMP for a particular gyro configuration.
 505:.\20648_driver\drivers/inv_mems_base_driver.c **** * @param[in] gyro_div Value written to GYRO_SMPLRT_DIV register, where
 506:.\20648_driver\drivers/inv_mems_base_driver.c **** *            0=1125Hz sample rate, 1=562.5Hz sample rate, ... 4=225Hz sample rate, ...
 507:.\20648_driver\drivers/inv_mems_base_driver.c **** *            10=102.2727Hz sample rate, ... etc.
 508:.\20648_driver\drivers/inv_mems_base_driver.c **** * @param[in] gyro_level 0=250 dps, 1=500 dps, 2=1000 dps, 3=2000 dps
 509:.\20648_driver\drivers/inv_mems_base_driver.c **** */
 510:.\20648_driver\drivers/inv_mems_base_driver.c **** inv_error_t inv_set_gyro_sf(unsigned char div, int gyro_level)
 511:.\20648_driver\drivers/inv_mems_base_driver.c **** {
 936              		.loc 1 511 0
 937              		.cfi_startproc
 938              	.LVL79:
 939 0000 F8B5     		push	{r3, r4, r5, r6, r7, lr}
 940              		.cfi_def_cfa_offset 24
 941              		.cfi_offset 3, -24
 942              		.cfi_offset 4, -20
 943              		.cfi_offset 5, -16
 944              		.cfi_offset 6, -12
 945              		.cfi_offset 7, -8
 946              		.cfi_offset 14, -4
 512:.\20648_driver\drivers/inv_mems_base_driver.c ****     long gyro_sf;
 513:.\20648_driver\drivers/inv_mems_base_driver.c ****     static long lLastGyroSf = 0;
 514:.\20648_driver\drivers/inv_mems_base_driver.c ****     inv_error_t result = 0;
 947              		.loc 1 514 0
 948 0002 0025     		mov	r5, #0
 515:.\20648_driver\drivers/inv_mems_base_driver.c **** 
 516:.\20648_driver\drivers/inv_mems_base_driver.c ****     if(base_state.timebase_correction_pll == 0)
 949              		.loc 1 516 0
 950 0004 214B     		ldr	r3, .L98
 511:.\20648_driver\drivers/inv_mems_base_driver.c ****     long gyro_sf;
 951              		.loc 1 511 0
 952 0006 061C     		mov	r6, r0
 953              		.loc 1 516 0
 954 0008 1A7C     		ldrb	r2, [r3, #16]
 511:.\20648_driver\drivers/inv_mems_base_driver.c ****     long gyro_sf;
 955              		.loc 1 511 0
 956 000a 0F1C     		mov	r7, r1
 957 000c 1C1C     		mov	r4, r3
 958              		.loc 1 516 0
 959 000e AA42     		cmp	r2, r5
ARM GAS  C:\Users\ADMINI~1\AppData\Local\Temp\ccA9rFPz.s 			page 28


 960 0010 05D1     		bne	.L88
 517:.\20648_driver\drivers/inv_mems_base_driver.c ****         result |= inv_read_mems_reg(REG_TIMEBASE_CORRECTION_PLL, 1, &base_state.timebase_correction
 961              		.loc 1 517 0
 962 0012 A820     		mov	r0, #168
 963              	.LVL80:
 964 0014 0121     		mov	r1, #1
 965              	.LVL81:
 966 0016 1E4A     		ldr	r2, .L98+4
 967 0018 FFF7FEFF 		bl	inv_read_mems_reg
 968              	.LVL82:
 969 001c 051C     		mov	r5, r0
 970              	.LVL83:
 971              	.L88:
 972 001e 0120     		mov	r0, #1
 973              	.LBB6:
 518:.\20648_driver\drivers/inv_mems_base_driver.c **** 
 519:.\20648_driver\drivers/inv_mems_base_driver.c **** {
 520:.\20648_driver\drivers/inv_mems_base_driver.c ****     unsigned    long    long    const   MagicConstant       =   264446880937391LL;
 521:.\20648_driver\drivers/inv_mems_base_driver.c ****     unsigned    long    long    const   MagicConstantScale  =   100000LL;
 522:.\20648_driver\drivers/inv_mems_base_driver.c ****     unsigned    long    long            ResultLL;
 523:.\20648_driver\drivers/inv_mems_base_driver.c ****     
 524:.\20648_driver\drivers/inv_mems_base_driver.c ****     if  (base_state.timebase_correction_pll & 0x80)
 974              		.loc 1 524 0
 975 0020 247C     		ldrb	r4, [r4, #16]
 976 0022 3218     		add	r2, r6, r0
 977 0024 63B2     		sxtb	r3, r4
 525:.\20648_driver\drivers/inv_mems_base_driver.c ****     {
 526:.\20648_driver\drivers/inv_mems_base_driver.c ****         ResultLL    = (MagicConstant * (long long)(1UL << gyro_level) * (1 + div) / (1270 - (base_s
 978              		.loc 1 526 0
 979 0026 B840     		lsl	r0, r0, r7
 524:.\20648_driver\drivers/inv_mems_base_driver.c ****     {
 980              		.loc 1 524 0
 981 0028 002B     		cmp	r3, #0
 982 002a 0CDA     		bge	.L89
 983              		.loc 1 526 0
 984 002c D317     		asr	r3, r2, #31
 985 002e 0021     		mov	r1, #0
 986 0030 FFF7FEFF 		bl	__aeabi_lmul
 987              	.LVL84:
 988 0034 174A     		ldr	r2, .L98+8
 989 0036 184B     		ldr	r3, .L98+12
 990 0038 FFF7FEFF 		bl	__aeabi_lmul
 991              	.LVL85:
 992 003c 7F22     		mov	r2, #127
 993 003e 174B     		ldr	r3, .L98+16
 994 0040 1440     		and	r4, r2
 995 0042 1A1B     		sub	r2, r3, r4
 996 0044 09E0     		b	.L97
 997              	.L89:
 527:.\20648_driver\drivers/inv_mems_base_driver.c ****     }
 528:.\20648_driver\drivers/inv_mems_base_driver.c ****     else
 529:.\20648_driver\drivers/inv_mems_base_driver.c ****     {
 530:.\20648_driver\drivers/inv_mems_base_driver.c ****         ResultLL    = (MagicConstant * (long long)(1UL << gyro_level) * (1 + div) / (1270 + base_st
 998              		.loc 1 530 0
 999 0046 D317     		asr	r3, r2, #31
 1000 0048 0021     		mov	r1, #0
 1001 004a FFF7FEFF 		bl	__aeabi_lmul
ARM GAS  C:\Users\ADMINI~1\AppData\Local\Temp\ccA9rFPz.s 			page 29


 1002              	.LVL86:
 1003 004e 114A     		ldr	r2, .L98+8
 1004 0050 114B     		ldr	r3, .L98+12
 1005 0052 FFF7FEFF 		bl	__aeabi_lmul
 1006              	.LVL87:
 1007 0056 114B     		ldr	r3, .L98+16
 1008 0058 E218     		add	r2, r4, r3
 1009              	.L97:
 1010 005a D317     		asr	r3, r2, #31
 1011 005c FFF7FEFF 		bl	__aeabi_uldivmod
 1012              	.LVL88:
 1013 0060 0F4A     		ldr	r2, .L98+20
 1014 0062 0023     		mov	r3, #0
 1015 0064 FFF7FEFF 		bl	__aeabi_uldivmod
 1016              	.LVL89:
 531:.\20648_driver\drivers/inv_mems_base_driver.c ****     }
 532:.\20648_driver\drivers/inv_mems_base_driver.c **** /*
 533:.\20648_driver\drivers/inv_mems_base_driver.c ****     In above deprecated FP version, worst case arguments can produce a result that overflows a sign
 534:.\20648_driver\drivers/inv_mems_base_driver.c ****     Here, for such cases, we emulate the FP behavior of setting the result to the maximum positive 
 535:.\20648_driver\drivers/inv_mems_base_driver.c ****     the compiler's conversion of a u64 to an s32 is simple truncation of the u64's high half, sadly
 536:.\20648_driver\drivers/inv_mems_base_driver.c **** */
 537:.\20648_driver\drivers/inv_mems_base_driver.c ****     if  (ResultLL > 0x7FFFFFFF) 
 1017              		.loc 1 537 0
 1018 0068 0029     		cmp	r1, #0
 1019 006a 03D1     		bne	.L95
 1020 006c 0D4B     		ldr	r3, .L98+24
 538:.\20648_driver\drivers/inv_mems_base_driver.c ****     {
 539:.\20648_driver\drivers/inv_mems_base_driver.c ****         gyro_sf =   0x7FFFFFFF;
 540:.\20648_driver\drivers/inv_mems_base_driver.c ****     }
 541:.\20648_driver\drivers/inv_mems_base_driver.c ****     else
 542:.\20648_driver\drivers/inv_mems_base_driver.c ****     {
 543:.\20648_driver\drivers/inv_mems_base_driver.c ****         gyro_sf =   (long)ResultLL;
 1021              		.loc 1 543 0
 1022 006e 041E     		sub	r4, r0, #0
 537:.\20648_driver\drivers/inv_mems_base_driver.c ****     {
 1023              		.loc 1 537 0
 1024 0070 9C42     		cmp	r4, r3
 1025 0072 00D9     		bls	.L91
 1026              	.L95:
 539:.\20648_driver\drivers/inv_mems_base_driver.c ****     }
 1027              		.loc 1 539 0
 1028 0074 0B4C     		ldr	r4, .L98+24
 1029              	.L91:
 1030              	.LVL90:
 1031              	.LBE6:
 544:.\20648_driver\drivers/inv_mems_base_driver.c ****     }
 545:.\20648_driver\drivers/inv_mems_base_driver.c **** }
 546:.\20648_driver\drivers/inv_mems_base_driver.c **** 
 547:.\20648_driver\drivers/inv_mems_base_driver.c ****     if (gyro_sf != lLastGyroSf)
 1032              		.loc 1 547 0
 1033 0076 0C4E     		ldr	r6, .L98+28
 1034 0078 7368     		ldr	r3, [r6, #4]
 1035 007a 9C42     		cmp	r4, r3
 1036 007c 04D0     		beq	.L93
 548:.\20648_driver\drivers/inv_mems_base_driver.c ****     {
 549:.\20648_driver\drivers/inv_mems_base_driver.c ****         result |= dmp_set_gyro_sf(gyro_sf);
 1037              		.loc 1 549 0
ARM GAS  C:\Users\ADMINI~1\AppData\Local\Temp\ccA9rFPz.s 			page 30


 1038 007e 201C     		mov	r0, r4
 1039              	.LVL91:
 1040 0080 FFF7FEFF 		bl	dmp_set_gyro_sf
 1041              	.LVL92:
 550:.\20648_driver\drivers/inv_mems_base_driver.c ****         lLastGyroSf = gyro_sf;
 1042              		.loc 1 550 0
 1043 0084 7460     		str	r4, [r6, #4]
 549:.\20648_driver\drivers/inv_mems_base_driver.c ****         lLastGyroSf = gyro_sf;
 1044              		.loc 1 549 0
 1045 0086 0543     		orr	r5, r0
 1046              	.LVL93:
 1047              	.L93:
 551:.\20648_driver\drivers/inv_mems_base_driver.c ****     }
 552:.\20648_driver\drivers/inv_mems_base_driver.c **** 
 553:.\20648_driver\drivers/inv_mems_base_driver.c ****     return result;
 554:.\20648_driver\drivers/inv_mems_base_driver.c **** }
 1048              		.loc 1 554 0
 1049 0088 281C     		mov	r0, r5
 1050              		@ sp needed
 1051              	.LVL94:
 1052              	.LVL95:
 1053              	.LVL96:
 1054 008a F8BD     		pop	{r3, r4, r5, r6, r7, pc}
 1055              	.L99:
 1056              		.align	2
 1057              	.L98:
 1058 008c 00000000 		.word	base_state
 1059 0090 10000000 		.word	base_state+16
 1060 0094 AF756656 		.word	1449555375
 1061 0098 83F00000 		.word	61571
 1062 009c F6040000 		.word	1270
 1063 00a0 A0860100 		.word	100000
 1064 00a4 FFFFFF7F 		.word	2147483647
 1065 00a8 00000000 		.word	.LANCHOR1
 1066              		.cfi_endproc
 1067              	.LFE17:
 1068              		.size	inv_set_gyro_sf, .-inv_set_gyro_sf
 1069              		.section	.text.inv_get_gyro_fullscale,"ax",%progbits
 1070              		.align	1
 1071              		.global	inv_get_gyro_fullscale
 1072              		.code	16
 1073              		.thumb_func
 1074              		.type	inv_get_gyro_fullscale, %function
 1075              	inv_get_gyro_fullscale:
 1076              	.LFB19:
 555:.\20648_driver\drivers/inv_mems_base_driver.c **** 
 556:.\20648_driver\drivers/inv_mems_base_driver.c **** inv_error_t inv_set_gyro_fullscale(int level)
 557:.\20648_driver\drivers/inv_mems_base_driver.c **** {
 558:.\20648_driver\drivers/inv_mems_base_driver.c **** 	inv_error_t result;
 559:.\20648_driver\drivers/inv_mems_base_driver.c ****     base_state.gyro_fullscale = level;
 560:.\20648_driver\drivers/inv_mems_base_driver.c **** 	result = inv_set_mems_gyro_fullscale(level);
 561:.\20648_driver\drivers/inv_mems_base_driver.c **** 	result |= inv_set_gyro_sf(base_state.gyro_div, level);
 562:.\20648_driver\drivers/inv_mems_base_driver.c **** 
 563:.\20648_driver\drivers/inv_mems_base_driver.c **** 	return result;
 564:.\20648_driver\drivers/inv_mems_base_driver.c **** }
 565:.\20648_driver\drivers/inv_mems_base_driver.c **** 
 566:.\20648_driver\drivers/inv_mems_base_driver.c **** uint8_t inv_get_gyro_fullscale()
ARM GAS  C:\Users\ADMINI~1\AppData\Local\Temp\ccA9rFPz.s 			page 31


 567:.\20648_driver\drivers/inv_mems_base_driver.c **** {
 1077              		.loc 1 567 0
 1078              		.cfi_startproc
 568:.\20648_driver\drivers/inv_mems_base_driver.c **** 	return base_state.gyro_fullscale;
 1079              		.loc 1 568 0
 1080 0000 014B     		ldr	r3, .L101
 569:.\20648_driver\drivers/inv_mems_base_driver.c **** }
 1081              		.loc 1 569 0
 1082              		@ sp needed
 568:.\20648_driver\drivers/inv_mems_base_driver.c **** 	return base_state.gyro_fullscale;
 1083              		.loc 1 568 0
 1084 0002 187B     		ldrb	r0, [r3, #12]
 1085              		.loc 1 569 0
 1086 0004 7047     		bx	lr
 1087              	.L102:
 1088 0006 C046     		.align	2
 1089              	.L101:
 1090 0008 00000000 		.word	base_state
 1091              		.cfi_endproc
 1092              	.LFE19:
 1093              		.size	inv_get_gyro_fullscale, .-inv_get_gyro_fullscale
 1094              		.section	.text.inv_set_mems_gyro_fullscale,"ax",%progbits
 1095              		.align	1
 1096              		.global	inv_set_mems_gyro_fullscale
 1097              		.code	16
 1098              		.thumb_func
 1099              		.type	inv_set_mems_gyro_fullscale, %function
 1100              	inv_set_mems_gyro_fullscale:
 1101              	.LFB20:
 570:.\20648_driver\drivers/inv_mems_base_driver.c **** 
 571:.\20648_driver\drivers/inv_mems_base_driver.c **** 
 572:.\20648_driver\drivers/inv_mems_base_driver.c **** inv_error_t inv_set_mems_gyro_fullscale(int level)
 573:.\20648_driver\drivers/inv_mems_base_driver.c **** {
 1102              		.loc 1 573 0
 1103              		.cfi_startproc
 1104              	.LVL97:
 1105 0000 F7B5     		push	{r0, r1, r2, r4, r5, r6, r7, lr}
 1106              		.cfi_def_cfa_offset 32
 1107              		.cfi_offset 0, -32
 1108              		.cfi_offset 1, -28
 1109              		.cfi_offset 2, -24
 1110              		.cfi_offset 4, -20
 1111              		.cfi_offset 5, -16
 1112              		.cfi_offset 6, -12
 1113              		.cfi_offset 7, -8
 1114              		.cfi_offset 14, -4
 574:.\20648_driver\drivers/inv_mems_base_driver.c **** 	inv_error_t result = 0;
 575:.\20648_driver\drivers/inv_mems_base_driver.c **** 	unsigned char gyro_config_1_reg;
 576:.\20648_driver\drivers/inv_mems_base_driver.c ****     unsigned char gyro_config_2_reg;
 577:.\20648_driver\drivers/inv_mems_base_driver.c ****     unsigned char dec3_cfg;
 578:.\20648_driver\drivers/inv_mems_base_driver.c ****     
 579:.\20648_driver\drivers/inv_mems_base_driver.c ****     if (level >= NUM_MPU_GFS)
 580:.\20648_driver\drivers/inv_mems_base_driver.c **** 		return INV_ERROR_INVALID_PARAMETER;
 1115              		.loc 1 580 0
 1116 0002 1625     		mov	r5, #22
 579:.\20648_driver\drivers/inv_mems_base_driver.c **** 		return INV_ERROR_INVALID_PARAMETER;
 1117              		.loc 1 579 0
ARM GAS  C:\Users\ADMINI~1\AppData\Local\Temp\ccA9rFPz.s 			page 32


 1118 0004 0328     		cmp	r0, #3
 1119 0006 45DC     		bgt	.L104
 1120              	.LBB9:
 1121              	.LBB10:
 581:.\20648_driver\drivers/inv_mems_base_driver.c ****     
 582:.\20648_driver\drivers/inv_mems_base_driver.c **** 	result |= inv_read_mems_reg(REG_GYRO_CONFIG_1, 1, &gyro_config_1_reg);
 1122              		.loc 1 582 0
 1123 0008 6B46     		mov	r3, sp
 1124 000a 061C     		mov	r6, r0
 1125              	.LVL98:
 1126 000c 0220     		mov	r0, #2
 1127              	.LVL99:
 1128 000e 0124     		mov	r4, #1
 1129 0010 9F1D     		add	r7, r3, #6
 1130 0012 0121     		mov	r1, #1
 1131 0014 3A1C     		mov	r2, r7
 1132 0016 FF30     		add	r0, r0, #255
 1133 0018 FFF7FEFF 		bl	inv_read_mems_reg
 1134              	.LVL100:
 583:.\20648_driver\drivers/inv_mems_base_driver.c ****     gyro_config_1_reg &= 0xC0;
 1135              		.loc 1 583 0
 1136 001c 3F23     		mov	r3, #63
 584:.\20648_driver\drivers/inv_mems_base_driver.c **** 	gyro_config_1_reg |= (level << 1) | 1;  //fchoice = 1, filter = 0.
 1137              		.loc 1 584 0
 1138 001e A640     		lsl	r6, r6, r4
 1139              	.LVL101:
 582:.\20648_driver\drivers/inv_mems_base_driver.c ****     gyro_config_1_reg &= 0xC0;
 1140              		.loc 1 582 0
 1141 0020 051C     		mov	r5, r0
 1142              	.LVL102:
 583:.\20648_driver\drivers/inv_mems_base_driver.c ****     gyro_config_1_reg &= 0xC0;
 1143              		.loc 1 583 0
 1144 0022 3878     		ldrb	r0, [r7]
 1145              	.LVL103:
 585:.\20648_driver\drivers/inv_mems_base_driver.c **** 	result |= inv_write_mems_reg(REG_GYRO_CONFIG_1, 1, &gyro_config_1_reg);
 1146              		.loc 1 585 0
 1147 0024 211C     		mov	r1, r4
 583:.\20648_driver\drivers/inv_mems_base_driver.c **** 	gyro_config_1_reg |= (level << 1) | 1;  //fchoice = 1, filter = 0.
 1148              		.loc 1 583 0
 1149 0026 9843     		bic	r0, r3
 1150 0028 2043     		orr	r0, r4
 584:.\20648_driver\drivers/inv_mems_base_driver.c **** 	result |= inv_write_mems_reg(REG_GYRO_CONFIG_1, 1, &gyro_config_1_reg);
 1151              		.loc 1 584 0
 1152 002a 0643     		orr	r6, r0
 1153              		.loc 1 585 0
 1154 002c 0220     		mov	r0, #2
 1155 002e 3A1C     		mov	r2, r7
 1156 0030 FF30     		add	r0, r0, #255
 584:.\20648_driver\drivers/inv_mems_base_driver.c **** 	result |= inv_write_mems_reg(REG_GYRO_CONFIG_1, 1, &gyro_config_1_reg);
 1157              		.loc 1 584 0
 1158 0032 3E70     		strb	r6, [r7]
 1159              		.loc 1 585 0
 1160 0034 FFF7FEFF 		bl	inv_write_mems_reg
 1161              	.LVL104:
 586:.\20648_driver\drivers/inv_mems_base_driver.c **** 
 587:.\20648_driver\drivers/inv_mems_base_driver.c ****     result |= inv_read_mems_reg(REG_GYRO_CONFIG_2, 1, &gyro_config_2_reg);
 1162              		.loc 1 587 0
ARM GAS  C:\Users\ADMINI~1\AppData\Local\Temp\ccA9rFPz.s 			page 33


 1163 0038 6B46     		mov	r3, sp
 585:.\20648_driver\drivers/inv_mems_base_driver.c **** 
 1164              		.loc 1 585 0
 1165 003a 0543     		orr	r5, r0
 1166              	.LVL105:
 1167              		.loc 1 587 0
 1168 003c 8120     		mov	r0, #129
 1169 003e DE1D     		add	r6, r3, #7
 1170 0040 211C     		mov	r1, r4
 1171 0042 321C     		mov	r2, r6
 1172 0044 4000     		lsl	r0, r0, #1
 1173 0046 FFF7FEFF 		bl	inv_read_mems_reg
 1174              	.LVL106:
 1175 004a 0543     		orr	r5, r0
 1176              	.LVL107:
 588:.\20648_driver\drivers/inv_mems_base_driver.c **** 	gyro_config_2_reg &= 0xF8;
 1177              		.loc 1 588 0
 1178 004c 0720     		mov	r0, #7
 589:.\20648_driver\drivers/inv_mems_base_driver.c **** 	
 590:.\20648_driver\drivers/inv_mems_base_driver.c ****     switch(base_state.gyro_averaging) {
 1179              		.loc 1 590 0
 1180 004e 124B     		ldr	r3, .L120
 588:.\20648_driver\drivers/inv_mems_base_driver.c **** 	gyro_config_2_reg &= 0xF8;
 1181              		.loc 1 588 0
 1182 0050 3178     		ldrb	r1, [r6]
 1183              		.loc 1 590 0
 1184 0052 9A7A     		ldrb	r2, [r3, #10]
 588:.\20648_driver\drivers/inv_mems_base_driver.c **** 	gyro_config_2_reg &= 0xF8;
 1185              		.loc 1 588 0
 1186 0054 8143     		bic	r1, r0
 591:.\20648_driver\drivers/inv_mems_base_driver.c ****     case 1:
 592:.\20648_driver\drivers/inv_mems_base_driver.c ****         dec3_cfg = 0;
 593:.\20648_driver\drivers/inv_mems_base_driver.c ****         break;
 594:.\20648_driver\drivers/inv_mems_base_driver.c ****     case 2:
 595:.\20648_driver\drivers/inv_mems_base_driver.c ****         dec3_cfg = 1;
 596:.\20648_driver\drivers/inv_mems_base_driver.c ****         break;
 597:.\20648_driver\drivers/inv_mems_base_driver.c ****     case 4:
 598:.\20648_driver\drivers/inv_mems_base_driver.c ****         dec3_cfg = 2;
 599:.\20648_driver\drivers/inv_mems_base_driver.c ****         break;
 600:.\20648_driver\drivers/inv_mems_base_driver.c ****     case 8:
 601:.\20648_driver\drivers/inv_mems_base_driver.c ****         dec3_cfg = 3;
 602:.\20648_driver\drivers/inv_mems_base_driver.c ****         break;
 603:.\20648_driver\drivers/inv_mems_base_driver.c ****     case 16:
 604:.\20648_driver\drivers/inv_mems_base_driver.c ****         dec3_cfg = 4;
 1187              		.loc 1 604 0
 1188 0056 0423     		mov	r3, #4
 590:.\20648_driver\drivers/inv_mems_base_driver.c ****     case 1:
 1189              		.loc 1 590 0
 1190 0058 102A     		cmp	r2, #16
 1191 005a 14D0     		beq	.L105
 1192 005c 09D8     		bhi	.L107
 598:.\20648_driver\drivers/inv_mems_base_driver.c ****         break;
 1193              		.loc 1 598 0
 1194 005e 023B     		sub	r3, r3, #2
 590:.\20648_driver\drivers/inv_mems_base_driver.c ****     case 1:
 1195              		.loc 1 590 0
 1196 0060 042A     		cmp	r2, #4
ARM GAS  C:\Users\ADMINI~1\AppData\Local\Temp\ccA9rFPz.s 			page 34


 1197 0062 10D0     		beq	.L105
 601:.\20648_driver\drivers/inv_mems_base_driver.c ****         break;
 1198              		.loc 1 601 0
 1199 0064 1B19     		add	r3, r3, r4
 590:.\20648_driver\drivers/inv_mems_base_driver.c ****     case 1:
 1200              		.loc 1 590 0
 1201 0066 082A     		cmp	r2, #8
 1202 0068 0DD0     		beq	.L105
 595:.\20648_driver\drivers/inv_mems_base_driver.c ****         break;
 1203              		.loc 1 595 0
 1204 006a 231C     		mov	r3, r4
 590:.\20648_driver\drivers/inv_mems_base_driver.c ****     case 1:
 1205              		.loc 1 590 0
 1206 006c 022A     		cmp	r2, #2
 1207 006e 09D1     		bne	.L115
 1208 0070 09E0     		b	.L105
 1209              	.L107:
 605:.\20648_driver\drivers/inv_mems_base_driver.c ****         break;
 606:.\20648_driver\drivers/inv_mems_base_driver.c ****     case 32:
 607:.\20648_driver\drivers/inv_mems_base_driver.c ****         dec3_cfg = 5;
 608:.\20648_driver\drivers/inv_mems_base_driver.c ****         break;
 609:.\20648_driver\drivers/inv_mems_base_driver.c ****     case 64:
 610:.\20648_driver\drivers/inv_mems_base_driver.c ****         dec3_cfg = 6;
 1210              		.loc 1 610 0
 1211 0072 0623     		mov	r3, #6
 590:.\20648_driver\drivers/inv_mems_base_driver.c ****     case 1:
 1212              		.loc 1 590 0
 1213 0074 402A     		cmp	r2, #64
 1214 0076 06D0     		beq	.L105
 611:.\20648_driver\drivers/inv_mems_base_driver.c ****         break;
 612:.\20648_driver\drivers/inv_mems_base_driver.c ****     case 128:
 613:.\20648_driver\drivers/inv_mems_base_driver.c ****         dec3_cfg = 7;
 1215              		.loc 1 613 0
 1216 0078 031C     		mov	r3, r0
 590:.\20648_driver\drivers/inv_mems_base_driver.c ****     case 1:
 1217              		.loc 1 590 0
 1218 007a 802A     		cmp	r2, #128
 1219 007c 03D0     		beq	.L105
 607:.\20648_driver\drivers/inv_mems_base_driver.c ****         break;
 1220              		.loc 1 607 0
 1221 007e 0523     		mov	r3, #5
 590:.\20648_driver\drivers/inv_mems_base_driver.c ****     case 1:
 1222              		.loc 1 590 0
 1223 0080 202A     		cmp	r2, #32
 1224 0082 00D0     		beq	.L105
 1225              	.L115:
 592:.\20648_driver\drivers/inv_mems_base_driver.c ****         break;
 1226              		.loc 1 592 0
 1227 0084 0023     		mov	r3, #0
 1228              	.L105:
 1229              	.LVL108:
 614:.\20648_driver\drivers/inv_mems_base_driver.c ****         break;
 615:.\20648_driver\drivers/inv_mems_base_driver.c ****     default:
 616:.\20648_driver\drivers/inv_mems_base_driver.c ****         dec3_cfg = 0;
 617:.\20648_driver\drivers/inv_mems_base_driver.c ****         break;
 618:.\20648_driver\drivers/inv_mems_base_driver.c ****     }
 619:.\20648_driver\drivers/inv_mems_base_driver.c **** 	gyro_config_2_reg |= dec3_cfg;  
ARM GAS  C:\Users\ADMINI~1\AppData\Local\Temp\ccA9rFPz.s 			page 35


 620:.\20648_driver\drivers/inv_mems_base_driver.c **** 	result |= inv_write_single_mems_reg(REG_GYRO_CONFIG_2, gyro_config_2_reg);
 1230              		.loc 1 620 0
 1231 0086 8120     		mov	r0, #129
 619:.\20648_driver\drivers/inv_mems_base_driver.c **** 	result |= inv_write_single_mems_reg(REG_GYRO_CONFIG_2, gyro_config_2_reg);
 1232              		.loc 1 619 0
 1233 0088 1943     		orr	r1, r3
 1234              		.loc 1 620 0
 1235 008a 4000     		lsl	r0, r0, #1
 619:.\20648_driver\drivers/inv_mems_base_driver.c **** 	result |= inv_write_single_mems_reg(REG_GYRO_CONFIG_2, gyro_config_2_reg);
 1236              		.loc 1 619 0
 1237 008c 3170     		strb	r1, [r6]
 1238              		.loc 1 620 0
 1239 008e FFF7FEFF 		bl	inv_write_single_mems_reg
 1240              	.LVL109:
 1241 0092 0543     		orr	r5, r0
 1242              	.LVL110:
 1243              	.L104:
 1244              	.LBE10:
 1245              	.LBE9:
 621:.\20648_driver\drivers/inv_mems_base_driver.c **** 
 622:.\20648_driver\drivers/inv_mems_base_driver.c **** 	return result;
 623:.\20648_driver\drivers/inv_mems_base_driver.c **** }
 1246              		.loc 1 623 0
 1247 0094 281C     		mov	r0, r5
 1248              		@ sp needed
 1249 0096 FEBD     		pop	{r1, r2, r3, r4, r5, r6, r7, pc}
 1250              	.L121:
 1251              		.align	2
 1252              	.L120:
 1253 0098 00000000 		.word	base_state
 1254              		.cfi_endproc
 1255              	.LFE20:
 1256              		.size	inv_set_mems_gyro_fullscale, .-inv_set_mems_gyro_fullscale
 1257              		.section	.text.inv_set_gyro_fullscale,"ax",%progbits
 1258              		.align	1
 1259              		.global	inv_set_gyro_fullscale
 1260              		.code	16
 1261              		.thumb_func
 1262              		.type	inv_set_gyro_fullscale, %function
 1263              	inv_set_gyro_fullscale:
 1264              	.LFB18:
 557:.\20648_driver\drivers/inv_mems_base_driver.c **** 	inv_error_t result;
 1265              		.loc 1 557 0
 1266              		.cfi_startproc
 1267              	.LVL111:
 1268 0000 70B5     		push	{r4, r5, r6, lr}
 1269              		.cfi_def_cfa_offset 16
 1270              		.cfi_offset 4, -16
 1271              		.cfi_offset 5, -12
 1272              		.cfi_offset 6, -8
 1273              		.cfi_offset 14, -4
 559:.\20648_driver\drivers/inv_mems_base_driver.c **** 	result = inv_set_mems_gyro_fullscale(level);
 1274              		.loc 1 559 0
 1275 0002 064E     		ldr	r6, .L123
 557:.\20648_driver\drivers/inv_mems_base_driver.c **** 	inv_error_t result;
 1276              		.loc 1 557 0
 1277 0004 051C     		mov	r5, r0
ARM GAS  C:\Users\ADMINI~1\AppData\Local\Temp\ccA9rFPz.s 			page 36


 559:.\20648_driver\drivers/inv_mems_base_driver.c **** 	result = inv_set_mems_gyro_fullscale(level);
 1278              		.loc 1 559 0
 1279 0006 3073     		strb	r0, [r6, #12]
 560:.\20648_driver\drivers/inv_mems_base_driver.c **** 	result |= inv_set_gyro_sf(base_state.gyro_div, level);
 1280              		.loc 1 560 0
 1281 0008 FFF7FEFF 		bl	inv_set_mems_gyro_fullscale
 1282              	.LVL112:
 561:.\20648_driver\drivers/inv_mems_base_driver.c **** 
 1283              		.loc 1 561 0
 1284 000c 291C     		mov	r1, r5
 560:.\20648_driver\drivers/inv_mems_base_driver.c **** 	result |= inv_set_gyro_sf(base_state.gyro_div, level);
 1285              		.loc 1 560 0
 1286 000e 041C     		mov	r4, r0
 1287              	.LVL113:
 561:.\20648_driver\drivers/inv_mems_base_driver.c **** 
 1288              		.loc 1 561 0
 1289 0010 3079     		ldrb	r0, [r6, #4]
 1290              	.LVL114:
 1291 0012 FFF7FEFF 		bl	inv_set_gyro_sf
 1292              	.LVL115:
 564:.\20648_driver\drivers/inv_mems_base_driver.c **** 
 1293              		.loc 1 564 0
 1294              		@ sp needed
 561:.\20648_driver\drivers/inv_mems_base_driver.c **** 
 1295              		.loc 1 561 0
 1296 0016 2043     		orr	r0, r4
 1297              	.LVL116:
 1298              	.LVL117:
 564:.\20648_driver\drivers/inv_mems_base_driver.c **** 
 1299              		.loc 1 564 0
 1300 0018 70BD     		pop	{r4, r5, r6, pc}
 1301              	.L124:
 1302 001a C046     		.align	2
 1303              	.L123:
 1304 001c 00000000 		.word	base_state
 1305              		.cfi_endproc
 1306              	.LFE18:
 1307              		.size	inv_set_gyro_fullscale, .-inv_set_gyro_fullscale
 1308              		.section	.text.inv_get_accel_fullscale,"ax",%progbits
 1309              		.align	1
 1310              		.global	inv_get_accel_fullscale
 1311              		.code	16
 1312              		.thumb_func
 1313              		.type	inv_get_accel_fullscale, %function
 1314              	inv_get_accel_fullscale:
 1315              	.LFB22:
 624:.\20648_driver\drivers/inv_mems_base_driver.c **** 
 625:.\20648_driver\drivers/inv_mems_base_driver.c **** 
 626:.\20648_driver\drivers/inv_mems_base_driver.c **** inv_error_t inv_set_accel_fullscale(int level)
 627:.\20648_driver\drivers/inv_mems_base_driver.c **** {
 628:.\20648_driver\drivers/inv_mems_base_driver.c **** 	inv_error_t result;
 629:.\20648_driver\drivers/inv_mems_base_driver.c ****     base_state.accel_fullscale = level;
 630:.\20648_driver\drivers/inv_mems_base_driver.c **** 	result = inv_set_mems_accel_fullscale(level);
 631:.\20648_driver\drivers/inv_mems_base_driver.c ****     result |= dmp_set_accel_fsr(2<<level);
 632:.\20648_driver\drivers/inv_mems_base_driver.c ****     result |= dmp_set_accel_scale2(2<<level);
 633:.\20648_driver\drivers/inv_mems_base_driver.c **** 
 634:.\20648_driver\drivers/inv_mems_base_driver.c **** 	return result;
ARM GAS  C:\Users\ADMINI~1\AppData\Local\Temp\ccA9rFPz.s 			page 37


 635:.\20648_driver\drivers/inv_mems_base_driver.c **** }
 636:.\20648_driver\drivers/inv_mems_base_driver.c **** 
 637:.\20648_driver\drivers/inv_mems_base_driver.c **** uint8_t inv_get_accel_fullscale()
 638:.\20648_driver\drivers/inv_mems_base_driver.c **** {
 1316              		.loc 1 638 0
 1317              		.cfi_startproc
 639:.\20648_driver\drivers/inv_mems_base_driver.c **** 	return base_state.accel_fullscale;
 1318              		.loc 1 639 0
 1319 0000 014B     		ldr	r3, .L126
 640:.\20648_driver\drivers/inv_mems_base_driver.c **** }
 1320              		.loc 1 640 0
 1321              		@ sp needed
 639:.\20648_driver\drivers/inv_mems_base_driver.c **** 	return base_state.accel_fullscale;
 1322              		.loc 1 639 0
 1323 0002 587B     		ldrb	r0, [r3, #13]
 1324              		.loc 1 640 0
 1325 0004 7047     		bx	lr
 1326              	.L127:
 1327 0006 C046     		.align	2
 1328              	.L126:
 1329 0008 00000000 		.word	base_state
 1330              		.cfi_endproc
 1331              	.LFE22:
 1332              		.size	inv_get_accel_fullscale, .-inv_get_accel_fullscale
 1333              		.section	.text.inv_set_mems_accel_fullscale,"ax",%progbits
 1334              		.align	1
 1335              		.global	inv_set_mems_accel_fullscale
 1336              		.code	16
 1337              		.thumb_func
 1338              		.type	inv_set_mems_accel_fullscale, %function
 1339              	inv_set_mems_accel_fullscale:
 1340              	.LFB23:
 641:.\20648_driver\drivers/inv_mems_base_driver.c **** 
 642:.\20648_driver\drivers/inv_mems_base_driver.c **** 
 643:.\20648_driver\drivers/inv_mems_base_driver.c **** inv_error_t inv_set_mems_accel_fullscale(int level)
 644:.\20648_driver\drivers/inv_mems_base_driver.c **** {
 1341              		.loc 1 644 0
 1342              		.cfi_startproc
 1343              	.LVL118:
 1344 0000 F7B5     		push	{r0, r1, r2, r4, r5, r6, r7, lr}
 1345              		.cfi_def_cfa_offset 32
 1346              		.cfi_offset 0, -32
 1347              		.cfi_offset 1, -28
 1348              		.cfi_offset 2, -24
 1349              		.cfi_offset 4, -20
 1350              		.cfi_offset 5, -16
 1351              		.cfi_offset 6, -12
 1352              		.cfi_offset 7, -8
 1353              		.cfi_offset 14, -4
 645:.\20648_driver\drivers/inv_mems_base_driver.c **** 	inv_error_t result = 0;
 646:.\20648_driver\drivers/inv_mems_base_driver.c **** 	unsigned char accel_config_1_reg;
 647:.\20648_driver\drivers/inv_mems_base_driver.c ****     unsigned char accel_config_2_reg;
 648:.\20648_driver\drivers/inv_mems_base_driver.c ****     unsigned char dec3_cfg;
 649:.\20648_driver\drivers/inv_mems_base_driver.c ****     
 650:.\20648_driver\drivers/inv_mems_base_driver.c **** 	if (level >= NUM_MPU_AFS)
 651:.\20648_driver\drivers/inv_mems_base_driver.c **** 		return INV_ERROR_INVALID_PARAMETER;
 1354              		.loc 1 651 0
ARM GAS  C:\Users\ADMINI~1\AppData\Local\Temp\ccA9rFPz.s 			page 38


 1355 0002 1626     		mov	r6, #22
 650:.\20648_driver\drivers/inv_mems_base_driver.c **** 		return INV_ERROR_INVALID_PARAMETER;
 1356              		.loc 1 650 0
 1357 0004 0328     		cmp	r0, #3
 1358 0006 37DC     		bgt	.L129
 1359              	.LBB13:
 1360              	.LBB14:
 652:.\20648_driver\drivers/inv_mems_base_driver.c ****     
 653:.\20648_driver\drivers/inv_mems_base_driver.c **** 	result |= inv_read_mems_reg(REG_ACCEL_CONFIG, 1, &accel_config_1_reg);
 1361              		.loc 1 653 0
 1362 0008 6B46     		mov	r3, sp
 1363 000a 071C     		mov	r7, r0
 1364              	.LVL119:
 1365 000c 8A20     		mov	r0, #138
 1366              	.LVL120:
 1367 000e 9C1D     		add	r4, r3, #6
 1368 0010 221C     		mov	r2, r4
 1369 0012 4000     		lsl	r0, r0, #1
 1370 0014 0121     		mov	r1, #1
 1371 0016 FFF7FEFF 		bl	inv_read_mems_reg
 1372              	.LVL121:
 654:.\20648_driver\drivers/inv_mems_base_driver.c **** 	accel_config_1_reg &= 0xC0;
 1373              		.loc 1 654 0
 1374 001a 3F22     		mov	r2, #63
 1375 001c 2378     		ldrb	r3, [r4]
 655:.\20648_driver\drivers/inv_mems_base_driver.c **** 
 656:.\20648_driver\drivers/inv_mems_base_driver.c **** 	if(base_state.accel_averaging > 1)
 1376              		.loc 1 656 0
 1377 001e 174D     		ldr	r5, .L135
 654:.\20648_driver\drivers/inv_mems_base_driver.c **** 	accel_config_1_reg &= 0xC0;
 1378              		.loc 1 654 0
 1379 0020 9343     		bic	r3, r2
 1380              		.loc 1 656 0
 1381 0022 EA7A     		ldrb	r2, [r5, #11]
 653:.\20648_driver\drivers/inv_mems_base_driver.c **** 	accel_config_1_reg &= 0xC0;
 1382              		.loc 1 653 0
 1383 0024 061C     		mov	r6, r0
 1384              	.LVL122:
 654:.\20648_driver\drivers/inv_mems_base_driver.c **** 	accel_config_1_reg &= 0xC0;
 1385              		.loc 1 654 0
 1386 0026 181C     		mov	r0, r3
 1387              	.LVL123:
 1388 0028 7B00     		lsl	r3, r7, #1
 1389              		.loc 1 656 0
 1390 002a 012A     		cmp	r2, #1
 1391 002c 01D9     		bls	.L130
 1392 002e 3922     		mov	r2, #57
 1393 0030 1043     		orr	r0, r2
 1394              	.L130:
 657:.\20648_driver\drivers/inv_mems_base_driver.c ****         accel_config_1_reg |= (7 << 3) | (level << 1) | 1;   //fchoice = 1, filter = 7.
 658:.\20648_driver\drivers/inv_mems_base_driver.c ****     else
 659:.\20648_driver\drivers/inv_mems_base_driver.c ****         accel_config_1_reg |= (level << 1);  //fchoice = 0, filter = 0.
 1395              		.loc 1 659 0
 1396 0032 0343     		orr	r3, r0
 660:.\20648_driver\drivers/inv_mems_base_driver.c ****     
 661:.\20648_driver\drivers/inv_mems_base_driver.c **** 	result |= inv_write_single_mems_reg(REG_ACCEL_CONFIG, accel_config_1_reg);
 1397              		.loc 1 661 0
ARM GAS  C:\Users\ADMINI~1\AppData\Local\Temp\ccA9rFPz.s 			page 39


 1398 0034 8A20     		mov	r0, #138
 659:.\20648_driver\drivers/inv_mems_base_driver.c ****     
 1399              		.loc 1 659 0
 1400 0036 2370     		strb	r3, [r4]
 1401              		.loc 1 661 0
 1402 0038 2178     		ldrb	r1, [r4]
 1403 003a 4000     		lsl	r0, r0, #1
 1404 003c FFF7FEFF 		bl	inv_write_single_mems_reg
 1405              	.LVL124:
 1406 0040 EB7A     		ldrb	r3, [r5, #11]
 1407 0042 0643     		orr	r6, r0
 1408              	.LVL125:
 1409 0044 083B     		sub	r3, r3, #8
 1410 0046 DBB2     		uxtb	r3, r3
 662:.\20648_driver\drivers/inv_mems_base_driver.c ****     
 663:.\20648_driver\drivers/inv_mems_base_driver.c ****     switch(base_state.accel_averaging) {
 1411              		.loc 1 663 0
 1412 0048 0025     		mov	r5, #0
 1413 004a 182B     		cmp	r3, #24
 1414 004c 01D8     		bhi	.L132
 1415 004e 0C4A     		ldr	r2, .L135+4
 1416 0050 D55C     		ldrb	r5, [r2, r3]
 1417              	.L132:
 1418              	.LVL126:
 664:.\20648_driver\drivers/inv_mems_base_driver.c ****     case 1:
 665:.\20648_driver\drivers/inv_mems_base_driver.c ****         dec3_cfg = 0;
 666:.\20648_driver\drivers/inv_mems_base_driver.c ****         break;
 667:.\20648_driver\drivers/inv_mems_base_driver.c ****     case 4:
 668:.\20648_driver\drivers/inv_mems_base_driver.c ****         dec3_cfg = 0;
 669:.\20648_driver\drivers/inv_mems_base_driver.c ****         break;
 670:.\20648_driver\drivers/inv_mems_base_driver.c ****     case 8:
 671:.\20648_driver\drivers/inv_mems_base_driver.c ****         dec3_cfg = 1;
 672:.\20648_driver\drivers/inv_mems_base_driver.c ****         break;
 673:.\20648_driver\drivers/inv_mems_base_driver.c ****     case 16:
 674:.\20648_driver\drivers/inv_mems_base_driver.c ****         dec3_cfg = 2;
 675:.\20648_driver\drivers/inv_mems_base_driver.c ****         break;
 676:.\20648_driver\drivers/inv_mems_base_driver.c ****     case 32:
 677:.\20648_driver\drivers/inv_mems_base_driver.c ****         dec3_cfg = 3;
 678:.\20648_driver\drivers/inv_mems_base_driver.c ****         break;
 679:.\20648_driver\drivers/inv_mems_base_driver.c ****     default:
 680:.\20648_driver\drivers/inv_mems_base_driver.c ****         dec3_cfg = 0;
 681:.\20648_driver\drivers/inv_mems_base_driver.c ****         break;
 682:.\20648_driver\drivers/inv_mems_base_driver.c ****     }
 683:.\20648_driver\drivers/inv_mems_base_driver.c ****     
 684:.\20648_driver\drivers/inv_mems_base_driver.c ****     result |= inv_read_mems_reg(REG_ACCEL_CONFIG_2, 1, &accel_config_2_reg);
 1419              		.loc 1 684 0
 1420 0052 6B46     		mov	r3, sp
 1421 0054 1620     		mov	r0, #22
 1422 0056 DC1D     		add	r4, r3, #7
 1423 0058 0121     		mov	r1, #1
 1424 005a 221C     		mov	r2, r4
 1425 005c FF30     		add	r0, r0, #255
 1426 005e FFF7FEFF 		bl	inv_read_mems_reg
 1427              	.LVL127:
 685:.\20648_driver\drivers/inv_mems_base_driver.c **** 	accel_config_2_reg &= 0xFC;
 1428              		.loc 1 685 0
 1429 0062 0323     		mov	r3, #3
ARM GAS  C:\Users\ADMINI~1\AppData\Local\Temp\ccA9rFPz.s 			page 40


 684:.\20648_driver\drivers/inv_mems_base_driver.c **** 	accel_config_2_reg &= 0xFC;
 1430              		.loc 1 684 0
 1431 0064 0643     		orr	r6, r0
 1432              	.LVL128:
 686:.\20648_driver\drivers/inv_mems_base_driver.c ****     
 687:.\20648_driver\drivers/inv_mems_base_driver.c ****     accel_config_2_reg |=  dec3_cfg;
 688:.\20648_driver\drivers/inv_mems_base_driver.c ****     result |= inv_write_single_mems_reg(REG_ACCEL_CONFIG_2, accel_config_2_reg);
 1433              		.loc 1 688 0
 1434 0066 1620     		mov	r0, #22
 685:.\20648_driver\drivers/inv_mems_base_driver.c ****     
 1435              		.loc 1 685 0
 1436 0068 2178     		ldrb	r1, [r4]
 1437              		.loc 1 688 0
 1438 006a FF30     		add	r0, r0, #255
 685:.\20648_driver\drivers/inv_mems_base_driver.c ****     
 1439              		.loc 1 685 0
 1440 006c 9943     		bic	r1, r3
 687:.\20648_driver\drivers/inv_mems_base_driver.c ****     result |= inv_write_single_mems_reg(REG_ACCEL_CONFIG_2, accel_config_2_reg);
 1441              		.loc 1 687 0
 1442 006e 2943     		orr	r1, r5
 1443 0070 2170     		strb	r1, [r4]
 1444              		.loc 1 688 0
 1445 0072 FFF7FEFF 		bl	inv_write_single_mems_reg
 1446              	.LVL129:
 1447 0076 0643     		orr	r6, r0
 1448              	.LVL130:
 1449              	.L129:
 1450              	.LBE14:
 1451              	.LBE13:
 689:.\20648_driver\drivers/inv_mems_base_driver.c **** 
 690:.\20648_driver\drivers/inv_mems_base_driver.c **** 	return result;
 691:.\20648_driver\drivers/inv_mems_base_driver.c **** }
 1452              		.loc 1 691 0
 1453 0078 301C     		mov	r0, r6
 1454              		@ sp needed
 1455 007a FEBD     		pop	{r1, r2, r3, r4, r5, r6, r7, pc}
 1456              	.L136:
 1457              		.align	2
 1458              	.L135:
 1459 007c 00000000 		.word	base_state
 1460 0080 00000000 		.word	.LANCHOR2
 1461              		.cfi_endproc
 1462              	.LFE23:
 1463              		.size	inv_set_mems_accel_fullscale, .-inv_set_mems_accel_fullscale
 1464              		.section	.text.inv_set_accel_fullscale,"ax",%progbits
 1465              		.align	1
 1466              		.global	inv_set_accel_fullscale
 1467              		.code	16
 1468              		.thumb_func
 1469              		.type	inv_set_accel_fullscale, %function
 1470              	inv_set_accel_fullscale:
 1471              	.LFB21:
 627:.\20648_driver\drivers/inv_mems_base_driver.c **** 	inv_error_t result;
 1472              		.loc 1 627 0
 1473              		.cfi_startproc
 1474              	.LVL131:
 1475 0000 38B5     		push	{r3, r4, r5, lr}
ARM GAS  C:\Users\ADMINI~1\AppData\Local\Temp\ccA9rFPz.s 			page 41


 1476              		.cfi_def_cfa_offset 16
 1477              		.cfi_offset 3, -16
 1478              		.cfi_offset 4, -12
 1479              		.cfi_offset 5, -8
 1480              		.cfi_offset 14, -4
 629:.\20648_driver\drivers/inv_mems_base_driver.c **** 	result = inv_set_mems_accel_fullscale(level);
 1481              		.loc 1 629 0
 1482 0002 094B     		ldr	r3, .L138
 627:.\20648_driver\drivers/inv_mems_base_driver.c **** 	inv_error_t result;
 1483              		.loc 1 627 0
 1484 0004 041C     		mov	r4, r0
 629:.\20648_driver\drivers/inv_mems_base_driver.c **** 	result = inv_set_mems_accel_fullscale(level);
 1485              		.loc 1 629 0
 1486 0006 5873     		strb	r0, [r3, #13]
 630:.\20648_driver\drivers/inv_mems_base_driver.c ****     result |= dmp_set_accel_fsr(2<<level);
 1487              		.loc 1 630 0
 1488 0008 FFF7FEFF 		bl	inv_set_mems_accel_fullscale
 1489              	.LVL132:
 631:.\20648_driver\drivers/inv_mems_base_driver.c ****     result |= dmp_set_accel_scale2(2<<level);
 1490              		.loc 1 631 0
 1491 000c 0223     		mov	r3, #2
 1492 000e A340     		lsl	r3, r3, r4
 1493 0010 1CB2     		sxth	r4, r3
 1494              	.LVL133:
 630:.\20648_driver\drivers/inv_mems_base_driver.c ****     result |= dmp_set_accel_fsr(2<<level);
 1495              		.loc 1 630 0
 1496 0012 051C     		mov	r5, r0
 1497              	.LVL134:
 631:.\20648_driver\drivers/inv_mems_base_driver.c ****     result |= dmp_set_accel_scale2(2<<level);
 1498              		.loc 1 631 0
 1499 0014 201C     		mov	r0, r4
 1500              	.LVL135:
 1501 0016 FFF7FEFF 		bl	dmp_set_accel_fsr
 1502              	.LVL136:
 1503 001a 0543     		orr	r5, r0
 1504              	.LVL137:
 632:.\20648_driver\drivers/inv_mems_base_driver.c **** 
 1505              		.loc 1 632 0
 1506 001c 201C     		mov	r0, r4
 1507 001e FFF7FEFF 		bl	dmp_set_accel_scale2
 1508              	.LVL138:
 635:.\20648_driver\drivers/inv_mems_base_driver.c **** 
 1509              		.loc 1 635 0
 1510              		@ sp needed
 632:.\20648_driver\drivers/inv_mems_base_driver.c **** 
 1511              		.loc 1 632 0
 1512 0022 2843     		orr	r0, r5
 1513              	.LVL139:
 635:.\20648_driver\drivers/inv_mems_base_driver.c **** 
 1514              		.loc 1 635 0
 1515 0024 38BD     		pop	{r3, r4, r5, pc}
 1516              	.L139:
 1517 0026 C046     		.align	2
 1518              	.L138:
 1519 0028 00000000 		.word	base_state
 1520              		.cfi_endproc
 1521              	.LFE21:
ARM GAS  C:\Users\ADMINI~1\AppData\Local\Temp\ccA9rFPz.s 			page 42


 1522              		.size	inv_set_accel_fullscale, .-inv_set_accel_fullscale
 1523              		.section	.text.inv_initialize_lower_driver,"ax",%progbits
 1524              		.align	1
 1525              		.global	inv_initialize_lower_driver
 1526              		.code	16
 1527              		.thumb_func
 1528              		.type	inv_initialize_lower_driver, %function
 1529              	inv_initialize_lower_driver:
 1530              	.LFB9:
 208:.\20648_driver\drivers/inv_mems_base_driver.c ****     inv_error_t result = 0;
 1531              		.loc 1 208 0
 1532              		.cfi_startproc
 1533              	.LVL140:
 1534 0000 F0B5     		push	{r4, r5, r6, r7, lr}
 1535              		.cfi_def_cfa_offset 20
 1536              		.cfi_offset 4, -20
 1537              		.cfi_offset 5, -16
 1538              		.cfi_offset 6, -12
 1539              		.cfi_offset 7, -8
 1540              		.cfi_offset 14, -4
 211:.\20648_driver\drivers/inv_mems_base_driver.c **** 
 1541              		.loc 1 211 0
 1542 0002 0025     		mov	r5, #0
 214:.\20648_driver\drivers/inv_mems_base_driver.c ****     base_state.pwr_mgmt_1 = BIT_CLK_PLL;
 1543              		.loc 1 214 0
 1544 0004 6A4C     		ldr	r4, .L150
 208:.\20648_driver\drivers/inv_mems_base_driver.c ****     inv_error_t result = 0;
 1545              		.loc 1 208 0
 1546 0006 8FB0     		sub	sp, sp, #60
 1547              		.cfi_def_cfa_offset 80
 211:.\20648_driver\drivers/inv_mems_base_driver.c **** 
 1548              		.loc 1 211 0
 1549 0008 0CAB     		add	r3, sp, #48
 208:.\20648_driver\drivers/inv_mems_base_driver.c ****     inv_error_t result = 0;
 1550              		.loc 1 208 0
 1551 000a 0090     		str	r0, [sp]
 1552 000c 0191     		str	r1, [sp, #4]
 214:.\20648_driver\drivers/inv_mems_base_driver.c ****     base_state.pwr_mgmt_1 = BIT_CLK_PLL;
 1553              		.loc 1 214 0
 1554 000e 1222     		mov	r2, #18
 1555 0010 291C     		mov	r1, r5
 1556              	.LVL141:
 1557 0012 201C     		mov	r0, r4
 1558              	.LVL142:
 211:.\20648_driver\drivers/inv_mems_base_driver.c **** 
 1559              		.loc 1 211 0
 1560 0014 DF1D     		add	r7, r3, #7
 1561 0016 DD71     		strb	r5, [r3, #7]
 214:.\20648_driver\drivers/inv_mems_base_driver.c ****     base_state.pwr_mgmt_1 = BIT_CLK_PLL;
 1562              		.loc 1 214 0
 1563 0018 FFF7FEFF 		bl	memset
 1564              	.LVL143:
 216:.\20648_driver\drivers/inv_mems_base_driver.c ****     base_state.serial_interface = type;
 1565              		.loc 1 216 0
 1566 001c 7F23     		mov	r3, #127
 1567 001e A370     		strb	r3, [r4, #2]
 217:.\20648_driver\drivers/inv_mems_base_driver.c ****     result |= inv_read_mems_reg(REG_WHO_AM_I, 1, &WhoAmI);
ARM GAS  C:\Users\ADMINI~1\AppData\Local\Temp\ccA9rFPz.s 			page 43


 1568              		.loc 1 217 0
 1569 0020 6B46     		mov	r3, sp
 215:.\20648_driver\drivers/inv_mems_base_driver.c ****     base_state.pwr_mgmt_2 = BIT_PWR_ACCEL_STBY | BIT_PWR_GYRO_STBY | BIT_PWR_PRESSURE_STBY;
 1570              		.loc 1 215 0
 1571 0022 0126     		mov	r6, #1
 217:.\20648_driver\drivers/inv_mems_base_driver.c ****     result |= inv_read_mems_reg(REG_WHO_AM_I, 1, &WhoAmI);
 1572              		.loc 1 217 0
 1573 0024 1B78     		ldrb	r3, [r3]
 218:.\20648_driver\drivers/inv_mems_base_driver.c ****     result |= inv_read_mems_reg(REG_USER_CTRL, 1, &base_state.user_ctrl);
 1574              		.loc 1 218 0
 1575 0026 3A1C     		mov	r2, r7
 1576 0028 311C     		mov	r1, r6
 1577 002a 281C     		mov	r0, r5
 217:.\20648_driver\drivers/inv_mems_base_driver.c ****     result |= inv_read_mems_reg(REG_WHO_AM_I, 1, &WhoAmI);
 1578              		.loc 1 217 0
 1579 002c E373     		strb	r3, [r4, #15]
 215:.\20648_driver\drivers/inv_mems_base_driver.c ****     base_state.pwr_mgmt_2 = BIT_PWR_ACCEL_STBY | BIT_PWR_GYRO_STBY | BIT_PWR_PRESSURE_STBY;
 1580              		.loc 1 215 0
 1581 002e 6670     		strb	r6, [r4, #1]
 218:.\20648_driver\drivers/inv_mems_base_driver.c ****     result |= inv_read_mems_reg(REG_USER_CTRL, 1, &base_state.user_ctrl);
 1582              		.loc 1 218 0
 1583 0030 FFF7FEFF 		bl	inv_read_mems_reg
 1584              	.LVL144:
 219:.\20648_driver\drivers/inv_mems_base_driver.c **** 
 1585              		.loc 1 219 0
 1586 0034 311C     		mov	r1, r6
 1587 0036 5F4A     		ldr	r2, .L150+4
 218:.\20648_driver\drivers/inv_mems_base_driver.c ****     result |= inv_read_mems_reg(REG_USER_CTRL, 1, &base_state.user_ctrl);
 1588              		.loc 1 218 0
 1589 0038 071C     		mov	r7, r0
 1590              	.LVL145:
 219:.\20648_driver\drivers/inv_mems_base_driver.c **** 
 1591              		.loc 1 219 0
 1592 003a 0320     		mov	r0, #3
 1593              	.LVL146:
 1594 003c FFF7FEFF 		bl	inv_read_mems_reg
 1595              	.LVL147:
 1596 0040 0743     		orr	r7, r0
 1597              	.LVL148:
 221:.\20648_driver\drivers/inv_mems_base_driver.c **** 
 1598              		.loc 1 221 0
 1599 0042 FFF7FEFF 		bl	inv_wakeup_mems
 1600              	.LVL149:
 227:.\20648_driver\drivers/inv_mems_base_driver.c **** #endif
 1601              		.loc 1 227 0
 1602 0046 3023     		mov	r3, #48
 1603 0048 5B4A     		ldr	r2, .L150+8
 221:.\20648_driver\drivers/inv_mems_base_driver.c **** 
 1604              		.loc 1 221 0
 1605 004a 0743     		orr	r7, r0
 1606              	.LVL150:
 227:.\20648_driver\drivers/inv_mems_base_driver.c **** #endif
 1607              		.loc 1 227 0
 1608 004c 1372     		strb	r3, [r2, #8]
 229:.\20648_driver\drivers/inv_mems_base_driver.c **** 
 1609              		.loc 1 229 0
 1610 004e 0520     		mov	r0, #5
ARM GAS  C:\Users\ADMINI~1\AppData\Local\Temp\ccA9rFPz.s 			page 44


 1611 0050 0832     		add	r2, r2, #8
 1612 0052 311C     		mov	r1, r6
 1613 0054 FFF7FEFF 		bl	inv_write_mems_reg
 1614              	.LVL151:
 232:.\20648_driver\drivers/inv_mems_base_driver.c **** 	    base_state.user_ctrl = BIT_I2C_IF_DIS;
 1615              		.loc 1 232 0
 1616 0058 E37B     		ldrb	r3, [r4, #15]
 229:.\20648_driver\drivers/inv_mems_base_driver.c **** 
 1617              		.loc 1 229 0
 1618 005a 0743     		orr	r7, r0
 1619              	.LVL152:
 232:.\20648_driver\drivers/inv_mems_base_driver.c **** 	    base_state.user_ctrl = BIT_I2C_IF_DIS;
 1620              		.loc 1 232 0
 1621 005c 022B     		cmp	r3, #2
 1622 005e 02D1     		bne	.L141
 233:.\20648_driver\drivers/inv_mems_base_driver.c ****     else
 1623              		.loc 1 233 0
 1624 0060 0E33     		add	r3, r3, #14
 1625 0062 E370     		strb	r3, [r4, #3]
 1626 0064 00E0     		b	.L142
 1627              	.L141:
 235:.\20648_driver\drivers/inv_mems_base_driver.c **** 
 1628              		.loc 1 235 0
 1629 0066 E570     		strb	r5, [r4, #3]
 1630              	.L142:
 237:.\20648_driver\drivers/inv_mems_base_driver.c **** 
 1631              		.loc 1 237 0
 1632 0068 E178     		ldrb	r1, [r4, #3]
 1633 006a 0320     		mov	r0, #3
 1634 006c FFF7FEFF 		bl	inv_write_single_mems_reg
 1635              	.LVL153:
 1636 0070 0743     		orr	r7, r0
 1637              	.LVL154:
 240:.\20648_driver\drivers/inv_mems_base_driver.c ****     
 1638              		.loc 1 240 0
 1639 0072 0198     		ldr	r0, [sp, #4]
 1640 0074 FFF7FEFF 		bl	inv_load_firmware
 1641              	.LVL155:
 1642 0078 0743     		orr	r7, r0
 1643              	.LVL156:
 1644 007a 381E     		sub	r0, r7, #0
 242:.\20648_driver\drivers/inv_mems_base_driver.c **** 	{
 1645              		.loc 1 242 0
 1646 007c 00D0     		beq	.LCB1405
 1647 007e 95E0     		b	.L143	@long jump
 1648              	.LCB1405:
 248:.\20648_driver\drivers/inv_mems_base_driver.c **** 	}
 1649              		.loc 1 248 0
 1650 0080 0222     		mov	r2, #2
 1651 0082 A37B     		ldrb	r3, [r4, #14]
 262:.\20648_driver\drivers/inv_mems_base_driver.c ****     result |= inv_write_mems_reg(REG_INT_ENABLE_2, 1, &data); // Enable FIFO Overflow Interrupt
 1652              		.loc 1 262 0
 1653 0084 0125     		mov	r5, #1
 248:.\20648_driver\drivers/inv_mems_base_driver.c **** 	}
 1654              		.loc 1 248 0
 1655 0086 1343     		orr	r3, r2
 1656 0088 A373     		strb	r3, [r4, #14]
ARM GAS  C:\Users\ADMINI~1\AppData\Local\Temp\ccA9rFPz.s 			page 45


 251:.\20648_driver\drivers/inv_mems_base_driver.c ****     // Turn off all sensors on DMP by default.
 1657              		.loc 1 251 0
 1658 008a FFF7FEFF 		bl	inv_set_dmp_address
 1659              	.LVL157:
 1660 008e 0090     		str	r0, [sp]
 1661              	.LVL158:
 254:.\20648_driver\drivers/inv_mems_base_driver.c **** 	
 1662              		.loc 1 254 0
 1663 0090 FFF7FEFF 		bl	dmp_reset_control_registers
 1664              	.LVL159:
 1665 0094 0190     		str	r0, [sp, #4]
 1666              	.LVL160:
 257:.\20648_driver\drivers/inv_mems_base_driver.c **** 
 1667              		.loc 1 257 0
 1668 0096 C820     		mov	r0, #200
 1669              	.LVL161:
 1670 0098 8000     		lsl	r0, r0, #2
 1671 009a FFF7FEFF 		bl	dmp_set_FIFO_watermark
 1672              	.LVL162:
 260:.\20648_driver\drivers/inv_mems_base_driver.c ****     result |= inv_write_mems_reg(REG_INT_ENABLE, 1, &data); // Enable DMP Interrupt
 1673              		.loc 1 260 0
 1674 009e 464A     		ldr	r2, .L150+8
 1675 00a0 0223     		mov	r3, #2
 261:.\20648_driver\drivers/inv_mems_base_driver.c ****     data = 0x1;
 1676              		.loc 1 261 0
 1677 00a2 161C     		mov	r6, r2
 1678 00a4 0836     		add	r6, r6, #8
 260:.\20648_driver\drivers/inv_mems_base_driver.c ****     result |= inv_write_mems_reg(REG_INT_ENABLE, 1, &data); // Enable DMP Interrupt
 1679              		.loc 1 260 0
 1680 00a6 1372     		strb	r3, [r2, #8]
 257:.\20648_driver\drivers/inv_mems_base_driver.c **** 
 1681              		.loc 1 257 0
 1682 00a8 0290     		str	r0, [sp, #8]
 1683              	.LVL163:
 261:.\20648_driver\drivers/inv_mems_base_driver.c ****     data = 0x1;
 1684              		.loc 1 261 0
 1685 00aa 321C     		mov	r2, r6
 1686 00ac 0121     		mov	r1, #1
 1687 00ae 1020     		mov	r0, #16
 1688              	.LVL164:
 1689 00b0 FFF7FEFF 		bl	inv_write_mems_reg
 1690              	.LVL165:
 262:.\20648_driver\drivers/inv_mems_base_driver.c ****     result |= inv_write_mems_reg(REG_INT_ENABLE_2, 1, &data); // Enable FIFO Overflow Interrupt
 1691              		.loc 1 262 0
 1692 00b4 404B     		ldr	r3, .L150+8
 263:.\20648_driver\drivers/inv_mems_base_driver.c **** 
 1693              		.loc 1 263 0
 1694 00b6 321C     		mov	r2, r6
 261:.\20648_driver\drivers/inv_mems_base_driver.c ****     data = 0x1;
 1695              		.loc 1 261 0
 1696 00b8 0390     		str	r0, [sp, #12]
 1697              	.LVL166:
 263:.\20648_driver\drivers/inv_mems_base_driver.c **** 
 1698              		.loc 1 263 0
 1699 00ba 291C     		mov	r1, r5
 1700 00bc 1220     		mov	r0, #18
 1701              	.LVL167:
ARM GAS  C:\Users\ADMINI~1\AppData\Local\Temp\ccA9rFPz.s 			page 46


 262:.\20648_driver\drivers/inv_mems_base_driver.c ****     result |= inv_write_mems_reg(REG_INT_ENABLE_2, 1, &data); // Enable FIFO Overflow Interrupt
 1702              		.loc 1 262 0
 1703 00be 1D72     		strb	r5, [r3, #8]
 263:.\20648_driver\drivers/inv_mems_base_driver.c **** 
 1704              		.loc 1 263 0
 1705 00c0 FFF7FEFF 		bl	inv_write_mems_reg
 1706              	.LVL168:
 269:.\20648_driver\drivers/inv_mems_base_driver.c ****     result |= inv_write_mems_reg(REG_SINGLE_FIFO_PRIORITY_SEL, 1, &data);
 1707              		.loc 1 269 0
 1708 00c4 E423     		mov	r3, #228
 1709 00c6 3C4A     		ldr	r2, .L150+8
 263:.\20648_driver\drivers/inv_mems_base_driver.c **** 
 1710              		.loc 1 263 0
 1711 00c8 0490     		str	r0, [sp, #16]
 1712              	.LVL169:
 269:.\20648_driver\drivers/inv_mems_base_driver.c ****     result |= inv_write_mems_reg(REG_SINGLE_FIFO_PRIORITY_SEL, 1, &data);
 1713              		.loc 1 269 0
 1714 00ca 1372     		strb	r3, [r2, #8]
 270:.\20648_driver\drivers/inv_mems_base_driver.c **** 
 1715              		.loc 1 270 0
 1716 00cc 291C     		mov	r1, r5
 1717 00ce 321C     		mov	r2, r6
 1718 00d0 2620     		mov	r0, #38
 1719              	.LVL170:
 1720 00d2 FFF7FEFF 		bl	inv_write_mems_reg
 1721              	.LVL171:
 273:.\20648_driver\drivers/inv_mems_base_driver.c **** 	data |= 0x08;
 1722              		.loc 1 273 0
 1723 00d6 321C     		mov	r2, r6
 270:.\20648_driver\drivers/inv_mems_base_driver.c **** 
 1724              		.loc 1 270 0
 1725 00d8 0590     		str	r0, [sp, #20]
 1726              	.LVL172:
 273:.\20648_driver\drivers/inv_mems_base_driver.c **** 	data |= 0x08;
 1727              		.loc 1 273 0
 1728 00da 291C     		mov	r1, r5
 1729 00dc 7520     		mov	r0, #117
 1730              	.LVL173:
 1731 00de FFF7FEFF 		bl	inv_read_mems_reg
 1732              	.LVL174:
 274:.\20648_driver\drivers/inv_mems_base_driver.c **** 	inv_write_mems_reg(REG_HW_FIX_DISABLE,1,&data);
 1733              		.loc 1 274 0
 1734 00e2 0822     		mov	r2, #8
 1735 00e4 344B     		ldr	r3, .L150+8
 275:.\20648_driver\drivers/inv_mems_base_driver.c **** #endif
 1736              		.loc 1 275 0
 1737 00e6 291C     		mov	r1, r5
 274:.\20648_driver\drivers/inv_mems_base_driver.c **** 	inv_write_mems_reg(REG_HW_FIX_DISABLE,1,&data);
 1738              		.loc 1 274 0
 1739 00e8 1B7A     		ldrb	r3, [r3, #8]
 275:.\20648_driver\drivers/inv_mems_base_driver.c **** #endif
 1740              		.loc 1 275 0
 1741 00ea 7520     		mov	r0, #117
 274:.\20648_driver\drivers/inv_mems_base_driver.c **** 	inv_write_mems_reg(REG_HW_FIX_DISABLE,1,&data);
 1742              		.loc 1 274 0
 1743 00ec 1343     		orr	r3, r2
 1744 00ee 324A     		ldr	r2, .L150+8
ARM GAS  C:\Users\ADMINI~1\AppData\Local\Temp\ccA9rFPz.s 			page 47


 1745 00f0 1372     		strb	r3, [r2, #8]
 275:.\20648_driver\drivers/inv_mems_base_driver.c **** #endif
 1746              		.loc 1 275 0
 1747 00f2 321C     		mov	r2, r6
 1748 00f4 FFF7FEFF 		bl	inv_write_mems_reg
 1749              	.LVL175:
 281:.\20648_driver\drivers/inv_mems_base_driver.c ****     inv_set_accel_divider(FIFO_DIVIDER);      //Initial sampling rate 1125Hz/10+1 = 102Hz.
 1750              		.loc 1 281 0
 1751 00f8 0A20     		mov	r0, #10
 279:.\20648_driver\drivers/inv_mems_base_driver.c ****     base_state.gyro_averaging = 1;  //Change this value if higher sensor sample avergaing is requir
 1752              		.loc 1 279 0
 1753 00fa E572     		strb	r5, [r4, #11]
 280:.\20648_driver\drivers/inv_mems_base_driver.c **** 	inv_set_gyro_divider(FIFO_DIVIDER);       //Initial sampling rate 1125Hz/10+1 = 102Hz.
 1754              		.loc 1 280 0
 1755 00fc A572     		strb	r5, [r4, #10]
 281:.\20648_driver\drivers/inv_mems_base_driver.c ****     inv_set_accel_divider(FIFO_DIVIDER);      //Initial sampling rate 1125Hz/10+1 = 102Hz.
 1756              		.loc 1 281 0
 1757 00fe FFF7FEFF 		bl	inv_set_gyro_divider
 1758              	.LVL176:
 282:.\20648_driver\drivers/inv_mems_base_driver.c **** 	result |= inv_set_gyro_fullscale(MPU_FS_2000dps);
 1759              		.loc 1 282 0
 1760 0102 0A20     		mov	r0, #10
 1761 0104 FFF7FEFF 		bl	inv_set_accel_divider
 1762              	.LVL177:
 283:.\20648_driver\drivers/inv_mems_base_driver.c **** 	result |= inv_set_accel_fullscale(MPU_FS_2G);
 1763              		.loc 1 283 0
 1764 0108 0320     		mov	r0, #3
 1765 010a FFF7FEFF 		bl	inv_set_gyro_fullscale
 1766              	.LVL178:
 1767 010e 0690     		str	r0, [sp, #24]
 1768              	.LVL179:
 284:.\20648_driver\drivers/inv_mems_base_driver.c **** 
 1769              		.loc 1 284 0
 1770 0110 381C     		mov	r0, r7
 1771              	.LVL180:
 1772 0112 FFF7FEFF 		bl	inv_set_accel_fullscale
 1773              	.LVL181:
 287:.\20648_driver\drivers/inv_mems_base_driver.c ****     result |= inv_write_single_mems_reg(REG_FIFO_RST, 0x1f); // Reset all FIFOs.
 1774              		.loc 1 287 0
 1775 0116 391C     		mov	r1, r7
 284:.\20648_driver\drivers/inv_mems_base_driver.c **** 
 1776              		.loc 1 284 0
 1777 0118 0790     		str	r0, [sp, #28]
 1778              	.LVL182:
 287:.\20648_driver\drivers/inv_mems_base_driver.c ****     result |= inv_write_single_mems_reg(REG_FIFO_RST, 0x1f); // Reset all FIFOs.
 1779              		.loc 1 287 0
 1780 011a 7620     		mov	r0, #118
 1781              	.LVL183:
 1782 011c FFF7FEFF 		bl	inv_write_single_mems_reg
 1783              	.LVL184:
 288:.\20648_driver\drivers/inv_mems_base_driver.c ****     result |= inv_write_single_mems_reg(REG_FIFO_RST, 0x1e); // Keep all but Gyro FIFO in reset.
 1784              		.loc 1 288 0
 1785 0120 1F21     		mov	r1, #31
 287:.\20648_driver\drivers/inv_mems_base_driver.c ****     result |= inv_write_single_mems_reg(REG_FIFO_RST, 0x1f); // Reset all FIFOs.
 1786              		.loc 1 287 0
 1787 0122 0890     		str	r0, [sp, #32]
 1788              	.LVL185:
ARM GAS  C:\Users\ADMINI~1\AppData\Local\Temp\ccA9rFPz.s 			page 48


 288:.\20648_driver\drivers/inv_mems_base_driver.c ****     result |= inv_write_single_mems_reg(REG_FIFO_RST, 0x1e); // Keep all but Gyro FIFO in reset.
 1789              		.loc 1 288 0
 1790 0124 6820     		mov	r0, #104
 1791              	.LVL186:
 1792 0126 FFF7FEFF 		bl	inv_write_single_mems_reg
 1793              	.LVL187:
 289:.\20648_driver\drivers/inv_mems_base_driver.c ****     result |= inv_write_single_mems_reg(REG_FIFO_EN, 0x0); // Slave FIFO turned off.
 1794              		.loc 1 289 0
 1795 012a 1E21     		mov	r1, #30
 288:.\20648_driver\drivers/inv_mems_base_driver.c ****     result |= inv_write_single_mems_reg(REG_FIFO_RST, 0x1e); // Keep all but Gyro FIFO in reset.
 1796              		.loc 1 288 0
 1797 012c 0990     		str	r0, [sp, #36]
 1798              	.LVL188:
 289:.\20648_driver\drivers/inv_mems_base_driver.c ****     result |= inv_write_single_mems_reg(REG_FIFO_EN, 0x0); // Slave FIFO turned off.
 1799              		.loc 1 289 0
 1800 012e 6820     		mov	r0, #104
 1801              	.LVL189:
 1802 0130 FFF7FEFF 		bl	inv_write_single_mems_reg
 1803              	.LVL190:
 290:.\20648_driver\drivers/inv_mems_base_driver.c ****     result |= inv_write_single_mems_reg(REG_FIFO_EN_2, 0x0); // Hardware FIFO turned off.
 1804              		.loc 1 290 0
 1805 0134 391C     		mov	r1, r7
 289:.\20648_driver\drivers/inv_mems_base_driver.c ****     result |= inv_write_single_mems_reg(REG_FIFO_EN, 0x0); // Slave FIFO turned off.
 1806              		.loc 1 289 0
 1807 0136 0A90     		str	r0, [sp, #40]
 1808              	.LVL191:
 290:.\20648_driver\drivers/inv_mems_base_driver.c ****     result |= inv_write_single_mems_reg(REG_FIFO_EN_2, 0x0); // Hardware FIFO turned off.
 1809              		.loc 1 290 0
 1810 0138 6620     		mov	r0, #102
 1811              	.LVL192:
 1812 013a FFF7FEFF 		bl	inv_write_single_mems_reg
 1813              	.LVL193:
 291:.\20648_driver\drivers/inv_mems_base_driver.c ****     
 1814              		.loc 1 291 0
 1815 013e 391C     		mov	r1, r7
 290:.\20648_driver\drivers/inv_mems_base_driver.c ****     result |= inv_write_single_mems_reg(REG_FIFO_EN_2, 0x0); // Hardware FIFO turned off.
 1816              		.loc 1 290 0
 1817 0140 0B90     		str	r0, [sp, #44]
 1818              	.LVL194:
 291:.\20648_driver\drivers/inv_mems_base_driver.c ****     
 1819              		.loc 1 291 0
 1820 0142 6720     		mov	r0, #103
 1821              	.LVL195:
 1822 0144 FFF7FEFF 		bl	inv_write_single_mems_reg
 1823              	.LVL196:
 293:.\20648_driver\drivers/inv_mems_base_driver.c **** #if (MEMS_CHIP == HW_ICM20648)
 1824              		.loc 1 293 0
 1825 0148 321C     		mov	r2, r6
 291:.\20648_driver\drivers/inv_mems_base_driver.c ****     
 1826              		.loc 1 291 0
 1827 014a 071C     		mov	r7, r0
 1828              	.LVL197:
 293:.\20648_driver\drivers/inv_mems_base_driver.c **** #if (MEMS_CHIP == HW_ICM20648)
 1829              		.loc 1 293 0
 1830 014c 291C     		mov	r1, r5
 1831 014e 8620     		mov	r0, #134
 1832 0150 FFF7FEFF 		bl	inv_read_mems
ARM GAS  C:\Users\ADMINI~1\AppData\Local\Temp\ccA9rFPz.s 			page 49


 1833              	.LVL198:
 296:.\20648_driver\drivers/inv_mems_base_driver.c **** 		return INV_ERROR_INVALID_CONFIGURATION;
 1834              		.loc 1 296 0
 1835 0154 0822     		mov	r2, #8
 1836 0156 184B     		ldr	r3, .L150+8
 293:.\20648_driver\drivers/inv_mems_base_driver.c **** #if (MEMS_CHIP == HW_ICM20648)
 1837              		.loc 1 293 0
 1838 0158 061C     		mov	r6, r0
 296:.\20648_driver\drivers/inv_mems_base_driver.c **** 		return INV_ERROR_INVALID_CONFIGURATION;
 1839              		.loc 1 296 0
 1840 015a 1B7A     		ldrb	r3, [r3, #8]
 297:.\20648_driver\drivers/inv_mems_base_driver.c **** #endif
 1841              		.loc 1 297 0
 1842 015c 3120     		mov	r0, #49
 296:.\20648_driver\drivers/inv_mems_base_driver.c **** 		return INV_ERROR_INVALID_CONFIGURATION;
 1843              		.loc 1 296 0
 1844 015e 1342     		tst	r3, r2
 1845 0160 24D1     		bne	.L143
 300:.\20648_driver\drivers/inv_mems_base_driver.c **** 	
 1846              		.loc 1 300 0
 1847 0162 A37B     		ldrb	r3, [r4, #14]
 1848 0164 2B43     		orr	r3, r5
 1849 0166 A373     		strb	r3, [r4, #14]
 308:.\20648_driver\drivers/inv_mems_base_driver.c **** 		inv_set_chip_power_state(CHIP_LP_ENABLE, 1);
 1850              		.loc 1 308 0
 1851 0168 2B42     		tst	r3, r5
 1852 016a 03D0     		beq	.L144
 309:.\20648_driver\drivers/inv_mems_base_driver.c **** 
 1853              		.loc 1 309 0
 1854 016c 2F38     		sub	r0, r0, #47
 1855 016e 291C     		mov	r1, r5
 1856 0170 FFF7FEFF 		bl	inv_set_chip_power_state
 1857              	.LVL199:
 1858              	.L144:
 311:.\20648_driver\drivers/inv_mems_base_driver.c ****         
 1859              		.loc 1 311 0
 1860 0174 FFF7FEFF 		bl	inv_sleep_mems
 1861              	.LVL200:
 254:.\20648_driver\drivers/inv_mems_base_driver.c **** 	
 1862              		.loc 1 254 0
 1863 0178 009A     		ldr	r2, [sp]
 1864 017a 019B     		ldr	r3, [sp, #4]
 1865 017c 1343     		orr	r3, r2
 257:.\20648_driver\drivers/inv_mems_base_driver.c **** 
 1866              		.loc 1 257 0
 1867 017e 029A     		ldr	r2, [sp, #8]
 1868 0180 1343     		orr	r3, r2
 261:.\20648_driver\drivers/inv_mems_base_driver.c ****     data = 0x1;
 1869              		.loc 1 261 0
 1870 0182 039A     		ldr	r2, [sp, #12]
 1871 0184 1343     		orr	r3, r2
 263:.\20648_driver\drivers/inv_mems_base_driver.c **** 
 1872              		.loc 1 263 0
 1873 0186 049A     		ldr	r2, [sp, #16]
 1874 0188 1343     		orr	r3, r2
 270:.\20648_driver\drivers/inv_mems_base_driver.c **** 
 1875              		.loc 1 270 0
ARM GAS  C:\Users\ADMINI~1\AppData\Local\Temp\ccA9rFPz.s 			page 50


 1876 018a 059A     		ldr	r2, [sp, #20]
 1877 018c 1343     		orr	r3, r2
 283:.\20648_driver\drivers/inv_mems_base_driver.c **** 	result |= inv_set_accel_fullscale(MPU_FS_2G);
 1878              		.loc 1 283 0
 1879 018e 069A     		ldr	r2, [sp, #24]
 1880 0190 1343     		orr	r3, r2
 284:.\20648_driver\drivers/inv_mems_base_driver.c **** 
 1881              		.loc 1 284 0
 1882 0192 079A     		ldr	r2, [sp, #28]
 1883 0194 1343     		orr	r3, r2
 287:.\20648_driver\drivers/inv_mems_base_driver.c ****     result |= inv_write_single_mems_reg(REG_FIFO_RST, 0x1f); // Reset all FIFOs.
 1884              		.loc 1 287 0
 1885 0196 089A     		ldr	r2, [sp, #32]
 1886 0198 1343     		orr	r3, r2
 288:.\20648_driver\drivers/inv_mems_base_driver.c ****     result |= inv_write_single_mems_reg(REG_FIFO_RST, 0x1e); // Keep all but Gyro FIFO in reset.
 1887              		.loc 1 288 0
 1888 019a 099A     		ldr	r2, [sp, #36]
 1889 019c 1343     		orr	r3, r2
 289:.\20648_driver\drivers/inv_mems_base_driver.c ****     result |= inv_write_single_mems_reg(REG_FIFO_EN, 0x0); // Slave FIFO turned off.
 1890              		.loc 1 289 0
 1891 019e 0A9A     		ldr	r2, [sp, #40]
 1892 01a0 1343     		orr	r3, r2
 290:.\20648_driver\drivers/inv_mems_base_driver.c ****     result |= inv_write_single_mems_reg(REG_FIFO_EN_2, 0x0); // Hardware FIFO turned off.
 1893              		.loc 1 290 0
 1894 01a2 0B9A     		ldr	r2, [sp, #44]
 1895 01a4 1343     		orr	r3, r2
 291:.\20648_driver\drivers/inv_mems_base_driver.c ****     
 1896              		.loc 1 291 0
 1897 01a6 1F43     		orr	r7, r3
 293:.\20648_driver\drivers/inv_mems_base_driver.c **** #if (MEMS_CHIP == HW_ICM20648)
 1898              		.loc 1 293 0
 1899 01a8 3E43     		orr	r6, r7
 311:.\20648_driver\drivers/inv_mems_base_driver.c ****         
 1900              		.loc 1 311 0
 1901 01aa 3043     		orr	r0, r6
 1902              	.L143:
 314:.\20648_driver\drivers/inv_mems_base_driver.c **** 
 1903              		.loc 1 314 0
 1904 01ac 0FB0     		add	sp, sp, #60
 1905              		@ sp needed
 1906 01ae F0BD     		pop	{r4, r5, r6, r7, pc}
 1907              	.L151:
 1908              		.align	2
 1909              	.L150:
 1910 01b0 00000000 		.word	base_state
 1911 01b4 03000000 		.word	base_state+3
 1912 01b8 00000000 		.word	.LANCHOR1
 1913              		.cfi_endproc
 1914              	.LFE9:
 1915              		.size	inv_initialize_lower_driver, .-inv_initialize_lower_driver
 1916              		.section	.text.inv_enable_mems_hw_sensors,"ax",%progbits
 1917              		.align	1
 1918              		.global	inv_enable_mems_hw_sensors
 1919              		.code	16
 1920              		.thumb_func
 1921              		.type	inv_enable_mems_hw_sensors, %function
 1922              	inv_enable_mems_hw_sensors:
ARM GAS  C:\Users\ADMINI~1\AppData\Local\Temp\ccA9rFPz.s 			page 51


 1923              	.LFB24:
 692:.\20648_driver\drivers/inv_mems_base_driver.c **** 
 693:.\20648_driver\drivers/inv_mems_base_driver.c **** 
 694:.\20648_driver\drivers/inv_mems_base_driver.c **** inv_error_t inv_enable_mems_hw_sensors(int bit_mask)
 695:.\20648_driver\drivers/inv_mems_base_driver.c **** {
 1924              		.loc 1 695 0
 1925              		.cfi_startproc
 1926              	.LVL201:
 696:.\20648_driver\drivers/inv_mems_base_driver.c **** 	inv_error_t rc = INV_SUCCESS;
 697:.\20648_driver\drivers/inv_mems_base_driver.c **** 
 698:.\20648_driver\drivers/inv_mems_base_driver.c ****     if ((base_state.pwr_mgmt_2 == (BIT_PWR_ACCEL_STBY | BIT_PWR_GYRO_STBY | BIT_PWR_PRESSURE_STBY))
 1927              		.loc 1 698 0
 1928 0000 8022     		mov	r2, #128
 695:.\20648_driver\drivers/inv_mems_base_driver.c **** 	inv_error_t rc = INV_SUCCESS;
 1929              		.loc 1 695 0
 1930 0002 10B5     		push	{r4, lr}
 1931              		.cfi_def_cfa_offset 8
 1932              		.cfi_offset 4, -8
 1933              		.cfi_offset 14, -4
 1934              		.loc 1 698 0
 1935 0004 114B     		ldr	r3, .L160
 1936 0006 0240     		and	r2, r0
 1937 0008 9978     		ldrb	r1, [r3, #2]
 695:.\20648_driver\drivers/inv_mems_base_driver.c **** 	inv_error_t rc = INV_SUCCESS;
 1938              		.loc 1 695 0
 1939 000a 041C     		mov	r4, r0
 1940              		.loc 1 698 0
 1941 000c 7F39     		sub	r1, r1, #127
 1942 000e 4842     		neg	r0, r1
 1943 0010 4141     		adc	r1, r1, r0
 1944              	.LVL202:
 696:.\20648_driver\drivers/inv_mems_base_driver.c **** 	inv_error_t rc = INV_SUCCESS;
 1945              		.loc 1 696 0
 1946 0012 0020     		mov	r0, #0
 1947              		.loc 1 698 0
 1948 0014 0A43     		orr	r2, r1
 1949 0016 8242     		cmp	r2, r0
 1950 0018 16D0     		beq	.L153
 699:.\20648_driver\drivers/inv_mems_base_driver.c ****         // All sensors off, or override is on
 700:.\20648_driver\drivers/inv_mems_base_driver.c ****         base_state.pwr_mgmt_2 = 0; // Zero means all sensors are on
 701:.\20648_driver\drivers/inv_mems_base_driver.c ****         // Gyro and Accel were off
 702:.\20648_driver\drivers/inv_mems_base_driver.c ****         if ((bit_mask & 2) == 0) {
 1951              		.loc 1 702 0
 1952 001a A207     		lsl	r2, r4, #30
 1953 001c 01D5     		bpl	.L154
 700:.\20648_driver\drivers/inv_mems_base_driver.c ****         // Gyro and Accel were off
 1954              		.loc 1 700 0
 1955 001e 9870     		strb	r0, [r3, #2]
 1956 0020 01E0     		b	.L155
 1957              	.L154:
 703:.\20648_driver\drivers/inv_mems_base_driver.c ****             base_state.pwr_mgmt_2 = BIT_PWR_ACCEL_STBY; // Turn off accel
 1958              		.loc 1 703 0
 1959 0022 3822     		mov	r2, #56
 1960 0024 9A70     		strb	r2, [r3, #2]
 1961              	.L155:
 704:.\20648_driver\drivers/inv_mems_base_driver.c ****         }
 705:.\20648_driver\drivers/inv_mems_base_driver.c ****         if ((bit_mask & 1) == 0) {
ARM GAS  C:\Users\ADMINI~1\AppData\Local\Temp\ccA9rFPz.s 			page 52


 1962              		.loc 1 705 0
 1963 0026 E207     		lsl	r2, r4, #31
 1964 0028 03D4     		bmi	.L156
 706:.\20648_driver\drivers/inv_mems_base_driver.c ****             base_state.pwr_mgmt_2 |= BIT_PWR_GYRO_STBY; // Turn off gyro
 1965              		.loc 1 706 0
 1966 002a 0721     		mov	r1, #7
 1967 002c 9A78     		ldrb	r2, [r3, #2]
 1968 002e 0A43     		orr	r2, r1
 1969 0030 9A70     		strb	r2, [r3, #2]
 1970              	.L156:
 707:.\20648_driver\drivers/inv_mems_base_driver.c ****         }
 708:.\20648_driver\drivers/inv_mems_base_driver.c ****         if ((bit_mask & 4) == 0) {
 1971              		.loc 1 708 0
 1972 0032 6207     		lsl	r2, r4, #29
 1973 0034 03D4     		bmi	.L157
 709:.\20648_driver\drivers/inv_mems_base_driver.c ****             base_state.pwr_mgmt_2 |= BIT_PWR_PRESSURE_STBY; // Turn off pressure
 1974              		.loc 1 709 0
 1975 0036 4021     		mov	r1, #64
 1976 0038 9A78     		ldrb	r2, [r3, #2]
 1977 003a 0A43     		orr	r2, r1
 1978 003c 9A70     		strb	r2, [r3, #2]
 1979              	.L157:
 710:.\20648_driver\drivers/inv_mems_base_driver.c ****         }
 711:.\20648_driver\drivers/inv_mems_base_driver.c **** 
 712:.\20648_driver\drivers/inv_mems_base_driver.c ****         rc |= inv_write_mems_reg(REG_PWR_MGMT_2, 1, &base_state.pwr_mgmt_2);
 1980              		.loc 1 712 0
 1981 003e 0720     		mov	r0, #7
 1982 0040 0121     		mov	r1, #1
 1983 0042 034A     		ldr	r2, .L160+4
 1984 0044 FFF7FEFF 		bl	inv_write_mems_reg
 1985              	.LVL203:
 1986              	.L153:
 713:.\20648_driver\drivers/inv_mems_base_driver.c ****     }
 714:.\20648_driver\drivers/inv_mems_base_driver.c **** 	
 715:.\20648_driver\drivers/inv_mems_base_driver.c **** #if defined MEMS_SECONDARY_DEVICE
 716:.\20648_driver\drivers/inv_mems_base_driver.c **** 	{
 717:.\20648_driver\drivers/inv_mems_base_driver.c **** 		if (bit_mask & SECONDARY_COMPASS_AVAILABLE) {
 718:.\20648_driver\drivers/inv_mems_base_driver.c **** 			rc |= inv_resume_akm();
 719:.\20648_driver\drivers/inv_mems_base_driver.c **** 		} else
 720:.\20648_driver\drivers/inv_mems_base_driver.c **** 			rc |= inv_suspend_akm();
 721:.\20648_driver\drivers/inv_mems_base_driver.c **** 
 722:.\20648_driver\drivers/inv_mems_base_driver.c **** 		if (bit_mask & SECONDARY_PRESSURE_AVAILABLE) {
 723:.\20648_driver\drivers/inv_mems_base_driver.c **** 			rc |= inv_mems_pressure_resume_bmp();
 724:.\20648_driver\drivers/inv_mems_base_driver.c **** 		} else {
 725:.\20648_driver\drivers/inv_mems_base_driver.c **** 			rc |= inv_mems_pressure_suspend_bmp();
 726:.\20648_driver\drivers/inv_mems_base_driver.c **** 		}
 727:.\20648_driver\drivers/inv_mems_base_driver.c **** 	}
 728:.\20648_driver\drivers/inv_mems_base_driver.c **** #endif
 729:.\20648_driver\drivers/inv_mems_base_driver.c ****     return rc;
 730:.\20648_driver\drivers/inv_mems_base_driver.c **** }
 1987              		.loc 1 730 0
 1988              		@ sp needed
 1989              	.LVL204:
 1990 0048 10BD     		pop	{r4, pc}
 1991              	.L161:
 1992 004a C046     		.align	2
 1993              	.L160:
ARM GAS  C:\Users\ADMINI~1\AppData\Local\Temp\ccA9rFPz.s 			page 53


 1994 004c 00000000 		.word	base_state
 1995 0050 02000000 		.word	base_state+2
 1996              		.cfi_endproc
 1997              	.LFE24:
 1998              		.size	inv_enable_mems_hw_sensors, .-inv_enable_mems_hw_sensors
 1999              		.section	.text.inv_set_serial_comm,"ax",%progbits
 2000              		.align	1
 2001              		.global	inv_set_serial_comm
 2002              		.code	16
 2003              		.thumb_func
 2004              		.type	inv_set_serial_comm, %function
 2005              	inv_set_serial_comm:
 2006              	.LFB25:
 731:.\20648_driver\drivers/inv_mems_base_driver.c **** 
 732:.\20648_driver\drivers/inv_mems_base_driver.c **** inv_error_t inv_set_serial_comm(enum MEMS_SERIAL_INTERFACE type)
 733:.\20648_driver\drivers/inv_mems_base_driver.c **** {
 2007              		.loc 1 733 0
 2008              		.cfi_startproc
 2009              	.LVL205:
 734:.\20648_driver\drivers/inv_mems_base_driver.c ****     base_state.serial_interface = type;
 2010              		.loc 1 734 0
 2011 0000 014B     		ldr	r3, .L163
 735:.\20648_driver\drivers/inv_mems_base_driver.c **** 
 736:.\20648_driver\drivers/inv_mems_base_driver.c **** 	return INV_SUCCESS;
 737:.\20648_driver\drivers/inv_mems_base_driver.c **** }
 2012              		.loc 1 737 0
 2013              		@ sp needed
 734:.\20648_driver\drivers/inv_mems_base_driver.c ****     base_state.serial_interface = type;
 2014              		.loc 1 734 0
 2015 0002 D873     		strb	r0, [r3, #15]
 2016              		.loc 1 737 0
 2017 0004 0020     		mov	r0, #0
 2018              	.LVL206:
 2019 0006 7047     		bx	lr
 2020              	.L164:
 2021              		.align	2
 2022              	.L163:
 2023 0008 00000000 		.word	base_state
 2024              		.cfi_endproc
 2025              	.LFE25:
 2026              		.size	inv_set_serial_comm, .-inv_set_serial_comm
 2027              		.section	.text.inv_set_int1_assertion,"ax",%progbits
 2028              		.align	1
 2029              		.global	inv_set_int1_assertion
 2030              		.code	16
 2031              		.thumb_func
 2032              		.type	inv_set_int1_assertion, %function
 2033              	inv_set_int1_assertion:
 2034              	.LFB26:
 738:.\20648_driver\drivers/inv_mems_base_driver.c **** 
 739:.\20648_driver\drivers/inv_mems_base_driver.c **** 
 740:.\20648_driver\drivers/inv_mems_base_driver.c **** inv_error_t inv_set_int1_assertion(int enable)
 741:.\20648_driver\drivers/inv_mems_base_driver.c **** {
 2035              		.loc 1 741 0
 2036              		.cfi_startproc
 2037              	.LVL207:
 2038 0000 73B5     		push	{r0, r1, r4, r5, r6, lr}
ARM GAS  C:\Users\ADMINI~1\AppData\Local\Temp\ccA9rFPz.s 			page 54


 2039              		.cfi_def_cfa_offset 24
 2040              		.cfi_offset 0, -24
 2041              		.cfi_offset 1, -20
 2042              		.cfi_offset 4, -16
 2043              		.cfi_offset 5, -12
 2044              		.cfi_offset 6, -8
 2045              		.cfi_offset 14, -4
 742:.\20648_driver\drivers/inv_mems_base_driver.c **** 	inv_error_t   result = 0;
 743:.\20648_driver\drivers/inv_mems_base_driver.c **** 	// unsigned char reg_pin_cfg;
 744:.\20648_driver\drivers/inv_mems_base_driver.c **** 	unsigned char reg_int_enable;
 745:.\20648_driver\drivers/inv_mems_base_driver.c **** 
 746:.\20648_driver\drivers/inv_mems_base_driver.c **** 	// INT1 held until interrupt status is cleared
 747:.\20648_driver\drivers/inv_mems_base_driver.c **** 	/*
 748:.\20648_driver\drivers/inv_mems_base_driver.c **** 	result         |= inv_read_mems_reg(REG_INT_PIN_CFG, 1, &reg_pin_cfg);
 749:.\20648_driver\drivers/inv_mems_base_driver.c **** 	reg_pin_cfg    |= BIT_INT_LATCH_EN ;	// Latchen : BIT5 held the IT until register is read
 750:.\20648_driver\drivers/inv_mems_base_driver.c **** 	result         |= inv_write_single_mems_reg(REG_INT_PIN_CFG, reg_pin_cfg);
 751:.\20648_driver\drivers/inv_mems_base_driver.c **** 	*/
 752:.\20648_driver\drivers/inv_mems_base_driver.c **** 
 753:.\20648_driver\drivers/inv_mems_base_driver.c **** 	// Set int1 enable
 754:.\20648_driver\drivers/inv_mems_base_driver.c **** 	result         |= inv_read_mems_reg(REG_INT_ENABLE, 1, &reg_int_enable);
 2046              		.loc 1 754 0
 2047 0002 6B46     		mov	r3, sp
 2048 0004 DC1D     		add	r4, r3, #7
 2049 0006 221C     		mov	r2, r4
 741:.\20648_driver\drivers/inv_mems_base_driver.c **** 	inv_error_t   result = 0;
 2050              		.loc 1 741 0
 2051 0008 061C     		mov	r6, r0
 2052              		.loc 1 754 0
 2053 000a 0121     		mov	r1, #1
 2054 000c 1020     		mov	r0, #16
 2055              	.LVL208:
 2056 000e FFF7FEFF 		bl	inv_read_mems_reg
 2057              	.LVL209:
 2058 0012 2378     		ldrb	r3, [r4]
 2059 0014 051C     		mov	r5, r0
 2060              	.LVL210:
 2061 0016 0222     		mov	r2, #2
 755:.\20648_driver\drivers/inv_mems_base_driver.c **** 
 756:.\20648_driver\drivers/inv_mems_base_driver.c **** 	if(enable)
 2062              		.loc 1 756 0
 2063 0018 002E     		cmp	r6, #0
 2064 001a 01D0     		beq	.L166
 757:.\20648_driver\drivers/inv_mems_base_driver.c **** 	{ // Enable bit
 758:.\20648_driver\drivers/inv_mems_base_driver.c **** 	  reg_int_enable |= BIT_DMP_INT_EN;
 2065              		.loc 1 758 0
 2066 001c 1343     		orr	r3, r2
 2067 001e 00E0     		b	.L168
 2068              	.L166:
 759:.\20648_driver\drivers/inv_mems_base_driver.c **** 	}
 760:.\20648_driver\drivers/inv_mems_base_driver.c **** 	else
 761:.\20648_driver\drivers/inv_mems_base_driver.c **** 	{ // Disable bit
 762:.\20648_driver\drivers/inv_mems_base_driver.c **** 	  reg_int_enable &= ~BIT_DMP_INT_EN;
 2069              		.loc 1 762 0
 2070 0020 9343     		bic	r3, r2
 2071              	.L168:
 2072 0022 2370     		strb	r3, [r4]
 763:.\20648_driver\drivers/inv_mems_base_driver.c **** 	}
ARM GAS  C:\Users\ADMINI~1\AppData\Local\Temp\ccA9rFPz.s 			page 55


 764:.\20648_driver\drivers/inv_mems_base_driver.c **** 
 765:.\20648_driver\drivers/inv_mems_base_driver.c **** 	result         |= inv_write_single_mems_reg(REG_INT_ENABLE, reg_int_enable);
 2073              		.loc 1 765 0
 2074 0024 2178     		ldrb	r1, [r4]
 2075 0026 1020     		mov	r0, #16
 2076              	.LVL211:
 2077 0028 FFF7FEFF 		bl	inv_write_single_mems_reg
 2078              	.LVL212:
 766:.\20648_driver\drivers/inv_mems_base_driver.c **** 
 767:.\20648_driver\drivers/inv_mems_base_driver.c **** 	return result;
 768:.\20648_driver\drivers/inv_mems_base_driver.c **** }
 2079              		.loc 1 768 0
 2080              		@ sp needed
 765:.\20648_driver\drivers/inv_mems_base_driver.c **** 
 2081              		.loc 1 765 0
 2082 002c 2843     		orr	r0, r5
 2083              	.LVL213:
 2084              	.LVL214:
 2085              		.loc 1 768 0
 2086 002e 76BD     		pop	{r1, r2, r4, r5, r6, pc}
 2087              		.cfi_endproc
 2088              	.LFE26:
 2089              		.size	inv_set_int1_assertion, .-inv_set_int1_assertion
 2090              		.section	.text.inv_accel_read_hw_reg_data,"ax",%progbits
 2091              		.align	1
 2092              		.global	inv_accel_read_hw_reg_data
 2093              		.code	16
 2094              		.thumb_func
 2095              		.type	inv_accel_read_hw_reg_data, %function
 2096              	inv_accel_read_hw_reg_data:
 2097              	.LFB27:
 769:.\20648_driver\drivers/inv_mems_base_driver.c **** 
 770:.\20648_driver\drivers/inv_mems_base_driver.c **** 
 771:.\20648_driver\drivers/inv_mems_base_driver.c **** /**
 772:.\20648_driver\drivers/inv_mems_base_driver.c **** *  @brief      Read accel data stored in hw reg
 773:.\20648_driver\drivers/inv_mems_base_driver.c **** *  @param[in]  level  See mpu_accel_fs
 774:.\20648_driver\drivers/inv_mems_base_driver.c **** *  @return     INV_SUCCESS if successful
 775:.\20648_driver\drivers/inv_mems_base_driver.c **** */
 776:.\20648_driver\drivers/inv_mems_base_driver.c **** inv_error_t inv_accel_read_hw_reg_data(short accel_hw_reg_data[3])
 777:.\20648_driver\drivers/inv_mems_base_driver.c **** {
 2098              		.loc 1 777 0
 2099              		.cfi_startproc
 2100              	.LVL215:
 2101 0000 13B5     		push	{r0, r1, r4, lr}
 2102              		.cfi_def_cfa_offset 16
 2103              		.cfi_offset 0, -16
 2104              		.cfi_offset 1, -12
 2105              		.cfi_offset 4, -8
 2106              		.cfi_offset 14, -4
 2107              		.loc 1 777 0
 2108 0002 041C     		mov	r4, r0
 778:.\20648_driver\drivers/inv_mems_base_driver.c **** 	inv_error_t   result        = 0;
 779:.\20648_driver\drivers/inv_mems_base_driver.c ****     uint8_t       accel_data[6];      // Store 6 bytes for that
 780:.\20648_driver\drivers/inv_mems_base_driver.c **** 
 781:.\20648_driver\drivers/inv_mems_base_driver.c ****     // read mem regs
 782:.\20648_driver\drivers/inv_mems_base_driver.c **** 	result         = inv_read_mems_reg(REG_ACCEL_XOUT_H_SH, 6, (unsigned char *) &accel_data);
 2109              		.loc 1 782 0
ARM GAS  C:\Users\ADMINI~1\AppData\Local\Temp\ccA9rFPz.s 			page 56


 2110 0004 6A46     		mov	r2, sp
 2111 0006 0621     		mov	r1, #6
 2112 0008 2D20     		mov	r0, #45
 2113              	.LVL216:
 2114 000a FFF7FEFF 		bl	inv_read_mems_reg
 2115              	.LVL217:
 783:.\20648_driver\drivers/inv_mems_base_driver.c **** 
 784:.\20648_driver\drivers/inv_mems_base_driver.c **** 	// Assign axys !
 785:.\20648_driver\drivers/inv_mems_base_driver.c **** 	accel_hw_reg_data[0] = (accel_data[0] << 8) + accel_data[1];
 2116              		.loc 1 785 0
 2117 000e 6B46     		mov	r3, sp
 2118 0010 6A46     		mov	r2, sp
 2119 0012 1B78     		ldrb	r3, [r3]
 2120 0014 5278     		ldrb	r2, [r2, #1]
 2121 0016 1B02     		lsl	r3, r3, #8
 2122 0018 D318     		add	r3, r2, r3
 2123 001a 2380     		strh	r3, [r4]
 786:.\20648_driver\drivers/inv_mems_base_driver.c **** 	accel_hw_reg_data[1] = (accel_data[2] << 8) + accel_data[3];
 2124              		.loc 1 786 0
 2125 001c 6B46     		mov	r3, sp
 2126 001e 6A46     		mov	r2, sp
 2127 0020 9B78     		ldrb	r3, [r3, #2]
 2128 0022 D278     		ldrb	r2, [r2, #3]
 2129 0024 1B02     		lsl	r3, r3, #8
 2130 0026 D318     		add	r3, r2, r3
 2131 0028 6380     		strh	r3, [r4, #2]
 787:.\20648_driver\drivers/inv_mems_base_driver.c **** 	accel_hw_reg_data[2] = (accel_data[4] << 8) + accel_data[5];
 2132              		.loc 1 787 0
 2133 002a 6B46     		mov	r3, sp
 2134 002c 6A46     		mov	r2, sp
 2135 002e 1B79     		ldrb	r3, [r3, #4]
 2136 0030 5279     		ldrb	r2, [r2, #5]
 2137 0032 1B02     		lsl	r3, r3, #8
 2138 0034 D318     		add	r3, r2, r3
 2139 0036 A380     		strh	r3, [r4, #4]
 788:.\20648_driver\drivers/inv_mems_base_driver.c **** 
 789:.\20648_driver\drivers/inv_mems_base_driver.c **** 	return result;
 790:.\20648_driver\drivers/inv_mems_base_driver.c **** }
 2140              		.loc 1 790 0
 2141              		@ sp needed
 2142              	.LVL218:
 2143 0038 16BD     		pop	{r1, r2, r4, pc}
 2144              		.cfi_endproc
 2145              	.LFE27:
 2146              		.size	inv_accel_read_hw_reg_data, .-inv_accel_read_hw_reg_data
 2147              		.comm	base_state,18,2
 2148              		.section	.rodata
 2149              		.set	.LANCHOR2,. + 0
 2150              		.type	CSWTCH.48, %object
 2151              		.size	CSWTCH.48, 25
 2152              	CSWTCH.48:
 2153 0000 01       		.byte	1
 2154 0001 00       		.byte	0
 2155 0002 00       		.byte	0
 2156 0003 00       		.byte	0
 2157 0004 00       		.byte	0
 2158 0005 00       		.byte	0
ARM GAS  C:\Users\ADMINI~1\AppData\Local\Temp\ccA9rFPz.s 			page 57


 2159 0006 00       		.byte	0
 2160 0007 00       		.byte	0
 2161 0008 02       		.byte	2
 2162 0009 00       		.byte	0
 2163 000a 00       		.byte	0
 2164 000b 00       		.byte	0
 2165 000c 00       		.byte	0
 2166 000d 00       		.byte	0
 2167 000e 00       		.byte	0
 2168 000f 00       		.byte	0
 2169 0010 00       		.byte	0
 2170 0011 00       		.byte	0
 2171 0012 00       		.byte	0
 2172 0013 00       		.byte	0
 2173 0014 00       		.byte	0
 2174 0015 00       		.byte	0
 2175 0016 00       		.byte	0
 2176 0017 00       		.byte	0
 2177 0018 03       		.byte	3
 2178              		.data
 2179              		.set	.LANCHOR0,. + 0
 2180              		.type	sAllowLpEn, %object
 2181              		.size	sAllowLpEn, 1
 2182              	sAllowLpEn:
 2183 0000 01       		.byte	1
 2184              		.bss
 2185              		.align	2
 2186              		.set	.LANCHOR1,. + 0
 2187              		.type	lIsInited.5366, %object
 2188              		.size	lIsInited.5366, 1
 2189              	lIsInited.5366:
 2190 0000 00       		.space	1
 2191 0001 000000   		.space	3
 2192              		.type	lLastGyroSf.5411, %object
 2193              		.size	lLastGyroSf.5411, 4
 2194              	lLastGyroSf.5411:
 2195 0004 00000000 		.space	4
 2196              		.type	data.5372, %object
 2197              		.size	data.5372, 1
 2198              	data.5372:
 2199 0008 00       		.space	1
 2200 0009 000000   		.text
 2201              	.Letext0:
 2202              		.file 2 "c:\\program files (x86)\\cypress\\psoc creator\\3.3\\psoc creator\\import\\gnu\\arm\\4.9.
 2203              		.file 3 "c:\\program files (x86)\\cypress\\psoc creator\\3.3\\psoc creator\\import\\gnu\\arm\\4.9.
 2204              		.file 4 "./.\\20648_driver\\drivers\\inv_mems_defines.h"
 2205              		.file 5 "./.\\20648_driver\\common\\mltypes.h"
 2206              		.file 6 "./.\\20648_driver\\drivers\\inv_mems_base_driver.h"
 2207              		.file 7 "./.\\20648_driver\\drivers\\inv_mems_base_control.h"
 2208              		.file 8 "./.\\20648_driver\\common\\inv_mems_drv_hook.h"
 2209              		.file 9 "./.\\20648_driver\\drivers\\inv_mems_transport.h"
 2210              		.file 10 "./.\\20648_driver\\dmp3\\inv_mems_interface_mapping.h"