ARM GAS  C:\Users\ADMINI~1\AppData\Local\Temp\ccjTNAQQ.s 			page 1


   1              		.cpu cortex-m0
   2              		.fpu softvfp
   3              		.eabi_attribute 20, 1
   4              		.eabi_attribute 21, 1
   5              		.eabi_attribute 23, 3
   6              		.eabi_attribute 24, 1
   7              		.eabi_attribute 25, 1
   8              		.eabi_attribute 26, 1
   9              		.eabi_attribute 30, 4
  10              		.eabi_attribute 34, 0
  11              		.eabi_attribute 18, 4
  12              		.code	16
  13              		.file	"inv_mems_base_control.c"
  14              		.text
  15              	.Ltext0:
  16              		.cfi_sections	.debug_frame
  17              		.global	__aeabi_idiv
  18              		.section	.text.DividerRateSet,"ax",%progbits
  19              		.align	1
  20              		.code	16
  21              		.thumb_func
  22              		.type	DividerRateSet, %function
  23              	DividerRateSet:
  24              	.LFB2:
  25              		.file 1 ".\\20648_driver\\drivers\\inv_mems_base_control.c"
   1:.\20648_driver\drivers/inv_mems_base_control.c **** /*
   2:.\20648_driver\drivers/inv_mems_base_control.c **** * _________________________________________________________________________________________________
   3:.\20648_driver\drivers/inv_mems_base_control.c **** * Copyright © 2014-2015 InvenSense Inc. Portions Copyright © 2014-2015 Movea. All rights reserved.
   4:.\20648_driver\drivers/inv_mems_base_control.c **** * This software, related documentation and any modifications thereto (collectively “Software”) is s
   5:.\20648_driver\drivers/inv_mems_base_control.c **** * to InvenSense and its licensors' intellectual property rights under U.S. and international copyri
   6:.\20648_driver\drivers/inv_mems_base_control.c **** * other intellectual property rights laws.
   7:.\20648_driver\drivers/inv_mems_base_control.c **** * InvenSense and its licensors retain all intellectual property and proprietary rights in and to th
   8:.\20648_driver\drivers/inv_mems_base_control.c **** * and any use, reproduction, disclosure or distribution of the Software without an express license
   9:.\20648_driver\drivers/inv_mems_base_control.c **** * agreement from InvenSense is strictly prohibited.
  10:.\20648_driver\drivers/inv_mems_base_control.c **** * _________________________________________________________________________________________________
  11:.\20648_driver\drivers/inv_mems_base_control.c **** */
  12:.\20648_driver\drivers/inv_mems_base_control.c **** 
  13:.\20648_driver\drivers/inv_mems_base_control.c **** #ifndef MEMS_20609
  14:.\20648_driver\drivers/inv_mems_base_control.c **** 
  15:.\20648_driver\drivers/inv_mems_base_control.c **** #include ".\20648_driver\drivers\inv_mems_base_control.h"
  16:.\20648_driver\drivers/inv_mems_base_control.c **** 
  17:.\20648_driver\drivers/inv_mems_base_control.c **** #include ".\20648_driver\invn\mlmath.h"
  18:.\20648_driver\drivers/inv_mems_base_control.c **** #include ".\20648_driver\dmp3\inv_mems_interface_mapping.h"
  19:.\20648_driver\drivers/inv_mems_base_control.c **** 
  20:.\20648_driver\drivers/inv_mems_base_control.c **** #if defined MEMS_SECONDARY_DEVICE
  21:.\20648_driver\drivers/inv_mems_base_control.c **** #include "driver/inv_mems_slave_compass.h"
  22:.\20648_driver\drivers/inv_mems_base_control.c **** #include "driver/inv_mems_slave_pressure.h"
  23:.\20648_driver\drivers/inv_mems_base_control.c **** #include "driver/inv_mems_secondary_transport.h"
  24:.\20648_driver\drivers/inv_mems_base_control.c **** #endif
  25:.\20648_driver\drivers/inv_mems_base_control.c **** 
  26:.\20648_driver\drivers/inv_mems_base_control.c **** #if defined MEMS_AUGMENTED_SENSORS
  27:.\20648_driver\drivers/inv_mems_base_control.c **** #include "driver/inv_mems_augmented_sensors.h"
  28:.\20648_driver\drivers/inv_mems_base_control.c **** #endif
  29:.\20648_driver\drivers/inv_mems_base_control.c **** 
  30:.\20648_driver\drivers/inv_mems_base_control.c **** #include ".\20648_driver\invn\invn_types.h"
  31:.\20648_driver\drivers/inv_mems_base_control.c **** 
  32:.\20648_driver\drivers/inv_mems_base_control.c **** //#define INV_SENSOR_MULTIFIFO
ARM GAS  C:\Users\ADMINI~1\AppData\Local\Temp\ccjTNAQQ.s 			page 2


  33:.\20648_driver\drivers/inv_mems_base_control.c **** #define INV_ODR_MIN_DELAY   200     // Limited by 8-bit HW Gyro rate divider register "GYRO_SMPLRT_
  34:.\20648_driver\drivers/inv_mems_base_control.c **** 
  35:.\20648_driver\drivers/inv_mems_base_control.c **** static inv_error_t inv_enable_sensor_internal(unsigned char androidSensor, unsigned char enable, ch
  36:.\20648_driver\drivers/inv_mems_base_control.c **** #if defined MEMS_SECONDARY_DEVICE
  37:.\20648_driver\drivers/inv_mems_base_control.c **** static unsigned char sensor_needs_compass(unsigned char androidSensor);
  38:.\20648_driver\drivers/inv_mems_base_control.c **** static unsigned char sensor_needs_pressure(unsigned char androidSensor);
  39:.\20648_driver\drivers/inv_mems_base_control.c **** #endif
  40:.\20648_driver\drivers/inv_mems_base_control.c **** 
  41:.\20648_driver\drivers/inv_mems_base_control.c **** static unsigned short inv_dmp_odr_dividers[INV_SENSOR_NUM_MAX] = {0};	// Actual ODRs in dividers fr
  42:.\20648_driver\drivers/inv_mems_base_control.c **** static unsigned short inv_dmp_odr_delays[INV_SENSOR_NUM_MAX] =          // Desired ODRs in millisec
  43:.\20648_driver\drivers/inv_mems_base_control.c **** {
  44:.\20648_driver\drivers/inv_mems_base_control.c ****     INV_ODR_MIN_DELAY,      // INV_SENSOR_ACCEL
  45:.\20648_driver\drivers/inv_mems_base_control.c ****     INV_ODR_MIN_DELAY,      // INV_SENSOR_GYRO,        
  46:.\20648_driver\drivers/inv_mems_base_control.c ****     INV_ODR_MIN_DELAY,      // INV_SENSOR_LPQ,  
  47:.\20648_driver\drivers/inv_mems_base_control.c ****     INV_ODR_MIN_DELAY,      // INV_SENSOR_COMPASS,
  48:.\20648_driver\drivers/inv_mems_base_control.c ****     INV_ODR_MIN_DELAY,      // INV_SENSOR_ALS,
  49:.\20648_driver\drivers/inv_mems_base_control.c ****     INV_ODR_MIN_DELAY,      // INV_SENSOR_SIXQ,
  50:.\20648_driver\drivers/inv_mems_base_control.c ****     INV_ODR_MIN_DELAY,      // INV_SENSOR_NINEQ,
  51:.\20648_driver\drivers/inv_mems_base_control.c ****     INV_ODR_MIN_DELAY,      // INV_SENSOR_GEOMAG,
  52:.\20648_driver\drivers/inv_mems_base_control.c ****     INV_ODR_MIN_DELAY,      // INV_SENSOR_PEDQ,
  53:.\20648_driver\drivers/inv_mems_base_control.c ****     INV_ODR_MIN_DELAY,      // INV_SENSOR_PRESSURE,
  54:.\20648_driver\drivers/inv_mems_base_control.c ****     INV_ODR_MIN_DELAY,      // INV_SENSOR_CALIB_GYRO,
  55:.\20648_driver\drivers/inv_mems_base_control.c ****     INV_ODR_MIN_DELAY,      // INV_SENSOR_CALIB_COMPASS,
  56:.\20648_driver\drivers/inv_mems_base_control.c ****     INV_ODR_MIN_DELAY,      // INV_SENSOR_STEP_COUNTER,
  57:.\20648_driver\drivers/inv_mems_base_control.c ****     INV_ODR_MIN_DELAY,      // INV_SENSOR_ACTIVITY_CLASSIFIER,
  58:.\20648_driver\drivers/inv_mems_base_control.c ****     INV_ODR_MIN_DELAY,      // INV_SENSOR_FLIP_PICKUP,
  59:.\20648_driver\drivers/inv_mems_base_control.c ****     INV_ODR_MIN_DELAY,      // INV_SENSOR_BRING_TO_SEE,
  60:.\20648_driver\drivers/inv_mems_base_control.c **** 
  61:.\20648_driver\drivers/inv_mems_base_control.c ****     INV_ODR_MIN_DELAY,      // INV_SENSOR_SIXQ_accel,
  62:.\20648_driver\drivers/inv_mems_base_control.c ****     INV_ODR_MIN_DELAY,      // INV_SENSOR_NINEQ_accel,
  63:.\20648_driver\drivers/inv_mems_base_control.c ****     INV_ODR_MIN_DELAY,      // INV_SENSOR_GEOMAG_cpass,
  64:.\20648_driver\drivers/inv_mems_base_control.c ****     INV_ODR_MIN_DELAY,      // INV_SENSOR_NINEQ_cpass,
  65:.\20648_driver\drivers/inv_mems_base_control.c **** 
  66:.\20648_driver\drivers/inv_mems_base_control.c ****     INV_ODR_MIN_DELAY,      // INV_SENSOR_WAKEUP_ACCEL,
  67:.\20648_driver\drivers/inv_mems_base_control.c ****     INV_ODR_MIN_DELAY,      // INV_SENSOR_WAKEUP_GYRO,        
  68:.\20648_driver\drivers/inv_mems_base_control.c ****     //INV_ODR_MIN_DELAY,    // INV_SENSOR_WAKEUP_LPQ,
  69:.\20648_driver\drivers/inv_mems_base_control.c ****     INV_ODR_MIN_DELAY,      // INV_SENSOR_WAKEUP_COMPASS,
  70:.\20648_driver\drivers/inv_mems_base_control.c ****     INV_ODR_MIN_DELAY,      // INV_SENSOR_WAKEUP_ALS,
  71:.\20648_driver\drivers/inv_mems_base_control.c ****     INV_ODR_MIN_DELAY,      // INV_SENSOR_WAKEUP_SIXQ,
  72:.\20648_driver\drivers/inv_mems_base_control.c ****     INV_ODR_MIN_DELAY,      // INV_SENSOR_WAKEUP_NINEQ,
  73:.\20648_driver\drivers/inv_mems_base_control.c ****     INV_ODR_MIN_DELAY,      // INV_SENSOR_WAKEUP_GEOMAG,
  74:.\20648_driver\drivers/inv_mems_base_control.c ****     INV_ODR_MIN_DELAY,      // INV_SENSOR_WAKEUP_PEDQ,
  75:.\20648_driver\drivers/inv_mems_base_control.c ****     INV_ODR_MIN_DELAY,      // INV_SENSOR_WAKEUP_PRESSURE,
  76:.\20648_driver\drivers/inv_mems_base_control.c ****     INV_ODR_MIN_DELAY,      // INV_SENSOR_WAKEUP_CALIB_GYRO,
  77:.\20648_driver\drivers/inv_mems_base_control.c ****     INV_ODR_MIN_DELAY,      // INV_SENSOR_WAKEUP_CALIB_COMPASS,
  78:.\20648_driver\drivers/inv_mems_base_control.c ****     INV_ODR_MIN_DELAY,      // INV_SENSOR_WAKEUP_STEP_COUNTER,
  79:.\20648_driver\drivers/inv_mems_base_control.c ****     INV_ODR_MIN_DELAY,      // INV_SENSOR_WAKEUP_TILT_DETECTOR,
  80:.\20648_driver\drivers/inv_mems_base_control.c ****     //INV_ODR_MIN_DELAY,    // INV_SENSOR_WAKEUP_ACTIVITY_CLASSIFIER,
  81:.\20648_driver\drivers/inv_mems_base_control.c **** 
  82:.\20648_driver\drivers/inv_mems_base_control.c ****     INV_ODR_MIN_DELAY,      // INV_SENSOR_WAKEUP_SIXQ_accel,
  83:.\20648_driver\drivers/inv_mems_base_control.c ****     INV_ODR_MIN_DELAY,      // INV_SENSOR_WAKEUP_NINEQ_accel,
  84:.\20648_driver\drivers/inv_mems_base_control.c ****     INV_ODR_MIN_DELAY,      // INV_SENSOR_WAKEUP_GEOMAG_cpass,
  85:.\20648_driver\drivers/inv_mems_base_control.c ****     INV_ODR_MIN_DELAY,      // INV_SENSOR_WAKEUP_NINEQ_cpass,
  86:.\20648_driver\drivers/inv_mems_base_control.c **** };
  87:.\20648_driver\drivers/inv_mems_base_control.c **** 
  88:.\20648_driver\drivers/inv_mems_base_control.c **** #if (MEMS_CHIP == HW_ICM20645_E || MEMS_CHIP == HW_ICM20648)
  89:.\20648_driver\drivers/inv_mems_base_control.c **** static unsigned short bac_on = 0; // indicates if ANDROID_SENSOR_ACTIVITY_CLASSIFICATON is on
ARM GAS  C:\Users\ADMINI~1\AppData\Local\Temp\ccjTNAQQ.s 			page 3


  90:.\20648_driver\drivers/inv_mems_base_control.c **** static unsigned short bac_status = 0;
  91:.\20648_driver\drivers/inv_mems_base_control.c **** #endif
  92:.\20648_driver\drivers/inv_mems_base_control.c **** static unsigned short b2s_status = 0;
  93:.\20648_driver\drivers/inv_mems_base_control.c **** static unsigned short flip_pickup_status = 0;
  94:.\20648_driver\drivers/inv_mems_base_control.c **** static unsigned short inv_sensor_control = 0;
  95:.\20648_driver\drivers/inv_mems_base_control.c **** static unsigned short inv_sensor_control2 = 0;
  96:.\20648_driver\drivers/inv_mems_base_control.c **** static unsigned long inv_androidSensorsOn_mask[2] = {0}; // Each bit corresponds to a sensor being 
  97:.\20648_driver\drivers/inv_mems_base_control.c **** 
  98:.\20648_driver\drivers/inv_mems_base_control.c **** #if (MEMS_CHIP == HW_ICM30630)
  99:.\20648_driver\drivers/inv_mems_base_control.c **** static unsigned char sGmrvIsOn = 0; // indicates if GMRV was requested to be ON by end-user. Once t
 100:.\20648_driver\drivers/inv_mems_base_control.c **** #endif
 101:.\20648_driver\drivers/inv_mems_base_control.c **** 
 102:.\20648_driver\drivers/inv_mems_base_control.c **** const short inv_androidSensor_to_control_bits[ANDROID_SENSOR_NUM_MAX]=
 103:.\20648_driver\drivers/inv_mems_base_control.c **** {
 104:.\20648_driver\drivers/inv_mems_base_control.c ****     // Unsupported Sensors are -1
 105:.\20648_driver\drivers/inv_mems_base_control.c ****     -1, // Meta Data
 106:.\20648_driver\drivers/inv_mems_base_control.c ****     -32760, //0x8008, // Accelerometer
 107:.\20648_driver\drivers/inv_mems_base_control.c ****     0x0028, // Magnetic Field
 108:.\20648_driver\drivers/inv_mems_base_control.c ****     0x0408, // Orientation
 109:.\20648_driver\drivers/inv_mems_base_control.c **** #if (MEMS_CHIP == HW_ICM30630 || MEMS_CHIP == HW_ICM20648)
 110:.\20648_driver\drivers/inv_mems_base_control.c ****     0x4048, // Gyroscope
 111:.\20648_driver\drivers/inv_mems_base_control.c **** #else
 112:.\20648_driver\drivers/inv_mems_base_control.c ****     0x0048, // Gyroscope
 113:.\20648_driver\drivers/inv_mems_base_control.c **** #endif
 114:.\20648_driver\drivers/inv_mems_base_control.c ****     0x1008, // Light
 115:.\20648_driver\drivers/inv_mems_base_control.c ****     0x0088, // Pressure
 116:.\20648_driver\drivers/inv_mems_base_control.c ****     -1, // Temperature
 117:.\20648_driver\drivers/inv_mems_base_control.c ****     -1, // Proximity <----------- fixme
 118:.\20648_driver\drivers/inv_mems_base_control.c ****     0x0808, // Gravity
 119:.\20648_driver\drivers/inv_mems_base_control.c ****     -30712, // 0x8808, // Linear Acceleration
 120:.\20648_driver\drivers/inv_mems_base_control.c ****     0x0408, // Rotation Vector
 121:.\20648_driver\drivers/inv_mems_base_control.c ****     -1, // Humidity
 122:.\20648_driver\drivers/inv_mems_base_control.c ****     -1, // Ambient Temperature
 123:.\20648_driver\drivers/inv_mems_base_control.c ****     0x2008, // Magnetic Field Uncalibrated
 124:.\20648_driver\drivers/inv_mems_base_control.c ****     0x0808, // Game Rotation Vector
 125:.\20648_driver\drivers/inv_mems_base_control.c ****     0x4008, // Gyroscope Uncalibrated
 126:.\20648_driver\drivers/inv_mems_base_control.c ****     0, // Significant Motion
 127:.\20648_driver\drivers/inv_mems_base_control.c ****     0x0018, // Step Detector
 128:.\20648_driver\drivers/inv_mems_base_control.c ****     0x0010, // Step Counter <----------- fixme
 129:.\20648_driver\drivers/inv_mems_base_control.c **** #if (MEMS_CHIP == HW_ICM20648)
 130:.\20648_driver\drivers/inv_mems_base_control.c ****     0x0108, // Geomagnetic Rotation Vector
 131:.\20648_driver\drivers/inv_mems_base_control.c **** #else
 132:.\20648_driver\drivers/inv_mems_base_control.c ****     0x0408, // Geomagnetic Rotation Vector
 133:.\20648_driver\drivers/inv_mems_base_control.c **** #endif
 134:.\20648_driver\drivers/inv_mems_base_control.c **** 	-1, //ANDROID_SENSOR_HEART_RATE,
 135:.\20648_driver\drivers/inv_mems_base_control.c **** 	-1, //ANDROID_SENSOR_PROXIMITY,
 136:.\20648_driver\drivers/inv_mems_base_control.c **** 
 137:.\20648_driver\drivers/inv_mems_base_control.c **** 	-32760, // ANDROID_SENSOR_WAKEUP_ACCELEROMETER,
 138:.\20648_driver\drivers/inv_mems_base_control.c **** 	0x0028, // ANDROID_SENSOR_WAKEUP_MAGNETIC_FIELD,
 139:.\20648_driver\drivers/inv_mems_base_control.c **** 	0x0408, // ANDROID_SENSOR_WAKEUP_ORIENTATION,
 140:.\20648_driver\drivers/inv_mems_base_control.c **** #if (MEMS_CHIP == HW_ICM30630 || MEMS_CHIP == HW_ICM20648)
 141:.\20648_driver\drivers/inv_mems_base_control.c ****     0x4048, // ANDROID_SENSOR_WAKEUP_GYROSCOPE,
 142:.\20648_driver\drivers/inv_mems_base_control.c **** #else
 143:.\20648_driver\drivers/inv_mems_base_control.c ****     0x0048, // ANDROID_SENSOR_WAKEUP_GYROSCOPE,
 144:.\20648_driver\drivers/inv_mems_base_control.c **** #endif
 145:.\20648_driver\drivers/inv_mems_base_control.c **** 	0x1008, // ANDROID_SENSOR_WAKEUP_LIGHT,
 146:.\20648_driver\drivers/inv_mems_base_control.c **** 	0x0088, // ANDROID_SENSOR_WAKEUP_PRESSURE,
ARM GAS  C:\Users\ADMINI~1\AppData\Local\Temp\ccjTNAQQ.s 			page 4


 147:.\20648_driver\drivers/inv_mems_base_control.c **** 	0x0808, // ANDROID_SENSOR_WAKEUP_GRAVITY,
 148:.\20648_driver\drivers/inv_mems_base_control.c **** 	-30712, // ANDROID_SENSOR_WAKEUP_LINEAR_ACCELERATION,
 149:.\20648_driver\drivers/inv_mems_base_control.c **** 	0x0408, // ANDROID_SENSOR_WAKEUP_ROTATION_VECTOR,
 150:.\20648_driver\drivers/inv_mems_base_control.c **** 	-1,		// ANDROID_SENSOR_WAKEUP_RELATIVE_HUMIDITY,
 151:.\20648_driver\drivers/inv_mems_base_control.c **** 	-1,		// ANDROID_SENSOR_WAKEUP_AMBIENT_TEMPERATURE,
 152:.\20648_driver\drivers/inv_mems_base_control.c **** 	0x2008, // ANDROID_SENSOR_WAKEUP_MAGNETIC_FIELD_UNCALIBRATED,
 153:.\20648_driver\drivers/inv_mems_base_control.c **** 	0x0808, // ANDROID_SENSOR_WAKEUP_GAME_ROTATION_VECTOR,
 154:.\20648_driver\drivers/inv_mems_base_control.c **** 	0x4008, // ANDROID_SENSOR_WAKEUP_GYROSCOPE_UNCALIBRATED,
 155:.\20648_driver\drivers/inv_mems_base_control.c **** 	0x0018, // ANDROID_SENSOR_WAKEUP_STEP_DETECTOR,
 156:.\20648_driver\drivers/inv_mems_base_control.c **** 	0x0010, // ANDROID_SENSOR_WAKEUP_STEP_COUNTER,
 157:.\20648_driver\drivers/inv_mems_base_control.c **** #if (MEMS_CHIP == HW_ICM20648)
 158:.\20648_driver\drivers/inv_mems_base_control.c ****     0x0108, // ANDROID_SENSOR_WAKEUP_GEOMAGNETIC_ROTATION_VECTOR
 159:.\20648_driver\drivers/inv_mems_base_control.c **** #else
 160:.\20648_driver\drivers/inv_mems_base_control.c **** 	0x0408, // ANDROID_SENSOR_WAKEUP_GEOMAGNETIC_ROTATION_VECTOR,
 161:.\20648_driver\drivers/inv_mems_base_control.c **** #endif
 162:.\20648_driver\drivers/inv_mems_base_control.c **** 	-1,		// ANDROID_SENSOR_WAKEUP_HEART_RATE,
 163:.\20648_driver\drivers/inv_mems_base_control.c **** 	0,		// ANDROID_SENSOR_WAKEUP_TILT_DETECTOR,
 164:.\20648_driver\drivers/inv_mems_base_control.c **** };
 165:.\20648_driver\drivers/inv_mems_base_control.c **** 
 166:.\20648_driver\drivers/inv_mems_base_control.c **** unsigned long inv_androidSensor_enabled(unsigned char androidSensor)
 167:.\20648_driver\drivers/inv_mems_base_control.c **** {
 168:.\20648_driver\drivers/inv_mems_base_control.c **** 	return inv_androidSensorsOn_mask[(androidSensor>>5)] & (1L << (androidSensor&0x1F));
 169:.\20648_driver\drivers/inv_mems_base_control.c **** }
 170:.\20648_driver\drivers/inv_mems_base_control.c **** 
 171:.\20648_driver\drivers/inv_mems_base_control.c **** 
 172:.\20648_driver\drivers/inv_mems_base_control.c **** /******************/
 173:.\20648_driver\drivers/inv_mems_base_control.c **** typedef	struct
 174:.\20648_driver\drivers/inv_mems_base_control.c **** {	enum	ANDROID_SENSORS	AndroidSensor;
 175:.\20648_driver\drivers/inv_mems_base_control.c **** 	enum	INV_SENSORS		InvSensor;
 176:.\20648_driver\drivers/inv_mems_base_control.c **** }	MinDelayGenElementT;
 177:.\20648_driver\drivers/inv_mems_base_control.c **** 
 178:.\20648_driver\drivers/inv_mems_base_control.c **** /******************/
 179:.\20648_driver\drivers/inv_mems_base_control.c **** //	accel
 180:.\20648_driver\drivers/inv_mems_base_control.c **** static	const	MinDelayGenElementT	MinDelayGenAccelList	[]	=
 181:.\20648_driver\drivers/inv_mems_base_control.c **** {	{	ANDROID_SENSOR_ACCELEROMETER,						INV_SENSOR_ACCEL				}
 182:.\20648_driver\drivers/inv_mems_base_control.c **** ,	{	ANDROID_SENSOR_WAKEUP_ACCELEROMETER,				INV_SENSOR_WAKEUP_ACCEL			}
 183:.\20648_driver\drivers/inv_mems_base_control.c **** ,	{	ANDROID_SENSOR_GEOMAGNETIC_ROTATION_VECTOR,			INV_SENSOR_GEOMAG				}
 184:.\20648_driver\drivers/inv_mems_base_control.c **** ,	{	ANDROID_SENSOR_WAKEUP_GEOMAGNETIC_ROTATION_VECTOR,	INV_SENSOR_WAKEUP_GEOMAG		}
 185:.\20648_driver\drivers/inv_mems_base_control.c **** #if (MEMS_CHIP != HW_ICM30630)
 186:.\20648_driver\drivers/inv_mems_base_control.c **** ,	{	ANDROID_SENSOR_STEP_DETECTOR,						INV_SENSOR_STEP_COUNTER			}
 187:.\20648_driver\drivers/inv_mems_base_control.c **** ,	{	ANDROID_SENSOR_STEP_COUNTER,						INV_SENSOR_STEP_COUNTER			}
 188:.\20648_driver\drivers/inv_mems_base_control.c **** ,	{	ANDROID_SENSOR_WAKEUP_STEP_DETECTOR,				INV_SENSOR_WAKEUP_STEP_COUNTER	}
 189:.\20648_driver\drivers/inv_mems_base_control.c **** ,	{	ANDROID_SENSOR_WAKEUP_STEP_COUNTER,					INV_SENSOR_WAKEUP_STEP_COUNTER	}
 190:.\20648_driver\drivers/inv_mems_base_control.c **** ,	{	ANDROID_SENSOR_WAKEUP_SIGNIFICANT_MOTION,			INV_SENSOR_WAKEUP_STEP_COUNTER	}
 191:.\20648_driver\drivers/inv_mems_base_control.c **** ,	{	ANDROID_SENSOR_WAKEUP_TILT_DETECTOR,				INV_SENSOR_WAKEUP_TILT_DETECTOR	}
 192:.\20648_driver\drivers/inv_mems_base_control.c **** #endif
 193:.\20648_driver\drivers/inv_mems_base_control.c **** ,	{	ANDROID_SENSOR_GRAVITY,								INV_SENSOR_SIXQ_accel			}
 194:.\20648_driver\drivers/inv_mems_base_control.c **** ,	{	ANDROID_SENSOR_GAME_ROTATION_VECTOR,				INV_SENSOR_SIXQ_accel			}
 195:.\20648_driver\drivers/inv_mems_base_control.c **** ,	{	ANDROID_SENSOR_LINEAR_ACCELERATION,					INV_SENSOR_SIXQ_accel			}
 196:.\20648_driver\drivers/inv_mems_base_control.c **** ,	{	ANDROID_SENSOR_WAKEUP_GRAVITY,						INV_SENSOR_WAKEUP_SIXQ_accel	}
 197:.\20648_driver\drivers/inv_mems_base_control.c **** ,	{	ANDROID_SENSOR_WAKEUP_GAME_ROTATION_VECTOR,			INV_SENSOR_WAKEUP_SIXQ_accel	}
 198:.\20648_driver\drivers/inv_mems_base_control.c **** ,	{	ANDROID_SENSOR_WAKEUP_LINEAR_ACCELERATION,			INV_SENSOR_WAKEUP_SIXQ_accel	}
 199:.\20648_driver\drivers/inv_mems_base_control.c **** ,	{	ANDROID_SENSOR_ORIENTATION,							INV_SENSOR_NINEQ_accel			}
 200:.\20648_driver\drivers/inv_mems_base_control.c **** ,	{	ANDROID_SENSOR_ROTATION_VECTOR,						INV_SENSOR_NINEQ_accel			}
 201:.\20648_driver\drivers/inv_mems_base_control.c **** ,	{	ANDROID_SENSOR_WAKEUP_ORIENTATION,					INV_SENSOR_WAKEUP_NINEQ_accel	}
 202:.\20648_driver\drivers/inv_mems_base_control.c **** ,	{	ANDROID_SENSOR_WAKEUP_ROTATION_VECTOR,				INV_SENSOR_WAKEUP_NINEQ_accel	}
 203:.\20648_driver\drivers/inv_mems_base_control.c **** };
ARM GAS  C:\Users\ADMINI~1\AppData\Local\Temp\ccjTNAQQ.s 			page 5


 204:.\20648_driver\drivers/inv_mems_base_control.c **** 
 205:.\20648_driver\drivers/inv_mems_base_control.c **** //	gyro
 206:.\20648_driver\drivers/inv_mems_base_control.c **** static	const	MinDelayGenElementT	MinDelayGenGyroList	[]	=
 207:.\20648_driver\drivers/inv_mems_base_control.c **** {	{	ANDROID_SENSOR_GYROSCOPE_UNCALIBRATED,			INV_SENSOR_GYRO					}
 208:.\20648_driver\drivers/inv_mems_base_control.c **** ,	{	ANDROID_SENSOR_WAKEUP_GYROSCOPE_UNCALIBRATED,	INV_SENSOR_WAKEUP_GYRO			}
 209:.\20648_driver\drivers/inv_mems_base_control.c **** ,	{	ANDROID_SENSOR_GYROSCOPE,						INV_SENSOR_CALIB_GYRO			}
 210:.\20648_driver\drivers/inv_mems_base_control.c **** ,	{	ANDROID_SENSOR_WAKEUP_GYROSCOPE,				INV_SENSOR_WAKEUP_CALIB_GYRO	}
 211:.\20648_driver\drivers/inv_mems_base_control.c **** ,	{	ANDROID_SENSOR_GRAVITY,							INV_SENSOR_SIXQ					}
 212:.\20648_driver\drivers/inv_mems_base_control.c **** ,	{	ANDROID_SENSOR_GAME_ROTATION_VECTOR,			INV_SENSOR_SIXQ					}
 213:.\20648_driver\drivers/inv_mems_base_control.c **** ,	{	ANDROID_SENSOR_LINEAR_ACCELERATION,				INV_SENSOR_SIXQ					}
 214:.\20648_driver\drivers/inv_mems_base_control.c **** ,	{	ANDROID_SENSOR_WAKEUP_GRAVITY,					INV_SENSOR_WAKEUP_SIXQ			}
 215:.\20648_driver\drivers/inv_mems_base_control.c **** ,	{	ANDROID_SENSOR_WAKEUP_GAME_ROTATION_VECTOR,		INV_SENSOR_WAKEUP_SIXQ			}
 216:.\20648_driver\drivers/inv_mems_base_control.c **** ,	{	ANDROID_SENSOR_WAKEUP_LINEAR_ACCELERATION,		INV_SENSOR_WAKEUP_SIXQ			}
 217:.\20648_driver\drivers/inv_mems_base_control.c **** ,	{	ANDROID_SENSOR_ORIENTATION,						INV_SENSOR_NINEQ				}
 218:.\20648_driver\drivers/inv_mems_base_control.c **** ,	{	ANDROID_SENSOR_ROTATION_VECTOR,					INV_SENSOR_NINEQ				}
 219:.\20648_driver\drivers/inv_mems_base_control.c **** ,	{	ANDROID_SENSOR_WAKEUP_ORIENTATION,				INV_SENSOR_WAKEUP_NINEQ			}
 220:.\20648_driver\drivers/inv_mems_base_control.c **** ,	{	ANDROID_SENSOR_WAKEUP_ROTATION_VECTOR,			INV_SENSOR_WAKEUP_NINEQ			}
 221:.\20648_driver\drivers/inv_mems_base_control.c **** };
 222:.\20648_driver\drivers/inv_mems_base_control.c **** 
 223:.\20648_driver\drivers/inv_mems_base_control.c **** #if (MEMS_CHIP == HW_ICM30630)
 224:.\20648_driver\drivers/inv_mems_base_control.c **** static	const	MinDelayGenElementT	MinDelayGenGyroForGmrvList	[]	=
 225:.\20648_driver\drivers/inv_mems_base_control.c ****     // special case for GMRV : it will enable GRV instead of GMRV if GMRV needs to be enabled in pa
 226:.\20648_driver\drivers/inv_mems_base_control.c **** {	{	ANDROID_SENSOR_GAME_ROTATION_VECTOR,			INV_SENSOR_GEOMAG				}
 227:.\20648_driver\drivers/inv_mems_base_control.c **** ,	{	ANDROID_SENSOR_GAME_ROTATION_VECTOR,	        INV_SENSOR_WAKEUP_GEOMAG		}
 228:.\20648_driver\drivers/inv_mems_base_control.c **** };
 229:.\20648_driver\drivers/inv_mems_base_control.c **** #endif
 230:.\20648_driver\drivers/inv_mems_base_control.c **** 
 231:.\20648_driver\drivers/inv_mems_base_control.c **** #if defined MEMS_SECONDARY_DEVICE
 232:.\20648_driver\drivers/inv_mems_base_control.c **** //	Cpass
 233:.\20648_driver\drivers/inv_mems_base_control.c **** static	const	MinDelayGenElementT	MinDelayGenCpassList	[]	=
 234:.\20648_driver\drivers/inv_mems_base_control.c **** {	{	ANDROID_SENSOR_MAGNETIC_FIELD_UNCALIBRATED,			INV_SENSOR_COMPASS				}
 235:.\20648_driver\drivers/inv_mems_base_control.c **** ,	{	ANDROID_SENSOR_WAKEUP_MAGNETIC_FIELD_UNCALIBRATED,	INV_SENSOR_WAKEUP_COMPASS		}
 236:.\20648_driver\drivers/inv_mems_base_control.c **** ,	{	ANDROID_SENSOR_GEOMAGNETIC_FIELD,					INV_SENSOR_CALIB_COMPASS		}
 237:.\20648_driver\drivers/inv_mems_base_control.c **** ,	{	ANDROID_SENSOR_WAKEUP_MAGNETIC_FIELD,				INV_SENSOR_WAKEUP_CALIB_COMPASS	}
 238:.\20648_driver\drivers/inv_mems_base_control.c **** ,	{	ANDROID_SENSOR_GEOMAGNETIC_ROTATION_VECTOR,			INV_SENSOR_GEOMAG_cpass			}
 239:.\20648_driver\drivers/inv_mems_base_control.c **** ,	{	ANDROID_SENSOR_ORIENTATION,							INV_SENSOR_NINEQ_cpass			}
 240:.\20648_driver\drivers/inv_mems_base_control.c **** ,	{	ANDROID_SENSOR_ROTATION_VECTOR,						INV_SENSOR_NINEQ_cpass			}
 241:.\20648_driver\drivers/inv_mems_base_control.c **** ,	{	ANDROID_SENSOR_WAKEUP_GEOMAGNETIC_ROTATION_VECTOR,	INV_SENSOR_WAKEUP_GEOMAG_cpass	}
 242:.\20648_driver\drivers/inv_mems_base_control.c **** ,	{	ANDROID_SENSOR_WAKEUP_ORIENTATION,					INV_SENSOR_WAKEUP_NINEQ_cpass	}
 243:.\20648_driver\drivers/inv_mems_base_control.c **** ,	{	ANDROID_SENSOR_WAKEUP_ROTATION_VECTOR,				INV_SENSOR_WAKEUP_NINEQ_cpass	}
 244:.\20648_driver\drivers/inv_mems_base_control.c **** };
 245:.\20648_driver\drivers/inv_mems_base_control.c **** 
 246:.\20648_driver\drivers/inv_mems_base_control.c **** //	Pressure	
 247:.\20648_driver\drivers/inv_mems_base_control.c **** static	const	MinDelayGenElementT	MinDelayGenPressureList	[]	=
 248:.\20648_driver\drivers/inv_mems_base_control.c **** {	{	ANDROID_SENSOR_PRESSURE,							INV_SENSOR_PRESSURE			}
 249:.\20648_driver\drivers/inv_mems_base_control.c **** ,	{	ANDROID_SENSOR_WAKEUP_PRESSURE,						INV_SENSOR_WAKEUP_PRESSURE	}
 250:.\20648_driver\drivers/inv_mems_base_control.c **** };
 251:.\20648_driver\drivers/inv_mems_base_control.c **** #endif
 252:.\20648_driver\drivers/inv_mems_base_control.c **** /*************************/
 253:.\20648_driver\drivers/inv_mems_base_control.c **** 
 254:.\20648_driver\drivers/inv_mems_base_control.c **** static	const	MinDelayGenElementT	MinDelayGenAccel2List	[]	=
 255:.\20648_driver\drivers/inv_mems_base_control.c **** {	{	ANDROID_SENSOR_ACCELEROMETER,						INV_SENSOR_ACCEL				}
 256:.\20648_driver\drivers/inv_mems_base_control.c **** ,	{	ANDROID_SENSOR_WAKEUP_ACCELEROMETER,				INV_SENSOR_WAKEUP_ACCEL			}
 257:.\20648_driver\drivers/inv_mems_base_control.c **** ,	{	ANDROID_SENSOR_LINEAR_ACCELERATION,					INV_SENSOR_SIXQ_accel			}
 258:.\20648_driver\drivers/inv_mems_base_control.c **** ,	{	ANDROID_SENSOR_WAKEUP_LINEAR_ACCELERATION,			INV_SENSOR_WAKEUP_SIXQ_accel	}
 259:.\20648_driver\drivers/inv_mems_base_control.c **** };
 260:.\20648_driver\drivers/inv_mems_base_control.c **** 
ARM GAS  C:\Users\ADMINI~1\AppData\Local\Temp\ccjTNAQQ.s 			page 6


 261:.\20648_driver\drivers/inv_mems_base_control.c **** /**********/
 262:.\20648_driver\drivers/inv_mems_base_control.c **** static	const	MinDelayGenElementT	MinDelayGenAccel3List	[]	=
 263:.\20648_driver\drivers/inv_mems_base_control.c **** {	{	ANDROID_SENSOR_GEOMAGNETIC_ROTATION_VECTOR,			INV_SENSOR_GEOMAG			}
 264:.\20648_driver\drivers/inv_mems_base_control.c **** ,	{	ANDROID_SENSOR_WAKEUP_GEOMAGNETIC_ROTATION_VECTOR,	INV_SENSOR_WAKEUP_GEOMAG	}
 265:.\20648_driver\drivers/inv_mems_base_control.c **** };
 266:.\20648_driver\drivers/inv_mems_base_control.c **** 
 267:.\20648_driver\drivers/inv_mems_base_control.c **** /**********/
 268:.\20648_driver\drivers/inv_mems_base_control.c **** #if (MEMS_CHIP != HW_ICM30630)
 269:.\20648_driver\drivers/inv_mems_base_control.c **** static	const	MinDelayGenElementT	MinDelayGenAccel4List	[]	=
 270:.\20648_driver\drivers/inv_mems_base_control.c **** {	{	ANDROID_SENSOR_STEP_DETECTOR,						INV_SENSOR_STEP_COUNTER			}
 271:.\20648_driver\drivers/inv_mems_base_control.c **** ,	{	ANDROID_SENSOR_STEP_COUNTER,						INV_SENSOR_STEP_COUNTER			}
 272:.\20648_driver\drivers/inv_mems_base_control.c **** ,	{	ANDROID_SENSOR_WAKEUP_STEP_DETECTOR,				INV_SENSOR_WAKEUP_STEP_COUNTER	}
 273:.\20648_driver\drivers/inv_mems_base_control.c **** ,	{	ANDROID_SENSOR_WAKEUP_STEP_COUNTER,					INV_SENSOR_WAKEUP_STEP_COUNTER	}
 274:.\20648_driver\drivers/inv_mems_base_control.c **** ,	{	ANDROID_SENSOR_WAKEUP_SIGNIFICANT_MOTION,			INV_SENSOR_WAKEUP_STEP_COUNTER	}
 275:.\20648_driver\drivers/inv_mems_base_control.c **** };
 276:.\20648_driver\drivers/inv_mems_base_control.c **** #endif
 277:.\20648_driver\drivers/inv_mems_base_control.c **** 
 278:.\20648_driver\drivers/inv_mems_base_control.c **** #if (MEMS_CHIP == HW_ICM20645_E || MEMS_CHIP == HW_ICM20648)
 279:.\20648_driver\drivers/inv_mems_base_control.c **** /**********/
 280:.\20648_driver\drivers/inv_mems_base_control.c **** static	const	MinDelayGenElementT	MinDelayGenAccel5List	[]	=
 281:.\20648_driver\drivers/inv_mems_base_control.c **** {	{	ANDROID_SENSOR_WAKEUP_TILT_DETECTOR,				INV_SENSOR_WAKEUP_TILT_DETECTOR	}
 282:.\20648_driver\drivers/inv_mems_base_control.c **** };
 283:.\20648_driver\drivers/inv_mems_base_control.c **** #endif
 284:.\20648_driver\drivers/inv_mems_base_control.c **** 
 285:.\20648_driver\drivers/inv_mems_base_control.c **** /**********//**********/
 286:.\20648_driver\drivers/inv_mems_base_control.c **** static	const	MinDelayGenElementT	MinDelayGenGyro2List	[]	=
 287:.\20648_driver\drivers/inv_mems_base_control.c **** {	{	ANDROID_SENSOR_GYROSCOPE_UNCALIBRATED,				INV_SENSOR_GYRO			}
 288:.\20648_driver\drivers/inv_mems_base_control.c **** ,	{	ANDROID_SENSOR_WAKEUP_GYROSCOPE_UNCALIBRATED,		INV_SENSOR_WAKEUP_GYRO	}
 289:.\20648_driver\drivers/inv_mems_base_control.c **** #if (MEMS_CHIP == HW_ICM30630 || MEMS_CHIP == HW_ICM20648)
 290:.\20648_driver\drivers/inv_mems_base_control.c **** ,   {	ANDROID_SENSOR_GYROSCOPE,							INV_SENSOR_CALIB_GYRO			}
 291:.\20648_driver\drivers/inv_mems_base_control.c **** ,   {	ANDROID_SENSOR_WAKEUP_GYROSCOPE,					INV_SENSOR_WAKEUP_CALIB_GYRO	}
 292:.\20648_driver\drivers/inv_mems_base_control.c **** #endif
 293:.\20648_driver\drivers/inv_mems_base_control.c **** };
 294:.\20648_driver\drivers/inv_mems_base_control.c **** 
 295:.\20648_driver\drivers/inv_mems_base_control.c **** /**********/
 296:.\20648_driver\drivers/inv_mems_base_control.c **** static	const	MinDelayGenElementT	MinDelayGenGyro3List	[]	=
 297:.\20648_driver\drivers/inv_mems_base_control.c **** {	{	ANDROID_SENSOR_GYROSCOPE,							INV_SENSOR_CALIB_GYRO			}
 298:.\20648_driver\drivers/inv_mems_base_control.c **** ,	{	ANDROID_SENSOR_WAKEUP_GYROSCOPE,					INV_SENSOR_WAKEUP_CALIB_GYRO	}
 299:.\20648_driver\drivers/inv_mems_base_control.c **** };
 300:.\20648_driver\drivers/inv_mems_base_control.c **** 
 301:.\20648_driver\drivers/inv_mems_base_control.c **** /**********/
 302:.\20648_driver\drivers/inv_mems_base_control.c **** static	const	MinDelayGenElementT	MinDelayGenGyro4List	[]	=
 303:.\20648_driver\drivers/inv_mems_base_control.c **** {	{	ANDROID_SENSOR_GRAVITY,								INV_SENSOR_SIXQ			}
 304:.\20648_driver\drivers/inv_mems_base_control.c **** ,	{	ANDROID_SENSOR_GAME_ROTATION_VECTOR,				INV_SENSOR_SIXQ			}
 305:.\20648_driver\drivers/inv_mems_base_control.c **** ,	{	ANDROID_SENSOR_LINEAR_ACCELERATION,					INV_SENSOR_SIXQ			}
 306:.\20648_driver\drivers/inv_mems_base_control.c **** ,	{	ANDROID_SENSOR_WAKEUP_GRAVITY,						INV_SENSOR_WAKEUP_SIXQ	}
 307:.\20648_driver\drivers/inv_mems_base_control.c **** ,	{	ANDROID_SENSOR_WAKEUP_GAME_ROTATION_VECTOR,			INV_SENSOR_WAKEUP_SIXQ	}
 308:.\20648_driver\drivers/inv_mems_base_control.c **** ,	{	ANDROID_SENSOR_WAKEUP_LINEAR_ACCELERATION,			INV_SENSOR_WAKEUP_SIXQ	}
 309:.\20648_driver\drivers/inv_mems_base_control.c **** };
 310:.\20648_driver\drivers/inv_mems_base_control.c **** 
 311:.\20648_driver\drivers/inv_mems_base_control.c **** #if (MEMS_CHIP == HW_ICM30630)
 312:.\20648_driver\drivers/inv_mems_base_control.c **** static	const	MinDelayGenElementT	MinDelayGenGyro4ForGmrvList	[]	=
 313:.\20648_driver\drivers/inv_mems_base_control.c ****     // special case for GMRV : it will enable GRV instead of GMRV if GMRV needs to be enabled in pa
 314:.\20648_driver\drivers/inv_mems_base_control.c **** {	{	ANDROID_SENSOR_GAME_ROTATION_VECTOR,			    INV_SENSOR_GEOMAG				}
 315:.\20648_driver\drivers/inv_mems_base_control.c **** ,	{	ANDROID_SENSOR_GAME_ROTATION_VECTOR,	            INV_SENSOR_WAKEUP_GEOMAG		}
 316:.\20648_driver\drivers/inv_mems_base_control.c **** };
 317:.\20648_driver\drivers/inv_mems_base_control.c **** #endif
ARM GAS  C:\Users\ADMINI~1\AppData\Local\Temp\ccjTNAQQ.s 			page 7


 318:.\20648_driver\drivers/inv_mems_base_control.c **** 
 319:.\20648_driver\drivers/inv_mems_base_control.c **** /**********/
 320:.\20648_driver\drivers/inv_mems_base_control.c **** static	const	MinDelayGenElementT	MinDelayGenGyro5List	[]	=
 321:.\20648_driver\drivers/inv_mems_base_control.c **** {	{	ANDROID_SENSOR_ORIENTATION,				INV_SENSOR_NINEQ		}
 322:.\20648_driver\drivers/inv_mems_base_control.c **** ,	{	ANDROID_SENSOR_ROTATION_VECTOR,			INV_SENSOR_NINEQ		}
 323:.\20648_driver\drivers/inv_mems_base_control.c **** ,	{	ANDROID_SENSOR_WAKEUP_ORIENTATION,		INV_SENSOR_WAKEUP_NINEQ	}
 324:.\20648_driver\drivers/inv_mems_base_control.c **** ,	{	ANDROID_SENSOR_WAKEUP_ROTATION_VECTOR,	INV_SENSOR_WAKEUP_NINEQ	}
 325:.\20648_driver\drivers/inv_mems_base_control.c **** };
 326:.\20648_driver\drivers/inv_mems_base_control.c **** 
 327:.\20648_driver\drivers/inv_mems_base_control.c **** #if defined MEMS_SECONDARY_DEVICE
 328:.\20648_driver\drivers/inv_mems_base_control.c **** /**********//**********/
 329:.\20648_driver\drivers/inv_mems_base_control.c **** static	const	MinDelayGenElementT	MinDelayGenCpass2List	[]	=
 330:.\20648_driver\drivers/inv_mems_base_control.c **** {	{	ANDROID_SENSOR_MAGNETIC_FIELD_UNCALIBRATED,			INV_SENSOR_COMPASS			}
 331:.\20648_driver\drivers/inv_mems_base_control.c **** ,	{	ANDROID_SENSOR_WAKEUP_MAGNETIC_FIELD_UNCALIBRATED,	INV_SENSOR_WAKEUP_COMPASS	}
 332:.\20648_driver\drivers/inv_mems_base_control.c **** };
 333:.\20648_driver\drivers/inv_mems_base_control.c **** 
 334:.\20648_driver\drivers/inv_mems_base_control.c **** /**********/
 335:.\20648_driver\drivers/inv_mems_base_control.c **** static	const	MinDelayGenElementT	MinDelayGenCpass3List	[]	=
 336:.\20648_driver\drivers/inv_mems_base_control.c **** {	{	ANDROID_SENSOR_GEOMAGNETIC_FIELD,					INV_SENSOR_CALIB_COMPASS		}
 337:.\20648_driver\drivers/inv_mems_base_control.c **** ,	{	ANDROID_SENSOR_WAKEUP_MAGNETIC_FIELD,				INV_SENSOR_WAKEUP_CALIB_COMPASS	}
 338:.\20648_driver\drivers/inv_mems_base_control.c **** };
 339:.\20648_driver\drivers/inv_mems_base_control.c **** 
 340:.\20648_driver\drivers/inv_mems_base_control.c **** /**********//**********/
 341:.\20648_driver\drivers/inv_mems_base_control.c **** static	const	MinDelayGenElementT	MinDelayGenPressure2List	[]	=
 342:.\20648_driver\drivers/inv_mems_base_control.c **** {	{	ANDROID_SENSOR_PRESSURE,						INV_SENSOR_PRESSURE			}
 343:.\20648_driver\drivers/inv_mems_base_control.c **** ,	{	ANDROID_SENSOR_WAKEUP_PRESSURE,					INV_SENSOR_WAKEUP_PRESSURE	}
 344:.\20648_driver\drivers/inv_mems_base_control.c **** };
 345:.\20648_driver\drivers/inv_mems_base_control.c **** #endif
 346:.\20648_driver\drivers/inv_mems_base_control.c **** /**********/
 347:.\20648_driver\drivers/inv_mems_base_control.c **** 	
 348:.\20648_driver\drivers/inv_mems_base_control.c **** typedef	unsigned	short	MinDelayT;
 349:.\20648_driver\drivers/inv_mems_base_control.c **** typedef	unsigned	short	u16;
 350:.\20648_driver\drivers/inv_mems_base_control.c **** typedef	unsigned	long	u32;
 351:.\20648_driver\drivers/inv_mems_base_control.c **** 
 352:.\20648_driver\drivers/inv_mems_base_control.c **** /******************/
 353:.\20648_driver\drivers/inv_mems_base_control.c **** #define	MinDelayGen(list)	MinDelayGenActual((list), sizeof((list)) / sizeof (MinDelayGenElementT))
 354:.\20648_driver\drivers/inv_mems_base_control.c **** 
 355:.\20648_driver\drivers/inv_mems_base_control.c **** static		MinDelayT	MinDelayGenActual
 356:.\20648_driver\drivers/inv_mems_base_control.c **** (
 357:.\20648_driver\drivers/inv_mems_base_control.c **** 	const	MinDelayGenElementT	*	Element,
 358:.\20648_driver\drivers/inv_mems_base_control.c **** 			u32						ElementQuan
 359:.\20648_driver\drivers/inv_mems_base_control.c **** )
 360:.\20648_driver\drivers/inv_mems_base_control.c **** {
 361:.\20648_driver\drivers/inv_mems_base_control.c **** 	MinDelayT	MinDelay	=	(MinDelayT)-1;
 362:.\20648_driver\drivers/inv_mems_base_control.c **** 
 363:.\20648_driver\drivers/inv_mems_base_control.c **** 	while	(ElementQuan--)
 364:.\20648_driver\drivers/inv_mems_base_control.c **** 	{
 365:.\20648_driver\drivers/inv_mems_base_control.c **** 		if	(inv_androidSensor_enabled	(Element->AndroidSensor))
 366:.\20648_driver\drivers/inv_mems_base_control.c **** 		{
 367:.\20648_driver\drivers/inv_mems_base_control.c **** 			MinDelayT	OdrDelay	=	inv_dmp_odr_delays	[Element->InvSensor];
 368:.\20648_driver\drivers/inv_mems_base_control.c **** 
 369:.\20648_driver\drivers/inv_mems_base_control.c **** 		  	if	(MinDelay >	OdrDelay)
 370:.\20648_driver\drivers/inv_mems_base_control.c **** 			{
 371:.\20648_driver\drivers/inv_mems_base_control.c **** 					MinDelay	=	OdrDelay;
 372:.\20648_driver\drivers/inv_mems_base_control.c **** 			}
 373:.\20648_driver\drivers/inv_mems_base_control.c **** 		}
 374:.\20648_driver\drivers/inv_mems_base_control.c **** 		Element++;
ARM GAS  C:\Users\ADMINI~1\AppData\Local\Temp\ccjTNAQQ.s 			page 8


 375:.\20648_driver\drivers/inv_mems_base_control.c **** 	}	//	end while elements to process
 376:.\20648_driver\drivers/inv_mems_base_control.c **** 
 377:.\20648_driver\drivers/inv_mems_base_control.c **** 	return	MinDelay;
 378:.\20648_driver\drivers/inv_mems_base_control.c **** }	//	end of MinDelayGenActual()
 379:.\20648_driver\drivers/inv_mems_base_control.c **** 
 380:.\20648_driver\drivers/inv_mems_base_control.c **** /******************/
 381:.\20648_driver\drivers/inv_mems_base_control.c **** static	inv_error_t	DividerRateSet
 382:.\20648_driver\drivers/inv_mems_base_control.c **** (
 383:.\20648_driver\drivers/inv_mems_base_control.c **** 	MinDelayT			MinDelay,
 384:.\20648_driver\drivers/inv_mems_base_control.c **** 	u16					HwSampleRateDivider,
 385:.\20648_driver\drivers/inv_mems_base_control.c **** 	enum	INV_SENSORS	InvSensor
 386:.\20648_driver\drivers/inv_mems_base_control.c **** )
 387:.\20648_driver\drivers/inv_mems_base_control.c **** {
  26              		.loc 1 387 0
  27              		.cfi_startproc
  28              	.LVL0:
  29 0000 38B5     		push	{r3, r4, r5, lr}
  30              		.cfi_def_cfa_offset 16
  31              		.cfi_offset 3, -16
  32              		.cfi_offset 4, -12
  33              		.cfi_offset 5, -8
  34              		.cfi_offset 14, -4
 388:.\20648_driver\drivers/inv_mems_base_control.c **** 	inv_error_t	Result	=	0;
 389:.\20648_driver\drivers/inv_mems_base_control.c **** 	
 390:.\20648_driver\drivers/inv_mems_base_control.c **** 	if	(MinDelay != 0xFFFF)
  35              		.loc 1 390 0
  36 0002 0C4C     		ldr	r4, .L5
 387:.\20648_driver\drivers/inv_mems_base_control.c **** 	inv_error_t	Result	=	0;
  37              		.loc 1 387 0
  38 0004 031C     		mov	r3, r0
 388:.\20648_driver\drivers/inv_mems_base_control.c **** 	inv_error_t	Result	=	0;
  39              		.loc 1 388 0
  40 0006 0020     		mov	r0, #0
  41              	.LVL1:
  42              		.loc 1 390 0
  43 0008 A342     		cmp	r3, r4
  44 000a 12D0     		beq	.L2
  45 000c 0D1C     		mov	r5, r1
  46              	.LVL2:
  47              	.LBB13:
  48              	.LBB14:
  49              	.LBB15:
 391:.\20648_driver\drivers/inv_mems_base_control.c **** 	{
 392:.\20648_driver\drivers/inv_mems_base_control.c **** 		u16	DmpOdrDivider	=	(MinDelay * 1125L) / (HwSampleRateDivider * 1000L);      // a divider from (1
  50              		.loc 1 392 0
  51 000e FA21     		mov	r1, #250
  52              	.LVL3:
  53 0010 0948     		ldr	r0, .L5+4
  54 0012 8900     		lsl	r1, r1, #2
  55 0014 6943     		mul	r1, r5
  56 0016 5843     		mul	r0, r3
  57 0018 141C     		mov	r4, r2
  58              	.LVL4:
  59 001a FFF7FEFF 		bl	__aeabi_idiv
  60              	.LVL5:
  61 001e 80B2     		uxth	r0, r0
  62              	.LVL6:
ARM GAS  C:\Users\ADMINI~1\AppData\Local\Temp\ccjTNAQQ.s 			page 9


 393:.\20648_driver\drivers/inv_mems_base_control.c **** 
 394:.\20648_driver\drivers/inv_mems_base_control.c **** 		inv_dmp_odr_dividers[InvSensor] = HwSampleRateDivider * DmpOdrDivider;
  63              		.loc 1 394 0
  64 0020 4543     		mul	r5, r0
  65              	.LVL7:
  66 0022 064B     		ldr	r3, .L5+8
 395:.\20648_driver\drivers/inv_mems_base_control.c ****         Result |= dmp_set_sensor_rate(InvSensor, (DmpOdrDivider - 1));
  67              		.loc 1 395 0
  68 0024 0138     		sub	r0, r0, #1
  69              	.LVL8:
 394:.\20648_driver\drivers/inv_mems_base_control.c ****         Result |= dmp_set_sensor_rate(InvSensor, (DmpOdrDivider - 1));
  70              		.loc 1 394 0
  71 0026 6200     		lsl	r2, r4, #1
  72              		.loc 1 395 0
  73 0028 01B2     		sxth	r1, r0
  74 002a 201C     		mov	r0, r4
  75              	.LVL9:
 394:.\20648_driver\drivers/inv_mems_base_control.c ****         Result |= dmp_set_sensor_rate(InvSensor, (DmpOdrDivider - 1));
  76              		.loc 1 394 0
  77 002c D552     		strh	r5, [r2, r3]
  78              		.loc 1 395 0
  79 002e FFF7FEFF 		bl	dmp_set_sensor_rate
  80              	.LVL10:
  81              	.L2:
  82              	.LBE15:
  83              	.LBE14:
  84              	.LBE13:
 396:.\20648_driver\drivers/inv_mems_base_control.c **** 	}
 397:.\20648_driver\drivers/inv_mems_base_control.c **** 	
 398:.\20648_driver\drivers/inv_mems_base_control.c **** 	return	Result;
 399:.\20648_driver\drivers/inv_mems_base_control.c **** }	//	end of DividerRateGet()
  85              		.loc 1 399 0
  86              		@ sp needed
  87 0032 38BD     		pop	{r3, r4, r5, pc}
  88              	.L6:
  89              		.align	2
  90              	.L5:
  91 0034 FFFF0000 		.word	65535
  92 0038 65040000 		.word	1125
  93 003c 00000000 		.word	.LANCHOR0
  94              		.cfi_endproc
  95              	.LFE2:
  96              		.size	DividerRateSet, .-DividerRateSet
  97              		.section	.text.inv_androidSensor_enabled,"ax",%progbits
  98              		.align	1
  99              		.global	inv_androidSensor_enabled
 100              		.code	16
 101              		.thumb_func
 102              		.type	inv_androidSensor_enabled, %function
 103              	inv_androidSensor_enabled:
 104              	.LFB0:
 167:.\20648_driver\drivers/inv_mems_base_control.c **** 	return inv_androidSensorsOn_mask[(androidSensor>>5)] & (1L << (androidSensor&0x1F));
 105              		.loc 1 167 0
 106              		.cfi_startproc
 107              	.LVL11:
 168:.\20648_driver\drivers/inv_mems_base_control.c **** }
 108              		.loc 1 168 0
ARM GAS  C:\Users\ADMINI~1\AppData\Local\Temp\ccjTNAQQ.s 			page 10


 109 0000 1F22     		mov	r2, #31
 110 0002 0123     		mov	r3, #1
 111 0004 0240     		and	r2, r0
 112 0006 9340     		lsl	r3, r3, r2
 113 0008 1A1C     		mov	r2, r3
 114 000a 4309     		lsr	r3, r0, #5
 115 000c 0248     		ldr	r0, .L8
 116              	.LVL12:
 117 000e 9B00     		lsl	r3, r3, #2
 118 0010 C318     		add	r3, r0, r3
 119 0012 D86C     		ldr	r0, [r3, #76]
 169:.\20648_driver\drivers/inv_mems_base_control.c **** 
 120              		.loc 1 169 0
 121              		@ sp needed
 168:.\20648_driver\drivers/inv_mems_base_control.c **** }
 122              		.loc 1 168 0
 123 0014 1040     		and	r0, r2
 169:.\20648_driver\drivers/inv_mems_base_control.c **** 
 124              		.loc 1 169 0
 125 0016 7047     		bx	lr
 126              	.L9:
 127              		.align	2
 128              	.L8:
 129 0018 00000000 		.word	.LANCHOR0
 130              		.cfi_endproc
 131              	.LFE0:
 132              		.size	inv_androidSensor_enabled, .-inv_androidSensor_enabled
 133              		.section	.text.MinDelayGenActual,"ax",%progbits
 134              		.align	1
 135              		.code	16
 136              		.thumb_func
 137              		.type	MinDelayGenActual, %function
 138              	MinDelayGenActual:
 139              	.LFB1:
 360:.\20648_driver\drivers/inv_mems_base_control.c **** 	MinDelayT	MinDelay	=	(MinDelayT)-1;
 140              		.loc 1 360 0
 141              		.cfi_startproc
 142              	.LVL13:
 143 0000 70B5     		push	{r4, r5, r6, lr}
 144              		.cfi_def_cfa_offset 16
 145              		.cfi_offset 4, -16
 146              		.cfi_offset 5, -12
 147              		.cfi_offset 6, -8
 148              		.cfi_offset 14, -4
 360:.\20648_driver\drivers/inv_mems_base_control.c **** 	MinDelayT	MinDelay	=	(MinDelayT)-1;
 149              		.loc 1 360 0
 150 0002 051C     		mov	r5, r0
 151 0004 0E1C     		mov	r6, r1
 361:.\20648_driver\drivers/inv_mems_base_control.c **** 
 152              		.loc 1 361 0
 153 0006 0A4C     		ldr	r4, .L19
 154              	.LVL14:
 155              	.L11:
 363:.\20648_driver\drivers/inv_mems_base_control.c **** 	{
 156              		.loc 1 363 0
 157 0008 013E     		sub	r6, r6, #1
 158 000a 0FD3     		bcc	.L18
ARM GAS  C:\Users\ADMINI~1\AppData\Local\Temp\ccjTNAQQ.s 			page 11


 159              	.LVL15:
 365:.\20648_driver\drivers/inv_mems_base_control.c **** 		{
 160              		.loc 1 365 0
 161 000c 2878     		ldrb	r0, [r5]
 162 000e FFF7FEFF 		bl	inv_androidSensor_enabled
 163              	.LVL16:
 164 0012 0028     		cmp	r0, #0
 165 0014 08D0     		beq	.L12
 166              	.LBB16:
 367:.\20648_driver\drivers/inv_mems_base_control.c **** 
 167              		.loc 1 367 0
 168 0016 6B78     		ldrb	r3, [r5, #1]
 169 0018 064A     		ldr	r2, .L19+4
 170 001a 5B00     		lsl	r3, r3, #1
 171 001c 9A5A     		ldrh	r2, [r3, r2]
 172              	.LVL17:
 173 001e 131C     		add	r3, r2, #0
 174 0020 A242     		cmp	r2, r4
 175 0022 00D9     		bls	.L13
 176 0024 231C     		add	r3, r4, #0
 177              	.L13:
 178 0026 9CB2     		uxth	r4, r3
 179              	.LVL18:
 180              	.L12:
 181              	.LBE16:
 374:.\20648_driver\drivers/inv_mems_base_control.c **** 	}	//	end while elements to process
 182              		.loc 1 374 0
 183 0028 0235     		add	r5, r5, #2
 184              	.LVL19:
 185 002a EDE7     		b	.L11
 186              	.L18:
 378:.\20648_driver\drivers/inv_mems_base_control.c **** 
 187              		.loc 1 378 0
 188 002c 201C     		mov	r0, r4
 189              		@ sp needed
 190              	.LVL20:
 191              	.LVL21:
 192              	.LVL22:
 193 002e 70BD     		pop	{r4, r5, r6, pc}
 194              	.L20:
 195              		.align	2
 196              	.L19:
 197 0030 FFFF0000 		.word	65535
 198 0034 00000000 		.word	.LANCHOR1
 199              		.cfi_endproc
 200              	.LFE1:
 201              		.size	MinDelayGenActual, .-MinDelayGenActual
 202              		.section	.text.inv_get_odr,"ax",%progbits
 203              		.align	1
 204              		.global	inv_get_odr
 205              		.code	16
 206              		.thumb_func
 207              		.type	inv_get_odr, %function
 208              	inv_get_odr:
 209              	.LFB8:
 400:.\20648_driver\drivers/inv_mems_base_control.c **** 
 401:.\20648_driver\drivers/inv_mems_base_control.c **** /******************/
ARM GAS  C:\Users\ADMINI~1\AppData\Local\Temp\ccjTNAQQ.s 			page 12


 402:.\20648_driver\drivers/inv_mems_base_control.c **** static	u16	SampleRateDividerGet	(MinDelayT	MinDelay)
 403:.\20648_driver\drivers/inv_mems_base_control.c **** {
 404:.\20648_driver\drivers/inv_mems_base_control.c **** 	u16	Delay	=	min	(INV_ODR_MIN_DELAY, MinDelay); // because of GYRO_SMPLRT_DIV which relies on 8 bit
 405:.\20648_driver\drivers/inv_mems_base_control.c ****     return			Delay * 1125L / 1000L;      // a divider from 1125Hz.
 406:.\20648_driver\drivers/inv_mems_base_control.c **** }	//	end of SampleRateDividerGet()
 407:.\20648_driver\drivers/inv_mems_base_control.c **** 
 408:.\20648_driver\drivers/inv_mems_base_control.c **** 
 409:.\20648_driver\drivers/inv_mems_base_control.c **** 
 410:.\20648_driver\drivers/inv_mems_base_control.c **** /** @brief Get minimum ODR to be applied to accel engine based on all accel-based enabled sensors.
 411:.\20648_driver\drivers/inv_mems_base_control.c **** * @return ODR in ms we expect to be applied to accel engine
 412:.\20648_driver\drivers/inv_mems_base_control.c **** */
 413:.\20648_driver\drivers/inv_mems_base_control.c **** static unsigned short getMinDlyAccel(void)
 414:.\20648_driver\drivers/inv_mems_base_control.c **** {
 415:.\20648_driver\drivers/inv_mems_base_control.c **** 	unsigned short lMinOdr	=	MinDelayGen	(MinDelayGenAccelList);
 416:.\20648_driver\drivers/inv_mems_base_control.c **** 
 417:.\20648_driver\drivers/inv_mems_base_control.c **** #if (MEMS_CHIP == HW_ICM20645_E || MEMS_CHIP == HW_ICM20648)
 418:.\20648_driver\drivers/inv_mems_base_control.c **** 	if	(bac_status != 0)			lMinOdr	=	min	(	lMinOdr, inv_dmp_odr_delays	[INV_SENSOR_ACTIVITY_CLASSIFIER
 419:.\20648_driver\drivers/inv_mems_base_control.c **** #endif
 420:.\20648_driver\drivers/inv_mems_base_control.c ****     if	(flip_pickup_status != 0)	lMinOdr	=	min	(	lMinOdr, inv_dmp_odr_delays	[INV_SENSOR_FLIP_PICKU
 421:.\20648_driver\drivers/inv_mems_base_control.c ****     if	(b2s_status != 0)           lMinOdr	=	min	(	lMinOdr, inv_dmp_odr_delays	[INV_SENSOR_BRING_TO
 422:.\20648_driver\drivers/inv_mems_base_control.c **** 	
 423:.\20648_driver\drivers/inv_mems_base_control.c **** #if (MEMS_CHIP == HW_ICM20648)
 424:.\20648_driver\drivers/inv_mems_base_control.c **** 	/** To have correct algorithm performance and quick convergence of GMRV, it is advised to set acce
 425:.\20648_driver\drivers/inv_mems_base_control.c **** 	    In case power consumption is to be improved at the expense of performance, this setup should b
 426:.\20648_driver\drivers/inv_mems_base_control.c **** 	if ( inv_androidSensor_enabled(ANDROID_SENSOR_WAKEUP_GEOMAGNETIC_ROTATION_VECTOR) || inv_androidSe
 427:.\20648_driver\drivers/inv_mems_base_control.c ****                                     lMinOdr	=	min	(	lMinOdr, 5	 );
 428:.\20648_driver\drivers/inv_mems_base_control.c **** 	/** To have correct algorithm performance and quick convergence of RV, it is advised to set accele
 429:.\20648_driver\drivers/inv_mems_base_control.c **** 	    In case power consumption is to be improved at the expense of performance, this setup should b
 430:.\20648_driver\drivers/inv_mems_base_control.c **** 	if ( inv_androidSensor_enabled(ANDROID_SENSOR_WAKEUP_ROTATION_VECTOR) || inv_androidSensor_enabled
 431:.\20648_driver\drivers/inv_mems_base_control.c ****                                     lMinOdr	=	min	(	lMinOdr, 5	 );
 432:.\20648_driver\drivers/inv_mems_base_control.c **** #endif
 433:.\20648_driver\drivers/inv_mems_base_control.c **** 
 434:.\20648_driver\drivers/inv_mems_base_control.c **** 	return lMinOdr;
 435:.\20648_driver\drivers/inv_mems_base_control.c **** }
 436:.\20648_driver\drivers/inv_mems_base_control.c **** 
 437:.\20648_driver\drivers/inv_mems_base_control.c **** /** @brief Get minimum ODR to be applied to gyro engine based on all gyro-based enabled sensors.
 438:.\20648_driver\drivers/inv_mems_base_control.c **** * @return ODR in ms we expect to be applied to gyro engine
 439:.\20648_driver\drivers/inv_mems_base_control.c **** */
 440:.\20648_driver\drivers/inv_mems_base_control.c **** static unsigned short getMinDlyGyro(void)
 441:.\20648_driver\drivers/inv_mems_base_control.c **** {
 442:.\20648_driver\drivers/inv_mems_base_control.c **** 	unsigned short lMinOdr	=	MinDelayGen	(MinDelayGenGyroList);
 443:.\20648_driver\drivers/inv_mems_base_control.c **** #if (MEMS_CHIP == HW_ICM30630)
 444:.\20648_driver\drivers/inv_mems_base_control.c ****     /** Min ODR to be applied only for GMRV case */
 445:.\20648_driver\drivers/inv_mems_base_control.c **** 	unsigned short lMinOdrForGmrv	=	MinDelayGen	(MinDelayGenGyroForGmrvList);
 446:.\20648_driver\drivers/inv_mems_base_control.c **** #endif
 447:.\20648_driver\drivers/inv_mems_base_control.c ****     
 448:.\20648_driver\drivers/inv_mems_base_control.c **** #if (MEMS_CHIP == HW_ICM20648)
 449:.\20648_driver\drivers/inv_mems_base_control.c **** 	/** To have correct algorithm performance and quick convergence of RV, it is advised to set gyro t
 450:.\20648_driver\drivers/inv_mems_base_control.c **** 	    In case power consumption is to be improved at the expense of performance, this setup should b
 451:.\20648_driver\drivers/inv_mems_base_control.c **** 	if ( inv_androidSensor_enabled(ANDROID_SENSOR_WAKEUP_ROTATION_VECTOR) || inv_androidSensor_enabled
 452:.\20648_driver\drivers/inv_mems_base_control.c ****                                     lMinOdr	=	min	(	lMinOdr, 5	 );
 453:.\20648_driver\drivers/inv_mems_base_control.c **** #endif
 454:.\20648_driver\drivers/inv_mems_base_control.c **** 
 455:.\20648_driver\drivers/inv_mems_base_control.c **** #if (MEMS_CHIP == HW_ICM30630)
 456:.\20648_driver\drivers/inv_mems_base_control.c ****     /** In case GMRV is ON, need to check for GMRV related ODR be applied to GRV too, since GRV wil
 457:.\20648_driver\drivers/inv_mems_base_control.c ****     if(sGmrvIsOn)
 458:.\20648_driver\drivers/inv_mems_base_control.c ****         lMinOdr = min(lMinOdr , lMinOdrForGmrv);
ARM GAS  C:\Users\ADMINI~1\AppData\Local\Temp\ccjTNAQQ.s 			page 13


 459:.\20648_driver\drivers/inv_mems_base_control.c **** #endif
 460:.\20648_driver\drivers/inv_mems_base_control.c **** 
 461:.\20648_driver\drivers/inv_mems_base_control.c **** 	return lMinOdr;
 462:.\20648_driver\drivers/inv_mems_base_control.c **** }
 463:.\20648_driver\drivers/inv_mems_base_control.c **** 
 464:.\20648_driver\drivers/inv_mems_base_control.c **** #if defined MEMS_SECONDARY_DEVICE
 465:.\20648_driver\drivers/inv_mems_base_control.c **** /** @brief Get minimum ODR to be applied to compass engine based on all compass-based enabled senso
 466:.\20648_driver\drivers/inv_mems_base_control.c **** * @return ODR in ms we expect to be applied to compass engine
 467:.\20648_driver\drivers/inv_mems_base_control.c **** */
 468:.\20648_driver\drivers/inv_mems_base_control.c **** static unsigned short getMinDlyCompass(void)
 469:.\20648_driver\drivers/inv_mems_base_control.c **** {
 470:.\20648_driver\drivers/inv_mems_base_control.c **** 	unsigned short lMinOdr	=	MinDelayGen	(MinDelayGenCpassList);
 471:.\20648_driver\drivers/inv_mems_base_control.c **** 
 472:.\20648_driver\drivers/inv_mems_base_control.c **** #if (MEMS_CHIP == HW_ICM20648)
 473:.\20648_driver\drivers/inv_mems_base_control.c **** 	/** To have correct algorithm performance and quick convergence of GMRV, it is advised to set comp
 474:.\20648_driver\drivers/inv_mems_base_control.c **** 	    In case power consumption is to be improved at the expense of performance, this setup should b
 475:.\20648_driver\drivers/inv_mems_base_control.c **** 	if ( inv_androidSensor_enabled(ANDROID_SENSOR_WAKEUP_GEOMAGNETIC_ROTATION_VECTOR) || inv_androidSe
 476:.\20648_driver\drivers/inv_mems_base_control.c ****                                     lMinOdr	=	min	(	lMinOdr, 15 );
 477:.\20648_driver\drivers/inv_mems_base_control.c **** 	/** To have correct algorithm performance and quick convergence of RV, it is advised to set compas
 478:.\20648_driver\drivers/inv_mems_base_control.c **** 	    In case power consumption is to be improved at the expense of performance, this setup should b
 479:.\20648_driver\drivers/inv_mems_base_control.c **** 	if ( inv_androidSensor_enabled(ANDROID_SENSOR_WAKEUP_ROTATION_VECTOR) || inv_androidSensor_enabled
 480:.\20648_driver\drivers/inv_mems_base_control.c ****                                     lMinOdr	=	min	(	lMinOdr, 28 );
 481:.\20648_driver\drivers/inv_mems_base_control.c **** #endif
 482:.\20648_driver\drivers/inv_mems_base_control.c **** 
 483:.\20648_driver\drivers/inv_mems_base_control.c **** 	return lMinOdr;
 484:.\20648_driver\drivers/inv_mems_base_control.c **** }
 485:.\20648_driver\drivers/inv_mems_base_control.c **** #endif
 486:.\20648_driver\drivers/inv_mems_base_control.c **** 
 487:.\20648_driver\drivers/inv_mems_base_control.c **** /******************/
 488:.\20648_driver\drivers/inv_mems_base_control.c **** inv_error_t inv_set_hw_smplrt_dmp_odrs()
 489:.\20648_driver\drivers/inv_mems_base_control.c **** {
 490:.\20648_driver\drivers/inv_mems_base_control.c ****     inv_error_t result = 0;
 491:.\20648_driver\drivers/inv_mems_base_control.c **** 
 492:.\20648_driver\drivers/inv_mems_base_control.c ****     unsigned short minDly, minDly_accel, minDly_gyro;
 493:.\20648_driver\drivers/inv_mems_base_control.c **** #if defined MEMS_SECONDARY_DEVICE
 494:.\20648_driver\drivers/inv_mems_base_control.c **** 	unsigned short minDly_cpass;
 495:.\20648_driver\drivers/inv_mems_base_control.c ****     unsigned short minDly_pressure;
 496:.\20648_driver\drivers/inv_mems_base_control.c **** #endif
 497:.\20648_driver\drivers/inv_mems_base_control.c ****     unsigned short hw_smplrt_divider = 0;
 498:.\20648_driver\drivers/inv_mems_base_control.c **** 
 499:.\20648_driver\drivers/inv_mems_base_control.c **** // get min delays of all enabled sensors for each sensor engine group
 500:.\20648_driver\drivers/inv_mems_base_control.c **** 
 501:.\20648_driver\drivers/inv_mems_base_control.c **** 	// Engine ACCEL Based
 502:.\20648_driver\drivers/inv_mems_base_control.c **** 	minDly_accel = getMinDlyAccel();
 503:.\20648_driver\drivers/inv_mems_base_control.c **** 
 504:.\20648_driver\drivers/inv_mems_base_control.c **** 	// Engine Gyro Based
 505:.\20648_driver\drivers/inv_mems_base_control.c **** 	minDly_gyro  = getMinDlyGyro();
 506:.\20648_driver\drivers/inv_mems_base_control.c **** 
 507:.\20648_driver\drivers/inv_mems_base_control.c **** #if defined MEMS_SECONDARY_DEVICE
 508:.\20648_driver\drivers/inv_mems_base_control.c ****     // Engine Cpass Based	
 509:.\20648_driver\drivers/inv_mems_base_control.c **** 	minDly_cpass = getMinDlyCompass();
 510:.\20648_driver\drivers/inv_mems_base_control.c **** 
 511:.\20648_driver\drivers/inv_mems_base_control.c ****     // Engine Pressure Based	
 512:.\20648_driver\drivers/inv_mems_base_control.c **** 	minDly_pressure	=	MinDelayGen	(MinDelayGenPressureList);
 513:.\20648_driver\drivers/inv_mems_base_control.c **** #endif
 514:.\20648_driver\drivers/inv_mems_base_control.c **** 
 515:.\20648_driver\drivers/inv_mems_base_control.c **** #ifndef INV_SENSOR_MULTIFIFO
ARM GAS  C:\Users\ADMINI~1\AppData\Local\Temp\ccjTNAQQ.s 			page 14


 516:.\20648_driver\drivers/inv_mems_base_control.c ****     // get min delay of all enabled sensors of all sensor engine groups
 517:.\20648_driver\drivers/inv_mems_base_control.c ****     minDly = min(minDly_gyro, minDly_accel);
 518:.\20648_driver\drivers/inv_mems_base_control.c **** #if defined MEMS_SECONDARY_DEVICE
 519:.\20648_driver\drivers/inv_mems_base_control.c ****     minDly = min(minDly, minDly_cpass);
 520:.\20648_driver\drivers/inv_mems_base_control.c ****     minDly = min(minDly, minDly_pressure);
 521:.\20648_driver\drivers/inv_mems_base_control.c **** #endif
 522:.\20648_driver\drivers/inv_mems_base_control.c **** 
 523:.\20648_driver\drivers/inv_mems_base_control.c ****     if (minDly_accel != 0xFFFF)	        minDly_accel = minDly;
 524:.\20648_driver\drivers/inv_mems_base_control.c ****     if (minDly_gyro  != 0xFFFF)	        minDly_gyro  = minDly;
 525:.\20648_driver\drivers/inv_mems_base_control.c **** #if defined MEMS_SECONDARY_DEVICE
 526:.\20648_driver\drivers/inv_mems_base_control.c ****     if (minDly_cpass != 0xFFFF)		minDly_cpass = minDly;
 527:.\20648_driver\drivers/inv_mems_base_control.c ****     if (minDly_pressure != 0xFFFF)	minDly_pressure = minDly;
 528:.\20648_driver\drivers/inv_mems_base_control.c **** #endif
 529:.\20648_driver\drivers/inv_mems_base_control.c **** #endif
 530:.\20648_driver\drivers/inv_mems_base_control.c ****     
 531:.\20648_driver\drivers/inv_mems_base_control.c **** // set odrs for each enabled sensors
 532:.\20648_driver\drivers/inv_mems_base_control.c **** 
 533:.\20648_driver\drivers/inv_mems_base_control.c **** 	// Engine ACCEL Based
 534:.\20648_driver\drivers/inv_mems_base_control.c ****     if (minDly_accel != 0xFFFF)	// 0xFFFF -- none accel based sensor enable
 535:.\20648_driver\drivers/inv_mems_base_control.c **** 	{
 536:.\20648_driver\drivers/inv_mems_base_control.c **** 		static unsigned short lLastHwSmplrtDivider = 1;
 537:.\20648_driver\drivers/inv_mems_base_control.c **** 
 538:.\20648_driver\drivers/inv_mems_base_control.c **** 		hw_smplrt_divider	=	SampleRateDividerGet	(minDly_accel);
 539:.\20648_driver\drivers/inv_mems_base_control.c **** 
 540:.\20648_driver\drivers/inv_mems_base_control.c **** 		if (hw_smplrt_divider != lLastHwSmplrtDivider)
 541:.\20648_driver\drivers/inv_mems_base_control.c **** 		{
 542:.\20648_driver\drivers/inv_mems_base_control.c **** 			result	|=	inv_set_accel_quaternion_gain	(hw_smplrt_divider);
 543:.\20648_driver\drivers/inv_mems_base_control.c **** 			result	|=	inv_set_accel_cal_params		(hw_smplrt_divider);
 544:.\20648_driver\drivers/inv_mems_base_control.c **** 			result	|=	inv_set_accel_divider			(hw_smplrt_divider - 1);
 545:.\20648_driver\drivers/inv_mems_base_control.c **** 			lLastHwSmplrtDivider = hw_smplrt_divider;
 546:.\20648_driver\drivers/inv_mems_base_control.c **** 		}
 547:.\20648_driver\drivers/inv_mems_base_control.c **** 
 548:.\20648_driver\drivers/inv_mems_base_control.c **** 		result			|=	DividerRateSet	(MinDelayGen		(MinDelayGenAccel2List), hw_smplrt_divider, INV_SENSOR_A
 549:.\20648_driver\drivers/inv_mems_base_control.c **** 		result			|=	DividerRateSet	(MinDelayGen		(MinDelayGenAccel3List), hw_smplrt_divider, INV_SENSOR_G
 550:.\20648_driver\drivers/inv_mems_base_control.c **** 	
 551:.\20648_driver\drivers/inv_mems_base_control.c **** #if (MEMS_CHIP != HW_ICM30630)
 552:.\20648_driver\drivers/inv_mems_base_control.c **** 		result			|=	DividerRateSet	(MinDelayGen		(MinDelayGenAccel4List), hw_smplrt_divider, INV_SENSOR_S
 553:.\20648_driver\drivers/inv_mems_base_control.c **** #endif
 554:.\20648_driver\drivers/inv_mems_base_control.c **** #if (MEMS_CHIP == HW_ICM20645_E || MEMS_CHIP == HW_ICM20648 )
 555:.\20648_driver\drivers/inv_mems_base_control.c **** 		{
 556:.\20648_driver\drivers/inv_mems_base_control.c **** 			unsigned short lStepCounterMinDly =	MinDelayGen		(MinDelayGenAccel5List);
 557:.\20648_driver\drivers/inv_mems_base_control.c **** 			if	(bac_status != 0)				lStepCounterMinDly = min(lStepCounterMinDly, inv_dmp_odr_delays[INV_SENS
 558:.\20648_driver\drivers/inv_mems_base_control.c **** //			if (flip_pickup_status != 0)		lStepCounterMinDly = min(lStepCounterMinDly, inv_dmp_odr_delays[
 559:.\20648_driver\drivers/inv_mems_base_control.c **** 			result			|=	DividerRateSet	(lStepCounterMinDly, hw_smplrt_divider, INV_SENSOR_STEP_COUNTER);
 560:.\20648_driver\drivers/inv_mems_base_control.c **** 		}
 561:.\20648_driver\drivers/inv_mems_base_control.c **** #endif
 562:.\20648_driver\drivers/inv_mems_base_control.c **** 	}
 563:.\20648_driver\drivers/inv_mems_base_control.c **** 
 564:.\20648_driver\drivers/inv_mems_base_control.c ****     // Engine Gyro Based
 565:.\20648_driver\drivers/inv_mems_base_control.c **** 	if (minDly_gyro != 0xFFFF) { // 0xFFFF -- none gyro based sensor enable
 566:.\20648_driver\drivers/inv_mems_base_control.c **** 		static unsigned short lLastHwSmplrtDivider = 1;
 567:.\20648_driver\drivers/inv_mems_base_control.c **** 		hw_smplrt_divider	=	SampleRateDividerGet	(minDly_gyro);
 568:.\20648_driver\drivers/inv_mems_base_control.c **** 		
 569:.\20648_driver\drivers/inv_mems_base_control.c **** 		if (hw_smplrt_divider != lLastHwSmplrtDivider)
 570:.\20648_driver\drivers/inv_mems_base_control.c **** 		{
 571:.\20648_driver\drivers/inv_mems_base_control.c **** 			result	|=	inv_set_gyro_divider	((unsigned char)(hw_smplrt_divider - 1));
 572:.\20648_driver\drivers/inv_mems_base_control.c **** 			lLastHwSmplrtDivider = hw_smplrt_divider;
ARM GAS  C:\Users\ADMINI~1\AppData\Local\Temp\ccjTNAQQ.s 			page 15


 573:.\20648_driver\drivers/inv_mems_base_control.c **** 		}
 574:.\20648_driver\drivers/inv_mems_base_control.c ****       
 575:.\20648_driver\drivers/inv_mems_base_control.c **** 		result			|=	DividerRateSet	(MinDelayGen		(MinDelayGenGyro2List), hw_smplrt_divider, INV_SENSOR_GY
 576:.\20648_driver\drivers/inv_mems_base_control.c **** 		result			|=	DividerRateSet	(MinDelayGen		(MinDelayGenGyro3List), hw_smplrt_divider, INV_SENSOR_CA
 577:.\20648_driver\drivers/inv_mems_base_control.c **** #if (MEMS_CHIP == HW_ICM30630)
 578:.\20648_driver\drivers/inv_mems_base_control.c ****         {
 579:.\20648_driver\drivers/inv_mems_base_control.c ****         unsigned short lMinOdrForGmrv;
 580:.\20648_driver\drivers/inv_mems_base_control.c ****         /** In case GMRV is ON, need to check for GMRV related ODR be applied to GRV too, since GRV
 581:.\20648_driver\drivers/inv_mems_base_control.c ****         if (sGmrvIsOn)
 582:.\20648_driver\drivers/inv_mems_base_control.c ****             lMinOdrForGmrv = MinDelayGen	(MinDelayGenGyro4ForGmrvList);
 583:.\20648_driver\drivers/inv_mems_base_control.c ****         else
 584:.\20648_driver\drivers/inv_mems_base_control.c ****             lMinOdrForGmrv = 0xFFFF;
 585:.\20648_driver\drivers/inv_mems_base_control.c **** 		result			|=	DividerRateSet	(min(lMinOdrForGmrv, MinDelayGen		(MinDelayGenGyro4List)), hw_smplrt_d
 586:.\20648_driver\drivers/inv_mems_base_control.c ****         }
 587:.\20648_driver\drivers/inv_mems_base_control.c **** #else
 588:.\20648_driver\drivers/inv_mems_base_control.c **** 		result			|=	DividerRateSet	(MinDelayGen		(MinDelayGenGyro4List), hw_smplrt_divider, INV_SENSOR_SI
 589:.\20648_driver\drivers/inv_mems_base_control.c **** #endif
 590:.\20648_driver\drivers/inv_mems_base_control.c **** 		result			|=	DividerRateSet	(MinDelayGen		(MinDelayGenGyro5List), hw_smplrt_divider, INV_SENSOR_NI
 591:.\20648_driver\drivers/inv_mems_base_control.c ****     }
 592:.\20648_driver\drivers/inv_mems_base_control.c **** 
 593:.\20648_driver\drivers/inv_mems_base_control.c **** #if defined MEMS_SECONDARY_DEVICE
 594:.\20648_driver\drivers/inv_mems_base_control.c **** 	// Engine Cpass and Pressure Based	
 595:.\20648_driver\drivers/inv_mems_base_control.c ****     if ((minDly_cpass != 0xFFFF) || (minDly_pressure != 0xFFFF)){
 596:.\20648_driver\drivers/inv_mems_base_control.c **** 		unsigned int lI2cEffectiveDivider = 0;
 597:.\20648_driver\drivers/inv_mems_base_control.c **** 
 598:.\20648_driver\drivers/inv_mems_base_control.c **** 		// if compass or pressure are alone, compute 1st stage divider, otherwise it will be taken from a
 599:.\20648_driver\drivers/inv_mems_base_control.c **** 		if ( (minDly_accel == 0xFFFF) && (minDly_gyro == 0xFFFF) )
 600:.\20648_driver\drivers/inv_mems_base_control.c **** 			hw_smplrt_divider	=	SampleRateDividerGet	(minDly);
 601:.\20648_driver\drivers/inv_mems_base_control.c **** 
 602:.\20648_driver\drivers/inv_mems_base_control.c **** 		// Apply compass or pressure ODR to I2C and get effective ODR
 603:.\20648_driver\drivers/inv_mems_base_control.c **** 		// so that 2nd level of divider can take into account real frequency we can expect
 604:.\20648_driver\drivers/inv_mems_base_control.c **** 		// to determine its divider value
 605:.\20648_driver\drivers/inv_mems_base_control.c **** 		result	|=	inv_mems_secondary_set_odr	(hw_smplrt_divider, &lI2cEffectiveDivider);
 606:.\20648_driver\drivers/inv_mems_base_control.c **** 
 607:.\20648_driver\drivers/inv_mems_base_control.c **** 		// if compass or pressure are alone, recompute 1st stage divider based on configured divider for 
 608:.\20648_driver\drivers/inv_mems_base_control.c **** 		// otherwise divider is taken from accel or gyro, so there is no need to recompute effective divi
 609:.\20648_driver\drivers/inv_mems_base_control.c **** 		// based on the divider we just applied
 610:.\20648_driver\drivers/inv_mems_base_control.c **** 		if ( (minDly_accel == 0xFFFF) && (minDly_gyro == 0xFFFF) )
 611:.\20648_driver\drivers/inv_mems_base_control.c **** 		    hw_smplrt_divider = lI2cEffectiveDivider;
 612:.\20648_driver\drivers/inv_mems_base_control.c ****         
 613:.\20648_driver\drivers/inv_mems_base_control.c **** 		if (minDly_cpass != 0xFFFF)
 614:.\20648_driver\drivers/inv_mems_base_control.c **** 		{
 615:.\20648_driver\drivers/inv_mems_base_control.c **** 			result			|=	DividerRateSet	(MinDelayGen		(MinDelayGenCpass2List), hw_smplrt_divider, INV_SENSOR_
 616:.\20648_driver\drivers/inv_mems_base_control.c **** 			result			|=	DividerRateSet	(MinDelayGen		(MinDelayGenCpass3List), hw_smplrt_divider, INV_SENSOR_
 617:.\20648_driver\drivers/inv_mems_base_control.c **** 		}
 618:.\20648_driver\drivers/inv_mems_base_control.c **** 
 619:.\20648_driver\drivers/inv_mems_base_control.c **** 		if (minDly_pressure != 0xFFFF)
 620:.\20648_driver\drivers/inv_mems_base_control.c **** 			result			|=	DividerRateSet	(MinDelayGen		(MinDelayGenPressure2List), hw_smplrt_divider, INV_SENS
 621:.\20648_driver\drivers/inv_mems_base_control.c **** 	}
 622:.\20648_driver\drivers/inv_mems_base_control.c **** #endif
 623:.\20648_driver\drivers/inv_mems_base_control.c **** 	
 624:.\20648_driver\drivers/inv_mems_base_control.c ****     return result;
 625:.\20648_driver\drivers/inv_mems_base_control.c **** }
 626:.\20648_driver\drivers/inv_mems_base_control.c **** 
 627:.\20648_driver\drivers/inv_mems_base_control.c **** inv_error_t inv_set_odr(unsigned char androidSensor, unsigned short delayInMs)
 628:.\20648_driver\drivers/inv_mems_base_control.c **** {
 629:.\20648_driver\drivers/inv_mems_base_control.c ****     inv_error_t result;
ARM GAS  C:\Users\ADMINI~1\AppData\Local\Temp\ccjTNAQQ.s 			page 16


 630:.\20648_driver\drivers/inv_mems_base_control.c ****     
 631:.\20648_driver\drivers/inv_mems_base_control.c **** #if defined MEMS_SECONDARY_DEVICE
 632:.\20648_driver\drivers/inv_mems_base_control.c **** 	if(sensor_needs_compass(androidSensor))
 633:.\20648_driver\drivers/inv_mems_base_control.c **** 		if(!inv_mems_get_compass_availability())
 634:.\20648_driver\drivers/inv_mems_base_control.c **** 			return INV_ERROR_INVALID_PARAMETER;
 635:.\20648_driver\drivers/inv_mems_base_control.c **** 	if(sensor_needs_pressure(androidSensor))
 636:.\20648_driver\drivers/inv_mems_base_control.c **** 		if(!inv_mems_get_pressure_availability())
 637:.\20648_driver\drivers/inv_mems_base_control.c **** 			return INV_ERROR_INVALID_PARAMETER;
 638:.\20648_driver\drivers/inv_mems_base_control.c **** #endif
 639:.\20648_driver\drivers/inv_mems_base_control.c **** 
 640:.\20648_driver\drivers/inv_mems_base_control.c **** 	inv_mems_prevent_lpen_control();
 641:.\20648_driver\drivers/inv_mems_base_control.c ****     
 642:.\20648_driver\drivers/inv_mems_base_control.c ****     if (delayInMs == 0) delayInMs = 1;
 643:.\20648_driver\drivers/inv_mems_base_control.c ****     if (delayInMs > 1000) delayInMs = 1000;     // 1Hz / 1000ms
 644:.\20648_driver\drivers/inv_mems_base_control.c ****     switch (androidSensor) {
 645:.\20648_driver\drivers/inv_mems_base_control.c ****         case ANDROID_SENSOR_ACCELEROMETER:
 646:.\20648_driver\drivers/inv_mems_base_control.c ****             inv_dmp_odr_delays[INV_SENSOR_ACCEL] = delayInMs;
 647:.\20648_driver\drivers/inv_mems_base_control.c ****             break;
 648:.\20648_driver\drivers/inv_mems_base_control.c **** 
 649:.\20648_driver\drivers/inv_mems_base_control.c **** #if (MEMS_CHIP != HW_ICM30630)
 650:.\20648_driver\drivers/inv_mems_base_control.c ****         case ANDROID_SENSOR_STEP_DETECTOR:
 651:.\20648_driver\drivers/inv_mems_base_control.c ****         case ANDROID_SENSOR_STEP_COUNTER:
 652:.\20648_driver\drivers/inv_mems_base_control.c ****             inv_dmp_odr_delays[INV_SENSOR_STEP_COUNTER] = delayInMs;
 653:.\20648_driver\drivers/inv_mems_base_control.c ****             break;
 654:.\20648_driver\drivers/inv_mems_base_control.c **** #endif
 655:.\20648_driver\drivers/inv_mems_base_control.c ****         case ANDROID_SENSOR_GEOMAGNETIC_ROTATION_VECTOR:
 656:.\20648_driver\drivers/inv_mems_base_control.c ****             inv_dmp_odr_delays[INV_SENSOR_GEOMAG] = delayInMs;
 657:.\20648_driver\drivers/inv_mems_base_control.c ****             inv_dmp_odr_delays[INV_SENSOR_GEOMAG_cpass] = delayInMs;
 658:.\20648_driver\drivers/inv_mems_base_control.c ****             break;
 659:.\20648_driver\drivers/inv_mems_base_control.c **** 
 660:.\20648_driver\drivers/inv_mems_base_control.c **** #if (MEMS_CHIP == HW_ICM20645_E || MEMS_CHIP == HW_ICM20648)
 661:.\20648_driver\drivers/inv_mems_base_control.c ****         case ANDROID_SENSOR_ACTIVITY_CLASSIFICATON:
 662:.\20648_driver\drivers/inv_mems_base_control.c ****             inv_dmp_odr_delays[INV_SENSOR_ACTIVITY_CLASSIFIER] = delayInMs;
 663:.\20648_driver\drivers/inv_mems_base_control.c ****             break;
 664:.\20648_driver\drivers/inv_mems_base_control.c **** #endif
 665:.\20648_driver\drivers/inv_mems_base_control.c ****         case ANDROID_SENSOR_GYROSCOPE_UNCALIBRATED:
 666:.\20648_driver\drivers/inv_mems_base_control.c ****             inv_dmp_odr_delays[INV_SENSOR_GYRO] = delayInMs;
 667:.\20648_driver\drivers/inv_mems_base_control.c ****             break;
 668:.\20648_driver\drivers/inv_mems_base_control.c **** 
 669:.\20648_driver\drivers/inv_mems_base_control.c ****         case ANDROID_SENSOR_GYROSCOPE:
 670:.\20648_driver\drivers/inv_mems_base_control.c **** #if (MEMS_CHIP == HW_ICM30630)
 671:.\20648_driver\drivers/inv_mems_base_control.c ****             inv_dmp_odr_delays[INV_SENSOR_GYRO] = delayInMs;
 672:.\20648_driver\drivers/inv_mems_base_control.c **** #endif
 673:.\20648_driver\drivers/inv_mems_base_control.c ****             inv_dmp_odr_delays[INV_SENSOR_CALIB_GYRO] = delayInMs;
 674:.\20648_driver\drivers/inv_mems_base_control.c ****             break;
 675:.\20648_driver\drivers/inv_mems_base_control.c **** 
 676:.\20648_driver\drivers/inv_mems_base_control.c ****         case ANDROID_SENSOR_GRAVITY:
 677:.\20648_driver\drivers/inv_mems_base_control.c ****         case ANDROID_SENSOR_GAME_ROTATION_VECTOR:
 678:.\20648_driver\drivers/inv_mems_base_control.c ****         case ANDROID_SENSOR_LINEAR_ACCELERATION:
 679:.\20648_driver\drivers/inv_mems_base_control.c **** #if defined MEMS_AUGMENTED_SENSORS
 680:.\20648_driver\drivers/inv_mems_base_control.c ****             // if augmented sensors are handled by this driver,
 681:.\20648_driver\drivers/inv_mems_base_control.c ****             // then the fastest 6quat-based sensor which is enabled
 682:.\20648_driver\drivers/inv_mems_base_control.c ****             // should be applied to all 6quat-based sensors
 683:.\20648_driver\drivers/inv_mems_base_control.c **** 			delayInMs = inv_mems_augmented_sensors_set_odr(androidSensor, delayInMs);
 684:.\20648_driver\drivers/inv_mems_base_control.c **** #endif
 685:.\20648_driver\drivers/inv_mems_base_control.c ****             inv_dmp_odr_delays[INV_SENSOR_SIXQ] = delayInMs;
 686:.\20648_driver\drivers/inv_mems_base_control.c ****             inv_dmp_odr_delays[INV_SENSOR_SIXQ_accel] = delayInMs;
ARM GAS  C:\Users\ADMINI~1\AppData\Local\Temp\ccjTNAQQ.s 			page 17


 687:.\20648_driver\drivers/inv_mems_base_control.c ****             break;
 688:.\20648_driver\drivers/inv_mems_base_control.c **** 
 689:.\20648_driver\drivers/inv_mems_base_control.c ****         case ANDROID_SENSOR_ORIENTATION:
 690:.\20648_driver\drivers/inv_mems_base_control.c ****         case ANDROID_SENSOR_ROTATION_VECTOR:
 691:.\20648_driver\drivers/inv_mems_base_control.c **** #if defined MEMS_AUGMENTED_SENSORS
 692:.\20648_driver\drivers/inv_mems_base_control.c ****             // if augmented sensors are handled by this driver,
 693:.\20648_driver\drivers/inv_mems_base_control.c ****             // then the fastest 9quat-based sensor which is enabled
 694:.\20648_driver\drivers/inv_mems_base_control.c ****             // should be applied to all 9quat-based sensors
 695:.\20648_driver\drivers/inv_mems_base_control.c **** 			delayInMs = inv_mems_augmented_sensors_set_odr(androidSensor, delayInMs);
 696:.\20648_driver\drivers/inv_mems_base_control.c **** #endif
 697:.\20648_driver\drivers/inv_mems_base_control.c ****             inv_dmp_odr_delays[INV_SENSOR_NINEQ] = delayInMs;
 698:.\20648_driver\drivers/inv_mems_base_control.c ****             inv_dmp_odr_delays[INV_SENSOR_NINEQ_accel] = delayInMs;
 699:.\20648_driver\drivers/inv_mems_base_control.c ****             inv_dmp_odr_delays[INV_SENSOR_NINEQ_cpass] = delayInMs;
 700:.\20648_driver\drivers/inv_mems_base_control.c ****             break;
 701:.\20648_driver\drivers/inv_mems_base_control.c **** 
 702:.\20648_driver\drivers/inv_mems_base_control.c ****         case ANDROID_SENSOR_MAGNETIC_FIELD_UNCALIBRATED:
 703:.\20648_driver\drivers/inv_mems_base_control.c ****             inv_dmp_odr_delays[INV_SENSOR_COMPASS] = delayInMs;
 704:.\20648_driver\drivers/inv_mems_base_control.c ****             break;
 705:.\20648_driver\drivers/inv_mems_base_control.c **** 
 706:.\20648_driver\drivers/inv_mems_base_control.c ****         case ANDROID_SENSOR_GEOMAGNETIC_FIELD:
 707:.\20648_driver\drivers/inv_mems_base_control.c ****             inv_dmp_odr_delays[INV_SENSOR_CALIB_COMPASS] = delayInMs;
 708:.\20648_driver\drivers/inv_mems_base_control.c ****             break;
 709:.\20648_driver\drivers/inv_mems_base_control.c **** 
 710:.\20648_driver\drivers/inv_mems_base_control.c ****         case ANDROID_SENSOR_LIGHT:
 711:.\20648_driver\drivers/inv_mems_base_control.c ****         case ANDROID_SENSOR_PROXIMITY:
 712:.\20648_driver\drivers/inv_mems_base_control.c ****             inv_dmp_odr_delays[INV_SENSOR_ALS] = delayInMs;
 713:.\20648_driver\drivers/inv_mems_base_control.c ****             break;
 714:.\20648_driver\drivers/inv_mems_base_control.c **** 
 715:.\20648_driver\drivers/inv_mems_base_control.c ****         case ANDROID_SENSOR_WAKEUP_ACCELEROMETER:
 716:.\20648_driver\drivers/inv_mems_base_control.c ****             inv_dmp_odr_delays[INV_SENSOR_WAKEUP_ACCEL] = delayInMs;
 717:.\20648_driver\drivers/inv_mems_base_control.c ****             break;
 718:.\20648_driver\drivers/inv_mems_base_control.c **** 
 719:.\20648_driver\drivers/inv_mems_base_control.c **** #if (MEMS_CHIP != HW_ICM30630)
 720:.\20648_driver\drivers/inv_mems_base_control.c ****         case ANDROID_SENSOR_WAKEUP_STEP_DETECTOR:
 721:.\20648_driver\drivers/inv_mems_base_control.c ****         case ANDROID_SENSOR_WAKEUP_STEP_COUNTER:
 722:.\20648_driver\drivers/inv_mems_base_control.c ****         case ANDROID_SENSOR_WAKEUP_SIGNIFICANT_MOTION:
 723:.\20648_driver\drivers/inv_mems_base_control.c ****             inv_dmp_odr_delays[INV_SENSOR_WAKEUP_STEP_COUNTER] = delayInMs;
 724:.\20648_driver\drivers/inv_mems_base_control.c ****             break;
 725:.\20648_driver\drivers/inv_mems_base_control.c **** #endif
 726:.\20648_driver\drivers/inv_mems_base_control.c ****         case ANDROID_SENSOR_WAKEUP_GEOMAGNETIC_ROTATION_VECTOR:
 727:.\20648_driver\drivers/inv_mems_base_control.c ****             inv_dmp_odr_delays[INV_SENSOR_WAKEUP_GEOMAG] = delayInMs;
 728:.\20648_driver\drivers/inv_mems_base_control.c ****             inv_dmp_odr_delays[INV_SENSOR_WAKEUP_GEOMAG_cpass] = delayInMs;
 729:.\20648_driver\drivers/inv_mems_base_control.c ****             break;
 730:.\20648_driver\drivers/inv_mems_base_control.c **** 
 731:.\20648_driver\drivers/inv_mems_base_control.c **** #if (MEMS_CHIP == HW_ICM20645_E || MEMS_CHIP == HW_ICM20648)
 732:.\20648_driver\drivers/inv_mems_base_control.c ****         case ANDROID_SENSOR_WAKEUP_TILT_DETECTOR:
 733:.\20648_driver\drivers/inv_mems_base_control.c ****             inv_dmp_odr_delays[INV_SENSOR_WAKEUP_TILT_DETECTOR] = delayInMs;
 734:.\20648_driver\drivers/inv_mems_base_control.c ****             break;
 735:.\20648_driver\drivers/inv_mems_base_control.c **** #endif
 736:.\20648_driver\drivers/inv_mems_base_control.c ****         case ANDROID_SENSOR_B2S:
 737:.\20648_driver\drivers/inv_mems_base_control.c ****             inv_dmp_odr_delays[INV_SENSOR_BRING_TO_SEE] = delayInMs;
 738:.\20648_driver\drivers/inv_mems_base_control.c ****             break;
 739:.\20648_driver\drivers/inv_mems_base_control.c **** 
 740:.\20648_driver\drivers/inv_mems_base_control.c ****         case ANDROID_SENSOR_WAKEUP_GYROSCOPE_UNCALIBRATED:
 741:.\20648_driver\drivers/inv_mems_base_control.c ****             inv_dmp_odr_delays[INV_SENSOR_WAKEUP_GYRO] = delayInMs;
 742:.\20648_driver\drivers/inv_mems_base_control.c ****             break;
 743:.\20648_driver\drivers/inv_mems_base_control.c **** 
ARM GAS  C:\Users\ADMINI~1\AppData\Local\Temp\ccjTNAQQ.s 			page 18


 744:.\20648_driver\drivers/inv_mems_base_control.c ****         case ANDROID_SENSOR_WAKEUP_GYROSCOPE:
 745:.\20648_driver\drivers/inv_mems_base_control.c ****             inv_dmp_odr_delays[INV_SENSOR_WAKEUP_CALIB_GYRO] = delayInMs;
 746:.\20648_driver\drivers/inv_mems_base_control.c ****             break;
 747:.\20648_driver\drivers/inv_mems_base_control.c **** 
 748:.\20648_driver\drivers/inv_mems_base_control.c ****         case ANDROID_SENSOR_WAKEUP_GRAVITY:
 749:.\20648_driver\drivers/inv_mems_base_control.c ****         case ANDROID_SENSOR_WAKEUP_GAME_ROTATION_VECTOR:
 750:.\20648_driver\drivers/inv_mems_base_control.c ****         case ANDROID_SENSOR_WAKEUP_LINEAR_ACCELERATION:
 751:.\20648_driver\drivers/inv_mems_base_control.c **** #if defined MEMS_AUGMENTED_SENSORS
 752:.\20648_driver\drivers/inv_mems_base_control.c ****             // if augmented sensors are handled by this driver,
 753:.\20648_driver\drivers/inv_mems_base_control.c ****             // then the fastest 6quat-based sensor which is enabled
 754:.\20648_driver\drivers/inv_mems_base_control.c ****             // should be applied to all 6quat-based sensors
 755:.\20648_driver\drivers/inv_mems_base_control.c **** 			delayInMs = inv_mems_augmented_sensors_set_odr(androidSensor, delayInMs);
 756:.\20648_driver\drivers/inv_mems_base_control.c **** #endif
 757:.\20648_driver\drivers/inv_mems_base_control.c ****             inv_dmp_odr_delays[INV_SENSOR_WAKEUP_SIXQ] = delayInMs;
 758:.\20648_driver\drivers/inv_mems_base_control.c ****             inv_dmp_odr_delays[INV_SENSOR_WAKEUP_SIXQ_accel] = delayInMs;
 759:.\20648_driver\drivers/inv_mems_base_control.c ****             break;
 760:.\20648_driver\drivers/inv_mems_base_control.c **** 
 761:.\20648_driver\drivers/inv_mems_base_control.c ****         case ANDROID_SENSOR_WAKEUP_ORIENTATION:
 762:.\20648_driver\drivers/inv_mems_base_control.c ****         case ANDROID_SENSOR_WAKEUP_ROTATION_VECTOR:
 763:.\20648_driver\drivers/inv_mems_base_control.c **** #if defined MEMS_AUGMENTED_SENSORS
 764:.\20648_driver\drivers/inv_mems_base_control.c ****             // if augmented sensors are handled by this driver,
 765:.\20648_driver\drivers/inv_mems_base_control.c ****             // then the fastest 9quat-based sensor which is enabled
 766:.\20648_driver\drivers/inv_mems_base_control.c ****             // should be applied to all 9quat-based sensors
 767:.\20648_driver\drivers/inv_mems_base_control.c **** 			delayInMs = inv_mems_augmented_sensors_set_odr(androidSensor, delayInMs);
 768:.\20648_driver\drivers/inv_mems_base_control.c **** #endif
 769:.\20648_driver\drivers/inv_mems_base_control.c ****             inv_dmp_odr_delays[INV_SENSOR_WAKEUP_NINEQ] = delayInMs;
 770:.\20648_driver\drivers/inv_mems_base_control.c ****             inv_dmp_odr_delays[INV_SENSOR_WAKEUP_NINEQ_accel] = delayInMs;
 771:.\20648_driver\drivers/inv_mems_base_control.c ****             inv_dmp_odr_delays[INV_SENSOR_WAKEUP_NINEQ_cpass] = delayInMs;
 772:.\20648_driver\drivers/inv_mems_base_control.c ****             break;
 773:.\20648_driver\drivers/inv_mems_base_control.c **** 
 774:.\20648_driver\drivers/inv_mems_base_control.c ****         case ANDROID_SENSOR_WAKEUP_MAGNETIC_FIELD_UNCALIBRATED:
 775:.\20648_driver\drivers/inv_mems_base_control.c ****             inv_dmp_odr_delays[INV_SENSOR_WAKEUP_COMPASS] = delayInMs;
 776:.\20648_driver\drivers/inv_mems_base_control.c ****             break;
 777:.\20648_driver\drivers/inv_mems_base_control.c **** 
 778:.\20648_driver\drivers/inv_mems_base_control.c ****         case ANDROID_SENSOR_WAKEUP_MAGNETIC_FIELD:
 779:.\20648_driver\drivers/inv_mems_base_control.c ****             inv_dmp_odr_delays[INV_SENSOR_WAKEUP_CALIB_COMPASS] = delayInMs;
 780:.\20648_driver\drivers/inv_mems_base_control.c ****             break;
 781:.\20648_driver\drivers/inv_mems_base_control.c **** 
 782:.\20648_driver\drivers/inv_mems_base_control.c ****         case ANDROID_SENSOR_WAKEUP_LIGHT:
 783:.\20648_driver\drivers/inv_mems_base_control.c ****         case ANDROID_SENSOR_WAKEUP_PROXIMITY:
 784:.\20648_driver\drivers/inv_mems_base_control.c ****             inv_dmp_odr_delays[INV_SENSOR_WAKEUP_ALS] = delayInMs;
 785:.\20648_driver\drivers/inv_mems_base_control.c ****             break;
 786:.\20648_driver\drivers/inv_mems_base_control.c **** 
 787:.\20648_driver\drivers/inv_mems_base_control.c ****         case ANDROID_SENSOR_PRESSURE:
 788:.\20648_driver\drivers/inv_mems_base_control.c ****             inv_dmp_odr_delays[INV_SENSOR_PRESSURE] = delayInMs;
 789:.\20648_driver\drivers/inv_mems_base_control.c ****             break;
 790:.\20648_driver\drivers/inv_mems_base_control.c **** 
 791:.\20648_driver\drivers/inv_mems_base_control.c ****         case ANDROID_SENSOR_WAKEUP_PRESSURE:
 792:.\20648_driver\drivers/inv_mems_base_control.c ****             inv_dmp_odr_delays[INV_SENSOR_WAKEUP_PRESSURE] = delayInMs;
 793:.\20648_driver\drivers/inv_mems_base_control.c ****             break;
 794:.\20648_driver\drivers/inv_mems_base_control.c **** 
 795:.\20648_driver\drivers/inv_mems_base_control.c ****         case ANDROID_SENSOR_FLIP_PICKUP:
 796:.\20648_driver\drivers/inv_mems_base_control.c ****             inv_dmp_odr_delays[INV_SENSOR_FLIP_PICKUP] = delayInMs;
 797:.\20648_driver\drivers/inv_mems_base_control.c ****             break;
 798:.\20648_driver\drivers/inv_mems_base_control.c **** 
 799:.\20648_driver\drivers/inv_mems_base_control.c ****         // not support yet
 800:.\20648_driver\drivers/inv_mems_base_control.c ****         case ANDROID_SENSOR_META_DATA:
ARM GAS  C:\Users\ADMINI~1\AppData\Local\Temp\ccjTNAQQ.s 			page 19


 801:.\20648_driver\drivers/inv_mems_base_control.c ****         case ANDROID_SENSOR_TEMPERATURE:
 802:.\20648_driver\drivers/inv_mems_base_control.c ****         case ANDROID_SENSOR_AMBIENT_TEMPERATURE:
 803:.\20648_driver\drivers/inv_mems_base_control.c ****         case ANDROID_SENSOR_HUMIDITY:
 804:.\20648_driver\drivers/inv_mems_base_control.c ****         case ANDROID_SENSOR_HEART_RATE:
 805:.\20648_driver\drivers/inv_mems_base_control.c ****         case ANDROID_SENSOR_SCREEN_ROTATION:
 806:.\20648_driver\drivers/inv_mems_base_control.c ****         case ANDROID_SENSOR_WAKEUP_AMBIENT_TEMPERATURE:
 807:.\20648_driver\drivers/inv_mems_base_control.c ****         case ANDROID_SENSOR_WAKEUP_RELATIVE_HUMIDITY:
 808:.\20648_driver\drivers/inv_mems_base_control.c ****         case ANDROID_SENSOR_WAKEUP_HEART_RATE:
 809:.\20648_driver\drivers/inv_mems_base_control.c ****             break;
 810:.\20648_driver\drivers/inv_mems_base_control.c ****             
 811:.\20648_driver\drivers/inv_mems_base_control.c ****         default:
 812:.\20648_driver\drivers/inv_mems_base_control.c ****             break;      
 813:.\20648_driver\drivers/inv_mems_base_control.c ****     }
 814:.\20648_driver\drivers/inv_mems_base_control.c **** 
 815:.\20648_driver\drivers/inv_mems_base_control.c ****     result = inv_set_hw_smplrt_dmp_odrs();
 816:.\20648_driver\drivers/inv_mems_base_control.c ****     result |= inv_set_gyro_sf(inv_get_gyro_divider(), inv_get_gyro_fullscale());
 817:.\20648_driver\drivers/inv_mems_base_control.c **** 
 818:.\20648_driver\drivers/inv_mems_base_control.c ****     // debug get odr
 819:.\20648_driver\drivers/inv_mems_base_control.c ****     // result should be SAME as you entered in Ms in the Rolldice console
 820:.\20648_driver\drivers/inv_mems_base_control.c ****     // i.e. If you use: O a 63 [ Press capital O then 'a' then 63 then ENTER]
 821:.\20648_driver\drivers/inv_mems_base_control.c ****     // You should get the nearest number to 63 here if you debug  the 'test_odr'  
 822:.\20648_driver\drivers/inv_mems_base_control.c ****     
 823:.\20648_driver\drivers/inv_mems_base_control.c ****     //inv_get_odr( androidSensor, &test_odr );
 824:.\20648_driver\drivers/inv_mems_base_control.c ****       
 825:.\20648_driver\drivers/inv_mems_base_control.c **** 	inv_mems_allow_lpen_control();
 826:.\20648_driver\drivers/inv_mems_base_control.c ****     return result;
 827:.\20648_driver\drivers/inv_mems_base_control.c **** }
 828:.\20648_driver\drivers/inv_mems_base_control.c **** 
 829:.\20648_driver\drivers/inv_mems_base_control.c **** /*
 830:.\20648_driver\drivers/inv_mems_base_control.c ****    inv_get_odr()
 831:.\20648_driver\drivers/inv_mems_base_control.c ****    Function to Query DMP3 DataRate (ODR)
 832:.\20648_driver\drivers/inv_mems_base_control.c ****    
 833:.\20648_driver\drivers/inv_mems_base_control.c ****    *odr = inv_get_odr_in_units( );
 834:.\20648_driver\drivers/inv_mems_base_control.c **** 
 835:.\20648_driver\drivers/inv_mems_base_control.c ****     The result in odr_units saved in *odr param
 836:.\20648_driver\drivers/inv_mems_base_control.c **** */
 837:.\20648_driver\drivers/inv_mems_base_control.c **** inv_error_t inv_get_odr(unsigned char SensorId, uint32_t *odr, enum INV_ODR_TYPE odr_units)
 838:.\20648_driver\drivers/inv_mems_base_control.c **** {
 210              		.loc 1 838 0
 211              		.cfi_startproc
 212              	.LVL23:
 213 0000 10B5     		push	{r4, lr}
 214              		.cfi_def_cfa_offset 8
 215              		.cfi_offset 4, -8
 216              		.cfi_offset 14, -4
 217              		.loc 1 838 0
 218 0002 0C1E     		sub	r4, r1, #0
 839:.\20648_driver\drivers/inv_mems_base_control.c ****     inv_error_t result=0;
 840:.\20648_driver\drivers/inv_mems_base_control.c **** 
 841:.\20648_driver\drivers/inv_mems_base_control.c ****     if(!odr) // sanity
 219              		.loc 1 841 0
 220 0004 00D1     		bne	.LCB209
 221 0006 73E0     		b	.L51	@long jump
 222              	.LCB209:
 842:.\20648_driver\drivers/inv_mems_base_control.c ****       return -1;
 843:.\20648_driver\drivers/inv_mems_base_control.c ****        
 844:.\20648_driver\drivers/inv_mems_base_control.c ****    *odr = 0;
ARM GAS  C:\Users\ADMINI~1\AppData\Local\Temp\ccjTNAQQ.s 			page 20


 223              		.loc 1 844 0
 224 0008 0023     		mov	r3, #0
 845:.\20648_driver\drivers/inv_mems_base_control.c ****    
 846:.\20648_driver\drivers/inv_mems_base_control.c ****    /*
 847:.\20648_driver\drivers/inv_mems_base_control.c ****      You can obtain the odr in Milliseconds, Micro Seconds or Ticks.
 848:.\20648_driver\drivers/inv_mems_base_control.c ****      Use the enum values: ODR_IN_Ms, ODR_IN_Us or ODR_IN_Ticks,
 849:.\20648_driver\drivers/inv_mems_base_control.c ****      when calling inv_get_odr_in_units().
 850:.\20648_driver\drivers/inv_mems_base_control.c ****    */
 851:.\20648_driver\drivers/inv_mems_base_control.c ****    
 852:.\20648_driver\drivers/inv_mems_base_control.c ****     switch (SensorId) {
 225              		.loc 1 852 0
 226 000a 0138     		sub	r0, r0, #1
 227              	.LVL24:
 844:.\20648_driver\drivers/inv_mems_base_control.c ****    
 228              		.loc 1 844 0
 229 000c 0B60     		str	r3, [r1]
 230              		.loc 1 852 0
 231 000e 2C28     		cmp	r0, #44
 232 0010 00D9     		bls	.LCB215
 233 0012 70E0     		b	.L52	@long jump
 234              	.LCB215:
 235 0014 111C     		mov	r1, r2
 236              	.LVL25:
 237 0016 FFF7FEFF 		bl	__gnu_thumb1_case_uqi
 238              	.L24:
 239 001a 17       		.byte	(.L23-.L24)/2
 240 001b 32       		.byte	(.L25-.L24)/2
 241 001c 2C       		.byte	(.L26-.L24)/2
 242 001d 26       		.byte	(.L27-.L24)/2
 243 001e 35       		.byte	(.L28-.L24)/2
 244 001f 5F       		.byte	(.L29-.L24)/2
 245 0020 6E       		.byte	(.L52-.L24)/2
 246 0021 5C       		.byte	(.L30-.L24)/2
 247 0022 29       		.byte	(.L31-.L24)/2
 248 0023 29       		.byte	(.L31-.L24)/2
 249 0024 2C       		.byte	(.L26-.L24)/2
 250 0025 6E       		.byte	(.L52-.L24)/2
 251 0026 6E       		.byte	(.L52-.L24)/2
 252 0027 2F       		.byte	(.L32-.L24)/2
 253 0028 29       		.byte	(.L31-.L24)/2
 254 0029 23       		.byte	(.L33-.L24)/2
 255 002a 3B       		.byte	(.L34-.L24)/2
 256 002b 1A       		.byte	(.L35-.L24)/2
 257 002c 1A       		.byte	(.L35-.L24)/2
 258 002d 1D       		.byte	(.L36-.L24)/2
 259 002e 6E       		.byte	(.L52-.L24)/2
 260 002f 35       		.byte	(.L28-.L24)/2
 261 0030 38       		.byte	(.L37-.L24)/2
 262 0031 59       		.byte	(.L38-.L24)/2
 263 0032 53       		.byte	(.L39-.L24)/2
 264 0033 49       		.byte	(.L40-.L24)/2
 265 0034 5C       		.byte	(.L30-.L24)/2
 266 0035 62       		.byte	(.L41-.L24)/2
 267 0036 4F       		.byte	(.L42-.L24)/2
 268 0037 4F       		.byte	(.L42-.L24)/2
 269 0038 53       		.byte	(.L39-.L24)/2
 270 0039 6E       		.byte	(.L52-.L24)/2
ARM GAS  C:\Users\ADMINI~1\AppData\Local\Temp\ccjTNAQQ.s 			page 21


 271 003a 6E       		.byte	(.L52-.L24)/2
 272 003b 56       		.byte	(.L43-.L24)/2
 273 003c 4C       		.byte	(.L44-.L24)/2
 274 003d 46       		.byte	(.L45-.L24)/2
 275 003e 3B       		.byte	(.L34-.L24)/2
 276 003f 3B       		.byte	(.L34-.L24)/2
 277 0040 3D       		.byte	(.L46-.L24)/2
 278 0041 6E       		.byte	(.L52-.L24)/2
 279 0042 40       		.byte	(.L47-.L24)/2
 280 0043 6E       		.byte	(.L52-.L24)/2
 281 0044 43       		.byte	(.L48-.L24)/2
 282 0045 65       		.byte	(.L49-.L24)/2
 283 0046 20       		.byte	(.L50-.L24)/2
 284 0047 00       		.p2align 1
 285              	.L23:
 853:.\20648_driver\drivers/inv_mems_base_control.c ****         case ANDROID_SENSOR_ACCELEROMETER:
 854:.\20648_driver\drivers/inv_mems_base_control.c ****             *odr = inv_get_odr_in_units( inv_dmp_odr_dividers[INV_SENSOR_ACCEL] , odr_units );
 286              		.loc 1 854 0
 287 0048 2C4B     		ldr	r3, .L55
 288 004a 1888     		ldrh	r0, [r3]
 289 004c 4CE0     		b	.L53
 290              	.L35:
 855:.\20648_driver\drivers/inv_mems_base_control.c ****             break;
 856:.\20648_driver\drivers/inv_mems_base_control.c **** 
 857:.\20648_driver\drivers/inv_mems_base_control.c **** #if (MEMS_CHIP != HW_ICM30630)
 858:.\20648_driver\drivers/inv_mems_base_control.c ****         case ANDROID_SENSOR_STEP_DETECTOR:
 859:.\20648_driver\drivers/inv_mems_base_control.c ****         case ANDROID_SENSOR_STEP_COUNTER:
 860:.\20648_driver\drivers/inv_mems_base_control.c ****             *odr = inv_get_odr_in_units( inv_dmp_odr_dividers[INV_SENSOR_STEP_COUNTER] , odr_units 
 291              		.loc 1 860 0
 292 004e 2B4B     		ldr	r3, .L55
 293 0050 188B     		ldrh	r0, [r3, #24]
 294 0052 49E0     		b	.L53
 295              	.L36:
 861:.\20648_driver\drivers/inv_mems_base_control.c ****             break;
 862:.\20648_driver\drivers/inv_mems_base_control.c **** #endif
 863:.\20648_driver\drivers/inv_mems_base_control.c ****             
 864:.\20648_driver\drivers/inv_mems_base_control.c ****         case ANDROID_SENSOR_GEOMAGNETIC_ROTATION_VECTOR:
 865:.\20648_driver\drivers/inv_mems_base_control.c ****             *odr = inv_get_odr_in_units( inv_dmp_odr_dividers[INV_SENSOR_GEOMAG] , odr_units );    
 296              		.loc 1 865 0
 297 0054 294B     		ldr	r3, .L55
 298 0056 D889     		ldrh	r0, [r3, #14]
 299 0058 46E0     		b	.L53
 300              	.L50:
 866:.\20648_driver\drivers/inv_mems_base_control.c ****             break;
 867:.\20648_driver\drivers/inv_mems_base_control.c **** 
 868:.\20648_driver\drivers/inv_mems_base_control.c **** #if (MEMS_CHIP == HW_ICM20645_E || MEMS_CHIP == HW_ICM20648)
 869:.\20648_driver\drivers/inv_mems_base_control.c ****         case ANDROID_SENSOR_ACTIVITY_CLASSIFICATON:
 870:.\20648_driver\drivers/inv_mems_base_control.c ****             *odr = inv_get_odr_in_units( inv_dmp_odr_dividers[INV_SENSOR_ACTIVITY_CLASSIFIER] , odr
 301              		.loc 1 870 0
 302 005a 284B     		ldr	r3, .L55
 303 005c 588B     		ldrh	r0, [r3, #26]
 304 005e 43E0     		b	.L53
 305              	.L33:
 871:.\20648_driver\drivers/inv_mems_base_control.c ****             break;
 872:.\20648_driver\drivers/inv_mems_base_control.c **** #endif
 873:.\20648_driver\drivers/inv_mems_base_control.c **** 
 874:.\20648_driver\drivers/inv_mems_base_control.c ****         case ANDROID_SENSOR_GYROSCOPE_UNCALIBRATED:
ARM GAS  C:\Users\ADMINI~1\AppData\Local\Temp\ccjTNAQQ.s 			page 22


 875:.\20648_driver\drivers/inv_mems_base_control.c ****             *odr = inv_get_odr_in_units( inv_dmp_odr_dividers[INV_SENSOR_GYRO] , odr_units );
 306              		.loc 1 875 0
 307 0060 264B     		ldr	r3, .L55
 308 0062 5888     		ldrh	r0, [r3, #2]
 309 0064 40E0     		b	.L53
 310              	.L27:
 876:.\20648_driver\drivers/inv_mems_base_control.c ****             break;
 877:.\20648_driver\drivers/inv_mems_base_control.c **** 
 878:.\20648_driver\drivers/inv_mems_base_control.c ****         case ANDROID_SENSOR_GYROSCOPE:
 879:.\20648_driver\drivers/inv_mems_base_control.c ****             *odr = inv_get_odr_in_units( inv_dmp_odr_dividers[INV_SENSOR_CALIB_GYRO] , odr_units );
 311              		.loc 1 879 0
 312 0066 254B     		ldr	r3, .L55
 313 0068 988A     		ldrh	r0, [r3, #20]
 314 006a 3DE0     		b	.L53
 315              	.L31:
 880:.\20648_driver\drivers/inv_mems_base_control.c ****             break;
 881:.\20648_driver\drivers/inv_mems_base_control.c **** 
 882:.\20648_driver\drivers/inv_mems_base_control.c ****         case ANDROID_SENSOR_GAME_ROTATION_VECTOR:
 883:.\20648_driver\drivers/inv_mems_base_control.c ****         case ANDROID_SENSOR_GRAVITY:
 884:.\20648_driver\drivers/inv_mems_base_control.c ****         case ANDROID_SENSOR_LINEAR_ACCELERATION:
 885:.\20648_driver\drivers/inv_mems_base_control.c ****             *odr = inv_get_odr_in_units( inv_dmp_odr_dividers[INV_SENSOR_SIXQ] , odr_units );
 316              		.loc 1 885 0
 317 006c 234B     		ldr	r3, .L55
 318 006e 5889     		ldrh	r0, [r3, #10]
 319 0070 3AE0     		b	.L53
 320              	.L26:
 886:.\20648_driver\drivers/inv_mems_base_control.c ****             break;
 887:.\20648_driver\drivers/inv_mems_base_control.c **** 
 888:.\20648_driver\drivers/inv_mems_base_control.c ****         case ANDROID_SENSOR_ORIENTATION:
 889:.\20648_driver\drivers/inv_mems_base_control.c ****         case ANDROID_SENSOR_ROTATION_VECTOR:
 890:.\20648_driver\drivers/inv_mems_base_control.c ****             *odr = inv_get_odr_in_units( inv_dmp_odr_dividers[INV_SENSOR_NINEQ] , odr_units );
 321              		.loc 1 890 0
 322 0072 224B     		ldr	r3, .L55
 323 0074 9889     		ldrh	r0, [r3, #12]
 324 0076 37E0     		b	.L53
 325              	.L32:
 891:.\20648_driver\drivers/inv_mems_base_control.c ****             break;
 892:.\20648_driver\drivers/inv_mems_base_control.c **** 
 893:.\20648_driver\drivers/inv_mems_base_control.c ****         case ANDROID_SENSOR_MAGNETIC_FIELD_UNCALIBRATED:
 894:.\20648_driver\drivers/inv_mems_base_control.c ****             *odr = inv_get_odr_in_units( inv_dmp_odr_dividers[INV_SENSOR_COMPASS] , odr_units );
 326              		.loc 1 894 0
 327 0078 204B     		ldr	r3, .L55
 328 007a D888     		ldrh	r0, [r3, #6]
 329 007c 34E0     		b	.L53
 330              	.L25:
 895:.\20648_driver\drivers/inv_mems_base_control.c ****             break;
 896:.\20648_driver\drivers/inv_mems_base_control.c **** 
 897:.\20648_driver\drivers/inv_mems_base_control.c ****         case ANDROID_SENSOR_GEOMAGNETIC_FIELD:
 898:.\20648_driver\drivers/inv_mems_base_control.c ****             *odr = inv_get_odr_in_units( inv_dmp_odr_dividers[INV_SENSOR_CALIB_COMPASS] , odr_units
 331              		.loc 1 898 0
 332 007e 1F4B     		ldr	r3, .L55
 333 0080 D88A     		ldrh	r0, [r3, #22]
 334 0082 31E0     		b	.L53
 335              	.L28:
 899:.\20648_driver\drivers/inv_mems_base_control.c ****             break;
 900:.\20648_driver\drivers/inv_mems_base_control.c **** 
 901:.\20648_driver\drivers/inv_mems_base_control.c ****         case ANDROID_SENSOR_LIGHT:
ARM GAS  C:\Users\ADMINI~1\AppData\Local\Temp\ccjTNAQQ.s 			page 23


 902:.\20648_driver\drivers/inv_mems_base_control.c ****         case ANDROID_SENSOR_PROXIMITY:
 903:.\20648_driver\drivers/inv_mems_base_control.c ****             *odr = inv_get_odr_in_units( inv_dmp_odr_dividers[INV_SENSOR_ALS] , odr_units );
 336              		.loc 1 903 0
 337 0084 1D4B     		ldr	r3, .L55
 338 0086 1889     		ldrh	r0, [r3, #8]
 339 0088 2EE0     		b	.L53
 340              	.L37:
 904:.\20648_driver\drivers/inv_mems_base_control.c ****             break;
 905:.\20648_driver\drivers/inv_mems_base_control.c **** 
 906:.\20648_driver\drivers/inv_mems_base_control.c ****         case ANDROID_SENSOR_WAKEUP_ACCELEROMETER:
 907:.\20648_driver\drivers/inv_mems_base_control.c ****             *odr = inv_get_odr_in_units( inv_dmp_odr_dividers[INV_SENSOR_WAKEUP_ACCEL] , odr_units 
 341              		.loc 1 907 0
 342 008a 1C4B     		ldr	r3, .L55
 343 008c 188D     		ldrh	r0, [r3, #40]
 344 008e 2BE0     		b	.L53
 345              	.L34:
 908:.\20648_driver\drivers/inv_mems_base_control.c ****             break;
 909:.\20648_driver\drivers/inv_mems_base_control.c **** 
 910:.\20648_driver\drivers/inv_mems_base_control.c **** #if (MEMS_CHIP != HW_ICM30630)
 911:.\20648_driver\drivers/inv_mems_base_control.c ****         case ANDROID_SENSOR_WAKEUP_STEP_DETECTOR:
 912:.\20648_driver\drivers/inv_mems_base_control.c ****         case ANDROID_SENSOR_WAKEUP_STEP_COUNTER:
 913:.\20648_driver\drivers/inv_mems_base_control.c ****         case ANDROID_SENSOR_WAKEUP_SIGNIFICANT_MOTION:
 914:.\20648_driver\drivers/inv_mems_base_control.c ****             *odr = inv_get_odr_in_units( inv_dmp_odr_dividers[INV_SENSOR_WAKEUP_STEP_COUNTER] , odr
 346              		.loc 1 914 0
 347 0090 1A4B     		ldr	r3, .L55
 348 0092 13E0     		b	.L54
 349              	.L46:
 915:.\20648_driver\drivers/inv_mems_base_control.c ****             break;
 916:.\20648_driver\drivers/inv_mems_base_control.c **** #endif
 917:.\20648_driver\drivers/inv_mems_base_control.c **** 
 918:.\20648_driver\drivers/inv_mems_base_control.c ****         case ANDROID_SENSOR_WAKEUP_GEOMAGNETIC_ROTATION_VECTOR:
 919:.\20648_driver\drivers/inv_mems_base_control.c ****             *odr = inv_get_odr_in_units( inv_dmp_odr_dividers[INV_SENSOR_WAKEUP_GEOMAG] , odr_units
 350              		.loc 1 919 0
 351 0094 194B     		ldr	r3, .L55
 352 0096 988E     		ldrh	r0, [r3, #52]
 353 0098 26E0     		b	.L53
 354              	.L47:
 920:.\20648_driver\drivers/inv_mems_base_control.c ****             break;
 921:.\20648_driver\drivers/inv_mems_base_control.c **** 
 922:.\20648_driver\drivers/inv_mems_base_control.c **** #if (MEMS_CHIP == HW_ICM20645_E || MEMS_CHIP == HW_ICM20648 )
 923:.\20648_driver\drivers/inv_mems_base_control.c ****         case ANDROID_SENSOR_WAKEUP_TILT_DETECTOR:
 924:.\20648_driver\drivers/inv_mems_base_control.c ****             *odr = inv_get_odr_in_units( inv_dmp_odr_dividers[INV_SENSOR_WAKEUP_TILT_DETECTOR] , od
 355              		.loc 1 924 0
 356 009a 184B     		ldr	r3, .L55
 357 009c 0233     		add	r3, r3, #2
 358 009e 0DE0     		b	.L54
 359              	.L48:
 925:.\20648_driver\drivers/inv_mems_base_control.c ****             break;
 926:.\20648_driver\drivers/inv_mems_base_control.c **** #endif
 927:.\20648_driver\drivers/inv_mems_base_control.c ****         case ANDROID_SENSOR_B2S:
 928:.\20648_driver\drivers/inv_mems_base_control.c ****             *odr = inv_get_odr_in_units( inv_dmp_odr_dividers[INV_SENSOR_BRING_TO_SEE] , odr_units 
 360              		.loc 1 928 0
 361 00a0 164B     		ldr	r3, .L55
 362 00a2 D88B     		ldrh	r0, [r3, #30]
 363 00a4 20E0     		b	.L53
 364              	.L45:
 929:.\20648_driver\drivers/inv_mems_base_control.c ****             break;
ARM GAS  C:\Users\ADMINI~1\AppData\Local\Temp\ccjTNAQQ.s 			page 24


 930:.\20648_driver\drivers/inv_mems_base_control.c **** 
 931:.\20648_driver\drivers/inv_mems_base_control.c ****         case ANDROID_SENSOR_WAKEUP_GYROSCOPE_UNCALIBRATED:
 932:.\20648_driver\drivers/inv_mems_base_control.c ****             *odr = inv_get_odr_in_units( inv_dmp_odr_dividers[INV_SENSOR_WAKEUP_GYRO] , odr_units )
 365              		.loc 1 932 0
 366 00a6 154B     		ldr	r3, .L55
 367 00a8 588D     		ldrh	r0, [r3, #42]
 368 00aa 1DE0     		b	.L53
 369              	.L40:
 933:.\20648_driver\drivers/inv_mems_base_control.c ****             break;
 934:.\20648_driver\drivers/inv_mems_base_control.c **** 
 935:.\20648_driver\drivers/inv_mems_base_control.c ****         case ANDROID_SENSOR_WAKEUP_GYROSCOPE:
 936:.\20648_driver\drivers/inv_mems_base_control.c ****             *odr = inv_get_odr_in_units( inv_dmp_odr_dividers[INV_SENSOR_WAKEUP_CALIB_GYRO] , odr_u
 370              		.loc 1 936 0
 371 00ac 134B     		ldr	r3, .L55
 372 00ae 588F     		ldrh	r0, [r3, #58]
 373 00b0 1AE0     		b	.L53
 374              	.L44:
 937:.\20648_driver\drivers/inv_mems_base_control.c ****             break;
 938:.\20648_driver\drivers/inv_mems_base_control.c **** 
 939:.\20648_driver\drivers/inv_mems_base_control.c ****         case ANDROID_SENSOR_WAKEUP_GAME_ROTATION_VECTOR:
 940:.\20648_driver\drivers/inv_mems_base_control.c ****             *odr = inv_get_odr_in_units( inv_dmp_odr_dividers[INV_SENSOR_WAKEUP_SIXQ] , odr_units )
 375              		.loc 1 940 0
 376 00b2 124B     		ldr	r3, .L55
 377 00b4 188E     		ldrh	r0, [r3, #48]
 378 00b6 17E0     		b	.L53
 379              	.L42:
 941:.\20648_driver\drivers/inv_mems_base_control.c ****             break;
 942:.\20648_driver\drivers/inv_mems_base_control.c **** 
 943:.\20648_driver\drivers/inv_mems_base_control.c ****         case ANDROID_SENSOR_WAKEUP_GRAVITY:
 944:.\20648_driver\drivers/inv_mems_base_control.c ****         case ANDROID_SENSOR_WAKEUP_LINEAR_ACCELERATION:
 945:.\20648_driver\drivers/inv_mems_base_control.c ****             *odr = inv_get_odr_in_units( inv_dmp_odr_dividers[INV_SENSOR_WAKEUP_SIXQ_accel] , odr_u
 380              		.loc 1 945 0
 381 00b8 104B     		ldr	r3, .L55
 382 00ba 0433     		add	r3, r3, #4
 383              	.L54:
 384 00bc D88F     		ldrh	r0, [r3, #62]
 385 00be 13E0     		b	.L53
 386              	.L39:
 946:.\20648_driver\drivers/inv_mems_base_control.c ****             break;
 947:.\20648_driver\drivers/inv_mems_base_control.c **** 
 948:.\20648_driver\drivers/inv_mems_base_control.c ****         case ANDROID_SENSOR_WAKEUP_ORIENTATION:
 949:.\20648_driver\drivers/inv_mems_base_control.c ****         case ANDROID_SENSOR_WAKEUP_ROTATION_VECTOR:
 950:.\20648_driver\drivers/inv_mems_base_control.c ****             *odr = inv_get_odr_in_units( inv_dmp_odr_dividers[INV_SENSOR_WAKEUP_NINEQ] , odr_units 
 387              		.loc 1 950 0
 388 00c0 0E4B     		ldr	r3, .L55
 389 00c2 588E     		ldrh	r0, [r3, #50]
 390 00c4 10E0     		b	.L53
 391              	.L43:
 951:.\20648_driver\drivers/inv_mems_base_control.c ****             break;
 952:.\20648_driver\drivers/inv_mems_base_control.c **** 
 953:.\20648_driver\drivers/inv_mems_base_control.c ****         case ANDROID_SENSOR_WAKEUP_MAGNETIC_FIELD_UNCALIBRATED:
 954:.\20648_driver\drivers/inv_mems_base_control.c ****             *odr = inv_get_odr_in_units( inv_dmp_odr_dividers[INV_SENSOR_WAKEUP_COMPASS] , odr_unit
 392              		.loc 1 954 0
 393 00c6 0D4B     		ldr	r3, .L55
 394 00c8 988D     		ldrh	r0, [r3, #44]
 395 00ca 0DE0     		b	.L53
 396              	.L38:
ARM GAS  C:\Users\ADMINI~1\AppData\Local\Temp\ccjTNAQQ.s 			page 25


 955:.\20648_driver\drivers/inv_mems_base_control.c ****             break;
 956:.\20648_driver\drivers/inv_mems_base_control.c **** 
 957:.\20648_driver\drivers/inv_mems_base_control.c ****         case ANDROID_SENSOR_WAKEUP_MAGNETIC_FIELD:
 958:.\20648_driver\drivers/inv_mems_base_control.c ****             *odr = inv_get_odr_in_units( inv_dmp_odr_dividers[INV_SENSOR_WAKEUP_CALIB_COMPASS] , od
 397              		.loc 1 958 0
 398 00cc 0B4B     		ldr	r3, .L55
 399 00ce 988F     		ldrh	r0, [r3, #60]
 400 00d0 0AE0     		b	.L53
 401              	.L30:
 959:.\20648_driver\drivers/inv_mems_base_control.c ****             break;
 960:.\20648_driver\drivers/inv_mems_base_control.c **** 
 961:.\20648_driver\drivers/inv_mems_base_control.c ****         case ANDROID_SENSOR_WAKEUP_LIGHT:
 962:.\20648_driver\drivers/inv_mems_base_control.c ****         case ANDROID_SENSOR_WAKEUP_PROXIMITY:
 963:.\20648_driver\drivers/inv_mems_base_control.c ****             *odr = inv_get_odr_in_units( inv_dmp_odr_dividers[INV_SENSOR_WAKEUP_ALS] , odr_units );
 402              		.loc 1 963 0
 403 00d2 0A4B     		ldr	r3, .L55
 404 00d4 D88D     		ldrh	r0, [r3, #46]
 405 00d6 07E0     		b	.L53
 406              	.L29:
 964:.\20648_driver\drivers/inv_mems_base_control.c ****             break;
 965:.\20648_driver\drivers/inv_mems_base_control.c **** 
 966:.\20648_driver\drivers/inv_mems_base_control.c ****         case ANDROID_SENSOR_PRESSURE:
 967:.\20648_driver\drivers/inv_mems_base_control.c ****             *odr = inv_get_odr_in_units( inv_dmp_odr_dividers[INV_SENSOR_PRESSURE] , odr_units );
 407              		.loc 1 967 0
 408 00d8 084B     		ldr	r3, .L55
 409 00da 588A     		ldrh	r0, [r3, #18]
 410 00dc 04E0     		b	.L53
 411              	.L41:
 968:.\20648_driver\drivers/inv_mems_base_control.c ****             break;
 969:.\20648_driver\drivers/inv_mems_base_control.c **** 
 970:.\20648_driver\drivers/inv_mems_base_control.c ****         case ANDROID_SENSOR_WAKEUP_PRESSURE:
 971:.\20648_driver\drivers/inv_mems_base_control.c ****             *odr = inv_get_odr_in_units( inv_dmp_odr_dividers[INV_SENSOR_WAKEUP_PRESSURE] , odr_uni
 412              		.loc 1 971 0
 413 00de 074B     		ldr	r3, .L55
 414 00e0 188F     		ldrh	r0, [r3, #56]
 415 00e2 01E0     		b	.L53
 416              	.L49:
 972:.\20648_driver\drivers/inv_mems_base_control.c ****             break;
 973:.\20648_driver\drivers/inv_mems_base_control.c **** 
 974:.\20648_driver\drivers/inv_mems_base_control.c ****         case ANDROID_SENSOR_FLIP_PICKUP:
 975:.\20648_driver\drivers/inv_mems_base_control.c ****             *odr = inv_get_odr_in_units( inv_dmp_odr_dividers[INV_SENSOR_FLIP_PICKUP] , odr_units )
 417              		.loc 1 975 0
 418 00e4 054B     		ldr	r3, .L55
 419 00e6 988B     		ldrh	r0, [r3, #28]
 420              	.L53:
 421 00e8 FFF7FEFF 		bl	inv_get_odr_in_units
 422              	.LVL26:
 423 00ec 2060     		str	r0, [r4]
 424 00ee 02E0     		b	.L52
 425              	.LVL27:
 426              	.L51:
 842:.\20648_driver\drivers/inv_mems_base_control.c ****        
 427              		.loc 1 842 0
 428 00f0 0120     		mov	r0, #1
 429              	.LVL28:
 430 00f2 4042     		neg	r0, r0
 431 00f4 00E0     		b	.L22
ARM GAS  C:\Users\ADMINI~1\AppData\Local\Temp\ccjTNAQQ.s 			page 26


 432              	.LVL29:
 433              	.L52:
 976:.\20648_driver\drivers/inv_mems_base_control.c ****             break;
 977:.\20648_driver\drivers/inv_mems_base_control.c **** 
 978:.\20648_driver\drivers/inv_mems_base_control.c ****         // not support yet
 979:.\20648_driver\drivers/inv_mems_base_control.c ****         case ANDROID_SENSOR_META_DATA:
 980:.\20648_driver\drivers/inv_mems_base_control.c ****         case ANDROID_SENSOR_TEMPERATURE:
 981:.\20648_driver\drivers/inv_mems_base_control.c ****         case ANDROID_SENSOR_AMBIENT_TEMPERATURE:
 982:.\20648_driver\drivers/inv_mems_base_control.c ****         case ANDROID_SENSOR_HUMIDITY:
 983:.\20648_driver\drivers/inv_mems_base_control.c ****         case ANDROID_SENSOR_HEART_RATE:
 984:.\20648_driver\drivers/inv_mems_base_control.c ****         case ANDROID_SENSOR_SCREEN_ROTATION:
 985:.\20648_driver\drivers/inv_mems_base_control.c ****         case ANDROID_SENSOR_WAKEUP_AMBIENT_TEMPERATURE:
 986:.\20648_driver\drivers/inv_mems_base_control.c ****         case ANDROID_SENSOR_WAKEUP_RELATIVE_HUMIDITY:
 987:.\20648_driver\drivers/inv_mems_base_control.c ****         case ANDROID_SENSOR_WAKEUP_HEART_RATE:
 988:.\20648_driver\drivers/inv_mems_base_control.c ****             *odr=0;
 989:.\20648_driver\drivers/inv_mems_base_control.c ****             break;
 990:.\20648_driver\drivers/inv_mems_base_control.c ****             
 991:.\20648_driver\drivers/inv_mems_base_control.c ****         default:
 992:.\20648_driver\drivers/inv_mems_base_control.c ****           *odr=0;
 993:.\20648_driver\drivers/inv_mems_base_control.c ****     } 
 994:.\20648_driver\drivers/inv_mems_base_control.c ****     
 995:.\20648_driver\drivers/inv_mems_base_control.c ****     return result;
 434              		.loc 1 995 0
 435 00f6 0020     		mov	r0, #0
 436              	.L22:
 996:.\20648_driver\drivers/inv_mems_base_control.c **** }
 437              		.loc 1 996 0
 438              		@ sp needed
 439              	.LVL30:
 440 00f8 10BD     		pop	{r4, pc}
 441              	.L56:
 442 00fa C046     		.align	2
 443              	.L55:
 444 00fc 00000000 		.word	.LANCHOR0
 445              		.cfi_endproc
 446              	.LFE8:
 447              		.size	inv_get_odr, .-inv_get_odr
 448              		.section	.text.inv_reGenerate_sensorControl,"ax",%progbits
 449              		.align	1
 450              		.global	inv_reGenerate_sensorControl
 451              		.code	16
 452              		.thumb_func
 453              		.type	inv_reGenerate_sensorControl, %function
 454              	inv_reGenerate_sensorControl:
 455              	.LFB9:
 997:.\20648_driver\drivers/inv_mems_base_control.c **** 
 998:.\20648_driver\drivers/inv_mems_base_control.c **** void inv_reGenerate_sensorControl(const short *sen_num_2_ctrl, unsigned short *sensor_control)
 999:.\20648_driver\drivers/inv_mems_base_control.c **** {
 456              		.loc 1 999 0
 457              		.cfi_startproc
 458              	.LVL31:
1000:.\20648_driver\drivers/inv_mems_base_control.c ****     short delta;
1001:.\20648_driver\drivers/inv_mems_base_control.c ****     int i, cntr;
1002:.\20648_driver\drivers/inv_mems_base_control.c ****     unsigned long tmp_androidSensorsOn_mask;
1003:.\20648_driver\drivers/inv_mems_base_control.c **** 
1004:.\20648_driver\drivers/inv_mems_base_control.c **** 	*sensor_control = 0;
 459              		.loc 1 1004 0
ARM GAS  C:\Users\ADMINI~1\AppData\Local\Temp\ccjTNAQQ.s 			page 27


 460 0000 0023     		mov	r3, #0
 999:.\20648_driver\drivers/inv_mems_base_control.c ****     short delta;
 461              		.loc 1 999 0
 462 0002 70B5     		push	{r4, r5, r6, lr}
 463              		.cfi_def_cfa_offset 16
 464              		.cfi_offset 4, -16
 465              		.cfi_offset 5, -12
 466              		.cfi_offset 6, -8
 467              		.cfi_offset 14, -4
 468              		.loc 1 1004 0
 469 0004 0B80     		strh	r3, [r1]
 470              	.LVL32:
 471              	.L61:
1005:.\20648_driver\drivers/inv_mems_base_control.c **** 	for (i = 0; i < 2; i++) {		
1006:.\20648_driver\drivers/inv_mems_base_control.c **** 		cntr = 32 * i;
1007:.\20648_driver\drivers/inv_mems_base_control.c **** 		tmp_androidSensorsOn_mask = inv_androidSensorsOn_mask[i];
 472              		.loc 1 1007 0
 473 0006 0B4A     		ldr	r2, .L69
 474 0008 4C32     		add	r2, r2, #76
 475 000a 9C58     		ldr	r4, [r3, r2]
 476              	.LVL33:
 477 000c 1A01     		lsl	r2, r3, #4
 478 000e 8218     		add	r2, r0, r2
 479              	.LVL34:
 480              	.L58:
1008:.\20648_driver\drivers/inv_mems_base_control.c **** 		while (tmp_androidSensorsOn_mask) {
 481              		.loc 1 1008 0
 482 0010 002C     		cmp	r4, #0
 483 0012 0BD0     		beq	.L68
1009:.\20648_driver\drivers/inv_mems_base_control.c **** 			if (tmp_androidSensorsOn_mask & 1) {
 484              		.loc 1 1009 0
 485 0014 E507     		lsl	r5, r4, #31
 486 0016 06D5     		bpl	.L59
1010:.\20648_driver\drivers/inv_mems_base_control.c **** 				delta = sen_num_2_ctrl[cntr];
 487              		.loc 1 1010 0
 488 0018 1688     		ldrh	r6, [r2]
 489              	.LVL35:
1011:.\20648_driver\drivers/inv_mems_base_control.c **** 				if (delta != -1) *sensor_control |= delta;
 490              		.loc 1 1011 0
 491 001a 35B2     		sxth	r5, r6
 492 001c 0135     		add	r5, r5, #1
 493 001e 02D0     		beq	.L59
 494              		.loc 1 1011 0 is_stmt 0 discriminator 1
 495 0020 0D88     		ldrh	r5, [r1]
 496 0022 3543     		orr	r5, r6
 497 0024 0D80     		strh	r5, [r1]
 498              	.LVL36:
 499              	.L59:
1012:.\20648_driver\drivers/inv_mems_base_control.c **** 			}
1013:.\20648_driver\drivers/inv_mems_base_control.c **** 			tmp_androidSensorsOn_mask >>= 1;
 500              		.loc 1 1013 0 is_stmt 1
 501 0026 6408     		lsr	r4, r4, #1
 502              	.LVL37:
 503 0028 0232     		add	r2, r2, #2
 504 002a F1E7     		b	.L58
 505              	.L68:
 506 002c 0433     		add	r3, r3, #4
ARM GAS  C:\Users\ADMINI~1\AppData\Local\Temp\ccjTNAQQ.s 			page 28


1005:.\20648_driver\drivers/inv_mems_base_control.c **** 		cntr = 32 * i;
 507              		.loc 1 1005 0 discriminator 2
 508 002e 082B     		cmp	r3, #8
 509 0030 E9D1     		bne	.L61
1014:.\20648_driver\drivers/inv_mems_base_control.c **** 			cntr++;
1015:.\20648_driver\drivers/inv_mems_base_control.c **** 		}
1016:.\20648_driver\drivers/inv_mems_base_control.c **** 	}
1017:.\20648_driver\drivers/inv_mems_base_control.c **** }
 510              		.loc 1 1017 0
 511              		@ sp needed
 512              	.LVL38:
 513 0032 70BD     		pop	{r4, r5, r6, pc}
 514              	.L70:
 515              		.align	2
 516              	.L69:
 517 0034 00000000 		.word	.LANCHOR0
 518              		.cfi_endproc
 519              	.LFE9:
 520              		.size	inv_reGenerate_sensorControl, .-inv_reGenerate_sensorControl
 521              		.section	.text.inv_is_gyro_enabled,"ax",%progbits
 522              		.align	1
 523              		.global	inv_is_gyro_enabled
 524              		.code	16
 525              		.thumb_func
 526              		.type	inv_is_gyro_enabled, %function
 527              	inv_is_gyro_enabled:
 528              	.LFB11:
1018:.\20648_driver\drivers/inv_mems_base_control.c **** 
1019:.\20648_driver\drivers/inv_mems_base_control.c **** /** Computes the sensor control register that needs to be sent to the DMP
1020:.\20648_driver\drivers/inv_mems_base_control.c **** * @param[in] androidSensor A sensor number, the numbers correspond to sensors.h definition in Andro
1021:.\20648_driver\drivers/inv_mems_base_control.c **** * @param[in] enable non-zero to turn sensor on, 0 to turn sensor off
1022:.\20648_driver\drivers/inv_mems_base_control.c **** * @param[in] sen_num_2_ctrl Table matching android sensor number to bits in DMP control register
1023:.\20648_driver\drivers/inv_mems_base_control.c **** * @param[in,out] sensor_control Sensor control register to write to DMP to enable/disable sensors
1024:.\20648_driver\drivers/inv_mems_base_control.c **** */
1025:.\20648_driver\drivers/inv_mems_base_control.c **** static void inv_convert_androidSensor_to_control(unsigned char androidSensor, unsigned char enable,
1026:.\20648_driver\drivers/inv_mems_base_control.c **** {
1027:.\20648_driver\drivers/inv_mems_base_control.c ****     short delta = 0;
1028:.\20648_driver\drivers/inv_mems_base_control.c **** 
1029:.\20648_driver\drivers/inv_mems_base_control.c **** #if (MEMS_CHIP == HW_ICM20645_E)
1030:.\20648_driver\drivers/inv_mems_base_control.c **** 	if (androidSensor == ANDROID_SENSOR_ACTIVITY_CLASSIFICATON || androidSensor == ANDROID_SENSOR_FLIP
1031:.\20648_driver\drivers/inv_mems_base_control.c **** 		if (enable)
1032:.\20648_driver\drivers/inv_mems_base_control.c **** 			*sensor_control |= HEADER2_SET;
1033:.\20648_driver\drivers/inv_mems_base_control.c **** 		else
1034:.\20648_driver\drivers/inv_mems_base_control.c **** 			// control has to be regenerated when removing sensors because of overlap
1035:.\20648_driver\drivers/inv_mems_base_control.c **** 			inv_reGenerate_sensorControl(sen_num_2_ctrl, sensor_control);
1036:.\20648_driver\drivers/inv_mems_base_control.c **** 
1037:.\20648_driver\drivers/inv_mems_base_control.c **** 		if (bac_status || flip_pickup_status)
1038:.\20648_driver\drivers/inv_mems_base_control.c **** 			*sensor_control |= HEADER2_SET;
1039:.\20648_driver\drivers/inv_mems_base_control.c **** 	}
1040:.\20648_driver\drivers/inv_mems_base_control.c **** #endif
1041:.\20648_driver\drivers/inv_mems_base_control.c ****     
1042:.\20648_driver\drivers/inv_mems_base_control.c **** #if (MEMS_CHIP == HW_ICM30630)
1043:.\20648_driver\drivers/inv_mems_base_control.c **** 	if (androidSensor == ANDROID_SENSOR_FLIP_PICKUP) {
1044:.\20648_driver\drivers/inv_mems_base_control.c **** 		if (enable)
1045:.\20648_driver\drivers/inv_mems_base_control.c **** 			*sensor_control |= HEADER2_SET;
1046:.\20648_driver\drivers/inv_mems_base_control.c **** 		else
1047:.\20648_driver\drivers/inv_mems_base_control.c **** 			// control has to be regenerated when removing sensors because of overlap
ARM GAS  C:\Users\ADMINI~1\AppData\Local\Temp\ccjTNAQQ.s 			page 29


1048:.\20648_driver\drivers/inv_mems_base_control.c **** 			inv_reGenerate_sensorControl(sen_num_2_ctrl, sensor_control);
1049:.\20648_driver\drivers/inv_mems_base_control.c **** 
1050:.\20648_driver\drivers/inv_mems_base_control.c **** 		if (flip_pickup_status)
1051:.\20648_driver\drivers/inv_mems_base_control.c **** 			*sensor_control |= HEADER2_SET;
1052:.\20648_driver\drivers/inv_mems_base_control.c **** 	}
1053:.\20648_driver\drivers/inv_mems_base_control.c **** #endif
1054:.\20648_driver\drivers/inv_mems_base_control.c ****     
1055:.\20648_driver\drivers/inv_mems_base_control.c **** #if (MEMS_CHIP == HW_ICM20645_E || MEMS_CHIP == HW_ICM20648)
1056:.\20648_driver\drivers/inv_mems_base_control.c **** 	if (bac_status || flip_pickup_status)
1057:.\20648_driver\drivers/inv_mems_base_control.c **** 		*sensor_control |= HEADER2_SET;
1058:.\20648_driver\drivers/inv_mems_base_control.c **** #endif
1059:.\20648_driver\drivers/inv_mems_base_control.c **** 
1060:.\20648_driver\drivers/inv_mems_base_control.c ****     if (androidSensor >= ANDROID_SENSOR_NUM_MAX)
1061:.\20648_driver\drivers/inv_mems_base_control.c ****         return; // Sensor not supported
1062:.\20648_driver\drivers/inv_mems_base_control.c ****     
1063:.\20648_driver\drivers/inv_mems_base_control.c ****     delta = sen_num_2_ctrl[androidSensor];
1064:.\20648_driver\drivers/inv_mems_base_control.c ****     if (delta == -1)
1065:.\20648_driver\drivers/inv_mems_base_control.c ****         return; // This sensor not supported
1066:.\20648_driver\drivers/inv_mems_base_control.c **** 
1067:.\20648_driver\drivers/inv_mems_base_control.c ****     if (enable) {
1068:.\20648_driver\drivers/inv_mems_base_control.c ****         inv_androidSensorsOn_mask[(androidSensor>>5)] |= 1L << (androidSensor & 0x1F); // Set bit
1069:.\20648_driver\drivers/inv_mems_base_control.c ****         *sensor_control |= delta;
1070:.\20648_driver\drivers/inv_mems_base_control.c ****     } else {
1071:.\20648_driver\drivers/inv_mems_base_control.c ****         inv_androidSensorsOn_mask[(androidSensor>>5)] &= ~(1L << (androidSensor & 0x1F)); // Clear 
1072:.\20648_driver\drivers/inv_mems_base_control.c **** 		// control has to be regenerated when removing sensors because of overlap
1073:.\20648_driver\drivers/inv_mems_base_control.c **** 		inv_reGenerate_sensorControl(sen_num_2_ctrl, sensor_control);
1074:.\20648_driver\drivers/inv_mems_base_control.c **** 	}
1075:.\20648_driver\drivers/inv_mems_base_control.c ****     
1076:.\20648_driver\drivers/inv_mems_base_control.c **** #if (MEMS_CHIP == HW_ICM30630)
1077:.\20648_driver\drivers/inv_mems_base_control.c **** 	if (flip_pickup_status)
1078:.\20648_driver\drivers/inv_mems_base_control.c **** 		*sensor_control |= HEADER2_SET;
1079:.\20648_driver\drivers/inv_mems_base_control.c **** #endif
1080:.\20648_driver\drivers/inv_mems_base_control.c **** 
1081:.\20648_driver\drivers/inv_mems_base_control.c ****     return;
1082:.\20648_driver\drivers/inv_mems_base_control.c **** }
1083:.\20648_driver\drivers/inv_mems_base_control.c **** 
1084:.\20648_driver\drivers/inv_mems_base_control.c **** // return true 1 if gyro was enabled, otherwise false 0
1085:.\20648_driver\drivers/inv_mems_base_control.c **** unsigned char inv_is_gyro_enabled(void)
1086:.\20648_driver\drivers/inv_mems_base_control.c **** {
 529              		.loc 1 1086 0
 530              		.cfi_startproc
1087:.\20648_driver\drivers/inv_mems_base_control.c ****   if ((inv_androidSensorsOn_mask[0] & INV_NEEDS_GYRO_MASK) || (inv_androidSensorsOn_mask[1] & INV_N
 531              		.loc 1 1087 0
 532 0000 064B     		ldr	r3, .L74
 533 0002 074A     		ldr	r2, .L74+4
 534 0004 D96C     		ldr	r1, [r3, #76]
1088:.\20648_driver\drivers/inv_mems_base_control.c ****     return 1;
 535              		.loc 1 1088 0
 536 0006 0120     		mov	r0, #1
1087:.\20648_driver\drivers/inv_mems_base_control.c ****   if ((inv_androidSensorsOn_mask[0] & INV_NEEDS_GYRO_MASK) || (inv_androidSensorsOn_mask[1] & INV_N
 537              		.loc 1 1087 0
 538 0008 1142     		tst	r1, r2
 539 000a 05D1     		bne	.L72
1087:.\20648_driver\drivers/inv_mems_base_control.c ****   if ((inv_androidSensorsOn_mask[0] & INV_NEEDS_GYRO_MASK) || (inv_androidSensorsOn_mask[1] & INV_N
 540              		.loc 1 1087 0 is_stmt 0 discriminator 1
 541 000c 186D     		ldr	r0, [r3, #80]
 542 000e 1823     		mov	r3, #24
ARM GAS  C:\Users\ADMINI~1\AppData\Local\Temp\ccjTNAQQ.s 			page 30


 543 0010 1840     		and	r0, r3
 544 0012 431E     		sub	r3, r0, #1
 545 0014 9841     		sbc	r0, r0, r3
 546              		.loc 1 1088 0 is_stmt 1 discriminator 1
 547 0016 C0B2     		uxtb	r0, r0
 548              	.L72:
1089:.\20648_driver\drivers/inv_mems_base_control.c ****   return 0;
1090:.\20648_driver\drivers/inv_mems_base_control.c **** }
 549              		.loc 1 1090 0
 550              		@ sp needed
 551 0018 7047     		bx	lr
 552              	.L75:
 553 001a C046     		.align	2
 554              	.L74:
 555 001c 00000000 		.word	.LANCHOR0
 556 0020 188E01E6 		.word	-436105704
 557              		.cfi_endproc
 558              	.LFE11:
 559              		.size	inv_is_gyro_enabled, .-inv_is_gyro_enabled
 560              		.section	.text.inv_enable_activity_classifier,"ax",%progbits
 561              		.align	1
 562              		.global	inv_enable_activity_classifier
 563              		.code	16
 564              		.thumb_func
 565              		.type	inv_enable_activity_classifier, %function
 566              	inv_enable_activity_classifier:
 567              	.LFB14:
1091:.\20648_driver\drivers/inv_mems_base_control.c **** 
1092:.\20648_driver\drivers/inv_mems_base_control.c **** inv_error_t inv_enable_sensor(unsigned char androidSensor, unsigned char enable)
1093:.\20648_driver\drivers/inv_mems_base_control.c **** {
1094:.\20648_driver\drivers/inv_mems_base_control.c ****     inv_error_t result = 0;
1095:.\20648_driver\drivers/inv_mems_base_control.c **** #if (MEMS_CHIP == HW_ICM30630)
1096:.\20648_driver\drivers/inv_mems_base_control.c ****     static unsigned char sGyroIsOn = 0;
1097:.\20648_driver\drivers/inv_mems_base_control.c ****     static unsigned char sGrvIsOn  = 0;
1098:.\20648_driver\drivers/inv_mems_base_control.c **** #endif
1099:.\20648_driver\drivers/inv_mems_base_control.c **** 
1100:.\20648_driver\drivers/inv_mems_base_control.c **** 	// Fixes #5227 : The very first sensor on/off is not working
1101:.\20648_driver\drivers/inv_mems_base_control.c **** 	// 1 because mems is considered in sleep by default
1102:.\20648_driver\drivers/inv_mems_base_control.c **** 	// BEfore it was 0, it was why the first reg write was not taken in account !!!
1103:.\20648_driver\drivers/inv_mems_base_control.c **** 	static char mems_put_to_sleep = 1;  
1104:.\20648_driver\drivers/inv_mems_base_control.c **** 	
1105:.\20648_driver\drivers/inv_mems_base_control.c **** #if defined MEMS_SECONDARY_DEVICE
1106:.\20648_driver\drivers/inv_mems_base_control.c **** 	if(sensor_needs_compass(androidSensor))
1107:.\20648_driver\drivers/inv_mems_base_control.c **** 		if(!inv_mems_get_compass_availability())
1108:.\20648_driver\drivers/inv_mems_base_control.c **** 			return INV_ERROR_INVALID_PARAMETER;
1109:.\20648_driver\drivers/inv_mems_base_control.c **** 	if(sensor_needs_pressure(androidSensor))
1110:.\20648_driver\drivers/inv_mems_base_control.c **** 		if(!inv_mems_get_pressure_availability())
1111:.\20648_driver\drivers/inv_mems_base_control.c **** 			return INV_ERROR_INVALID_PARAMETER;
1112:.\20648_driver\drivers/inv_mems_base_control.c **** #endif
1113:.\20648_driver\drivers/inv_mems_base_control.c **** 
1114:.\20648_driver\drivers/inv_mems_base_control.c **** 	inv_mems_prevent_lpen_control();
1115:.\20648_driver\drivers/inv_mems_base_control.c **** 	if( mems_put_to_sleep ) {
1116:.\20648_driver\drivers/inv_mems_base_control.c **** 		mems_put_to_sleep = 0;
1117:.\20648_driver\drivers/inv_mems_base_control.c **** 		result |= inv_wakeup_mems();
1118:.\20648_driver\drivers/inv_mems_base_control.c **** 	}
1119:.\20648_driver\drivers/inv_mems_base_control.c **** 
1120:.\20648_driver\drivers/inv_mems_base_control.c **** #if (MEMS_CHIP == HW_ICM30630)
ARM GAS  C:\Users\ADMINI~1\AppData\Local\Temp\ccjTNAQQ.s 			page 31


1121:.\20648_driver\drivers/inv_mems_base_control.c ****     if ( (androidSensor == ANDROID_SENSOR_GEOMAGNETIC_ROTATION_VECTOR) || (androidSensor == ANDROID
1122:.\20648_driver\drivers/inv_mems_base_control.c ****     {
1123:.\20648_driver\drivers/inv_mems_base_control.c ****         sGmrvIsOn = enable;
1124:.\20648_driver\drivers/inv_mems_base_control.c ****         if (enable) {
1125:.\20648_driver\drivers/inv_mems_base_control.c ****             if ( sGyroIsOn || sGrvIsOn )
1126:.\20648_driver\drivers/inv_mems_base_control.c ****                 // enable GMRV while one of gyro based sensor already ON
1127:.\20648_driver\drivers/inv_mems_base_control.c ****                 // enable internally GRV instead of GMRV
1128:.\20648_driver\drivers/inv_mems_base_control.c ****                 result |= inv_enable_sensor_internal(ANDROID_SENSOR_GAME_ROTATION_VECTOR, 1, &mems_
1129:.\20648_driver\drivers/inv_mems_base_control.c ****             else
1130:.\20648_driver\drivers/inv_mems_base_control.c ****                 // enable GMRV and no gyro based sensor already ON
1131:.\20648_driver\drivers/inv_mems_base_control.c ****                 // enable internally GMRV
1132:.\20648_driver\drivers/inv_mems_base_control.c ****                 result |= inv_enable_sensor_internal(ANDROID_SENSOR_GEOMAGNETIC_ROTATION_VECTOR, 1,
1133:.\20648_driver\drivers/inv_mems_base_control.c ****         } else {
1134:.\20648_driver\drivers/inv_mems_base_control.c ****             if ( ! (sGyroIsOn || sGrvIsOn)  )
1135:.\20648_driver\drivers/inv_mems_base_control.c ****                 // disable GMRV and no gyro based sensor is ON
1136:.\20648_driver\drivers/inv_mems_base_control.c ****                 // disable internally GMRV
1137:.\20648_driver\drivers/inv_mems_base_control.c ****                 result |= inv_enable_sensor_internal(ANDROID_SENSOR_GEOMAGNETIC_ROTATION_VECTOR, 0,
1138:.\20648_driver\drivers/inv_mems_base_control.c ****             // else disable GMRV but one gyro based sensor still ON so keep internally GRV ON => no
1139:.\20648_driver\drivers/inv_mems_base_control.c ****         }
1140:.\20648_driver\drivers/inv_mems_base_control.c ****         return result;
1141:.\20648_driver\drivers/inv_mems_base_control.c ****     }
1142:.\20648_driver\drivers/inv_mems_base_control.c ****     
1143:.\20648_driver\drivers/inv_mems_base_control.c ****     if ( (androidSensor == ANDROID_SENSOR_GYROSCOPE_UNCALIBRATED) || (androidSensor == ANDROID_SENS
1144:.\20648_driver\drivers/inv_mems_base_control.c ****     {
1145:.\20648_driver\drivers/inv_mems_base_control.c ****         sGyroIsOn = enable;
1146:.\20648_driver\drivers/inv_mems_base_control.c ****         if (enable) {
1147:.\20648_driver\drivers/inv_mems_base_control.c ****             if (sGmrvIsOn) {
1148:.\20648_driver\drivers/inv_mems_base_control.c ****                 // enable gyro while GMRV already on
1149:.\20648_driver\drivers/inv_mems_base_control.c ****                 // enable internally GRV instead of GMRV
1150:.\20648_driver\drivers/inv_mems_base_control.c ****                 result |= inv_enable_sensor_internal(ANDROID_SENSOR_GEOMAGNETIC_ROTATION_VECTOR, 0,
1151:.\20648_driver\drivers/inv_mems_base_control.c ****                 result |= inv_enable_sensor_internal(ANDROID_SENSOR_GAME_ROTATION_VECTOR, 1, &mems_
1152:.\20648_driver\drivers/inv_mems_base_control.c ****             }
1153:.\20648_driver\drivers/inv_mems_base_control.c ****             // else enable gyro and no GMRV already ON => nothing to do
1154:.\20648_driver\drivers/inv_mems_base_control.c ****         } else {
1155:.\20648_driver\drivers/inv_mems_base_control.c ****             if ( sGmrvIsOn )
1156:.\20648_driver\drivers/inv_mems_base_control.c ****                 // disable gyro while GMRV still on
1157:.\20648_driver\drivers/inv_mems_base_control.c ****                 if ( !sGrvIsOn ) {
1158:.\20648_driver\drivers/inv_mems_base_control.c ****                     // if GRV also OFF, disable internally GRV and enable internally GMRV instead
1159:.\20648_driver\drivers/inv_mems_base_control.c ****                     result |= inv_enable_sensor_internal(ANDROID_SENSOR_GAME_ROTATION_VECTOR, 0, &m
1160:.\20648_driver\drivers/inv_mems_base_control.c ****                     result |= inv_enable_sensor_internal(ANDROID_SENSOR_GEOMAGNETIC_ROTATION_VECTOR
1161:.\20648_driver\drivers/inv_mems_base_control.c ****                 }
1162:.\20648_driver\drivers/inv_mems_base_control.c ****                 // else if GRV is still ON, enable internally GRV instead of GMRV => nothing to do
1163:.\20648_driver\drivers/inv_mems_base_control.c ****             // else disable gyro and no GMRV is ON => nothing to do
1164:.\20648_driver\drivers/inv_mems_base_control.c ****         }
1165:.\20648_driver\drivers/inv_mems_base_control.c ****         
1166:.\20648_driver\drivers/inv_mems_base_control.c ****     }
1167:.\20648_driver\drivers/inv_mems_base_control.c ****     
1168:.\20648_driver\drivers/inv_mems_base_control.c ****     if ( (androidSensor == ANDROID_SENSOR_GAME_ROTATION_VECTOR) || (androidSensor == ANDROID_SENSOR
1169:.\20648_driver\drivers/inv_mems_base_control.c ****     {
1170:.\20648_driver\drivers/inv_mems_base_control.c ****         sGrvIsOn = enable;
1171:.\20648_driver\drivers/inv_mems_base_control.c ****         if (enable) {
1172:.\20648_driver\drivers/inv_mems_base_control.c ****             if ( sGmrvIsOn ) {
1173:.\20648_driver\drivers/inv_mems_base_control.c ****                 // enable GRV while GMRV already on
1174:.\20648_driver\drivers/inv_mems_base_control.c ****                 // enable internally GRV instead of GMRV
1175:.\20648_driver\drivers/inv_mems_base_control.c ****                 result |= inv_enable_sensor_internal(ANDROID_SENSOR_GEOMAGNETIC_ROTATION_VECTOR, 0,
1176:.\20648_driver\drivers/inv_mems_base_control.c ****             }
1177:.\20648_driver\drivers/inv_mems_base_control.c ****             // else enable GRV and no GMRV already ON
ARM GAS  C:\Users\ADMINI~1\AppData\Local\Temp\ccjTNAQQ.s 			page 32


1178:.\20648_driver\drivers/inv_mems_base_control.c ****             
1179:.\20648_driver\drivers/inv_mems_base_control.c ****             result |= inv_enable_sensor_internal(ANDROID_SENSOR_GAME_ROTATION_VECTOR, 1, &mems_put_
1180:.\20648_driver\drivers/inv_mems_base_control.c ****         } else {
1181:.\20648_driver\drivers/inv_mems_base_control.c ****             if ( sGmrvIsOn ) {
1182:.\20648_driver\drivers/inv_mems_base_control.c ****                 // disable GRV while GMRV still on
1183:.\20648_driver\drivers/inv_mems_base_control.c ****                 if ( ! sGyroIsOn ) {
1184:.\20648_driver\drivers/inv_mems_base_control.c ****                     // if gyro also OFF, disable internally GRV and enable internally GMRV instead
1185:.\20648_driver\drivers/inv_mems_base_control.c ****                     result |= inv_enable_sensor_internal(ANDROID_SENSOR_GAME_ROTATION_VECTOR, 0, &m
1186:.\20648_driver\drivers/inv_mems_base_control.c ****                     result |= inv_enable_sensor_internal(ANDROID_SENSOR_GEOMAGNETIC_ROTATION_VECTOR
1187:.\20648_driver\drivers/inv_mems_base_control.c ****                 }
1188:.\20648_driver\drivers/inv_mems_base_control.c ****                 // else if gyro is still ON, enable internally GRV instead of GMRV => nothing to do
1189:.\20648_driver\drivers/inv_mems_base_control.c ****             } else {
1190:.\20648_driver\drivers/inv_mems_base_control.c ****                 // disable GRV and no GMRV is ON
1191:.\20648_driver\drivers/inv_mems_base_control.c ****                 result |= inv_enable_sensor_internal(ANDROID_SENSOR_GAME_ROTATION_VECTOR, 0, &mems_
1192:.\20648_driver\drivers/inv_mems_base_control.c ****             }
1193:.\20648_driver\drivers/inv_mems_base_control.c ****             
1194:.\20648_driver\drivers/inv_mems_base_control.c ****         }
1195:.\20648_driver\drivers/inv_mems_base_control.c ****         return result;
1196:.\20648_driver\drivers/inv_mems_base_control.c ****     }
1197:.\20648_driver\drivers/inv_mems_base_control.c **** #endif
1198:.\20648_driver\drivers/inv_mems_base_control.c **** 
1199:.\20648_driver\drivers/inv_mems_base_control.c ****     result |= inv_enable_sensor_internal(androidSensor, enable, &mems_put_to_sleep);
1200:.\20648_driver\drivers/inv_mems_base_control.c ****     
1201:.\20648_driver\drivers/inv_mems_base_control.c **** 	inv_mems_allow_lpen_control();
1202:.\20648_driver\drivers/inv_mems_base_control.c ****     return result;
1203:.\20648_driver\drivers/inv_mems_base_control.c **** }
1204:.\20648_driver\drivers/inv_mems_base_control.c **** 
1205:.\20648_driver\drivers/inv_mems_base_control.c **** static inv_error_t inv_enable_sensor_internal(unsigned char androidSensor, unsigned char enable, ch
1206:.\20648_driver\drivers/inv_mems_base_control.c **** {
1207:.\20648_driver\drivers/inv_mems_base_control.c ****     inv_error_t result = 0;
1208:.\20648_driver\drivers/inv_mems_base_control.c ****     unsigned short inv_event_control = 0;
1209:.\20648_driver\drivers/inv_mems_base_control.c **** #if (MEMS_CHIP != HW_ICM30630)
1210:.\20648_driver\drivers/inv_mems_base_control.c ****     static unsigned short smd_status = 0;
1211:.\20648_driver\drivers/inv_mems_base_control.c ****     static unsigned short ped_int_status = 0;
1212:.\20648_driver\drivers/inv_mems_base_control.c **** #endif
1213:.\20648_driver\drivers/inv_mems_base_control.c ****     unsigned short data_rdy_status = 0;
1214:.\20648_driver\drivers/inv_mems_base_control.c **** 
1215:.\20648_driver\drivers/inv_mems_base_control.c **** 	unsigned long steps=0;
1216:.\20648_driver\drivers/inv_mems_base_control.c ****     
1217:.\20648_driver\drivers/inv_mems_base_control.c **** #if (MEMS_CHIP != HW_ICM30630)
1218:.\20648_driver\drivers/inv_mems_base_control.c ****     if (androidSensor == ANDROID_SENSOR_WAKEUP_SIGNIFICANT_MOTION) {
1219:.\20648_driver\drivers/inv_mems_base_control.c ****         if (enable)
1220:.\20648_driver\drivers/inv_mems_base_control.c ****             smd_status = INV_SMD_EN;
1221:.\20648_driver\drivers/inv_mems_base_control.c ****         else
1222:.\20648_driver\drivers/inv_mems_base_control.c ****             smd_status = 0;
1223:.\20648_driver\drivers/inv_mems_base_control.c ****     }
1224:.\20648_driver\drivers/inv_mems_base_control.c **** 
1225:.\20648_driver\drivers/inv_mems_base_control.c ****     if (androidSensor == ANDROID_SENSOR_STEP_DETECTOR) {
1226:.\20648_driver\drivers/inv_mems_base_control.c ****         if (enable)
1227:.\20648_driver\drivers/inv_mems_base_control.c ****             ped_int_status = INV_PEDOMETER_INT_EN;
1228:.\20648_driver\drivers/inv_mems_base_control.c ****         else
1229:.\20648_driver\drivers/inv_mems_base_control.c ****             ped_int_status = 0;
1230:.\20648_driver\drivers/inv_mems_base_control.c ****     }
1231:.\20648_driver\drivers/inv_mems_base_control.c **** #endif
1232:.\20648_driver\drivers/inv_mems_base_control.c **** 
1233:.\20648_driver\drivers/inv_mems_base_control.c **** #if (MEMS_CHIP == HW_ICM30630 || MEMS_CHIP == HW_ICM20645_E || MEMS_CHIP == HW_ICM20648)
1234:.\20648_driver\drivers/inv_mems_base_control.c ****     if (androidSensor == ANDROID_SENSOR_FLIP_PICKUP) {
ARM GAS  C:\Users\ADMINI~1\AppData\Local\Temp\ccjTNAQQ.s 			page 33


1235:.\20648_driver\drivers/inv_mems_base_control.c ****       if (enable){          
1236:.\20648_driver\drivers/inv_mems_base_control.c ****             flip_pickup_status = FLIP_PICKUP_SET;
1237:.\20648_driver\drivers/inv_mems_base_control.c ****             // 5061-add-call to reset flip pickup parameters here
1238:.\20648_driver\drivers/inv_mems_base_control.c ****             dmp_reset_pickup();
1239:.\20648_driver\drivers/inv_mems_base_control.c ****       }
1240:.\20648_driver\drivers/inv_mems_base_control.c ****         else
1241:.\20648_driver\drivers/inv_mems_base_control.c ****             flip_pickup_status = 0;
1242:.\20648_driver\drivers/inv_mems_base_control.c ****     }
1243:.\20648_driver\drivers/inv_mems_base_control.c **** 
1244:.\20648_driver\drivers/inv_mems_base_control.c ****     if (androidSensor == ANDROID_SENSOR_B2S) {
1245:.\20648_driver\drivers/inv_mems_base_control.c ****         if(enable)
1246:.\20648_driver\drivers/inv_mems_base_control.c ****             b2s_status = INV_BTS_EN;
1247:.\20648_driver\drivers/inv_mems_base_control.c ****         else
1248:.\20648_driver\drivers/inv_mems_base_control.c ****             b2s_status = 0;
1249:.\20648_driver\drivers/inv_mems_base_control.c ****     }
1250:.\20648_driver\drivers/inv_mems_base_control.c **** #endif
1251:.\20648_driver\drivers/inv_mems_base_control.c **** 
1252:.\20648_driver\drivers/inv_mems_base_control.c **** #if (MEMS_CHIP == HW_ICM20645_E || MEMS_CHIP == HW_ICM20648 )
1253:.\20648_driver\drivers/inv_mems_base_control.c ****     if (androidSensor == ANDROID_SENSOR_ACTIVITY_CLASSIFICATON)
1254:.\20648_driver\drivers/inv_mems_base_control.c ****         inv_enable_activity_classifier(enable);
1255:.\20648_driver\drivers/inv_mems_base_control.c **** 
1256:.\20648_driver\drivers/inv_mems_base_control.c ****     if (androidSensor == ANDROID_SENSOR_WAKEUP_TILT_DETECTOR)
1257:.\20648_driver\drivers/inv_mems_base_control.c ****         inv_enable_tilt(enable);
1258:.\20648_driver\drivers/inv_mems_base_control.c **** #endif
1259:.\20648_driver\drivers/inv_mems_base_control.c **** 
1260:.\20648_driver\drivers/inv_mems_base_control.c ****     inv_convert_androidSensor_to_control(androidSensor, enable,
1261:.\20648_driver\drivers/inv_mems_base_control.c ****         inv_androidSensor_to_control_bits, &inv_sensor_control);
1262:.\20648_driver\drivers/inv_mems_base_control.c **** #if (MEMS_CHIP == HW_ICM30630)
1263:.\20648_driver\drivers/inv_mems_base_control.c ****     // For 30630, raw gyro and gyro bias are sent out by turning on GYRO_SET
1264:.\20648_driver\drivers/inv_mems_base_control.c ****     // So to calculate calibrated gyro, GYRO_SET needs to be turned on, too
1265:.\20648_driver\drivers/inv_mems_base_control.c ****     if (inv_sensor_control & GYRO_CALIBR_SET)
1266:.\20648_driver\drivers/inv_mems_base_control.c ****         inv_sensor_control |= GYRO_SET;
1267:.\20648_driver\drivers/inv_mems_base_control.c **** #endif
1268:.\20648_driver\drivers/inv_mems_base_control.c ****     result = dmp_set_data_output_control1(inv_sensor_control);
1269:.\20648_driver\drivers/inv_mems_base_control.c **** 	if (b2s_status)
1270:.\20648_driver\drivers/inv_mems_base_control.c **** 		result |= dmp_set_data_interrupt_control(inv_sensor_control|0x8008);
1271:.\20648_driver\drivers/inv_mems_base_control.c **** 		// result |= dmp_set_data_interrupt_control(inv_sensor_control|0x0000);
1272:.\20648_driver\drivers/inv_mems_base_control.c **** 	else
1273:.\20648_driver\drivers/inv_mems_base_control.c **** 		result |= dmp_set_data_interrupt_control(inv_sensor_control);
1274:.\20648_driver\drivers/inv_mems_base_control.c **** 
1275:.\20648_driver\drivers/inv_mems_base_control.c ****     if (inv_sensor_control & ACCEL_SET)
1276:.\20648_driver\drivers/inv_mems_base_control.c ****         inv_sensor_control2 |= ACCEL_ACCURACY_SET;
1277:.\20648_driver\drivers/inv_mems_base_control.c ****     else
1278:.\20648_driver\drivers/inv_mems_base_control.c ****         inv_sensor_control2 &= ~ACCEL_ACCURACY_SET;
1279:.\20648_driver\drivers/inv_mems_base_control.c ****     
1280:.\20648_driver\drivers/inv_mems_base_control.c ****     if (  (inv_sensor_control & GYRO_CALIBR_SET)
1281:.\20648_driver\drivers/inv_mems_base_control.c **** #if (MEMS_CHIP == HW_ICM30630)
1282:.\20648_driver\drivers/inv_mems_base_control.c ****        || (inv_sensor_control & GYRO_SET)
1283:.\20648_driver\drivers/inv_mems_base_control.c **** #endif
1284:.\20648_driver\drivers/inv_mems_base_control.c ****         )
1285:.\20648_driver\drivers/inv_mems_base_control.c ****         inv_sensor_control2 |= GYRO_ACCURACY_SET;
1286:.\20648_driver\drivers/inv_mems_base_control.c ****     else
1287:.\20648_driver\drivers/inv_mems_base_control.c ****         inv_sensor_control2 &= ~GYRO_ACCURACY_SET;
1288:.\20648_driver\drivers/inv_mems_base_control.c ****     
1289:.\20648_driver\drivers/inv_mems_base_control.c **** #if defined MEMS_SECONDARY_DEVICE
1290:.\20648_driver\drivers/inv_mems_base_control.c ****     if (inv_sensor_control & CPASS_CALIBR_SET || inv_sensor_control & QUAT9_SET	
1291:.\20648_driver\drivers/inv_mems_base_control.c **** #if (MEMS_CHIP == HW_ICM20648)
ARM GAS  C:\Users\ADMINI~1\AppData\Local\Temp\ccjTNAQQ.s 			page 34


1292:.\20648_driver\drivers/inv_mems_base_control.c **** 		|| inv_sensor_control & GEOMAG_SET
1293:.\20648_driver\drivers/inv_mems_base_control.c **** #endif
1294:.\20648_driver\drivers/inv_mems_base_control.c **** 		)
1295:.\20648_driver\drivers/inv_mems_base_control.c ****         inv_sensor_control2 |= CPASS_ACCURACY_SET;
1296:.\20648_driver\drivers/inv_mems_base_control.c ****     else
1297:.\20648_driver\drivers/inv_mems_base_control.c ****         inv_sensor_control2 &= ~CPASS_ACCURACY_SET;
1298:.\20648_driver\drivers/inv_mems_base_control.c **** #endif
1299:.\20648_driver\drivers/inv_mems_base_control.c **** #if (MEMS_CHIP == HW_ICM20645_E || MEMS_CHIP == HW_ICM20648)
1300:.\20648_driver\drivers/inv_mems_base_control.c ****     if(bac_status)
1301:.\20648_driver\drivers/inv_mems_base_control.c ****         inv_sensor_control2 |= bac_status;
1302:.\20648_driver\drivers/inv_mems_base_control.c ****     else
1303:.\20648_driver\drivers/inv_mems_base_control.c ****         inv_sensor_control2 &= ~bac_status;
1304:.\20648_driver\drivers/inv_mems_base_control.c **** #endif
1305:.\20648_driver\drivers/inv_mems_base_control.c **** #if (MEMS_CHIP == HW_ICM30630 || MEMS_CHIP == HW_ICM20645_E || MEMS_CHIP == HW_ICM20648)
1306:.\20648_driver\drivers/inv_mems_base_control.c ****     if(flip_pickup_status)
1307:.\20648_driver\drivers/inv_mems_base_control.c ****         inv_sensor_control2 |= flip_pickup_status;
1308:.\20648_driver\drivers/inv_mems_base_control.c ****     else
1309:.\20648_driver\drivers/inv_mems_base_control.c ****         inv_sensor_control2 &= ~flip_pickup_status;
1310:.\20648_driver\drivers/inv_mems_base_control.c **** 
1311:.\20648_driver\drivers/inv_mems_base_control.c **** 
1312:.\20648_driver\drivers/inv_mems_base_control.c ****         // inv_event_control   |= b2s_status; 
1313:.\20648_driver\drivers/inv_mems_base_control.c **** 
1314:.\20648_driver\drivers/inv_mems_base_control.c ****   #if (MEMS_CHIP == HW_ICM20648)
1315:.\20648_driver\drivers/inv_mems_base_control.c **** 	if(androidSensor == ANDROID_SENSOR_B2S)
1316:.\20648_driver\drivers/inv_mems_base_control.c **** 	{
1317:.\20648_driver\drivers/inv_mems_base_control.c **** 		if(enable)
1318:.\20648_driver\drivers/inv_mems_base_control.c **** 			inv_event_control |= INV_BRING_AND_LOOK_T0_SEE_EN;
1319:.\20648_driver\drivers/inv_mems_base_control.c **** 	}
1320:.\20648_driver\drivers/inv_mems_base_control.c ****   #endif
1321:.\20648_driver\drivers/inv_mems_base_control.c **** #endif
1322:.\20648_driver\drivers/inv_mems_base_control.c **** 
1323:.\20648_driver\drivers/inv_mems_base_control.c **** #if (MEMS_CHIP != HW_ICM20648)
1324:.\20648_driver\drivers/inv_mems_base_control.c ****     if(inv_androidSensorsOn_mask[0] & (1L << ANDROID_SENSOR_GEOMAGNETIC_ROTATION_VECTOR))
1325:.\20648_driver\drivers/inv_mems_base_control.c ****         inv_sensor_control2 |= GEOMAG_EN;
1326:.\20648_driver\drivers/inv_mems_base_control.c ****     else
1327:.\20648_driver\drivers/inv_mems_base_control.c ****         inv_sensor_control2 &= ~GEOMAG_EN;
1328:.\20648_driver\drivers/inv_mems_base_control.c **** #endif
1329:.\20648_driver\drivers/inv_mems_base_control.c **** 
1330:.\20648_driver\drivers/inv_mems_base_control.c ****     result |= dmp_set_data_output_control2(inv_sensor_control2);
1331:.\20648_driver\drivers/inv_mems_base_control.c **** 
1332:.\20648_driver\drivers/inv_mems_base_control.c ****     // sets DATA_RDY_STATUS in DMP based on which sensors are on
1333:.\20648_driver\drivers/inv_mems_base_control.c ****     if (inv_androidSensorsOn_mask[0] & INV_NEEDS_GYRO_MASK || inv_androidSensorsOn_mask[1] & INV_NE
1334:.\20648_driver\drivers/inv_mems_base_control.c ****         data_rdy_status |= GYRO_AVAILABLE;
1335:.\20648_driver\drivers/inv_mems_base_control.c ****     if (inv_androidSensorsOn_mask[0] & INV_NEEDS_ACCEL_MASK || inv_androidSensorsOn_mask[1] & INV_N
1336:.\20648_driver\drivers/inv_mems_base_control.c ****         data_rdy_status |= ACCEL_AVAILABLE;
1337:.\20648_driver\drivers/inv_mems_base_control.c **** #if (MEMS_CHIP == HW_ICM30630 || MEMS_CHIP == HW_ICM20645_E || MEMS_CHIP == HW_ICM20648)
1338:.\20648_driver\drivers/inv_mems_base_control.c ****     if (flip_pickup_status || b2s_status)
1339:.\20648_driver\drivers/inv_mems_base_control.c ****         data_rdy_status |= ACCEL_AVAILABLE;
1340:.\20648_driver\drivers/inv_mems_base_control.c **** #endif
1341:.\20648_driver\drivers/inv_mems_base_control.c **** #if (MEMS_CHIP == HW_ICM20645_E || MEMS_CHIP == HW_ICM20648)
1342:.\20648_driver\drivers/inv_mems_base_control.c ****     if (bac_status)
1343:.\20648_driver\drivers/inv_mems_base_control.c ****         data_rdy_status |= ACCEL_AVAILABLE;
1344:.\20648_driver\drivers/inv_mems_base_control.c **** #endif
1345:.\20648_driver\drivers/inv_mems_base_control.c ****     if (inv_androidSensorsOn_mask[0] & INV_NEEDS_COMPASS_MASK || inv_androidSensorsOn_mask[1] & INV
1346:.\20648_driver\drivers/inv_mems_base_control.c ****         data_rdy_status |= SECONDARY_COMPASS_AVAILABLE;
1347:.\20648_driver\drivers/inv_mems_base_control.c ****     if (inv_androidSensorsOn_mask[0] & INV_NEEDS_PRESSURE)
1348:.\20648_driver\drivers/inv_mems_base_control.c ****         data_rdy_status |= SECONDARY_PRESSURE_AVAILABLE;
ARM GAS  C:\Users\ADMINI~1\AppData\Local\Temp\ccjTNAQQ.s 			page 35


1349:.\20648_driver\drivers/inv_mems_base_control.c **** 
1350:.\20648_driver\drivers/inv_mems_base_control.c ****     // turn on gyro cal only if gyro is available
1351:.\20648_driver\drivers/inv_mems_base_control.c ****     if (data_rdy_status & GYRO_AVAILABLE)
1352:.\20648_driver\drivers/inv_mems_base_control.c ****         inv_event_control |= INV_GYRO_CAL_EN;
1353:.\20648_driver\drivers/inv_mems_base_control.c ****     inv_event_control |= INV_ACCEL_CAL_EN | INV_COMPASS_CAL_EN;
1354:.\20648_driver\drivers/inv_mems_base_control.c **** #if (MEMS_CHIP != HW_ICM30630)
1355:.\20648_driver\drivers/inv_mems_base_control.c ****     inv_event_control |= smd_status | ped_int_status;
1356:.\20648_driver\drivers/inv_mems_base_control.c **** #endif
1357:.\20648_driver\drivers/inv_mems_base_control.c ****     
1358:.\20648_driver\drivers/inv_mems_base_control.c ****     if (inv_sensor_control & QUAT9_SET)
1359:.\20648_driver\drivers/inv_mems_base_control.c ****         inv_event_control |= INV_NINE_AXIS_EN;
1360:.\20648_driver\drivers/inv_mems_base_control.c **** #if (MEMS_CHIP != HW_ICM30630)
1361:.\20648_driver\drivers/inv_mems_base_control.c ****     if (inv_sensor_control & (PED_STEPDET_SET | PED_STEPIND_SET) || inv_event_control & INV_SMD_EN)
1362:.\20648_driver\drivers/inv_mems_base_control.c **** #if (MEMS_CHIP == HW_ICM20648)
1363:.\20648_driver\drivers/inv_mems_base_control.c **** #if defined MEMS_WEARABLE_DEVICE
1364:.\20648_driver\drivers/inv_mems_base_control.c ****         inv_event_control |= INV_BAC_WEARABLE;
1365:.\20648_driver\drivers/inv_mems_base_control.c **** #endif
1366:.\20648_driver\drivers/inv_mems_base_control.c **** #endif
1367:.\20648_driver\drivers/inv_mems_base_control.c ****         inv_event_control |= INV_PEDOMETER_EN;
1368:.\20648_driver\drivers/inv_mems_base_control.c ****     }
1369:.\20648_driver\drivers/inv_mems_base_control.c **** #endif
1370:.\20648_driver\drivers/inv_mems_base_control.c **** #if (MEMS_CHIP == HW_ICM20645_E || MEMS_CHIP == HW_ICM20648)
1371:.\20648_driver\drivers/inv_mems_base_control.c ****     if (inv_sensor_control2 & ACT_RECOG_SET){
1372:.\20648_driver\drivers/inv_mems_base_control.c ****         inv_event_control |= INV_PEDOMETER_EN;
1373:.\20648_driver\drivers/inv_mems_base_control.c **** #if (MEMS_CHIP == HW_ICM20648)
1374:.\20648_driver\drivers/inv_mems_base_control.c **** #if defined MEMS_WEARABLE_DEVICE
1375:.\20648_driver\drivers/inv_mems_base_control.c ****         inv_event_control |= INV_BAC_WEARABLE;
1376:.\20648_driver\drivers/inv_mems_base_control.c **** #endif
1377:.\20648_driver\drivers/inv_mems_base_control.c **** #endif
1378:.\20648_driver\drivers/inv_mems_base_control.c ****     }
1379:.\20648_driver\drivers/inv_mems_base_control.c **** #endif
1380:.\20648_driver\drivers/inv_mems_base_control.c **** #if (MEMS_CHIP == HW_ICM30630 || MEMS_CHIP == HW_ICM20645_E || MEMS_CHIP == HW_ICM20648)
1381:.\20648_driver\drivers/inv_mems_base_control.c ****     if (inv_sensor_control2 & FLIP_PICKUP_SET){
1382:.\20648_driver\drivers/inv_mems_base_control.c ****         inv_event_control |= FLIP_PICKUP_EN;
1383:.\20648_driver\drivers/inv_mems_base_control.c ****         // 5061-add-call to reset flip pickup parameters here
1384:.\20648_driver\drivers/inv_mems_base_control.c ****         dmp_reset_pickup();
1385:.\20648_driver\drivers/inv_mems_base_control.c ****     }
1386:.\20648_driver\drivers/inv_mems_base_control.c **** #endif
1387:.\20648_driver\drivers/inv_mems_base_control.c **** 
1388:.\20648_driver\drivers/inv_mems_base_control.c **** #if (MEMS_CHIP == HW_ICM20648)
1389:.\20648_driver\drivers/inv_mems_base_control.c ****     if (inv_sensor_control & GEOMAG_SET)
1390:.\20648_driver\drivers/inv_mems_base_control.c ****         inv_event_control |= GEOMAG_EN;
1391:.\20648_driver\drivers/inv_mems_base_control.c **** #endif
1392:.\20648_driver\drivers/inv_mems_base_control.c **** 
1393:.\20648_driver\drivers/inv_mems_base_control.c ****     result |= dmp_set_motion_event_control(inv_event_control);
1394:.\20648_driver\drivers/inv_mems_base_control.c **** 
1395:.\20648_driver\drivers/inv_mems_base_control.c **** #if defined MEMS_AUGMENTED_SENSORS
1396:.\20648_driver\drivers/inv_mems_base_control.c ****     // A sensor was just enabled/disabled, need to recompute the required ODR for all augmented sen
1397:.\20648_driver\drivers/inv_mems_base_control.c ****     // The fastest ODR will always be applied to other related sensors
1398:.\20648_driver\drivers/inv_mems_base_control.c **** 	if ( (androidSensor == ANDROID_SENSOR_GRAVITY) || (androidSensor == ANDROID_SENSOR_GAME_ROTATION_V
1399:.\20648_driver\drivers/inv_mems_base_control.c **** 	{
1400:.\20648_driver\drivers/inv_mems_base_control.c **** 		inv_mems_augmented_sensors_update_odr(androidSensor, &inv_dmp_odr_delays[INV_SENSOR_SIXQ]);
1401:.\20648_driver\drivers/inv_mems_base_control.c **** 		inv_mems_augmented_sensors_update_odr(androidSensor, &inv_dmp_odr_delays[INV_SENSOR_SIXQ_accel]);
1402:.\20648_driver\drivers/inv_mems_base_control.c **** 	}
1403:.\20648_driver\drivers/inv_mems_base_control.c **** 	if ( (androidSensor == ANDROID_SENSOR_ORIENTATION) || (androidSensor == ANDROID_SENSOR_ROTATION_VE
1404:.\20648_driver\drivers/inv_mems_base_control.c **** 	{
1405:.\20648_driver\drivers/inv_mems_base_control.c **** 		inv_mems_augmented_sensors_update_odr(androidSensor, &inv_dmp_odr_delays[INV_SENSOR_NINEQ]);
ARM GAS  C:\Users\ADMINI~1\AppData\Local\Temp\ccjTNAQQ.s 			page 36


1406:.\20648_driver\drivers/inv_mems_base_control.c **** 		inv_mems_augmented_sensors_update_odr(androidSensor, &inv_dmp_odr_delays[INV_SENSOR_NINEQ_accel])
1407:.\20648_driver\drivers/inv_mems_base_control.c **** 		inv_mems_augmented_sensors_update_odr(androidSensor, &inv_dmp_odr_delays[INV_SENSOR_NINEQ_cpass])
1408:.\20648_driver\drivers/inv_mems_base_control.c **** 	}
1409:.\20648_driver\drivers/inv_mems_base_control.c **** 	if ( (androidSensor == ANDROID_SENSOR_WAKEUP_GRAVITY) || (androidSensor == ANDROID_SENSOR_WAKEUP_G
1410:.\20648_driver\drivers/inv_mems_base_control.c **** 	{
1411:.\20648_driver\drivers/inv_mems_base_control.c **** 		inv_mems_augmented_sensors_update_odr(androidSensor, &inv_dmp_odr_delays[INV_SENSOR_WAKEUP_SIXQ])
1412:.\20648_driver\drivers/inv_mems_base_control.c **** 		inv_mems_augmented_sensors_update_odr(androidSensor, &inv_dmp_odr_delays[INV_SENSOR_WAKEUP_SIXQ_a
1413:.\20648_driver\drivers/inv_mems_base_control.c **** 	}
1414:.\20648_driver\drivers/inv_mems_base_control.c **** 	if ( (androidSensor == ANDROID_SENSOR_WAKEUP_ORIENTATION) || (androidSensor == ANDROID_SENSOR_WAKE
1415:.\20648_driver\drivers/inv_mems_base_control.c **** 	{
1416:.\20648_driver\drivers/inv_mems_base_control.c **** 		inv_mems_augmented_sensors_update_odr(androidSensor, &inv_dmp_odr_delays[INV_SENSOR_WAKEUP_NINEQ]
1417:.\20648_driver\drivers/inv_mems_base_control.c **** 		inv_mems_augmented_sensors_update_odr(androidSensor, &inv_dmp_odr_delays[INV_SENSOR_WAKEUP_NINEQ_
1418:.\20648_driver\drivers/inv_mems_base_control.c **** 		inv_mems_augmented_sensors_update_odr(androidSensor, &inv_dmp_odr_delays[INV_SENSOR_WAKEUP_NINEQ_
1419:.\20648_driver\drivers/inv_mems_base_control.c **** 	}
1420:.\20648_driver\drivers/inv_mems_base_control.c **** #endif
1421:.\20648_driver\drivers/inv_mems_base_control.c **** 
1422:.\20648_driver\drivers/inv_mems_base_control.c **** 	result |= inv_set_hw_smplrt_dmp_odrs();
1423:.\20648_driver\drivers/inv_mems_base_control.c ****     result |= inv_set_gyro_sf(inv_get_gyro_divider(), inv_get_gyro_fullscale());
1424:.\20648_driver\drivers/inv_mems_base_control.c **** 
1425:.\20648_driver\drivers/inv_mems_base_control.c ****     if (!inv_sensor_control && !(inv_androidSensorsOn_mask[0] & (1L << ANDROID_SENSOR_WAKEUP_SIGNIF
1426:.\20648_driver\drivers/inv_mems_base_control.c ****         *mems_put_to_sleep =1 ;
1427:.\20648_driver\drivers/inv_mems_base_control.c ****         result |= inv_sleep_mems();
1428:.\20648_driver\drivers/inv_mems_base_control.c ****     }
1429:.\20648_driver\drivers/inv_mems_base_control.c **** 
1430:.\20648_driver\drivers/inv_mems_base_control.c ****     // DMP no longer controls PWR_MGMT_2 because of hardware bug, 0x80 set to override default beha
1431:.\20648_driver\drivers/inv_mems_base_control.c ****     result |= inv_enable_mems_hw_sensors((int)data_rdy_status | 0x80);
1432:.\20648_driver\drivers/inv_mems_base_control.c **** 
1433:.\20648_driver\drivers/inv_mems_base_control.c ****     // set DATA_RDY_STATUS in DMP
1434:.\20648_driver\drivers/inv_mems_base_control.c **** 	if ( (data_rdy_status & SECONDARY_COMPASS_AVAILABLE) ||
1435:.\20648_driver\drivers/inv_mems_base_control.c **** 		 (data_rdy_status & SECONDARY_PRESSURE_AVAILABLE) )	{
1436:.\20648_driver\drivers/inv_mems_base_control.c **** 		data_rdy_status &= ~SECONDARY_PRESSURE_AVAILABLE;
1437:.\20648_driver\drivers/inv_mems_base_control.c **** 		data_rdy_status |= SECONDARY_COMPASS_AVAILABLE;
1438:.\20648_driver\drivers/inv_mems_base_control.c **** 	}
1439:.\20648_driver\drivers/inv_mems_base_control.c **** 
1440:.\20648_driver\drivers/inv_mems_base_control.c ****     result |= dmp_set_data_rdy_status(data_rdy_status);
1441:.\20648_driver\drivers/inv_mems_base_control.c **** 
1442:.\20648_driver\drivers/inv_mems_base_control.c **** 	// To have the all steps when you enable the sensor
1443:.\20648_driver\drivers/inv_mems_base_control.c **** 	if (androidSensor == ANDROID_SENSOR_STEP_COUNTER)
1444:.\20648_driver\drivers/inv_mems_base_control.c **** 	{
1445:.\20648_driver\drivers/inv_mems_base_control.c **** 		if (enable)
1446:.\20648_driver\drivers/inv_mems_base_control.c **** 		{
1447:.\20648_driver\drivers/inv_mems_base_control.c **** 			dmp_get_pedometer_get_all_steps(&steps);
1448:.\20648_driver\drivers/inv_mems_base_control.c **** 			inv_set_dmp_stepcounter_update_offset(steps);
1449:.\20648_driver\drivers/inv_mems_base_control.c **** 		}
1450:.\20648_driver\drivers/inv_mems_base_control.c **** 	}
1451:.\20648_driver\drivers/inv_mems_base_control.c ****     return result;
1452:.\20648_driver\drivers/inv_mems_base_control.c **** }
1453:.\20648_driver\drivers/inv_mems_base_control.c **** 
1454:.\20648_driver\drivers/inv_mems_base_control.c **** #if (MEMS_CHIP == HW_ICM20645_E|| MEMS_CHIP == HW_ICM20648)
1455:.\20648_driver\drivers/inv_mems_base_control.c **** void inv_enable_activity_classifier(unsigned char enable) 
1456:.\20648_driver\drivers/inv_mems_base_control.c **** {
 568              		.loc 1 1456 0
 569              		.cfi_startproc
 570              	.LVL39:
 571 0000 08B5     		push	{r3, lr}
 572              		.cfi_def_cfa_offset 8
 573              		.cfi_offset 3, -8
ARM GAS  C:\Users\ADMINI~1\AppData\Local\Temp\ccjTNAQQ.s 			page 37


 574              		.cfi_offset 14, -4
1457:.\20648_driver\drivers/inv_mems_base_control.c **** 	bac_on = enable;
 575              		.loc 1 1457 0
 576 0002 0B4B     		ldr	r3, .L81
 577 0004 1A1C     		mov	r2, r3
 578 0006 5432     		add	r2, r2, #84
 579 0008 1080     		strh	r0, [r2]
1458:.\20648_driver\drivers/inv_mems_base_control.c **** 	if (enable) {
 580              		.loc 1 1458 0
 581 000a 0028     		cmp	r0, #0
 582 000c 04D0     		beq	.L77
 583              	.LVL40:
 584              	.LBB21:
 585              	.LBB22:
1459:.\20648_driver\drivers/inv_mems_base_control.c **** 		bac_status = ACT_RECOG_SET;
 586              		.loc 1 1459 0
 587 000e 8022     		mov	r2, #128
 588 0010 5633     		add	r3, r3, #86
 589 0012 1A80     		strh	r2, [r3]
1460:.\20648_driver\drivers/inv_mems_base_control.c **** 		dmp_set_tilt_enable(0);
 590              		.loc 1 1460 0
 591 0014 0020     		mov	r0, #0
 592              	.LVL41:
 593 0016 08E0     		b	.L80
 594              	.LVL42:
 595              	.L77:
 596              	.LBE22:
 597              	.LBE21:
 598              	.LBB23:
 599              	.LBB24:
 168:.\20648_driver\drivers/inv_mems_base_control.c **** }
 600              		.loc 1 168 0
 601 0018 8020     		mov	r0, #128
 602              	.LVL43:
 603 001a 1A6D     		ldr	r2, [r3, #80]
 604 001c 8000     		lsl	r0, r0, #2
 605 001e 1040     		and	r0, r2
 606              	.LBE24:
 607              	.LBE23:
1461:.\20648_driver\drivers/inv_mems_base_control.c **** 	}
1462:.\20648_driver\drivers/inv_mems_base_control.c **** 	else {
1463:.\20648_driver\drivers/inv_mems_base_control.c **** 		// only disable tilt engine if no request for tilt sensor
1464:.\20648_driver\drivers/inv_mems_base_control.c **** 		if (!inv_androidSensor_enabled(ANDROID_SENSOR_WAKEUP_TILT_DETECTOR)) {
 608              		.loc 1 1464 0
 609 0020 02D1     		bne	.L79
1465:.\20648_driver\drivers/inv_mems_base_control.c **** 			bac_status = 0;
 610              		.loc 1 1465 0
 611 0022 5633     		add	r3, r3, #86
 612 0024 1880     		strh	r0, [r3]
 613 0026 00E0     		b	.L80
 614              	.L79:
1466:.\20648_driver\drivers/inv_mems_base_control.c **** 			dmp_set_tilt_enable(0);
1467:.\20648_driver\drivers/inv_mems_base_control.c **** 		}
1468:.\20648_driver\drivers/inv_mems_base_control.c **** 		// do not diable BAC engine if tilt sensor is still on because tilt is part of BAC
1469:.\20648_driver\drivers/inv_mems_base_control.c **** 		else {
1470:.\20648_driver\drivers/inv_mems_base_control.c **** 			dmp_set_tilt_enable(1);
 615              		.loc 1 1470 0
ARM GAS  C:\Users\ADMINI~1\AppData\Local\Temp\ccjTNAQQ.s 			page 38


 616 0028 0120     		mov	r0, #1
 617              	.LVL44:
 618              	.L80:
 619 002a FFF7FEFF 		bl	dmp_set_tilt_enable
 620              	.LVL45:
1471:.\20648_driver\drivers/inv_mems_base_control.c **** 		}
1472:.\20648_driver\drivers/inv_mems_base_control.c **** 	}
1473:.\20648_driver\drivers/inv_mems_base_control.c **** }
 621              		.loc 1 1473 0
 622              		@ sp needed
 623 002e 08BD     		pop	{r3, pc}
 624              	.L82:
 625              		.align	2
 626              	.L81:
 627 0030 00000000 		.word	.LANCHOR0
 628              		.cfi_endproc
 629              	.LFE14:
 630              		.size	inv_enable_activity_classifier, .-inv_enable_activity_classifier
 631              		.section	.text.inv_enable_tilt,"ax",%progbits
 632              		.align	1
 633              		.global	inv_enable_tilt
 634              		.code	16
 635              		.thumb_func
 636              		.type	inv_enable_tilt, %function
 637              	inv_enable_tilt:
 638              	.LFB15:
1474:.\20648_driver\drivers/inv_mems_base_control.c **** 
1475:.\20648_driver\drivers/inv_mems_base_control.c **** void inv_enable_tilt(unsigned char enable) 
1476:.\20648_driver\drivers/inv_mems_base_control.c **** {
 639              		.loc 1 1476 0
 640              		.cfi_startproc
 641              	.LVL46:
 642 0000 08B5     		push	{r3, lr}
 643              		.cfi_def_cfa_offset 8
 644              		.cfi_offset 3, -8
 645              		.cfi_offset 14, -4
 646 0002 0B4B     		ldr	r3, .L89
1477:.\20648_driver\drivers/inv_mems_base_control.c **** 	if (enable) {
1478:.\20648_driver\drivers/inv_mems_base_control.c **** 		bac_status = ACT_RECOG_SET;
 647              		.loc 1 1478 0
 648 0004 1A1C     		mov	r2, r3
1477:.\20648_driver\drivers/inv_mems_base_control.c **** 	if (enable) {
 649              		.loc 1 1477 0
 650 0006 0028     		cmp	r0, #0
 651 0008 08D0     		beq	.L84
 652              		.loc 1 1478 0
 653 000a 8021     		mov	r1, #128
1479:.\20648_driver\drivers/inv_mems_base_control.c **** 		if (!bac_on)
 654              		.loc 1 1479 0
 655 000c 5433     		add	r3, r3, #84
 656 000e 1B88     		ldrh	r3, [r3]
1478:.\20648_driver\drivers/inv_mems_base_control.c **** 		if (!bac_on)
 657              		.loc 1 1478 0
 658 0010 5632     		add	r2, r2, #86
 659 0012 1180     		strh	r1, [r2]
1480:.\20648_driver\drivers/inv_mems_base_control.c **** 			dmp_set_tilt_enable(1); // turn off BAC FIFO output except tilt if BAC sensor is off
 660              		.loc 1 1480 0
ARM GAS  C:\Users\ADMINI~1\AppData\Local\Temp\ccjTNAQQ.s 			page 39


 661 0014 0120     		mov	r0, #1
 662              	.LVL47:
1479:.\20648_driver\drivers/inv_mems_base_control.c **** 		if (!bac_on)
 663              		.loc 1 1479 0
 664 0016 002B     		cmp	r3, #0
 665 0018 08D1     		bne	.L83
 666 001a 05E0     		b	.L88
 667              	.LVL48:
 668              	.L84:
1481:.\20648_driver\drivers/inv_mems_base_control.c **** 	}
1482:.\20648_driver\drivers/inv_mems_base_control.c **** 	else {
1483:.\20648_driver\drivers/inv_mems_base_control.c **** 		// do not disable BAC engine if BAC sensor is still on even though tilt is off
1484:.\20648_driver\drivers/inv_mems_base_control.c **** 		if (!bac_on) {
 669              		.loc 1 1484 0
 670 001c 5432     		add	r2, r2, #84
 671 001e 1088     		ldrh	r0, [r2]
 672              	.LVL49:
 673 0020 0028     		cmp	r0, #0
 674 0022 03D1     		bne	.L83
 675              	.LVL50:
 676              	.LBB27:
 677              	.LBB28:
1485:.\20648_driver\drivers/inv_mems_base_control.c **** 			bac_status = 0;
 678              		.loc 1 1485 0
 679 0024 5633     		add	r3, r3, #86
 680 0026 1880     		strh	r0, [r3]
 681              	.LVL51:
 682              	.L88:
1486:.\20648_driver\drivers/inv_mems_base_control.c **** 			dmp_set_tilt_enable(0);
 683              		.loc 1 1486 0
 684 0028 FFF7FEFF 		bl	dmp_set_tilt_enable
 685              	.LVL52:
 686              	.L83:
 687              	.LBE28:
 688              	.LBE27:
1487:.\20648_driver\drivers/inv_mems_base_control.c **** 		}
1488:.\20648_driver\drivers/inv_mems_base_control.c **** 	}
1489:.\20648_driver\drivers/inv_mems_base_control.c **** }
 689              		.loc 1 1489 0
 690              		@ sp needed
 691 002c 08BD     		pop	{r3, pc}
 692              	.L90:
 693 002e C046     		.align	2
 694              	.L89:
 695 0030 00000000 		.word	.LANCHOR0
 696              		.cfi_endproc
 697              	.LFE15:
 698              		.size	inv_enable_tilt, .-inv_enable_tilt
 699              		.section	.text.inv_set_batch_mode_status,"ax",%progbits
 700              		.align	1
 701              		.global	inv_set_batch_mode_status
 702              		.code	16
 703              		.thumb_func
 704              		.type	inv_set_batch_mode_status, %function
 705              	inv_set_batch_mode_status:
 706              	.LFB17:
1490:.\20648_driver\drivers/inv_mems_base_control.c **** #endif
ARM GAS  C:\Users\ADMINI~1\AppData\Local\Temp\ccjTNAQQ.s 			page 40


1491:.\20648_driver\drivers/inv_mems_base_control.c **** 
1492:.\20648_driver\drivers/inv_mems_base_control.c **** inv_error_t inv_enable_batch(unsigned char enable)
1493:.\20648_driver\drivers/inv_mems_base_control.c **** {
1494:.\20648_driver\drivers/inv_mems_base_control.c ****     int ret = 0;
1495:.\20648_driver\drivers/inv_mems_base_control.c **** 
1496:.\20648_driver\drivers/inv_mems_base_control.c ****     if(enable)
1497:.\20648_driver\drivers/inv_mems_base_control.c ****         inv_sensor_control2 |= BATCH_MODE_EN;
1498:.\20648_driver\drivers/inv_mems_base_control.c ****     else
1499:.\20648_driver\drivers/inv_mems_base_control.c ****         inv_sensor_control2 &= ~BATCH_MODE_EN;
1500:.\20648_driver\drivers/inv_mems_base_control.c **** 
1501:.\20648_driver\drivers/inv_mems_base_control.c ****     ret = dmp_set_data_output_control2(inv_sensor_control2);
1502:.\20648_driver\drivers/inv_mems_base_control.c **** 	
1503:.\20648_driver\drivers/inv_mems_base_control.c **** #if (MEMS_CHIP == HW_ICM20648)
1504:.\20648_driver\drivers/inv_mems_base_control.c **** 	/* give batch mode status to mems transport layer 
1505:.\20648_driver\drivers/inv_mems_base_control.c **** 	to allow disable/enable LP_EN when reading FIFO in batch mode */
1506:.\20648_driver\drivers/inv_mems_base_control.c **** 	inv_set_batch_mode_status(enable);
1507:.\20648_driver\drivers/inv_mems_base_control.c **** #endif
1508:.\20648_driver\drivers/inv_mems_base_control.c **** 
1509:.\20648_driver\drivers/inv_mems_base_control.c ****     return ret;
1510:.\20648_driver\drivers/inv_mems_base_control.c **** }
1511:.\20648_driver\drivers/inv_mems_base_control.c **** 
1512:.\20648_driver\drivers/inv_mems_base_control.c **** #if (MEMS_CHIP == HW_ICM20648)
1513:.\20648_driver\drivers/inv_mems_base_control.c **** static unsigned char sBatchMode=0;
1514:.\20648_driver\drivers/inv_mems_base_control.c **** 
1515:.\20648_driver\drivers/inv_mems_base_control.c **** void inv_set_batch_mode_status(unsigned char enable)
1516:.\20648_driver\drivers/inv_mems_base_control.c **** {
 707              		.loc 1 1516 0
 708              		.cfi_startproc
 709              	.LVL53:
 710 0000 044B     		ldr	r3, .L94
1517:.\20648_driver\drivers/inv_mems_base_control.c **** 	if(enable)
1518:.\20648_driver\drivers/inv_mems_base_control.c **** 		sBatchMode=1;
 711              		.loc 1 1518 0
 712 0002 5833     		add	r3, r3, #88
1517:.\20648_driver\drivers/inv_mems_base_control.c **** 	if(enable)
 713              		.loc 1 1517 0
 714 0004 0028     		cmp	r0, #0
 715 0006 02D0     		beq	.L92
 716              		.loc 1 1518 0
 717 0008 0122     		mov	r2, #1
 718 000a 1A70     		strb	r2, [r3]
 719 000c 00E0     		b	.L91
 720              	.L92:
1519:.\20648_driver\drivers/inv_mems_base_control.c **** 	else
1520:.\20648_driver\drivers/inv_mems_base_control.c **** 		sBatchMode=0;
 721              		.loc 1 1520 0
 722 000e 1870     		strb	r0, [r3]
 723              	.L91:
1521:.\20648_driver\drivers/inv_mems_base_control.c **** }
 724              		.loc 1 1521 0
 725              		@ sp needed
 726 0010 7047     		bx	lr
 727              	.L95:
 728 0012 C046     		.align	2
 729              	.L94:
 730 0014 00000000 		.word	.LANCHOR0
 731              		.cfi_endproc
ARM GAS  C:\Users\ADMINI~1\AppData\Local\Temp\ccjTNAQQ.s 			page 41


 732              	.LFE17:
 733              		.size	inv_set_batch_mode_status, .-inv_set_batch_mode_status
 734              		.section	.text.inv_enable_batch,"ax",%progbits
 735              		.align	1
 736              		.global	inv_enable_batch
 737              		.code	16
 738              		.thumb_func
 739              		.type	inv_enable_batch, %function
 740              	inv_enable_batch:
 741              	.LFB16:
1493:.\20648_driver\drivers/inv_mems_base_control.c ****     int ret = 0;
 742              		.loc 1 1493 0
 743              		.cfi_startproc
 744              	.LVL54:
 745 0000 38B5     		push	{r3, r4, r5, lr}
 746              		.cfi_def_cfa_offset 16
 747              		.cfi_offset 3, -16
 748              		.cfi_offset 4, -12
 749              		.cfi_offset 5, -8
 750              		.cfi_offset 14, -4
 751 0002 0C4B     		ldr	r3, .L100
1493:.\20648_driver\drivers/inv_mems_base_control.c ****     int ret = 0;
 752              		.loc 1 1493 0
 753 0004 041C     		mov	r4, r0
1497:.\20648_driver\drivers/inv_mems_base_control.c ****     else
 754              		.loc 1 1497 0
 755 0006 191C     		mov	r1, r3
 756 0008 5A31     		add	r1, r1, #90
1496:.\20648_driver\drivers/inv_mems_base_control.c ****         inv_sensor_control2 |= BATCH_MODE_EN;
 757              		.loc 1 1496 0
 758 000a 0028     		cmp	r0, #0
 759 000c 04D0     		beq	.L97
1497:.\20648_driver\drivers/inv_mems_base_control.c ****     else
 760              		.loc 1 1497 0
 761 000e 8020     		mov	r0, #128
 762              	.LVL55:
 763 0010 0A88     		ldrh	r2, [r1]
 764 0012 4000     		lsl	r0, r0, #1
 765 0014 0243     		orr	r2, r0
 766 0016 02E0     		b	.L99
 767              	.LVL56:
 768              	.L97:
1499:.\20648_driver\drivers/inv_mems_base_control.c **** 
 769              		.loc 1 1499 0
 770 0018 0888     		ldrh	r0, [r1]
 771              	.LVL57:
 772 001a 074A     		ldr	r2, .L100+4
 773 001c 0240     		and	r2, r0
 774              	.L99:
 775 001e 0A80     		strh	r2, [r1]
1501:.\20648_driver\drivers/inv_mems_base_control.c **** 	
 776              		.loc 1 1501 0
 777 0020 5A33     		add	r3, r3, #90
 778 0022 1888     		ldrh	r0, [r3]
 779 0024 FFF7FEFF 		bl	dmp_set_data_output_control2
 780              	.LVL58:
 781 0028 051C     		mov	r5, r0
ARM GAS  C:\Users\ADMINI~1\AppData\Local\Temp\ccjTNAQQ.s 			page 42


 782              	.LVL59:
1506:.\20648_driver\drivers/inv_mems_base_control.c **** #endif
 783              		.loc 1 1506 0
 784 002a 201C     		mov	r0, r4
 785              	.LVL60:
 786 002c FFF7FEFF 		bl	inv_set_batch_mode_status
 787              	.LVL61:
1510:.\20648_driver\drivers/inv_mems_base_control.c **** 
 788              		.loc 1 1510 0
 789              		@ sp needed
 790 0030 281C     		mov	r0, r5
 791              	.LVL62:
 792 0032 38BD     		pop	{r3, r4, r5, pc}
 793              	.L101:
 794              		.align	2
 795              	.L100:
 796 0034 00000000 		.word	.LANCHOR0
 797 0038 FFFEFFFF 		.word	-257
 798              		.cfi_endproc
 799              	.LFE16:
 800              		.size	inv_enable_batch, .-inv_enable_batch
 801              		.section	.text.inv_get_batch_mode_status,"ax",%progbits
 802              		.align	1
 803              		.global	inv_get_batch_mode_status
 804              		.code	16
 805              		.thumb_func
 806              		.type	inv_get_batch_mode_status, %function
 807              	inv_get_batch_mode_status:
 808              	.LFB18:
1522:.\20648_driver\drivers/inv_mems_base_control.c **** 
1523:.\20648_driver\drivers/inv_mems_base_control.c **** unsigned char inv_get_batch_mode_status(void)
1524:.\20648_driver\drivers/inv_mems_base_control.c **** {
 809              		.loc 1 1524 0
 810              		.cfi_startproc
1525:.\20648_driver\drivers/inv_mems_base_control.c **** 	return sBatchMode;
 811              		.loc 1 1525 0
 812 0000 014B     		ldr	r3, .L103
1526:.\20648_driver\drivers/inv_mems_base_control.c **** }
 813              		.loc 1 1526 0
 814              		@ sp needed
1525:.\20648_driver\drivers/inv_mems_base_control.c **** 	return sBatchMode;
 815              		.loc 1 1525 0
 816 0002 5833     		add	r3, r3, #88
 817 0004 1878     		ldrb	r0, [r3]
 818              		.loc 1 1526 0
 819 0006 7047     		bx	lr
 820              	.L104:
 821              		.align	2
 822              	.L103:
 823 0008 00000000 		.word	.LANCHOR0
 824              		.cfi_endproc
 825              	.LFE18:
 826              		.size	inv_get_batch_mode_status, .-inv_get_batch_mode_status
 827              		.section	.text.inv_set_batch_timeout,"ax",%progbits
 828              		.align	1
 829              		.global	inv_set_batch_timeout
 830              		.code	16
ARM GAS  C:\Users\ADMINI~1\AppData\Local\Temp\ccjTNAQQ.s 			page 43


 831              		.thumb_func
 832              		.type	inv_set_batch_timeout, %function
 833              	inv_set_batch_timeout:
 834              	.LFB19:
1527:.\20648_driver\drivers/inv_mems_base_control.c **** #endif
1528:.\20648_driver\drivers/inv_mems_base_control.c **** 
1529:.\20648_driver\drivers/inv_mems_base_control.c **** inv_error_t inv_set_batch_timeout(unsigned short batch_time_in_seconds)
1530:.\20648_driver\drivers/inv_mems_base_control.c **** {
 835              		.loc 1 1530 0
 836              		.cfi_startproc
 837              	.LVL63:
1531:.\20648_driver\drivers/inv_mems_base_control.c ****     unsigned int timeout = 0;
1532:.\20648_driver\drivers/inv_mems_base_control.c **** 
1533:.\20648_driver\drivers/inv_mems_base_control.c ****     if(inv_sensor_control & GYRO_CALIBR_SET || inv_sensor_control & QUAT6_SET || inv_sensor_control
 838              		.loc 1 1533 0
 839 0000 114B     		ldr	r3, .L111
 840 0002 124A     		ldr	r2, .L111+4
 841 0004 5C33     		add	r3, r3, #92
 842 0006 1B88     		ldrh	r3, [r3]
1530:.\20648_driver\drivers/inv_mems_base_control.c ****     unsigned int timeout = 0;
 843              		.loc 1 1530 0
 844 0008 10B5     		push	{r4, lr}
 845              		.cfi_def_cfa_offset 8
 846              		.cfi_offset 4, -8
 847              		.cfi_offset 14, -4
1530:.\20648_driver\drivers/inv_mems_base_control.c ****     unsigned int timeout = 0;
 848              		.loc 1 1530 0
 849 000a 041C     		mov	r4, r0
 850              		.loc 1 1533 0
 851 000c 1342     		tst	r3, r2
 852 000e 08D0     		beq	.L106
1534:.\20648_driver\drivers/inv_mems_base_control.c ****         timeout = (unsigned int) (batch_time_in_seconds * (BASE_SAMPLE_RATE/ (inv_get_gyro_divider(
 853              		.loc 1 1534 0
 854 0010 FFF7FEFF 		bl	inv_get_gyro_divider
 855              	.LVL64:
 856 0014 411C     		add	r1, r0, #1
 857 0016 0E48     		ldr	r0, .L111+8
 858              	.LVL65:
 859 0018 FFF7FEFF 		bl	__aeabi_idiv
 860              	.LVL66:
1535:.\20648_driver\drivers/inv_mems_base_control.c ****         return dmp_set_batchmode_params(timeout, GYRO_AVAILABLE);
 861              		.loc 1 1535 0
 862 001c 0121     		mov	r1, #1
1534:.\20648_driver\drivers/inv_mems_base_control.c ****         timeout = (unsigned int) (batch_time_in_seconds * (BASE_SAMPLE_RATE/ (inv_get_gyro_divider(
 863              		.loc 1 1534 0
 864 001e 6043     		mul	r0, r4
 865 0020 0CE0     		b	.L110
 866              	.LVL67:
 867              	.L106:
1536:.\20648_driver\drivers/inv_mems_base_control.c ****     }
1537:.\20648_driver\drivers/inv_mems_base_control.c ****     
1538:.\20648_driver\drivers/inv_mems_base_control.c ****     if(inv_sensor_control & ACCEL_SET
 868              		.loc 1 1538 0
 869 0022 1AB2     		sxth	r2, r3
 870 0024 002A     		cmp	r2, #0
 871 0026 01DB     		blt	.L108
1539:.\20648_driver\drivers/inv_mems_base_control.c **** #if (MEMS_CHIP == HW_ICM20648)
ARM GAS  C:\Users\ADMINI~1\AppData\Local\Temp\ccjTNAQQ.s 			page 44


1540:.\20648_driver\drivers/inv_mems_base_control.c **** 		|| inv_sensor_control & GEOMAG_SET
 872              		.loc 1 1540 0
 873 0028 DB05     		lsl	r3, r3, #23
 874 002a 0AD5     		bpl	.L109
 875              	.L108:
1541:.\20648_driver\drivers/inv_mems_base_control.c **** #endif
1542:.\20648_driver\drivers/inv_mems_base_control.c **** 	) {    // If Accel is enabled and no Gyro based sensor is enabled.
1543:.\20648_driver\drivers/inv_mems_base_control.c ****         timeout = (unsigned int) (batch_time_in_seconds * (BASE_SAMPLE_RATE/ (inv_get_accel_divider
 876              		.loc 1 1543 0
 877 002c FFF7FEFF 		bl	inv_get_accel_divider
 878              	.LVL68:
 879 0030 411C     		add	r1, r0, #1
 880 0032 0748     		ldr	r0, .L111+8
 881              	.LVL69:
 882 0034 FFF7FEFF 		bl	__aeabi_idiv
 883              	.LVL70:
1544:.\20648_driver\drivers/inv_mems_base_control.c ****         return dmp_set_batchmode_params(timeout, ACCEL_AVAILABLE);
 884              		.loc 1 1544 0
 885 0038 0221     		mov	r1, #2
1543:.\20648_driver\drivers/inv_mems_base_control.c ****         return dmp_set_batchmode_params(timeout, ACCEL_AVAILABLE);
 886              		.loc 1 1543 0
 887 003a 6043     		mul	r0, r4
 888              	.L110:
 889              		.loc 1 1544 0
 890 003c FFF7FEFF 		bl	dmp_set_batchmode_params
 891              	.LVL71:
 892 0040 01E0     		b	.L107
 893              	.LVL72:
 894              	.L109:
1545:.\20648_driver\drivers/inv_mems_base_control.c ****     }
1546:.\20648_driver\drivers/inv_mems_base_control.c **** 
1547:.\20648_driver\drivers/inv_mems_base_control.c **** #if defined MEMS_SECONDARY_DEVICE
1548:.\20648_driver\drivers/inv_mems_base_control.c ****     if(inv_sensor_control & CPASS_SET || inv_sensor_control & CPASS_CALIBR_SET || inv_sensor_contro
1549:.\20648_driver\drivers/inv_mems_base_control.c **** 	int rc = 0;
1550:.\20648_driver\drivers/inv_mems_base_control.c ****         
1551:.\20648_driver\drivers/inv_mems_base_control.c **** 	timeout = (unsigned int) (batch_time_in_seconds * (BASE_SAMPLE_RATE/ inv_get_secondary_divider()))
1552:.\20648_driver\drivers/inv_mems_base_control.c **** 	
1553:.\20648_driver\drivers/inv_mems_base_control.c **** 	if(inv_sensor_control & PRESSURE_SET) {
1554:.\20648_driver\drivers/inv_mems_base_control.c **** 		rc = dmp_set_batchmode_params(timeout, SECONDARY_PRESSURE_AVAILABLE);
1555:.\20648_driver\drivers/inv_mems_base_control.c **** 	}
1556:.\20648_driver\drivers/inv_mems_base_control.c **** 	if(inv_sensor_control & CPASS_SET || inv_sensor_control & CPASS_CALIBR_SET) {
1557:.\20648_driver\drivers/inv_mems_base_control.c **** 		rc |= dmp_set_batchmode_params(timeout, SECONDARY_COMPASS_AVAILABLE);
1558:.\20648_driver\drivers/inv_mems_base_control.c **** 	}
1559:.\20648_driver\drivers/inv_mems_base_control.c **** 	
1560:.\20648_driver\drivers/inv_mems_base_control.c ****         return rc;
1561:.\20648_driver\drivers/inv_mems_base_control.c ****     }
1562:.\20648_driver\drivers/inv_mems_base_control.c **** #endif
1563:.\20648_driver\drivers/inv_mems_base_control.c **** 
1564:.\20648_driver\drivers/inv_mems_base_control.c ****     return -1;  // Call batch only when a sensor is enabled.
 895              		.loc 1 1564 0
 896 0042 0120     		mov	r0, #1
 897              	.LVL73:
 898 0044 4042     		neg	r0, r0
 899              	.LVL74:
 900              	.L107:
1565:.\20648_driver\drivers/inv_mems_base_control.c **** }    
 901              		.loc 1 1565 0
ARM GAS  C:\Users\ADMINI~1\AppData\Local\Temp\ccjTNAQQ.s 			page 45


 902              		@ sp needed
 903 0046 10BD     		pop	{r4, pc}
 904              	.L112:
 905              		.align	2
 906              	.L111:
 907 0048 00000000 		.word	.LANCHOR0
 908 004c 404C0000 		.word	19520
 909 0050 65040000 		.word	1125
 910              		.cfi_endproc
 911              	.LFE19:
 912              		.size	inv_set_batch_timeout, .-inv_set_batch_timeout
 913              		.section	.text.inv_set_batch_timeout_ms,"ax",%progbits
 914              		.align	1
 915              		.global	inv_set_batch_timeout_ms
 916              		.code	16
 917              		.thumb_func
 918              		.type	inv_set_batch_timeout_ms, %function
 919              	inv_set_batch_timeout_ms:
 920              	.LFB20:
1566:.\20648_driver\drivers/inv_mems_base_control.c **** 
1567:.\20648_driver\drivers/inv_mems_base_control.c **** inv_error_t inv_set_batch_timeout_ms(unsigned short batch_time_in_ms)
1568:.\20648_driver\drivers/inv_mems_base_control.c **** {
 921              		.loc 1 1568 0
 922              		.cfi_startproc
 923              	.LVL75:
1569:.\20648_driver\drivers/inv_mems_base_control.c **** 	unsigned int timeout = 0;
1570:.\20648_driver\drivers/inv_mems_base_control.c **** 
1571:.\20648_driver\drivers/inv_mems_base_control.c **** 	if(inv_sensor_control & GYRO_CALIBR_SET || inv_sensor_control & QUAT6_SET || inv_sensor_control & 
 924              		.loc 1 1571 0
 925 0000 154B     		ldr	r3, .L119
 926 0002 164A     		ldr	r2, .L119+4
 927 0004 5C33     		add	r3, r3, #92
 928 0006 1B88     		ldrh	r3, [r3]
1568:.\20648_driver\drivers/inv_mems_base_control.c **** 	unsigned int timeout = 0;
 929              		.loc 1 1568 0
 930 0008 10B5     		push	{r4, lr}
 931              		.cfi_def_cfa_offset 8
 932              		.cfi_offset 4, -8
 933              		.cfi_offset 14, -4
1568:.\20648_driver\drivers/inv_mems_base_control.c **** 	unsigned int timeout = 0;
 934              		.loc 1 1568 0
 935 000a 041C     		mov	r4, r0
 936              		.loc 1 1571 0
 937 000c 1342     		tst	r3, r2
 938 000e 0CD0     		beq	.L114
1572:.\20648_driver\drivers/inv_mems_base_control.c **** 		timeout = (unsigned int) ((batch_time_in_ms * (BASE_SAMPLE_RATE/ (inv_get_gyro_divider() + 1)))/1
 939              		.loc 1 1572 0
 940 0010 FFF7FEFF 		bl	inv_get_gyro_divider
 941              	.LVL76:
 942 0014 411C     		add	r1, r0, #1
 943 0016 1248     		ldr	r0, .L119+8
 944              	.LVL77:
 945 0018 FFF7FEFF 		bl	__aeabi_idiv
 946              	.LVL78:
 947 001c FA21     		mov	r1, #250
 948 001e 6043     		mul	r0, r4
 949 0020 8900     		lsl	r1, r1, #2
ARM GAS  C:\Users\ADMINI~1\AppData\Local\Temp\ccjTNAQQ.s 			page 46


 950 0022 FFF7FEFF 		bl	__aeabi_idiv
 951              	.LVL79:
1573:.\20648_driver\drivers/inv_mems_base_control.c **** 		return dmp_set_batchmode_params(timeout, GYRO_AVAILABLE);
 952              		.loc 1 1573 0
 953 0026 0121     		mov	r1, #1
 954 0028 10E0     		b	.L118
 955              	.LVL80:
 956              	.L114:
1574:.\20648_driver\drivers/inv_mems_base_control.c **** 	}
1575:.\20648_driver\drivers/inv_mems_base_control.c **** 
1576:.\20648_driver\drivers/inv_mems_base_control.c **** 	if(inv_sensor_control & ACCEL_SET
 957              		.loc 1 1576 0
 958 002a 1AB2     		sxth	r2, r3
 959 002c 002A     		cmp	r2, #0
 960 002e 01DB     		blt	.L116
1577:.\20648_driver\drivers/inv_mems_base_control.c **** #if (MEMS_CHIP == HW_ICM20648)
1578:.\20648_driver\drivers/inv_mems_base_control.c **** 		|| inv_sensor_control & GEOMAG_SET
 961              		.loc 1 1578 0
 962 0030 DB05     		lsl	r3, r3, #23
 963 0032 0ED5     		bpl	.L117
 964              	.L116:
1579:.\20648_driver\drivers/inv_mems_base_control.c **** #endif
1580:.\20648_driver\drivers/inv_mems_base_control.c **** 	) {    // If Accel is enabled and no Gyro based sensor is enabled.
1581:.\20648_driver\drivers/inv_mems_base_control.c **** 		timeout = (unsigned int) ((batch_time_in_ms * (BASE_SAMPLE_RATE/ (inv_get_accel_divider() + 1)))/
 965              		.loc 1 1581 0
 966 0034 FFF7FEFF 		bl	inv_get_accel_divider
 967              	.LVL81:
 968 0038 411C     		add	r1, r0, #1
 969 003a 0948     		ldr	r0, .L119+8
 970              	.LVL82:
 971 003c FFF7FEFF 		bl	__aeabi_idiv
 972              	.LVL83:
 973 0040 FA21     		mov	r1, #250
 974 0042 6043     		mul	r0, r4
 975 0044 8900     		lsl	r1, r1, #2
 976 0046 FFF7FEFF 		bl	__aeabi_idiv
 977              	.LVL84:
1582:.\20648_driver\drivers/inv_mems_base_control.c **** 		return dmp_set_batchmode_params(timeout, ACCEL_AVAILABLE);
 978              		.loc 1 1582 0
 979 004a 0221     		mov	r1, #2
 980              	.L118:
 981 004c FFF7FEFF 		bl	dmp_set_batchmode_params
 982              	.LVL85:
 983 0050 01E0     		b	.L115
 984              	.LVL86:
 985              	.L117:
1583:.\20648_driver\drivers/inv_mems_base_control.c **** 	}
1584:.\20648_driver\drivers/inv_mems_base_control.c ****     
1585:.\20648_driver\drivers/inv_mems_base_control.c **** #if defined MEMS_SECONDARY_DEVICE
1586:.\20648_driver\drivers/inv_mems_base_control.c **** 	if(inv_sensor_control & CPASS_SET || inv_sensor_control & CPASS_CALIBR_SET || inv_sensor_control &
1587:.\20648_driver\drivers/inv_mems_base_control.c **** 		int rc = 0;
1588:.\20648_driver\drivers/inv_mems_base_control.c **** 		
1589:.\20648_driver\drivers/inv_mems_base_control.c **** 		timeout = (unsigned int) ((batch_time_in_ms * (BASE_SAMPLE_RATE/ inv_get_secondary_divider()))/10
1590:.\20648_driver\drivers/inv_mems_base_control.c **** 		
1591:.\20648_driver\drivers/inv_mems_base_control.c **** 		if(inv_sensor_control & PRESSURE_SET) {
1592:.\20648_driver\drivers/inv_mems_base_control.c **** 			rc = dmp_set_batchmode_params(timeout, SECONDARY_PRESSURE_AVAILABLE);
1593:.\20648_driver\drivers/inv_mems_base_control.c **** 		}
ARM GAS  C:\Users\ADMINI~1\AppData\Local\Temp\ccjTNAQQ.s 			page 47


1594:.\20648_driver\drivers/inv_mems_base_control.c **** 		if(inv_sensor_control & CPASS_SET || inv_sensor_control & CPASS_CALIBR_SET) {
1595:.\20648_driver\drivers/inv_mems_base_control.c **** 			rc |= dmp_set_batchmode_params(timeout, SECONDARY_COMPASS_AVAILABLE);
1596:.\20648_driver\drivers/inv_mems_base_control.c **** 		}
1597:.\20648_driver\drivers/inv_mems_base_control.c **** 		
1598:.\20648_driver\drivers/inv_mems_base_control.c **** 		return rc;
1599:.\20648_driver\drivers/inv_mems_base_control.c **** 	}
1600:.\20648_driver\drivers/inv_mems_base_control.c **** #endif
1601:.\20648_driver\drivers/inv_mems_base_control.c **** 
1602:.\20648_driver\drivers/inv_mems_base_control.c **** 	return -1;  // Call batch only when a sensor is enabled.
 986              		.loc 1 1602 0
 987 0052 0120     		mov	r0, #1
 988              	.LVL87:
 989 0054 4042     		neg	r0, r0
 990              	.LVL88:
 991              	.L115:
1603:.\20648_driver\drivers/inv_mems_base_control.c **** }    
 992              		.loc 1 1603 0
 993              		@ sp needed
 994 0056 10BD     		pop	{r4, pc}
 995              	.L120:
 996              		.align	2
 997              	.L119:
 998 0058 00000000 		.word	.LANCHOR0
 999 005c 404C0000 		.word	19520
 1000 0060 65040000 		.word	1125
 1001              		.cfi_endproc
 1002              	.LFE20:
 1003              		.size	inv_set_batch_timeout_ms, .-inv_set_batch_timeout_ms
 1004              		.section	.text.inv_get_androidSensorsOn_mask,"ax",%progbits
 1005              		.align	1
 1006              		.global	inv_get_androidSensorsOn_mask
 1007              		.code	16
 1008              		.thumb_func
 1009              		.type	inv_get_androidSensorsOn_mask, %function
 1010              	inv_get_androidSensorsOn_mask:
 1011              	.LFB21:
1604:.\20648_driver\drivers/inv_mems_base_control.c **** 
1605:.\20648_driver\drivers/inv_mems_base_control.c **** /** Each bit corresponds to a sensor being on (Sensors 0 to 21)
1606:.\20648_driver\drivers/inv_mems_base_control.c **** */
1607:.\20648_driver\drivers/inv_mems_base_control.c **** unsigned long *inv_get_androidSensorsOn_mask()
1608:.\20648_driver\drivers/inv_mems_base_control.c **** {
 1012              		.loc 1 1608 0
 1013              		.cfi_startproc
1609:.\20648_driver\drivers/inv_mems_base_control.c ****     return inv_androidSensorsOn_mask;
 1014              		.loc 1 1609 0
 1015 0000 0148     		ldr	r0, .L122
1610:.\20648_driver\drivers/inv_mems_base_control.c **** }
 1016              		.loc 1 1610 0
 1017              		@ sp needed
 1018 0002 4C30     		add	r0, r0, #76
 1019 0004 7047     		bx	lr
 1020              	.L123:
 1021 0006 C046     		.align	2
 1022              	.L122:
 1023 0008 00000000 		.word	.LANCHOR0
 1024              		.cfi_endproc
 1025              	.LFE21:
ARM GAS  C:\Users\ADMINI~1\AppData\Local\Temp\ccjTNAQQ.s 			page 48


 1026              		.size	inv_get_androidSensorsOn_mask, .-inv_get_androidSensorsOn_mask
 1027              		.section	.text.inv_get_activitiy_classifier_on_flag,"ax",%progbits
 1028              		.align	1
 1029              		.global	inv_get_activitiy_classifier_on_flag
 1030              		.code	16
 1031              		.thumb_func
 1032              		.type	inv_get_activitiy_classifier_on_flag, %function
 1033              	inv_get_activitiy_classifier_on_flag:
 1034              	.LFB22:
1611:.\20648_driver\drivers/inv_mems_base_control.c **** 
1612:.\20648_driver\drivers/inv_mems_base_control.c **** #if (MEMS_CHIP == HW_ICM20645_E || MEMS_CHIP == HW_ICM20648 )
1613:.\20648_driver\drivers/inv_mems_base_control.c **** unsigned short inv_get_activitiy_classifier_on_flag()
1614:.\20648_driver\drivers/inv_mems_base_control.c **** {
 1035              		.loc 1 1614 0
 1036              		.cfi_startproc
1615:.\20648_driver\drivers/inv_mems_base_control.c **** 	return bac_on;
 1037              		.loc 1 1615 0
 1038 0000 014B     		ldr	r3, .L125
1616:.\20648_driver\drivers/inv_mems_base_control.c **** }
 1039              		.loc 1 1616 0
 1040              		@ sp needed
1615:.\20648_driver\drivers/inv_mems_base_control.c **** 	return bac_on;
 1041              		.loc 1 1615 0
 1042 0002 5433     		add	r3, r3, #84
 1043 0004 1888     		ldrh	r0, [r3]
 1044              		.loc 1 1616 0
 1045 0006 7047     		bx	lr
 1046              	.L126:
 1047              		.align	2
 1048              	.L125:
 1049 0008 00000000 		.word	.LANCHOR0
 1050              		.cfi_endproc
 1051              	.LFE22:
 1052              		.size	inv_get_activitiy_classifier_on_flag, .-inv_get_activitiy_classifier_on_flag
 1053              		.section	.text.inv_set_accel_quaternion_gain,"ax",%progbits
 1054              		.align	1
 1055              		.global	inv_set_accel_quaternion_gain
 1056              		.code	16
 1057              		.thumb_func
 1058              		.type	inv_set_accel_quaternion_gain, %function
 1059              	inv_set_accel_quaternion_gain:
 1060              	.LFB23:
1617:.\20648_driver\drivers/inv_mems_base_control.c **** #endif
1618:.\20648_driver\drivers/inv_mems_base_control.c **** 
1619:.\20648_driver\drivers/inv_mems_base_control.c **** /** @brief Sets accel quaternion gain according to accel engine rate.
1620:.\20648_driver\drivers/inv_mems_base_control.c **** * @param[in] hw_smplrt_divider  hardware sample rate divider such that accel engine rate = 1125Hz/h
1621:.\20648_driver\drivers/inv_mems_base_control.c **** * @return 0 in case of success, -1 for any error
1622:.\20648_driver\drivers/inv_mems_base_control.c **** */
1623:.\20648_driver\drivers/inv_mems_base_control.c **** inv_error_t inv_set_accel_quaternion_gain(unsigned short hw_smplrt_divider)
1624:.\20648_driver\drivers/inv_mems_base_control.c **** {
 1061              		.loc 1 1624 0
 1062              		.cfi_startproc
 1063              	.LVL89:
 1064 0000 0A38     		sub	r0, r0, #10
 1065              	.LVL90:
 1066 0002 80B2     		uxth	r0, r0
 1067 0004 08B5     		push	{r3, lr}
ARM GAS  C:\Users\ADMINI~1\AppData\Local\Temp\ccjTNAQQ.s 			page 49


 1068              		.cfi_def_cfa_offset 8
 1069              		.cfi_offset 3, -8
 1070              		.cfi_offset 14, -4
 1071 0006 0C28     		cmp	r0, #12
 1072 0008 03D8     		bhi	.L129
 1073 000a 044B     		ldr	r3, .L130
 1074 000c 8000     		lsl	r0, r0, #2
 1075 000e C058     		ldr	r0, [r0, r3]
 1076 0010 00E0     		b	.L128
 1077              	.L129:
 1078              		.loc 1 1624 0
 1079 0012 0348     		ldr	r0, .L130+4
 1080              	.L128:
 1081              	.LVL91:
1625:.\20648_driver\drivers/inv_mems_base_control.c ****     inv_error_t result = INV_SUCCESS;
1626:.\20648_driver\drivers/inv_mems_base_control.c ****     int accel_gain = 15252014L; //set 225Hz gain as default
1627:.\20648_driver\drivers/inv_mems_base_control.c **** 
1628:.\20648_driver\drivers/inv_mems_base_control.c ****     switch (hw_smplrt_divider) {
1629:.\20648_driver\drivers/inv_mems_base_control.c ****         case 5:     //1125Hz/5 = 225Hz
1630:.\20648_driver\drivers/inv_mems_base_control.c ****             accel_gain = 15252014L;
1631:.\20648_driver\drivers/inv_mems_base_control.c ****             break;
1632:.\20648_driver\drivers/inv_mems_base_control.c ****         case 10:    //1125Hz/10 = 112Hz
1633:.\20648_driver\drivers/inv_mems_base_control.c ****             accel_gain = 30504029L;
1634:.\20648_driver\drivers/inv_mems_base_control.c ****             break;
1635:.\20648_driver\drivers/inv_mems_base_control.c ****         case 11:    //1125Hz/11 = 102Hz
1636:.\20648_driver\drivers/inv_mems_base_control.c ****             accel_gain = 33554432L;
1637:.\20648_driver\drivers/inv_mems_base_control.c ****             break;
1638:.\20648_driver\drivers/inv_mems_base_control.c ****         case 22:    //1125Hz/22 = 51Hz
1639:.\20648_driver\drivers/inv_mems_base_control.c ****             accel_gain = 67108864L;
1640:.\20648_driver\drivers/inv_mems_base_control.c ****             break;
1641:.\20648_driver\drivers/inv_mems_base_control.c ****         default:
1642:.\20648_driver\drivers/inv_mems_base_control.c ****             accel_gain = 15252014L;
1643:.\20648_driver\drivers/inv_mems_base_control.c ****             break;
1644:.\20648_driver\drivers/inv_mems_base_control.c ****     }
1645:.\20648_driver\drivers/inv_mems_base_control.c **** 
1646:.\20648_driver\drivers/inv_mems_base_control.c ****     result = dmp_set_accel_feedback_gain(accel_gain);
 1082              		.loc 1 1646 0
 1083 0014 FFF7FEFF 		bl	dmp_set_accel_feedback_gain
 1084              	.LVL92:
1647:.\20648_driver\drivers/inv_mems_base_control.c **** 
1648:.\20648_driver\drivers/inv_mems_base_control.c ****     return result;
1649:.\20648_driver\drivers/inv_mems_base_control.c **** }
 1085              		.loc 1 1649 0
 1086              		@ sp needed
 1087 0018 08BD     		pop	{r3, pc}
 1088              	.L131:
 1089 001a C046     		.align	2
 1090              	.L130:
 1091 001c 00000000 		.word	.LANCHOR2
 1092 0020 2EBAE800 		.word	15252014
 1093              		.cfi_endproc
 1094              	.LFE23:
 1095              		.size	inv_set_accel_quaternion_gain, .-inv_set_accel_quaternion_gain
 1096              		.section	.text.inv_set_accel_cal_params,"ax",%progbits
 1097              		.align	1
 1098              		.global	inv_set_accel_cal_params
 1099              		.code	16
ARM GAS  C:\Users\ADMINI~1\AppData\Local\Temp\ccjTNAQQ.s 			page 50


 1100              		.thumb_func
 1101              		.type	inv_set_accel_cal_params, %function
 1102              	inv_set_accel_cal_params:
 1103              	.LFB24:
1650:.\20648_driver\drivers/inv_mems_base_control.c **** 
1651:.\20648_driver\drivers/inv_mems_base_control.c **** inv_error_t inv_set_accel_cal_params(unsigned short hw_smplrt_divider)
1652:.\20648_driver\drivers/inv_mems_base_control.c **** {
 1104              		.loc 1 1652 0
 1105              		.cfi_startproc
 1106              	.LVL93:
 1107 0000 1FB5     		push	{r0, r1, r2, r3, r4, lr}
 1108              		.cfi_def_cfa_offset 24
 1109              		.cfi_offset 0, -24
 1110              		.cfi_offset 1, -20
 1111              		.cfi_offset 2, -16
 1112              		.cfi_offset 3, -12
 1113              		.cfi_offset 4, -8
 1114              		.cfi_offset 14, -4
 1115              		.loc 1 1652 0
 1116 0002 041C     		mov	r4, r0
1653:.\20648_driver\drivers/inv_mems_base_control.c ****     inv_error_t result = INV_SUCCESS;
1654:.\20648_driver\drivers/inv_mems_base_control.c ****     int accel_cal_params[NUM_ACCEL_CAL_PARAMS] = {0};
 1117              		.loc 1 1654 0
 1118 0004 0021     		mov	r1, #0
 1119 0006 01A8     		add	r0, sp, #4
 1120              	.LVL94:
 1121 0008 0C22     		mov	r2, #12
 1122 000a FFF7FEFF 		bl	memset
 1123              	.LVL95:
1655:.\20648_driver\drivers/inv_mems_base_control.c **** 
1656:.\20648_driver\drivers/inv_mems_base_control.c ****     if (hw_smplrt_divider <= 5) { // freq = 225Hz
 1124              		.loc 1 1656 0
 1125 000e 052C     		cmp	r4, #5
 1126 0010 03D8     		bhi	.L133
1657:.\20648_driver\drivers/inv_mems_base_control.c ****         accel_cal_params[ACCEL_CAL_ALPHA_VAR] = 1026019965L;
 1127              		.loc 1 1657 0
 1128 0012 184B     		ldr	r3, .L141
 1129 0014 0193     		str	r3, [sp, #4]
1658:.\20648_driver\drivers/inv_mems_base_control.c ****         accel_cal_params[ACCEL_CAL_A_VAR] = 47721859L;
 1130              		.loc 1 1658 0
 1131 0016 184B     		ldr	r3, .L141+4
 1132 0018 25E0     		b	.L140
 1133              	.L133:
1659:.\20648_driver\drivers/inv_mems_base_control.c ****     } else if (hw_smplrt_divider <= 10) { // 225Hz > freq >= 112Hz
 1134              		.loc 1 1659 0
 1135 001a 0A2C     		cmp	r4, #10
 1136 001c 03D8     		bhi	.L135
1660:.\20648_driver\drivers/inv_mems_base_control.c ****         accel_cal_params[ACCEL_CAL_ALPHA_VAR] = 977872018L;
 1137              		.loc 1 1660 0
 1138 001e 174B     		ldr	r3, .L141+8
 1139 0020 0193     		str	r3, [sp, #4]
1661:.\20648_driver\drivers/inv_mems_base_control.c ****         accel_cal_params[ACCEL_CAL_A_VAR] = 95869806L;
 1140              		.loc 1 1661 0
 1141 0022 174B     		ldr	r3, .L141+12
 1142 0024 1FE0     		b	.L140
 1143              	.L135:
1662:.\20648_driver\drivers/inv_mems_base_control.c ****     } else if (hw_smplrt_divider <= 11) { // 112Hz > freq >= 102Hz
ARM GAS  C:\Users\ADMINI~1\AppData\Local\Temp\ccjTNAQQ.s 			page 51


 1144              		.loc 1 1662 0
 1145 0026 0B2C     		cmp	r4, #11
 1146 0028 06D1     		bne	.L136
1663:.\20648_driver\drivers/inv_mems_base_control.c ****         accel_cal_params[ACCEL_CAL_ALPHA_VAR] = 858993459L;
 1147              		.loc 1 1663 0
 1148 002a 164B     		ldr	r3, .L141+16
 1149 002c 0193     		str	r3, [sp, #4]
1664:.\20648_driver\drivers/inv_mems_base_control.c ****         accel_cal_params[ACCEL_CAL_A_VAR] = 214748365L;
 1150              		.loc 1 1664 0
 1151 002e 164B     		ldr	r3, .L141+20
 1152 0030 0293     		str	r3, [sp, #8]
1665:.\20648_driver\drivers/inv_mems_base_control.c ****         accel_cal_params[ACCEL_CAL_DIV] = 1;
 1153              		.loc 1 1665 0
 1154 0032 0123     		mov	r3, #1
 1155 0034 0393     		str	r3, [sp, #12]
 1156 0036 17E0     		b	.L134
 1157              	.L136:
1666:.\20648_driver\drivers/inv_mems_base_control.c ****     } else if (hw_smplrt_divider <= 20) { // 102Hz > freq >= 56Hz
 1158              		.loc 1 1666 0
 1159 0038 142C     		cmp	r4, #20
 1160 003a 03D8     		bhi	.L137
1667:.\20648_driver\drivers/inv_mems_base_control.c ****         accel_cal_params[ACCEL_CAL_ALPHA_VAR] = 882002213L;
 1161              		.loc 1 1667 0
 1162 003c 134B     		ldr	r3, .L141+24
 1163 003e 0193     		str	r3, [sp, #4]
1668:.\20648_driver\drivers/inv_mems_base_control.c ****         accel_cal_params[ACCEL_CAL_A_VAR] = 191739611L;
 1164              		.loc 1 1668 0
 1165 0040 134B     		ldr	r3, .L141+28
 1166 0042 10E0     		b	.L140
 1167              	.L137:
1669:.\20648_driver\drivers/inv_mems_base_control.c ****     } else if (hw_smplrt_divider <= 22) { // 56Hz > freq >= 51Hz
 1168              		.loc 1 1669 0
 1169 0044 162C     		cmp	r4, #22
 1170 0046 03D8     		bhi	.L138
1670:.\20648_driver\drivers/inv_mems_base_control.c ****         accel_cal_params[ACCEL_CAL_ALPHA_VAR] = 858993459L;
 1171              		.loc 1 1670 0
 1172 0048 0E4B     		ldr	r3, .L141+16
 1173 004a 0193     		str	r3, [sp, #4]
1671:.\20648_driver\drivers/inv_mems_base_control.c ****         accel_cal_params[ACCEL_CAL_A_VAR] = 214748365L;
 1174              		.loc 1 1671 0
 1175 004c 0E4B     		ldr	r3, .L141+20
 1176 004e 0AE0     		b	.L140
 1177              	.L138:
1672:.\20648_driver\drivers/inv_mems_base_control.c ****     } else if (hw_smplrt_divider <= 75) { // 51Hz > freq >= 15Hz
 1178              		.loc 1 1672 0
 1179 0050 4B2C     		cmp	r4, #75
 1180 0052 03D8     		bhi	.L139
1673:.\20648_driver\drivers/inv_mems_base_control.c ****         accel_cal_params[ACCEL_CAL_ALPHA_VAR] = 357913941L;
 1181              		.loc 1 1673 0
 1182 0054 0F4B     		ldr	r3, .L141+32
 1183 0056 0193     		str	r3, [sp, #4]
1674:.\20648_driver\drivers/inv_mems_base_control.c ****         accel_cal_params[ACCEL_CAL_A_VAR] = 715827883L;
 1184              		.loc 1 1674 0
 1185 0058 0F4B     		ldr	r3, .L141+36
 1186 005a 04E0     		b	.L140
 1187              	.L139:
1675:.\20648_driver\drivers/inv_mems_base_control.c ****     } else if (hw_smplrt_divider <= 225) { // 15Hz > freq >= 5Hz
ARM GAS  C:\Users\ADMINI~1\AppData\Local\Temp\ccjTNAQQ.s 			page 52


 1188              		.loc 1 1675 0
 1189 005c E12C     		cmp	r4, #225
 1190 005e 03D8     		bhi	.L134
1676:.\20648_driver\drivers/inv_mems_base_control.c ****         accel_cal_params[ACCEL_CAL_ALPHA_VAR] = 107374182L;
 1191              		.loc 1 1676 0
 1192 0060 0E4B     		ldr	r3, .L141+40
 1193 0062 0193     		str	r3, [sp, #4]
1677:.\20648_driver\drivers/inv_mems_base_control.c ****         accel_cal_params[ACCEL_CAL_A_VAR] = 966367642L;
 1194              		.loc 1 1677 0
 1195 0064 0E4B     		ldr	r3, .L141+44
 1196              	.L140:
 1197 0066 0293     		str	r3, [sp, #8]
 1198              	.L134:
1678:.\20648_driver\drivers/inv_mems_base_control.c ****     }
1679:.\20648_driver\drivers/inv_mems_base_control.c **** 
1680:.\20648_driver\drivers/inv_mems_base_control.c ****     result = dmp_set_accel_cal_params(accel_cal_params);
 1199              		.loc 1 1680 0
 1200 0068 01A8     		add	r0, sp, #4
 1201 006a FFF7FEFF 		bl	dmp_set_accel_cal_params
 1202              	.LVL96:
1681:.\20648_driver\drivers/inv_mems_base_control.c **** 
1682:.\20648_driver\drivers/inv_mems_base_control.c ****     return result;
1683:.\20648_driver\drivers/inv_mems_base_control.c **** }
 1203              		.loc 1 1683 0
 1204 006e 04B0     		add	sp, sp, #16
 1205              		@ sp needed
 1206 0070 10BD     		pop	{r4, pc}
 1207              	.L142:
 1208 0072 C046     		.align	2
 1209              	.L141:
 1210 0074 7DD2273D 		.word	1026019965
 1211 0078 832DD802 		.word	47721859
 1212 007c 9224493A 		.word	977872018
 1213 0080 6EDBB605 		.word	95869806
 1214 0084 33333333 		.word	858993459
 1215 0088 CDCCCC0C 		.word	214748365
 1216 008c 25499234 		.word	882002213
 1217 0090 DBB66D0B 		.word	191739611
 1218 0094 55555515 		.word	357913941
 1219 0098 ABAAAA2A 		.word	715827883
 1220 009c 66666606 		.word	107374182
 1221 00a0 9A999939 		.word	966367642
 1222              		.cfi_endproc
 1223              	.LFE24:
 1224              		.size	inv_set_accel_cal_params, .-inv_set_accel_cal_params
 1225              		.section	.text.inv_set_hw_smplrt_dmp_odrs,"ax",%progbits
 1226              		.align	1
 1227              		.global	inv_set_hw_smplrt_dmp_odrs
 1228              		.code	16
 1229              		.thumb_func
 1230              		.type	inv_set_hw_smplrt_dmp_odrs, %function
 1231              	inv_set_hw_smplrt_dmp_odrs:
 1232              	.LFB6:
 489:.\20648_driver\drivers/inv_mems_base_control.c ****     inv_error_t result = 0;
 1233              		.loc 1 489 0
 1234              		.cfi_startproc
 1235              	.LVL97:
ARM GAS  C:\Users\ADMINI~1\AppData\Local\Temp\ccjTNAQQ.s 			page 53


 1236 0000 F7B5     		push	{r0, r1, r2, r4, r5, r6, r7, lr}
 1237              		.cfi_def_cfa_offset 32
 1238              		.cfi_offset 0, -32
 1239              		.cfi_offset 1, -28
 1240              		.cfi_offset 2, -24
 1241              		.cfi_offset 4, -20
 1242              		.cfi_offset 5, -16
 1243              		.cfi_offset 6, -12
 1244              		.cfi_offset 7, -8
 1245              		.cfi_offset 14, -4
 1246              	.LBB52:
 1247              	.LBB53:
 415:.\20648_driver\drivers/inv_mems_base_control.c **** 
 1248              		.loc 1 415 0
 1249 0002 844D     		ldr	r5, .L194
 1250 0004 1421     		mov	r1, #20
 1251 0006 281C     		mov	r0, r5
 1252 0008 3430     		add	r0, r0, #52
 1253 000a FFF7FEFF 		bl	MinDelayGenActual
 1254              	.LVL98:
 418:.\20648_driver\drivers/inv_mems_base_control.c **** #endif
 1255              		.loc 1 418 0
 1256 000e 824F     		ldr	r7, .L194+4
 415:.\20648_driver\drivers/inv_mems_base_control.c **** 
 1257              		.loc 1 415 0
 1258 0010 041C     		mov	r4, r0
 1259              	.LVL99:
 418:.\20648_driver\drivers/inv_mems_base_control.c **** #endif
 1260              		.loc 1 418 0
 1261 0012 3B1C     		mov	r3, r7
 1262 0014 5633     		add	r3, r3, #86
 1263 0016 1B88     		ldrh	r3, [r3]
 1264 0018 0195     		str	r5, [sp, #4]
 1265 001a 002B     		cmp	r3, #0
 1266 001c 06D0     		beq	.L144
 1267 001e 7F4B     		ldr	r3, .L194+8
 1268 0020 041C     		add	r4, r0, #0
 1269 0022 5B8B     		ldrh	r3, [r3, #26]
 1270 0024 9842     		cmp	r0, r3
 1271 0026 00D9     		bls	.L145
 1272 0028 1C1C     		add	r4, r3, #0
 1273              	.L145:
 1274 002a A4B2     		uxth	r4, r4
 1275              	.LVL100:
 1276              	.L144:
 420:.\20648_driver\drivers/inv_mems_base_control.c ****     if	(b2s_status != 0)           lMinOdr	=	min	(	lMinOdr, inv_dmp_odr_delays	[INV_SENSOR_BRING_TO
 1277              		.loc 1 420 0
 1278 002c 3B1C     		mov	r3, r7
 1279 002e 5E33     		add	r3, r3, #94
 1280 0030 1B88     		ldrh	r3, [r3]
 1281 0032 002B     		cmp	r3, #0
 1282 0034 06D0     		beq	.L146
 1283 0036 794B     		ldr	r3, .L194+8
 1284 0038 9A8B     		ldrh	r2, [r3, #28]
 1285 003a 231C     		add	r3, r4, #0
 1286 003c 9442     		cmp	r4, r2
 1287 003e 00D9     		bls	.L147
ARM GAS  C:\Users\ADMINI~1\AppData\Local\Temp\ccjTNAQQ.s 			page 54


 1288 0040 131C     		add	r3, r2, #0
 1289              	.L147:
 1290 0042 9CB2     		uxth	r4, r3
 1291              	.LVL101:
 1292              	.L146:
 421:.\20648_driver\drivers/inv_mems_base_control.c **** 	
 1293              		.loc 1 421 0
 1294 0044 3B1C     		mov	r3, r7
 1295 0046 6033     		add	r3, r3, #96
 1296 0048 1B88     		ldrh	r3, [r3]
 1297 004a 002B     		cmp	r3, #0
 1298 004c 06D0     		beq	.L148
 1299 004e 734B     		ldr	r3, .L194+8
 1300 0050 DA8B     		ldrh	r2, [r3, #30]
 1301 0052 231C     		add	r3, r4, #0
 1302 0054 9442     		cmp	r4, r2
 1303 0056 00D9     		bls	.L149
 1304 0058 131C     		add	r3, r2, #0
 1305              	.L149:
 1306 005a 9CB2     		uxth	r4, r3
 1307              	.LVL102:
 1308              	.L148:
 426:.\20648_driver\drivers/inv_mems_base_control.c ****                                     lMinOdr	=	min	(	lMinOdr, 5	 );
 1309              		.loc 1 426 0
 1310 005c 3B6D     		ldr	r3, [r7, #80]
 1311 005e 1B06     		lsl	r3, r3, #24
 1312 0060 02D4     		bmi	.L150
 1313              	.LVL103:
 1314 0062 FB6C     		ldr	r3, [r7, #76]
 1315 0064 DB02     		lsl	r3, r3, #11
 1316 0066 04D5     		bpl	.L151
 1317              	.LVL104:
 1318              	.L150:
 427:.\20648_driver\drivers/inv_mems_base_control.c **** 	/** To have correct algorithm performance and quick convergence of RV, it is advised to set accele
 1319              		.loc 1 427 0
 1320 0068 231C     		add	r3, r4, #0
 1321 006a 052C     		cmp	r4, #5
 1322 006c 00D9     		bls	.L152
 1323              	.LVL105:
 1324 006e 0523     		mov	r3, #5
 1325              	.LVL106:
 1326              	.L152:
 1327 0070 9CB2     		uxth	r4, r3
 1328              	.LVL107:
 1329              	.L151:
 1330 0072 6B4D     		ldr	r5, .L194+12
 1331 0074 FB6C     		ldr	r3, [r7, #76]
 1332 0076 1D40     		and	r5, r3
 430:.\20648_driver\drivers/inv_mems_base_control.c ****                                     lMinOdr	=	min	(	lMinOdr, 5	 );
 1333              		.loc 1 430 0
 1334 0078 04D0     		beq	.L153
 431:.\20648_driver\drivers/inv_mems_base_control.c **** #endif
 1335              		.loc 1 431 0
 1336 007a 231C     		add	r3, r4, #0
 1337 007c 052C     		cmp	r4, #5
 1338 007e 00D9     		bls	.L154
 1339 0080 0523     		mov	r3, #5
ARM GAS  C:\Users\ADMINI~1\AppData\Local\Temp\ccjTNAQQ.s 			page 55


 1340              	.L154:
 1341 0082 9CB2     		uxth	r4, r3
 1342              	.LVL108:
 1343              	.L153:
 1344              	.LBE53:
 1345              	.LBE52:
 1346              	.LBB54:
 1347              	.LBB55:
 442:.\20648_driver\drivers/inv_mems_base_control.c **** #if (MEMS_CHIP == HW_ICM30630)
 1348              		.loc 1 442 0
 1349 0084 0198     		ldr	r0, [sp, #4]
 1350 0086 0E21     		mov	r1, #14
 1351 0088 5C30     		add	r0, r0, #92
 1352 008a FFF7FEFF 		bl	MinDelayGenActual
 1353              	.LVL109:
 1354 008e 061C     		mov	r6, r0
 1355              	.LVL110:
 451:.\20648_driver\drivers/inv_mems_base_control.c ****                                     lMinOdr	=	min	(	lMinOdr, 5	 );
 1356              		.loc 1 451 0
 1357 0090 002D     		cmp	r5, #0
 1358 0092 04D0     		beq	.L155
 452:.\20648_driver\drivers/inv_mems_base_control.c **** #endif
 1359              		.loc 1 452 0
 1360 0094 061C     		add	r6, r0, #0
 1361 0096 0528     		cmp	r0, #5
 1362 0098 00D9     		bls	.L156
 1363 009a 0526     		mov	r6, #5
 1364              	.L156:
 1365 009c B6B2     		uxth	r6, r6
 1366              	.LVL111:
 1367              	.L155:
 1368              	.LBE55:
 1369              	.LBE54:
 517:.\20648_driver\drivers/inv_mems_base_control.c **** #if defined MEMS_SECONDARY_DEVICE
 1370              		.loc 1 517 0
 1371 009e 331C     		add	r3, r6, #0
 1372 00a0 A642     		cmp	r6, r4
 1373 00a2 00D9     		bls	.L157
 1374 00a4 231C     		add	r3, r4, #0
 1375              	.L157:
 523:.\20648_driver\drivers/inv_mems_base_control.c ****     if (minDly_gyro  != 0xFFFF)	        minDly_gyro  = minDly;
 1376              		.loc 1 523 0
 1377 00a6 5F4A     		ldr	r2, .L194+16
 517:.\20648_driver\drivers/inv_mems_base_control.c **** #if defined MEMS_SECONDARY_DEVICE
 1378              		.loc 1 517 0
 1379 00a8 9BB2     		uxth	r3, r3
 1380              	.LVL112:
 523:.\20648_driver\drivers/inv_mems_base_control.c ****     if (minDly_gyro  != 0xFFFF)	        minDly_gyro  = minDly;
 1381              		.loc 1 523 0
 1382 00aa 9442     		cmp	r4, r2
 1383 00ac 00D1     		bne	.LCB1348
 1384 00ae ACE0     		b	.L158	@long jump
 1385              	.LCB1348:
 1386              	.LVL113:
 524:.\20648_driver\drivers/inv_mems_base_control.c **** #if defined MEMS_SECONDARY_DEVICE
 1387              		.loc 1 524 0
 1388 00b0 9642     		cmp	r6, r2
ARM GAS  C:\Users\ADMINI~1\AppData\Local\Temp\ccjTNAQQ.s 			page 56


 1389 00b2 00D1     		bne	.LCB1351
 1390 00b4 A4E0     		b	.L159	@long jump
 1391              	.LCB1351:
 1392              	.LVL114:
 490:.\20648_driver\drivers/inv_mems_base_control.c **** 
 1393              		.loc 1 490 0
 1394 00b6 0025     		mov	r5, #0
 534:.\20648_driver\drivers/inv_mems_base_control.c **** 	{
 1395              		.loc 1 534 0
 1396 00b8 9342     		cmp	r3, r2
 1397 00ba 00D1     		bne	.LCB1356
 1398 00bc A8E0     		b	.L179	@long jump
 1399              	.LCB1356:
 1400 00be 1E1C     		mov	r6, r3
 1401              	.LVL115:
 1402              	.L167:
 1403              	.LBB56:
 1404              	.LBB57:
 1405              	.LBB58:
 404:.\20648_driver\drivers/inv_mems_base_control.c ****     return			Delay * 1125L / 1000L;      // a divider from 1125Hz.
 1406              		.loc 1 404 0
 1407 00c0 181C     		add	r0, r3, #0
 1408 00c2 C82B     		cmp	r3, #200
 1409 00c4 00D9     		bls	.L161
 1410 00c6 C820     		mov	r0, #200
 1411              	.L161:
 405:.\20648_driver\drivers/inv_mems_base_control.c **** }	//	end of SampleRateDividerGet()
 1412              		.loc 1 405 0
 1413 00c8 FA21     		mov	r1, #250
 1414 00ca 574B     		ldr	r3, .L194+20
 1415              	.LVL116:
 1416 00cc 80B2     		uxth	r0, r0
 1417 00ce 5843     		mul	r0, r3
 1418 00d0 8900     		lsl	r1, r1, #2
 1419 00d2 FFF7FEFF 		bl	__aeabi_idiv
 1420              	.LVL117:
 1421              	.LBE58:
 1422              	.LBE57:
 540:.\20648_driver\drivers/inv_mems_base_control.c **** 		{
 1423              		.loc 1 540 0
 1424 00d6 514B     		ldr	r3, .L194+8
 1425              	.LBB60:
 1426              	.LBB59:
 405:.\20648_driver\drivers/inv_mems_base_control.c **** }	//	end of SampleRateDividerGet()
 1427              		.loc 1 405 0
 1428 00d8 84B2     		uxth	r4, r0
 1429              	.LVL118:
 1430              	.LBE59:
 1431              	.LBE60:
 540:.\20648_driver\drivers/inv_mems_base_control.c **** 		{
 1432              		.loc 1 540 0
 1433 00da 4A33     		add	r3, r3, #74
 1434 00dc 0093     		str	r3, [sp]
 1435 00de 1B88     		ldrh	r3, [r3]
 1436              	.LBE56:
 490:.\20648_driver\drivers/inv_mems_base_control.c **** 
 1437              		.loc 1 490 0
ARM GAS  C:\Users\ADMINI~1\AppData\Local\Temp\ccjTNAQQ.s 			page 57


 1438 00e0 0025     		mov	r5, #0
 1439              	.LBB64:
 540:.\20648_driver\drivers/inv_mems_base_control.c **** 		{
 1440              		.loc 1 540 0
 1441 00e2 A342     		cmp	r3, r4
 1442 00e4 0ED0     		beq	.L162
 542:.\20648_driver\drivers/inv_mems_base_control.c **** 			result	|=	inv_set_accel_cal_params		(hw_smplrt_divider);
 1443              		.loc 1 542 0
 1444 00e6 201C     		mov	r0, r4
 1445 00e8 FFF7FEFF 		bl	inv_set_accel_quaternion_gain
 1446              	.LVL119:
 1447 00ec 051C     		mov	r5, r0
 1448              	.LVL120:
 543:.\20648_driver\drivers/inv_mems_base_control.c **** 			result	|=	inv_set_accel_divider			(hw_smplrt_divider - 1);
 1449              		.loc 1 543 0
 1450 00ee 201C     		mov	r0, r4
 1451              	.LVL121:
 1452 00f0 FFF7FEFF 		bl	inv_set_accel_cal_params
 1453              	.LVL122:
 1454 00f4 0543     		orr	r5, r0
 1455              	.LVL123:
 544:.\20648_driver\drivers/inv_mems_base_control.c **** 			lLastHwSmplrtDivider = hw_smplrt_divider;
 1456              		.loc 1 544 0
 1457 00f6 601E     		sub	r0, r4, #1
 1458 00f8 00B2     		sxth	r0, r0
 1459 00fa FFF7FEFF 		bl	inv_set_accel_divider
 1460              	.LVL124:
 545:.\20648_driver\drivers/inv_mems_base_control.c **** 		}
 1461              		.loc 1 545 0
 1462 00fe 009B     		ldr	r3, [sp]
 544:.\20648_driver\drivers/inv_mems_base_control.c **** 			lLastHwSmplrtDivider = hw_smplrt_divider;
 1463              		.loc 1 544 0
 1464 0100 0543     		orr	r5, r0
 1465              	.LVL125:
 545:.\20648_driver\drivers/inv_mems_base_control.c **** 		}
 1466              		.loc 1 545 0
 1467 0102 1C80     		strh	r4, [r3]
 1468              	.LVL126:
 1469              	.L162:
 548:.\20648_driver\drivers/inv_mems_base_control.c **** 		result			|=	DividerRateSet	(MinDelayGen		(MinDelayGenAccel3List), hw_smplrt_divider, INV_SENSOR_G
 1470              		.loc 1 548 0
 1471 0104 0198     		ldr	r0, [sp, #4]
 1472 0106 0421     		mov	r1, #4
 1473 0108 7830     		add	r0, r0, #120
 1474 010a FFF7FEFF 		bl	MinDelayGenActual
 1475              	.LVL127:
 1476 010e 0022     		mov	r2, #0
 1477 0110 211C     		mov	r1, r4
 1478 0112 FFF7FEFF 		bl	DividerRateSet
 1479              	.LVL128:
 1480 0116 2843     		orr	r0, r5
 549:.\20648_driver\drivers/inv_mems_base_control.c **** 	
 1481              		.loc 1 549 0
 1482 0118 444D     		ldr	r5, .L194+24
 1483              	.LVL129:
 548:.\20648_driver\drivers/inv_mems_base_control.c **** 		result			|=	DividerRateSet	(MinDelayGen		(MinDelayGenAccel3List), hw_smplrt_divider, INV_SENSOR_G
 1484              		.loc 1 548 0
ARM GAS  C:\Users\ADMINI~1\AppData\Local\Temp\ccjTNAQQ.s 			page 58


 1485 011a 0090     		str	r0, [sp]
 1486              	.LVL130:
 549:.\20648_driver\drivers/inv_mems_base_control.c **** 	
 1487              		.loc 1 549 0
 1488 011c 0221     		mov	r1, #2
 1489 011e 281C     		mov	r0, r5
 1490              	.LVL131:
 1491 0120 FFF7FEFF 		bl	MinDelayGenActual
 1492              	.LVL132:
 1493 0124 0722     		mov	r2, #7
 1494 0126 211C     		mov	r1, r4
 1495 0128 FFF7FEFF 		bl	DividerRateSet
 1496              	.LVL133:
 1497 012c 009B     		ldr	r3, [sp]
 552:.\20648_driver\drivers/inv_mems_base_control.c **** #endif
 1498              		.loc 1 552 0
 1499 012e 0521     		mov	r1, #5
 549:.\20648_driver\drivers/inv_mems_base_control.c **** 	
 1500              		.loc 1 549 0
 1501 0130 0343     		orr	r3, r0
 552:.\20648_driver\drivers/inv_mems_base_control.c **** #endif
 1502              		.loc 1 552 0
 1503 0132 281D     		add	r0, r5, #4
 549:.\20648_driver\drivers/inv_mems_base_control.c **** 	
 1504              		.loc 1 549 0
 1505 0134 0093     		str	r3, [sp]
 1506              	.LVL134:
 552:.\20648_driver\drivers/inv_mems_base_control.c **** #endif
 1507              		.loc 1 552 0
 1508 0136 FFF7FEFF 		bl	MinDelayGenActual
 1509              	.LVL135:
 1510 013a 0C22     		mov	r2, #12
 1511 013c 211C     		mov	r1, r4
 1512 013e FFF7FEFF 		bl	DividerRateSet
 1513              	.LVL136:
 1514 0142 009B     		ldr	r3, [sp]
 1515              	.LBB61:
 556:.\20648_driver\drivers/inv_mems_base_control.c **** 			if	(bac_status != 0)				lStepCounterMinDly = min(lStepCounterMinDly, inv_dmp_odr_delays[INV_SENS
 1516              		.loc 1 556 0
 1517 0144 0121     		mov	r1, #1
 1518              	.LBE61:
 552:.\20648_driver\drivers/inv_mems_base_control.c **** #endif
 1519              		.loc 1 552 0
 1520 0146 0343     		orr	r3, r0
 1521              	.LBB62:
 556:.\20648_driver\drivers/inv_mems_base_control.c **** 			if	(bac_status != 0)				lStepCounterMinDly = min(lStepCounterMinDly, inv_dmp_odr_delays[INV_SENS
 1522              		.loc 1 556 0
 1523 0148 281C     		mov	r0, r5
 1524 014a 0E30     		add	r0, r0, #14
 1525              	.LBE62:
 552:.\20648_driver\drivers/inv_mems_base_control.c **** #endif
 1526              		.loc 1 552 0
 1527 014c 0093     		str	r3, [sp]
 1528              	.LVL137:
 1529              	.LBB63:
 556:.\20648_driver\drivers/inv_mems_base_control.c **** 			if	(bac_status != 0)				lStepCounterMinDly = min(lStepCounterMinDly, inv_dmp_odr_delays[INV_SENS
 1530              		.loc 1 556 0
ARM GAS  C:\Users\ADMINI~1\AppData\Local\Temp\ccjTNAQQ.s 			page 59


 1531 014e FFF7FEFF 		bl	MinDelayGenActual
 1532              	.LVL138:
 557:.\20648_driver\drivers/inv_mems_base_control.c **** //			if (flip_pickup_status != 0)		lStepCounterMinDly = min(lStepCounterMinDly, inv_dmp_odr_delays[
 1533              		.loc 1 557 0
 1534 0152 5637     		add	r7, r7, #86
 1535 0154 3B88     		ldrh	r3, [r7]
 556:.\20648_driver\drivers/inv_mems_base_control.c **** 			if	(bac_status != 0)				lStepCounterMinDly = min(lStepCounterMinDly, inv_dmp_odr_delays[INV_SENS
 1536              		.loc 1 556 0
 1537 0156 021C     		mov	r2, r0
 1538              	.LVL139:
 557:.\20648_driver\drivers/inv_mems_base_control.c **** //			if (flip_pickup_status != 0)		lStepCounterMinDly = min(lStepCounterMinDly, inv_dmp_odr_delays[
 1539              		.loc 1 557 0
 1540 0158 002B     		cmp	r3, #0
 1541 015a 06D0     		beq	.L163
 557:.\20648_driver\drivers/inv_mems_base_control.c **** //			if (flip_pickup_status != 0)		lStepCounterMinDly = min(lStepCounterMinDly, inv_dmp_odr_delays[
 1542              		.loc 1 557 0 is_stmt 0 discriminator 1
 1543 015c 2F4B     		ldr	r3, .L194+8
 1544 015e 598B     		ldrh	r1, [r3, #26]
 1545 0160 131C     		add	r3, r2, #0
 1546 0162 8A42     		cmp	r2, r1
 1547 0164 00D9     		bls	.L164
 1548 0166 0B1C     		add	r3, r1, #0
 1549              	.L164:
 1550 0168 98B2     		uxth	r0, r3
 1551              	.LVL140:
 1552              	.L163:
 559:.\20648_driver\drivers/inv_mems_base_control.c **** 		}
 1553              		.loc 1 559 0 is_stmt 1
 1554 016a 211C     		mov	r1, r4
 1555 016c 0C22     		mov	r2, #12
 1556 016e FFF7FEFF 		bl	DividerRateSet
 1557              	.LVL141:
 1558 0172 331C     		mov	r3, r6
 1559 0174 009D     		ldr	r5, [sp]
 1560 0176 0543     		orr	r5, r0
 1561              	.LVL142:
 1562              	.L168:
 1563              	.LBE63:
 1564              	.LBE64:
 565:.\20648_driver\drivers/inv_mems_base_control.c **** 		static unsigned short lLastHwSmplrtDivider = 1;
 1565              		.loc 1 565 0
 1566 0178 2A4A     		ldr	r2, .L194+16
 1567 017a 9342     		cmp	r3, r2
 1568 017c 48D0     		beq	.L179
 1569              	.LVL143:
 1570              	.LBB65:
 1571              	.LBB66:
 1572              	.LBB67:
 404:.\20648_driver\drivers/inv_mems_base_control.c ****     return			Delay * 1125L / 1000L;      // a divider from 1125Hz.
 1573              		.loc 1 404 0
 1574 017e 181C     		add	r0, r3, #0
 1575 0180 C82B     		cmp	r3, #200
 1576 0182 00D9     		bls	.L165
 1577 0184 C820     		mov	r0, #200
 1578              	.L165:
 405:.\20648_driver\drivers/inv_mems_base_control.c **** }	//	end of SampleRateDividerGet()
 1579              		.loc 1 405 0
ARM GAS  C:\Users\ADMINI~1\AppData\Local\Temp\ccjTNAQQ.s 			page 60


 1580 0186 FA21     		mov	r1, #250
 1581 0188 274B     		ldr	r3, .L194+20
 1582              	.LVL144:
 1583 018a 80B2     		uxth	r0, r0
 1584 018c 5843     		mul	r0, r3
 1585 018e 8900     		lsl	r1, r1, #2
 1586 0190 FFF7FEFF 		bl	__aeabi_idiv
 1587              	.LVL145:
 1588              	.LBE67:
 1589              	.LBE66:
 569:.\20648_driver\drivers/inv_mems_base_control.c **** 		{
 1590              		.loc 1 569 0
 1591 0194 214E     		ldr	r6, .L194+8
 1592              	.LBB69:
 1593              	.LBB68:
 405:.\20648_driver\drivers/inv_mems_base_control.c **** }	//	end of SampleRateDividerGet()
 1594              		.loc 1 405 0
 1595 0196 84B2     		uxth	r4, r0
 1596              	.LBE68:
 1597              	.LBE69:
 569:.\20648_driver\drivers/inv_mems_base_control.c **** 		{
 1598              		.loc 1 569 0
 1599 0198 4C36     		add	r6, r6, #76
 1600 019a 3388     		ldrh	r3, [r6]
 1601 019c A342     		cmp	r3, r4
 1602 019e 05D0     		beq	.L166
 571:.\20648_driver\drivers/inv_mems_base_control.c **** 			lLastHwSmplrtDivider = hw_smplrt_divider;
 1603              		.loc 1 571 0
 1604 01a0 0138     		sub	r0, r0, #1
 1605 01a2 C0B2     		uxtb	r0, r0
 1606 01a4 FFF7FEFF 		bl	inv_set_gyro_divider
 1607              	.LVL146:
 572:.\20648_driver\drivers/inv_mems_base_control.c **** 		}
 1608              		.loc 1 572 0
 1609 01a8 3480     		strh	r4, [r6]
 571:.\20648_driver\drivers/inv_mems_base_control.c **** 			lLastHwSmplrtDivider = hw_smplrt_divider;
 1610              		.loc 1 571 0
 1611 01aa 0543     		orr	r5, r0
 1612              	.LVL147:
 1613              	.L166:
 575:.\20648_driver\drivers/inv_mems_base_control.c **** 		result			|=	DividerRateSet	(MinDelayGen		(MinDelayGenGyro3List), hw_smplrt_divider, INV_SENSOR_CA
 1614              		.loc 1 575 0
 1615 01ac 1F4E     		ldr	r6, .L194+24
 1616 01ae 0421     		mov	r1, #4
 1617 01b0 301C     		mov	r0, r6
 1618 01b2 1030     		add	r0, r0, #16
 1619 01b4 FFF7FEFF 		bl	MinDelayGenActual
 1620              	.LVL148:
 1621 01b8 0122     		mov	r2, #1
 1622 01ba 211C     		mov	r1, r4
 1623 01bc FFF7FEFF 		bl	DividerRateSet
 1624              	.LVL149:
 1625 01c0 0543     		orr	r5, r0
 1626              	.LVL150:
 576:.\20648_driver\drivers/inv_mems_base_control.c **** #if (MEMS_CHIP == HW_ICM30630)
 1627              		.loc 1 576 0
 1628 01c2 301C     		mov	r0, r6
ARM GAS  C:\Users\ADMINI~1\AppData\Local\Temp\ccjTNAQQ.s 			page 61


 1629 01c4 0221     		mov	r1, #2
 1630 01c6 1830     		add	r0, r0, #24
 1631 01c8 FFF7FEFF 		bl	MinDelayGenActual
 1632              	.LVL151:
 1633 01cc 0A22     		mov	r2, #10
 1634 01ce 211C     		mov	r1, r4
 1635 01d0 FFF7FEFF 		bl	DividerRateSet
 1636              	.LVL152:
 1637 01d4 0543     		orr	r5, r0
 1638              	.LVL153:
 588:.\20648_driver\drivers/inv_mems_base_control.c **** #endif
 1639              		.loc 1 588 0
 1640 01d6 301C     		mov	r0, r6
 1641 01d8 0621     		mov	r1, #6
 1642 01da 1C30     		add	r0, r0, #28
 1643 01dc FFF7FEFF 		bl	MinDelayGenActual
 1644              	.LVL154:
 1645 01e0 0522     		mov	r2, #5
 1646 01e2 211C     		mov	r1, r4
 1647 01e4 FFF7FEFF 		bl	DividerRateSet
 1648              	.LVL155:
 1649 01e8 0543     		orr	r5, r0
 1650              	.LVL156:
 590:.\20648_driver\drivers/inv_mems_base_control.c ****     }
 1651              		.loc 1 590 0
 1652 01ea 301C     		mov	r0, r6
 1653 01ec 0421     		mov	r1, #4
 1654 01ee 2830     		add	r0, r0, #40
 1655 01f0 FFF7FEFF 		bl	MinDelayGenActual
 1656              	.LVL157:
 1657 01f4 211C     		mov	r1, r4
 1658 01f6 0622     		mov	r2, #6
 1659 01f8 FFF7FEFF 		bl	DividerRateSet
 1660              	.LVL158:
 1661 01fc 0543     		orr	r5, r0
 1662              	.LVL159:
 1663 01fe 07E0     		b	.L179
 1664              	.LVL160:
 1665              	.L159:
 1666              	.LBE65:
 490:.\20648_driver\drivers/inv_mems_base_control.c **** 
 1667              		.loc 1 490 0
 1668 0200 0025     		mov	r5, #0
 534:.\20648_driver\drivers/inv_mems_base_control.c **** 	{
 1669              		.loc 1 534 0
 1670 0202 B342     		cmp	r3, r6
 1671 0204 00D0     		beq	.LCB1632
 1672 0206 5BE7     		b	.L167	@long jump
 1673              	.LCB1632:
 1674 0208 02E0     		b	.L179
 1675              	.LVL161:
 1676              	.L158:
 490:.\20648_driver\drivers/inv_mems_base_control.c **** 
 1677              		.loc 1 490 0
 1678 020a 0025     		mov	r5, #0
 524:.\20648_driver\drivers/inv_mems_base_control.c **** #if defined MEMS_SECONDARY_DEVICE
 1679              		.loc 1 524 0
ARM GAS  C:\Users\ADMINI~1\AppData\Local\Temp\ccjTNAQQ.s 			page 62


 1680 020c A642     		cmp	r6, r4
 1681 020e B3D1     		bne	.L168
 1682              	.LVL162:
 1683              	.L179:
 625:.\20648_driver\drivers/inv_mems_base_control.c **** 
 1684              		.loc 1 625 0
 1685 0210 281C     		mov	r0, r5
 1686              		@ sp needed
 1687 0212 FEBD     		pop	{r1, r2, r3, r4, r5, r6, r7, pc}
 1688              	.L195:
 1689              		.align	2
 1690              	.L194:
 1691 0214 00000000 		.word	.LANCHOR2
 1692 0218 00000000 		.word	.LANCHOR0
 1693 021c 00000000 		.word	.LANCHOR1
 1694 0220 00080080 		.word	-2147481600
 1695 0224 FFFF0000 		.word	65535
 1696 0228 65040000 		.word	1125
 1697 022c 80000000 		.word	.LANCHOR3
 1698              		.cfi_endproc
 1699              	.LFE6:
 1700              		.size	inv_set_hw_smplrt_dmp_odrs, .-inv_set_hw_smplrt_dmp_odrs
 1701              		.section	.text.inv_set_odr,"ax",%progbits
 1702              		.align	1
 1703              		.global	inv_set_odr
 1704              		.code	16
 1705              		.thumb_func
 1706              		.type	inv_set_odr, %function
 1707              	inv_set_odr:
 1708              	.LFB7:
 628:.\20648_driver\drivers/inv_mems_base_control.c ****     inv_error_t result;
 1709              		.loc 1 628 0
 1710              		.cfi_startproc
 1711              	.LVL163:
 1712 0000 38B5     		push	{r3, r4, r5, lr}
 1713              		.cfi_def_cfa_offset 16
 1714              		.cfi_offset 3, -16
 1715              		.cfi_offset 4, -12
 1716              		.cfi_offset 5, -8
 1717              		.cfi_offset 14, -4
 628:.\20648_driver\drivers/inv_mems_base_control.c ****     inv_error_t result;
 1718              		.loc 1 628 0
 1719 0002 0C1C     		mov	r4, r1
 1720 0004 051C     		mov	r5, r0
 640:.\20648_driver\drivers/inv_mems_base_control.c ****     
 1721              		.loc 1 640 0
 1722 0006 FFF7FEFF 		bl	inv_mems_prevent_lpen_control
 1723              	.LVL164:
 642:.\20648_driver\drivers/inv_mems_base_control.c ****     if (delayInMs > 1000) delayInMs = 1000;     // 1Hz / 1000ms
 1724              		.loc 1 642 0
 1725 000a 002C     		cmp	r4, #0
 1726 000c 05D0     		beq	.L227
 1727              	.LVL165:
 643:.\20648_driver\drivers/inv_mems_base_control.c ****     switch (androidSensor) {
 1728              		.loc 1 643 0
 1729 000e FA23     		mov	r3, #250
 1730 0010 9B00     		lsl	r3, r3, #2
ARM GAS  C:\Users\ADMINI~1\AppData\Local\Temp\ccjTNAQQ.s 			page 63


 1731 0012 9C42     		cmp	r4, r3
 1732 0014 02D9     		bls	.L198
 1733 0016 1C1C     		mov	r4, r3
 1734              	.LVL166:
 1735 0018 00E0     		b	.L198
 1736              	.LVL167:
 1737              	.L227:
 642:.\20648_driver\drivers/inv_mems_base_control.c ****     if (delayInMs > 1000) delayInMs = 1000;     // 1Hz / 1000ms
 1738              		.loc 1 642 0
 1739 001a 0124     		mov	r4, #1
 1740              	.LVL168:
 1741              	.L198:
 644:.\20648_driver\drivers/inv_mems_base_control.c ****         case ANDROID_SENSOR_ACCELEROMETER:
 1742              		.loc 1 644 0
 1743 001c 681E     		sub	r0, r5, #1
 1744 001e 2C28     		cmp	r0, #44
 1745 0020 6ED8     		bhi	.L199
 1746 0022 FFF7FEFF 		bl	__gnu_thumb1_case_uqi
 1747              	.L201:
 1748 0026 17       		.byte	(.L200-.L201)/2
 1749 0027 35       		.byte	(.L202-.L201)/2
 1750 0028 2D       		.byte	(.L203-.L201)/2
 1751 0029 26       		.byte	(.L204-.L201)/2
 1752 002a 38       		.byte	(.L205-.L201)/2
 1753 002b 65       		.byte	(.L206-.L201)/2
 1754 002c 6D       		.byte	(.L199-.L201)/2
 1755 002d 62       		.byte	(.L207-.L201)/2
 1756 002e 29       		.byte	(.L208-.L201)/2
 1757 002f 29       		.byte	(.L208-.L201)/2
 1758 0030 2D       		.byte	(.L203-.L201)/2
 1759 0031 6D       		.byte	(.L199-.L201)/2
 1760 0032 6D       		.byte	(.L199-.L201)/2
 1761 0033 32       		.byte	(.L209-.L201)/2
 1762 0034 29       		.byte	(.L208-.L201)/2
 1763 0035 23       		.byte	(.L210-.L201)/2
 1764 0036 3E       		.byte	(.L211-.L201)/2
 1765 0037 19       		.byte	(.L212-.L201)/2
 1766 0038 19       		.byte	(.L212-.L201)/2
 1767 0039 1C       		.byte	(.L213-.L201)/2
 1768 003a 6D       		.byte	(.L199-.L201)/2
 1769 003b 38       		.byte	(.L205-.L201)/2
 1770 003c 3B       		.byte	(.L214-.L201)/2
 1771 003d 5F       		.byte	(.L215-.L201)/2
 1772 003e 55       		.byte	(.L216-.L201)/2
 1773 003f 4E       		.byte	(.L217-.L201)/2
 1774 0040 62       		.byte	(.L207-.L201)/2
 1775 0041 68       		.byte	(.L218-.L201)/2
 1776 0042 51       		.byte	(.L219-.L201)/2
 1777 0043 51       		.byte	(.L219-.L201)/2
 1778 0044 55       		.byte	(.L216-.L201)/2
 1779 0045 6D       		.byte	(.L199-.L201)/2
 1780 0046 6D       		.byte	(.L199-.L201)/2
 1781 0047 5C       		.byte	(.L220-.L201)/2
 1782 0048 51       		.byte	(.L219-.L201)/2
 1783 0049 4B       		.byte	(.L221-.L201)/2
 1784 004a 3E       		.byte	(.L211-.L201)/2
 1785 004b 3E       		.byte	(.L211-.L201)/2
ARM GAS  C:\Users\ADMINI~1\AppData\Local\Temp\ccjTNAQQ.s 			page 64


 1786 004c 40       		.byte	(.L222-.L201)/2
 1787 004d 6D       		.byte	(.L199-.L201)/2
 1788 004e 45       		.byte	(.L223-.L201)/2
 1789 004f 6D       		.byte	(.L199-.L201)/2
 1790 0050 48       		.byte	(.L224-.L201)/2
 1791 0051 6B       		.byte	(.L225-.L201)/2
 1792 0052 20       		.byte	(.L226-.L201)/2
 1793 0053 00       		.p2align 1
 1794              	.L200:
 646:.\20648_driver\drivers/inv_mems_base_control.c ****             break;
 1795              		.loc 1 646 0
 1796 0054 334B     		ldr	r3, .L231
 1797 0056 40E0     		b	.L229
 1798              	.L212:
 652:.\20648_driver\drivers/inv_mems_base_control.c ****             break;
 1799              		.loc 1 652 0
 1800 0058 324B     		ldr	r3, .L231
 1801 005a 1C83     		strh	r4, [r3, #24]
 653:.\20648_driver\drivers/inv_mems_base_control.c **** #endif
 1802              		.loc 1 653 0
 1803 005c 50E0     		b	.L199
 1804              	.L213:
 656:.\20648_driver\drivers/inv_mems_base_control.c ****             inv_dmp_odr_delays[INV_SENSOR_GEOMAG_cpass] = delayInMs;
 1805              		.loc 1 656 0
 1806 005e 314B     		ldr	r3, .L231
 1807 0060 DC81     		strh	r4, [r3, #14]
 657:.\20648_driver\drivers/inv_mems_base_control.c ****             break;
 1808              		.loc 1 657 0
 1809 0062 9C84     		strh	r4, [r3, #36]
 658:.\20648_driver\drivers/inv_mems_base_control.c **** 
 1810              		.loc 1 658 0
 1811 0064 4CE0     		b	.L199
 1812              	.L226:
 662:.\20648_driver\drivers/inv_mems_base_control.c ****             break;
 1813              		.loc 1 662 0
 1814 0066 2F4B     		ldr	r3, .L231
 1815 0068 5C83     		strh	r4, [r3, #26]
 663:.\20648_driver\drivers/inv_mems_base_control.c **** #endif
 1816              		.loc 1 663 0
 1817 006a 49E0     		b	.L199
 1818              	.L210:
 666:.\20648_driver\drivers/inv_mems_base_control.c ****             break;
 1819              		.loc 1 666 0
 1820 006c 2D4B     		ldr	r3, .L231
 1821 006e 5C80     		strh	r4, [r3, #2]
 667:.\20648_driver\drivers/inv_mems_base_control.c **** 
 1822              		.loc 1 667 0
 1823 0070 46E0     		b	.L199
 1824              	.L204:
 673:.\20648_driver\drivers/inv_mems_base_control.c ****             break;
 1825              		.loc 1 673 0
 1826 0072 2C4B     		ldr	r3, .L231
 1827 0074 9C82     		strh	r4, [r3, #20]
 674:.\20648_driver\drivers/inv_mems_base_control.c **** 
 1828              		.loc 1 674 0
 1829 0076 43E0     		b	.L199
 1830              	.L208:
ARM GAS  C:\Users\ADMINI~1\AppData\Local\Temp\ccjTNAQQ.s 			page 65


 685:.\20648_driver\drivers/inv_mems_base_control.c ****             inv_dmp_odr_delays[INV_SENSOR_SIXQ_accel] = delayInMs;
 1831              		.loc 1 685 0
 1832 0078 2A4B     		ldr	r3, .L231
 1833 007a 5C81     		strh	r4, [r3, #10]
 686:.\20648_driver\drivers/inv_mems_base_control.c ****             break;
 1834              		.loc 1 686 0
 1835 007c 1C84     		strh	r4, [r3, #32]
 687:.\20648_driver\drivers/inv_mems_base_control.c **** 
 1836              		.loc 1 687 0
 1837 007e 3FE0     		b	.L199
 1838              	.L203:
 697:.\20648_driver\drivers/inv_mems_base_control.c ****             inv_dmp_odr_delays[INV_SENSOR_NINEQ_accel] = delayInMs;
 1839              		.loc 1 697 0
 1840 0080 284B     		ldr	r3, .L231
 1841 0082 9C81     		strh	r4, [r3, #12]
 698:.\20648_driver\drivers/inv_mems_base_control.c ****             inv_dmp_odr_delays[INV_SENSOR_NINEQ_cpass] = delayInMs;
 1842              		.loc 1 698 0
 1843 0084 5C84     		strh	r4, [r3, #34]
 699:.\20648_driver\drivers/inv_mems_base_control.c ****             break;
 1844              		.loc 1 699 0
 1845 0086 DC84     		strh	r4, [r3, #38]
 700:.\20648_driver\drivers/inv_mems_base_control.c **** 
 1846              		.loc 1 700 0
 1847 0088 3AE0     		b	.L199
 1848              	.L209:
 703:.\20648_driver\drivers/inv_mems_base_control.c ****             break;
 1849              		.loc 1 703 0
 1850 008a 264B     		ldr	r3, .L231
 1851 008c DC80     		strh	r4, [r3, #6]
 704:.\20648_driver\drivers/inv_mems_base_control.c **** 
 1852              		.loc 1 704 0
 1853 008e 37E0     		b	.L199
 1854              	.L202:
 707:.\20648_driver\drivers/inv_mems_base_control.c ****             break;
 1855              		.loc 1 707 0
 1856 0090 244B     		ldr	r3, .L231
 1857 0092 DC82     		strh	r4, [r3, #22]
 708:.\20648_driver\drivers/inv_mems_base_control.c **** 
 1858              		.loc 1 708 0
 1859 0094 34E0     		b	.L199
 1860              	.L205:
 712:.\20648_driver\drivers/inv_mems_base_control.c ****             break;
 1861              		.loc 1 712 0
 1862 0096 234B     		ldr	r3, .L231
 1863 0098 1C81     		strh	r4, [r3, #8]
 713:.\20648_driver\drivers/inv_mems_base_control.c **** 
 1864              		.loc 1 713 0
 1865 009a 31E0     		b	.L199
 1866              	.L214:
 716:.\20648_driver\drivers/inv_mems_base_control.c ****             break;
 1867              		.loc 1 716 0
 1868 009c 214B     		ldr	r3, .L231
 1869 009e 1C85     		strh	r4, [r3, #40]
 717:.\20648_driver\drivers/inv_mems_base_control.c **** 
 1870              		.loc 1 717 0
 1871 00a0 2EE0     		b	.L199
 1872              	.L211:
ARM GAS  C:\Users\ADMINI~1\AppData\Local\Temp\ccjTNAQQ.s 			page 66


 723:.\20648_driver\drivers/inv_mems_base_control.c ****             break;
 1873              		.loc 1 723 0
 1874 00a2 204B     		ldr	r3, .L231
 1875 00a4 02E0     		b	.L230
 1876              	.L222:
 727:.\20648_driver\drivers/inv_mems_base_control.c ****             inv_dmp_odr_delays[INV_SENSOR_WAKEUP_GEOMAG_cpass] = delayInMs;
 1877              		.loc 1 727 0
 1878 00a6 1F4B     		ldr	r3, .L231
 1879 00a8 9C86     		strh	r4, [r3, #52]
 728:.\20648_driver\drivers/inv_mems_base_control.c ****             break;
 1880              		.loc 1 728 0
 1881 00aa 0833     		add	r3, r3, #8
 1882              	.L230:
 1883 00ac DC87     		strh	r4, [r3, #62]
 729:.\20648_driver\drivers/inv_mems_base_control.c **** 
 1884              		.loc 1 729 0
 1885 00ae 27E0     		b	.L199
 1886              	.L223:
 733:.\20648_driver\drivers/inv_mems_base_control.c ****             break;
 1887              		.loc 1 733 0
 1888 00b0 1C4B     		ldr	r3, .L231
 1889 00b2 0233     		add	r3, r3, #2
 1890 00b4 FAE7     		b	.L230
 1891              	.L224:
 737:.\20648_driver\drivers/inv_mems_base_control.c ****             break;
 1892              		.loc 1 737 0
 1893 00b6 1B4B     		ldr	r3, .L231
 1894 00b8 DC83     		strh	r4, [r3, #30]
 738:.\20648_driver\drivers/inv_mems_base_control.c **** 
 1895              		.loc 1 738 0
 1896 00ba 21E0     		b	.L199
 1897              	.L221:
 741:.\20648_driver\drivers/inv_mems_base_control.c ****             break;
 1898              		.loc 1 741 0
 1899 00bc 194B     		ldr	r3, .L231
 1900 00be 5C85     		strh	r4, [r3, #42]
 742:.\20648_driver\drivers/inv_mems_base_control.c **** 
 1901              		.loc 1 742 0
 1902 00c0 1EE0     		b	.L199
 1903              	.L217:
 745:.\20648_driver\drivers/inv_mems_base_control.c ****             break;
 1904              		.loc 1 745 0
 1905 00c2 184B     		ldr	r3, .L231
 1906 00c4 5C87     		strh	r4, [r3, #58]
 746:.\20648_driver\drivers/inv_mems_base_control.c **** 
 1907              		.loc 1 746 0
 1908 00c6 1BE0     		b	.L199
 1909              	.L219:
 757:.\20648_driver\drivers/inv_mems_base_control.c ****             inv_dmp_odr_delays[INV_SENSOR_WAKEUP_SIXQ_accel] = delayInMs;
 1910              		.loc 1 757 0
 1911 00c8 164B     		ldr	r3, .L231
 1912 00ca 1C86     		strh	r4, [r3, #48]
 758:.\20648_driver\drivers/inv_mems_base_control.c ****             break;
 1913              		.loc 1 758 0
 1914 00cc 0433     		add	r3, r3, #4
 1915 00ce EDE7     		b	.L230
 1916              	.L216:
ARM GAS  C:\Users\ADMINI~1\AppData\Local\Temp\ccjTNAQQ.s 			page 67


 769:.\20648_driver\drivers/inv_mems_base_control.c ****             inv_dmp_odr_delays[INV_SENSOR_WAKEUP_NINEQ_accel] = delayInMs;
 1917              		.loc 1 769 0
 1918 00d0 144B     		ldr	r3, .L231
 770:.\20648_driver\drivers/inv_mems_base_control.c ****             inv_dmp_odr_delays[INV_SENSOR_WAKEUP_NINEQ_cpass] = delayInMs;
 1919              		.loc 1 770 0
 1920 00d2 9A1D     		add	r2, r3, #6
 769:.\20648_driver\drivers/inv_mems_base_control.c ****             inv_dmp_odr_delays[INV_SENSOR_WAKEUP_NINEQ_accel] = delayInMs;
 1921              		.loc 1 769 0
 1922 00d4 5C86     		strh	r4, [r3, #50]
 770:.\20648_driver\drivers/inv_mems_base_control.c ****             inv_dmp_odr_delays[INV_SENSOR_WAKEUP_NINEQ_cpass] = delayInMs;
 1923              		.loc 1 770 0
 1924 00d6 D487     		strh	r4, [r2, #62]
 771:.\20648_driver\drivers/inv_mems_base_control.c ****             break;
 1925              		.loc 1 771 0
 1926 00d8 4833     		add	r3, r3, #72
 1927              	.L229:
 1928 00da 1C80     		strh	r4, [r3]
 772:.\20648_driver\drivers/inv_mems_base_control.c **** 
 1929              		.loc 1 772 0
 1930 00dc 10E0     		b	.L199
 1931              	.L220:
 775:.\20648_driver\drivers/inv_mems_base_control.c ****             break;
 1932              		.loc 1 775 0
 1933 00de 114B     		ldr	r3, .L231
 1934 00e0 9C85     		strh	r4, [r3, #44]
 776:.\20648_driver\drivers/inv_mems_base_control.c **** 
 1935              		.loc 1 776 0
 1936 00e2 0DE0     		b	.L199
 1937              	.L215:
 779:.\20648_driver\drivers/inv_mems_base_control.c ****             break;
 1938              		.loc 1 779 0
 1939 00e4 0F4B     		ldr	r3, .L231
 1940 00e6 9C87     		strh	r4, [r3, #60]
 780:.\20648_driver\drivers/inv_mems_base_control.c **** 
 1941              		.loc 1 780 0
 1942 00e8 0AE0     		b	.L199
 1943              	.L207:
 784:.\20648_driver\drivers/inv_mems_base_control.c ****             break;
 1944              		.loc 1 784 0
 1945 00ea 0E4B     		ldr	r3, .L231
 1946 00ec DC85     		strh	r4, [r3, #46]
 785:.\20648_driver\drivers/inv_mems_base_control.c **** 
 1947              		.loc 1 785 0
 1948 00ee 07E0     		b	.L199
 1949              	.L206:
 788:.\20648_driver\drivers/inv_mems_base_control.c ****             break;
 1950              		.loc 1 788 0
 1951 00f0 0C4B     		ldr	r3, .L231
 1952 00f2 5C82     		strh	r4, [r3, #18]
 789:.\20648_driver\drivers/inv_mems_base_control.c **** 
 1953              		.loc 1 789 0
 1954 00f4 04E0     		b	.L199
 1955              	.L218:
 792:.\20648_driver\drivers/inv_mems_base_control.c ****             break;
 1956              		.loc 1 792 0
 1957 00f6 0B4B     		ldr	r3, .L231
 1958 00f8 1C87     		strh	r4, [r3, #56]
ARM GAS  C:\Users\ADMINI~1\AppData\Local\Temp\ccjTNAQQ.s 			page 68


 793:.\20648_driver\drivers/inv_mems_base_control.c **** 
 1959              		.loc 1 793 0
 1960 00fa 01E0     		b	.L199
 1961              	.L225:
 796:.\20648_driver\drivers/inv_mems_base_control.c ****             break;
 1962              		.loc 1 796 0
 1963 00fc 094B     		ldr	r3, .L231
 1964 00fe 9C83     		strh	r4, [r3, #28]
 1965              	.L199:
 815:.\20648_driver\drivers/inv_mems_base_control.c ****     result |= inv_set_gyro_sf(inv_get_gyro_divider(), inv_get_gyro_fullscale());
 1966              		.loc 1 815 0
 1967 0100 FFF7FEFF 		bl	inv_set_hw_smplrt_dmp_odrs
 1968              	.LVL169:
 1969 0104 041C     		mov	r4, r0
 1970              	.LVL170:
 816:.\20648_driver\drivers/inv_mems_base_control.c **** 
 1971              		.loc 1 816 0
 1972 0106 FFF7FEFF 		bl	inv_get_gyro_divider
 1973              	.LVL171:
 1974 010a 051C     		mov	r5, r0
 1975 010c FFF7FEFF 		bl	inv_get_gyro_fullscale
 1976              	.LVL172:
 1977 0110 011C     		mov	r1, r0
 1978 0112 281C     		mov	r0, r5
 1979 0114 FFF7FEFF 		bl	inv_set_gyro_sf
 1980              	.LVL173:
 1981 0118 0443     		orr	r4, r0
 1982              	.LVL174:
 827:.\20648_driver\drivers/inv_mems_base_control.c **** 
 1983              		.loc 1 827 0
 1984              		@ sp needed
 825:.\20648_driver\drivers/inv_mems_base_control.c ****     return result;
 1985              		.loc 1 825 0
 1986 011a FFF7FEFF 		bl	inv_mems_allow_lpen_control
 1987              	.LVL175:
 827:.\20648_driver\drivers/inv_mems_base_control.c **** 
 1988              		.loc 1 827 0
 1989 011e 201C     		mov	r0, r4
 1990              	.LVL176:
 1991 0120 38BD     		pop	{r3, r4, r5, pc}
 1992              	.L232:
 1993 0122 C046     		.align	2
 1994              	.L231:
 1995 0124 00000000 		.word	.LANCHOR1
 1996              		.cfi_endproc
 1997              	.LFE7:
 1998              		.size	inv_set_odr, .-inv_set_odr
 1999              		.section	.text.inv_enable_sensor,"ax",%progbits
 2000              		.align	1
 2001              		.global	inv_enable_sensor
 2002              		.code	16
 2003              		.thumb_func
 2004              		.type	inv_enable_sensor, %function
 2005              	inv_enable_sensor:
 2006              	.LFB12:
1093:.\20648_driver\drivers/inv_mems_base_control.c ****     inv_error_t result = 0;
 2007              		.loc 1 1093 0
ARM GAS  C:\Users\ADMINI~1\AppData\Local\Temp\ccjTNAQQ.s 			page 69


 2008              		.cfi_startproc
 2009              	.LVL177:
 2010 0000 F0B5     		push	{r4, r5, r6, r7, lr}
 2011              		.cfi_def_cfa_offset 20
 2012              		.cfi_offset 4, -20
 2013              		.cfi_offset 5, -16
 2014              		.cfi_offset 6, -12
 2015              		.cfi_offset 7, -8
 2016              		.cfi_offset 14, -4
 2017 0002 87B0     		sub	sp, sp, #28
 2018              		.cfi_def_cfa_offset 48
1093:.\20648_driver\drivers/inv_mems_base_control.c ****     inv_error_t result = 0;
 2019              		.loc 1 1093 0
 2020 0004 0E1C     		mov	r6, r1
 2021 0006 071C     		mov	r7, r0
1114:.\20648_driver\drivers/inv_mems_base_control.c **** 	if( mems_put_to_sleep ) {
 2022              		.loc 1 1114 0
 2023 0008 FFF7FEFF 		bl	inv_mems_prevent_lpen_control
 2024              	.LVL178:
 2025 000c 0021     		mov	r1, #0
1115:.\20648_driver\drivers/inv_mems_base_control.c **** 		mems_put_to_sleep = 0;
 2026              		.loc 1 1115 0
 2027 000e 554B     		ldr	r3, .L340
 2028 0010 0291     		str	r1, [sp, #8]
 2029 0012 4E33     		add	r3, r3, #78
 2030 0014 1A78     		ldrb	r2, [r3]
 2031 0016 8A42     		cmp	r2, r1
 2032 0018 05D0     		beq	.L234
1116:.\20648_driver\drivers/inv_mems_base_control.c **** 		result |= inv_wakeup_mems();
 2033              		.loc 1 1116 0
 2034 001a 6A46     		mov	r2, sp
 2035 001c 127A     		ldrb	r2, [r2, #8]
 2036 001e 1A70     		strb	r2, [r3]
1117:.\20648_driver\drivers/inv_mems_base_control.c **** 	}
 2037              		.loc 1 1117 0
 2038 0020 FFF7FEFF 		bl	inv_wakeup_mems
 2039              	.LVL179:
 2040 0024 0290     		str	r0, [sp, #8]
 2041              	.LVL180:
 2042              	.L234:
 2043              	.LBB74:
 2044              	.LBB75:
1215:.\20648_driver\drivers/inv_mems_base_control.c ****     
 2045              		.loc 1 1215 0
 2046 0026 0023     		mov	r3, #0
 2047 0028 4F4D     		ldr	r5, .L340+4
 2048 002a 0593     		str	r3, [sp, #20]
1218:.\20648_driver\drivers/inv_mems_base_control.c ****         if (enable)
 2049              		.loc 1 1218 0
 2050 002c 112F     		cmp	r7, #17
 2051 002e 09D1     		bne	.L235
1219:.\20648_driver\drivers/inv_mems_base_control.c ****             smd_status = INV_SMD_EN;
 2052              		.loc 1 1219 0
 2053 0030 9E42     		cmp	r6, r3
 2054 0032 04D0     		beq	.L236
1220:.\20648_driver\drivers/inv_mems_base_control.c ****         else
 2055              		.loc 1 1220 0
ARM GAS  C:\Users\ADMINI~1\AppData\Local\Temp\ccjTNAQQ.s 			page 70


 2056 0034 2B1C     		mov	r3, r5
 2057 0036 8022     		mov	r2, #128
 2058 0038 6233     		add	r3, r3, #98
 2059 003a 1201     		lsl	r2, r2, #4
 2060 003c 1EE0     		b	.L337
 2061              	.L236:
1222:.\20648_driver\drivers/inv_mems_base_control.c ****     }
 2062              		.loc 1 1222 0
 2063 003e 2B1C     		mov	r3, r5
 2064 0040 6233     		add	r3, r3, #98
 2065 0042 1DE0     		b	.L245
 2066              	.L235:
1225:.\20648_driver\drivers/inv_mems_base_control.c ****         if (enable)
 2067              		.loc 1 1225 0
 2068 0044 122F     		cmp	r7, #18
 2069 0046 06D1     		bne	.L238
1227:.\20648_driver\drivers/inv_mems_base_control.c ****         else
 2070              		.loc 1 1227 0
 2071 0048 2B1C     		mov	r3, r5
 2072 004a 6433     		add	r3, r3, #100
1226:.\20648_driver\drivers/inv_mems_base_control.c ****             ped_int_status = INV_PEDOMETER_INT_EN;
 2073              		.loc 1 1226 0
 2074 004c 002E     		cmp	r6, #0
 2075 004e 17D0     		beq	.L245
1227:.\20648_driver\drivers/inv_mems_base_control.c ****         else
 2076              		.loc 1 1227 0
 2077 0050 8022     		mov	r2, #128
 2078 0052 9201     		lsl	r2, r2, #6
 2079 0054 12E0     		b	.L337
 2080              	.L238:
1234:.\20648_driver\drivers/inv_mems_base_control.c ****       if (enable){          
 2081              		.loc 1 1234 0
 2082 0056 2C2F     		cmp	r7, #44
 2083 0058 09D1     		bne	.L241
1236:.\20648_driver\drivers/inv_mems_base_control.c ****             // 5061-add-call to reset flip pickup parameters here
 2084              		.loc 1 1236 0
 2085 005a 2B1C     		mov	r3, r5
 2086 005c 5E33     		add	r3, r3, #94
1235:.\20648_driver\drivers/inv_mems_base_control.c ****             flip_pickup_status = FLIP_PICKUP_SET;
 2087              		.loc 1 1235 0
 2088 005e 002E     		cmp	r6, #0
 2089 0060 0ED0     		beq	.L245
1236:.\20648_driver\drivers/inv_mems_base_control.c ****             // 5061-add-call to reset flip pickup parameters here
 2090              		.loc 1 1236 0
 2091 0062 8022     		mov	r2, #128
 2092 0064 D200     		lsl	r2, r2, #3
 2093 0066 1A80     		strh	r2, [r3]
1238:.\20648_driver\drivers/inv_mems_base_control.c ****       }
 2094              		.loc 1 1238 0
 2095 0068 FFF7FEFF 		bl	dmp_reset_pickup
 2096              	.LVL181:
 2097 006c 15E0     		b	.L248
 2098              	.L241:
1244:.\20648_driver\drivers/inv_mems_base_control.c ****         if(enable)
 2099              		.loc 1 1244 0
 2100 006e 2B2F     		cmp	r7, #43
 2101 0070 08D1     		bne	.L244
ARM GAS  C:\Users\ADMINI~1\AppData\Local\Temp\ccjTNAQQ.s 			page 71


1246:.\20648_driver\drivers/inv_mems_base_control.c ****         else
 2102              		.loc 1 1246 0
 2103 0072 2B1C     		mov	r3, r5
 2104 0074 6033     		add	r3, r3, #96
1245:.\20648_driver\drivers/inv_mems_base_control.c ****             b2s_status = INV_BTS_EN;
 2105              		.loc 1 1245 0
 2106 0076 002E     		cmp	r6, #0
 2107 0078 02D0     		beq	.L245
1246:.\20648_driver\drivers/inv_mems_base_control.c ****         else
 2108              		.loc 1 1246 0
 2109 007a 2022     		mov	r2, #32
 2110              	.L337:
 2111 007c 1A80     		strh	r2, [r3]
 2112 007e 0CE0     		b	.L248
 2113              	.L245:
1248:.\20648_driver\drivers/inv_mems_base_control.c ****     }
 2114              		.loc 1 1248 0
 2115 0080 1E80     		strh	r6, [r3]
 2116 0082 0AE0     		b	.L248
 2117              	.L244:
1253:.\20648_driver\drivers/inv_mems_base_control.c ****         inv_enable_activity_classifier(enable);
 2118              		.loc 1 1253 0
 2119 0084 2D2F     		cmp	r7, #45
 2120 0086 03D1     		bne	.L247
1254:.\20648_driver\drivers/inv_mems_base_control.c **** 
 2121              		.loc 1 1254 0
 2122 0088 301C     		mov	r0, r6
 2123 008a FFF7FEFF 		bl	inv_enable_activity_classifier
 2124              	.LVL182:
 2125 008e 04E0     		b	.L248
 2126              	.L247:
1256:.\20648_driver\drivers/inv_mems_base_control.c ****         inv_enable_tilt(enable);
 2127              		.loc 1 1256 0
 2128 0090 292F     		cmp	r7, #41
 2129 0092 02D1     		bne	.L248
1257:.\20648_driver\drivers/inv_mems_base_control.c **** #endif
 2130              		.loc 1 1257 0
 2131 0094 301C     		mov	r0, r6
 2132 0096 FFF7FEFF 		bl	inv_enable_tilt
 2133              	.LVL183:
 2134              	.L248:
 2135              	.LBB76:
 2136              	.LBB77:
1056:.\20648_driver\drivers/inv_mems_base_control.c **** 		*sensor_control |= HEADER2_SET;
 2137              		.loc 1 1056 0
 2138 009a 2B1C     		mov	r3, r5
 2139 009c 5633     		add	r3, r3, #86
 2140 009e 1B88     		ldrh	r3, [r3]
 2141 00a0 002B     		cmp	r3, #0
 2142 00a2 04D1     		bne	.L249
 2143 00a4 2B1C     		mov	r3, r5
 2144 00a6 5E33     		add	r3, r3, #94
 2145 00a8 1B88     		ldrh	r3, [r3]
 2146 00aa 002B     		cmp	r3, #0
 2147 00ac 05D0     		beq	.L250
 2148              	.L249:
1057:.\20648_driver\drivers/inv_mems_base_control.c **** #endif
ARM GAS  C:\Users\ADMINI~1\AppData\Local\Temp\ccjTNAQQ.s 			page 72


 2149              		.loc 1 1057 0
 2150 00ae 2A1C     		mov	r2, r5
 2151 00b0 0821     		mov	r1, #8
 2152 00b2 5C32     		add	r2, r2, #92
 2153 00b4 1388     		ldrh	r3, [r2]
 2154 00b6 0B43     		orr	r3, r1
 2155 00b8 1380     		strh	r3, [r2]
 2156              	.L250:
1060:.\20648_driver\drivers/inv_mems_base_control.c ****         return; // Sensor not supported
 2157              		.loc 1 1060 0
 2158 00ba 292F     		cmp	r7, #41
 2159 00bc 26D8     		bhi	.L251
1063:.\20648_driver\drivers/inv_mems_base_control.c ****     if (delta == -1)
 2160              		.loc 1 1063 0
 2161 00be 2B48     		ldr	r0, .L340+8
 2162 00c0 7B00     		lsl	r3, r7, #1
 2163 00c2 C318     		add	r3, r0, r3
 2164 00c4 1A8E     		ldrh	r2, [r3, #48]
 2165              	.LVL184:
1064:.\20648_driver\drivers/inv_mems_base_control.c ****         return; // This sensor not supported
 2166              		.loc 1 1064 0
 2167 00c6 13B2     		sxth	r3, r2
 2168 00c8 0133     		add	r3, r3, #1
 2169 00ca 1FD0     		beq	.L251
 2170 00cc 7B09     		lsr	r3, r7, #5
1068:.\20648_driver\drivers/inv_mems_base_control.c ****         *sensor_control |= delta;
 2171              		.loc 1 1068 0
 2172 00ce 9B00     		lsl	r3, r3, #2
 2173 00d0 EB18     		add	r3, r5, r3
1067:.\20648_driver\drivers/inv_mems_base_control.c ****         inv_androidSensorsOn_mask[(androidSensor>>5)] |= 1L << (androidSensor & 0x1F); // Set bit
 2174              		.loc 1 1067 0
 2175 00d2 002E     		cmp	r6, #0
 2176 00d4 0DD0     		beq	.L252
1068:.\20648_driver\drivers/inv_mems_base_control.c ****         *sensor_control |= delta;
 2177              		.loc 1 1068 0
 2178 00d6 1F21     		mov	r1, #31
 2179 00d8 0120     		mov	r0, #1
 2180 00da 3940     		and	r1, r7
 2181 00dc 8840     		lsl	r0, r0, r1
 2182 00de 011C     		mov	r1, r0
 2183 00e0 D86C     		ldr	r0, [r3, #76]
 2184 00e2 0143     		orr	r1, r0
 2185 00e4 D964     		str	r1, [r3, #76]
1069:.\20648_driver\drivers/inv_mems_base_control.c ****     } else {
 2186              		.loc 1 1069 0
 2187 00e6 291C     		mov	r1, r5
 2188 00e8 5C31     		add	r1, r1, #92
 2189 00ea 0B88     		ldrh	r3, [r1]
 2190 00ec 1343     		orr	r3, r2
 2191 00ee 0B80     		strh	r3, [r1]
 2192 00f0 0CE0     		b	.L251
 2193              	.L252:
1071:.\20648_driver\drivers/inv_mems_base_control.c **** 		// control has to be regenerated when removing sensors because of overlap
 2194              		.loc 1 1071 0
 2195 00f2 1F22     		mov	r2, #31
 2196              	.LVL185:
 2197 00f4 0121     		mov	r1, #1
ARM GAS  C:\Users\ADMINI~1\AppData\Local\Temp\ccjTNAQQ.s 			page 73


 2198 00f6 3A40     		and	r2, r7
 2199 00f8 9140     		lsl	r1, r1, r2
 2200 00fa 0A1C     		mov	r2, r1
 2201 00fc D96C     		ldr	r1, [r3, #76]
1073:.\20648_driver\drivers/inv_mems_base_control.c **** 	}
 2202              		.loc 1 1073 0
 2203 00fe 3030     		add	r0, r0, #48
 2204              	.LVL186:
1071:.\20648_driver\drivers/inv_mems_base_control.c **** 		// control has to be regenerated when removing sensors because of overlap
 2205              		.loc 1 1071 0
 2206 0100 9143     		bic	r1, r2
 2207 0102 D964     		str	r1, [r3, #76]
1073:.\20648_driver\drivers/inv_mems_base_control.c **** 	}
 2208              		.loc 1 1073 0
 2209 0104 291C     		mov	r1, r5
 2210 0106 5C31     		add	r1, r1, #92
 2211 0108 FFF7FEFF 		bl	inv_reGenerate_sensorControl
 2212              	.LVL187:
 2213              	.L251:
 2214              	.LBE77:
 2215              	.LBE76:
1268:.\20648_driver\drivers/inv_mems_base_control.c **** 	if (b2s_status)
 2216              		.loc 1 1268 0
 2217 010c 184B     		ldr	r3, .L340+12
 2218 010e 1888     		ldrh	r0, [r3]
 2219 0110 FFF7FEFF 		bl	dmp_set_data_output_control1
 2220              	.LVL188:
1269:.\20648_driver\drivers/inv_mems_base_control.c **** 		result |= dmp_set_data_interrupt_control(inv_sensor_control|0x8008);
 2221              		.loc 1 1269 0
 2222 0114 2B1C     		mov	r3, r5
 2223 0116 6033     		add	r3, r3, #96
 2224 0118 154A     		ldr	r2, .L340+12
 2225 011a 1B88     		ldrh	r3, [r3]
1268:.\20648_driver\drivers/inv_mems_base_control.c **** 	if (b2s_status)
 2226              		.loc 1 1268 0
 2227 011c 041C     		mov	r4, r0
 2228              	.LVL189:
 2229 011e 1088     		ldrh	r0, [r2]
 2230              	.LVL190:
1269:.\20648_driver\drivers/inv_mems_base_control.c **** 		result |= dmp_set_data_interrupt_control(inv_sensor_control|0x8008);
 2231              		.loc 1 1269 0
 2232 0120 002B     		cmp	r3, #0
 2233 0122 01D0     		beq	.L253
1270:.\20648_driver\drivers/inv_mems_base_control.c **** 		// result |= dmp_set_data_interrupt_control(inv_sensor_control|0x0000);
 2234              		.loc 1 1270 0
 2235 0124 134B     		ldr	r3, .L340+16
 2236 0126 1843     		orr	r0, r3
 2237              	.L253:
1273:.\20648_driver\drivers/inv_mems_base_control.c **** 
 2238              		.loc 1 1273 0
 2239 0128 FFF7FEFF 		bl	dmp_set_data_interrupt_control
 2240              	.LVL191:
1275:.\20648_driver\drivers/inv_mems_base_control.c ****         inv_sensor_control2 |= ACCEL_ACCURACY_SET;
 2241              		.loc 1 1275 0
 2242 012c 2B1C     		mov	r3, r5
 2243 012e 5C33     		add	r3, r3, #92
 2244 0130 1988     		ldrh	r1, [r3]
ARM GAS  C:\Users\ADMINI~1\AppData\Local\Temp\ccjTNAQQ.s 			page 74


 2245 0132 2B1C     		mov	r3, r5
 2246 0134 0AB2     		sxth	r2, r1
1273:.\20648_driver\drivers/inv_mems_base_control.c **** 
 2247              		.loc 1 1273 0
 2248 0136 0443     		orr	r4, r0
 2249              	.LVL192:
 2250 0138 5A33     		add	r3, r3, #90
1275:.\20648_driver\drivers/inv_mems_base_control.c ****         inv_sensor_control2 |= ACCEL_ACCURACY_SET;
 2251              		.loc 1 1275 0
 2252 013a 002A     		cmp	r2, #0
 2253 013c 04DA     		bge	.L255
1276:.\20648_driver\drivers/inv_mems_base_control.c ****     else
 2254              		.loc 1 1276 0
 2255 013e 8020     		mov	r0, #128
 2256 0140 1A88     		ldrh	r2, [r3]
 2257 0142 C001     		lsl	r0, r0, #7
 2258 0144 0243     		orr	r2, r0
 2259 0146 02E0     		b	.L338
 2260              	.L255:
1278:.\20648_driver\drivers/inv_mems_base_control.c ****     
 2261              		.loc 1 1278 0
 2262 0148 1888     		ldrh	r0, [r3]
 2263 014a 0B4A     		ldr	r2, .L340+20
 2264 014c 0240     		and	r2, r0
 2265              	.L338:
 2266 014e 1A80     		strh	r2, [r3]
1285:.\20648_driver\drivers/inv_mems_base_control.c ****     else
 2267              		.loc 1 1285 0
 2268 0150 2A1C     		mov	r2, r5
 2269 0152 5A32     		add	r2, r2, #90
1280:.\20648_driver\drivers/inv_mems_base_control.c **** #if (MEMS_CHIP == HW_ICM30630)
 2270              		.loc 1 1280 0
 2271 0154 4B06     		lsl	r3, r1, #25
 2272 0156 11D5     		bpl	.L257
1285:.\20648_driver\drivers/inv_mems_base_control.c ****     else
 2273              		.loc 1 1285 0
 2274 0158 8021     		mov	r1, #128
 2275 015a 1388     		ldrh	r3, [r2]
 2276 015c 8901     		lsl	r1, r1, #6
 2277 015e 0B43     		orr	r3, r1
 2278 0160 0FE0     		b	.L339
 2279              	.L341:
 2280 0162 C046     		.align	2
 2281              	.L340:
 2282 0164 00000000 		.word	.LANCHOR1
 2283 0168 00000000 		.word	.LANCHOR0
 2284 016c 80000000 		.word	.LANCHOR3
 2285 0170 5C000000 		.word	.LANCHOR0+92
 2286 0174 08800000 		.word	32776
 2287 0178 FFBFFFFF 		.word	-16385
 2288              	.L257:
1287:.\20648_driver\drivers/inv_mems_base_control.c ****     
 2289              		.loc 1 1287 0
 2290 017c 1188     		ldrh	r1, [r2]
 2291 017e 724B     		ldr	r3, .L342
 2292 0180 0B40     		and	r3, r1
 2293              	.L339:
ARM GAS  C:\Users\ADMINI~1\AppData\Local\Temp\ccjTNAQQ.s 			page 75


 2294 0182 1380     		strh	r3, [r2]
1300:.\20648_driver\drivers/inv_mems_base_control.c ****         inv_sensor_control2 |= bac_status;
 2295              		.loc 1 1300 0
 2296 0184 2B1C     		mov	r3, r5
 2297 0186 5633     		add	r3, r3, #86
 2298 0188 1988     		ldrh	r1, [r3]
 2299 018a 0029     		cmp	r1, #0
 2300 018c 04D0     		beq	.L259
1301:.\20648_driver\drivers/inv_mems_base_control.c ****     else
 2301              		.loc 1 1301 0
 2302 018e 2A1C     		mov	r2, r5
 2303 0190 5A32     		add	r2, r2, #90
 2304 0192 1388     		ldrh	r3, [r2]
 2305 0194 0B43     		orr	r3, r1
 2306 0196 1380     		strh	r3, [r2]
 2307              	.L259:
1306:.\20648_driver\drivers/inv_mems_base_control.c ****         inv_sensor_control2 |= flip_pickup_status;
 2308              		.loc 1 1306 0
 2309 0198 2B1C     		mov	r3, r5
 2310 019a 5E33     		add	r3, r3, #94
 2311 019c 1988     		ldrh	r1, [r3]
 2312 019e 0029     		cmp	r1, #0
 2313 01a0 04D0     		beq	.L260
1307:.\20648_driver\drivers/inv_mems_base_control.c ****     else
 2314              		.loc 1 1307 0
 2315 01a2 2A1C     		mov	r2, r5
 2316 01a4 5A32     		add	r2, r2, #90
 2317 01a6 1388     		ldrh	r3, [r2]
 2318 01a8 0B43     		orr	r3, r1
 2319 01aa 1380     		strh	r3, [r2]
 2320              	.L260:
1208:.\20648_driver\drivers/inv_mems_base_control.c **** #if (MEMS_CHIP != HW_ICM30630)
 2321              		.loc 1 1208 0
 2322 01ac 0023     		mov	r3, #0
 2323 01ae 0193     		str	r3, [sp, #4]
1315:.\20648_driver\drivers/inv_mems_base_control.c **** 	{
 2324              		.loc 1 1315 0
 2325 01b0 2B2F     		cmp	r7, #43
 2326 01b2 04D1     		bne	.L261
1318:.\20648_driver\drivers/inv_mems_base_control.c **** 	}
 2327              		.loc 1 1318 0
 2328 01b4 331C     		mov	r3, r6
 2329 01b6 5A1E     		sub	r2, r3, #1
 2330 01b8 9341     		sbc	r3, r3, r2
 2331 01ba 9B00     		lsl	r3, r3, #2
 2332 01bc 0193     		str	r3, [sp, #4]
 2333              	.L261:
 2334              	.LVL193:
1330:.\20648_driver\drivers/inv_mems_base_control.c **** 
 2335              		.loc 1 1330 0
 2336 01be 2B1C     		mov	r3, r5
 2337 01c0 5A33     		add	r3, r3, #90
 2338 01c2 1888     		ldrh	r0, [r3]
 2339 01c4 FFF7FEFF 		bl	dmp_set_data_output_control2
 2340              	.LVL194:
1333:.\20648_driver\drivers/inv_mems_base_control.c ****         data_rdy_status |= GYRO_AVAILABLE;
 2341              		.loc 1 1333 0
ARM GAS  C:\Users\ADMINI~1\AppData\Local\Temp\ccjTNAQQ.s 			page 76


 2342 01c8 EA6C     		ldr	r2, [r5, #76]
 2343 01ca 604B     		ldr	r3, .L342+4
1330:.\20648_driver\drivers/inv_mems_base_control.c **** 
 2344              		.loc 1 1330 0
 2345 01cc 2043     		orr	r0, r4
 2346 01ce 0390     		str	r0, [sp, #12]
 2347              	.LVL195:
1334:.\20648_driver\drivers/inv_mems_base_control.c ****     if (inv_androidSensorsOn_mask[0] & INV_NEEDS_ACCEL_MASK || inv_androidSensorsOn_mask[1] & INV_N
 2348              		.loc 1 1334 0
 2349 01d0 0124     		mov	r4, #1
1333:.\20648_driver\drivers/inv_mems_base_control.c ****         data_rdy_status |= GYRO_AVAILABLE;
 2350              		.loc 1 1333 0
 2351 01d2 1A42     		tst	r2, r3
 2352 01d4 05D1     		bne	.L262
 2353 01d6 2B6D     		ldr	r3, [r5, #80]
 2354 01d8 1734     		add	r4, r4, #23
 2355 01da 1C40     		and	r4, r3
 2356 01dc 631E     		sub	r3, r4, #1
 2357 01de 9C41     		sbc	r4, r4, r3
1213:.\20648_driver\drivers/inv_mems_base_control.c **** 
 2358              		.loc 1 1213 0
 2359 01e0 A4B2     		uxth	r4, r4
 2360              	.L262:
 2361              	.LVL196:
1335:.\20648_driver\drivers/inv_mems_base_control.c ****         data_rdy_status |= ACCEL_AVAILABLE;
 2362              		.loc 1 1335 0
 2363 01e2 5B4B     		ldr	r3, .L342+8
 2364 01e4 1A42     		tst	r2, r3
 2365 01e6 04D1     		bne	.L263
 2366 01e8 BA23     		mov	r3, #186
 2367 01ea 296D     		ldr	r1, [r5, #80]
 2368 01ec 9B00     		lsl	r3, r3, #2
 2369 01ee 1942     		tst	r1, r3
 2370 01f0 01D0     		beq	.L264
 2371              	.L263:
1336:.\20648_driver\drivers/inv_mems_base_control.c **** #if (MEMS_CHIP == HW_ICM30630 || MEMS_CHIP == HW_ICM20645_E || MEMS_CHIP == HW_ICM20648)
 2372              		.loc 1 1336 0
 2373 01f2 0223     		mov	r3, #2
 2374 01f4 1C43     		orr	r4, r3
 2375              	.LVL197:
 2376              	.L264:
1338:.\20648_driver\drivers/inv_mems_base_control.c ****         data_rdy_status |= ACCEL_AVAILABLE;
 2377              		.loc 1 1338 0
 2378 01f6 574B     		ldr	r3, .L342+12
 2379 01f8 191C     		mov	r1, r3
 2380 01fa 5E31     		add	r1, r1, #94
 2381 01fc 0988     		ldrh	r1, [r1]
 2382 01fe 0029     		cmp	r1, #0
 2383 0200 04D1     		bne	.L265
 2384 0202 191C     		mov	r1, r3
 2385 0204 6031     		add	r1, r1, #96
 2386 0206 0988     		ldrh	r1, [r1]
 2387 0208 0029     		cmp	r1, #0
 2388 020a 01D0     		beq	.L266
 2389              	.L265:
1339:.\20648_driver\drivers/inv_mems_base_control.c **** #endif
 2390              		.loc 1 1339 0
ARM GAS  C:\Users\ADMINI~1\AppData\Local\Temp\ccjTNAQQ.s 			page 77


 2391 020c 0221     		mov	r1, #2
 2392 020e 0C43     		orr	r4, r1
 2393              	.LVL198:
 2394              	.L266:
1342:.\20648_driver\drivers/inv_mems_base_control.c ****         data_rdy_status |= ACCEL_AVAILABLE;
 2395              		.loc 1 1342 0
 2396 0210 191C     		mov	r1, r3
 2397 0212 5631     		add	r1, r1, #86
 2398 0214 0988     		ldrh	r1, [r1]
 2399 0216 0029     		cmp	r1, #0
 2400 0218 01D0     		beq	.L267
1343:.\20648_driver\drivers/inv_mems_base_control.c **** #endif
 2401              		.loc 1 1343 0
 2402 021a 0221     		mov	r1, #2
 2403 021c 0C43     		orr	r4, r1
 2404              	.LVL199:
 2405              	.L267:
1345:.\20648_driver\drivers/inv_mems_base_control.c ****         data_rdy_status |= SECONDARY_COMPASS_AVAILABLE;
 2406              		.loc 1 1345 0
 2407 021e 4E49     		ldr	r1, .L342+16
 2408 0220 0A42     		tst	r2, r1
 2409 0222 03D1     		bne	.L268
 2410 0224 196D     		ldr	r1, [r3, #80]
 2411 0226 8423     		mov	r3, #132
 2412 0228 1942     		tst	r1, r3
 2413 022a 01D0     		beq	.L269
 2414              	.L268:
1346:.\20648_driver\drivers/inv_mems_base_control.c ****     if (inv_androidSensorsOn_mask[0] & INV_NEEDS_PRESSURE)
 2415              		.loc 1 1346 0
 2416 022c 0823     		mov	r3, #8
 2417 022e 1C43     		orr	r4, r3
 2418              	.LVL200:
 2419              	.L269:
1347:.\20648_driver\drivers/inv_mems_base_control.c ****         data_rdy_status |= SECONDARY_PRESSURE_AVAILABLE;
 2420              		.loc 1 1347 0
 2421 0230 4A4B     		ldr	r3, .L342+20
 2422 0232 1A42     		tst	r2, r3
 2423 0234 01D0     		beq	.L270
1348:.\20648_driver\drivers/inv_mems_base_control.c **** 
 2424              		.loc 1 1348 0
 2425 0236 0423     		mov	r3, #4
 2426 0238 1C43     		orr	r4, r3
 2427              	.LVL201:
 2428              	.L270:
1351:.\20648_driver\drivers/inv_mems_base_control.c ****         inv_event_control |= INV_GYRO_CAL_EN;
 2429              		.loc 1 1351 0
 2430 023a E307     		lsl	r3, r4, #31
 2431 023c 04D5     		bpl	.L271
1352:.\20648_driver\drivers/inv_mems_base_control.c ****     inv_event_control |= INV_ACCEL_CAL_EN | INV_COMPASS_CAL_EN;
 2432              		.loc 1 1352 0
 2433 023e 8023     		mov	r3, #128
 2434 0240 019A     		ldr	r2, [sp, #4]
 2435 0242 5B00     		lsl	r3, r3, #1
 2436 0244 1A43     		orr	r2, r3
 2437 0246 0192     		str	r2, [sp, #4]
 2438              	.LVL202:
 2439              	.L271:
ARM GAS  C:\Users\ADMINI~1\AppData\Local\Temp\ccjTNAQQ.s 			page 78


1355:.\20648_driver\drivers/inv_mems_base_control.c **** #endif
 2440              		.loc 1 1355 0
 2441 0248 4249     		ldr	r1, .L342+12
 2442 024a 0A1C     		mov	r2, r1
 2443 024c 0B1C     		mov	r3, r1
 2444 024e 6232     		add	r2, r2, #98
 2445 0250 6433     		add	r3, r3, #100
 2446 0252 1588     		ldrh	r5, [r2]
 2447 0254 1B88     		ldrh	r3, [r3]
 2448 0256 1D43     		orr	r5, r3
 2449 0258 A023     		mov	r3, #160
 2450 025a 9B00     		lsl	r3, r3, #2
 2451 025c 1D43     		orr	r5, r3
 2452 025e 019B     		ldr	r3, [sp, #4]
 2453 0260 0191     		str	r1, [sp, #4]
 2454              	.LVL203:
 2455 0262 2B43     		orr	r3, r5
 2456 0264 1D1C     		mov	r5, r3
 2457              	.LVL204:
1358:.\20648_driver\drivers/inv_mems_base_control.c ****         inv_event_control |= INV_NINE_AXIS_EN;
 2458              		.loc 1 1358 0
 2459 0266 0B1C     		mov	r3, r1
 2460 0268 5C33     		add	r3, r3, #92
 2461 026a 1A88     		ldrh	r2, [r3]
 2462 026c 5305     		lsl	r3, r2, #21
 2463 026e 02D5     		bpl	.L272
1359:.\20648_driver\drivers/inv_mems_base_control.c **** #if (MEMS_CHIP != HW_ICM30630)
 2464              		.loc 1 1359 0
 2465 0270 4023     		mov	r3, #64
 2466 0272 1D43     		orr	r5, r3
 2467              	.LVL205:
 2468 0274 ADB2     		uxth	r5, r5
 2469              	.LVL206:
 2470              	.L272:
1361:.\20648_driver\drivers/inv_mems_base_control.c **** #if (MEMS_CHIP == HW_ICM20648)
 2471              		.loc 1 1361 0
 2472 0276 1723     		mov	r3, #23
 2473 0278 1A42     		tst	r2, r3
 2474 027a 01D1     		bne	.L273
 2475 027c 2B05     		lsl	r3, r5, #20
 2476 027e 02D5     		bpl	.L274
 2477              	.L273:
1367:.\20648_driver\drivers/inv_mems_base_control.c ****     }
 2478              		.loc 1 1367 0
 2479 0280 8023     		mov	r3, #128
 2480 0282 DB01     		lsl	r3, r3, #7
 2481 0284 1D43     		orr	r5, r3
 2482              	.LVL207:
 2483              	.L274:
1371:.\20648_driver\drivers/inv_mems_base_control.c ****         inv_event_control |= INV_PEDOMETER_EN;
 2484              		.loc 1 1371 0
 2485 0286 019B     		ldr	r3, [sp, #4]
 2486 0288 5A33     		add	r3, r3, #90
 2487 028a 1B88     		ldrh	r3, [r3]
 2488 028c 1A06     		lsl	r2, r3, #24
 2489 028e 02D5     		bpl	.L275
1372:.\20648_driver\drivers/inv_mems_base_control.c **** #if (MEMS_CHIP == HW_ICM20648)
ARM GAS  C:\Users\ADMINI~1\AppData\Local\Temp\ccjTNAQQ.s 			page 79


 2490              		.loc 1 1372 0
 2491 0290 8022     		mov	r2, #128
 2492 0292 D201     		lsl	r2, r2, #7
 2493 0294 1543     		orr	r5, r2
 2494              	.LVL208:
 2495              	.L275:
1381:.\20648_driver\drivers/inv_mems_base_control.c ****         inv_event_control |= FLIP_PICKUP_EN;
 2496              		.loc 1 1381 0
 2497 0296 5B05     		lsl	r3, r3, #21
 2498 0298 03D5     		bpl	.L276
1382:.\20648_driver\drivers/inv_mems_base_control.c ****         // 5061-add-call to reset flip pickup parameters here
 2499              		.loc 1 1382 0
 2500 029a 1023     		mov	r3, #16
 2501 029c 1D43     		orr	r5, r3
 2502              	.LVL209:
1384:.\20648_driver\drivers/inv_mems_base_control.c ****     }
 2503              		.loc 1 1384 0
 2504 029e FFF7FEFF 		bl	dmp_reset_pickup
 2505              	.LVL210:
 2506              	.L276:
1389:.\20648_driver\drivers/inv_mems_base_control.c ****         inv_event_control |= GEOMAG_EN;
 2507              		.loc 1 1389 0
 2508 02a2 019B     		ldr	r3, [sp, #4]
 2509 02a4 5C33     		add	r3, r3, #92
 2510 02a6 1B88     		ldrh	r3, [r3]
 2511 02a8 DB05     		lsl	r3, r3, #23
 2512 02aa 01D5     		bpl	.L277
1390:.\20648_driver\drivers/inv_mems_base_control.c **** #endif
 2513              		.loc 1 1390 0
 2514 02ac 0823     		mov	r3, #8
 2515 02ae 1D43     		orr	r5, r3
 2516              	.LVL211:
 2517              	.L277:
1393:.\20648_driver\drivers/inv_mems_base_control.c **** 
 2518              		.loc 1 1393 0
 2519 02b0 281C     		mov	r0, r5
 2520 02b2 FFF7FEFF 		bl	dmp_set_motion_event_control
 2521              	.LVL212:
 2522 02b6 039D     		ldr	r5, [sp, #12]
 2523              	.LVL213:
 2524 02b8 0543     		orr	r5, r0
 2525              	.LVL214:
1422:.\20648_driver\drivers/inv_mems_base_control.c ****     result |= inv_set_gyro_sf(inv_get_gyro_divider(), inv_get_gyro_fullscale());
 2526              		.loc 1 1422 0
 2527 02ba FFF7FEFF 		bl	inv_set_hw_smplrt_dmp_odrs
 2528              	.LVL215:
 2529 02be 0543     		orr	r5, r0
 2530              	.LVL216:
 2531 02c0 0395     		str	r5, [sp, #12]
 2532              	.LVL217:
1423:.\20648_driver\drivers/inv_mems_base_control.c **** 
 2533              		.loc 1 1423 0
 2534 02c2 FFF7FEFF 		bl	inv_get_gyro_divider
 2535              	.LVL218:
 2536 02c6 051C     		mov	r5, r0
 2537              	.LVL219:
 2538 02c8 FFF7FEFF 		bl	inv_get_gyro_fullscale
ARM GAS  C:\Users\ADMINI~1\AppData\Local\Temp\ccjTNAQQ.s 			page 80


 2539              	.LVL220:
 2540 02cc 011C     		mov	r1, r0
 2541 02ce 281C     		mov	r0, r5
 2542 02d0 FFF7FEFF 		bl	inv_set_gyro_sf
 2543              	.LVL221:
1425:.\20648_driver\drivers/inv_mems_base_control.c ****         *mems_put_to_sleep =1 ;
 2544              		.loc 1 1425 0
 2545 02d4 019B     		ldr	r3, [sp, #4]
1423:.\20648_driver\drivers/inv_mems_base_control.c **** 
 2546              		.loc 1 1423 0
 2547 02d6 039D     		ldr	r5, [sp, #12]
1425:.\20648_driver\drivers/inv_mems_base_control.c ****         *mems_put_to_sleep =1 ;
 2548              		.loc 1 1425 0
 2549 02d8 5C33     		add	r3, r3, #92
 2550 02da 1B88     		ldrh	r3, [r3]
1423:.\20648_driver\drivers/inv_mems_base_control.c **** 
 2551              		.loc 1 1423 0
 2552 02dc 0543     		orr	r5, r0
 2553              	.LVL222:
1425:.\20648_driver\drivers/inv_mems_base_control.c ****         *mems_put_to_sleep =1 ;
 2554              		.loc 1 1425 0
 2555 02de 002B     		cmp	r3, #0
 2556 02e0 10D1     		bne	.L278
 2557 02e2 019B     		ldr	r3, [sp, #4]
 2558 02e4 DB6C     		ldr	r3, [r3, #76]
 2559 02e6 0393     		str	r3, [sp, #12]
 2560 02e8 9B03     		lsl	r3, r3, #14
 2561 02ea 0BD4     		bmi	.L278
 2562 02ec 019B     		ldr	r3, [sp, #4]
 2563 02ee 6033     		add	r3, r3, #96
 2564 02f0 1B88     		ldrh	r3, [r3]
 2565 02f2 002B     		cmp	r3, #0
 2566 02f4 06D1     		bne	.L278
1426:.\20648_driver\drivers/inv_mems_base_control.c ****         result |= inv_sleep_mems();
 2567              		.loc 1 1426 0
 2568 02f6 0122     		mov	r2, #1
 2569 02f8 194B     		ldr	r3, .L342+24
 2570 02fa 4E33     		add	r3, r3, #78
 2571 02fc 1A70     		strb	r2, [r3]
1427:.\20648_driver\drivers/inv_mems_base_control.c ****     }
 2572              		.loc 1 1427 0
 2573 02fe FFF7FEFF 		bl	inv_sleep_mems
 2574              	.LVL223:
 2575 0302 0543     		orr	r5, r0
 2576              	.LVL224:
 2577              	.L278:
1431:.\20648_driver\drivers/inv_mems_base_control.c **** 
 2578              		.loc 1 1431 0
 2579 0304 8020     		mov	r0, #128
 2580 0306 2043     		orr	r0, r4
 2581 0308 FFF7FEFF 		bl	inv_enable_mems_hw_sensors
 2582              	.LVL225:
1434:.\20648_driver\drivers/inv_mems_base_control.c **** 		 (data_rdy_status & SECONDARY_PRESSURE_AVAILABLE) )	{
 2583              		.loc 1 1434 0
 2584 030c 0C23     		mov	r3, #12
1431:.\20648_driver\drivers/inv_mems_base_control.c **** 
 2585              		.loc 1 1431 0
ARM GAS  C:\Users\ADMINI~1\AppData\Local\Temp\ccjTNAQQ.s 			page 81


 2586 030e 0543     		orr	r5, r0
 2587              	.LVL226:
1434:.\20648_driver\drivers/inv_mems_base_control.c **** 		 (data_rdy_status & SECONDARY_PRESSURE_AVAILABLE) )	{
 2588              		.loc 1 1434 0
 2589 0310 1C42     		tst	r4, r3
 2590 0312 03D0     		beq	.L279
 2591              	.LVL227:
1437:.\20648_driver\drivers/inv_mems_base_control.c **** 	}
 2592              		.loc 1 1437 0
 2593 0314 083B     		sub	r3, r3, #8
 2594 0316 9C43     		bic	r4, r3
 2595              	.LVL228:
 2596 0318 0433     		add	r3, r3, #4
 2597 031a 1C43     		orr	r4, r3
 2598              	.LVL229:
 2599              	.L279:
1440:.\20648_driver\drivers/inv_mems_base_control.c **** 
 2600              		.loc 1 1440 0
 2601 031c 201C     		mov	r0, r4
 2602 031e FFF7FEFF 		bl	dmp_set_data_rdy_status
 2603              	.LVL230:
 2604 0322 029B     		ldr	r3, [sp, #8]
 2605 0324 041C     		mov	r4, r0
 2606              	.LVL231:
 2607 0326 1D43     		orr	r5, r3
 2608              	.LVL232:
1443:.\20648_driver\drivers/inv_mems_base_control.c **** 	{
 2609              		.loc 1 1443 0
 2610 0328 132F     		cmp	r7, #19
 2611 032a 07D1     		bne	.L280
1445:.\20648_driver\drivers/inv_mems_base_control.c **** 		{
 2612              		.loc 1 1445 0
 2613 032c 002E     		cmp	r6, #0
 2614 032e 05D0     		beq	.L280
1447:.\20648_driver\drivers/inv_mems_base_control.c **** 			inv_set_dmp_stepcounter_update_offset(steps);
 2615              		.loc 1 1447 0
 2616 0330 05A8     		add	r0, sp, #20
 2617 0332 FFF7FEFF 		bl	dmp_get_pedometer_get_all_steps
 2618              	.LVL233:
1448:.\20648_driver\drivers/inv_mems_base_control.c **** 		}
 2619              		.loc 1 1448 0
 2620 0336 0598     		ldr	r0, [sp, #20]
 2621 0338 FFF7FEFF 		bl	inv_set_dmp_stepcounter_update_offset
 2622              	.LVL234:
 2623              	.L280:
 2624              	.LBE75:
 2625              	.LBE74:
1199:.\20648_driver\drivers/inv_mems_base_control.c ****     
 2626              		.loc 1 1199 0
 2627 033c 2543     		orr	r5, r4
 2628              	.LVL235:
1201:.\20648_driver\drivers/inv_mems_base_control.c ****     return result;
 2629              		.loc 1 1201 0
 2630 033e FFF7FEFF 		bl	inv_mems_allow_lpen_control
 2631              	.LVL236:
1203:.\20648_driver\drivers/inv_mems_base_control.c **** 
 2632              		.loc 1 1203 0
ARM GAS  C:\Users\ADMINI~1\AppData\Local\Temp\ccjTNAQQ.s 			page 82


 2633 0342 281C     		mov	r0, r5
 2634 0344 07B0     		add	sp, sp, #28
 2635              		@ sp needed
 2636              	.LVL237:
 2637              	.LVL238:
 2638              	.LVL239:
 2639 0346 F0BD     		pop	{r4, r5, r6, r7, pc}
 2640              	.L343:
 2641              		.align	2
 2642              	.L342:
 2643 0348 FFDFFFFF 		.word	-8193
 2644 034c 188E01E6 		.word	-436105704
 2645 0350 0A8E9EE2 		.word	-492925430
 2646 0354 00000000 		.word	.LANCHOR0
 2647 0358 0C481083 		.word	-2096084980
 2648 035c 40000010 		.word	268435520
 2649 0360 00000000 		.word	.LANCHOR1
 2650              		.cfi_endproc
 2651              	.LFE12:
 2652              		.size	inv_enable_sensor, .-inv_enable_sensor
 2653              		.section	.text.inv_enable_pickup,"ax",%progbits
 2654              		.align	1
 2655              		.global	inv_enable_pickup
 2656              		.code	16
 2657              		.thumb_func
 2658              		.type	inv_enable_pickup, %function
 2659              	inv_enable_pickup:
 2660              	.LFB25:
1684:.\20648_driver\drivers/inv_mems_base_control.c **** 
1685:.\20648_driver\drivers/inv_mems_base_control.c **** /* 5061:  this should be used to disable PICKUp after it triggers once
1686:.\20648_driver\drivers/inv_mems_base_control.c ****  * DO WE NEED TO CLEAR A BIT IN EVENT CONTROL?
1687:.\20648_driver\drivers/inv_mems_base_control.c ****  */
1688:.\20648_driver\drivers/inv_mems_base_control.c **** #if (MEMS_CHIP == HW_ICM30630 || MEMS_CHIP == HW_ICM20645_E ||MEMS_CHIP == HW_ICM20648)
1689:.\20648_driver\drivers/inv_mems_base_control.c **** inv_error_t inv_enable_pickup(unsigned char enable)
1690:.\20648_driver\drivers/inv_mems_base_control.c **** {
 2661              		.loc 1 1690 0
 2662              		.cfi_startproc
 2663              	.LVL240:
 2664 0000 084B     		ldr	r3, .L348
 2665 0002 10B5     		push	{r4, lr}
 2666              		.cfi_def_cfa_offset 8
 2667              		.cfi_offset 4, -8
 2668              		.cfi_offset 14, -4
1691:.\20648_driver\drivers/inv_mems_base_control.c ****     int ret = 0;
1692:.\20648_driver\drivers/inv_mems_base_control.c **** 
1693:.\20648_driver\drivers/inv_mems_base_control.c ****     if(enable)
1694:.\20648_driver\drivers/inv_mems_base_control.c ****         inv_sensor_control2 |= FLIP_PICKUP_EN;
 2669              		.loc 1 1694 0
 2670 0004 191C     		mov	r1, r3
 2671 0006 5A31     		add	r1, r1, #90
 2672 0008 1024     		mov	r4, #16
 2673 000a 0A88     		ldrh	r2, [r1]
1693:.\20648_driver\drivers/inv_mems_base_control.c ****         inv_sensor_control2 |= FLIP_PICKUP_EN;
 2674              		.loc 1 1693 0
 2675 000c 0028     		cmp	r0, #0
 2676 000e 01D0     		beq	.L345
 2677              		.loc 1 1694 0
ARM GAS  C:\Users\ADMINI~1\AppData\Local\Temp\ccjTNAQQ.s 			page 83


 2678 0010 2243     		orr	r2, r4
 2679 0012 00E0     		b	.L347
 2680              	.L345:
1695:.\20648_driver\drivers/inv_mems_base_control.c ****     else
1696:.\20648_driver\drivers/inv_mems_base_control.c ****         inv_sensor_control2 &= ~FLIP_PICKUP_EN;
 2681              		.loc 1 1696 0
 2682 0014 A243     		bic	r2, r4
 2683              	.L347:
 2684 0016 0A80     		strh	r2, [r1]
1697:.\20648_driver\drivers/inv_mems_base_control.c **** 
1698:.\20648_driver\drivers/inv_mems_base_control.c ****     ret = dmp_set_data_output_control2(inv_sensor_control2);
 2685              		.loc 1 1698 0
 2686 0018 5A33     		add	r3, r3, #90
 2687 001a 1888     		ldrh	r0, [r3]
 2688              	.LVL241:
 2689 001c FFF7FEFF 		bl	dmp_set_data_output_control2
 2690              	.LVL242:
1699:.\20648_driver\drivers/inv_mems_base_control.c **** 
1700:.\20648_driver\drivers/inv_mems_base_control.c ****     return ret;
1701:.\20648_driver\drivers/inv_mems_base_control.c **** }
 2691              		.loc 1 1701 0
 2692              		@ sp needed
 2693 0020 10BD     		pop	{r4, pc}
 2694              	.L349:
 2695 0022 C046     		.align	2
 2696              	.L348:
 2697 0024 00000000 		.word	.LANCHOR0
 2698              		.cfi_endproc
 2699              	.LFE25:
 2700              		.size	inv_enable_pickup, .-inv_enable_pickup
 2701              		.global	inv_androidSensor_to_control_bits
 2702              		.section	.rodata
 2703              		.align	2
 2704              		.set	.LANCHOR2,. + 0
 2705              		.set	.LANCHOR3,. + 128
 2706              		.type	CSWTCH.63, %object
 2707              		.size	CSWTCH.63, 52
 2708              	CSWTCH.63:
 2709 0000 5D74D101 		.word	30504029
 2710 0004 00000002 		.word	33554432
 2711 0008 2EBAE800 		.word	15252014
 2712 000c 2EBAE800 		.word	15252014
 2713 0010 2EBAE800 		.word	15252014
 2714 0014 2EBAE800 		.word	15252014
 2715 0018 2EBAE800 		.word	15252014
 2716 001c 2EBAE800 		.word	15252014
 2717 0020 2EBAE800 		.word	15252014
 2718 0024 2EBAE800 		.word	15252014
 2719 0028 2EBAE800 		.word	15252014
 2720 002c 2EBAE800 		.word	15252014
 2721 0030 00000004 		.word	67108864
 2722              		.type	MinDelayGenAccelList, %object
 2723              		.size	MinDelayGenAccelList, 40
 2724              	MinDelayGenAccelList:
 2725 0034 01       		.byte	1
 2726 0035 00       		.byte	0
 2727 0036 17       		.byte	23
ARM GAS  C:\Users\ADMINI~1\AppData\Local\Temp\ccjTNAQQ.s 			page 84


 2728 0037 14       		.byte	20
 2729 0038 14       		.byte	20
 2730 0039 07       		.byte	7
 2731 003a 27       		.byte	39
 2732 003b 1A       		.byte	26
 2733 003c 12       		.byte	18
 2734 003d 0C       		.byte	12
 2735 003e 13       		.byte	19
 2736 003f 0C       		.byte	12
 2737 0040 25       		.byte	37
 2738 0041 1F       		.byte	31
 2739 0042 26       		.byte	38
 2740 0043 1F       		.byte	31
 2741 0044 11       		.byte	17
 2742 0045 1F       		.byte	31
 2743 0046 29       		.byte	41
 2744 0047 20       		.byte	32
 2745 0048 09       		.byte	9
 2746 0049 10       		.byte	16
 2747 004a 0F       		.byte	15
 2748 004b 10       		.byte	16
 2749 004c 0A       		.byte	10
 2750 004d 10       		.byte	16
 2751 004e 1D       		.byte	29
 2752 004f 21       		.byte	33
 2753 0050 23       		.byte	35
 2754 0051 21       		.byte	33
 2755 0052 1E       		.byte	30
 2756 0053 21       		.byte	33
 2757 0054 03       		.byte	3
 2758 0055 11       		.byte	17
 2759 0056 0B       		.byte	11
 2760 0057 11       		.byte	17
 2761 0058 19       		.byte	25
 2762 0059 22       		.byte	34
 2763 005a 1F       		.byte	31
 2764 005b 22       		.byte	34
 2765              		.type	MinDelayGenGyroList, %object
 2766              		.size	MinDelayGenGyroList, 28
 2767              	MinDelayGenGyroList:
 2768 005c 10       		.byte	16
 2769 005d 01       		.byte	1
 2770 005e 24       		.byte	36
 2771 005f 15       		.byte	21
 2772 0060 04       		.byte	4
 2773 0061 0A       		.byte	10
 2774 0062 1A       		.byte	26
 2775 0063 1D       		.byte	29
 2776 0064 09       		.byte	9
 2777 0065 05       		.byte	5
 2778 0066 0F       		.byte	15
 2779 0067 05       		.byte	5
 2780 0068 0A       		.byte	10
 2781 0069 05       		.byte	5
 2782 006a 1D       		.byte	29
 2783 006b 18       		.byte	24
 2784 006c 23       		.byte	35
ARM GAS  C:\Users\ADMINI~1\AppData\Local\Temp\ccjTNAQQ.s 			page 85


 2785 006d 18       		.byte	24
 2786 006e 1E       		.byte	30
 2787 006f 18       		.byte	24
 2788 0070 03       		.byte	3
 2789 0071 06       		.byte	6
 2790 0072 0B       		.byte	11
 2791 0073 06       		.byte	6
 2792 0074 19       		.byte	25
 2793 0075 19       		.byte	25
 2794 0076 1F       		.byte	31
 2795 0077 19       		.byte	25
 2796              		.type	MinDelayGenAccel2List, %object
 2797              		.size	MinDelayGenAccel2List, 8
 2798              	MinDelayGenAccel2List:
 2799 0078 01       		.byte	1
 2800 0079 00       		.byte	0
 2801 007a 17       		.byte	23
 2802 007b 14       		.byte	20
 2803 007c 0A       		.byte	10
 2804 007d 10       		.byte	16
 2805 007e 1E       		.byte	30
 2806 007f 21       		.byte	33
 2807              		.type	MinDelayGenAccel3List, %object
 2808              		.size	MinDelayGenAccel3List, 4
 2809              	MinDelayGenAccel3List:
 2810 0080 14       		.byte	20
 2811 0081 07       		.byte	7
 2812 0082 27       		.byte	39
 2813 0083 1A       		.byte	26
 2814              		.type	MinDelayGenAccel4List, %object
 2815              		.size	MinDelayGenAccel4List, 10
 2816              	MinDelayGenAccel4List:
 2817 0084 12       		.byte	18
 2818 0085 0C       		.byte	12
 2819 0086 13       		.byte	19
 2820 0087 0C       		.byte	12
 2821 0088 25       		.byte	37
 2822 0089 1F       		.byte	31
 2823 008a 26       		.byte	38
 2824 008b 1F       		.byte	31
 2825 008c 11       		.byte	17
 2826 008d 1F       		.byte	31
 2827              		.type	MinDelayGenAccel5List, %object
 2828              		.size	MinDelayGenAccel5List, 2
 2829              	MinDelayGenAccel5List:
 2830 008e 29       		.byte	41
 2831 008f 20       		.byte	32
 2832              		.type	MinDelayGenGyro2List, %object
 2833              		.size	MinDelayGenGyro2List, 8
 2834              	MinDelayGenGyro2List:
 2835 0090 10       		.byte	16
 2836 0091 01       		.byte	1
 2837 0092 24       		.byte	36
 2838 0093 15       		.byte	21
 2839 0094 04       		.byte	4
 2840 0095 0A       		.byte	10
 2841 0096 1A       		.byte	26
ARM GAS  C:\Users\ADMINI~1\AppData\Local\Temp\ccjTNAQQ.s 			page 86


 2842 0097 1D       		.byte	29
 2843              		.type	MinDelayGenGyro3List, %object
 2844              		.size	MinDelayGenGyro3List, 4
 2845              	MinDelayGenGyro3List:
 2846 0098 04       		.byte	4
 2847 0099 0A       		.byte	10
 2848 009a 1A       		.byte	26
 2849 009b 1D       		.byte	29
 2850              		.type	MinDelayGenGyro4List, %object
 2851              		.size	MinDelayGenGyro4List, 12
 2852              	MinDelayGenGyro4List:
 2853 009c 09       		.byte	9
 2854 009d 05       		.byte	5
 2855 009e 0F       		.byte	15
 2856 009f 05       		.byte	5
 2857 00a0 0A       		.byte	10
 2858 00a1 05       		.byte	5
 2859 00a2 1D       		.byte	29
 2860 00a3 18       		.byte	24
 2861 00a4 23       		.byte	35
 2862 00a5 18       		.byte	24
 2863 00a6 1E       		.byte	30
 2864 00a7 18       		.byte	24
 2865              		.type	MinDelayGenGyro5List, %object
 2866              		.size	MinDelayGenGyro5List, 8
 2867              	MinDelayGenGyro5List:
 2868 00a8 03       		.byte	3
 2869 00a9 06       		.byte	6
 2870 00aa 0B       		.byte	11
 2871 00ab 06       		.byte	6
 2872 00ac 19       		.byte	25
 2873 00ad 19       		.byte	25
 2874 00ae 1F       		.byte	31
 2875 00af 19       		.byte	25
 2876              		.type	inv_androidSensor_to_control_bits, %object
 2877              		.size	inv_androidSensor_to_control_bits, 84
 2878              	inv_androidSensor_to_control_bits:
 2879 00b0 FFFF     		.short	-1
 2880 00b2 0880     		.short	-32760
 2881 00b4 2800     		.short	40
 2882 00b6 0804     		.short	1032
 2883 00b8 4840     		.short	16456
 2884 00ba 0810     		.short	4104
 2885 00bc 8800     		.short	136
 2886 00be FFFF     		.short	-1
 2887 00c0 FFFF     		.short	-1
 2888 00c2 0808     		.short	2056
 2889 00c4 0888     		.short	-30712
 2890 00c6 0804     		.short	1032
 2891 00c8 FFFF     		.short	-1
 2892 00ca FFFF     		.short	-1
 2893 00cc 0820     		.short	8200
 2894 00ce 0808     		.short	2056
 2895 00d0 0840     		.short	16392
 2896 00d2 0000     		.short	0
 2897 00d4 1800     		.short	24
 2898 00d6 1000     		.short	16
ARM GAS  C:\Users\ADMINI~1\AppData\Local\Temp\ccjTNAQQ.s 			page 87


 2899 00d8 0801     		.short	264
 2900 00da FFFF     		.short	-1
 2901 00dc FFFF     		.short	-1
 2902 00de 0880     		.short	-32760
 2903 00e0 2800     		.short	40
 2904 00e2 0804     		.short	1032
 2905 00e4 4840     		.short	16456
 2906 00e6 0810     		.short	4104
 2907 00e8 8800     		.short	136
 2908 00ea 0808     		.short	2056
 2909 00ec 0888     		.short	-30712
 2910 00ee 0804     		.short	1032
 2911 00f0 FFFF     		.short	-1
 2912 00f2 FFFF     		.short	-1
 2913 00f4 0820     		.short	8200
 2914 00f6 0808     		.short	2056
 2915 00f8 0840     		.short	16392
 2916 00fa 1800     		.short	24
 2917 00fc 1000     		.short	16
 2918 00fe 0801     		.short	264
 2919 0100 FFFF     		.short	-1
 2920 0102 0000     		.short	0
 2921              		.data
 2922              		.align	1
 2923              		.set	.LANCHOR1,. + 0
 2924              		.type	inv_dmp_odr_delays, %object
 2925              		.size	inv_dmp_odr_delays, 74
 2926              	inv_dmp_odr_delays:
 2927 0000 C800     		.short	200
 2928 0002 C800     		.short	200
 2929 0004 C800     		.short	200
 2930 0006 C800     		.short	200
 2931 0008 C800     		.short	200
 2932 000a C800     		.short	200
 2933 000c C800     		.short	200
 2934 000e C800     		.short	200
 2935 0010 C800     		.short	200
 2936 0012 C800     		.short	200
 2937 0014 C800     		.short	200
 2938 0016 C800     		.short	200
 2939 0018 C800     		.short	200
 2940 001a C800     		.short	200
 2941 001c C800     		.short	200
 2942 001e C800     		.short	200
 2943 0020 C800     		.short	200
 2944 0022 C800     		.short	200
 2945 0024 C800     		.short	200
 2946 0026 C800     		.short	200
 2947 0028 C800     		.short	200
 2948 002a C800     		.short	200
 2949 002c C800     		.short	200
 2950 002e C800     		.short	200
 2951 0030 C800     		.short	200
 2952 0032 C800     		.short	200
 2953 0034 C800     		.short	200
 2954 0036 C800     		.short	200
 2955 0038 C800     		.short	200
ARM GAS  C:\Users\ADMINI~1\AppData\Local\Temp\ccjTNAQQ.s 			page 88


 2956 003a C800     		.short	200
 2957 003c C800     		.short	200
 2958 003e C800     		.short	200
 2959 0040 C800     		.short	200
 2960 0042 C800     		.short	200
 2961 0044 C800     		.short	200
 2962 0046 C800     		.short	200
 2963 0048 C800     		.short	200
 2964              		.type	lLastHwSmplrtDivider.5900, %object
 2965              		.size	lLastHwSmplrtDivider.5900, 2
 2966              	lLastHwSmplrtDivider.5900:
 2967 004a 0100     		.short	1
 2968              		.type	lLastHwSmplrtDivider.5902, %object
 2969              		.size	lLastHwSmplrtDivider.5902, 2
 2970              	lLastHwSmplrtDivider.5902:
 2971 004c 0100     		.short	1
 2972              		.type	mems_put_to_sleep.6039, %object
 2973              		.size	mems_put_to_sleep.6039, 1
 2974              	mems_put_to_sleep.6039:
 2975 004e 01       		.byte	1
 2976 004f 00       		.bss
 2977              		.align	2
 2978              		.set	.LANCHOR0,. + 0
 2979              		.type	inv_dmp_odr_dividers, %object
 2980              		.size	inv_dmp_odr_dividers, 74
 2981              	inv_dmp_odr_dividers:
 2982 0000 00000000 		.space	74
 2982      00000000 
 2982      00000000 
 2982      00000000 
 2982      00000000 
 2983 004a 0000     		.space	2
 2984              		.type	inv_androidSensorsOn_mask, %object
 2985              		.size	inv_androidSensorsOn_mask, 8
 2986              	inv_androidSensorsOn_mask:
 2987 004c 00000000 		.space	8
 2987      00000000 
 2988              		.type	bac_on, %object
 2989              		.size	bac_on, 2
 2990              	bac_on:
 2991 0054 0000     		.space	2
 2992              		.type	bac_status, %object
 2993              		.size	bac_status, 2
 2994              	bac_status:
 2995 0056 0000     		.space	2
 2996              		.type	sBatchMode, %object
 2997              		.size	sBatchMode, 1
 2998              	sBatchMode:
 2999 0058 00       		.space	1
 3000 0059 00       		.space	1
 3001              		.type	inv_sensor_control2, %object
 3002              		.size	inv_sensor_control2, 2
 3003              	inv_sensor_control2:
 3004 005a 0000     		.space	2
 3005              		.type	inv_sensor_control, %object
 3006              		.size	inv_sensor_control, 2
 3007              	inv_sensor_control:
ARM GAS  C:\Users\ADMINI~1\AppData\Local\Temp\ccjTNAQQ.s 			page 89


 3008 005c 0000     		.space	2
 3009              		.type	flip_pickup_status, %object
 3010              		.size	flip_pickup_status, 2
 3011              	flip_pickup_status:
 3012 005e 0000     		.space	2
 3013              		.type	b2s_status, %object
 3014              		.size	b2s_status, 2
 3015              	b2s_status:
 3016 0060 0000     		.space	2
 3017              		.type	smd_status.6047, %object
 3018              		.size	smd_status.6047, 2
 3019              	smd_status.6047:
 3020 0062 0000     		.space	2
 3021              		.type	ped_int_status.6048, %object
 3022              		.size	ped_int_status.6048, 2
 3023              	ped_int_status.6048:
 3024 0064 0000     		.space	2
 3025 0066 0000     		.text
 3026              	.Letext0:
 3027              		.file 2 "c:\\program files (x86)\\cypress\\psoc creator\\3.3\\psoc creator\\import\\gnu\\arm\\4.9.
 3028              		.file 3 "c:\\program files (x86)\\cypress\\psoc creator\\3.3\\psoc creator\\import\\gnu\\arm\\4.9.
 3029              		.file 4 "./.\\20648_driver\\dmp3a\\dmp3Driver.h"
 3030              		.file 5 "./.\\20648_driver\\drivers\\inv_mems_defines.h"
 3031              		.file 6 "./.\\20648_driver\\common\\mltypes.h"
 3032              		.file 7 "./.\\20648_driver\\drivers\\inv_mems_base_control.h"
 3033              		.file 8 "./.\\20648_driver\\dmp3\\inv_mems_interface_mapping.h"
 3034              		.file 9 "./.\\20648_driver\\drivers\\inv_mems_base_driver.h"
 3035              		.section	.debug_info,"",%progbits
 3036              	.Ldebug_info0:
 3037 0000 01150000 		.4byte	0x1501
 3038 0004 0400     		.2byte	0x4
 3039 0006 00000000 		.4byte	.Ldebug_abbrev0
 3040 000a 04       		.byte	0x4
 3041 000b 01       		.uleb128 0x1
 3042 000c 56060000 		.4byte	.LASF229
 3043 0010 01       		.byte	0x1
 3044 0011 60030000 		.4byte	.LASF230
 3045 0015 85110000 		.4byte	.LASF231
 3046 0019 68000000 		.4byte	.Ldebug_ranges0+0x68
 3047 001d 00000000 		.4byte	0
 3048 0021 00000000 		.4byte	.Ldebug_line0
 3049 0025 02       		.uleb128 0x2
 3050 0026 04       		.byte	0x4
 3051 0027 05       		.byte	0x5
 3052 0028 696E7400 		.ascii	"int\000"
 3053 002c 03       		.uleb128 0x3
 3054 002d 04       		.byte	0x4
 3055 002e 07       		.byte	0x7
 3056 002f 20010000 		.4byte	.LASF0
 3057 0033 03       		.uleb128 0x3
 3058 0034 01       		.byte	0x1
 3059 0035 06       		.byte	0x6
 3060 0036 5C120000 		.4byte	.LASF1
 3061 003a 04       		.uleb128 0x4
 3062 003b 1C0F0000 		.4byte	.LASF6
 3063 003f 02       		.byte	0x2
 3064 0040 1D       		.byte	0x1d
ARM GAS  C:\Users\ADMINI~1\AppData\Local\Temp\ccjTNAQQ.s 			page 90


 3065 0041 45000000 		.4byte	0x45
 3066 0045 03       		.uleb128 0x3
 3067 0046 01       		.byte	0x1
 3068 0047 08       		.byte	0x8
 3069 0048 96100000 		.4byte	.LASF2
 3070 004c 03       		.uleb128 0x3
 3071 004d 02       		.byte	0x2
 3072 004e 05       		.byte	0x5
 3073 004f 350D0000 		.4byte	.LASF3
 3074 0053 03       		.uleb128 0x3
 3075 0054 02       		.byte	0x2
 3076 0055 07       		.byte	0x7
 3077 0056 90120000 		.4byte	.LASF4
 3078 005a 03       		.uleb128 0x3
 3079 005b 04       		.byte	0x4
 3080 005c 05       		.byte	0x5
 3081 005d AA0D0000 		.4byte	.LASF5
 3082 0061 04       		.uleb128 0x4
 3083 0062 A4100000 		.4byte	.LASF7
 3084 0066 02       		.byte	0x2
 3085 0067 41       		.byte	0x41
 3086 0068 6C000000 		.4byte	0x6c
 3087 006c 03       		.uleb128 0x3
 3088 006d 04       		.byte	0x4
 3089 006e 07       		.byte	0x7
 3090 006f C70F0000 		.4byte	.LASF8
 3091 0073 03       		.uleb128 0x3
 3092 0074 08       		.byte	0x8
 3093 0075 05       		.byte	0x5
 3094 0076 200A0000 		.4byte	.LASF9
 3095 007a 03       		.uleb128 0x3
 3096 007b 08       		.byte	0x8
 3097 007c 07       		.byte	0x7
 3098 007d 81050000 		.4byte	.LASF10
 3099 0081 03       		.uleb128 0x3
 3100 0082 04       		.byte	0x4
 3101 0083 07       		.byte	0x7
 3102 0084 BE0F0000 		.4byte	.LASF11
 3103 0088 05       		.uleb128 0x5
 3104 0089 04       		.byte	0x4
 3105 008a 06       		.uleb128 0x6
 3106 008b 04       		.byte	0x4
 3107 008c 90000000 		.4byte	0x90
 3108 0090 03       		.uleb128 0x3
 3109 0091 01       		.byte	0x1
 3110 0092 08       		.byte	0x8
 3111 0093 93080000 		.4byte	.LASF12
 3112 0097 04       		.uleb128 0x4
 3113 0098 3F090000 		.4byte	.LASF13
 3114 009c 03       		.byte	0x3
 3115 009d 15       		.byte	0x15
 3116 009e 3A000000 		.4byte	0x3a
 3117 00a2 04       		.uleb128 0x4
 3118 00a3 2C040000 		.4byte	.LASF14
 3119 00a7 03       		.byte	0x3
 3120 00a8 2D       		.byte	0x2d
 3121 00a9 61000000 		.4byte	0x61
ARM GAS  C:\Users\ADMINI~1\AppData\Local\Temp\ccjTNAQQ.s 			page 91


 3122 00ad 07       		.uleb128 0x7
 3123 00ae EC090000 		.4byte	.LASF54
 3124 00b2 01       		.byte	0x1
 3125 00b3 04       		.byte	0x4
 3126 00b4 26       		.byte	0x26
 3127 00b5 A4010000 		.4byte	0x1a4
 3128 00b9 08       		.uleb128 0x8
 3129 00ba C70C0000 		.4byte	.LASF15
 3130 00be 00       		.sleb128 0
 3131 00bf 08       		.uleb128 0x8
 3132 00c0 7A120000 		.4byte	.LASF16
 3133 00c4 01       		.sleb128 1
 3134 00c5 08       		.uleb128 0x8
 3135 00c6 44130000 		.4byte	.LASF17
 3136 00ca 02       		.sleb128 2
 3137 00cb 08       		.uleb128 0x8
 3138 00cc 7C010000 		.4byte	.LASF18
 3139 00d0 03       		.sleb128 3
 3140 00d1 08       		.uleb128 0x8
 3141 00d2 26070000 		.4byte	.LASF19
 3142 00d6 04       		.sleb128 4
 3143 00d7 08       		.uleb128 0x8
 3144 00d8 E0110000 		.4byte	.LASF20
 3145 00dc 05       		.sleb128 5
 3146 00dd 08       		.uleb128 0x8
 3147 00de CB120000 		.4byte	.LASF21
 3148 00e2 06       		.sleb128 6
 3149 00e3 08       		.uleb128 0x8
 3150 00e4 DD130000 		.4byte	.LASF22
 3151 00e8 07       		.sleb128 7
 3152 00e9 08       		.uleb128 0x8
 3153 00ea B0050000 		.4byte	.LASF23
 3154 00ee 08       		.sleb128 8
 3155 00ef 08       		.uleb128 0x8
 3156 00f0 F0110000 		.4byte	.LASF24
 3157 00f4 09       		.sleb128 9
 3158 00f5 08       		.uleb128 0x8
 3159 00f6 970B0000 		.4byte	.LASF25
 3160 00fa 0A       		.sleb128 10
 3161 00fb 08       		.uleb128 0x8
 3162 00fc 120C0000 		.4byte	.LASF26
 3163 0100 0B       		.sleb128 11
 3164 0101 08       		.uleb128 0x8
 3165 0102 A2130000 		.4byte	.LASF27
 3166 0106 0C       		.sleb128 12
 3167 0107 08       		.uleb128 0x8
 3168 0108 DF0E0000 		.4byte	.LASF28
 3169 010c 0D       		.sleb128 13
 3170 010d 08       		.uleb128 0x8
 3171 010e EB0A0000 		.4byte	.LASF29
 3172 0112 0E       		.sleb128 14
 3173 0113 08       		.uleb128 0x8
 3174 0114 7D020000 		.4byte	.LASF30
 3175 0118 0F       		.sleb128 15
 3176 0119 08       		.uleb128 0x8
 3177 011a 1F0D0000 		.4byte	.LASF31
 3178 011e 10       		.sleb128 16
ARM GAS  C:\Users\ADMINI~1\AppData\Local\Temp\ccjTNAQQ.s 			page 92


 3179 011f 08       		.uleb128 0x8
 3180 0120 6E110000 		.4byte	.LASF32
 3181 0124 11       		.sleb128 17
 3182 0125 08       		.uleb128 0x8
 3183 0126 98050000 		.4byte	.LASF33
 3184 012a 12       		.sleb128 18
 3185 012b 08       		.uleb128 0x8
 3186 012c 5C100000 		.4byte	.LASF34
 3187 0130 13       		.sleb128 19
 3188 0131 08       		.uleb128 0x8
 3189 0132 C5020000 		.4byte	.LASF35
 3190 0136 14       		.sleb128 20
 3191 0137 08       		.uleb128 0x8
 3192 0138 7D000000 		.4byte	.LASF36
 3193 013c 15       		.sleb128 21
 3194 013d 08       		.uleb128 0x8
 3195 013e B6080000 		.4byte	.LASF37
 3196 0142 16       		.sleb128 22
 3197 0143 08       		.uleb128 0x8
 3198 0144 C2070000 		.4byte	.LASF38
 3199 0148 17       		.sleb128 23
 3200 0149 08       		.uleb128 0x8
 3201 014a 46140000 		.4byte	.LASF39
 3202 014e 18       		.sleb128 24
 3203 014f 08       		.uleb128 0x8
 3204 0150 47090000 		.4byte	.LASF40
 3205 0154 19       		.sleb128 25
 3206 0155 08       		.uleb128 0x8
 3207 0156 EF030000 		.4byte	.LASF41
 3208 015a 1A       		.sleb128 26
 3209 015b 08       		.uleb128 0x8
 3210 015c AB070000 		.4byte	.LASF42
 3211 0160 1B       		.sleb128 27
 3212 0161 08       		.uleb128 0x8
 3213 0162 050A0000 		.4byte	.LASF43
 3214 0166 1C       		.sleb128 28
 3215 0167 08       		.uleb128 0x8
 3216 0168 3E110000 		.4byte	.LASF44
 3217 016c 1D       		.sleb128 29
 3218 016d 08       		.uleb128 0x8
 3219 016e EB040000 		.4byte	.LASF45
 3220 0172 1E       		.sleb128 30
 3221 0173 08       		.uleb128 0x8
 3222 0174 D7100000 		.4byte	.LASF46
 3223 0178 1F       		.sleb128 31
 3224 0179 08       		.uleb128 0x8
 3225 017a 55050000 		.4byte	.LASF47
 3226 017e 20       		.sleb128 32
 3227 017f 08       		.uleb128 0x8
 3228 0180 1A140000 		.4byte	.LASF48
 3229 0184 21       		.sleb128 33
 3230 0185 08       		.uleb128 0x8
 3231 0186 FE0E0000 		.4byte	.LASF49
 3232 018a 22       		.sleb128 34
 3233 018b 08       		.uleb128 0x8
 3234 018c 170E0000 		.4byte	.LASF50
 3235 0190 23       		.sleb128 35
ARM GAS  C:\Users\ADMINI~1\AppData\Local\Temp\ccjTNAQQ.s 			page 93


 3236 0191 08       		.uleb128 0x8
 3237 0192 750D0000 		.4byte	.LASF51
 3238 0196 24       		.sleb128 36
 3239 0197 08       		.uleb128 0x8
 3240 0198 1B030000 		.4byte	.LASF52
 3241 019c 25       		.sleb128 37
 3242 019d 08       		.uleb128 0x8
 3243 019e 260F0000 		.4byte	.LASF53
 3244 01a2 26       		.sleb128 38
 3245 01a3 00       		.byte	0
 3246 01a4 07       		.uleb128 0x7
 3247 01a5 1E100000 		.4byte	.LASF55
 3248 01a9 01       		.byte	0x1
 3249 01aa 04       		.byte	0x4
 3250 01ab 57       		.byte	0x57
 3251 01ac C9010000 		.4byte	0x1c9
 3252 01b0 08       		.uleb128 0x8
 3253 01b1 48120000 		.4byte	.LASF56
 3254 01b5 00       		.sleb128 0
 3255 01b6 08       		.uleb128 0x8
 3256 01b7 DC120000 		.4byte	.LASF57
 3257 01bb 01       		.sleb128 1
 3258 01bc 08       		.uleb128 0x8
 3259 01bd 38010000 		.4byte	.LASF58
 3260 01c1 02       		.sleb128 2
 3261 01c2 08       		.uleb128 0x8
 3262 01c3 F30F0000 		.4byte	.LASF59
 3263 01c7 03       		.sleb128 3
 3264 01c8 00       		.byte	0
 3265 01c9 09       		.uleb128 0x9
 3266 01ca EB060000 		.4byte	.LASF60
 3267 01ce 01       		.byte	0x1
 3268 01cf 05       		.byte	0x5
 3269 01d0 9202     		.2byte	0x292
 3270 01d2 03030000 		.4byte	0x303
 3271 01d6 08       		.uleb128 0x8
 3272 01d7 A3010000 		.4byte	.LASF61
 3273 01db 00       		.sleb128 0
 3274 01dc 08       		.uleb128 0x8
 3275 01dd 610E0000 		.4byte	.LASF62
 3276 01e1 01       		.sleb128 1
 3277 01e2 08       		.uleb128 0x8
 3278 01e3 5C0C0000 		.4byte	.LASF63
 3279 01e7 02       		.sleb128 2
 3280 01e8 08       		.uleb128 0x8
 3281 01e9 D8070000 		.4byte	.LASF64
 3282 01ed 03       		.sleb128 3
 3283 01ee 08       		.uleb128 0x8
 3284 01ef EF130000 		.4byte	.LASF65
 3285 01f3 04       		.sleb128 4
 3286 01f4 08       		.uleb128 0x8
 3287 01f5 2B050000 		.4byte	.LASF66
 3288 01f9 05       		.sleb128 5
 3289 01fa 08       		.uleb128 0x8
 3290 01fb 40080000 		.4byte	.LASF67
 3291 01ff 06       		.sleb128 6
 3292 0200 08       		.uleb128 0x8
ARM GAS  C:\Users\ADMINI~1\AppData\Local\Temp\ccjTNAQQ.s 			page 94


 3293 0201 FC0D0000 		.4byte	.LASF68
 3294 0205 07       		.sleb128 7
 3295 0206 08       		.uleb128 0x8
 3296 0207 0B050000 		.4byte	.LASF69
 3297 020b 08       		.sleb128 8
 3298 020c 08       		.uleb128 0x8
 3299 020d AD0B0000 		.4byte	.LASF70
 3300 0211 09       		.sleb128 9
 3301 0212 08       		.uleb128 0x8
 3302 0213 BA130000 		.4byte	.LASF71
 3303 0217 0A       		.sleb128 10
 3304 0218 08       		.uleb128 0x8
 3305 0219 83130000 		.4byte	.LASF72
 3306 021d 0B       		.sleb128 11
 3307 021e 08       		.uleb128 0x8
 3308 021f D7030000 		.4byte	.LASF73
 3309 0223 0C       		.sleb128 12
 3310 0224 08       		.uleb128 0x8
 3311 0225 25120000 		.4byte	.LASF74
 3312 0229 0D       		.sleb128 13
 3313 022a 08       		.uleb128 0x8
 3314 022b 52000000 		.4byte	.LASF75
 3315 022f 0E       		.sleb128 14
 3316 0230 08       		.uleb128 0x8
 3317 0231 32060000 		.4byte	.LASF76
 3318 0235 0F       		.sleb128 15
 3319 0236 08       		.uleb128 0x8
 3320 0237 63040000 		.4byte	.LASF77
 3321 023b 10       		.sleb128 16
 3322 023c 08       		.uleb128 0x8
 3323 023d 4C0D0000 		.4byte	.LASF78
 3324 0241 11       		.sleb128 17
 3325 0242 08       		.uleb128 0x8
 3326 0243 21110000 		.4byte	.LASF79
 3327 0247 12       		.sleb128 18
 3328 0248 08       		.uleb128 0x8
 3329 0249 030D0000 		.4byte	.LASF80
 3330 024d 13       		.sleb128 19
 3331 024e 08       		.uleb128 0x8
 3332 024f 360E0000 		.4byte	.LASF81
 3333 0253 14       		.sleb128 20
 3334 0254 08       		.uleb128 0x8
 3335 0255 F2010000 		.4byte	.LASF82
 3336 0259 15       		.sleb128 21
 3337 025a 08       		.uleb128 0x8
 3338 025b B2120000 		.4byte	.LASF83
 3339 025f 16       		.sleb128 22
 3340 0260 08       		.uleb128 0x8
 3341 0261 08040000 		.4byte	.LASF84
 3342 0265 17       		.sleb128 23
 3343 0266 08       		.uleb128 0x8
 3344 0267 5D140000 		.4byte	.LASF85
 3345 026b 18       		.sleb128 24
 3346 026c 08       		.uleb128 0x8
 3347 026d D0080000 		.4byte	.LASF86
 3348 0271 19       		.sleb128 25
 3349 0272 08       		.uleb128 0x8
ARM GAS  C:\Users\ADMINI~1\AppData\Local\Temp\ccjTNAQQ.s 			page 95


 3350 0273 12060000 		.4byte	.LASF87
 3351 0277 1A       		.sleb128 26
 3352 0278 08       		.uleb128 0x8
 3353 0279 2E030000 		.4byte	.LASF88
 3354 027d 1B       		.sleb128 27
 3355 027e 08       		.uleb128 0x8
 3356 027f 94000000 		.4byte	.LASF89
 3357 0283 1C       		.sleb128 28
 3358 0284 08       		.uleb128 0x8
 3359 0285 020B0000 		.4byte	.LASF90
 3360 0289 1D       		.sleb128 29
 3361 028a 08       		.uleb128 0x8
 3362 028b D20D0000 		.4byte	.LASF91
 3363 028f 1E       		.sleb128 30
 3364 0290 08       		.uleb128 0x8
 3365 0291 70070000 		.4byte	.LASF92
 3366 0295 1F       		.sleb128 31
 3367 0296 08       		.uleb128 0x8
 3368 0297 35040000 		.4byte	.LASF93
 3369 029b 20       		.sleb128 32
 3370 029c 08       		.uleb128 0x8
 3371 029d C10A0000 		.4byte	.LASF94
 3372 02a1 21       		.sleb128 33
 3373 02a2 08       		.uleb128 0x8
 3374 02a3 7F090000 		.4byte	.LASF95
 3375 02a7 22       		.sleb128 34
 3376 02a8 08       		.uleb128 0x8
 3377 02a9 14090000 		.4byte	.LASF96
 3378 02ad 23       		.sleb128 35
 3379 02ae 08       		.uleb128 0x8
 3380 02af E50B0000 		.4byte	.LASF97
 3381 02b3 24       		.sleb128 36
 3382 02b4 08       		.uleb128 0x8
 3383 02b5 8F040000 		.4byte	.LASF98
 3384 02b9 25       		.sleb128 37
 3385 02ba 08       		.uleb128 0x8
 3386 02bb CD050000 		.4byte	.LASF99
 3387 02bf 26       		.sleb128 38
 3388 02c0 08       		.uleb128 0x8
 3389 02c1 E9020000 		.4byte	.LASF100
 3390 02c5 27       		.sleb128 39
 3391 02c6 08       		.uleb128 0x8
 3392 02c7 E20C0000 		.4byte	.LASF101
 3393 02cb 28       		.sleb128 40
 3394 02cc 08       		.uleb128 0x8
 3395 02cd FD100000 		.4byte	.LASF102
 3396 02d1 29       		.sleb128 41
 3397 02d2 08       		.uleb128 0x8
 3398 02d3 930D0000 		.4byte	.LASF103
 3399 02d7 2A       		.sleb128 42
 3400 02d8 08       		.uleb128 0x8
 3401 02d9 C40B0000 		.4byte	.LASF104
 3402 02dd 2B       		.sleb128 43
 3403 02de 08       		.uleb128 0x8
 3404 02df C6040000 		.4byte	.LASF105
 3405 02e3 2C       		.sleb128 44
 3406 02e4 08       		.uleb128 0x8
ARM GAS  C:\Users\ADMINI~1\AppData\Local\Temp\ccjTNAQQ.s 			page 96


 3407 02e5 F3070000 		.4byte	.LASF106
 3408 02e9 2D       		.sleb128 45
 3409 02ea 08       		.uleb128 0x8
 3410 02eb C3000000 		.4byte	.LASF107
 3411 02ef 2E       		.sleb128 46
 3412 02f0 08       		.uleb128 0x8
 3413 02f1 970A0000 		.4byte	.LASF108
 3414 02f5 2F       		.sleb128 47
 3415 02f6 08       		.uleb128 0x8
 3416 02f7 73100000 		.4byte	.LASF109
 3417 02fb 30       		.sleb128 48
 3418 02fc 08       		.uleb128 0x8
 3419 02fd 68010000 		.4byte	.LASF110
 3420 0301 31       		.sleb128 49
 3421 0302 00       		.byte	0
 3422 0303 04       		.uleb128 0x4
 3423 0304 75050000 		.4byte	.LASF111
 3424 0308 06       		.byte	0x6
 3425 0309 24       		.byte	0x24
 3426 030a 25000000 		.4byte	0x25
 3427 030e 07       		.uleb128 0x7
 3428 030f C0050000 		.4byte	.LASF112
 3429 0313 01       		.byte	0x1
 3430 0314 07       		.byte	0x7
 3431 0315 F9       		.byte	0xf9
 3432 0316 2D030000 		.4byte	0x32d
 3433 031a 08       		.uleb128 0x8
 3434 031b 0C020000 		.4byte	.LASF113
 3435 031f 00       		.sleb128 0
 3436 0320 08       		.uleb128 0x8
 3437 0321 D80C0000 		.4byte	.LASF114
 3438 0325 01       		.sleb128 1
 3439 0326 08       		.uleb128 0x8
 3440 0327 F8090000 		.4byte	.LASF115
 3441 032b 02       		.sleb128 2
 3442 032c 00       		.byte	0
 3443 032d 03       		.uleb128 0x3
 3444 032e 08       		.byte	0x8
 3445 032f 04       		.byte	0x4
 3446 0330 07130000 		.4byte	.LASF116
 3447 0334 03       		.uleb128 0x3
 3448 0335 04       		.byte	0x4
 3449 0336 04       		.byte	0x4
 3450 0337 89040000 		.4byte	.LASF117
 3451 033b 03       		.uleb128 0x3
 3452 033c 08       		.byte	0x8
 3453 033d 04       		.byte	0x4
 3454 033e BB0C0000 		.4byte	.LASF118
 3455 0342 0A       		.uleb128 0xa
 3456 0343 02       		.byte	0x2
 3457 0344 01       		.byte	0x1
 3458 0345 AD       		.byte	0xad
 3459 0346 63030000 		.4byte	0x363
 3460 034a 0B       		.uleb128 0xb
 3461 034b 12010000 		.4byte	.LASF119
 3462 034f 01       		.byte	0x1
 3463 0350 AE       		.byte	0xae
ARM GAS  C:\Users\ADMINI~1\AppData\Local\Temp\ccjTNAQQ.s 			page 97


 3464 0351 C9010000 		.4byte	0x1c9
 3465 0355 00       		.byte	0
 3466 0356 0B       		.uleb128 0xb
 3467 0357 E1040000 		.4byte	.LASF120
 3468 035b 01       		.byte	0x1
 3469 035c AF       		.byte	0xaf
 3470 035d AD000000 		.4byte	0xad
 3471 0361 01       		.byte	0x1
 3472 0362 00       		.byte	0
 3473 0363 04       		.uleb128 0x4
 3474 0364 4F0F0000 		.4byte	.LASF121
 3475 0368 01       		.byte	0x1
 3476 0369 B0       		.byte	0xb0
 3477 036a 42030000 		.4byte	0x342
 3478 036e 0C       		.uleb128 0xc
 3479 036f 68080000 		.4byte	.LASF122
 3480 0373 01       		.byte	0x1
 3481 0374 5C01     		.2byte	0x15c
 3482 0376 53000000 		.4byte	0x53
 3483 037a 0D       		.uleb128 0xd
 3484 037b 75313600 		.ascii	"u16\000"
 3485 037f 01       		.byte	0x1
 3486 0380 5D01     		.2byte	0x15d
 3487 0382 53000000 		.4byte	0x53
 3488 0386 0D       		.uleb128 0xd
 3489 0387 75333200 		.ascii	"u32\000"
 3490 038b 01       		.byte	0x1
 3491 038c 5E01     		.2byte	0x15e
 3492 038e 6C000000 		.4byte	0x6c
 3493 0392 0E       		.uleb128 0xe
 3494 0393 95020000 		.4byte	.LASF130
 3495 0397 01       		.byte	0x1
 3496 0398 7D01     		.2byte	0x17d
 3497 039a 03030000 		.4byte	0x303
 3498 039e 01       		.byte	0x1
 3499 039f E2030000 		.4byte	0x3e2
 3500 03a3 0F       		.uleb128 0xf
 3501 03a4 0B090000 		.4byte	.LASF123
 3502 03a8 01       		.byte	0x1
 3503 03a9 7F01     		.2byte	0x17f
 3504 03ab 6E030000 		.4byte	0x36e
 3505 03af 0F       		.uleb128 0xf
 3506 03b0 82100000 		.4byte	.LASF124
 3507 03b4 01       		.byte	0x1
 3508 03b5 8001     		.2byte	0x180
 3509 03b7 7A030000 		.4byte	0x37a
 3510 03bb 0F       		.uleb128 0xf
 3511 03bc E1040000 		.4byte	.LASF120
 3512 03c0 01       		.byte	0x1
 3513 03c1 8101     		.2byte	0x181
 3514 03c3 AD000000 		.4byte	0xad
 3515 03c7 10       		.uleb128 0x10
 3516 03c8 F6100000 		.4byte	.LASF125
 3517 03cc 01       		.byte	0x1
 3518 03cd 8401     		.2byte	0x184
 3519 03cf 03030000 		.4byte	0x303
 3520 03d3 11       		.uleb128 0x11
ARM GAS  C:\Users\ADMINI~1\AppData\Local\Temp\ccjTNAQQ.s 			page 98


 3521 03d4 10       		.uleb128 0x10
 3522 03d5 25000000 		.4byte	.LASF126
 3523 03d9 01       		.byte	0x1
 3524 03da 8801     		.2byte	0x188
 3525 03dc 7A030000 		.4byte	0x37a
 3526 03e0 00       		.byte	0
 3527 03e1 00       		.byte	0
 3528 03e2 12       		.uleb128 0x12
 3529 03e3 33000000 		.4byte	.LASF128
 3530 03e7 01       		.byte	0x1
 3531 03e8 AF05     		.2byte	0x5af
 3532 03ea 01       		.byte	0x1
 3533 03eb FC030000 		.4byte	0x3fc
 3534 03ef 0F       		.uleb128 0xf
 3535 03f0 E4060000 		.4byte	.LASF127
 3536 03f4 01       		.byte	0x1
 3537 03f5 AF05     		.2byte	0x5af
 3538 03f7 45000000 		.4byte	0x45
 3539 03fb 00       		.byte	0
 3540 03fc 12       		.uleb128 0x12
 3541 03fd 2E0A0000 		.4byte	.LASF129
 3542 0401 01       		.byte	0x1
 3543 0402 C305     		.2byte	0x5c3
 3544 0404 01       		.byte	0x1
 3545 0405 16040000 		.4byte	0x416
 3546 0409 0F       		.uleb128 0xf
 3547 040a E4060000 		.4byte	.LASF127
 3548 040e 01       		.byte	0x1
 3549 040f C305     		.2byte	0x5c3
 3550 0411 45000000 		.4byte	0x45
 3551 0415 00       		.byte	0
 3552 0416 0E       		.uleb128 0xe
 3553 0417 5B070000 		.4byte	.LASF131
 3554 041b 01       		.byte	0x1
 3555 041c 9201     		.2byte	0x192
 3556 041e 7A030000 		.4byte	0x37a
 3557 0422 01       		.byte	0x1
 3558 0423 40040000 		.4byte	0x440
 3559 0427 0F       		.uleb128 0xf
 3560 0428 0B090000 		.4byte	.LASF123
 3561 042c 01       		.byte	0x1
 3562 042d 9201     		.2byte	0x192
 3563 042f 6E030000 		.4byte	0x36e
 3564 0433 10       		.uleb128 0x10
 3565 0434 D1100000 		.4byte	.LASF132
 3566 0438 01       		.byte	0x1
 3567 0439 9401     		.2byte	0x194
 3568 043b 7A030000 		.4byte	0x37a
 3569 043f 00       		.byte	0
 3570 0440 13       		.uleb128 0x13
 3571 0441 00000000 		.4byte	.LASF232
 3572 0445 01       		.byte	0x1
 3573 0446 0104     		.2byte	0x401
 3574 0448 01       		.byte	0x1
 3575 0449 8A040000 		.4byte	0x48a
 3576 044d 0F       		.uleb128 0xf
 3577 044e D1010000 		.4byte	.LASF133
ARM GAS  C:\Users\ADMINI~1\AppData\Local\Temp\ccjTNAQQ.s 			page 99


 3578 0452 01       		.byte	0x1
 3579 0453 0104     		.2byte	0x401
 3580 0455 45000000 		.4byte	0x45
 3581 0459 0F       		.uleb128 0xf
 3582 045a E4060000 		.4byte	.LASF127
 3583 045e 01       		.byte	0x1
 3584 045f 0104     		.2byte	0x401
 3585 0461 45000000 		.4byte	0x45
 3586 0465 0F       		.uleb128 0xf
 3587 0466 A7080000 		.4byte	.LASF134
 3588 046a 01       		.byte	0x1
 3589 046b 0104     		.2byte	0x401
 3590 046d 8A040000 		.4byte	0x48a
 3591 0471 0F       		.uleb128 0xf
 3592 0472 37140000 		.4byte	.LASF135
 3593 0476 01       		.byte	0x1
 3594 0477 0104     		.2byte	0x401
 3595 0479 95040000 		.4byte	0x495
 3596 047d 10       		.uleb128 0x10
 3597 047e 8A120000 		.4byte	.LASF136
 3598 0482 01       		.byte	0x1
 3599 0483 0304     		.2byte	0x403
 3600 0485 4C000000 		.4byte	0x4c
 3601 0489 00       		.byte	0
 3602 048a 06       		.uleb128 0x6
 3603 048b 04       		.byte	0x4
 3604 048c 90040000 		.4byte	0x490
 3605 0490 14       		.uleb128 0x14
 3606 0491 4C000000 		.4byte	0x4c
 3607 0495 06       		.uleb128 0x6
 3608 0496 04       		.byte	0x4
 3609 0497 53000000 		.4byte	0x53
 3610 049b 0E       		.uleb128 0xe
 3611 049c EC120000 		.4byte	.LASF137
 3612 04a0 01       		.byte	0x1
 3613 04a1 B504     		.2byte	0x4b5
 3614 04a3 03030000 		.4byte	0x303
 3615 04a7 01       		.byte	0x1
 3616 04a8 19050000 		.4byte	0x519
 3617 04ac 0F       		.uleb128 0xf
 3618 04ad D1010000 		.4byte	.LASF133
 3619 04b1 01       		.byte	0x1
 3620 04b2 B504     		.2byte	0x4b5
 3621 04b4 45000000 		.4byte	0x45
 3622 04b8 0F       		.uleb128 0xf
 3623 04b9 E4060000 		.4byte	.LASF127
 3624 04bd 01       		.byte	0x1
 3625 04be B504     		.2byte	0x4b5
 3626 04c0 45000000 		.4byte	0x45
 3627 04c4 0F       		.uleb128 0xf
 3628 04c5 04120000 		.4byte	.LASF138
 3629 04c9 01       		.byte	0x1
 3630 04ca B504     		.2byte	0x4b5
 3631 04cc 8A000000 		.4byte	0x8a
 3632 04d0 10       		.uleb128 0x10
 3633 04d1 8F030000 		.4byte	.LASF139
 3634 04d5 01       		.byte	0x1
ARM GAS  C:\Users\ADMINI~1\AppData\Local\Temp\ccjTNAQQ.s 			page 100


 3635 04d6 B704     		.2byte	0x4b7
 3636 04d8 03030000 		.4byte	0x303
 3637 04dc 10       		.uleb128 0x10
 3638 04dd 71130000 		.4byte	.LASF140
 3639 04e1 01       		.byte	0x1
 3640 04e2 B804     		.2byte	0x4b8
 3641 04e4 53000000 		.4byte	0x53
 3642 04e8 10       		.uleb128 0x10
 3643 04e9 B8000000 		.4byte	.LASF141
 3644 04ed 01       		.byte	0x1
 3645 04ee BA04     		.2byte	0x4ba
 3646 04f0 53000000 		.4byte	0x53
 3647 04f4 10       		.uleb128 0x10
 3648 04f5 98080000 		.4byte	.LASF142
 3649 04f9 01       		.byte	0x1
 3650 04fa BB04     		.2byte	0x4bb
 3651 04fc 53000000 		.4byte	0x53
 3652 0500 10       		.uleb128 0x10
 3653 0501 CF0E0000 		.4byte	.LASF143
 3654 0505 01       		.byte	0x1
 3655 0506 BD04     		.2byte	0x4bd
 3656 0508 53000000 		.4byte	0x53
 3657 050c 10       		.uleb128 0x10
 3658 050d 5D040000 		.4byte	.LASF144
 3659 0511 01       		.byte	0x1
 3660 0512 BF04     		.2byte	0x4bf
 3661 0514 6C000000 		.4byte	0x6c
 3662 0518 00       		.byte	0
 3663 0519 15       		.uleb128 0x15
 3664 051a 92030000 		.4byte	0x392
 3665 051e 00000000 		.4byte	.LFB2
 3666 0522 40000000 		.4byte	.LFE2-.LFB2
 3667 0526 01       		.uleb128 0x1
 3668 0527 9C       		.byte	0x9c
 3669 0528 A8050000 		.4byte	0x5a8
 3670 052c 16       		.uleb128 0x16
 3671 052d A3030000 		.4byte	0x3a3
 3672 0531 00000000 		.4byte	.LLST0
 3673 0535 16       		.uleb128 0x16
 3674 0536 AF030000 		.4byte	0x3af
 3675 053a 21000000 		.4byte	.LLST1
 3676 053e 16       		.uleb128 0x16
 3677 053f BB030000 		.4byte	0x3bb
 3678 0543 42000000 		.4byte	.LLST2
 3679 0547 17       		.uleb128 0x17
 3680 0548 C7030000 		.4byte	0x3c7
 3681 054c 63000000 		.4byte	.LLST3
 3682 0550 18       		.uleb128 0x18
 3683 0551 0E000000 		.4byte	.LBB13
 3684 0555 24000000 		.4byte	.LBE13-.LBB13
 3685 0559 16       		.uleb128 0x16
 3686 055a BB030000 		.4byte	0x3bb
 3687 055e 82000000 		.4byte	.LLST4
 3688 0562 16       		.uleb128 0x16
 3689 0563 AF030000 		.4byte	0x3af
 3690 0567 95000000 		.4byte	.LLST5
 3691 056b 16       		.uleb128 0x16
ARM GAS  C:\Users\ADMINI~1\AppData\Local\Temp\ccjTNAQQ.s 			page 101


 3692 056c A3030000 		.4byte	0x3a3
 3693 0570 A8000000 		.4byte	.LLST6
 3694 0574 18       		.uleb128 0x18
 3695 0575 0E000000 		.4byte	.LBB14
 3696 0579 24000000 		.4byte	.LBE14-.LBB14
 3697 057d 19       		.uleb128 0x19
 3698 057e C7030000 		.4byte	0x3c7
 3699 0582 18       		.uleb128 0x18
 3700 0583 0E000000 		.4byte	.LBB15
 3701 0587 24000000 		.4byte	.LBE15-.LBB15
 3702 058b 17       		.uleb128 0x17
 3703 058c D4030000 		.4byte	0x3d4
 3704 0590 BB000000 		.4byte	.LLST7
 3705 0594 1A       		.uleb128 0x1a
 3706 0595 32000000 		.4byte	.LVL10
 3707 0599 18130000 		.4byte	0x1318
 3708 059d 1B       		.uleb128 0x1b
 3709 059e 01       		.uleb128 0x1
 3710 059f 50       		.byte	0x50
 3711 05a0 02       		.uleb128 0x2
 3712 05a1 74       		.byte	0x74
 3713 05a2 00       		.sleb128 0
 3714 05a3 00       		.byte	0
 3715 05a4 00       		.byte	0
 3716 05a5 00       		.byte	0
 3717 05a6 00       		.byte	0
 3718 05a7 00       		.byte	0
 3719 05a8 1C       		.uleb128 0x1c
 3720 05a9 D2090000 		.4byte	.LASF202
 3721 05ad 01       		.byte	0x1
 3722 05ae A6       		.byte	0xa6
 3723 05af 6C000000 		.4byte	0x6c
 3724 05b3 01       		.byte	0x1
 3725 05b4 C4050000 		.4byte	0x5c4
 3726 05b8 1D       		.uleb128 0x1d
 3727 05b9 D1010000 		.4byte	.LASF133
 3728 05bd 01       		.byte	0x1
 3729 05be A6       		.byte	0xa6
 3730 05bf 45000000 		.4byte	0x45
 3731 05c3 00       		.byte	0
 3732 05c4 1E       		.uleb128 0x1e
 3733 05c5 A8050000 		.4byte	0x5a8
 3734 05c9 00000000 		.4byte	.LFB0
 3735 05cd 1C000000 		.4byte	.LFE0-.LFB0
 3736 05d1 01       		.uleb128 0x1
 3737 05d2 9C       		.byte	0x9c
 3738 05d3 E1050000 		.4byte	0x5e1
 3739 05d7 16       		.uleb128 0x16
 3740 05d8 B8050000 		.4byte	0x5b8
 3741 05dc DB000000 		.4byte	.LLST8
 3742 05e0 00       		.byte	0
 3743 05e1 1F       		.uleb128 0x1f
 3744 05e2 08140000 		.4byte	.LASF233
 3745 05e6 01       		.byte	0x1
 3746 05e7 6301     		.2byte	0x163
 3747 05e9 6E030000 		.4byte	0x36e
 3748 05ed 00000000 		.4byte	.LFB1
ARM GAS  C:\Users\ADMINI~1\AppData\Local\Temp\ccjTNAQQ.s 			page 102


 3749 05f1 38000000 		.4byte	.LFE1-.LFB1
 3750 05f5 01       		.uleb128 0x1
 3751 05f6 9C       		.byte	0x9c
 3752 05f7 53060000 		.4byte	0x653
 3753 05fb 20       		.uleb128 0x20
 3754 05fc F2080000 		.4byte	.LASF145
 3755 0600 01       		.byte	0x1
 3756 0601 6501     		.2byte	0x165
 3757 0603 53060000 		.4byte	0x653
 3758 0607 FC000000 		.4byte	.LLST9
 3759 060b 20       		.uleb128 0x20
 3760 060c DD020000 		.4byte	.LASF146
 3761 0610 01       		.byte	0x1
 3762 0611 6601     		.2byte	0x166
 3763 0613 86030000 		.4byte	0x386
 3764 0617 1A010000 		.4byte	.LLST10
 3765 061b 21       		.uleb128 0x21
 3766 061c 0B090000 		.4byte	.LASF123
 3767 0620 01       		.byte	0x1
 3768 0621 6901     		.2byte	0x169
 3769 0623 6E030000 		.4byte	0x36e
 3770 0627 45010000 		.4byte	.LLST11
 3771 062b 22       		.uleb128 0x22
 3772 062c 16000000 		.4byte	.LBB16
 3773 0630 12000000 		.4byte	.LBE16-.LBB16
 3774 0634 49060000 		.4byte	0x649
 3775 0638 21       		.uleb128 0x21
 3776 0639 79100000 		.4byte	.LASF147
 3777 063d 01       		.byte	0x1
 3778 063e 6F01     		.2byte	0x16f
 3779 0640 6E030000 		.4byte	0x36e
 3780 0644 65010000 		.4byte	.LLST12
 3781 0648 00       		.byte	0
 3782 0649 23       		.uleb128 0x23
 3783 064a 12000000 		.4byte	.LVL16
 3784 064e A8050000 		.4byte	0x5a8
 3785 0652 00       		.byte	0
 3786 0653 06       		.uleb128 0x6
 3787 0654 04       		.byte	0x4
 3788 0655 59060000 		.4byte	0x659
 3789 0659 14       		.uleb128 0x14
 3790 065a 63030000 		.4byte	0x363
 3791 065e 24       		.uleb128 0x24
 3792 065f 8B0B0000 		.4byte	.LASF154
 3793 0663 01       		.byte	0x1
 3794 0664 4503     		.2byte	0x345
 3795 0666 03030000 		.4byte	0x303
 3796 066a 00000000 		.4byte	.LFB8
 3797 066e 00010000 		.4byte	.LFE8-.LFB8
 3798 0672 01       		.uleb128 0x1
 3799 0673 9C       		.byte	0x9c
 3800 0674 BF060000 		.4byte	0x6bf
 3801 0678 20       		.uleb128 0x20
 3802 0679 7D0C0000 		.4byte	.LASF148
 3803 067d 01       		.byte	0x1
 3804 067e 4503     		.2byte	0x345
 3805 0680 45000000 		.4byte	0x45
ARM GAS  C:\Users\ADMINI~1\AppData\Local\Temp\ccjTNAQQ.s 			page 103


 3806 0684 78010000 		.4byte	.LLST13
 3807 0688 25       		.uleb128 0x25
 3808 0689 6F647200 		.ascii	"odr\000"
 3809 068d 01       		.byte	0x1
 3810 068e 4503     		.2byte	0x345
 3811 0690 BF060000 		.4byte	0x6bf
 3812 0694 B2010000 		.4byte	.LLST14
 3813 0698 20       		.uleb128 0x20
 3814 0699 19080000 		.4byte	.LASF149
 3815 069d 01       		.byte	0x1
 3816 069e 4503     		.2byte	0x345
 3817 06a0 0E030000 		.4byte	0x30e
 3818 06a4 F4010000 		.4byte	.LLST15
 3819 06a8 26       		.uleb128 0x26
 3820 06a9 8F030000 		.4byte	.LASF139
 3821 06ad 01       		.byte	0x1
 3822 06ae 4703     		.2byte	0x347
 3823 06b0 03030000 		.4byte	0x303
 3824 06b4 00       		.byte	0
 3825 06b5 23       		.uleb128 0x23
 3826 06b6 EC000000 		.4byte	.LVL26
 3827 06ba 32130000 		.4byte	0x1332
 3828 06be 00       		.byte	0
 3829 06bf 06       		.uleb128 0x6
 3830 06c0 04       		.byte	0x4
 3831 06c1 A2000000 		.4byte	0xa2
 3832 06c5 27       		.uleb128 0x27
 3833 06c6 27130000 		.4byte	.LASF152
 3834 06ca 01       		.byte	0x1
 3835 06cb E603     		.2byte	0x3e6
 3836 06cd 00000000 		.4byte	.LFB9
 3837 06d1 38000000 		.4byte	.LFE9-.LFB9
 3838 06d5 01       		.uleb128 0x1
 3839 06d6 9C       		.byte	0x9c
 3840 06d7 32070000 		.4byte	0x732
 3841 06db 28       		.uleb128 0x28
 3842 06dc A7080000 		.4byte	.LASF134
 3843 06e0 01       		.byte	0x1
 3844 06e1 E603     		.2byte	0x3e6
 3845 06e3 8A040000 		.4byte	0x48a
 3846 06e7 01       		.uleb128 0x1
 3847 06e8 50       		.byte	0x50
 3848 06e9 28       		.uleb128 0x28
 3849 06ea 37140000 		.4byte	.LASF135
 3850 06ee 01       		.byte	0x1
 3851 06ef E603     		.2byte	0x3e6
 3852 06f1 95040000 		.4byte	0x495
 3853 06f5 01       		.uleb128 0x1
 3854 06f6 51       		.byte	0x51
 3855 06f7 21       		.uleb128 0x21
 3856 06f8 8A120000 		.4byte	.LASF136
 3857 06fc 01       		.byte	0x1
 3858 06fd E803     		.2byte	0x3e8
 3859 06ff 4C000000 		.4byte	0x4c
 3860 0703 2E020000 		.4byte	.LLST16
 3861 0707 29       		.uleb128 0x29
 3862 0708 6900     		.ascii	"i\000"
ARM GAS  C:\Users\ADMINI~1\AppData\Local\Temp\ccjTNAQQ.s 			page 104


 3863 070a 01       		.byte	0x1
 3864 070b E903     		.2byte	0x3e9
 3865 070d 25000000 		.4byte	0x25
 3866 0711 21       		.uleb128 0x21
 3867 0712 B3000000 		.4byte	.LASF150
 3868 0716 01       		.byte	0x1
 3869 0717 E903     		.2byte	0x3e9
 3870 0719 25000000 		.4byte	0x25
 3871 071d 41020000 		.4byte	.LLST17
 3872 0721 21       		.uleb128 0x21
 3873 0722 D90F0000 		.4byte	.LASF151
 3874 0726 01       		.byte	0x1
 3875 0727 EA03     		.2byte	0x3ea
 3876 0729 6C000000 		.4byte	0x6c
 3877 072d 58020000 		.4byte	.LLST18
 3878 0731 00       		.byte	0
 3879 0732 2A       		.uleb128 0x2a
 3880 0733 8F010000 		.4byte	.LASF156
 3881 0737 01       		.byte	0x1
 3882 0738 3D04     		.2byte	0x43d
 3883 073a 45000000 		.4byte	0x45
 3884 073e 00000000 		.4byte	.LFB11
 3885 0742 24000000 		.4byte	.LFE11-.LFB11
 3886 0746 01       		.uleb128 0x1
 3887 0747 9C       		.byte	0x9c
 3888 0748 1E       		.uleb128 0x1e
 3889 0749 E2030000 		.4byte	0x3e2
 3890 074d 00000000 		.4byte	.LFB14
 3891 0751 34000000 		.4byte	.LFE14-.LFB14
 3892 0755 01       		.uleb128 0x1
 3893 0756 9C       		.byte	0x9c
 3894 0757 A3070000 		.4byte	0x7a3
 3895 075b 16       		.uleb128 0x16
 3896 075c EF030000 		.4byte	0x3ef
 3897 0760 6B020000 		.4byte	.LLST19
 3898 0764 22       		.uleb128 0x22
 3899 0765 0E000000 		.4byte	.LBB21
 3900 0769 0A000000 		.4byte	.LBE21-.LBB21
 3901 076d 7B070000 		.4byte	0x77b
 3902 0771 16       		.uleb128 0x16
 3903 0772 EF030000 		.4byte	0x3ef
 3904 0776 A5020000 		.4byte	.LLST20
 3905 077a 00       		.byte	0
 3906 077b 2B       		.uleb128 0x2b
 3907 077c A8050000 		.4byte	0x5a8
 3908 0780 18000000 		.4byte	.LBB23
 3909 0784 08000000 		.4byte	.LBE23-.LBB23
 3910 0788 01       		.byte	0x1
 3911 0789 B805     		.2byte	0x5b8
 3912 078b 99070000 		.4byte	0x799
 3913 078f 16       		.uleb128 0x16
 3914 0790 B8050000 		.4byte	0x5b8
 3915 0794 B8020000 		.4byte	.LLST21
 3916 0798 00       		.byte	0
 3917 0799 23       		.uleb128 0x23
 3918 079a 2E000000 		.4byte	.LVL45
 3919 079e 4C130000 		.4byte	0x134c
ARM GAS  C:\Users\ADMINI~1\AppData\Local\Temp\ccjTNAQQ.s 			page 105


 3920 07a2 00       		.byte	0
 3921 07a3 1E       		.uleb128 0x1e
 3922 07a4 FC030000 		.4byte	0x3fc
 3923 07a8 00000000 		.4byte	.LFB15
 3924 07ac 34000000 		.4byte	.LFE15-.LFB15
 3925 07b0 01       		.uleb128 0x1
 3926 07b1 9C       		.byte	0x9c
 3927 07b2 DC070000 		.4byte	0x7dc
 3928 07b6 16       		.uleb128 0x16
 3929 07b7 09040000 		.4byte	0x409
 3930 07bb CD020000 		.4byte	.LLST22
 3931 07bf 18       		.uleb128 0x18
 3932 07c0 24000000 		.4byte	.LBB27
 3933 07c4 08000000 		.4byte	.LBE27-.LBB27
 3934 07c8 16       		.uleb128 0x16
 3935 07c9 09040000 		.4byte	0x409
 3936 07cd 07030000 		.4byte	.LLST23
 3937 07d1 23       		.uleb128 0x23
 3938 07d2 2C000000 		.4byte	.LVL52
 3939 07d6 4C130000 		.4byte	0x134c
 3940 07da 00       		.byte	0
 3941 07db 00       		.byte	0
 3942 07dc 27       		.uleb128 0x27
 3943 07dd AF100000 		.4byte	.LASF153
 3944 07e1 01       		.byte	0x1
 3945 07e2 EB05     		.2byte	0x5eb
 3946 07e4 00000000 		.4byte	.LFB17
 3947 07e8 18000000 		.4byte	.LFE17-.LFB17
 3948 07ec 01       		.uleb128 0x1
 3949 07ed 9C       		.byte	0x9c
 3950 07ee 01080000 		.4byte	0x801
 3951 07f2 28       		.uleb128 0x28
 3952 07f3 E4060000 		.4byte	.LASF127
 3953 07f7 01       		.byte	0x1
 3954 07f8 EB05     		.2byte	0x5eb
 3955 07fa 45000000 		.4byte	0x45
 3956 07fe 01       		.uleb128 0x1
 3957 07ff 50       		.byte	0x50
 3958 0800 00       		.byte	0
 3959 0801 24       		.uleb128 0x24
 3960 0802 FA080000 		.4byte	.LASF155
 3961 0806 01       		.byte	0x1
 3962 0807 D405     		.2byte	0x5d4
 3963 0809 03030000 		.4byte	0x303
 3964 080d 00000000 		.4byte	.LFB16
 3965 0811 3C000000 		.4byte	.LFE16-.LFB16
 3966 0815 01       		.uleb128 0x1
 3967 0816 9C       		.byte	0x9c
 3968 0817 55080000 		.4byte	0x855
 3969 081b 20       		.uleb128 0x20
 3970 081c E4060000 		.4byte	.LASF127
 3971 0820 01       		.byte	0x1
 3972 0821 D405     		.2byte	0x5d4
 3973 0823 45000000 		.4byte	0x45
 3974 0827 1B030000 		.4byte	.LLST24
 3975 082b 2C       		.uleb128 0x2c
 3976 082c 72657400 		.ascii	"ret\000"
ARM GAS  C:\Users\ADMINI~1\AppData\Local\Temp\ccjTNAQQ.s 			page 106


 3977 0830 01       		.byte	0x1
 3978 0831 D605     		.2byte	0x5d6
 3979 0833 25000000 		.4byte	0x25
 3980 0837 55030000 		.4byte	.LLST25
 3981 083b 23       		.uleb128 0x23
 3982 083c 28000000 		.4byte	.LVL58
 3983 0840 61130000 		.4byte	0x1361
 3984 0844 1A       		.uleb128 0x1a
 3985 0845 30000000 		.4byte	.LVL61
 3986 0849 DC070000 		.4byte	0x7dc
 3987 084d 1B       		.uleb128 0x1b
 3988 084e 01       		.uleb128 0x1
 3989 084f 50       		.byte	0x50
 3990 0850 02       		.uleb128 0x2
 3991 0851 74       		.byte	0x74
 3992 0852 00       		.sleb128 0
 3993 0853 00       		.byte	0
 3994 0854 00       		.byte	0
 3995 0855 2A       		.uleb128 0x2a
 3996 0856 16020000 		.4byte	.LASF157
 3997 085a 01       		.byte	0x1
 3998 085b F305     		.2byte	0x5f3
 3999 085d 45000000 		.4byte	0x45
 4000 0861 00000000 		.4byte	.LFB18
 4001 0865 0C000000 		.4byte	.LFE18-.LFB18
 4002 0869 01       		.uleb128 0x1
 4003 086a 9C       		.byte	0x9c
 4004 086b 2D       		.uleb128 0x2d
 4005 086c A4020000 		.4byte	.LASF158
 4006 0870 01       		.byte	0x1
 4007 0871 F905     		.2byte	0x5f9
 4008 0873 03030000 		.4byte	0x303
 4009 0877 00000000 		.4byte	.LFB19
 4010 087b 54000000 		.4byte	.LFE19-.LFB19
 4011 087f 01       		.uleb128 0x1
 4012 0880 9C       		.byte	0x9c
 4013 0881 C1080000 		.4byte	0x8c1
 4014 0885 20       		.uleb128 0x20
 4015 0886 3E0A0000 		.4byte	.LASF159
 4016 088a 01       		.byte	0x1
 4017 088b F905     		.2byte	0x5f9
 4018 088d 53000000 		.4byte	0x53
 4019 0891 8A030000 		.4byte	.LLST26
 4020 0895 21       		.uleb128 0x21
 4021 0896 C9100000 		.4byte	.LASF160
 4022 089a 01       		.byte	0x1
 4023 089b FB05     		.2byte	0x5fb
 4024 089d 2C000000 		.4byte	0x2c
 4025 08a1 DD030000 		.4byte	.LLST27
 4026 08a5 23       		.uleb128 0x23
 4027 08a6 14000000 		.4byte	.LVL64
 4028 08aa 76130000 		.4byte	0x1376
 4029 08ae 23       		.uleb128 0x23
 4030 08af 30000000 		.4byte	.LVL68
 4031 08b3 81130000 		.4byte	0x1381
 4032 08b7 23       		.uleb128 0x23
 4033 08b8 40000000 		.4byte	.LVL71
ARM GAS  C:\Users\ADMINI~1\AppData\Local\Temp\ccjTNAQQ.s 			page 107


 4034 08bc 8C130000 		.4byte	0x138c
 4035 08c0 00       		.byte	0
 4036 08c1 2D       		.uleb128 0x2d
 4037 08c2 30020000 		.4byte	.LASF161
 4038 08c6 01       		.byte	0x1
 4039 08c7 1F06     		.2byte	0x61f
 4040 08c9 03030000 		.4byte	0x303
 4041 08cd 00000000 		.4byte	.LFB20
 4042 08d1 64000000 		.4byte	.LFE20-.LFB20
 4043 08d5 01       		.uleb128 0x1
 4044 08d6 9C       		.byte	0x9c
 4045 08d7 17090000 		.4byte	0x917
 4046 08db 20       		.uleb128 0x20
 4047 08dc 4A070000 		.4byte	.LASF162
 4048 08e0 01       		.byte	0x1
 4049 08e1 1F06     		.2byte	0x61f
 4050 08e3 53000000 		.4byte	0x53
 4051 08e7 44040000 		.4byte	.LLST28
 4052 08eb 21       		.uleb128 0x21
 4053 08ec C9100000 		.4byte	.LASF160
 4054 08f0 01       		.byte	0x1
 4055 08f1 2106     		.2byte	0x621
 4056 08f3 2C000000 		.4byte	0x2c
 4057 08f7 97040000 		.4byte	.LLST29
 4058 08fb 23       		.uleb128 0x23
 4059 08fc 14000000 		.4byte	.LVL76
 4060 0900 76130000 		.4byte	0x1376
 4061 0904 23       		.uleb128 0x23
 4062 0905 38000000 		.4byte	.LVL81
 4063 0909 81130000 		.4byte	0x1381
 4064 090d 23       		.uleb128 0x23
 4065 090e 50000000 		.4byte	.LVL85
 4066 0912 8C130000 		.4byte	0x138c
 4067 0916 00       		.byte	0
 4068 0917 2A       		.uleb128 0x2a
 4069 0918 5F020000 		.4byte	.LASF163
 4070 091c 01       		.byte	0x1
 4071 091d 4706     		.2byte	0x647
 4072 091f 2D090000 		.4byte	0x92d
 4073 0923 00000000 		.4byte	.LFB21
 4074 0927 0C000000 		.4byte	.LFE21-.LFB21
 4075 092b 01       		.uleb128 0x1
 4076 092c 9C       		.byte	0x9c
 4077 092d 06       		.uleb128 0x6
 4078 092e 04       		.byte	0x4
 4079 092f 6C000000 		.4byte	0x6c
 4080 0933 2A       		.uleb128 0x2a
 4081 0934 720A0000 		.4byte	.LASF164
 4082 0938 01       		.byte	0x1
 4083 0939 4D06     		.2byte	0x64d
 4084 093b 53000000 		.4byte	0x53
 4085 093f 00000000 		.4byte	.LFB22
 4086 0943 0C000000 		.4byte	.LFE22-.LFB22
 4087 0947 01       		.uleb128 0x1
 4088 0948 9C       		.byte	0x9c
 4089 0949 24       		.uleb128 0x24
 4090 094a 53130000 		.4byte	.LASF165
ARM GAS  C:\Users\ADMINI~1\AppData\Local\Temp\ccjTNAQQ.s 			page 108


 4091 094e 01       		.byte	0x1
 4092 094f 5706     		.2byte	0x657
 4093 0951 03030000 		.4byte	0x303
 4094 0955 00000000 		.4byte	.LFB23
 4095 0959 24000000 		.4byte	.LFE23-.LFB23
 4096 095d 01       		.uleb128 0x1
 4097 095e 9C       		.byte	0x9c
 4098 095f 9D090000 		.4byte	0x99d
 4099 0963 20       		.uleb128 0x20
 4100 0964 68120000 		.4byte	.LASF166
 4101 0968 01       		.byte	0x1
 4102 0969 5706     		.2byte	0x657
 4103 096b 53000000 		.4byte	0x53
 4104 096f 06050000 		.4byte	.LLST30
 4105 0973 21       		.uleb128 0x21
 4106 0974 8F030000 		.4byte	.LASF139
 4107 0978 01       		.byte	0x1
 4108 0979 5906     		.2byte	0x659
 4109 097b 03030000 		.4byte	0x303
 4110 097f 27050000 		.4byte	.LLST31
 4111 0983 21       		.uleb128 0x21
 4112 0984 2D010000 		.4byte	.LASF167
 4113 0988 01       		.byte	0x1
 4114 0989 5A06     		.2byte	0x65a
 4115 098b 25000000 		.4byte	0x25
 4116 098f 46050000 		.4byte	.LLST32
 4117 0993 23       		.uleb128 0x23
 4118 0994 18000000 		.4byte	.LVL92
 4119 0998 A6130000 		.4byte	0x13a6
 4120 099c 00       		.byte	0
 4121 099d 24       		.uleb128 0x24
 4122 099e A20C0000 		.4byte	.LASF168
 4123 09a2 01       		.byte	0x1
 4124 09a3 7306     		.2byte	0x673
 4125 09a5 03030000 		.4byte	0x303
 4126 09a9 00000000 		.4byte	.LFB24
 4127 09ad A4000000 		.4byte	.LFE24-.LFB24
 4128 09b1 01       		.uleb128 0x1
 4129 09b2 9C       		.byte	0x9c
 4130 09b3 150A0000 		.4byte	0xa15
 4131 09b7 20       		.uleb128 0x20
 4132 09b8 68120000 		.4byte	.LASF166
 4133 09bc 01       		.byte	0x1
 4134 09bd 7306     		.2byte	0x673
 4135 09bf 53000000 		.4byte	0x53
 4136 09c3 69050000 		.4byte	.LLST33
 4137 09c7 21       		.uleb128 0x21
 4138 09c8 8F030000 		.4byte	.LASF139
 4139 09cc 01       		.byte	0x1
 4140 09cd 7506     		.2byte	0x675
 4141 09cf 03030000 		.4byte	0x303
 4142 09d3 8A050000 		.4byte	.LLST34
 4143 09d7 2E       		.uleb128 0x2e
 4144 09d8 1E100000 		.4byte	.LASF55
 4145 09dc 01       		.byte	0x1
 4146 09dd 7606     		.2byte	0x676
 4147 09df 150A0000 		.4byte	0xa15
ARM GAS  C:\Users\ADMINI~1\AppData\Local\Temp\ccjTNAQQ.s 			page 109


 4148 09e3 02       		.uleb128 0x2
 4149 09e4 91       		.byte	0x91
 4150 09e5 6C       		.sleb128 -20
 4151 09e6 2F       		.uleb128 0x2f
 4152 09e7 0E000000 		.4byte	.LVL95
 4153 09eb BB130000 		.4byte	0x13bb
 4154 09ef 040A0000 		.4byte	0xa04
 4155 09f3 1B       		.uleb128 0x1b
 4156 09f4 01       		.uleb128 0x1
 4157 09f5 52       		.byte	0x52
 4158 09f6 01       		.uleb128 0x1
 4159 09f7 3C       		.byte	0x3c
 4160 09f8 1B       		.uleb128 0x1b
 4161 09f9 01       		.uleb128 0x1
 4162 09fa 51       		.byte	0x51
 4163 09fb 01       		.uleb128 0x1
 4164 09fc 30       		.byte	0x30
 4165 09fd 1B       		.uleb128 0x1b
 4166 09fe 01       		.uleb128 0x1
 4167 09ff 50       		.byte	0x50
 4168 0a00 02       		.uleb128 0x2
 4169 0a01 91       		.byte	0x91
 4170 0a02 6C       		.sleb128 -20
 4171 0a03 00       		.byte	0
 4172 0a04 1A       		.uleb128 0x1a
 4173 0a05 6E000000 		.4byte	.LVL96
 4174 0a09 D8130000 		.4byte	0x13d8
 4175 0a0d 1B       		.uleb128 0x1b
 4176 0a0e 01       		.uleb128 0x1
 4177 0a0f 50       		.byte	0x50
 4178 0a10 02       		.uleb128 0x2
 4179 0a11 91       		.byte	0x91
 4180 0a12 6C       		.sleb128 -20
 4181 0a13 00       		.byte	0
 4182 0a14 00       		.byte	0
 4183 0a15 30       		.uleb128 0x30
 4184 0a16 25000000 		.4byte	0x25
 4185 0a1a 250A0000 		.4byte	0xa25
 4186 0a1e 31       		.uleb128 0x31
 4187 0a1f 81000000 		.4byte	0x81
 4188 0a23 02       		.byte	0x2
 4189 0a24 00       		.byte	0
 4190 0a25 0E       		.uleb128 0xe
 4191 0a26 A3120000 		.4byte	.LASF169
 4192 0a2a 01       		.byte	0x1
 4193 0a2b 9D01     		.2byte	0x19d
 4194 0a2d 53000000 		.4byte	0x53
 4195 0a31 01       		.byte	0x1
 4196 0a32 430A0000 		.4byte	0xa43
 4197 0a36 10       		.uleb128 0x10
 4198 0a37 B2030000 		.4byte	.LASF170
 4199 0a3b 01       		.byte	0x1
 4200 0a3c 9F01     		.2byte	0x19f
 4201 0a3e 53000000 		.4byte	0x53
 4202 0a42 00       		.byte	0
 4203 0a43 0E       		.uleb128 0xe
 4204 0a44 D70B0000 		.4byte	.LASF171
ARM GAS  C:\Users\ADMINI~1\AppData\Local\Temp\ccjTNAQQ.s 			page 110


 4205 0a48 01       		.byte	0x1
 4206 0a49 B801     		.2byte	0x1b8
 4207 0a4b 53000000 		.4byte	0x53
 4208 0a4f 01       		.byte	0x1
 4209 0a50 610A0000 		.4byte	0xa61
 4210 0a54 10       		.uleb128 0x10
 4211 0a55 B2030000 		.4byte	.LASF170
 4212 0a59 01       		.byte	0x1
 4213 0a5a BA01     		.2byte	0x1ba
 4214 0a5c 53000000 		.4byte	0x53
 4215 0a60 00       		.byte	0
 4216 0a61 32       		.uleb128 0x32
 4217 0a62 200B0000 		.4byte	.LASF172
 4218 0a66 01       		.byte	0x1
 4219 0a67 E801     		.2byte	0x1e8
 4220 0a69 03030000 		.4byte	0x303
 4221 0a6d 00000000 		.4byte	.LFB6
 4222 0a71 30020000 		.4byte	.LFE6-.LFB6
 4223 0a75 01       		.uleb128 0x1
 4224 0a76 9C       		.byte	0x9c
 4225 0a77 C10D0000 		.4byte	0xdc1
 4226 0a7b 21       		.uleb128 0x21
 4227 0a7c 8F030000 		.4byte	.LASF139
 4228 0a80 01       		.byte	0x1
 4229 0a81 EA01     		.2byte	0x1ea
 4230 0a83 03030000 		.4byte	0x303
 4231 0a87 A9050000 		.4byte	.LLST35
 4232 0a8b 21       		.uleb128 0x21
 4233 0a8c 540B0000 		.4byte	.LASF173
 4234 0a90 01       		.byte	0x1
 4235 0a91 EC01     		.2byte	0x1ec
 4236 0a93 53000000 		.4byte	0x53
 4237 0a97 2F060000 		.4byte	.LLST36
 4238 0a9b 21       		.uleb128 0x21
 4239 0a9c 3F0D0000 		.4byte	.LASF174
 4240 0aa0 01       		.byte	0x1
 4241 0aa1 EC01     		.2byte	0x1ec
 4242 0aa3 53000000 		.4byte	0x53
 4243 0aa7 4D060000 		.4byte	.LLST37
 4244 0aab 21       		.uleb128 0x21
 4245 0aac 87080000 		.4byte	.LASF175
 4246 0ab0 01       		.byte	0x1
 4247 0ab1 EC01     		.2byte	0x1ec
 4248 0ab3 53000000 		.4byte	0x53
 4249 0ab7 78060000 		.4byte	.LLST38
 4250 0abb 21       		.uleb128 0x21
 4251 0abc 68120000 		.4byte	.LASF166
 4252 0ac0 01       		.byte	0x1
 4253 0ac1 F101     		.2byte	0x1f1
 4254 0ac3 53000000 		.4byte	0x53
 4255 0ac7 98060000 		.4byte	.LLST39
 4256 0acb 2B       		.uleb128 0x2b
 4257 0acc 250A0000 		.4byte	0xa25
 4258 0ad0 02000000 		.4byte	.LBB52
 4259 0ad4 82000000 		.4byte	.LBE52-.LBB52
 4260 0ad8 01       		.byte	0x1
 4261 0ad9 F601     		.2byte	0x1f6
ARM GAS  C:\Users\ADMINI~1\AppData\Local\Temp\ccjTNAQQ.s 			page 111


 4262 0adb 080B0000 		.4byte	0xb08
 4263 0adf 18       		.uleb128 0x18
 4264 0ae0 02000000 		.4byte	.LBB53
 4265 0ae4 82000000 		.4byte	.LBE53-.LBB53
 4266 0ae8 17       		.uleb128 0x17
 4267 0ae9 360A0000 		.4byte	0xa36
 4268 0aed B8060000 		.4byte	.LLST40
 4269 0af1 1A       		.uleb128 0x1a
 4270 0af2 0E000000 		.4byte	.LVL98
 4271 0af6 E1050000 		.4byte	0x5e1
 4272 0afa 1B       		.uleb128 0x1b
 4273 0afb 01       		.uleb128 0x1
 4274 0afc 51       		.byte	0x51
 4275 0afd 01       		.uleb128 0x1
 4276 0afe 44       		.byte	0x44
 4277 0aff 1B       		.uleb128 0x1b
 4278 0b00 01       		.uleb128 0x1
 4279 0b01 50       		.byte	0x50
 4280 0b02 02       		.uleb128 0x2
 4281 0b03 75       		.byte	0x75
 4282 0b04 34       		.sleb128 52
 4283 0b05 00       		.byte	0
 4284 0b06 00       		.byte	0
 4285 0b07 00       		.byte	0
 4286 0b08 2B       		.uleb128 0x2b
 4287 0b09 430A0000 		.4byte	0xa43
 4288 0b0d 84000000 		.4byte	.LBB54
 4289 0b11 1A000000 		.4byte	.LBE54-.LBB54
 4290 0b15 01       		.byte	0x1
 4291 0b16 F901     		.2byte	0x1f9
 4292 0b18 480B0000 		.4byte	0xb48
 4293 0b1c 18       		.uleb128 0x18
 4294 0b1d 84000000 		.4byte	.LBB55
 4295 0b21 1A000000 		.4byte	.LBE55-.LBB55
 4296 0b25 17       		.uleb128 0x17
 4297 0b26 540A0000 		.4byte	0xa54
 4298 0b2a F7060000 		.4byte	.LLST41
 4299 0b2e 1A       		.uleb128 0x1a
 4300 0b2f 8E000000 		.4byte	.LVL109
 4301 0b33 E1050000 		.4byte	0x5e1
 4302 0b37 1B       		.uleb128 0x1b
 4303 0b38 01       		.uleb128 0x1
 4304 0b39 51       		.byte	0x51
 4305 0b3a 01       		.uleb128 0x1
 4306 0b3b 3E       		.byte	0x3e
 4307 0b3c 1B       		.uleb128 0x1b
 4308 0b3d 01       		.uleb128 0x1
 4309 0b3e 50       		.byte	0x50
 4310 0b3f 05       		.uleb128 0x5
 4311 0b40 91       		.byte	0x91
 4312 0b41 64       		.sleb128 -28
 4313 0b42 06       		.byte	0x6
 4314 0b43 23       		.byte	0x23
 4315 0b44 5C       		.uleb128 0x5c
 4316 0b45 00       		.byte	0
 4317 0b46 00       		.byte	0
 4318 0b47 00       		.byte	0
ARM GAS  C:\Users\ADMINI~1\AppData\Local\Temp\ccjTNAQQ.s 			page 112


 4319 0b48 33       		.uleb128 0x33
 4320 0b49 00000000 		.4byte	.Ldebug_ranges0+0
 4321 0b4d AA0C0000 		.4byte	0xcaa
 4322 0b51 2E       		.uleb128 0x2e
 4323 0b52 BC010000 		.4byte	.LASF176
 4324 0b56 01       		.byte	0x1
 4325 0b57 1802     		.2byte	0x218
 4326 0b59 53000000 		.4byte	0x53
 4327 0b5d 05       		.uleb128 0x5
 4328 0b5e 03       		.byte	0x3
 4329 0b5f 4A000000 		.4byte	lLastHwSmplrtDivider.5900
 4330 0b63 34       		.uleb128 0x34
 4331 0b64 16040000 		.4byte	0x416
 4332 0b68 C0000000 		.4byte	.LBB57
 4333 0b6c 18000000 		.4byte	.Ldebug_ranges0+0x18
 4334 0b70 01       		.byte	0x1
 4335 0b71 1A02     		.2byte	0x21a
 4336 0b73 900B0000 		.4byte	0xb90
 4337 0b77 16       		.uleb128 0x16
 4338 0b78 27040000 		.4byte	0x427
 4339 0b7c 20070000 		.4byte	.LLST42
 4340 0b80 35       		.uleb128 0x35
 4341 0b81 18000000 		.4byte	.Ldebug_ranges0+0x18
 4342 0b85 17       		.uleb128 0x17
 4343 0b86 33040000 		.4byte	0x433
 4344 0b8a 33070000 		.4byte	.LLST43
 4345 0b8e 00       		.byte	0
 4346 0b8f 00       		.byte	0
 4347 0b90 33       		.uleb128 0x33
 4348 0b91 30000000 		.4byte	.Ldebug_ranges0+0x30
 4349 0b95 D80B0000 		.4byte	0xbd8
 4350 0b99 21       		.uleb128 0x21
 4351 0b9a 13070000 		.4byte	.LASF177
 4352 0b9e 01       		.byte	0x1
 4353 0b9f 2C02     		.2byte	0x22c
 4354 0ba1 53000000 		.4byte	0x53
 4355 0ba5 5B070000 		.4byte	.LLST44
 4356 0ba9 2F       		.uleb128 0x2f
 4357 0baa 52010000 		.4byte	.LVL138
 4358 0bae E1050000 		.4byte	0x5e1
 4359 0bb2 C20B0000 		.4byte	0xbc2
 4360 0bb6 1B       		.uleb128 0x1b
 4361 0bb7 01       		.uleb128 0x1
 4362 0bb8 51       		.byte	0x51
 4363 0bb9 01       		.uleb128 0x1
 4364 0bba 31       		.byte	0x31
 4365 0bbb 1B       		.uleb128 0x1b
 4366 0bbc 01       		.uleb128 0x1
 4367 0bbd 50       		.byte	0x50
 4368 0bbe 02       		.uleb128 0x2
 4369 0bbf 75       		.byte	0x75
 4370 0bc0 0E       		.sleb128 14
 4371 0bc1 00       		.byte	0
 4372 0bc2 1A       		.uleb128 0x1a
 4373 0bc3 72010000 		.4byte	.LVL141
 4374 0bc7 92030000 		.4byte	0x392
 4375 0bcb 1B       		.uleb128 0x1b
ARM GAS  C:\Users\ADMINI~1\AppData\Local\Temp\ccjTNAQQ.s 			page 113


 4376 0bcc 01       		.uleb128 0x1
 4377 0bcd 52       		.byte	0x52
 4378 0bce 01       		.uleb128 0x1
 4379 0bcf 3C       		.byte	0x3c
 4380 0bd0 1B       		.uleb128 0x1b
 4381 0bd1 01       		.uleb128 0x1
 4382 0bd2 51       		.byte	0x51
 4383 0bd3 02       		.uleb128 0x2
 4384 0bd4 74       		.byte	0x74
 4385 0bd5 00       		.sleb128 0
 4386 0bd6 00       		.byte	0
 4387 0bd7 00       		.byte	0
 4388 0bd8 2F       		.uleb128 0x2f
 4389 0bd9 EC000000 		.4byte	.LVL119
 4390 0bdd 49090000 		.4byte	0x949
 4391 0be1 EC0B0000 		.4byte	0xbec
 4392 0be5 1B       		.uleb128 0x1b
 4393 0be6 01       		.uleb128 0x1
 4394 0be7 50       		.byte	0x50
 4395 0be8 02       		.uleb128 0x2
 4396 0be9 74       		.byte	0x74
 4397 0bea 00       		.sleb128 0
 4398 0beb 00       		.byte	0
 4399 0bec 2F       		.uleb128 0x2f
 4400 0bed F4000000 		.4byte	.LVL122
 4401 0bf1 9D090000 		.4byte	0x99d
 4402 0bf5 000C0000 		.4byte	0xc00
 4403 0bf9 1B       		.uleb128 0x1b
 4404 0bfa 01       		.uleb128 0x1
 4405 0bfb 50       		.byte	0x50
 4406 0bfc 02       		.uleb128 0x2
 4407 0bfd 74       		.byte	0x74
 4408 0bfe 00       		.sleb128 0
 4409 0bff 00       		.byte	0
 4410 0c00 2F       		.uleb128 0x2f
 4411 0c01 FE000000 		.4byte	.LVL124
 4412 0c05 F3130000 		.4byte	0x13f3
 4413 0c09 140C0000 		.4byte	0xc14
 4414 0c0d 1B       		.uleb128 0x1b
 4415 0c0e 01       		.uleb128 0x1
 4416 0c0f 50       		.byte	0x50
 4417 0c10 02       		.uleb128 0x2
 4418 0c11 74       		.byte	0x74
 4419 0c12 7F       		.sleb128 -1
 4420 0c13 00       		.byte	0
 4421 0c14 2F       		.uleb128 0x2f
 4422 0c15 0E010000 		.4byte	.LVL127
 4423 0c19 E1050000 		.4byte	0x5e1
 4424 0c1d 300C0000 		.4byte	0xc30
 4425 0c21 1B       		.uleb128 0x1b
 4426 0c22 01       		.uleb128 0x1
 4427 0c23 51       		.byte	0x51
 4428 0c24 01       		.uleb128 0x1
 4429 0c25 34       		.byte	0x34
 4430 0c26 1B       		.uleb128 0x1b
 4431 0c27 01       		.uleb128 0x1
 4432 0c28 50       		.byte	0x50
ARM GAS  C:\Users\ADMINI~1\AppData\Local\Temp\ccjTNAQQ.s 			page 114


 4433 0c29 05       		.uleb128 0x5
 4434 0c2a 91       		.byte	0x91
 4435 0c2b 64       		.sleb128 -28
 4436 0c2c 06       		.byte	0x6
 4437 0c2d 23       		.byte	0x23
 4438 0c2e 78       		.uleb128 0x78
 4439 0c2f 00       		.byte	0
 4440 0c30 2F       		.uleb128 0x2f
 4441 0c31 16010000 		.4byte	.LVL128
 4442 0c35 92030000 		.4byte	0x392
 4443 0c39 490C0000 		.4byte	0xc49
 4444 0c3d 1B       		.uleb128 0x1b
 4445 0c3e 01       		.uleb128 0x1
 4446 0c3f 52       		.byte	0x52
 4447 0c40 01       		.uleb128 0x1
 4448 0c41 30       		.byte	0x30
 4449 0c42 1B       		.uleb128 0x1b
 4450 0c43 01       		.uleb128 0x1
 4451 0c44 51       		.byte	0x51
 4452 0c45 02       		.uleb128 0x2
 4453 0c46 74       		.byte	0x74
 4454 0c47 00       		.sleb128 0
 4455 0c48 00       		.byte	0
 4456 0c49 2F       		.uleb128 0x2f
 4457 0c4a 24010000 		.4byte	.LVL132
 4458 0c4e E1050000 		.4byte	0x5e1
 4459 0c52 620C0000 		.4byte	0xc62
 4460 0c56 1B       		.uleb128 0x1b
 4461 0c57 01       		.uleb128 0x1
 4462 0c58 51       		.byte	0x51
 4463 0c59 01       		.uleb128 0x1
 4464 0c5a 32       		.byte	0x32
 4465 0c5b 1B       		.uleb128 0x1b
 4466 0c5c 01       		.uleb128 0x1
 4467 0c5d 50       		.byte	0x50
 4468 0c5e 02       		.uleb128 0x2
 4469 0c5f 75       		.byte	0x75
 4470 0c60 00       		.sleb128 0
 4471 0c61 00       		.byte	0
 4472 0c62 2F       		.uleb128 0x2f
 4473 0c63 2C010000 		.4byte	.LVL133
 4474 0c67 92030000 		.4byte	0x392
 4475 0c6b 7B0C0000 		.4byte	0xc7b
 4476 0c6f 1B       		.uleb128 0x1b
 4477 0c70 01       		.uleb128 0x1
 4478 0c71 52       		.byte	0x52
 4479 0c72 01       		.uleb128 0x1
 4480 0c73 37       		.byte	0x37
 4481 0c74 1B       		.uleb128 0x1b
 4482 0c75 01       		.uleb128 0x1
 4483 0c76 51       		.byte	0x51
 4484 0c77 02       		.uleb128 0x2
 4485 0c78 74       		.byte	0x74
 4486 0c79 00       		.sleb128 0
 4487 0c7a 00       		.byte	0
 4488 0c7b 2F       		.uleb128 0x2f
 4489 0c7c 3A010000 		.4byte	.LVL135
ARM GAS  C:\Users\ADMINI~1\AppData\Local\Temp\ccjTNAQQ.s 			page 115


 4490 0c80 E1050000 		.4byte	0x5e1
 4491 0c84 940C0000 		.4byte	0xc94
 4492 0c88 1B       		.uleb128 0x1b
 4493 0c89 01       		.uleb128 0x1
 4494 0c8a 51       		.byte	0x51
 4495 0c8b 01       		.uleb128 0x1
 4496 0c8c 35       		.byte	0x35
 4497 0c8d 1B       		.uleb128 0x1b
 4498 0c8e 01       		.uleb128 0x1
 4499 0c8f 50       		.byte	0x50
 4500 0c90 02       		.uleb128 0x2
 4501 0c91 75       		.byte	0x75
 4502 0c92 04       		.sleb128 4
 4503 0c93 00       		.byte	0
 4504 0c94 1A       		.uleb128 0x1a
 4505 0c95 42010000 		.4byte	.LVL136
 4506 0c99 92030000 		.4byte	0x392
 4507 0c9d 1B       		.uleb128 0x1b
 4508 0c9e 01       		.uleb128 0x1
 4509 0c9f 52       		.byte	0x52
 4510 0ca0 01       		.uleb128 0x1
 4511 0ca1 3C       		.byte	0x3c
 4512 0ca2 1B       		.uleb128 0x1b
 4513 0ca3 01       		.uleb128 0x1
 4514 0ca4 51       		.byte	0x51
 4515 0ca5 02       		.uleb128 0x2
 4516 0ca6 74       		.byte	0x74
 4517 0ca7 00       		.sleb128 0
 4518 0ca8 00       		.byte	0
 4519 0ca9 00       		.byte	0
 4520 0caa 18       		.uleb128 0x18
 4521 0cab 7E010000 		.4byte	.LBB65
 4522 0caf 82000000 		.4byte	.LBE65-.LBB65
 4523 0cb3 2E       		.uleb128 0x2e
 4524 0cb4 BC010000 		.4byte	.LASF176
 4525 0cb8 01       		.byte	0x1
 4526 0cb9 3602     		.2byte	0x236
 4527 0cbb 53000000 		.4byte	0x53
 4528 0cbf 05       		.uleb128 0x5
 4529 0cc0 03       		.byte	0x3
 4530 0cc1 4C000000 		.4byte	lLastHwSmplrtDivider.5902
 4531 0cc5 34       		.uleb128 0x34
 4532 0cc6 16040000 		.4byte	0x416
 4533 0cca 7E010000 		.4byte	.LBB66
 4534 0cce 50000000 		.4byte	.Ldebug_ranges0+0x50
 4535 0cd2 01       		.byte	0x1
 4536 0cd3 3702     		.2byte	0x237
 4537 0cd5 F20C0000 		.4byte	0xcf2
 4538 0cd9 16       		.uleb128 0x16
 4539 0cda 27040000 		.4byte	0x427
 4540 0cde 79070000 		.4byte	.LLST45
 4541 0ce2 35       		.uleb128 0x35
 4542 0ce3 50000000 		.4byte	.Ldebug_ranges0+0x50
 4543 0ce7 17       		.uleb128 0x17
 4544 0ce8 33040000 		.4byte	0x433
 4545 0cec 8C070000 		.4byte	.LLST46
 4546 0cf0 00       		.byte	0
ARM GAS  C:\Users\ADMINI~1\AppData\Local\Temp\ccjTNAQQ.s 			page 116


 4547 0cf1 00       		.byte	0
 4548 0cf2 23       		.uleb128 0x23
 4549 0cf3 A8010000 		.4byte	.LVL146
 4550 0cf7 08140000 		.4byte	0x1408
 4551 0cfb 2F       		.uleb128 0x2f
 4552 0cfc B8010000 		.4byte	.LVL148
 4553 0d00 E1050000 		.4byte	0x5e1
 4554 0d04 140D0000 		.4byte	0xd14
 4555 0d08 1B       		.uleb128 0x1b
 4556 0d09 01       		.uleb128 0x1
 4557 0d0a 51       		.byte	0x51
 4558 0d0b 01       		.uleb128 0x1
 4559 0d0c 34       		.byte	0x34
 4560 0d0d 1B       		.uleb128 0x1b
 4561 0d0e 01       		.uleb128 0x1
 4562 0d0f 50       		.byte	0x50
 4563 0d10 02       		.uleb128 0x2
 4564 0d11 76       		.byte	0x76
 4565 0d12 10       		.sleb128 16
 4566 0d13 00       		.byte	0
 4567 0d14 2F       		.uleb128 0x2f
 4568 0d15 C0010000 		.4byte	.LVL149
 4569 0d19 92030000 		.4byte	0x392
 4570 0d1d 2D0D0000 		.4byte	0xd2d
 4571 0d21 1B       		.uleb128 0x1b
 4572 0d22 01       		.uleb128 0x1
 4573 0d23 52       		.byte	0x52
 4574 0d24 01       		.uleb128 0x1
 4575 0d25 31       		.byte	0x31
 4576 0d26 1B       		.uleb128 0x1b
 4577 0d27 01       		.uleb128 0x1
 4578 0d28 51       		.byte	0x51
 4579 0d29 02       		.uleb128 0x2
 4580 0d2a 74       		.byte	0x74
 4581 0d2b 00       		.sleb128 0
 4582 0d2c 00       		.byte	0
 4583 0d2d 2F       		.uleb128 0x2f
 4584 0d2e CC010000 		.4byte	.LVL151
 4585 0d32 E1050000 		.4byte	0x5e1
 4586 0d36 460D0000 		.4byte	0xd46
 4587 0d3a 1B       		.uleb128 0x1b
 4588 0d3b 01       		.uleb128 0x1
 4589 0d3c 51       		.byte	0x51
 4590 0d3d 01       		.uleb128 0x1
 4591 0d3e 32       		.byte	0x32
 4592 0d3f 1B       		.uleb128 0x1b
 4593 0d40 01       		.uleb128 0x1
 4594 0d41 50       		.byte	0x50
 4595 0d42 02       		.uleb128 0x2
 4596 0d43 76       		.byte	0x76
 4597 0d44 18       		.sleb128 24
 4598 0d45 00       		.byte	0
 4599 0d46 2F       		.uleb128 0x2f
 4600 0d47 D4010000 		.4byte	.LVL152
 4601 0d4b 92030000 		.4byte	0x392
 4602 0d4f 5F0D0000 		.4byte	0xd5f
 4603 0d53 1B       		.uleb128 0x1b
ARM GAS  C:\Users\ADMINI~1\AppData\Local\Temp\ccjTNAQQ.s 			page 117


 4604 0d54 01       		.uleb128 0x1
 4605 0d55 52       		.byte	0x52
 4606 0d56 01       		.uleb128 0x1
 4607 0d57 3A       		.byte	0x3a
 4608 0d58 1B       		.uleb128 0x1b
 4609 0d59 01       		.uleb128 0x1
 4610 0d5a 51       		.byte	0x51
 4611 0d5b 02       		.uleb128 0x2
 4612 0d5c 74       		.byte	0x74
 4613 0d5d 00       		.sleb128 0
 4614 0d5e 00       		.byte	0
 4615 0d5f 2F       		.uleb128 0x2f
 4616 0d60 E0010000 		.4byte	.LVL154
 4617 0d64 E1050000 		.4byte	0x5e1
 4618 0d68 780D0000 		.4byte	0xd78
 4619 0d6c 1B       		.uleb128 0x1b
 4620 0d6d 01       		.uleb128 0x1
 4621 0d6e 51       		.byte	0x51
 4622 0d6f 01       		.uleb128 0x1
 4623 0d70 36       		.byte	0x36
 4624 0d71 1B       		.uleb128 0x1b
 4625 0d72 01       		.uleb128 0x1
 4626 0d73 50       		.byte	0x50
 4627 0d74 02       		.uleb128 0x2
 4628 0d75 76       		.byte	0x76
 4629 0d76 1C       		.sleb128 28
 4630 0d77 00       		.byte	0
 4631 0d78 2F       		.uleb128 0x2f
 4632 0d79 E8010000 		.4byte	.LVL155
 4633 0d7d 92030000 		.4byte	0x392
 4634 0d81 910D0000 		.4byte	0xd91
 4635 0d85 1B       		.uleb128 0x1b
 4636 0d86 01       		.uleb128 0x1
 4637 0d87 52       		.byte	0x52
 4638 0d88 01       		.uleb128 0x1
 4639 0d89 35       		.byte	0x35
 4640 0d8a 1B       		.uleb128 0x1b
 4641 0d8b 01       		.uleb128 0x1
 4642 0d8c 51       		.byte	0x51
 4643 0d8d 02       		.uleb128 0x2
 4644 0d8e 74       		.byte	0x74
 4645 0d8f 00       		.sleb128 0
 4646 0d90 00       		.byte	0
 4647 0d91 2F       		.uleb128 0x2f
 4648 0d92 F4010000 		.4byte	.LVL157
 4649 0d96 E1050000 		.4byte	0x5e1
 4650 0d9a AA0D0000 		.4byte	0xdaa
 4651 0d9e 1B       		.uleb128 0x1b
 4652 0d9f 01       		.uleb128 0x1
 4653 0da0 51       		.byte	0x51
 4654 0da1 01       		.uleb128 0x1
 4655 0da2 34       		.byte	0x34
 4656 0da3 1B       		.uleb128 0x1b
 4657 0da4 01       		.uleb128 0x1
 4658 0da5 50       		.byte	0x50
 4659 0da6 02       		.uleb128 0x2
 4660 0da7 76       		.byte	0x76
ARM GAS  C:\Users\ADMINI~1\AppData\Local\Temp\ccjTNAQQ.s 			page 118


 4661 0da8 28       		.sleb128 40
 4662 0da9 00       		.byte	0
 4663 0daa 1A       		.uleb128 0x1a
 4664 0dab FC010000 		.4byte	.LVL158
 4665 0daf 92030000 		.4byte	0x392
 4666 0db3 1B       		.uleb128 0x1b
 4667 0db4 01       		.uleb128 0x1
 4668 0db5 52       		.byte	0x52
 4669 0db6 01       		.uleb128 0x1
 4670 0db7 36       		.byte	0x36
 4671 0db8 1B       		.uleb128 0x1b
 4672 0db9 01       		.uleb128 0x1
 4673 0dba 51       		.byte	0x51
 4674 0dbb 02       		.uleb128 0x2
 4675 0dbc 74       		.byte	0x74
 4676 0dbd 00       		.sleb128 0
 4677 0dbe 00       		.byte	0
 4678 0dbf 00       		.byte	0
 4679 0dc0 00       		.byte	0
 4680 0dc1 24       		.uleb128 0x24
 4681 0dc2 B1090000 		.4byte	.LASF178
 4682 0dc6 01       		.byte	0x1
 4683 0dc7 7302     		.2byte	0x273
 4684 0dc9 03030000 		.4byte	0x303
 4685 0dcd 00000000 		.4byte	.LFB7
 4686 0dd1 28010000 		.4byte	.LFE7-.LFB7
 4687 0dd5 01       		.uleb128 0x1
 4688 0dd6 9C       		.byte	0x9c
 4689 0dd7 4D0E0000 		.4byte	0xe4d
 4690 0ddb 20       		.uleb128 0x20
 4691 0ddc D1010000 		.4byte	.LASF133
 4692 0de0 01       		.byte	0x1
 4693 0de1 7302     		.2byte	0x273
 4694 0de3 45000000 		.4byte	0x45
 4695 0de7 B4070000 		.4byte	.LLST47
 4696 0deb 20       		.uleb128 0x20
 4697 0dec F6000000 		.4byte	.LASF179
 4698 0df0 01       		.byte	0x1
 4699 0df1 7302     		.2byte	0x273
 4700 0df3 53000000 		.4byte	0x53
 4701 0df7 D5070000 		.4byte	.LLST48
 4702 0dfb 21       		.uleb128 0x21
 4703 0dfc 8F030000 		.4byte	.LASF139
 4704 0e00 01       		.byte	0x1
 4705 0e01 7502     		.2byte	0x275
 4706 0e03 03030000 		.4byte	0x303
 4707 0e07 1A080000 		.4byte	.LLST49
 4708 0e0b 23       		.uleb128 0x23
 4709 0e0c 0A000000 		.4byte	.LVL164
 4710 0e10 1D140000 		.4byte	0x141d
 4711 0e14 23       		.uleb128 0x23
 4712 0e15 04010000 		.4byte	.LVL169
 4713 0e19 610A0000 		.4byte	0xa61
 4714 0e1d 23       		.uleb128 0x23
 4715 0e1e 0A010000 		.4byte	.LVL171
 4716 0e22 76130000 		.4byte	0x1376
 4717 0e26 23       		.uleb128 0x23
ARM GAS  C:\Users\ADMINI~1\AppData\Local\Temp\ccjTNAQQ.s 			page 119


 4718 0e27 10010000 		.4byte	.LVL172
 4719 0e2b 24140000 		.4byte	0x1424
 4720 0e2f 2F       		.uleb128 0x2f
 4721 0e30 18010000 		.4byte	.LVL173
 4722 0e34 2F140000 		.4byte	0x142f
 4723 0e38 430E0000 		.4byte	0xe43
 4724 0e3c 1B       		.uleb128 0x1b
 4725 0e3d 01       		.uleb128 0x1
 4726 0e3e 50       		.byte	0x50
 4727 0e3f 02       		.uleb128 0x2
 4728 0e40 75       		.byte	0x75
 4729 0e41 00       		.sleb128 0
 4730 0e42 00       		.byte	0
 4731 0e43 23       		.uleb128 0x23
 4732 0e44 1E010000 		.4byte	.LVL175
 4733 0e48 49140000 		.4byte	0x1449
 4734 0e4c 00       		.byte	0
 4735 0e4d 24       		.uleb128 0x24
 4736 0e4e 00010000 		.4byte	.LASF180
 4737 0e52 01       		.byte	0x1
 4738 0e53 4404     		.2byte	0x444
 4739 0e55 03030000 		.4byte	0x303
 4740 0e59 00000000 		.4byte	.LFB12
 4741 0e5d 64030000 		.4byte	.LFE12-.LFB12
 4742 0e61 01       		.uleb128 0x1
 4743 0e62 9C       		.byte	0x9c
 4744 0e63 90100000 		.4byte	0x1090
 4745 0e67 20       		.uleb128 0x20
 4746 0e68 D1010000 		.4byte	.LASF133
 4747 0e6c 01       		.byte	0x1
 4748 0e6d 4404     		.2byte	0x444
 4749 0e6f 45000000 		.4byte	0x45
 4750 0e73 43080000 		.4byte	.LLST50
 4751 0e77 20       		.uleb128 0x20
 4752 0e78 E4060000 		.4byte	.LASF127
 4753 0e7c 01       		.byte	0x1
 4754 0e7d 4404     		.2byte	0x444
 4755 0e7f 45000000 		.4byte	0x45
 4756 0e83 64080000 		.4byte	.LLST51
 4757 0e87 21       		.uleb128 0x21
 4758 0e88 8F030000 		.4byte	.LASF139
 4759 0e8c 01       		.byte	0x1
 4760 0e8d 4604     		.2byte	0x446
 4761 0e8f 03030000 		.4byte	0x303
 4762 0e93 85080000 		.4byte	.LLST52
 4763 0e97 2E       		.uleb128 0x2e
 4764 0e98 04120000 		.4byte	.LASF138
 4765 0e9c 01       		.byte	0x1
 4766 0e9d 4F04     		.2byte	0x44f
 4767 0e9f 90000000 		.4byte	0x90
 4768 0ea3 05       		.uleb128 0x5
 4769 0ea4 03       		.byte	0x3
 4770 0ea5 4E000000 		.4byte	mems_put_to_sleep.6039
 4771 0ea9 2B       		.uleb128 0x2b
 4772 0eaa 9B040000 		.4byte	0x49b
 4773 0eae 26000000 		.4byte	.LBB74
 4774 0eb2 16030000 		.4byte	.LBE74-.LBB74
ARM GAS  C:\Users\ADMINI~1\AppData\Local\Temp\ccjTNAQQ.s 			page 120


 4775 0eb6 01       		.byte	0x1
 4776 0eb7 AF04     		.2byte	0x4af
 4777 0eb9 74100000 		.4byte	0x1074
 4778 0ebd 36       		.uleb128 0x36
 4779 0ebe C4040000 		.4byte	0x4c4
 4780 0ec2 06       		.uleb128 0x6
 4781 0ec3 03       		.byte	0x3
 4782 0ec4 4E000000 		.4byte	mems_put_to_sleep.6039
 4783 0ec8 9F       		.byte	0x9f
 4784 0ec9 16       		.uleb128 0x16
 4785 0eca B8040000 		.4byte	0x4b8
 4786 0ece BB080000 		.4byte	.LLST53
 4787 0ed2 16       		.uleb128 0x16
 4788 0ed3 AC040000 		.4byte	0x4ac
 4789 0ed7 CE080000 		.4byte	.LLST54
 4790 0edb 18       		.uleb128 0x18
 4791 0edc 26000000 		.4byte	.LBB75
 4792 0ee0 16030000 		.4byte	.LBE75-.LBB75
 4793 0ee4 17       		.uleb128 0x17
 4794 0ee5 D0040000 		.4byte	0x4d0
 4795 0ee9 E1080000 		.4byte	.LLST55
 4796 0eed 17       		.uleb128 0x17
 4797 0eee DC040000 		.4byte	0x4dc
 4798 0ef2 4F090000 		.4byte	.LLST56
 4799 0ef6 17       		.uleb128 0x17
 4800 0ef7 00050000 		.4byte	0x500
 4801 0efb 98090000 		.4byte	.LLST57
 4802 0eff 37       		.uleb128 0x37
 4803 0f00 0C050000 		.4byte	0x50c
 4804 0f04 02       		.uleb128 0x2
 4805 0f05 91       		.byte	0x91
 4806 0f06 64       		.sleb128 -28
 4807 0f07 37       		.uleb128 0x37
 4808 0f08 E8040000 		.4byte	0x4e8
 4809 0f0c 05       		.uleb128 0x5
 4810 0f0d 03       		.byte	0x3
 4811 0f0e 62000000 		.4byte	smd_status.6047
 4812 0f12 37       		.uleb128 0x37
 4813 0f13 F4040000 		.4byte	0x4f4
 4814 0f17 05       		.uleb128 0x5
 4815 0f18 03       		.byte	0x3
 4816 0f19 64000000 		.4byte	ped_int_status.6048
 4817 0f1d 2B       		.uleb128 0x2b
 4818 0f1e 40040000 		.4byte	0x440
 4819 0f22 9A000000 		.4byte	.LBB76
 4820 0f26 72000000 		.4byte	.LBE76-.LBB76
 4821 0f2a 01       		.byte	0x1
 4822 0f2b EC04     		.2byte	0x4ec
 4823 0f2d 890F0000 		.4byte	0xf89
 4824 0f31 36       		.uleb128 0x36
 4825 0f32 65040000 		.4byte	0x465
 4826 0f36 06       		.uleb128 0x6
 4827 0f37 03       		.byte	0x3
 4828 0f38 00000000 		.4byte	inv_androidSensor_to_control_bits
 4829 0f3c 9F       		.byte	0x9f
 4830 0f3d 36       		.uleb128 0x36
 4831 0f3e 71040000 		.4byte	0x471
ARM GAS  C:\Users\ADMINI~1\AppData\Local\Temp\ccjTNAQQ.s 			page 121


 4832 0f42 06       		.uleb128 0x6
 4833 0f43 03       		.byte	0x3
 4834 0f44 5C000000 		.4byte	inv_sensor_control
 4835 0f48 9F       		.byte	0x9f
 4836 0f49 16       		.uleb128 0x16
 4837 0f4a 59040000 		.4byte	0x459
 4838 0f4e D2090000 		.4byte	.LLST58
 4839 0f52 16       		.uleb128 0x16
 4840 0f53 4D040000 		.4byte	0x44d
 4841 0f57 E5090000 		.4byte	.LLST59
 4842 0f5b 18       		.uleb128 0x18
 4843 0f5c 9A000000 		.4byte	.LBB77
 4844 0f60 72000000 		.4byte	.LBE77-.LBB77
 4845 0f64 17       		.uleb128 0x17
 4846 0f65 7D040000 		.4byte	0x47d
 4847 0f69 F8090000 		.4byte	.LLST60
 4848 0f6d 1A       		.uleb128 0x1a
 4849 0f6e 0C010000 		.4byte	.LVL187
 4850 0f72 C5060000 		.4byte	0x6c5
 4851 0f76 1B       		.uleb128 0x1b
 4852 0f77 01       		.uleb128 0x1
 4853 0f78 51       		.byte	0x51
 4854 0f79 03       		.uleb128 0x3
 4855 0f7a 75       		.byte	0x75
 4856 0f7b DC00     		.sleb128 92
 4857 0f7d 1B       		.uleb128 0x1b
 4858 0f7e 01       		.uleb128 0x1
 4859 0f7f 50       		.byte	0x50
 4860 0f80 05       		.uleb128 0x5
 4861 0f81 03       		.byte	0x3
 4862 0f82 B0000000 		.4byte	.LANCHOR3+48
 4863 0f86 00       		.byte	0
 4864 0f87 00       		.byte	0
 4865 0f88 00       		.byte	0
 4866 0f89 23       		.uleb128 0x23
 4867 0f8a 6C000000 		.4byte	.LVL181
 4868 0f8e 50140000 		.4byte	0x1450
 4869 0f92 2F       		.uleb128 0x2f
 4870 0f93 8E000000 		.4byte	.LVL182
 4871 0f97 E2030000 		.4byte	0x3e2
 4872 0f9b A60F0000 		.4byte	0xfa6
 4873 0f9f 1B       		.uleb128 0x1b
 4874 0fa0 01       		.uleb128 0x1
 4875 0fa1 50       		.byte	0x50
 4876 0fa2 02       		.uleb128 0x2
 4877 0fa3 76       		.byte	0x76
 4878 0fa4 00       		.sleb128 0
 4879 0fa5 00       		.byte	0
 4880 0fa6 2F       		.uleb128 0x2f
 4881 0fa7 9A000000 		.4byte	.LVL183
 4882 0fab FC030000 		.4byte	0x3fc
 4883 0faf BA0F0000 		.4byte	0xfba
 4884 0fb3 1B       		.uleb128 0x1b
 4885 0fb4 01       		.uleb128 0x1
 4886 0fb5 50       		.byte	0x50
 4887 0fb6 02       		.uleb128 0x2
 4888 0fb7 76       		.byte	0x76
ARM GAS  C:\Users\ADMINI~1\AppData\Local\Temp\ccjTNAQQ.s 			page 122


 4889 0fb8 00       		.sleb128 0
 4890 0fb9 00       		.byte	0
 4891 0fba 23       		.uleb128 0x23
 4892 0fbb 14010000 		.4byte	.LVL188
 4893 0fbf 5B140000 		.4byte	0x145b
 4894 0fc3 23       		.uleb128 0x23
 4895 0fc4 2C010000 		.4byte	.LVL191
 4896 0fc8 70140000 		.4byte	0x1470
 4897 0fcc 23       		.uleb128 0x23
 4898 0fcd C8010000 		.4byte	.LVL194
 4899 0fd1 61130000 		.4byte	0x1361
 4900 0fd5 23       		.uleb128 0x23
 4901 0fd6 A2020000 		.4byte	.LVL210
 4902 0fda 50140000 		.4byte	0x1450
 4903 0fde 2F       		.uleb128 0x2f
 4904 0fdf B6020000 		.4byte	.LVL212
 4905 0fe3 85140000 		.4byte	0x1485
 4906 0fe7 F20F0000 		.4byte	0xff2
 4907 0feb 1B       		.uleb128 0x1b
 4908 0fec 01       		.uleb128 0x1
 4909 0fed 50       		.byte	0x50
 4910 0fee 02       		.uleb128 0x2
 4911 0fef 75       		.byte	0x75
 4912 0ff0 00       		.sleb128 0
 4913 0ff1 00       		.byte	0
 4914 0ff2 23       		.uleb128 0x23
 4915 0ff3 BE020000 		.4byte	.LVL215
 4916 0ff7 610A0000 		.4byte	0xa61
 4917 0ffb 23       		.uleb128 0x23
 4918 0ffc C6020000 		.4byte	.LVL218
 4919 1000 76130000 		.4byte	0x1376
 4920 1004 23       		.uleb128 0x23
 4921 1005 CC020000 		.4byte	.LVL220
 4922 1009 24140000 		.4byte	0x1424
 4923 100d 2F       		.uleb128 0x2f
 4924 100e D4020000 		.4byte	.LVL221
 4925 1012 2F140000 		.4byte	0x142f
 4926 1016 21100000 		.4byte	0x1021
 4927 101a 1B       		.uleb128 0x1b
 4928 101b 01       		.uleb128 0x1
 4929 101c 50       		.byte	0x50
 4930 101d 02       		.uleb128 0x2
 4931 101e 75       		.byte	0x75
 4932 101f 00       		.sleb128 0
 4933 1020 00       		.byte	0
 4934 1021 23       		.uleb128 0x23
 4935 1022 02030000 		.4byte	.LVL223
 4936 1026 9A140000 		.4byte	0x149a
 4937 102a 2F       		.uleb128 0x2f
 4938 102b 0C030000 		.4byte	.LVL225
 4939 102f A5140000 		.4byte	0x14a5
 4940 1033 41100000 		.4byte	0x1041
 4941 1037 1B       		.uleb128 0x1b
 4942 1038 01       		.uleb128 0x1
 4943 1039 50       		.byte	0x50
 4944 103a 05       		.uleb128 0x5
 4945 103b 74       		.byte	0x74
ARM GAS  C:\Users\ADMINI~1\AppData\Local\Temp\ccjTNAQQ.s 			page 123


 4946 103c 00       		.sleb128 0
 4947 103d 08       		.byte	0x8
 4948 103e 80       		.byte	0x80
 4949 103f 21       		.byte	0x21
 4950 1040 00       		.byte	0
 4951 1041 2F       		.uleb128 0x2f
 4952 1042 22030000 		.4byte	.LVL230
 4953 1046 BA140000 		.4byte	0x14ba
 4954 104a 55100000 		.4byte	0x1055
 4955 104e 1B       		.uleb128 0x1b
 4956 104f 01       		.uleb128 0x1
 4957 1050 50       		.byte	0x50
 4958 1051 02       		.uleb128 0x2
 4959 1052 74       		.byte	0x74
 4960 1053 00       		.sleb128 0
 4961 1054 00       		.byte	0
 4962 1055 2F       		.uleb128 0x2f
 4963 1056 36030000 		.4byte	.LVL233
 4964 105a CF140000 		.4byte	0x14cf
 4965 105e 69100000 		.4byte	0x1069
 4966 1062 1B       		.uleb128 0x1b
 4967 1063 01       		.uleb128 0x1
 4968 1064 50       		.byte	0x50
 4969 1065 02       		.uleb128 0x2
 4970 1066 91       		.byte	0x91
 4971 1067 64       		.sleb128 -28
 4972 1068 00       		.byte	0
 4973 1069 23       		.uleb128 0x23
 4974 106a 3C030000 		.4byte	.LVL234
 4975 106e E4140000 		.4byte	0x14e4
 4976 1072 00       		.byte	0
 4977 1073 00       		.byte	0
 4978 1074 23       		.uleb128 0x23
 4979 1075 0C000000 		.4byte	.LVL178
 4980 1079 1D140000 		.4byte	0x141d
 4981 107d 23       		.uleb128 0x23
 4982 107e 24000000 		.4byte	.LVL179
 4983 1082 F9140000 		.4byte	0x14f9
 4984 1086 23       		.uleb128 0x23
 4985 1087 42030000 		.4byte	.LVL236
 4986 108b 49140000 		.4byte	0x1449
 4987 108f 00       		.byte	0
 4988 1090 24       		.uleb128 0x24
 4989 1091 920E0000 		.4byte	.LASF181
 4990 1095 01       		.byte	0x1
 4991 1096 9906     		.2byte	0x699
 4992 1098 03030000 		.4byte	0x303
 4993 109c 00000000 		.4byte	.LFB25
 4994 10a0 28000000 		.4byte	.LFE25-.LFB25
 4995 10a4 01       		.uleb128 0x1
 4996 10a5 9C       		.byte	0x9c
 4997 10a6 D4100000 		.4byte	0x10d4
 4998 10aa 20       		.uleb128 0x20
 4999 10ab E4060000 		.4byte	.LASF127
 5000 10af 01       		.byte	0x1
 5001 10b0 9906     		.2byte	0x699
 5002 10b2 45000000 		.4byte	0x45
ARM GAS  C:\Users\ADMINI~1\AppData\Local\Temp\ccjTNAQQ.s 			page 124


 5003 10b6 3B0A0000 		.4byte	.LLST61
 5004 10ba 2C       		.uleb128 0x2c
 5005 10bb 72657400 		.ascii	"ret\000"
 5006 10bf 01       		.byte	0x1
 5007 10c0 9B06     		.2byte	0x69b
 5008 10c2 25000000 		.4byte	0x25
 5009 10c6 5C0A0000 		.4byte	.LLST62
 5010 10ca 23       		.uleb128 0x23
 5011 10cb 20000000 		.4byte	.LVL242
 5012 10cf 61130000 		.4byte	0x1361
 5013 10d3 00       		.byte	0
 5014 10d4 30       		.uleb128 0x30
 5015 10d5 53000000 		.4byte	0x53
 5016 10d9 E4100000 		.4byte	0x10e4
 5017 10dd 31       		.uleb128 0x31
 5018 10de 81000000 		.4byte	0x81
 5019 10e2 24       		.byte	0x24
 5020 10e3 00       		.byte	0
 5021 10e4 38       		.uleb128 0x38
 5022 10e5 6A090000 		.4byte	.LASF182
 5023 10e9 01       		.byte	0x1
 5024 10ea 29       		.byte	0x29
 5025 10eb D4100000 		.4byte	0x10d4
 5026 10ef 05       		.uleb128 0x5
 5027 10f0 03       		.byte	0x3
 5028 10f1 00000000 		.4byte	inv_dmp_odr_dividers
 5029 10f5 38       		.uleb128 0x38
 5030 10f6 5B110000 		.4byte	.LASF183
 5031 10fa 01       		.byte	0x1
 5032 10fb 2A       		.byte	0x2a
 5033 10fc D4100000 		.4byte	0x10d4
 5034 1100 05       		.uleb128 0x5
 5035 1101 03       		.byte	0x3
 5036 1102 00000000 		.4byte	inv_dmp_odr_delays
 5037 1106 38       		.uleb128 0x38
 5038 1107 AB030000 		.4byte	.LASF184
 5039 110b 01       		.byte	0x1
 5040 110c 59       		.byte	0x59
 5041 110d 53000000 		.4byte	0x53
 5042 1111 05       		.uleb128 0x5
 5043 1112 03       		.byte	0x3
 5044 1113 54000000 		.4byte	bac_on
 5045 1117 38       		.uleb128 0x38
 5046 1118 BA020000 		.4byte	.LASF185
 5047 111c 01       		.byte	0x1
 5048 111d 5A       		.byte	0x5a
 5049 111e 53000000 		.4byte	0x53
 5050 1122 05       		.uleb128 0x5
 5051 1123 03       		.byte	0x3
 5052 1124 56000000 		.4byte	bac_status
 5053 1128 38       		.uleb128 0x38
 5054 1129 5F090000 		.4byte	.LASF186
 5055 112d 01       		.byte	0x1
 5056 112e 5C       		.byte	0x5c
 5057 112f 53000000 		.4byte	0x53
 5058 1133 05       		.uleb128 0x5
 5059 1134 03       		.byte	0x3
ARM GAS  C:\Users\ADMINI~1\AppData\Local\Temp\ccjTNAQQ.s 			page 125


 5060 1135 60000000 		.4byte	b2s_status
 5061 1139 38       		.uleb128 0x38
 5062 113a B3040000 		.4byte	.LASF187
 5063 113e 01       		.byte	0x1
 5064 113f 5D       		.byte	0x5d
 5065 1140 53000000 		.4byte	0x53
 5066 1144 05       		.uleb128 0x5
 5067 1145 03       		.byte	0x3
 5068 1146 5E000000 		.4byte	flip_pickup_status
 5069 114a 38       		.uleb128 0x38
 5070 114b DF010000 		.4byte	.LASF188
 5071 114f 01       		.byte	0x1
 5072 1150 5E       		.byte	0x5e
 5073 1151 53000000 		.4byte	0x53
 5074 1155 05       		.uleb128 0x5
 5075 1156 03       		.byte	0x3
 5076 1157 5C000000 		.4byte	inv_sensor_control
 5077 115b 38       		.uleb128 0x38
 5078 115c 7E0E0000 		.4byte	.LASF189
 5079 1160 01       		.byte	0x1
 5080 1161 5F       		.byte	0x5f
 5081 1162 53000000 		.4byte	0x53
 5082 1166 05       		.uleb128 0x5
 5083 1167 03       		.byte	0x3
 5084 1168 5A000000 		.4byte	inv_sensor_control2
 5085 116c 30       		.uleb128 0x30
 5086 116d 6C000000 		.4byte	0x6c
 5087 1171 7C110000 		.4byte	0x117c
 5088 1175 31       		.uleb128 0x31
 5089 1176 81000000 		.4byte	0x81
 5090 117a 01       		.byte	0x1
 5091 117b 00       		.byte	0
 5092 117c 38       		.uleb128 0x38
 5093 117d A40E0000 		.4byte	.LASF190
 5094 1181 01       		.byte	0x1
 5095 1182 60       		.byte	0x60
 5096 1183 6C110000 		.4byte	0x116c
 5097 1187 05       		.uleb128 0x5
 5098 1188 03       		.byte	0x3
 5099 1189 4C000000 		.4byte	inv_androidSensorsOn_mask
 5100 118d 30       		.uleb128 0x30
 5101 118e 63030000 		.4byte	0x363
 5102 1192 9D110000 		.4byte	0x119d
 5103 1196 31       		.uleb128 0x31
 5104 1197 81000000 		.4byte	0x81
 5105 119b 13       		.byte	0x13
 5106 119c 00       		.byte	0
 5107 119d 38       		.uleb128 0x38
 5108 119e 96070000 		.4byte	.LASF191
 5109 11a2 01       		.byte	0x1
 5110 11a3 B4       		.byte	0xb4
 5111 11a4 AE110000 		.4byte	0x11ae
 5112 11a8 05       		.uleb128 0x5
 5113 11a9 03       		.byte	0x3
 5114 11aa 34000000 		.4byte	MinDelayGenAccelList
 5115 11ae 14       		.uleb128 0x14
 5116 11af 8D110000 		.4byte	0x118d
ARM GAS  C:\Users\ADMINI~1\AppData\Local\Temp\ccjTNAQQ.s 			page 126


 5117 11b3 30       		.uleb128 0x30
 5118 11b4 63030000 		.4byte	0x363
 5119 11b8 C3110000 		.4byte	0x11c3
 5120 11bc 31       		.uleb128 0x31
 5121 11bd 81000000 		.4byte	0x81
 5122 11c1 0D       		.byte	0xd
 5123 11c2 00       		.byte	0
 5124 11c3 38       		.uleb128 0x38
 5125 11c4 2B0C0000 		.4byte	.LASF192
 5126 11c8 01       		.byte	0x1
 5127 11c9 CE       		.byte	0xce
 5128 11ca D4110000 		.4byte	0x11d4
 5129 11ce 05       		.uleb128 0x5
 5130 11cf 03       		.byte	0x3
 5131 11d0 5C000000 		.4byte	MinDelayGenGyroList
 5132 11d4 14       		.uleb128 0x14
 5133 11d5 B3110000 		.4byte	0x11b3
 5134 11d9 30       		.uleb128 0x30
 5135 11da 63030000 		.4byte	0x363
 5136 11de E9110000 		.4byte	0x11e9
 5137 11e2 31       		.uleb128 0x31
 5138 11e3 81000000 		.4byte	0x81
 5139 11e7 03       		.byte	0x3
 5140 11e8 00       		.byte	0
 5141 11e9 38       		.uleb128 0x38
 5142 11ea 46100000 		.4byte	.LASF193
 5143 11ee 01       		.byte	0x1
 5144 11ef FE       		.byte	0xfe
 5145 11f0 FA110000 		.4byte	0x11fa
 5146 11f4 05       		.uleb128 0x5
 5147 11f5 03       		.byte	0x3
 5148 11f6 78000000 		.4byte	MinDelayGenAccel2List
 5149 11fa 14       		.uleb128 0x14
 5150 11fb D9110000 		.4byte	0x11d9
 5151 11ff 30       		.uleb128 0x30
 5152 1200 63030000 		.4byte	0x363
 5153 1204 0F120000 		.4byte	0x120f
 5154 1208 31       		.uleb128 0x31
 5155 1209 81000000 		.4byte	0x81
 5156 120d 01       		.byte	0x1
 5157 120e 00       		.byte	0
 5158 120f 2E       		.uleb128 0x2e
 5159 1210 49020000 		.4byte	.LASF194
 5160 1214 01       		.byte	0x1
 5161 1215 0601     		.2byte	0x106
 5162 1217 21120000 		.4byte	0x1221
 5163 121b 05       		.uleb128 0x5
 5164 121c 03       		.byte	0x3
 5165 121d 80000000 		.4byte	MinDelayGenAccel3List
 5166 1221 14       		.uleb128 0x14
 5167 1222 FF110000 		.4byte	0x11ff
 5168 1226 30       		.uleb128 0x30
 5169 1227 63030000 		.4byte	0x363
 5170 122b 36120000 		.4byte	0x1236
 5171 122f 31       		.uleb128 0x31
 5172 1230 81000000 		.4byte	0x81
 5173 1234 04       		.byte	0x4
ARM GAS  C:\Users\ADMINI~1\AppData\Local\Temp\ccjTNAQQ.s 			page 127


 5174 1235 00       		.byte	0
 5175 1236 2E       		.uleb128 0x2e
 5176 1237 4A030000 		.4byte	.LASF195
 5177 123b 01       		.byte	0x1
 5178 123c 0D01     		.2byte	0x10d
 5179 123e 48120000 		.4byte	0x1248
 5180 1242 05       		.uleb128 0x5
 5181 1243 03       		.byte	0x3
 5182 1244 84000000 		.4byte	MinDelayGenAccel4List
 5183 1248 14       		.uleb128 0x14
 5184 1249 26120000 		.4byte	0x1226
 5185 124d 30       		.uleb128 0x30
 5186 124e 63030000 		.4byte	0x363
 5187 1252 5D120000 		.4byte	0x125d
 5188 1256 31       		.uleb128 0x31
 5189 1257 81000000 		.4byte	0x81
 5190 125b 00       		.byte	0
 5191 125c 00       		.byte	0
 5192 125d 2E       		.uleb128 0x2e
 5193 125e A80F0000 		.4byte	.LASF196
 5194 1262 01       		.byte	0x1
 5195 1263 1801     		.2byte	0x118
 5196 1265 6F120000 		.4byte	0x126f
 5197 1269 05       		.uleb128 0x5
 5198 126a 03       		.byte	0x3
 5199 126b 8E000000 		.4byte	MinDelayGenAccel5List
 5200 126f 14       		.uleb128 0x14
 5201 1270 4D120000 		.4byte	0x124d
 5202 1274 2E       		.uleb128 0x2e
 5203 1275 BD090000 		.4byte	.LASF197
 5204 1279 01       		.byte	0x1
 5205 127a 1E01     		.2byte	0x11e
 5206 127c 86120000 		.4byte	0x1286
 5207 1280 05       		.uleb128 0x5
 5208 1281 03       		.byte	0x3
 5209 1282 90000000 		.4byte	MinDelayGenGyro2List
 5210 1286 14       		.uleb128 0x14
 5211 1287 D9110000 		.4byte	0x11d9
 5212 128b 2E       		.uleb128 0x2e
 5213 128c 96030000 		.4byte	.LASF198
 5214 1290 01       		.byte	0x1
 5215 1291 2801     		.2byte	0x128
 5216 1293 9D120000 		.4byte	0x129d
 5217 1297 05       		.uleb128 0x5
 5218 1298 03       		.byte	0x3
 5219 1299 98000000 		.4byte	MinDelayGenGyro3List
 5220 129d 14       		.uleb128 0x14
 5221 129e FF110000 		.4byte	0x11ff
 5222 12a2 30       		.uleb128 0x30
 5223 12a3 63030000 		.4byte	0x363
 5224 12a7 B2120000 		.4byte	0x12b2
 5225 12ab 31       		.uleb128 0x31
 5226 12ac 81000000 		.4byte	0x81
 5227 12b0 05       		.byte	0x5
 5228 12b1 00       		.byte	0
 5229 12b2 2E       		.uleb128 0x2e
 5230 12b3 35070000 		.4byte	.LASF199
ARM GAS  C:\Users\ADMINI~1\AppData\Local\Temp\ccjTNAQQ.s 			page 128


 5231 12b7 01       		.byte	0x1
 5232 12b8 2E01     		.2byte	0x12e
 5233 12ba C4120000 		.4byte	0x12c4
 5234 12be 05       		.uleb128 0x5
 5235 12bf 03       		.byte	0x3
 5236 12c0 9C000000 		.4byte	MinDelayGenGyro4List
 5237 12c4 14       		.uleb128 0x14
 5238 12c5 A2120000 		.4byte	0x12a2
 5239 12c9 2E       		.uleb128 0x2e
 5240 12ca 630F0000 		.4byte	.LASF200
 5241 12ce 01       		.byte	0x1
 5242 12cf 4001     		.2byte	0x140
 5243 12d1 DB120000 		.4byte	0x12db
 5244 12d5 05       		.uleb128 0x5
 5245 12d6 03       		.byte	0x3
 5246 12d7 A8000000 		.4byte	MinDelayGenGyro5List
 5247 12db 14       		.uleb128 0x14
 5248 12dc D9110000 		.4byte	0x11d9
 5249 12e0 2E       		.uleb128 0x2e
 5250 12e1 700B0000 		.4byte	.LASF201
 5251 12e5 01       		.byte	0x1
 5252 12e6 E905     		.2byte	0x5e9
 5253 12e8 45000000 		.4byte	0x45
 5254 12ec 05       		.uleb128 0x5
 5255 12ed 03       		.byte	0x3
 5256 12ee 58000000 		.4byte	sBatchMode
 5257 12f2 30       		.uleb128 0x30
 5258 12f3 4C000000 		.4byte	0x4c
 5259 12f7 02130000 		.4byte	0x1302
 5260 12fb 31       		.uleb128 0x31
 5261 12fc 81000000 		.4byte	0x81
 5262 1300 29       		.byte	0x29
 5263 1301 00       		.byte	0
 5264 1302 39       		.uleb128 0x39
 5265 1303 46010000 		.4byte	.LASF234
 5266 1307 01       		.byte	0x1
 5267 1308 66       		.byte	0x66
 5268 1309 13130000 		.4byte	0x1313
 5269 130d 05       		.uleb128 0x5
 5270 130e 03       		.byte	0x3
 5271 130f 00000000 		.4byte	inv_androidSensor_to_control_bits
 5272 1313 14       		.uleb128 0x14
 5273 1314 F2120000 		.4byte	0x12f2
 5274 1318 3A       		.uleb128 0x3a
 5275 1319 E2000000 		.4byte	.LASF203
 5276 131d 08       		.byte	0x8
 5277 131e 4F       		.byte	0x4f
 5278 131f 03030000 		.4byte	0x303
 5279 1323 32130000 		.4byte	0x1332
 5280 1327 3B       		.uleb128 0x3b
 5281 1328 25000000 		.4byte	0x25
 5282 132c 3B       		.uleb128 0x3b
 5283 132d 4C000000 		.4byte	0x4c
 5284 1331 00       		.byte	0
 5285 1332 3A       		.uleb128 0x3a
 5286 1333 5B0B0000 		.4byte	.LASF204
 5287 1337 09       		.byte	0x9
ARM GAS  C:\Users\ADMINI~1\AppData\Local\Temp\ccjTNAQQ.s 			page 129


 5288 1338 90       		.byte	0x90
 5289 1339 A2000000 		.4byte	0xa2
 5290 133d 4C130000 		.4byte	0x134c
 5291 1341 3B       		.uleb128 0x3b
 5292 1342 53000000 		.4byte	0x53
 5293 1346 3B       		.uleb128 0x3b
 5294 1347 45000000 		.4byte	0x45
 5295 134b 00       		.byte	0
 5296 134c 3A       		.uleb128 0x3a
 5297 134d 940F0000 		.4byte	.LASF205
 5298 1351 08       		.byte	0x8
 5299 1352 AD       		.byte	0xad
 5300 1353 03030000 		.4byte	0x303
 5301 1357 61130000 		.4byte	0x1361
 5302 135b 3B       		.uleb128 0x3b
 5303 135c 53000000 		.4byte	0x53
 5304 1360 00       		.byte	0
 5305 1361 3A       		.uleb128 0x3a
 5306 1362 BA030000 		.4byte	.LASF206
 5307 1366 08       		.byte	0x8
 5308 1367 2E       		.byte	0x2e
 5309 1368 03030000 		.4byte	0x303
 5310 136c 76130000 		.4byte	0x1376
 5311 1370 3B       		.uleb128 0x3b
 5312 1371 25000000 		.4byte	0x25
 5313 1375 00       		.byte	0
 5314 1376 3C       		.uleb128 0x3c
 5315 1377 72080000 		.4byte	.LASF207
 5316 137b 09       		.byte	0x9
 5317 137c 89       		.byte	0x89
 5318 137d 45000000 		.4byte	0x45
 5319 1381 3C       		.uleb128 0x3c
 5320 1382 08100000 		.4byte	.LASF208
 5321 1386 09       		.byte	0x9
 5322 1387 9B       		.byte	0x9b
 5323 1388 4C000000 		.4byte	0x4c
 5324 138c 3A       		.uleb128 0x3a
 5325 138d 0E130000 		.4byte	.LASF209
 5326 1391 08       		.byte	0x8
 5327 1392 5B       		.byte	0x5b
 5328 1393 03030000 		.4byte	0x303
 5329 1397 A6130000 		.4byte	0x13a6
 5330 139b 3B       		.uleb128 0x3b
 5331 139c 2C000000 		.4byte	0x2c
 5332 13a0 3B       		.uleb128 0x3b
 5333 13a1 4C000000 		.4byte	0x4c
 5334 13a5 00       		.byte	0
 5335 13a6 3A       		.uleb128 0x3a
 5336 13a7 860C0000 		.4byte	.LASF210
 5337 13ab 08       		.byte	0x8
 5338 13ac 85       		.byte	0x85
 5339 13ad 03030000 		.4byte	0x303
 5340 13b1 BB130000 		.4byte	0x13bb
 5341 13b5 3B       		.uleb128 0x3b
 5342 13b6 25000000 		.4byte	0x25
 5343 13ba 00       		.byte	0
 5344 13bb 3D       		.uleb128 0x3d
ARM GAS  C:\Users\ADMINI~1\AppData\Local\Temp\ccjTNAQQ.s 			page 130


 5345 13bc F0050000 		.4byte	.LASF211
 5346 13c0 88000000 		.4byte	0x88
 5347 13c4 D8130000 		.4byte	0x13d8
 5348 13c8 3B       		.uleb128 0x3b
 5349 13c9 88000000 		.4byte	0x88
 5350 13cd 3B       		.uleb128 0x3b
 5351 13ce 25000000 		.4byte	0x25
 5352 13d2 3B       		.uleb128 0x3b
 5353 13d3 81000000 		.4byte	0x81
 5354 13d7 00       		.byte	0
 5355 13d8 3A       		.uleb128 0x3a
 5356 13d9 3B0B0000 		.4byte	.LASF212
 5357 13dd 08       		.byte	0x8
 5358 13de 8F       		.byte	0x8f
 5359 13df 03030000 		.4byte	0x303
 5360 13e3 ED130000 		.4byte	0x13ed
 5361 13e7 3B       		.uleb128 0x3b
 5362 13e8 ED130000 		.4byte	0x13ed
 5363 13ec 00       		.byte	0
 5364 13ed 06       		.uleb128 0x6
 5365 13ee 04       		.byte	0x4
 5366 13ef 25000000 		.4byte	0x25
 5367 13f3 3A       		.uleb128 0x3a
 5368 13f4 390F0000 		.4byte	.LASF213
 5369 13f8 09       		.byte	0x9
 5370 13f9 96       		.byte	0x96
 5371 13fa 03030000 		.4byte	0x303
 5372 13fe 08140000 		.4byte	0x1408
 5373 1402 3B       		.uleb128 0x3b
 5374 1403 4C000000 		.4byte	0x4c
 5375 1407 00       		.byte	0
 5376 1408 3A       		.uleb128 0x3a
 5377 1409 40050000 		.4byte	.LASF214
 5378 140d 09       		.byte	0x9
 5379 140e 84       		.byte	0x84
 5380 140f 03030000 		.4byte	0x303
 5381 1413 1D140000 		.4byte	0x141d
 5382 1417 3B       		.uleb128 0x3b
 5383 1418 45000000 		.4byte	0x45
 5384 141c 00       		.byte	0
 5385 141d 3E       		.uleb128 0x3e
 5386 141e 540A0000 		.4byte	.LASF217
 5387 1422 09       		.byte	0x9
 5388 1423 D8       		.byte	0xd8
 5389 1424 3C       		.uleb128 0x3c
 5390 1425 2F100000 		.4byte	.LASF215
 5391 1429 09       		.byte	0x9
 5392 142a B1       		.byte	0xb1
 5393 142b 97000000 		.4byte	0x97
 5394 142f 3A       		.uleb128 0x3a
 5395 1430 7B0B0000 		.4byte	.LASF216
 5396 1434 09       		.byte	0x9
 5397 1435 7E       		.byte	0x7e
 5398 1436 03030000 		.4byte	0x303
 5399 143a 49140000 		.4byte	0x1449
 5400 143e 3B       		.uleb128 0x3b
 5401 143f 45000000 		.4byte	0x45
ARM GAS  C:\Users\ADMINI~1\AppData\Local\Temp\ccjTNAQQ.s 			page 131


 5402 1443 3B       		.uleb128 0x3b
 5403 1444 25000000 		.4byte	0x25
 5404 1448 00       		.byte	0
 5405 1449 3E       		.uleb128 0x3e
 5406 144a 780F0000 		.4byte	.LASF218
 5407 144e 09       		.byte	0x9
 5408 144f DC       		.byte	0xdc
 5409 1450 3C       		.uleb128 0x3c
 5410 1451 BE0E0000 		.4byte	.LASF219
 5411 1455 08       		.byte	0x8
 5412 1456 F6       		.byte	0xf6
 5413 1457 03030000 		.4byte	0x303
 5414 145b 3A       		.uleb128 0x3a
 5415 145c 23080000 		.4byte	.LASF220
 5416 1460 08       		.byte	0x8
 5417 1461 27       		.byte	0x27
 5418 1462 03030000 		.4byte	0x303
 5419 1466 70140000 		.4byte	0x1470
 5420 146a 3B       		.uleb128 0x3b
 5421 146b 25000000 		.4byte	0x25
 5422 146f 00       		.byte	0
 5423 1470 3A       		.uleb128 0x3a
 5424 1471 B30D0000 		.4byte	.LASF221
 5425 1475 08       		.byte	0x8
 5426 1476 35       		.byte	0x35
 5427 1477 03030000 		.4byte	0x303
 5428 147b 85140000 		.4byte	0x1485
 5429 147f 3B       		.uleb128 0x3b
 5430 1480 A2000000 		.4byte	0xa2
 5431 1484 00       		.byte	0
 5432 1485 3A       		.uleb128 0x3a
 5433 1486 3F0C0000 		.4byte	.LASF222
 5434 148a 08       		.byte	0x8
 5435 148b 48       		.byte	0x48
 5436 148c 03030000 		.4byte	0x303
 5437 1490 9A140000 		.4byte	0x149a
 5438 1494 3B       		.uleb128 0x3b
 5439 1495 53000000 		.4byte	0x53
 5440 1499 00       		.byte	0
 5441 149a 3C       		.uleb128 0x3c
 5442 149b 16120000 		.4byte	.LASF223
 5443 149f 09       		.byte	0x9
 5444 14a0 56       		.byte	0x56
 5445 14a1 03030000 		.4byte	0x303
 5446 14a5 3A       		.uleb128 0x3a
 5447 14a6 F7050000 		.4byte	.LASF224
 5448 14aa 09       		.byte	0x9
 5449 14ab 75       		.byte	0x75
 5450 14ac 03030000 		.4byte	0x303
 5451 14b0 BA140000 		.4byte	0x14ba
 5452 14b4 3B       		.uleb128 0x3b
 5453 14b5 25000000 		.4byte	0x25
 5454 14b9 00       		.byte	0
 5455 14ba 3A       		.uleb128 0x3a
 5456 14bb FB060000 		.4byte	.LASF225
 5457 14bf 08       		.byte	0x8
 5458 14c0 41       		.byte	0x41
ARM GAS  C:\Users\ADMINI~1\AppData\Local\Temp\ccjTNAQQ.s 			page 132


 5459 14c1 03030000 		.4byte	0x303
 5460 14c5 CF140000 		.4byte	0x14cf
 5461 14c9 3B       		.uleb128 0x3b
 5462 14ca 53000000 		.4byte	0x53
 5463 14ce 00       		.byte	0
 5464 14cf 3A       		.uleb128 0x3a
 5465 14d0 A10A0000 		.4byte	.LASF226
 5466 14d4 08       		.byte	0x8
 5467 14d5 EB       		.byte	0xeb
 5468 14d6 03030000 		.4byte	0x303
 5469 14da E4140000 		.4byte	0x14e4
 5470 14de 3B       		.uleb128 0x3b
 5471 14df 2D090000 		.4byte	0x92d
 5472 14e3 00       		.byte	0
 5473 14e4 3A       		.uleb128 0x3a
 5474 14e5 82140000 		.4byte	.LASF227
 5475 14e9 08       		.byte	0x8
 5476 14ea F1       		.byte	0xf1
 5477 14eb 03030000 		.4byte	0x303
 5478 14ef F9140000 		.4byte	0x14f9
 5479 14f3 3B       		.uleb128 0x3b
 5480 14f4 6C000000 		.4byte	0x6c
 5481 14f8 00       		.byte	0
 5482 14f9 3C       		.uleb128 0x3c
 5483 14fa 58080000 		.4byte	.LASF228
 5484 14fe 09       		.byte	0x9
 5485 14ff 51       		.byte	0x51
 5486 1500 03030000 		.4byte	0x303
 5487 1504 00       		.byte	0
 5488              		.section	.debug_abbrev,"",%progbits
 5489              	.Ldebug_abbrev0:
 5490 0000 01       		.uleb128 0x1
 5491 0001 11       		.uleb128 0x11
 5492 0002 01       		.byte	0x1
 5493 0003 25       		.uleb128 0x25
 5494 0004 0E       		.uleb128 0xe
 5495 0005 13       		.uleb128 0x13
 5496 0006 0B       		.uleb128 0xb
 5497 0007 03       		.uleb128 0x3
 5498 0008 0E       		.uleb128 0xe
 5499 0009 1B       		.uleb128 0x1b
 5500 000a 0E       		.uleb128 0xe
 5501 000b 55       		.uleb128 0x55
 5502 000c 17       		.uleb128 0x17
 5503 000d 11       		.uleb128 0x11
 5504 000e 01       		.uleb128 0x1
 5505 000f 10       		.uleb128 0x10
 5506 0010 17       		.uleb128 0x17
 5507 0011 00       		.byte	0
 5508 0012 00       		.byte	0
 5509 0013 02       		.uleb128 0x2
 5510 0014 24       		.uleb128 0x24
 5511 0015 00       		.byte	0
 5512 0016 0B       		.uleb128 0xb
 5513 0017 0B       		.uleb128 0xb
 5514 0018 3E       		.uleb128 0x3e
 5515 0019 0B       		.uleb128 0xb
ARM GAS  C:\Users\ADMINI~1\AppData\Local\Temp\ccjTNAQQ.s 			page 133


 5516 001a 03       		.uleb128 0x3
 5517 001b 08       		.uleb128 0x8
 5518 001c 00       		.byte	0
 5519 001d 00       		.byte	0
 5520 001e 03       		.uleb128 0x3
 5521 001f 24       		.uleb128 0x24
 5522 0020 00       		.byte	0
 5523 0021 0B       		.uleb128 0xb
 5524 0022 0B       		.uleb128 0xb
 5525 0023 3E       		.uleb128 0x3e
 5526 0024 0B       		.uleb128 0xb
 5527 0025 03       		.uleb128 0x3
 5528 0026 0E       		.uleb128 0xe
 5529 0027 00       		.byte	0
 5530 0028 00       		.byte	0
 5531 0029 04       		.uleb128 0x4
 5532 002a 16       		.uleb128 0x16
 5533 002b 00       		.byte	0
 5534 002c 03       		.uleb128 0x3
 5535 002d 0E       		.uleb128 0xe
 5536 002e 3A       		.uleb128 0x3a
 5537 002f 0B       		.uleb128 0xb
 5538 0030 3B       		.uleb128 0x3b
 5539 0031 0B       		.uleb128 0xb
 5540 0032 49       		.uleb128 0x49
 5541 0033 13       		.uleb128 0x13
 5542 0034 00       		.byte	0
 5543 0035 00       		.byte	0
 5544 0036 05       		.uleb128 0x5
 5545 0037 0F       		.uleb128 0xf
 5546 0038 00       		.byte	0
 5547 0039 0B       		.uleb128 0xb
 5548 003a 0B       		.uleb128 0xb
 5549 003b 00       		.byte	0
 5550 003c 00       		.byte	0
 5551 003d 06       		.uleb128 0x6
 5552 003e 0F       		.uleb128 0xf
 5553 003f 00       		.byte	0
 5554 0040 0B       		.uleb128 0xb
 5555 0041 0B       		.uleb128 0xb
 5556 0042 49       		.uleb128 0x49
 5557 0043 13       		.uleb128 0x13
 5558 0044 00       		.byte	0
 5559 0045 00       		.byte	0
 5560 0046 07       		.uleb128 0x7
 5561 0047 04       		.uleb128 0x4
 5562 0048 01       		.byte	0x1
 5563 0049 03       		.uleb128 0x3
 5564 004a 0E       		.uleb128 0xe
 5565 004b 0B       		.uleb128 0xb
 5566 004c 0B       		.uleb128 0xb
 5567 004d 3A       		.uleb128 0x3a
 5568 004e 0B       		.uleb128 0xb
 5569 004f 3B       		.uleb128 0x3b
 5570 0050 0B       		.uleb128 0xb
 5571 0051 01       		.uleb128 0x1
 5572 0052 13       		.uleb128 0x13
ARM GAS  C:\Users\ADMINI~1\AppData\Local\Temp\ccjTNAQQ.s 			page 134


 5573 0053 00       		.byte	0
 5574 0054 00       		.byte	0
 5575 0055 08       		.uleb128 0x8
 5576 0056 28       		.uleb128 0x28
 5577 0057 00       		.byte	0
 5578 0058 03       		.uleb128 0x3
 5579 0059 0E       		.uleb128 0xe
 5580 005a 1C       		.uleb128 0x1c
 5581 005b 0D       		.uleb128 0xd
 5582 005c 00       		.byte	0
 5583 005d 00       		.byte	0
 5584 005e 09       		.uleb128 0x9
 5585 005f 04       		.uleb128 0x4
 5586 0060 01       		.byte	0x1
 5587 0061 03       		.uleb128 0x3
 5588 0062 0E       		.uleb128 0xe
 5589 0063 0B       		.uleb128 0xb
 5590 0064 0B       		.uleb128 0xb
 5591 0065 3A       		.uleb128 0x3a
 5592 0066 0B       		.uleb128 0xb
 5593 0067 3B       		.uleb128 0x3b
 5594 0068 05       		.uleb128 0x5
 5595 0069 01       		.uleb128 0x1
 5596 006a 13       		.uleb128 0x13
 5597 006b 00       		.byte	0
 5598 006c 00       		.byte	0
 5599 006d 0A       		.uleb128 0xa
 5600 006e 13       		.uleb128 0x13
 5601 006f 01       		.byte	0x1
 5602 0070 0B       		.uleb128 0xb
 5603 0071 0B       		.uleb128 0xb
 5604 0072 3A       		.uleb128 0x3a
 5605 0073 0B       		.uleb128 0xb
 5606 0074 3B       		.uleb128 0x3b
 5607 0075 0B       		.uleb128 0xb
 5608 0076 01       		.uleb128 0x1
 5609 0077 13       		.uleb128 0x13
 5610 0078 00       		.byte	0
 5611 0079 00       		.byte	0
 5612 007a 0B       		.uleb128 0xb
 5613 007b 0D       		.uleb128 0xd
 5614 007c 00       		.byte	0
 5615 007d 03       		.uleb128 0x3
 5616 007e 0E       		.uleb128 0xe
 5617 007f 3A       		.uleb128 0x3a
 5618 0080 0B       		.uleb128 0xb
 5619 0081 3B       		.uleb128 0x3b
 5620 0082 0B       		.uleb128 0xb
 5621 0083 49       		.uleb128 0x49
 5622 0084 13       		.uleb128 0x13
 5623 0085 38       		.uleb128 0x38
 5624 0086 0B       		.uleb128 0xb
 5625 0087 00       		.byte	0
 5626 0088 00       		.byte	0
 5627 0089 0C       		.uleb128 0xc
 5628 008a 16       		.uleb128 0x16
 5629 008b 00       		.byte	0
ARM GAS  C:\Users\ADMINI~1\AppData\Local\Temp\ccjTNAQQ.s 			page 135


 5630 008c 03       		.uleb128 0x3
 5631 008d 0E       		.uleb128 0xe
 5632 008e 3A       		.uleb128 0x3a
 5633 008f 0B       		.uleb128 0xb
 5634 0090 3B       		.uleb128 0x3b
 5635 0091 05       		.uleb128 0x5
 5636 0092 49       		.uleb128 0x49
 5637 0093 13       		.uleb128 0x13
 5638 0094 00       		.byte	0
 5639 0095 00       		.byte	0
 5640 0096 0D       		.uleb128 0xd
 5641 0097 16       		.uleb128 0x16
 5642 0098 00       		.byte	0
 5643 0099 03       		.uleb128 0x3
 5644 009a 08       		.uleb128 0x8
 5645 009b 3A       		.uleb128 0x3a
 5646 009c 0B       		.uleb128 0xb
 5647 009d 3B       		.uleb128 0x3b
 5648 009e 05       		.uleb128 0x5
 5649 009f 49       		.uleb128 0x49
 5650 00a0 13       		.uleb128 0x13
 5651 00a1 00       		.byte	0
 5652 00a2 00       		.byte	0
 5653 00a3 0E       		.uleb128 0xe
 5654 00a4 2E       		.uleb128 0x2e
 5655 00a5 01       		.byte	0x1
 5656 00a6 03       		.uleb128 0x3
 5657 00a7 0E       		.uleb128 0xe
 5658 00a8 3A       		.uleb128 0x3a
 5659 00a9 0B       		.uleb128 0xb
 5660 00aa 3B       		.uleb128 0x3b
 5661 00ab 05       		.uleb128 0x5
 5662 00ac 27       		.uleb128 0x27
 5663 00ad 19       		.uleb128 0x19
 5664 00ae 49       		.uleb128 0x49
 5665 00af 13       		.uleb128 0x13
 5666 00b0 20       		.uleb128 0x20
 5667 00b1 0B       		.uleb128 0xb
 5668 00b2 01       		.uleb128 0x1
 5669 00b3 13       		.uleb128 0x13
 5670 00b4 00       		.byte	0
 5671 00b5 00       		.byte	0
 5672 00b6 0F       		.uleb128 0xf
 5673 00b7 05       		.uleb128 0x5
 5674 00b8 00       		.byte	0
 5675 00b9 03       		.uleb128 0x3
 5676 00ba 0E       		.uleb128 0xe
 5677 00bb 3A       		.uleb128 0x3a
 5678 00bc 0B       		.uleb128 0xb
 5679 00bd 3B       		.uleb128 0x3b
 5680 00be 05       		.uleb128 0x5
 5681 00bf 49       		.uleb128 0x49
 5682 00c0 13       		.uleb128 0x13
 5683 00c1 00       		.byte	0
 5684 00c2 00       		.byte	0
 5685 00c3 10       		.uleb128 0x10
 5686 00c4 34       		.uleb128 0x34
ARM GAS  C:\Users\ADMINI~1\AppData\Local\Temp\ccjTNAQQ.s 			page 136


 5687 00c5 00       		.byte	0
 5688 00c6 03       		.uleb128 0x3
 5689 00c7 0E       		.uleb128 0xe
 5690 00c8 3A       		.uleb128 0x3a
 5691 00c9 0B       		.uleb128 0xb
 5692 00ca 3B       		.uleb128 0x3b
 5693 00cb 05       		.uleb128 0x5
 5694 00cc 49       		.uleb128 0x49
 5695 00cd 13       		.uleb128 0x13
 5696 00ce 00       		.byte	0
 5697 00cf 00       		.byte	0
 5698 00d0 11       		.uleb128 0x11
 5699 00d1 0B       		.uleb128 0xb
 5700 00d2 01       		.byte	0x1
 5701 00d3 00       		.byte	0
 5702 00d4 00       		.byte	0
 5703 00d5 12       		.uleb128 0x12
 5704 00d6 2E       		.uleb128 0x2e
 5705 00d7 01       		.byte	0x1
 5706 00d8 3F       		.uleb128 0x3f
 5707 00d9 19       		.uleb128 0x19
 5708 00da 03       		.uleb128 0x3
 5709 00db 0E       		.uleb128 0xe
 5710 00dc 3A       		.uleb128 0x3a
 5711 00dd 0B       		.uleb128 0xb
 5712 00de 3B       		.uleb128 0x3b
 5713 00df 05       		.uleb128 0x5
 5714 00e0 27       		.uleb128 0x27
 5715 00e1 19       		.uleb128 0x19
 5716 00e2 20       		.uleb128 0x20
 5717 00e3 0B       		.uleb128 0xb
 5718 00e4 01       		.uleb128 0x1
 5719 00e5 13       		.uleb128 0x13
 5720 00e6 00       		.byte	0
 5721 00e7 00       		.byte	0
 5722 00e8 13       		.uleb128 0x13
 5723 00e9 2E       		.uleb128 0x2e
 5724 00ea 01       		.byte	0x1
 5725 00eb 03       		.uleb128 0x3
 5726 00ec 0E       		.uleb128 0xe
 5727 00ed 3A       		.uleb128 0x3a
 5728 00ee 0B       		.uleb128 0xb
 5729 00ef 3B       		.uleb128 0x3b
 5730 00f0 05       		.uleb128 0x5
 5731 00f1 27       		.uleb128 0x27
 5732 00f2 19       		.uleb128 0x19
 5733 00f3 20       		.uleb128 0x20
 5734 00f4 0B       		.uleb128 0xb
 5735 00f5 01       		.uleb128 0x1
 5736 00f6 13       		.uleb128 0x13
 5737 00f7 00       		.byte	0
 5738 00f8 00       		.byte	0
 5739 00f9 14       		.uleb128 0x14
 5740 00fa 26       		.uleb128 0x26
 5741 00fb 00       		.byte	0
 5742 00fc 49       		.uleb128 0x49
 5743 00fd 13       		.uleb128 0x13
ARM GAS  C:\Users\ADMINI~1\AppData\Local\Temp\ccjTNAQQ.s 			page 137


 5744 00fe 00       		.byte	0
 5745 00ff 00       		.byte	0
 5746 0100 15       		.uleb128 0x15
 5747 0101 2E       		.uleb128 0x2e
 5748 0102 01       		.byte	0x1
 5749 0103 31       		.uleb128 0x31
 5750 0104 13       		.uleb128 0x13
 5751 0105 11       		.uleb128 0x11
 5752 0106 01       		.uleb128 0x1
 5753 0107 12       		.uleb128 0x12
 5754 0108 06       		.uleb128 0x6
 5755 0109 40       		.uleb128 0x40
 5756 010a 18       		.uleb128 0x18
 5757 010b 9642     		.uleb128 0x2116
 5758 010d 19       		.uleb128 0x19
 5759 010e 01       		.uleb128 0x1
 5760 010f 13       		.uleb128 0x13
 5761 0110 00       		.byte	0
 5762 0111 00       		.byte	0
 5763 0112 16       		.uleb128 0x16
 5764 0113 05       		.uleb128 0x5
 5765 0114 00       		.byte	0
 5766 0115 31       		.uleb128 0x31
 5767 0116 13       		.uleb128 0x13
 5768 0117 02       		.uleb128 0x2
 5769 0118 17       		.uleb128 0x17
 5770 0119 00       		.byte	0
 5771 011a 00       		.byte	0
 5772 011b 17       		.uleb128 0x17
 5773 011c 34       		.uleb128 0x34
 5774 011d 00       		.byte	0
 5775 011e 31       		.uleb128 0x31
 5776 011f 13       		.uleb128 0x13
 5777 0120 02       		.uleb128 0x2
 5778 0121 17       		.uleb128 0x17
 5779 0122 00       		.byte	0
 5780 0123 00       		.byte	0
 5781 0124 18       		.uleb128 0x18
 5782 0125 0B       		.uleb128 0xb
 5783 0126 01       		.byte	0x1
 5784 0127 11       		.uleb128 0x11
 5785 0128 01       		.uleb128 0x1
 5786 0129 12       		.uleb128 0x12
 5787 012a 06       		.uleb128 0x6
 5788 012b 00       		.byte	0
 5789 012c 00       		.byte	0
 5790 012d 19       		.uleb128 0x19
 5791 012e 34       		.uleb128 0x34
 5792 012f 00       		.byte	0
 5793 0130 31       		.uleb128 0x31
 5794 0131 13       		.uleb128 0x13
 5795 0132 00       		.byte	0
 5796 0133 00       		.byte	0
 5797 0134 1A       		.uleb128 0x1a
 5798 0135 898201   		.uleb128 0x4109
 5799 0138 01       		.byte	0x1
 5800 0139 11       		.uleb128 0x11
ARM GAS  C:\Users\ADMINI~1\AppData\Local\Temp\ccjTNAQQ.s 			page 138


 5801 013a 01       		.uleb128 0x1
 5802 013b 31       		.uleb128 0x31
 5803 013c 13       		.uleb128 0x13
 5804 013d 00       		.byte	0
 5805 013e 00       		.byte	0
 5806 013f 1B       		.uleb128 0x1b
 5807 0140 8A8201   		.uleb128 0x410a
 5808 0143 00       		.byte	0
 5809 0144 02       		.uleb128 0x2
 5810 0145 18       		.uleb128 0x18
 5811 0146 9142     		.uleb128 0x2111
 5812 0148 18       		.uleb128 0x18
 5813 0149 00       		.byte	0
 5814 014a 00       		.byte	0
 5815 014b 1C       		.uleb128 0x1c
 5816 014c 2E       		.uleb128 0x2e
 5817 014d 01       		.byte	0x1
 5818 014e 3F       		.uleb128 0x3f
 5819 014f 19       		.uleb128 0x19
 5820 0150 03       		.uleb128 0x3
 5821 0151 0E       		.uleb128 0xe
 5822 0152 3A       		.uleb128 0x3a
 5823 0153 0B       		.uleb128 0xb
 5824 0154 3B       		.uleb128 0x3b
 5825 0155 0B       		.uleb128 0xb
 5826 0156 27       		.uleb128 0x27
 5827 0157 19       		.uleb128 0x19
 5828 0158 49       		.uleb128 0x49
 5829 0159 13       		.uleb128 0x13
 5830 015a 20       		.uleb128 0x20
 5831 015b 0B       		.uleb128 0xb
 5832 015c 01       		.uleb128 0x1
 5833 015d 13       		.uleb128 0x13
 5834 015e 00       		.byte	0
 5835 015f 00       		.byte	0
 5836 0160 1D       		.uleb128 0x1d
 5837 0161 05       		.uleb128 0x5
 5838 0162 00       		.byte	0
 5839 0163 03       		.uleb128 0x3
 5840 0164 0E       		.uleb128 0xe
 5841 0165 3A       		.uleb128 0x3a
 5842 0166 0B       		.uleb128 0xb
 5843 0167 3B       		.uleb128 0x3b
 5844 0168 0B       		.uleb128 0xb
 5845 0169 49       		.uleb128 0x49
 5846 016a 13       		.uleb128 0x13
 5847 016b 00       		.byte	0
 5848 016c 00       		.byte	0
 5849 016d 1E       		.uleb128 0x1e
 5850 016e 2E       		.uleb128 0x2e
 5851 016f 01       		.byte	0x1
 5852 0170 31       		.uleb128 0x31
 5853 0171 13       		.uleb128 0x13
 5854 0172 11       		.uleb128 0x11
 5855 0173 01       		.uleb128 0x1
 5856 0174 12       		.uleb128 0x12
 5857 0175 06       		.uleb128 0x6
ARM GAS  C:\Users\ADMINI~1\AppData\Local\Temp\ccjTNAQQ.s 			page 139


 5858 0176 40       		.uleb128 0x40
 5859 0177 18       		.uleb128 0x18
 5860 0178 9742     		.uleb128 0x2117
 5861 017a 19       		.uleb128 0x19
 5862 017b 01       		.uleb128 0x1
 5863 017c 13       		.uleb128 0x13
 5864 017d 00       		.byte	0
 5865 017e 00       		.byte	0
 5866 017f 1F       		.uleb128 0x1f
 5867 0180 2E       		.uleb128 0x2e
 5868 0181 01       		.byte	0x1
 5869 0182 03       		.uleb128 0x3
 5870 0183 0E       		.uleb128 0xe
 5871 0184 3A       		.uleb128 0x3a
 5872 0185 0B       		.uleb128 0xb
 5873 0186 3B       		.uleb128 0x3b
 5874 0187 05       		.uleb128 0x5
 5875 0188 27       		.uleb128 0x27
 5876 0189 19       		.uleb128 0x19
 5877 018a 49       		.uleb128 0x49
 5878 018b 13       		.uleb128 0x13
 5879 018c 11       		.uleb128 0x11
 5880 018d 01       		.uleb128 0x1
 5881 018e 12       		.uleb128 0x12
 5882 018f 06       		.uleb128 0x6
 5883 0190 40       		.uleb128 0x40
 5884 0191 18       		.uleb128 0x18
 5885 0192 9742     		.uleb128 0x2117
 5886 0194 19       		.uleb128 0x19
 5887 0195 01       		.uleb128 0x1
 5888 0196 13       		.uleb128 0x13
 5889 0197 00       		.byte	0
 5890 0198 00       		.byte	0
 5891 0199 20       		.uleb128 0x20
 5892 019a 05       		.uleb128 0x5
 5893 019b 00       		.byte	0
 5894 019c 03       		.uleb128 0x3
 5895 019d 0E       		.uleb128 0xe
 5896 019e 3A       		.uleb128 0x3a
 5897 019f 0B       		.uleb128 0xb
 5898 01a0 3B       		.uleb128 0x3b
 5899 01a1 05       		.uleb128 0x5
 5900 01a2 49       		.uleb128 0x49
 5901 01a3 13       		.uleb128 0x13
 5902 01a4 02       		.uleb128 0x2
 5903 01a5 17       		.uleb128 0x17
 5904 01a6 00       		.byte	0
 5905 01a7 00       		.byte	0
 5906 01a8 21       		.uleb128 0x21
 5907 01a9 34       		.uleb128 0x34
 5908 01aa 00       		.byte	0
 5909 01ab 03       		.uleb128 0x3
 5910 01ac 0E       		.uleb128 0xe
 5911 01ad 3A       		.uleb128 0x3a
 5912 01ae 0B       		.uleb128 0xb
 5913 01af 3B       		.uleb128 0x3b
 5914 01b0 05       		.uleb128 0x5
ARM GAS  C:\Users\ADMINI~1\AppData\Local\Temp\ccjTNAQQ.s 			page 140


 5915 01b1 49       		.uleb128 0x49
 5916 01b2 13       		.uleb128 0x13
 5917 01b3 02       		.uleb128 0x2
 5918 01b4 17       		.uleb128 0x17
 5919 01b5 00       		.byte	0
 5920 01b6 00       		.byte	0
 5921 01b7 22       		.uleb128 0x22
 5922 01b8 0B       		.uleb128 0xb
 5923 01b9 01       		.byte	0x1
 5924 01ba 11       		.uleb128 0x11
 5925 01bb 01       		.uleb128 0x1
 5926 01bc 12       		.uleb128 0x12
 5927 01bd 06       		.uleb128 0x6
 5928 01be 01       		.uleb128 0x1
 5929 01bf 13       		.uleb128 0x13
 5930 01c0 00       		.byte	0
 5931 01c1 00       		.byte	0
 5932 01c2 23       		.uleb128 0x23
 5933 01c3 898201   		.uleb128 0x4109
 5934 01c6 00       		.byte	0
 5935 01c7 11       		.uleb128 0x11
 5936 01c8 01       		.uleb128 0x1
 5937 01c9 31       		.uleb128 0x31
 5938 01ca 13       		.uleb128 0x13
 5939 01cb 00       		.byte	0
 5940 01cc 00       		.byte	0
 5941 01cd 24       		.uleb128 0x24
 5942 01ce 2E       		.uleb128 0x2e
 5943 01cf 01       		.byte	0x1
 5944 01d0 3F       		.uleb128 0x3f
 5945 01d1 19       		.uleb128 0x19
 5946 01d2 03       		.uleb128 0x3
 5947 01d3 0E       		.uleb128 0xe
 5948 01d4 3A       		.uleb128 0x3a
 5949 01d5 0B       		.uleb128 0xb
 5950 01d6 3B       		.uleb128 0x3b
 5951 01d7 05       		.uleb128 0x5
 5952 01d8 27       		.uleb128 0x27
 5953 01d9 19       		.uleb128 0x19
 5954 01da 49       		.uleb128 0x49
 5955 01db 13       		.uleb128 0x13
 5956 01dc 11       		.uleb128 0x11
 5957 01dd 01       		.uleb128 0x1
 5958 01de 12       		.uleb128 0x12
 5959 01df 06       		.uleb128 0x6
 5960 01e0 40       		.uleb128 0x40
 5961 01e1 18       		.uleb128 0x18
 5962 01e2 9742     		.uleb128 0x2117
 5963 01e4 19       		.uleb128 0x19
 5964 01e5 01       		.uleb128 0x1
 5965 01e6 13       		.uleb128 0x13
 5966 01e7 00       		.byte	0
 5967 01e8 00       		.byte	0
 5968 01e9 25       		.uleb128 0x25
 5969 01ea 05       		.uleb128 0x5
 5970 01eb 00       		.byte	0
 5971 01ec 03       		.uleb128 0x3
ARM GAS  C:\Users\ADMINI~1\AppData\Local\Temp\ccjTNAQQ.s 			page 141


 5972 01ed 08       		.uleb128 0x8
 5973 01ee 3A       		.uleb128 0x3a
 5974 01ef 0B       		.uleb128 0xb
 5975 01f0 3B       		.uleb128 0x3b
 5976 01f1 05       		.uleb128 0x5
 5977 01f2 49       		.uleb128 0x49
 5978 01f3 13       		.uleb128 0x13
 5979 01f4 02       		.uleb128 0x2
 5980 01f5 17       		.uleb128 0x17
 5981 01f6 00       		.byte	0
 5982 01f7 00       		.byte	0
 5983 01f8 26       		.uleb128 0x26
 5984 01f9 34       		.uleb128 0x34
 5985 01fa 00       		.byte	0
 5986 01fb 03       		.uleb128 0x3
 5987 01fc 0E       		.uleb128 0xe
 5988 01fd 3A       		.uleb128 0x3a
 5989 01fe 0B       		.uleb128 0xb
 5990 01ff 3B       		.uleb128 0x3b
 5991 0200 05       		.uleb128 0x5
 5992 0201 49       		.uleb128 0x49
 5993 0202 13       		.uleb128 0x13
 5994 0203 1C       		.uleb128 0x1c
 5995 0204 0B       		.uleb128 0xb
 5996 0205 00       		.byte	0
 5997 0206 00       		.byte	0
 5998 0207 27       		.uleb128 0x27
 5999 0208 2E       		.uleb128 0x2e
 6000 0209 01       		.byte	0x1
 6001 020a 3F       		.uleb128 0x3f
 6002 020b 19       		.uleb128 0x19
 6003 020c 03       		.uleb128 0x3
 6004 020d 0E       		.uleb128 0xe
 6005 020e 3A       		.uleb128 0x3a
 6006 020f 0B       		.uleb128 0xb
 6007 0210 3B       		.uleb128 0x3b
 6008 0211 05       		.uleb128 0x5
 6009 0212 27       		.uleb128 0x27
 6010 0213 19       		.uleb128 0x19
 6011 0214 11       		.uleb128 0x11
 6012 0215 01       		.uleb128 0x1
 6013 0216 12       		.uleb128 0x12
 6014 0217 06       		.uleb128 0x6
 6015 0218 40       		.uleb128 0x40
 6016 0219 18       		.uleb128 0x18
 6017 021a 9742     		.uleb128 0x2117
 6018 021c 19       		.uleb128 0x19
 6019 021d 01       		.uleb128 0x1
 6020 021e 13       		.uleb128 0x13
 6021 021f 00       		.byte	0
 6022 0220 00       		.byte	0
 6023 0221 28       		.uleb128 0x28
 6024 0222 05       		.uleb128 0x5
 6025 0223 00       		.byte	0
 6026 0224 03       		.uleb128 0x3
 6027 0225 0E       		.uleb128 0xe
 6028 0226 3A       		.uleb128 0x3a
ARM GAS  C:\Users\ADMINI~1\AppData\Local\Temp\ccjTNAQQ.s 			page 142


 6029 0227 0B       		.uleb128 0xb
 6030 0228 3B       		.uleb128 0x3b
 6031 0229 05       		.uleb128 0x5
 6032 022a 49       		.uleb128 0x49
 6033 022b 13       		.uleb128 0x13
 6034 022c 02       		.uleb128 0x2
 6035 022d 18       		.uleb128 0x18
 6036 022e 00       		.byte	0
 6037 022f 00       		.byte	0
 6038 0230 29       		.uleb128 0x29
 6039 0231 34       		.uleb128 0x34
 6040 0232 00       		.byte	0
 6041 0233 03       		.uleb128 0x3
 6042 0234 08       		.uleb128 0x8
 6043 0235 3A       		.uleb128 0x3a
 6044 0236 0B       		.uleb128 0xb
 6045 0237 3B       		.uleb128 0x3b
 6046 0238 05       		.uleb128 0x5
 6047 0239 49       		.uleb128 0x49
 6048 023a 13       		.uleb128 0x13
 6049 023b 00       		.byte	0
 6050 023c 00       		.byte	0
 6051 023d 2A       		.uleb128 0x2a
 6052 023e 2E       		.uleb128 0x2e
 6053 023f 00       		.byte	0
 6054 0240 3F       		.uleb128 0x3f
 6055 0241 19       		.uleb128 0x19
 6056 0242 03       		.uleb128 0x3
 6057 0243 0E       		.uleb128 0xe
 6058 0244 3A       		.uleb128 0x3a
 6059 0245 0B       		.uleb128 0xb
 6060 0246 3B       		.uleb128 0x3b
 6061 0247 05       		.uleb128 0x5
 6062 0248 27       		.uleb128 0x27
 6063 0249 19       		.uleb128 0x19
 6064 024a 49       		.uleb128 0x49
 6065 024b 13       		.uleb128 0x13
 6066 024c 11       		.uleb128 0x11
 6067 024d 01       		.uleb128 0x1
 6068 024e 12       		.uleb128 0x12
 6069 024f 06       		.uleb128 0x6
 6070 0250 40       		.uleb128 0x40
 6071 0251 18       		.uleb128 0x18
 6072 0252 9742     		.uleb128 0x2117
 6073 0254 19       		.uleb128 0x19
 6074 0255 00       		.byte	0
 6075 0256 00       		.byte	0
 6076 0257 2B       		.uleb128 0x2b
 6077 0258 1D       		.uleb128 0x1d
 6078 0259 01       		.byte	0x1
 6079 025a 31       		.uleb128 0x31
 6080 025b 13       		.uleb128 0x13
 6081 025c 11       		.uleb128 0x11
 6082 025d 01       		.uleb128 0x1
 6083 025e 12       		.uleb128 0x12
 6084 025f 06       		.uleb128 0x6
 6085 0260 58       		.uleb128 0x58
ARM GAS  C:\Users\ADMINI~1\AppData\Local\Temp\ccjTNAQQ.s 			page 143


 6086 0261 0B       		.uleb128 0xb
 6087 0262 59       		.uleb128 0x59
 6088 0263 05       		.uleb128 0x5
 6089 0264 01       		.uleb128 0x1
 6090 0265 13       		.uleb128 0x13
 6091 0266 00       		.byte	0
 6092 0267 00       		.byte	0
 6093 0268 2C       		.uleb128 0x2c
 6094 0269 34       		.uleb128 0x34
 6095 026a 00       		.byte	0
 6096 026b 03       		.uleb128 0x3
 6097 026c 08       		.uleb128 0x8
 6098 026d 3A       		.uleb128 0x3a
 6099 026e 0B       		.uleb128 0xb
 6100 026f 3B       		.uleb128 0x3b
 6101 0270 05       		.uleb128 0x5
 6102 0271 49       		.uleb128 0x49
 6103 0272 13       		.uleb128 0x13
 6104 0273 02       		.uleb128 0x2
 6105 0274 17       		.uleb128 0x17
 6106 0275 00       		.byte	0
 6107 0276 00       		.byte	0
 6108 0277 2D       		.uleb128 0x2d
 6109 0278 2E       		.uleb128 0x2e
 6110 0279 01       		.byte	0x1
 6111 027a 3F       		.uleb128 0x3f
 6112 027b 19       		.uleb128 0x19
 6113 027c 03       		.uleb128 0x3
 6114 027d 0E       		.uleb128 0xe
 6115 027e 3A       		.uleb128 0x3a
 6116 027f 0B       		.uleb128 0xb
 6117 0280 3B       		.uleb128 0x3b
 6118 0281 05       		.uleb128 0x5
 6119 0282 27       		.uleb128 0x27
 6120 0283 19       		.uleb128 0x19
 6121 0284 49       		.uleb128 0x49
 6122 0285 13       		.uleb128 0x13
 6123 0286 11       		.uleb128 0x11
 6124 0287 01       		.uleb128 0x1
 6125 0288 12       		.uleb128 0x12
 6126 0289 06       		.uleb128 0x6
 6127 028a 40       		.uleb128 0x40
 6128 028b 18       		.uleb128 0x18
 6129 028c 9642     		.uleb128 0x2116
 6130 028e 19       		.uleb128 0x19
 6131 028f 01       		.uleb128 0x1
 6132 0290 13       		.uleb128 0x13
 6133 0291 00       		.byte	0
 6134 0292 00       		.byte	0
 6135 0293 2E       		.uleb128 0x2e
 6136 0294 34       		.uleb128 0x34
 6137 0295 00       		.byte	0
 6138 0296 03       		.uleb128 0x3
 6139 0297 0E       		.uleb128 0xe
 6140 0298 3A       		.uleb128 0x3a
 6141 0299 0B       		.uleb128 0xb
 6142 029a 3B       		.uleb128 0x3b
ARM GAS  C:\Users\ADMINI~1\AppData\Local\Temp\ccjTNAQQ.s 			page 144


 6143 029b 05       		.uleb128 0x5
 6144 029c 49       		.uleb128 0x49
 6145 029d 13       		.uleb128 0x13
 6146 029e 02       		.uleb128 0x2
 6147 029f 18       		.uleb128 0x18
 6148 02a0 00       		.byte	0
 6149 02a1 00       		.byte	0
 6150 02a2 2F       		.uleb128 0x2f
 6151 02a3 898201   		.uleb128 0x4109
 6152 02a6 01       		.byte	0x1
 6153 02a7 11       		.uleb128 0x11
 6154 02a8 01       		.uleb128 0x1
 6155 02a9 31       		.uleb128 0x31
 6156 02aa 13       		.uleb128 0x13
 6157 02ab 01       		.uleb128 0x1
 6158 02ac 13       		.uleb128 0x13
 6159 02ad 00       		.byte	0
 6160 02ae 00       		.byte	0
 6161 02af 30       		.uleb128 0x30
 6162 02b0 01       		.uleb128 0x1
 6163 02b1 01       		.byte	0x1
 6164 02b2 49       		.uleb128 0x49
 6165 02b3 13       		.uleb128 0x13
 6166 02b4 01       		.uleb128 0x1
 6167 02b5 13       		.uleb128 0x13
 6168 02b6 00       		.byte	0
 6169 02b7 00       		.byte	0
 6170 02b8 31       		.uleb128 0x31
 6171 02b9 21       		.uleb128 0x21
 6172 02ba 00       		.byte	0
 6173 02bb 49       		.uleb128 0x49
 6174 02bc 13       		.uleb128 0x13
 6175 02bd 2F       		.uleb128 0x2f
 6176 02be 0B       		.uleb128 0xb
 6177 02bf 00       		.byte	0
 6178 02c0 00       		.byte	0
 6179 02c1 32       		.uleb128 0x32
 6180 02c2 2E       		.uleb128 0x2e
 6181 02c3 01       		.byte	0x1
 6182 02c4 3F       		.uleb128 0x3f
 6183 02c5 19       		.uleb128 0x19
 6184 02c6 03       		.uleb128 0x3
 6185 02c7 0E       		.uleb128 0xe
 6186 02c8 3A       		.uleb128 0x3a
 6187 02c9 0B       		.uleb128 0xb
 6188 02ca 3B       		.uleb128 0x3b
 6189 02cb 05       		.uleb128 0x5
 6190 02cc 49       		.uleb128 0x49
 6191 02cd 13       		.uleb128 0x13
 6192 02ce 11       		.uleb128 0x11
 6193 02cf 01       		.uleb128 0x1
 6194 02d0 12       		.uleb128 0x12
 6195 02d1 06       		.uleb128 0x6
 6196 02d2 40       		.uleb128 0x40
 6197 02d3 18       		.uleb128 0x18
 6198 02d4 9642     		.uleb128 0x2116
 6199 02d6 19       		.uleb128 0x19
ARM GAS  C:\Users\ADMINI~1\AppData\Local\Temp\ccjTNAQQ.s 			page 145


 6200 02d7 01       		.uleb128 0x1
 6201 02d8 13       		.uleb128 0x13
 6202 02d9 00       		.byte	0
 6203 02da 00       		.byte	0
 6204 02db 33       		.uleb128 0x33
 6205 02dc 0B       		.uleb128 0xb
 6206 02dd 01       		.byte	0x1
 6207 02de 55       		.uleb128 0x55
 6208 02df 17       		.uleb128 0x17
 6209 02e0 01       		.uleb128 0x1
 6210 02e1 13       		.uleb128 0x13
 6211 02e2 00       		.byte	0
 6212 02e3 00       		.byte	0
 6213 02e4 34       		.uleb128 0x34
 6214 02e5 1D       		.uleb128 0x1d
 6215 02e6 01       		.byte	0x1
 6216 02e7 31       		.uleb128 0x31
 6217 02e8 13       		.uleb128 0x13
 6218 02e9 52       		.uleb128 0x52
 6219 02ea 01       		.uleb128 0x1
 6220 02eb 55       		.uleb128 0x55
 6221 02ec 17       		.uleb128 0x17
 6222 02ed 58       		.uleb128 0x58
 6223 02ee 0B       		.uleb128 0xb
 6224 02ef 59       		.uleb128 0x59
 6225 02f0 05       		.uleb128 0x5
 6226 02f1 01       		.uleb128 0x1
 6227 02f2 13       		.uleb128 0x13
 6228 02f3 00       		.byte	0
 6229 02f4 00       		.byte	0
 6230 02f5 35       		.uleb128 0x35
 6231 02f6 0B       		.uleb128 0xb
 6232 02f7 01       		.byte	0x1
 6233 02f8 55       		.uleb128 0x55
 6234 02f9 17       		.uleb128 0x17
 6235 02fa 00       		.byte	0
 6236 02fb 00       		.byte	0
 6237 02fc 36       		.uleb128 0x36
 6238 02fd 05       		.uleb128 0x5
 6239 02fe 00       		.byte	0
 6240 02ff 31       		.uleb128 0x31
 6241 0300 13       		.uleb128 0x13
 6242 0301 02       		.uleb128 0x2
 6243 0302 18       		.uleb128 0x18
 6244 0303 00       		.byte	0
 6245 0304 00       		.byte	0
 6246 0305 37       		.uleb128 0x37
 6247 0306 34       		.uleb128 0x34
 6248 0307 00       		.byte	0
 6249 0308 31       		.uleb128 0x31
 6250 0309 13       		.uleb128 0x13
 6251 030a 02       		.uleb128 0x2
 6252 030b 18       		.uleb128 0x18
 6253 030c 00       		.byte	0
 6254 030d 00       		.byte	0
 6255 030e 38       		.uleb128 0x38
 6256 030f 34       		.uleb128 0x34
ARM GAS  C:\Users\ADMINI~1\AppData\Local\Temp\ccjTNAQQ.s 			page 146


 6257 0310 00       		.byte	0
 6258 0311 03       		.uleb128 0x3
 6259 0312 0E       		.uleb128 0xe
 6260 0313 3A       		.uleb128 0x3a
 6261 0314 0B       		.uleb128 0xb
 6262 0315 3B       		.uleb128 0x3b
 6263 0316 0B       		.uleb128 0xb
 6264 0317 49       		.uleb128 0x49
 6265 0318 13       		.uleb128 0x13
 6266 0319 02       		.uleb128 0x2
 6267 031a 18       		.uleb128 0x18
 6268 031b 00       		.byte	0
 6269 031c 00       		.byte	0
 6270 031d 39       		.uleb128 0x39
 6271 031e 34       		.uleb128 0x34
 6272 031f 00       		.byte	0
 6273 0320 03       		.uleb128 0x3
 6274 0321 0E       		.uleb128 0xe
 6275 0322 3A       		.uleb128 0x3a
 6276 0323 0B       		.uleb128 0xb
 6277 0324 3B       		.uleb128 0x3b
 6278 0325 0B       		.uleb128 0xb
 6279 0326 49       		.uleb128 0x49
 6280 0327 13       		.uleb128 0x13
 6281 0328 3F       		.uleb128 0x3f
 6282 0329 19       		.uleb128 0x19
 6283 032a 02       		.uleb128 0x2
 6284 032b 18       		.uleb128 0x18
 6285 032c 00       		.byte	0
 6286 032d 00       		.byte	0
 6287 032e 3A       		.uleb128 0x3a
 6288 032f 2E       		.uleb128 0x2e
 6289 0330 01       		.byte	0x1
 6290 0331 3F       		.uleb128 0x3f
 6291 0332 19       		.uleb128 0x19
 6292 0333 03       		.uleb128 0x3
 6293 0334 0E       		.uleb128 0xe
 6294 0335 3A       		.uleb128 0x3a
 6295 0336 0B       		.uleb128 0xb
 6296 0337 3B       		.uleb128 0x3b
 6297 0338 0B       		.uleb128 0xb
 6298 0339 27       		.uleb128 0x27
 6299 033a 19       		.uleb128 0x19
 6300 033b 49       		.uleb128 0x49
 6301 033c 13       		.uleb128 0x13
 6302 033d 3C       		.uleb128 0x3c
 6303 033e 19       		.uleb128 0x19
 6304 033f 01       		.uleb128 0x1
 6305 0340 13       		.uleb128 0x13
 6306 0341 00       		.byte	0
 6307 0342 00       		.byte	0
 6308 0343 3B       		.uleb128 0x3b
 6309 0344 05       		.uleb128 0x5
 6310 0345 00       		.byte	0
 6311 0346 49       		.uleb128 0x49
 6312 0347 13       		.uleb128 0x13
 6313 0348 00       		.byte	0
ARM GAS  C:\Users\ADMINI~1\AppData\Local\Temp\ccjTNAQQ.s 			page 147


 6314 0349 00       		.byte	0
 6315 034a 3C       		.uleb128 0x3c
 6316 034b 2E       		.uleb128 0x2e
 6317 034c 00       		.byte	0
 6318 034d 3F       		.uleb128 0x3f
 6319 034e 19       		.uleb128 0x19
 6320 034f 03       		.uleb128 0x3
 6321 0350 0E       		.uleb128 0xe
 6322 0351 3A       		.uleb128 0x3a
 6323 0352 0B       		.uleb128 0xb
 6324 0353 3B       		.uleb128 0x3b
 6325 0354 0B       		.uleb128 0xb
 6326 0355 27       		.uleb128 0x27
 6327 0356 19       		.uleb128 0x19
 6328 0357 49       		.uleb128 0x49
 6329 0358 13       		.uleb128 0x13
 6330 0359 3C       		.uleb128 0x3c
 6331 035a 19       		.uleb128 0x19
 6332 035b 00       		.byte	0
 6333 035c 00       		.byte	0
 6334 035d 3D       		.uleb128 0x3d
 6335 035e 2E       		.uleb128 0x2e
 6336 035f 01       		.byte	0x1
 6337 0360 3F       		.uleb128 0x3f
 6338 0361 19       		.uleb128 0x19
 6339 0362 03       		.uleb128 0x3
 6340 0363 0E       		.uleb128 0xe
 6341 0364 27       		.uleb128 0x27
 6342 0365 19       		.uleb128 0x19
 6343 0366 49       		.uleb128 0x49
 6344 0367 13       		.uleb128 0x13
 6345 0368 34       		.uleb128 0x34
 6346 0369 19       		.uleb128 0x19
 6347 036a 3C       		.uleb128 0x3c
 6348 036b 19       		.uleb128 0x19
 6349 036c 01       		.uleb128 0x1
 6350 036d 13       		.uleb128 0x13
 6351 036e 00       		.byte	0
 6352 036f 00       		.byte	0
 6353 0370 3E       		.uleb128 0x3e
 6354 0371 2E       		.uleb128 0x2e
 6355 0372 00       		.byte	0
 6356 0373 3F       		.uleb128 0x3f
 6357 0374 19       		.uleb128 0x19
 6358 0375 03       		.uleb128 0x3
 6359 0376 0E       		.uleb128 0xe
 6360 0377 3A       		.uleb128 0x3a
 6361 0378 0B       		.uleb128 0xb
 6362 0379 3B       		.uleb128 0x3b
 6363 037a 0B       		.uleb128 0xb
 6364 037b 27       		.uleb128 0x27
 6365 037c 19       		.uleb128 0x19
 6366 037d 3C       		.uleb128 0x3c
 6367 037e 19       		.uleb128 0x19
 6368 037f 00       		.byte	0
 6369 0380 00       		.byte	0
 6370 0381 00       		.byte	0
ARM GAS  C:\Users\ADMINI~1\AppData\Local\Temp\ccjTNAQQ.s 			page 148


 6371              		.section	.debug_loc,"",%progbits
 6372              	.Ldebug_loc0:
 6373              	.LLST0:
 6374 0000 00000000 		.4byte	.LVL0
 6375 0004 08000000 		.4byte	.LVL1
 6376 0008 0100     		.2byte	0x1
 6377 000a 50       		.byte	0x50
 6378 000b 08000000 		.4byte	.LVL1
 6379 000f 40000000 		.4byte	.LFE2
 6380 0013 0400     		.2byte	0x4
 6381 0015 F3       		.byte	0xf3
 6382 0016 01       		.uleb128 0x1
 6383 0017 50       		.byte	0x50
 6384 0018 9F       		.byte	0x9f
 6385 0019 00000000 		.4byte	0
 6386 001d 00000000 		.4byte	0
 6387              	.LLST1:
 6388 0021 00000000 		.4byte	.LVL0
 6389 0025 10000000 		.4byte	.LVL3
 6390 0029 0100     		.2byte	0x1
 6391 002b 51       		.byte	0x51
 6392 002c 10000000 		.4byte	.LVL3
 6393 0030 40000000 		.4byte	.LFE2
 6394 0034 0400     		.2byte	0x4
 6395 0036 F3       		.byte	0xf3
 6396 0037 01       		.uleb128 0x1
 6397 0038 51       		.byte	0x51
 6398 0039 9F       		.byte	0x9f
 6399 003a 00000000 		.4byte	0
 6400 003e 00000000 		.4byte	0
 6401              	.LLST2:
 6402 0042 00000000 		.4byte	.LVL0
 6403 0046 1D000000 		.4byte	.LVL5-1
 6404 004a 0100     		.2byte	0x1
 6405 004c 52       		.byte	0x52
 6406 004d 1D000000 		.4byte	.LVL5-1
 6407 0051 40000000 		.4byte	.LFE2
 6408 0055 0400     		.2byte	0x4
 6409 0057 F3       		.byte	0xf3
 6410 0058 01       		.uleb128 0x1
 6411 0059 52       		.byte	0x52
 6412 005a 9F       		.byte	0x9f
 6413 005b 00000000 		.4byte	0
 6414 005f 00000000 		.4byte	0
 6415              	.LLST3:
 6416 0063 00000000 		.4byte	.LVL0
 6417 0067 32000000 		.4byte	.LVL10
 6418 006b 0200     		.2byte	0x2
 6419 006d 30       		.byte	0x30
 6420 006e 9F       		.byte	0x9f
 6421 006f 32000000 		.4byte	.LVL10
 6422 0073 40000000 		.4byte	.LFE2
 6423 0077 0100     		.2byte	0x1
 6424 0079 50       		.byte	0x50
 6425 007a 00000000 		.4byte	0
 6426 007e 00000000 		.4byte	0
 6427              	.LLST4:
ARM GAS  C:\Users\ADMINI~1\AppData\Local\Temp\ccjTNAQQ.s 			page 149


 6428 0082 1A000000 		.4byte	.LVL4
 6429 0086 32000000 		.4byte	.LVL10
 6430 008a 0100     		.2byte	0x1
 6431 008c 54       		.byte	0x54
 6432 008d 00000000 		.4byte	0
 6433 0091 00000000 		.4byte	0
 6434              	.LLST5:
 6435 0095 0E000000 		.4byte	.LVL2
 6436 0099 22000000 		.4byte	.LVL7
 6437 009d 0100     		.2byte	0x1
 6438 009f 55       		.byte	0x55
 6439 00a0 00000000 		.4byte	0
 6440 00a4 00000000 		.4byte	0
 6441              	.LLST6:
 6442 00a8 0E000000 		.4byte	.LVL2
 6443 00ac 1D000000 		.4byte	.LVL5-1
 6444 00b0 0100     		.2byte	0x1
 6445 00b2 53       		.byte	0x53
 6446 00b3 00000000 		.4byte	0
 6447 00b7 00000000 		.4byte	0
 6448              	.LLST7:
 6449 00bb 20000000 		.4byte	.LVL6
 6450 00bf 26000000 		.4byte	.LVL8
 6451 00c3 0100     		.2byte	0x1
 6452 00c5 50       		.byte	0x50
 6453 00c6 26000000 		.4byte	.LVL8
 6454 00ca 2C000000 		.4byte	.LVL9
 6455 00ce 0300     		.2byte	0x3
 6456 00d0 70       		.byte	0x70
 6457 00d1 01       		.sleb128 1
 6458 00d2 9F       		.byte	0x9f
 6459 00d3 00000000 		.4byte	0
 6460 00d7 00000000 		.4byte	0
 6461              	.LLST8:
 6462 00db 00000000 		.4byte	.LVL11
 6463 00df 0E000000 		.4byte	.LVL12
 6464 00e3 0100     		.2byte	0x1
 6465 00e5 50       		.byte	0x50
 6466 00e6 0E000000 		.4byte	.LVL12
 6467 00ea 1C000000 		.4byte	.LFE0
 6468 00ee 0400     		.2byte	0x4
 6469 00f0 F3       		.byte	0xf3
 6470 00f1 01       		.uleb128 0x1
 6471 00f2 50       		.byte	0x50
 6472 00f3 9F       		.byte	0x9f
 6473 00f4 00000000 		.4byte	0
 6474 00f8 00000000 		.4byte	0
 6475              	.LLST9:
 6476 00fc 00000000 		.4byte	.LVL13
 6477 0100 08000000 		.4byte	.LVL14
 6478 0104 0100     		.2byte	0x1
 6479 0106 50       		.byte	0x50
 6480 0107 08000000 		.4byte	.LVL14
 6481 010b 2E000000 		.4byte	.LVL21
 6482 010f 0100     		.2byte	0x1
 6483 0111 55       		.byte	0x55
 6484 0112 00000000 		.4byte	0
ARM GAS  C:\Users\ADMINI~1\AppData\Local\Temp\ccjTNAQQ.s 			page 150


 6485 0116 00000000 		.4byte	0
 6486              	.LLST10:
 6487 011a 00000000 		.4byte	.LVL13
 6488 011e 08000000 		.4byte	.LVL14
 6489 0122 0100     		.2byte	0x1
 6490 0124 51       		.byte	0x51
 6491 0125 08000000 		.4byte	.LVL14
 6492 0129 0C000000 		.4byte	.LVL15
 6493 012d 0300     		.2byte	0x3
 6494 012f 76       		.byte	0x76
 6495 0130 7F       		.sleb128 -1
 6496 0131 9F       		.byte	0x9f
 6497 0132 0C000000 		.4byte	.LVL15
 6498 0136 2E000000 		.4byte	.LVL22
 6499 013a 0100     		.2byte	0x1
 6500 013c 56       		.byte	0x56
 6501 013d 00000000 		.4byte	0
 6502 0141 00000000 		.4byte	0
 6503              	.LLST11:
 6504 0145 00000000 		.4byte	.LVL13
 6505 0149 08000000 		.4byte	.LVL14
 6506 014d 0300     		.2byte	0x3
 6507 014f 09       		.byte	0x9
 6508 0150 FF       		.byte	0xff
 6509 0151 9F       		.byte	0x9f
 6510 0152 08000000 		.4byte	.LVL14
 6511 0156 2E000000 		.4byte	.LVL20
 6512 015a 0100     		.2byte	0x1
 6513 015c 54       		.byte	0x54
 6514 015d 00000000 		.4byte	0
 6515 0161 00000000 		.4byte	0
 6516              	.LLST12:
 6517 0165 1E000000 		.4byte	.LVL17
 6518 0169 28000000 		.4byte	.LVL18
 6519 016d 0100     		.2byte	0x1
 6520 016f 52       		.byte	0x52
 6521 0170 00000000 		.4byte	0
 6522 0174 00000000 		.4byte	0
 6523              	.LLST13:
 6524 0178 00000000 		.4byte	.LVL23
 6525 017c 0C000000 		.4byte	.LVL24
 6526 0180 0100     		.2byte	0x1
 6527 0182 50       		.byte	0x50
 6528 0183 0C000000 		.4byte	.LVL24
 6529 0187 F0000000 		.4byte	.LVL27
 6530 018b 0400     		.2byte	0x4
 6531 018d F3       		.byte	0xf3
 6532 018e 01       		.uleb128 0x1
 6533 018f 50       		.byte	0x50
 6534 0190 9F       		.byte	0x9f
 6535 0191 F0000000 		.4byte	.LVL27
 6536 0195 F2000000 		.4byte	.LVL28
 6537 0199 0100     		.2byte	0x1
 6538 019b 50       		.byte	0x50
 6539 019c F2000000 		.4byte	.LVL28
 6540 01a0 00010000 		.4byte	.LFE8
 6541 01a4 0400     		.2byte	0x4
ARM GAS  C:\Users\ADMINI~1\AppData\Local\Temp\ccjTNAQQ.s 			page 151


 6542 01a6 F3       		.byte	0xf3
 6543 01a7 01       		.uleb128 0x1
 6544 01a8 50       		.byte	0x50
 6545 01a9 9F       		.byte	0x9f
 6546 01aa 00000000 		.4byte	0
 6547 01ae 00000000 		.4byte	0
 6548              	.LLST14:
 6549 01b2 00000000 		.4byte	.LVL23
 6550 01b6 16000000 		.4byte	.LVL25
 6551 01ba 0100     		.2byte	0x1
 6552 01bc 51       		.byte	0x51
 6553 01bd 16000000 		.4byte	.LVL25
 6554 01c1 F0000000 		.4byte	.LVL27
 6555 01c5 0100     		.2byte	0x1
 6556 01c7 54       		.byte	0x54
 6557 01c8 F0000000 		.4byte	.LVL27
 6558 01cc F6000000 		.4byte	.LVL29
 6559 01d0 0100     		.2byte	0x1
 6560 01d2 51       		.byte	0x51
 6561 01d3 F6000000 		.4byte	.LVL29
 6562 01d7 F8000000 		.4byte	.LVL30
 6563 01db 0100     		.2byte	0x1
 6564 01dd 54       		.byte	0x54
 6565 01de F8000000 		.4byte	.LVL30
 6566 01e2 00010000 		.4byte	.LFE8
 6567 01e6 0400     		.2byte	0x4
 6568 01e8 F3       		.byte	0xf3
 6569 01e9 01       		.uleb128 0x1
 6570 01ea 51       		.byte	0x51
 6571 01eb 9F       		.byte	0x9f
 6572 01ec 00000000 		.4byte	0
 6573 01f0 00000000 		.4byte	0
 6574              	.LLST15:
 6575 01f4 00000000 		.4byte	.LVL23
 6576 01f8 EB000000 		.4byte	.LVL26-1
 6577 01fc 0100     		.2byte	0x1
 6578 01fe 52       		.byte	0x52
 6579 01ff EB000000 		.4byte	.LVL26-1
 6580 0203 F0000000 		.4byte	.LVL27
 6581 0207 0400     		.2byte	0x4
 6582 0209 F3       		.byte	0xf3
 6583 020a 01       		.uleb128 0x1
 6584 020b 52       		.byte	0x52
 6585 020c 9F       		.byte	0x9f
 6586 020d F0000000 		.4byte	.LVL27
 6587 0211 F6000000 		.4byte	.LVL29
 6588 0215 0100     		.2byte	0x1
 6589 0217 52       		.byte	0x52
 6590 0218 F6000000 		.4byte	.LVL29
 6591 021c 00010000 		.4byte	.LFE8
 6592 0220 0400     		.2byte	0x4
 6593 0222 F3       		.byte	0xf3
 6594 0223 01       		.uleb128 0x1
 6595 0224 52       		.byte	0x52
 6596 0225 9F       		.byte	0x9f
 6597 0226 00000000 		.4byte	0
 6598 022a 00000000 		.4byte	0
ARM GAS  C:\Users\ADMINI~1\AppData\Local\Temp\ccjTNAQQ.s 			page 152


 6599              	.LLST16:
 6600 022e 1A000000 		.4byte	.LVL35
 6601 0232 26000000 		.4byte	.LVL36
 6602 0236 0100     		.2byte	0x1
 6603 0238 56       		.byte	0x56
 6604 0239 00000000 		.4byte	0
 6605 023d 00000000 		.4byte	0
 6606              	.LLST17:
 6607 0241 06000000 		.4byte	.LVL32
 6608 0245 10000000 		.4byte	.LVL34
 6609 0249 0500     		.2byte	0x5
 6610 024b 73       		.byte	0x73
 6611 024c 00       		.sleb128 0
 6612 024d 33       		.byte	0x33
 6613 024e 24       		.byte	0x24
 6614 024f 9F       		.byte	0x9f
 6615 0250 00000000 		.4byte	0
 6616 0254 00000000 		.4byte	0
 6617              	.LLST18:
 6618 0258 0C000000 		.4byte	.LVL33
 6619 025c 32000000 		.4byte	.LVL38
 6620 0260 0100     		.2byte	0x1
 6621 0262 54       		.byte	0x54
 6622 0263 00000000 		.4byte	0
 6623 0267 00000000 		.4byte	0
 6624              	.LLST19:
 6625 026b 00000000 		.4byte	.LVL39
 6626 026f 16000000 		.4byte	.LVL41
 6627 0273 0100     		.2byte	0x1
 6628 0275 50       		.byte	0x50
 6629 0276 16000000 		.4byte	.LVL41
 6630 027a 18000000 		.4byte	.LVL42
 6631 027e 0400     		.2byte	0x4
 6632 0280 F3       		.byte	0xf3
 6633 0281 01       		.uleb128 0x1
 6634 0282 50       		.byte	0x50
 6635 0283 9F       		.byte	0x9f
 6636 0284 18000000 		.4byte	.LVL42
 6637 0288 1A000000 		.4byte	.LVL43
 6638 028c 0100     		.2byte	0x1
 6639 028e 50       		.byte	0x50
 6640 028f 1A000000 		.4byte	.LVL43
 6641 0293 34000000 		.4byte	.LFE14
 6642 0297 0400     		.2byte	0x4
 6643 0299 F3       		.byte	0xf3
 6644 029a 01       		.uleb128 0x1
 6645 029b 50       		.byte	0x50
 6646 029c 9F       		.byte	0x9f
 6647 029d 00000000 		.4byte	0
 6648 02a1 00000000 		.4byte	0
 6649              	.LLST20:
 6650 02a5 0E000000 		.4byte	.LVL40
 6651 02a9 16000000 		.4byte	.LVL41
 6652 02ad 0100     		.2byte	0x1
 6653 02af 50       		.byte	0x50
 6654 02b0 00000000 		.4byte	0
 6655 02b4 00000000 		.4byte	0
ARM GAS  C:\Users\ADMINI~1\AppData\Local\Temp\ccjTNAQQ.s 			page 153


 6656              	.LLST21:
 6657 02b8 18000000 		.4byte	.LVL42
 6658 02bc 2A000000 		.4byte	.LVL44
 6659 02c0 0300     		.2byte	0x3
 6660 02c2 08       		.byte	0x8
 6661 02c3 29       		.byte	0x29
 6662 02c4 9F       		.byte	0x9f
 6663 02c5 00000000 		.4byte	0
 6664 02c9 00000000 		.4byte	0
 6665              	.LLST22:
 6666 02cd 00000000 		.4byte	.LVL46
 6667 02d1 16000000 		.4byte	.LVL47
 6668 02d5 0100     		.2byte	0x1
 6669 02d7 50       		.byte	0x50
 6670 02d8 16000000 		.4byte	.LVL47
 6671 02dc 1C000000 		.4byte	.LVL48
 6672 02e0 0400     		.2byte	0x4
 6673 02e2 F3       		.byte	0xf3
 6674 02e3 01       		.uleb128 0x1
 6675 02e4 50       		.byte	0x50
 6676 02e5 9F       		.byte	0x9f
 6677 02e6 1C000000 		.4byte	.LVL48
 6678 02ea 20000000 		.4byte	.LVL49
 6679 02ee 0100     		.2byte	0x1
 6680 02f0 50       		.byte	0x50
 6681 02f1 20000000 		.4byte	.LVL49
 6682 02f5 34000000 		.4byte	.LFE15
 6683 02f9 0400     		.2byte	0x4
 6684 02fb F3       		.byte	0xf3
 6685 02fc 01       		.uleb128 0x1
 6686 02fd 50       		.byte	0x50
 6687 02fe 9F       		.byte	0x9f
 6688 02ff 00000000 		.4byte	0
 6689 0303 00000000 		.4byte	0
 6690              	.LLST23:
 6691 0307 24000000 		.4byte	.LVL50
 6692 030b 28000000 		.4byte	.LVL51
 6693 030f 0200     		.2byte	0x2
 6694 0311 30       		.byte	0x30
 6695 0312 9F       		.byte	0x9f
 6696 0313 00000000 		.4byte	0
 6697 0317 00000000 		.4byte	0
 6698              	.LLST24:
 6699 031b 00000000 		.4byte	.LVL54
 6700 031f 10000000 		.4byte	.LVL55
 6701 0323 0100     		.2byte	0x1
 6702 0325 50       		.byte	0x50
 6703 0326 10000000 		.4byte	.LVL55
 6704 032a 18000000 		.4byte	.LVL56
 6705 032e 0400     		.2byte	0x4
 6706 0330 F3       		.byte	0xf3
 6707 0331 01       		.uleb128 0x1
 6708 0332 50       		.byte	0x50
 6709 0333 9F       		.byte	0x9f
 6710 0334 18000000 		.4byte	.LVL56
 6711 0338 1A000000 		.4byte	.LVL57
 6712 033c 0100     		.2byte	0x1
ARM GAS  C:\Users\ADMINI~1\AppData\Local\Temp\ccjTNAQQ.s 			page 154


 6713 033e 50       		.byte	0x50
 6714 033f 1A000000 		.4byte	.LVL57
 6715 0343 3C000000 		.4byte	.LFE16
 6716 0347 0400     		.2byte	0x4
 6717 0349 F3       		.byte	0xf3
 6718 034a 01       		.uleb128 0x1
 6719 034b 50       		.byte	0x50
 6720 034c 9F       		.byte	0x9f
 6721 034d 00000000 		.4byte	0
 6722 0351 00000000 		.4byte	0
 6723              	.LLST25:
 6724 0355 00000000 		.4byte	.LVL54
 6725 0359 2A000000 		.4byte	.LVL59
 6726 035d 0200     		.2byte	0x2
 6727 035f 30       		.byte	0x30
 6728 0360 9F       		.byte	0x9f
 6729 0361 2A000000 		.4byte	.LVL59
 6730 0365 2C000000 		.4byte	.LVL60
 6731 0369 0100     		.2byte	0x1
 6732 036b 50       		.byte	0x50
 6733 036c 2C000000 		.4byte	.LVL60
 6734 0370 32000000 		.4byte	.LVL62
 6735 0374 0100     		.2byte	0x1
 6736 0376 55       		.byte	0x55
 6737 0377 32000000 		.4byte	.LVL62
 6738 037b 3C000000 		.4byte	.LFE16
 6739 037f 0100     		.2byte	0x1
 6740 0381 50       		.byte	0x50
 6741 0382 00000000 		.4byte	0
 6742 0386 00000000 		.4byte	0
 6743              	.LLST26:
 6744 038a 00000000 		.4byte	.LVL63
 6745 038e 13000000 		.4byte	.LVL64-1
 6746 0392 0100     		.2byte	0x1
 6747 0394 50       		.byte	0x50
 6748 0395 13000000 		.4byte	.LVL64-1
 6749 0399 22000000 		.4byte	.LVL67
 6750 039d 0400     		.2byte	0x4
 6751 039f F3       		.byte	0xf3
 6752 03a0 01       		.uleb128 0x1
 6753 03a1 50       		.byte	0x50
 6754 03a2 9F       		.byte	0x9f
 6755 03a3 22000000 		.4byte	.LVL67
 6756 03a7 2F000000 		.4byte	.LVL68-1
 6757 03ab 0100     		.2byte	0x1
 6758 03ad 50       		.byte	0x50
 6759 03ae 2F000000 		.4byte	.LVL68-1
 6760 03b2 42000000 		.4byte	.LVL72
 6761 03b6 0400     		.2byte	0x4
 6762 03b8 F3       		.byte	0xf3
 6763 03b9 01       		.uleb128 0x1
 6764 03ba 50       		.byte	0x50
 6765 03bb 9F       		.byte	0x9f
 6766 03bc 42000000 		.4byte	.LVL72
 6767 03c0 44000000 		.4byte	.LVL73
 6768 03c4 0100     		.2byte	0x1
 6769 03c6 50       		.byte	0x50
ARM GAS  C:\Users\ADMINI~1\AppData\Local\Temp\ccjTNAQQ.s 			page 155


 6770 03c7 44000000 		.4byte	.LVL73
 6771 03cb 54000000 		.4byte	.LFE19
 6772 03cf 0400     		.2byte	0x4
 6773 03d1 F3       		.byte	0xf3
 6774 03d2 01       		.uleb128 0x1
 6775 03d3 50       		.byte	0x50
 6776 03d4 9F       		.byte	0x9f
 6777 03d5 00000000 		.4byte	0
 6778 03d9 00000000 		.4byte	0
 6779              	.LLST27:
 6780 03dd 00000000 		.4byte	.LVL63
 6781 03e1 14000000 		.4byte	.LVL64
 6782 03e5 0200     		.2byte	0x2
 6783 03e7 30       		.byte	0x30
 6784 03e8 9F       		.byte	0x9f
 6785 03e9 14000000 		.4byte	.LVL64
 6786 03ed 18000000 		.4byte	.LVL65
 6787 03f1 1300     		.2byte	0x13
 6788 03f3 0A       		.byte	0xa
 6789 03f4 6504     		.2byte	0x465
 6790 03f6 70       		.byte	0x70
 6791 03f7 00       		.sleb128 0
 6792 03f8 08       		.byte	0x8
 6793 03f9 FF       		.byte	0xff
 6794 03fa 1A       		.byte	0x1a
 6795 03fb 23       		.byte	0x23
 6796 03fc 01       		.uleb128 0x1
 6797 03fd 1B       		.byte	0x1b
 6798 03fe 74       		.byte	0x74
 6799 03ff 00       		.sleb128 0
 6800 0400 0A       		.byte	0xa
 6801 0401 FFFF     		.2byte	0xffff
 6802 0403 1A       		.byte	0x1a
 6803 0404 1E       		.byte	0x1e
 6804 0405 9F       		.byte	0x9f
 6805 0406 22000000 		.4byte	.LVL67
 6806 040a 30000000 		.4byte	.LVL68
 6807 040e 0200     		.2byte	0x2
 6808 0410 30       		.byte	0x30
 6809 0411 9F       		.byte	0x9f
 6810 0412 30000000 		.4byte	.LVL68
 6811 0416 34000000 		.4byte	.LVL69
 6812 041a 1400     		.2byte	0x14
 6813 041c 0A       		.byte	0xa
 6814 041d 6504     		.2byte	0x465
 6815 041f 70       		.byte	0x70
 6816 0420 00       		.sleb128 0
 6817 0421 40       		.byte	0x40
 6818 0422 24       		.byte	0x24
 6819 0423 40       		.byte	0x40
 6820 0424 26       		.byte	0x26
 6821 0425 23       		.byte	0x23
 6822 0426 01       		.uleb128 0x1
 6823 0427 1B       		.byte	0x1b
 6824 0428 74       		.byte	0x74
 6825 0429 00       		.sleb128 0
 6826 042a 0A       		.byte	0xa
ARM GAS  C:\Users\ADMINI~1\AppData\Local\Temp\ccjTNAQQ.s 			page 156


 6827 042b FFFF     		.2byte	0xffff
 6828 042d 1A       		.byte	0x1a
 6829 042e 1E       		.byte	0x1e
 6830 042f 9F       		.byte	0x9f
 6831 0430 42000000 		.4byte	.LVL72
 6832 0434 46000000 		.4byte	.LVL74
 6833 0438 0200     		.2byte	0x2
 6834 043a 30       		.byte	0x30
 6835 043b 9F       		.byte	0x9f
 6836 043c 00000000 		.4byte	0
 6837 0440 00000000 		.4byte	0
 6838              	.LLST28:
 6839 0444 00000000 		.4byte	.LVL75
 6840 0448 13000000 		.4byte	.LVL76-1
 6841 044c 0100     		.2byte	0x1
 6842 044e 50       		.byte	0x50
 6843 044f 13000000 		.4byte	.LVL76-1
 6844 0453 2A000000 		.4byte	.LVL80
 6845 0457 0400     		.2byte	0x4
 6846 0459 F3       		.byte	0xf3
 6847 045a 01       		.uleb128 0x1
 6848 045b 50       		.byte	0x50
 6849 045c 9F       		.byte	0x9f
 6850 045d 2A000000 		.4byte	.LVL80
 6851 0461 37000000 		.4byte	.LVL81-1
 6852 0465 0100     		.2byte	0x1
 6853 0467 50       		.byte	0x50
 6854 0468 37000000 		.4byte	.LVL81-1
 6855 046c 52000000 		.4byte	.LVL86
 6856 0470 0400     		.2byte	0x4
 6857 0472 F3       		.byte	0xf3
 6858 0473 01       		.uleb128 0x1
 6859 0474 50       		.byte	0x50
 6860 0475 9F       		.byte	0x9f
 6861 0476 52000000 		.4byte	.LVL86
 6862 047a 54000000 		.4byte	.LVL87
 6863 047e 0100     		.2byte	0x1
 6864 0480 50       		.byte	0x50
 6865 0481 54000000 		.4byte	.LVL87
 6866 0485 64000000 		.4byte	.LFE20
 6867 0489 0400     		.2byte	0x4
 6868 048b F3       		.byte	0xf3
 6869 048c 01       		.uleb128 0x1
 6870 048d 50       		.byte	0x50
 6871 048e 9F       		.byte	0x9f
 6872 048f 00000000 		.4byte	0
 6873 0493 00000000 		.4byte	0
 6874              	.LLST29:
 6875 0497 00000000 		.4byte	.LVL75
 6876 049b 14000000 		.4byte	.LVL76
 6877 049f 0200     		.2byte	0x2
 6878 04a1 30       		.byte	0x30
 6879 04a2 9F       		.byte	0x9f
 6880 04a3 14000000 		.4byte	.LVL76
 6881 04a7 18000000 		.4byte	.LVL77
 6882 04ab 1700     		.2byte	0x17
 6883 04ad 0A       		.byte	0xa
ARM GAS  C:\Users\ADMINI~1\AppData\Local\Temp\ccjTNAQQ.s 			page 157


 6884 04ae 6504     		.2byte	0x465
 6885 04b0 70       		.byte	0x70
 6886 04b1 00       		.sleb128 0
 6887 04b2 08       		.byte	0x8
 6888 04b3 FF       		.byte	0xff
 6889 04b4 1A       		.byte	0x1a
 6890 04b5 23       		.byte	0x23
 6891 04b6 01       		.uleb128 0x1
 6892 04b7 1B       		.byte	0x1b
 6893 04b8 74       		.byte	0x74
 6894 04b9 00       		.sleb128 0
 6895 04ba 0A       		.byte	0xa
 6896 04bb FFFF     		.2byte	0xffff
 6897 04bd 1A       		.byte	0x1a
 6898 04be 1E       		.byte	0x1e
 6899 04bf 0A       		.byte	0xa
 6900 04c0 E803     		.2byte	0x3e8
 6901 04c2 1B       		.byte	0x1b
 6902 04c3 9F       		.byte	0x9f
 6903 04c4 2A000000 		.4byte	.LVL80
 6904 04c8 38000000 		.4byte	.LVL81
 6905 04cc 0200     		.2byte	0x2
 6906 04ce 30       		.byte	0x30
 6907 04cf 9F       		.byte	0x9f
 6908 04d0 38000000 		.4byte	.LVL81
 6909 04d4 3C000000 		.4byte	.LVL82
 6910 04d8 1800     		.2byte	0x18
 6911 04da 0A       		.byte	0xa
 6912 04db 6504     		.2byte	0x465
 6913 04dd 70       		.byte	0x70
 6914 04de 00       		.sleb128 0
 6915 04df 40       		.byte	0x40
 6916 04e0 24       		.byte	0x24
 6917 04e1 40       		.byte	0x40
 6918 04e2 26       		.byte	0x26
 6919 04e3 23       		.byte	0x23
 6920 04e4 01       		.uleb128 0x1
 6921 04e5 1B       		.byte	0x1b
 6922 04e6 74       		.byte	0x74
 6923 04e7 00       		.sleb128 0
 6924 04e8 0A       		.byte	0xa
 6925 04e9 FFFF     		.2byte	0xffff
 6926 04eb 1A       		.byte	0x1a
 6927 04ec 1E       		.byte	0x1e
 6928 04ed 0A       		.byte	0xa
 6929 04ee E803     		.2byte	0x3e8
 6930 04f0 1B       		.byte	0x1b
 6931 04f1 9F       		.byte	0x9f
 6932 04f2 52000000 		.4byte	.LVL86
 6933 04f6 56000000 		.4byte	.LVL88
 6934 04fa 0200     		.2byte	0x2
 6935 04fc 30       		.byte	0x30
 6936 04fd 9F       		.byte	0x9f
 6937 04fe 00000000 		.4byte	0
 6938 0502 00000000 		.4byte	0
 6939              	.LLST30:
 6940 0506 00000000 		.4byte	.LVL89
ARM GAS  C:\Users\ADMINI~1\AppData\Local\Temp\ccjTNAQQ.s 			page 158


 6941 050a 02000000 		.4byte	.LVL90
 6942 050e 0100     		.2byte	0x1
 6943 0510 50       		.byte	0x50
 6944 0511 02000000 		.4byte	.LVL90
 6945 0515 24000000 		.4byte	.LFE23
 6946 0519 0400     		.2byte	0x4
 6947 051b F3       		.byte	0xf3
 6948 051c 01       		.uleb128 0x1
 6949 051d 50       		.byte	0x50
 6950 051e 9F       		.byte	0x9f
 6951 051f 00000000 		.4byte	0
 6952 0523 00000000 		.4byte	0
 6953              	.LLST31:
 6954 0527 00000000 		.4byte	.LVL89
 6955 052b 18000000 		.4byte	.LVL92
 6956 052f 0200     		.2byte	0x2
 6957 0531 30       		.byte	0x30
 6958 0532 9F       		.byte	0x9f
 6959 0533 18000000 		.4byte	.LVL92
 6960 0537 24000000 		.4byte	.LFE23
 6961 053b 0100     		.2byte	0x1
 6962 053d 50       		.byte	0x50
 6963 053e 00000000 		.4byte	0
 6964 0542 00000000 		.4byte	0
 6965              	.LLST32:
 6966 0546 00000000 		.4byte	.LVL89
 6967 054a 14000000 		.4byte	.LVL91
 6968 054e 0600     		.2byte	0x6
 6969 0550 0C       		.byte	0xc
 6970 0551 2EBAE800 		.4byte	0xe8ba2e
 6971 0555 9F       		.byte	0x9f
 6972 0556 14000000 		.4byte	.LVL91
 6973 055a 17000000 		.4byte	.LVL92-1
 6974 055e 0100     		.2byte	0x1
 6975 0560 50       		.byte	0x50
 6976 0561 00000000 		.4byte	0
 6977 0565 00000000 		.4byte	0
 6978              	.LLST33:
 6979 0569 00000000 		.4byte	.LVL93
 6980 056d 08000000 		.4byte	.LVL94
 6981 0571 0100     		.2byte	0x1
 6982 0573 50       		.byte	0x50
 6983 0574 08000000 		.4byte	.LVL94
 6984 0578 A4000000 		.4byte	.LFE24
 6985 057c 0400     		.2byte	0x4
 6986 057e F3       		.byte	0xf3
 6987 057f 01       		.uleb128 0x1
 6988 0580 50       		.byte	0x50
 6989 0581 9F       		.byte	0x9f
 6990 0582 00000000 		.4byte	0
 6991 0586 00000000 		.4byte	0
 6992              	.LLST34:
 6993 058a 00000000 		.4byte	.LVL93
 6994 058e 6E000000 		.4byte	.LVL96
 6995 0592 0200     		.2byte	0x2
 6996 0594 30       		.byte	0x30
 6997 0595 9F       		.byte	0x9f
ARM GAS  C:\Users\ADMINI~1\AppData\Local\Temp\ccjTNAQQ.s 			page 159


 6998 0596 6E000000 		.4byte	.LVL96
 6999 059a A4000000 		.4byte	.LFE24
 7000 059e 0100     		.2byte	0x1
 7001 05a0 50       		.byte	0x50
 7002 05a1 00000000 		.4byte	0
 7003 05a5 00000000 		.4byte	0
 7004              	.LLST35:
 7005 05a9 00000000 		.4byte	.LVL97
 7006 05ad EE000000 		.4byte	.LVL120
 7007 05b1 0200     		.2byte	0x2
 7008 05b3 30       		.byte	0x30
 7009 05b4 9F       		.byte	0x9f
 7010 05b5 EE000000 		.4byte	.LVL120
 7011 05b9 F0000000 		.4byte	.LVL121
 7012 05bd 0100     		.2byte	0x1
 7013 05bf 50       		.byte	0x50
 7014 05c0 F0000000 		.4byte	.LVL121
 7015 05c4 1A010000 		.4byte	.LVL129
 7016 05c8 0100     		.2byte	0x1
 7017 05ca 55       		.byte	0x55
 7018 05cb 1C010000 		.4byte	.LVL130
 7019 05cf 20010000 		.4byte	.LVL131
 7020 05d3 0100     		.2byte	0x1
 7021 05d5 50       		.byte	0x50
 7022 05d6 20010000 		.4byte	.LVL131
 7023 05da 36010000 		.4byte	.LVL134
 7024 05de 0200     		.2byte	0x2
 7025 05e0 7D       		.byte	0x7d
 7026 05e1 00       		.sleb128 0
 7027 05e2 36010000 		.4byte	.LVL134
 7028 05e6 39010000 		.4byte	.LVL135-1
 7029 05ea 0100     		.2byte	0x1
 7030 05ec 53       		.byte	0x53
 7031 05ed 39010000 		.4byte	.LVL135-1
 7032 05f1 4E010000 		.4byte	.LVL137
 7033 05f5 0200     		.2byte	0x2
 7034 05f7 7D       		.byte	0x7d
 7035 05f8 00       		.sleb128 0
 7036 05f9 4E010000 		.4byte	.LVL137
 7037 05fd 51010000 		.4byte	.LVL138-1
 7038 0601 0100     		.2byte	0x1
 7039 0603 53       		.byte	0x53
 7040 0604 51010000 		.4byte	.LVL138-1
 7041 0608 78010000 		.4byte	.LVL142
 7042 060c 0200     		.2byte	0x2
 7043 060e 7D       		.byte	0x7d
 7044 060f 00       		.sleb128 0
 7045 0610 78010000 		.4byte	.LVL142
 7046 0614 00020000 		.4byte	.LVL160
 7047 0618 0100     		.2byte	0x1
 7048 061a 55       		.byte	0x55
 7049 061b 00020000 		.4byte	.LVL160
 7050 061f 10020000 		.4byte	.LVL162
 7051 0623 0200     		.2byte	0x2
 7052 0625 30       		.byte	0x30
 7053 0626 9F       		.byte	0x9f
 7054 0627 00000000 		.4byte	0
ARM GAS  C:\Users\ADMINI~1\AppData\Local\Temp\ccjTNAQQ.s 			page 160


 7055 062b 00000000 		.4byte	0
 7056              	.LLST36:
 7057 062f AA000000 		.4byte	.LVL112
 7058 0633 CC000000 		.4byte	.LVL116
 7059 0637 0100     		.2byte	0x1
 7060 0639 53       		.byte	0x53
 7061 063a 00020000 		.4byte	.LVL160
 7062 063e 10020000 		.4byte	.LVL162
 7063 0642 0100     		.2byte	0x1
 7064 0644 53       		.byte	0x53
 7065 0645 00000000 		.4byte	0
 7066 0649 00000000 		.4byte	0
 7067              	.LLST37:
 7068 064d B0000000 		.4byte	.LVL113
 7069 0651 C0000000 		.4byte	.LVL115
 7070 0655 0100     		.2byte	0x1
 7071 0657 53       		.byte	0x53
 7072 0658 00020000 		.4byte	.LVL160
 7073 065c 0A020000 		.4byte	.LVL161
 7074 0660 0100     		.2byte	0x1
 7075 0662 53       		.byte	0x53
 7076 0663 0A020000 		.4byte	.LVL161
 7077 0667 10020000 		.4byte	.LVL162
 7078 066b 0300     		.2byte	0x3
 7079 066d 09       		.byte	0x9
 7080 066e FF       		.byte	0xff
 7081 066f 9F       		.byte	0x9f
 7082 0670 00000000 		.4byte	0
 7083 0674 00000000 		.4byte	0
 7084              	.LLST38:
 7085 0678 B6000000 		.4byte	.LVL114
 7086 067c C0000000 		.4byte	.LVL115
 7087 0680 0100     		.2byte	0x1
 7088 0682 53       		.byte	0x53
 7089 0683 00020000 		.4byte	.LVL160
 7090 0687 0A020000 		.4byte	.LVL161
 7091 068b 0300     		.2byte	0x3
 7092 068d 09       		.byte	0x9
 7093 068e FF       		.byte	0xff
 7094 068f 9F       		.byte	0x9f
 7095 0690 00000000 		.4byte	0
 7096 0694 00000000 		.4byte	0
 7097              	.LLST39:
 7098 0698 00000000 		.4byte	.LVL97
 7099 069c DA000000 		.4byte	.LVL118
 7100 06a0 0200     		.2byte	0x2
 7101 06a2 30       		.byte	0x30
 7102 06a3 9F       		.byte	0x9f
 7103 06a4 00020000 		.4byte	.LVL160
 7104 06a8 10020000 		.4byte	.LVL162
 7105 06ac 0200     		.2byte	0x2
 7106 06ae 30       		.byte	0x30
 7107 06af 9F       		.byte	0x9f
 7108 06b0 00000000 		.4byte	0
 7109 06b4 00000000 		.4byte	0
 7110              	.LLST40:
 7111 06b8 12000000 		.4byte	.LVL99
ARM GAS  C:\Users\ADMINI~1\AppData\Local\Temp\ccjTNAQQ.s 			page 161


 7112 06bc 2C000000 		.4byte	.LVL100
 7113 06c0 0100     		.2byte	0x1
 7114 06c2 50       		.byte	0x50
 7115 06c3 2C000000 		.4byte	.LVL100
 7116 06c7 6E000000 		.4byte	.LVL105
 7117 06cb 0100     		.2byte	0x1
 7118 06cd 54       		.byte	0x54
 7119 06ce 6E000000 		.4byte	.LVL105
 7120 06d2 70000000 		.4byte	.LVL106
 7121 06d6 0100     		.2byte	0x1
 7122 06d8 53       		.byte	0x53
 7123 06d9 70000000 		.4byte	.LVL106
 7124 06dd DA000000 		.4byte	.LVL118
 7125 06e1 0100     		.2byte	0x1
 7126 06e3 54       		.byte	0x54
 7127 06e4 00020000 		.4byte	.LVL160
 7128 06e8 10020000 		.4byte	.LVL162
 7129 06ec 0100     		.2byte	0x1
 7130 06ee 54       		.byte	0x54
 7131 06ef 00000000 		.4byte	0
 7132 06f3 00000000 		.4byte	0
 7133              	.LLST41:
 7134 06f7 90000000 		.4byte	.LVL110
 7135 06fb 9E000000 		.4byte	.LVL111
 7136 06ff 0100     		.2byte	0x1
 7137 0701 50       		.byte	0x50
 7138 0702 9E000000 		.4byte	.LVL111
 7139 0706 C0000000 		.4byte	.LVL115
 7140 070a 0100     		.2byte	0x1
 7141 070c 56       		.byte	0x56
 7142 070d 00020000 		.4byte	.LVL160
 7143 0711 10020000 		.4byte	.LVL162
 7144 0715 0100     		.2byte	0x1
 7145 0717 56       		.byte	0x56
 7146 0718 00000000 		.4byte	0
 7147 071c 00000000 		.4byte	0
 7148              	.LLST42:
 7149 0720 C0000000 		.4byte	.LVL115
 7150 0724 CC000000 		.4byte	.LVL116
 7151 0728 0100     		.2byte	0x1
 7152 072a 53       		.byte	0x53
 7153 072b 00000000 		.4byte	0
 7154 072f 00000000 		.4byte	0
 7155              	.LLST43:
 7156 0733 C0000000 		.4byte	.LVL115
 7157 0737 CC000000 		.4byte	.LVL116
 7158 073b 1600     		.2byte	0x16
 7159 073d 73       		.byte	0x73
 7160 073e 00       		.sleb128 0
 7161 073f 12       		.byte	0x12
 7162 0740 0A       		.byte	0xa
 7163 0741 FFFF     		.2byte	0xffff
 7164 0743 1A       		.byte	0x1a
 7165 0744 08       		.byte	0x8
 7166 0745 C8       		.byte	0xc8
 7167 0746 16       		.byte	0x16
 7168 0747 14       		.byte	0x14
ARM GAS  C:\Users\ADMINI~1\AppData\Local\Temp\ccjTNAQQ.s 			page 162


 7169 0748 0A       		.byte	0xa
 7170 0749 FFFF     		.2byte	0xffff
 7171 074b 1A       		.byte	0x1a
 7172 074c 2D       		.byte	0x2d
 7173 074d 28       		.byte	0x28
 7174 074e 0100     		.2byte	0x1
 7175 0750 16       		.byte	0x16
 7176 0751 13       		.byte	0x13
 7177 0752 9F       		.byte	0x9f
 7178 0753 00000000 		.4byte	0
 7179 0757 00000000 		.4byte	0
 7180              	.LLST44:
 7181 075b 58010000 		.4byte	.LVL139
 7182 075f 6A010000 		.4byte	.LVL140
 7183 0763 0100     		.2byte	0x1
 7184 0765 52       		.byte	0x52
 7185 0766 6A010000 		.4byte	.LVL140
 7186 076a 71010000 		.4byte	.LVL141-1
 7187 076e 0100     		.2byte	0x1
 7188 0770 50       		.byte	0x50
 7189 0771 00000000 		.4byte	0
 7190 0775 00000000 		.4byte	0
 7191              	.LLST45:
 7192 0779 7E010000 		.4byte	.LVL143
 7193 077d 8A010000 		.4byte	.LVL144
 7194 0781 0100     		.2byte	0x1
 7195 0783 53       		.byte	0x53
 7196 0784 00000000 		.4byte	0
 7197 0788 00000000 		.4byte	0
 7198              	.LLST46:
 7199 078c 7E010000 		.4byte	.LVL143
 7200 0790 8A010000 		.4byte	.LVL144
 7201 0794 1600     		.2byte	0x16
 7202 0796 73       		.byte	0x73
 7203 0797 00       		.sleb128 0
 7204 0798 12       		.byte	0x12
 7205 0799 0A       		.byte	0xa
 7206 079a FFFF     		.2byte	0xffff
 7207 079c 1A       		.byte	0x1a
 7208 079d 08       		.byte	0x8
 7209 079e C8       		.byte	0xc8
 7210 079f 16       		.byte	0x16
 7211 07a0 14       		.byte	0x14
 7212 07a1 0A       		.byte	0xa
 7213 07a2 FFFF     		.2byte	0xffff
 7214 07a4 1A       		.byte	0x1a
 7215 07a5 2D       		.byte	0x2d
 7216 07a6 28       		.byte	0x28
 7217 07a7 0100     		.2byte	0x1
 7218 07a9 16       		.byte	0x16
 7219 07aa 13       		.byte	0x13
 7220 07ab 9F       		.byte	0x9f
 7221 07ac 00000000 		.4byte	0
 7222 07b0 00000000 		.4byte	0
 7223              	.LLST47:
 7224 07b4 00000000 		.4byte	.LVL163
 7225 07b8 09000000 		.4byte	.LVL164-1
ARM GAS  C:\Users\ADMINI~1\AppData\Local\Temp\ccjTNAQQ.s 			page 163


 7226 07bc 0100     		.2byte	0x1
 7227 07be 50       		.byte	0x50
 7228 07bf 09000000 		.4byte	.LVL164-1
 7229 07c3 28010000 		.4byte	.LFE7
 7230 07c7 0400     		.2byte	0x4
 7231 07c9 F3       		.byte	0xf3
 7232 07ca 01       		.uleb128 0x1
 7233 07cb 50       		.byte	0x50
 7234 07cc 9F       		.byte	0x9f
 7235 07cd 00000000 		.4byte	0
 7236 07d1 00000000 		.4byte	0
 7237              	.LLST48:
 7238 07d5 00000000 		.4byte	.LVL163
 7239 07d9 09000000 		.4byte	.LVL164-1
 7240 07dd 0100     		.2byte	0x1
 7241 07df 51       		.byte	0x51
 7242 07e0 09000000 		.4byte	.LVL164-1
 7243 07e4 0E000000 		.4byte	.LVL165
 7244 07e8 0400     		.2byte	0x4
 7245 07ea F3       		.byte	0xf3
 7246 07eb 01       		.uleb128 0x1
 7247 07ec 51       		.byte	0x51
 7248 07ed 9F       		.byte	0x9f
 7249 07ee 0E000000 		.4byte	.LVL165
 7250 07f2 18000000 		.4byte	.LVL166
 7251 07f6 0100     		.2byte	0x1
 7252 07f8 54       		.byte	0x54
 7253 07f9 1A000000 		.4byte	.LVL167
 7254 07fd 1C000000 		.4byte	.LVL168
 7255 0801 0400     		.2byte	0x4
 7256 0803 F3       		.byte	0xf3
 7257 0804 01       		.uleb128 0x1
 7258 0805 51       		.byte	0x51
 7259 0806 9F       		.byte	0x9f
 7260 0807 1C000000 		.4byte	.LVL168
 7261 080b 06010000 		.4byte	.LVL170
 7262 080f 0100     		.2byte	0x1
 7263 0811 54       		.byte	0x54
 7264 0812 00000000 		.4byte	0
 7265 0816 00000000 		.4byte	0
 7266              	.LLST49:
 7267 081a 06010000 		.4byte	.LVL170
 7268 081e 09010000 		.4byte	.LVL171-1
 7269 0822 0100     		.2byte	0x1
 7270 0824 50       		.byte	0x50
 7271 0825 09010000 		.4byte	.LVL171-1
 7272 0829 20010000 		.4byte	.LVL176
 7273 082d 0100     		.2byte	0x1
 7274 082f 54       		.byte	0x54
 7275 0830 20010000 		.4byte	.LVL176
 7276 0834 28010000 		.4byte	.LFE7
 7277 0838 0100     		.2byte	0x1
 7278 083a 50       		.byte	0x50
 7279 083b 00000000 		.4byte	0
 7280 083f 00000000 		.4byte	0
 7281              	.LLST50:
 7282 0843 00000000 		.4byte	.LVL177
ARM GAS  C:\Users\ADMINI~1\AppData\Local\Temp\ccjTNAQQ.s 			page 164


 7283 0847 0B000000 		.4byte	.LVL178-1
 7284 084b 0100     		.2byte	0x1
 7285 084d 50       		.byte	0x50
 7286 084e 0B000000 		.4byte	.LVL178-1
 7287 0852 64030000 		.4byte	.LFE12
 7288 0856 0400     		.2byte	0x4
 7289 0858 F3       		.byte	0xf3
 7290 0859 01       		.uleb128 0x1
 7291 085a 50       		.byte	0x50
 7292 085b 9F       		.byte	0x9f
 7293 085c 00000000 		.4byte	0
 7294 0860 00000000 		.4byte	0
 7295              	.LLST51:
 7296 0864 00000000 		.4byte	.LVL177
 7297 0868 0B000000 		.4byte	.LVL178-1
 7298 086c 0100     		.2byte	0x1
 7299 086e 51       		.byte	0x51
 7300 086f 0B000000 		.4byte	.LVL178-1
 7301 0873 64030000 		.4byte	.LFE12
 7302 0877 0400     		.2byte	0x4
 7303 0879 F3       		.byte	0xf3
 7304 087a 01       		.uleb128 0x1
 7305 087b 51       		.byte	0x51
 7306 087c 9F       		.byte	0x9f
 7307 087d 00000000 		.4byte	0
 7308 0881 00000000 		.4byte	0
 7309              	.LLST52:
 7310 0885 00000000 		.4byte	.LVL177
 7311 0889 26000000 		.4byte	.LVL180
 7312 088d 0200     		.2byte	0x2
 7313 088f 30       		.byte	0x30
 7314 0890 9F       		.byte	0x9f
 7315 0891 26000000 		.4byte	.LVL180
 7316 0895 3E030000 		.4byte	.LVL235
 7317 0899 0200     		.2byte	0x2
 7318 089b 91       		.byte	0x91
 7319 089c 58       		.sleb128 -40
 7320 089d 3E030000 		.4byte	.LVL235
 7321 08a1 46030000 		.4byte	.LVL237
 7322 08a5 0100     		.2byte	0x1
 7323 08a7 55       		.byte	0x55
 7324 08a8 46030000 		.4byte	.LVL237
 7325 08ac 64030000 		.4byte	.LFE12
 7326 08b0 0100     		.2byte	0x1
 7327 08b2 50       		.byte	0x50
 7328 08b3 00000000 		.4byte	0
 7329 08b7 00000000 		.4byte	0
 7330              	.LLST53:
 7331 08bb 26000000 		.4byte	.LVL180
 7332 08bf 46030000 		.4byte	.LVL238
 7333 08c3 0100     		.2byte	0x1
 7334 08c5 56       		.byte	0x56
 7335 08c6 00000000 		.4byte	0
 7336 08ca 00000000 		.4byte	0
 7337              	.LLST54:
 7338 08ce 26000000 		.4byte	.LVL180
 7339 08d2 46030000 		.4byte	.LVL239
ARM GAS  C:\Users\ADMINI~1\AppData\Local\Temp\ccjTNAQQ.s 			page 165


 7340 08d6 0100     		.2byte	0x1
 7341 08d8 57       		.byte	0x57
 7342 08d9 00000000 		.4byte	0
 7343 08dd 00000000 		.4byte	0
 7344              	.LLST55:
 7345 08e1 26000000 		.4byte	.LVL180
 7346 08e5 1E010000 		.4byte	.LVL189
 7347 08e9 0200     		.2byte	0x2
 7348 08eb 30       		.byte	0x30
 7349 08ec 9F       		.byte	0x9f
 7350 08ed 1E010000 		.4byte	.LVL189
 7351 08f1 20010000 		.4byte	.LVL190
 7352 08f5 0100     		.2byte	0x1
 7353 08f7 50       		.byte	0x50
 7354 08f8 20010000 		.4byte	.LVL190
 7355 08fc D0010000 		.4byte	.LVL195
 7356 0900 0100     		.2byte	0x1
 7357 0902 54       		.byte	0x54
 7358 0903 D0010000 		.4byte	.LVL195
 7359 0907 A1020000 		.4byte	.LVL210-1
 7360 090b 0100     		.2byte	0x1
 7361 090d 50       		.byte	0x50
 7362 090e A1020000 		.4byte	.LVL210-1
 7363 0912 BA020000 		.4byte	.LVL214
 7364 0916 0200     		.2byte	0x2
 7365 0918 91       		.byte	0x91
 7366 0919 5C       		.sleb128 -36
 7367 091a BA020000 		.4byte	.LVL214
 7368 091e C0020000 		.4byte	.LVL216
 7369 0922 0100     		.2byte	0x1
 7370 0924 55       		.byte	0x55
 7371 0925 C2020000 		.4byte	.LVL217
 7372 0929 C8020000 		.4byte	.LVL219
 7373 092d 0100     		.2byte	0x1
 7374 092f 55       		.byte	0x55
 7375 0930 C8020000 		.4byte	.LVL219
 7376 0934 DE020000 		.4byte	.LVL222
 7377 0938 0200     		.2byte	0x2
 7378 093a 91       		.byte	0x91
 7379 093b 5C       		.sleb128 -36
 7380 093c DE020000 		.4byte	.LVL222
 7381 0940 28030000 		.4byte	.LVL232
 7382 0944 0100     		.2byte	0x1
 7383 0946 55       		.byte	0x55
 7384 0947 00000000 		.4byte	0
 7385 094b 00000000 		.4byte	0
 7386              	.LLST56:
 7387 094f 26000000 		.4byte	.LVL180
 7388 0953 BE010000 		.4byte	.LVL193
 7389 0957 0200     		.2byte	0x2
 7390 0959 30       		.byte	0x30
 7391 095a 9F       		.byte	0x9f
 7392 095b BE010000 		.4byte	.LVL193
 7393 095f 48020000 		.4byte	.LVL202
 7394 0963 0200     		.2byte	0x2
 7395 0965 91       		.byte	0x91
 7396 0966 54       		.sleb128 -44
ARM GAS  C:\Users\ADMINI~1\AppData\Local\Temp\ccjTNAQQ.s 			page 166


 7397 0967 48020000 		.4byte	.LVL202
 7398 096b 62020000 		.4byte	.LVL203
 7399 096f 0900     		.2byte	0x9
 7400 0971 91       		.byte	0x91
 7401 0972 54       		.sleb128 -44
 7402 0973 94       		.byte	0x94
 7403 0974 02       		.byte	0x2
 7404 0975 0A       		.byte	0xa
 7405 0976 8002     		.2byte	0x280
 7406 0978 21       		.byte	0x21
 7407 0979 9F       		.byte	0x9f
 7408 097a 66020000 		.4byte	.LVL204
 7409 097e 74020000 		.4byte	.LVL205
 7410 0982 0100     		.2byte	0x1
 7411 0984 55       		.byte	0x55
 7412 0985 76020000 		.4byte	.LVL206
 7413 0989 B8020000 		.4byte	.LVL213
 7414 098d 0100     		.2byte	0x1
 7415 098f 55       		.byte	0x55
 7416 0990 00000000 		.4byte	0
 7417 0994 00000000 		.4byte	0
 7418              	.LLST57:
 7419 0998 26000000 		.4byte	.LVL180
 7420 099c E2010000 		.4byte	.LVL196
 7421 09a0 0200     		.2byte	0x2
 7422 09a2 30       		.byte	0x30
 7423 09a3 9F       		.byte	0x9f
 7424 09a4 E2010000 		.4byte	.LVL196
 7425 09a8 14030000 		.4byte	.LVL227
 7426 09ac 0100     		.2byte	0x1
 7427 09ae 54       		.byte	0x54
 7428 09af 14030000 		.4byte	.LVL227
 7429 09b3 18030000 		.4byte	.LVL228
 7430 09b7 0600     		.2byte	0x6
 7431 09b9 74       		.byte	0x74
 7432 09ba 00       		.sleb128 0
 7433 09bb 09       		.byte	0x9
 7434 09bc FB       		.byte	0xfb
 7435 09bd 1A       		.byte	0x1a
 7436 09be 9F       		.byte	0x9f
 7437 09bf 1C030000 		.4byte	.LVL229
 7438 09c3 26030000 		.4byte	.LVL231
 7439 09c7 0100     		.2byte	0x1
 7440 09c9 54       		.byte	0x54
 7441 09ca 00000000 		.4byte	0
 7442 09ce 00000000 		.4byte	0
 7443              	.LLST58:
 7444 09d2 9A000000 		.4byte	.LVL183
 7445 09d6 46030000 		.4byte	.LVL238
 7446 09da 0100     		.2byte	0x1
 7447 09dc 56       		.byte	0x56
 7448 09dd 00000000 		.4byte	0
 7449 09e1 00000000 		.4byte	0
 7450              	.LLST59:
 7451 09e5 9A000000 		.4byte	.LVL183
 7452 09e9 46030000 		.4byte	.LVL239
 7453 09ed 0100     		.2byte	0x1
ARM GAS  C:\Users\ADMINI~1\AppData\Local\Temp\ccjTNAQQ.s 			page 167


 7454 09ef 57       		.byte	0x57
 7455 09f0 00000000 		.4byte	0
 7456 09f4 00000000 		.4byte	0
 7457              	.LLST60:
 7458 09f8 9A000000 		.4byte	.LVL183
 7459 09fc C6000000 		.4byte	.LVL184
 7460 0a00 0200     		.2byte	0x2
 7461 0a02 30       		.byte	0x30
 7462 0a03 9F       		.byte	0x9f
 7463 0a04 C6000000 		.4byte	.LVL184
 7464 0a08 F4000000 		.4byte	.LVL185
 7465 0a0c 0100     		.2byte	0x1
 7466 0a0e 52       		.byte	0x52
 7467 0a0f F4000000 		.4byte	.LVL185
 7468 0a13 00010000 		.4byte	.LVL186
 7469 0a17 0900     		.2byte	0x9
 7470 0a19 77       		.byte	0x77
 7471 0a1a 00       		.sleb128 0
 7472 0a1b 31       		.byte	0x31
 7473 0a1c 24       		.byte	0x24
 7474 0a1d 70       		.byte	0x70
 7475 0a1e 00       		.sleb128 0
 7476 0a1f 22       		.byte	0x22
 7477 0a20 23       		.byte	0x23
 7478 0a21 30       		.uleb128 0x30
 7479 0a22 00010000 		.4byte	.LVL186
 7480 0a26 0B010000 		.4byte	.LVL187-1
 7481 0a2a 0700     		.2byte	0x7
 7482 0a2c 77       		.byte	0x77
 7483 0a2d 00       		.sleb128 0
 7484 0a2e 31       		.byte	0x31
 7485 0a2f 24       		.byte	0x24
 7486 0a30 70       		.byte	0x70
 7487 0a31 00       		.sleb128 0
 7488 0a32 22       		.byte	0x22
 7489 0a33 00000000 		.4byte	0
 7490 0a37 00000000 		.4byte	0
 7491              	.LLST61:
 7492 0a3b 00000000 		.4byte	.LVL240
 7493 0a3f 1C000000 		.4byte	.LVL241
 7494 0a43 0100     		.2byte	0x1
 7495 0a45 50       		.byte	0x50
 7496 0a46 1C000000 		.4byte	.LVL241
 7497 0a4a 28000000 		.4byte	.LFE25
 7498 0a4e 0400     		.2byte	0x4
 7499 0a50 F3       		.byte	0xf3
 7500 0a51 01       		.uleb128 0x1
 7501 0a52 50       		.byte	0x50
 7502 0a53 9F       		.byte	0x9f
 7503 0a54 00000000 		.4byte	0
 7504 0a58 00000000 		.4byte	0
 7505              	.LLST62:
 7506 0a5c 00000000 		.4byte	.LVL240
 7507 0a60 20000000 		.4byte	.LVL242
 7508 0a64 0200     		.2byte	0x2
 7509 0a66 30       		.byte	0x30
 7510 0a67 9F       		.byte	0x9f
ARM GAS  C:\Users\ADMINI~1\AppData\Local\Temp\ccjTNAQQ.s 			page 168


 7511 0a68 20000000 		.4byte	.LVL242
 7512 0a6c 28000000 		.4byte	.LFE25
 7513 0a70 0100     		.2byte	0x1
 7514 0a72 50       		.byte	0x50
 7515 0a73 00000000 		.4byte	0
 7516 0a77 00000000 		.4byte	0
 7517              		.section	.debug_aranges,"",%progbits
 7518 0000 BC000000 		.4byte	0xbc
 7519 0004 0200     		.2byte	0x2
 7520 0006 00000000 		.4byte	.Ldebug_info0
 7521 000a 04       		.byte	0x4
 7522 000b 00       		.byte	0
 7523 000c 0000     		.2byte	0
 7524 000e 0000     		.2byte	0
 7525 0010 00000000 		.4byte	.LFB2
 7526 0014 40000000 		.4byte	.LFE2-.LFB2
 7527 0018 00000000 		.4byte	.LFB0
 7528 001c 1C000000 		.4byte	.LFE0-.LFB0
 7529 0020 00000000 		.4byte	.LFB1
 7530 0024 38000000 		.4byte	.LFE1-.LFB1
 7531 0028 00000000 		.4byte	.LFB8
 7532 002c 00010000 		.4byte	.LFE8-.LFB8
 7533 0030 00000000 		.4byte	.LFB9
 7534 0034 38000000 		.4byte	.LFE9-.LFB9
 7535 0038 00000000 		.4byte	.LFB11
 7536 003c 24000000 		.4byte	.LFE11-.LFB11
 7537 0040 00000000 		.4byte	.LFB14
 7538 0044 34000000 		.4byte	.LFE14-.LFB14
 7539 0048 00000000 		.4byte	.LFB15
 7540 004c 34000000 		.4byte	.LFE15-.LFB15
 7541 0050 00000000 		.4byte	.LFB17
 7542 0054 18000000 		.4byte	.LFE17-.LFB17
 7543 0058 00000000 		.4byte	.LFB16
 7544 005c 3C000000 		.4byte	.LFE16-.LFB16
 7545 0060 00000000 		.4byte	.LFB18
 7546 0064 0C000000 		.4byte	.LFE18-.LFB18
 7547 0068 00000000 		.4byte	.LFB19
 7548 006c 54000000 		.4byte	.LFE19-.LFB19
 7549 0070 00000000 		.4byte	.LFB20
 7550 0074 64000000 		.4byte	.LFE20-.LFB20
 7551 0078 00000000 		.4byte	.LFB21
 7552 007c 0C000000 		.4byte	.LFE21-.LFB21
 7553 0080 00000000 		.4byte	.LFB22
 7554 0084 0C000000 		.4byte	.LFE22-.LFB22
 7555 0088 00000000 		.4byte	.LFB23
 7556 008c 24000000 		.4byte	.LFE23-.LFB23
 7557 0090 00000000 		.4byte	.LFB24
 7558 0094 A4000000 		.4byte	.LFE24-.LFB24
 7559 0098 00000000 		.4byte	.LFB6
 7560 009c 30020000 		.4byte	.LFE6-.LFB6
 7561 00a0 00000000 		.4byte	.LFB7
 7562 00a4 28010000 		.4byte	.LFE7-.LFB7
 7563 00a8 00000000 		.4byte	.LFB12
 7564 00ac 64030000 		.4byte	.LFE12-.LFB12
 7565 00b0 00000000 		.4byte	.LFB25
 7566 00b4 28000000 		.4byte	.LFE25-.LFB25
 7567 00b8 00000000 		.4byte	0
ARM GAS  C:\Users\ADMINI~1\AppData\Local\Temp\ccjTNAQQ.s 			page 169


 7568 00bc 00000000 		.4byte	0
 7569              		.section	.debug_ranges,"",%progbits
 7570              	.Ldebug_ranges0:
 7571 0000 C0000000 		.4byte	.LBB56
 7572 0004 E0000000 		.4byte	.LBE56
 7573 0008 E2000000 		.4byte	.LBB64
 7574 000c 78010000 		.4byte	.LBE64
 7575 0010 00000000 		.4byte	0
 7576 0014 00000000 		.4byte	0
 7577 0018 C0000000 		.4byte	.LBB57
 7578 001c D6000000 		.4byte	.LBE57
 7579 0020 D8000000 		.4byte	.LBB60
 7580 0024 DA000000 		.4byte	.LBE60
 7581 0028 00000000 		.4byte	0
 7582 002c 00000000 		.4byte	0
 7583 0030 44010000 		.4byte	.LBB61
 7584 0034 46010000 		.4byte	.LBE61
 7585 0038 48010000 		.4byte	.LBB62
 7586 003c 4C010000 		.4byte	.LBE62
 7587 0040 4E010000 		.4byte	.LBB63
 7588 0044 78010000 		.4byte	.LBE63
 7589 0048 00000000 		.4byte	0
 7590 004c 00000000 		.4byte	0
 7591 0050 7E010000 		.4byte	.LBB66
 7592 0054 94010000 		.4byte	.LBE66
 7593 0058 96010000 		.4byte	.LBB69
 7594 005c 98010000 		.4byte	.LBE69
 7595 0060 00000000 		.4byte	0
 7596 0064 00000000 		.4byte	0
 7597 0068 00000000 		.4byte	.LFB2
 7598 006c 40000000 		.4byte	.LFE2
 7599 0070 00000000 		.4byte	.LFB0
 7600 0074 1C000000 		.4byte	.LFE0
 7601 0078 00000000 		.4byte	.LFB1
 7602 007c 38000000 		.4byte	.LFE1
 7603 0080 00000000 		.4byte	.LFB8
 7604 0084 00010000 		.4byte	.LFE8
 7605 0088 00000000 		.4byte	.LFB9
 7606 008c 38000000 		.4byte	.LFE9
 7607 0090 00000000 		.4byte	.LFB11
 7608 0094 24000000 		.4byte	.LFE11
 7609 0098 00000000 		.4byte	.LFB14
 7610 009c 34000000 		.4byte	.LFE14
 7611 00a0 00000000 		.4byte	.LFB15
 7612 00a4 34000000 		.4byte	.LFE15
 7613 00a8 00000000 		.4byte	.LFB17
 7614 00ac 18000000 		.4byte	.LFE17
 7615 00b0 00000000 		.4byte	.LFB16
 7616 00b4 3C000000 		.4byte	.LFE16
 7617 00b8 00000000 		.4byte	.LFB18
 7618 00bc 0C000000 		.4byte	.LFE18
 7619 00c0 00000000 		.4byte	.LFB19
 7620 00c4 54000000 		.4byte	.LFE19
 7621 00c8 00000000 		.4byte	.LFB20
 7622 00cc 64000000 		.4byte	.LFE20
 7623 00d0 00000000 		.4byte	.LFB21
 7624 00d4 0C000000 		.4byte	.LFE21
ARM GAS  C:\Users\ADMINI~1\AppData\Local\Temp\ccjTNAQQ.s 			page 170


 7625 00d8 00000000 		.4byte	.LFB22
 7626 00dc 0C000000 		.4byte	.LFE22
 7627 00e0 00000000 		.4byte	.LFB23
 7628 00e4 24000000 		.4byte	.LFE23
 7629 00e8 00000000 		.4byte	.LFB24
 7630 00ec A4000000 		.4byte	.LFE24
 7631 00f0 00000000 		.4byte	.LFB6
 7632 00f4 30020000 		.4byte	.LFE6
 7633 00f8 00000000 		.4byte	.LFB7
 7634 00fc 28010000 		.4byte	.LFE7
 7635 0100 00000000 		.4byte	.LFB12
 7636 0104 64030000 		.4byte	.LFE12
 7637 0108 00000000 		.4byte	.LFB25
 7638 010c 28000000 		.4byte	.LFE25
 7639 0110 00000000 		.4byte	0
 7640 0114 00000000 		.4byte	0
 7641              		.section	.debug_line,"",%progbits
 7642              	.Ldebug_line0:
 7643 0000 CB050000 		.section	.debug_str,"MS",%progbits,1
 7643      02002302 
 7643      00000201 
 7643      FB0E0D00 
 7643      01010101 
 7644              	.LASF232:
 7645 0000 696E765F 		.ascii	"inv_convert_androidSensor_to_control\000"
 7645      636F6E76 
 7645      6572745F 
 7645      616E6472 
 7645      6F696453 
 7646              	.LASF126:
 7647 0025 446D704F 		.ascii	"DmpOdrDivider\000"
 7647      64724469 
 7647      76696465 
 7647      7200
 7648              	.LASF128:
 7649 0033 696E765F 		.ascii	"inv_enable_activity_classifier\000"
 7649      656E6162 
 7649      6C655F61 
 7649      63746976 
 7649      6974795F 
 7650              	.LASF75:
 7651 0052 414E4452 		.ascii	"ANDROID_SENSOR_MAGNETIC_FIELD_UNCALIBRATED\000"
 7651      4F49445F 
 7651      53454E53 
 7651      4F525F4D 
 7651      41474E45 
 7652              	.LASF36:
 7653 007d 494E565F 		.ascii	"INV_SENSOR_WAKEUP_GYRO\000"
 7653      53454E53 
 7653      4F525F57 
 7653      414B4555 
 7653      505F4759 
 7654              	.LASF89:
 7655 0094 414E4452 		.ascii	"ANDROID_SENSOR_WAKEUP_PRESSURE\000"
 7655      4F49445F 
 7655      53454E53 
 7655      4F525F57 
ARM GAS  C:\Users\ADMINI~1\AppData\Local\Temp\ccjTNAQQ.s 			page 171


 7655      414B4555 
 7656              	.LASF150:
 7657 00b3 636E7472 		.ascii	"cntr\000"
 7657      00
 7658              	.LASF141:
 7659 00b8 736D645F 		.ascii	"smd_status\000"
 7659      73746174 
 7659      757300
 7660              	.LASF107:
 7661 00c3 414E4452 		.ascii	"ANDROID_SENSOR_SCREEN_ROTATION\000"
 7661      4F49445F 
 7661      53454E53 
 7661      4F525F53 
 7661      43524545 
 7662              	.LASF203:
 7663 00e2 646D705F 		.ascii	"dmp_set_sensor_rate\000"
 7663      7365745F 
 7663      73656E73 
 7663      6F725F72 
 7663      61746500 
 7664              	.LASF179:
 7665 00f6 64656C61 		.ascii	"delayInMs\000"
 7665      79496E4D 
 7665      7300
 7666              	.LASF180:
 7667 0100 696E765F 		.ascii	"inv_enable_sensor\000"
 7667      656E6162 
 7667      6C655F73 
 7667      656E736F 
 7667      7200
 7668              	.LASF119:
 7669 0112 416E6472 		.ascii	"AndroidSensor\000"
 7669      6F696453 
 7669      656E736F 
 7669      7200
 7670              	.LASF0:
 7671 0120 756E7369 		.ascii	"unsigned int\000"
 7671      676E6564 
 7671      20696E74 
 7671      00
 7672              	.LASF167:
 7673 012d 61636365 		.ascii	"accel_gain\000"
 7673      6C5F6761 
 7673      696E00
 7674              	.LASF58:
 7675 0138 41434345 		.ascii	"ACCEL_CAL_DIV\000"
 7675      4C5F4341 
 7675      4C5F4449 
 7675      5600
 7676              	.LASF234:
 7677 0146 696E765F 		.ascii	"inv_androidSensor_to_control_bits\000"
 7677      616E6472 
 7677      6F696453 
 7677      656E736F 
 7677      725F746F 
 7678              	.LASF110:
 7679 0168 47454E45 		.ascii	"GENERAL_SENSORS_MAX\000"
ARM GAS  C:\Users\ADMINI~1\AppData\Local\Temp\ccjTNAQQ.s 			page 172


 7679      52414C5F 
 7679      53454E53 
 7679      4F52535F 
 7679      4D415800 
 7680              	.LASF18:
 7681 017c 494E565F 		.ascii	"INV_SENSOR_COMPASS\000"
 7681      53454E53 
 7681      4F525F43 
 7681      4F4D5041 
 7681      535300
 7682              	.LASF156:
 7683 018f 696E765F 		.ascii	"inv_is_gyro_enabled\000"
 7683      69735F67 
 7683      79726F5F 
 7683      656E6162 
 7683      6C656400 
 7684              	.LASF61:
 7685 01a3 414E4452 		.ascii	"ANDROID_SENSOR_META_DATA\000"
 7685      4F49445F 
 7685      53454E53 
 7685      4F525F4D 
 7685      4554415F 
 7686              	.LASF176:
 7687 01bc 6C4C6173 		.ascii	"lLastHwSmplrtDivider\000"
 7687      74487753 
 7687      6D706C72 
 7687      74446976 
 7687      69646572 
 7688              	.LASF133:
 7689 01d1 616E6472 		.ascii	"androidSensor\000"
 7689      6F696453 
 7689      656E736F 
 7689      7200
 7690              	.LASF188:
 7691 01df 696E765F 		.ascii	"inv_sensor_control\000"
 7691      73656E73 
 7691      6F725F63 
 7691      6F6E7472 
 7691      6F6C00
 7692              	.LASF82:
 7693 01f2 414E4452 		.ascii	"ANDROID_SENSOR_HEART_RATE\000"
 7693      4F49445F 
 7693      53454E53 
 7693      4F525F48 
 7693      45415254 
 7694              	.LASF113:
 7695 020c 4F44525F 		.ascii	"ODR_IN_Ms\000"
 7695      494E5F4D 
 7695      7300
 7696              	.LASF157:
 7697 0216 696E765F 		.ascii	"inv_get_batch_mode_status\000"
 7697      6765745F 
 7697      62617463 
 7697      685F6D6F 
 7697      64655F73 
 7698              	.LASF161:
 7699 0230 696E765F 		.ascii	"inv_set_batch_timeout_ms\000"
ARM GAS  C:\Users\ADMINI~1\AppData\Local\Temp\ccjTNAQQ.s 			page 173


 7699      7365745F 
 7699      62617463 
 7699      685F7469 
 7699      6D656F75 
 7700              	.LASF194:
 7701 0249 4D696E44 		.ascii	"MinDelayGenAccel3List\000"
 7701      656C6179 
 7701      47656E41 
 7701      6363656C 
 7701      334C6973 
 7702              	.LASF163:
 7703 025f 696E765F 		.ascii	"inv_get_androidSensorsOn_mask\000"
 7703      6765745F 
 7703      616E6472 
 7703      6F696453 
 7703      656E736F 
 7704              	.LASF30:
 7705 027d 494E565F 		.ascii	"INV_SENSOR_BRING_TO_SEE\000"
 7705      53454E53 
 7705      4F525F42 
 7705      52494E47 
 7705      5F544F5F 
 7706              	.LASF130:
 7707 0295 44697669 		.ascii	"DividerRateSet\000"
 7707      64657252 
 7707      61746553 
 7707      657400
 7708              	.LASF158:
 7709 02a4 696E765F 		.ascii	"inv_set_batch_timeout\000"
 7709      7365745F 
 7709      62617463 
 7709      685F7469 
 7709      6D656F75 
 7710              	.LASF185:
 7711 02ba 6261635F 		.ascii	"bac_status\000"
 7711      73746174 
 7711      757300
 7712              	.LASF35:
 7713 02c5 494E565F 		.ascii	"INV_SENSOR_WAKEUP_ACCEL\000"
 7713      53454E53 
 7713      4F525F57 
 7713      414B4555 
 7713      505F4143 
 7714              	.LASF146:
 7715 02dd 456C656D 		.ascii	"ElementQuan\000"
 7715      656E7451 
 7715      75616E00 
 7716              	.LASF100:
 7717 02e9 414E4452 		.ascii	"ANDROID_SENSOR_WAKEUP_GEOMAGNETIC_ROTATION_VECTOR\000"
 7717      4F49445F 
 7717      53454E53 
 7717      4F525F57 
 7717      414B4555 
 7718              	.LASF52:
 7719 031b 494E565F 		.ascii	"INV_SENSOR_NUM_MAX\000"
 7719      53454E53 
 7719      4F525F4E 
ARM GAS  C:\Users\ADMINI~1\AppData\Local\Temp\ccjTNAQQ.s 			page 174


 7719      554D5F4D 
 7719      415800
 7720              	.LASF88:
 7721 032e 414E4452 		.ascii	"ANDROID_SENSOR_WAKEUP_LIGHT\000"
 7721      4F49445F 
 7721      53454E53 
 7721      4F525F57 
 7721      414B4555 
 7722              	.LASF195:
 7723 034a 4D696E44 		.ascii	"MinDelayGenAccel4List\000"
 7723      656C6179 
 7723      47656E41 
 7723      6363656C 
 7723      344C6973 
 7724              	.LASF230:
 7725 0360 2E5C3230 		.ascii	".\\20648_driver\\drivers\\inv_mems_base_control.c\000"
 7725      3634385F 
 7725      64726976 
 7725      65725C64 
 7725      72697665 
 7726              	.LASF139:
 7727 038f 72657375 		.ascii	"result\000"
 7727      6C7400
 7728              	.LASF198:
 7729 0396 4D696E44 		.ascii	"MinDelayGenGyro3List\000"
 7729      656C6179 
 7729      47656E47 
 7729      79726F33 
 7729      4C697374 
 7730              	.LASF184:
 7731 03ab 6261635F 		.ascii	"bac_on\000"
 7731      6F6E00
 7732              	.LASF170:
 7733 03b2 6C4D696E 		.ascii	"lMinOdr\000"
 7733      4F647200 
 7734              	.LASF206:
 7735 03ba 646D705F 		.ascii	"dmp_set_data_output_control2\000"
 7735      7365745F 
 7735      64617461 
 7735      5F6F7574 
 7735      7075745F 
 7736              	.LASF73:
 7737 03d7 414E4452 		.ascii	"ANDROID_SENSOR_HUMIDITY\000"
 7737      4F49445F 
 7737      53454E53 
 7737      4F525F48 
 7737      554D4944 
 7738              	.LASF41:
 7739 03ef 494E565F 		.ascii	"INV_SENSOR_WAKEUP_GEOMAG\000"
 7739      53454E53 
 7739      4F525F57 
 7739      414B4555 
 7739      505F4745 
 7740              	.LASF84:
 7741 0408 414E4452 		.ascii	"ANDROID_SENSOR_WAKEUP_ACCELEROMETER\000"
 7741      4F49445F 
 7741      53454E53 
ARM GAS  C:\Users\ADMINI~1\AppData\Local\Temp\ccjTNAQQ.s 			page 175


 7741      4F525F57 
 7741      414B4555 
 7742              	.LASF14:
 7743 042c 75696E74 		.ascii	"uint32_t\000"
 7743      33325F74 
 7743      00
 7744              	.LASF93:
 7745 0435 414E4452 		.ascii	"ANDROID_SENSOR_WAKEUP_RELATIVE_HUMIDITY\000"
 7745      4F49445F 
 7745      53454E53 
 7745      4F525F57 
 7745      414B4555 
 7746              	.LASF144:
 7747 045d 73746570 		.ascii	"steps\000"
 7747      7300
 7748              	.LASF77:
 7749 0463 414E4452 		.ascii	"ANDROID_SENSOR_GYROSCOPE_UNCALIBRATED\000"
 7749      4F49445F 
 7749      53454E53 
 7749      4F525F47 
 7749      59524F53 
 7750              	.LASF117:
 7751 0489 666C6F61 		.ascii	"float\000"
 7751      7400
 7752              	.LASF98:
 7753 048f 414E4452 		.ascii	"ANDROID_SENSOR_WAKEUP_STEP_DETECTOR\000"
 7753      4F49445F 
 7753      53454E53 
 7753      4F525F57 
 7753      414B4555 
 7754              	.LASF187:
 7755 04b3 666C6970 		.ascii	"flip_pickup_status\000"
 7755      5F706963 
 7755      6B75705F 
 7755      73746174 
 7755      757300
 7756              	.LASF105:
 7757 04c6 414E4452 		.ascii	"ANDROID_SENSOR_FLIP_PICKUP\000"
 7757      4F49445F 
 7757      53454E53 
 7757      4F525F46 
 7757      4C49505F 
 7758              	.LASF120:
 7759 04e1 496E7653 		.ascii	"InvSensor\000"
 7759      656E736F 
 7759      7200
 7760              	.LASF45:
 7761 04eb 494E565F 		.ascii	"INV_SENSOR_WAKEUP_CALIB_COMPASS\000"
 7761      53454E53 
 7761      4F525F57 
 7761      414B4555 
 7761      505F4341 
 7762              	.LASF69:
 7763 050b 414E4452 		.ascii	"ANDROID_SENSOR_WAKEUP_PROXIMITY\000"
 7763      4F49445F 
 7763      53454E53 
 7763      4F525F57 
ARM GAS  C:\Users\ADMINI~1\AppData\Local\Temp\ccjTNAQQ.s 			page 176


 7763      414B4555 
 7764              	.LASF66:
 7765 052b 414E4452 		.ascii	"ANDROID_SENSOR_LIGHT\000"
 7765      4F49445F 
 7765      53454E53 
 7765      4F525F4C 
 7765      49474854 
 7766              	.LASF214:
 7767 0540 696E765F 		.ascii	"inv_set_gyro_divider\000"
 7767      7365745F 
 7767      6779726F 
 7767      5F646976 
 7767      69646572 
 7768              	.LASF47:
 7769 0555 494E565F 		.ascii	"INV_SENSOR_WAKEUP_TILT_DETECTOR\000"
 7769      53454E53 
 7769      4F525F57 
 7769      414B4555 
 7769      505F5449 
 7770              	.LASF111:
 7771 0575 696E765F 		.ascii	"inv_error_t\000"
 7771      6572726F 
 7771      725F7400 
 7772              	.LASF10:
 7773 0581 6C6F6E67 		.ascii	"long long unsigned int\000"
 7773      206C6F6E 
 7773      6720756E 
 7773      7369676E 
 7773      65642069 
 7774              	.LASF33:
 7775 0598 494E565F 		.ascii	"INV_SENSOR_GEOMAG_cpass\000"
 7775      53454E53 
 7775      4F525F47 
 7775      454F4D41 
 7775      475F6370 
 7776              	.LASF23:
 7777 05b0 494E565F 		.ascii	"INV_SENSOR_PEDQ\000"
 7777      53454E53 
 7777      4F525F50 
 7777      45445100 
 7778              	.LASF112:
 7779 05c0 494E565F 		.ascii	"INV_ODR_TYPE\000"
 7779      4F44525F 
 7779      54595045 
 7779      00
 7780              	.LASF99:
 7781 05cd 414E4452 		.ascii	"ANDROID_SENSOR_WAKEUP_STEP_COUNTER\000"
 7781      4F49445F 
 7781      53454E53 
 7781      4F525F57 
 7781      414B4555 
 7782              	.LASF211:
 7783 05f0 6D656D73 		.ascii	"memset\000"
 7783      657400
 7784              	.LASF224:
 7785 05f7 696E765F 		.ascii	"inv_enable_mems_hw_sensors\000"
 7785      656E6162 
ARM GAS  C:\Users\ADMINI~1\AppData\Local\Temp\ccjTNAQQ.s 			page 177


 7785      6C655F6D 
 7785      656D735F 
 7785      68775F73 
 7786              	.LASF87:
 7787 0612 414E4452 		.ascii	"ANDROID_SENSOR_WAKEUP_GYROSCOPE\000"
 7787      4F49445F 
 7787      53454E53 
 7787      4F525F57 
 7787      414B4555 
 7788              	.LASF76:
 7789 0632 414E4452 		.ascii	"ANDROID_SENSOR_GAME_ROTATION_VECTOR\000"
 7789      4F49445F 
 7789      53454E53 
 7789      4F525F47 
 7789      414D455F 
 7790              	.LASF229:
 7791 0656 474E5520 		.ascii	"GNU C 4.9.3 20150303 (release) [ARM/embedded-4_9-br"
 7791      4320342E 
 7791      392E3320 
 7791      32303135 
 7791      30333033 
 7792 0689 616E6368 		.ascii	"anch revision 221220] -mcpu=cortex-m0 -mthumb -g -O"
 7792      20726576 
 7792      6973696F 
 7792      6E203232 
 7792      31323230 
 7793 06bc 73202D66 		.ascii	"s -ffunction-sections -ffat-lto-objects\000"
 7793      66756E63 
 7793      74696F6E 
 7793      2D736563 
 7793      74696F6E 
 7794              	.LASF127:
 7795 06e4 656E6162 		.ascii	"enable\000"
 7795      6C6500
 7796              	.LASF60:
 7797 06eb 414E4452 		.ascii	"ANDROID_SENSORS\000"
 7797      4F49445F 
 7797      53454E53 
 7797      4F525300 
 7798              	.LASF225:
 7799 06fb 646D705F 		.ascii	"dmp_set_data_rdy_status\000"
 7799      7365745F 
 7799      64617461 
 7799      5F726479 
 7799      5F737461 
 7800              	.LASF177:
 7801 0713 6C537465 		.ascii	"lStepCounterMinDly\000"
 7801      70436F75 
 7801      6E746572 
 7801      4D696E44 
 7801      6C7900
 7802              	.LASF19:
 7803 0726 494E565F 		.ascii	"INV_SENSOR_ALS\000"
 7803      53454E53 
 7803      4F525F41 
 7803      4C5300
 7804              	.LASF199:
ARM GAS  C:\Users\ADMINI~1\AppData\Local\Temp\ccjTNAQQ.s 			page 178


 7805 0735 4D696E44 		.ascii	"MinDelayGenGyro4List\000"
 7805      656C6179 
 7805      47656E47 
 7805      79726F34 
 7805      4C697374 
 7806              	.LASF162:
 7807 074a 62617463 		.ascii	"batch_time_in_ms\000"
 7807      685F7469 
 7807      6D655F69 
 7807      6E5F6D73 
 7807      00
 7808              	.LASF131:
 7809 075b 53616D70 		.ascii	"SampleRateDividerGet\000"
 7809      6C655261 
 7809      74654469 
 7809      76696465 
 7809      72476574 
 7810              	.LASF92:
 7811 0770 414E4452 		.ascii	"ANDROID_SENSOR_WAKEUP_ROTATION_VECTOR\000"
 7811      4F49445F 
 7811      53454E53 
 7811      4F525F57 
 7811      414B4555 
 7812              	.LASF191:
 7813 0796 4D696E44 		.ascii	"MinDelayGenAccelList\000"
 7813      656C6179 
 7813      47656E41 
 7813      6363656C 
 7813      4C697374 
 7814              	.LASF42:
 7815 07ab 494E565F 		.ascii	"INV_SENSOR_WAKEUP_PEDQ\000"
 7815      53454E53 
 7815      4F525F57 
 7815      414B4555 
 7815      505F5045 
 7816              	.LASF38:
 7817 07c2 494E565F 		.ascii	"INV_SENSOR_WAKEUP_ALS\000"
 7817      53454E53 
 7817      4F525F57 
 7817      414B4555 
 7817      505F414C 
 7818              	.LASF64:
 7819 07d8 414E4452 		.ascii	"ANDROID_SENSOR_ORIENTATION\000"
 7819      4F49445F 
 7819      53454E53 
 7819      4F525F4F 
 7819      5249454E 
 7820              	.LASF106:
 7821 07f3 414E4452 		.ascii	"ANDROID_SENSOR_ACTIVITY_CLASSIFICATON\000"
 7821      4F49445F 
 7821      53454E53 
 7821      4F525F41 
 7821      43544956 
 7822              	.LASF149:
 7823 0819 6F64725F 		.ascii	"odr_units\000"
 7823      756E6974 
 7823      7300
ARM GAS  C:\Users\ADMINI~1\AppData\Local\Temp\ccjTNAQQ.s 			page 179


 7824              	.LASF220:
 7825 0823 646D705F 		.ascii	"dmp_set_data_output_control1\000"
 7825      7365745F 
 7825      64617461 
 7825      5F6F7574 
 7825      7075745F 
 7826              	.LASF67:
 7827 0840 414E4452 		.ascii	"ANDROID_SENSOR_PRESSURE\000"
 7827      4F49445F 
 7827      53454E53 
 7827      4F525F50 
 7827      52455353 
 7828              	.LASF228:
 7829 0858 696E765F 		.ascii	"inv_wakeup_mems\000"
 7829      77616B65 
 7829      75705F6D 
 7829      656D7300 
 7830              	.LASF122:
 7831 0868 4D696E44 		.ascii	"MinDelayT\000"
 7831      656C6179 
 7831      5400
 7832              	.LASF207:
 7833 0872 696E765F 		.ascii	"inv_get_gyro_divider\000"
 7833      6765745F 
 7833      6779726F 
 7833      5F646976 
 7833      69646572 
 7834              	.LASF175:
 7835 0887 6D696E44 		.ascii	"minDly_gyro\000"
 7835      6C795F67 
 7835      79726F00 
 7836              	.LASF12:
 7837 0893 63686172 		.ascii	"char\000"
 7837      00
 7838              	.LASF142:
 7839 0898 7065645F 		.ascii	"ped_int_status\000"
 7839      696E745F 
 7839      73746174 
 7839      757300
 7840              	.LASF134:
 7841 08a7 73656E5F 		.ascii	"sen_num_2_ctrl\000"
 7841      6E756D5F 
 7841      325F6374 
 7841      726C00
 7842              	.LASF37:
 7843 08b6 494E565F 		.ascii	"INV_SENSOR_WAKEUP_COMPASS\000"
 7843      53454E53 
 7843      4F525F57 
 7843      414B4555 
 7843      505F434F 
 7844              	.LASF86:
 7845 08d0 414E4452 		.ascii	"ANDROID_SENSOR_WAKEUP_ORIENTATION\000"
 7845      4F49445F 
 7845      53454E53 
 7845      4F525F57 
 7845      414B4555 
 7846              	.LASF145:
ARM GAS  C:\Users\ADMINI~1\AppData\Local\Temp\ccjTNAQQ.s 			page 180


 7847 08f2 456C656D 		.ascii	"Element\000"
 7847      656E7400 
 7848              	.LASF155:
 7849 08fa 696E765F 		.ascii	"inv_enable_batch\000"
 7849      656E6162 
 7849      6C655F62 
 7849      61746368 
 7849      00
 7850              	.LASF123:
 7851 090b 4D696E44 		.ascii	"MinDelay\000"
 7851      656C6179 
 7851      00
 7852              	.LASF96:
 7853 0914 414E4452 		.ascii	"ANDROID_SENSOR_WAKEUP_GAME_ROTATION_VECTOR\000"
 7853      4F49445F 
 7853      53454E53 
 7853      4F525F57 
 7853      414B4555 
 7854              	.LASF13:
 7855 093f 75696E74 		.ascii	"uint8_t\000"
 7855      385F7400 
 7856              	.LASF40:
 7857 0947 494E565F 		.ascii	"INV_SENSOR_WAKEUP_NINEQ\000"
 7857      53454E53 
 7857      4F525F57 
 7857      414B4555 
 7857      505F4E49 
 7858              	.LASF186:
 7859 095f 6232735F 		.ascii	"b2s_status\000"
 7859      73746174 
 7859      757300
 7860              	.LASF182:
 7861 096a 696E765F 		.ascii	"inv_dmp_odr_dividers\000"
 7861      646D705F 
 7861      6F64725F 
 7861      64697669 
 7861      64657273 
 7862              	.LASF95:
 7863 097f 414E4452 		.ascii	"ANDROID_SENSOR_WAKEUP_MAGNETIC_FIELD_UNCALIBRATED\000"
 7863      4F49445F 
 7863      53454E53 
 7863      4F525F57 
 7863      414B4555 
 7864              	.LASF178:
 7865 09b1 696E765F 		.ascii	"inv_set_odr\000"
 7865      7365745F 
 7865      6F647200 
 7866              	.LASF197:
 7867 09bd 4D696E44 		.ascii	"MinDelayGenGyro2List\000"
 7867      656C6179 
 7867      47656E47 
 7867      79726F32 
 7867      4C697374 
 7868              	.LASF202:
 7869 09d2 696E765F 		.ascii	"inv_androidSensor_enabled\000"
 7869      616E6472 
 7869      6F696453 
ARM GAS  C:\Users\ADMINI~1\AppData\Local\Temp\ccjTNAQQ.s 			page 181


 7869      656E736F 
 7869      725F656E 
 7870              	.LASF54:
 7871 09ec 494E565F 		.ascii	"INV_SENSORS\000"
 7871      53454E53 
 7871      4F525300 
 7872              	.LASF115:
 7873 09f8 4F44525F 		.ascii	"ODR_IN_Ticks\000"
 7873      494E5F54 
 7873      69636B73 
 7873      00
 7874              	.LASF43:
 7875 0a05 494E565F 		.ascii	"INV_SENSOR_WAKEUP_PRESSURE\000"
 7875      53454E53 
 7875      4F525F57 
 7875      414B4555 
 7875      505F5052 
 7876              	.LASF9:
 7877 0a20 6C6F6E67 		.ascii	"long long int\000"
 7877      206C6F6E 
 7877      6720696E 
 7877      7400
 7878              	.LASF129:
 7879 0a2e 696E765F 		.ascii	"inv_enable_tilt\000"
 7879      656E6162 
 7879      6C655F74 
 7879      696C7400 
 7880              	.LASF159:
 7881 0a3e 62617463 		.ascii	"batch_time_in_seconds\000"
 7881      685F7469 
 7881      6D655F69 
 7881      6E5F7365 
 7881      636F6E64 
 7882              	.LASF217:
 7883 0a54 696E765F 		.ascii	"inv_mems_prevent_lpen_control\000"
 7883      6D656D73 
 7883      5F707265 
 7883      76656E74 
 7883      5F6C7065 
 7884              	.LASF164:
 7885 0a72 696E765F 		.ascii	"inv_get_activitiy_classifier_on_flag\000"
 7885      6765745F 
 7885      61637469 
 7885      76697469 
 7885      795F636C 
 7886              	.LASF108:
 7887 0a97 53454C46 		.ascii	"SELF_TEST\000"
 7887      5F544553 
 7887      5400
 7888              	.LASF226:
 7889 0aa1 646D705F 		.ascii	"dmp_get_pedometer_get_all_steps\000"
 7889      6765745F 
 7889      7065646F 
 7889      6D657465 
 7889      725F6765 
 7890              	.LASF94:
 7891 0ac1 414E4452 		.ascii	"ANDROID_SENSOR_WAKEUP_AMBIENT_TEMPERATURE\000"
ARM GAS  C:\Users\ADMINI~1\AppData\Local\Temp\ccjTNAQQ.s 			page 182


 7891      4F49445F 
 7891      53454E53 
 7891      4F525F57 
 7891      414B4555 
 7892              	.LASF29:
 7893 0aeb 494E565F 		.ascii	"INV_SENSOR_FLIP_PICKUP\000"
 7893      53454E53 
 7893      4F525F46 
 7893      4C49505F 
 7893      5049434B 
 7894              	.LASF90:
 7895 0b02 414E4452 		.ascii	"ANDROID_SENSOR_WAKEUP_GRAVITY\000"
 7895      4F49445F 
 7895      53454E53 
 7895      4F525F57 
 7895      414B4555 
 7896              	.LASF172:
 7897 0b20 696E765F 		.ascii	"inv_set_hw_smplrt_dmp_odrs\000"
 7897      7365745F 
 7897      68775F73 
 7897      6D706C72 
 7897      745F646D 
 7898              	.LASF212:
 7899 0b3b 646D705F 		.ascii	"dmp_set_accel_cal_params\000"
 7899      7365745F 
 7899      61636365 
 7899      6C5F6361 
 7899      6C5F7061 
 7900              	.LASF173:
 7901 0b54 6D696E44 		.ascii	"minDly\000"
 7901      6C7900
 7902              	.LASF204:
 7903 0b5b 696E765F 		.ascii	"inv_get_odr_in_units\000"
 7903      6765745F 
 7903      6F64725F 
 7903      696E5F75 
 7903      6E697473 
 7904              	.LASF201:
 7905 0b70 73426174 		.ascii	"sBatchMode\000"
 7905      63684D6F 
 7905      646500
 7906              	.LASF216:
 7907 0b7b 696E765F 		.ascii	"inv_set_gyro_sf\000"
 7907      7365745F 
 7907      6779726F 
 7907      5F736600 
 7908              	.LASF154:
 7909 0b8b 696E765F 		.ascii	"inv_get_odr\000"
 7909      6765745F 
 7909      6F647200 
 7910              	.LASF25:
 7911 0b97 494E565F 		.ascii	"INV_SENSOR_CALIB_GYRO\000"
 7911      53454E53 
 7911      4F525F43 
 7911      414C4942 
 7911      5F475952 
 7912              	.LASF70:
ARM GAS  C:\Users\ADMINI~1\AppData\Local\Temp\ccjTNAQQ.s 			page 183


 7913 0bad 414E4452 		.ascii	"ANDROID_SENSOR_GRAVITY\000"
 7913      4F49445F 
 7913      53454E53 
 7913      4F525F47 
 7913      52415649 
 7914              	.LASF104:
 7915 0bc4 414E4452 		.ascii	"ANDROID_SENSOR_B2S\000"
 7915      4F49445F 
 7915      53454E53 
 7915      4F525F42 
 7915      325300
 7916              	.LASF171:
 7917 0bd7 6765744D 		.ascii	"getMinDlyGyro\000"
 7917      696E446C 
 7917      79477972 
 7917      6F00
 7918              	.LASF97:
 7919 0be5 414E4452 		.ascii	"ANDROID_SENSOR_WAKEUP_GYROSCOPE_UNCALIBRATED\000"
 7919      4F49445F 
 7919      53454E53 
 7919      4F525F57 
 7919      414B4555 
 7920              	.LASF26:
 7921 0c12 494E565F 		.ascii	"INV_SENSOR_CALIB_COMPASS\000"
 7921      53454E53 
 7921      4F525F43 
 7921      414C4942 
 7921      5F434F4D 
 7922              	.LASF192:
 7923 0c2b 4D696E44 		.ascii	"MinDelayGenGyroList\000"
 7923      656C6179 
 7923      47656E47 
 7923      79726F4C 
 7923      69737400 
 7924              	.LASF222:
 7925 0c3f 646D705F 		.ascii	"dmp_set_motion_event_control\000"
 7925      7365745F 
 7925      6D6F7469 
 7925      6F6E5F65 
 7925      76656E74 
 7926              	.LASF63:
 7927 0c5c 414E4452 		.ascii	"ANDROID_SENSOR_GEOMAGNETIC_FIELD\000"
 7927      4F49445F 
 7927      53454E53 
 7927      4F525F47 
 7927      454F4D41 
 7928              	.LASF148:
 7929 0c7d 53656E73 		.ascii	"SensorId\000"
 7929      6F724964 
 7929      00
 7930              	.LASF210:
 7931 0c86 646D705F 		.ascii	"dmp_set_accel_feedback_gain\000"
 7931      7365745F 
 7931      61636365 
 7931      6C5F6665 
 7931      65646261 
 7932              	.LASF168:
ARM GAS  C:\Users\ADMINI~1\AppData\Local\Temp\ccjTNAQQ.s 			page 184


 7933 0ca2 696E765F 		.ascii	"inv_set_accel_cal_params\000"
 7933      7365745F 
 7933      61636365 
 7933      6C5F6361 
 7933      6C5F7061 
 7934              	.LASF118:
 7935 0cbb 6C6F6E67 		.ascii	"long double\000"
 7935      20646F75 
 7935      626C6500 
 7936              	.LASF15:
 7937 0cc7 494E565F 		.ascii	"INV_SENSOR_ACCEL\000"
 7937      53454E53 
 7937      4F525F41 
 7937      4343454C 
 7937      00
 7938              	.LASF114:
 7939 0cd8 4F44525F 		.ascii	"ODR_IN_Us\000"
 7939      494E5F55 
 7939      7300
 7940              	.LASF101:
 7941 0ce2 414E4452 		.ascii	"ANDROID_SENSOR_WAKEUP_HEART_RATE\000"
 7941      4F49445F 
 7941      53454E53 
 7941      4F525F57 
 7941      414B4555 
 7942              	.LASF80:
 7943 0d03 414E4452 		.ascii	"ANDROID_SENSOR_STEP_COUNTER\000"
 7943      4F49445F 
 7943      53454E53 
 7943      4F525F53 
 7943      5445505F 
 7944              	.LASF31:
 7945 0d1f 494E565F 		.ascii	"INV_SENSOR_SIXQ_accel\000"
 7945      53454E53 
 7945      4F525F53 
 7945      4958515F 
 7945      61636365 
 7946              	.LASF3:
 7947 0d35 73686F72 		.ascii	"short int\000"
 7947      7420696E 
 7947      7400
 7948              	.LASF174:
 7949 0d3f 6D696E44 		.ascii	"minDly_accel\000"
 7949      6C795F61 
 7949      6363656C 
 7949      00
 7950              	.LASF78:
 7951 0d4c 414E4452 		.ascii	"ANDROID_SENSOR_WAKEUP_SIGNIFICANT_MOTION\000"
 7951      4F49445F 
 7951      53454E53 
 7951      4F525F57 
 7951      414B4555 
 7952              	.LASF51:
 7953 0d75 494E565F 		.ascii	"INV_SENSOR_WAKEUP_NINEQ_cpass\000"
 7953      53454E53 
 7953      4F525F57 
 7953      414B4555 
ARM GAS  C:\Users\ADMINI~1\AppData\Local\Temp\ccjTNAQQ.s 			page 185


 7953      505F4E49 
 7954              	.LASF103:
 7955 0d93 414E4452 		.ascii	"ANDROID_SENSOR_NUM_MAX\000"
 7955      4F49445F 
 7955      53454E53 
 7955      4F525F4E 
 7955      554D5F4D 
 7956              	.LASF5:
 7957 0daa 6C6F6E67 		.ascii	"long int\000"
 7957      20696E74 
 7957      00
 7958              	.LASF221:
 7959 0db3 646D705F 		.ascii	"dmp_set_data_interrupt_control\000"
 7959      7365745F 
 7959      64617461 
 7959      5F696E74 
 7959      65727275 
 7960              	.LASF91:
 7961 0dd2 414E4452 		.ascii	"ANDROID_SENSOR_WAKEUP_LINEAR_ACCELERATION\000"
 7961      4F49445F 
 7961      53454E53 
 7961      4F525F57 
 7961      414B4555 
 7962              	.LASF68:
 7963 0dfc 414E4452 		.ascii	"ANDROID_SENSOR_TEMPERATURE\000"
 7963      4F49445F 
 7963      53454E53 
 7963      4F525F54 
 7963      454D5045 
 7964              	.LASF50:
 7965 0e17 494E565F 		.ascii	"INV_SENSOR_WAKEUP_GEOMAG_cpass\000"
 7965      53454E53 
 7965      4F525F57 
 7965      414B4555 
 7965      505F4745 
 7966              	.LASF81:
 7967 0e36 414E4452 		.ascii	"ANDROID_SENSOR_GEOMAGNETIC_ROTATION_VECTOR\000"
 7967      4F49445F 
 7967      53454E53 
 7967      4F525F47 
 7967      454F4D41 
 7968              	.LASF62:
 7969 0e61 414E4452 		.ascii	"ANDROID_SENSOR_ACCELEROMETER\000"
 7969      4F49445F 
 7969      53454E53 
 7969      4F525F41 
 7969      4343454C 
 7970              	.LASF189:
 7971 0e7e 696E765F 		.ascii	"inv_sensor_control2\000"
 7971      73656E73 
 7971      6F725F63 
 7971      6F6E7472 
 7971      6F6C3200 
 7972              	.LASF181:
 7973 0e92 696E765F 		.ascii	"inv_enable_pickup\000"
 7973      656E6162 
 7973      6C655F70 
ARM GAS  C:\Users\ADMINI~1\AppData\Local\Temp\ccjTNAQQ.s 			page 186


 7973      69636B75 
 7973      7000
 7974              	.LASF190:
 7975 0ea4 696E765F 		.ascii	"inv_androidSensorsOn_mask\000"
 7975      616E6472 
 7975      6F696453 
 7975      656E736F 
 7975      72734F6E 
 7976              	.LASF219:
 7977 0ebe 646D705F 		.ascii	"dmp_reset_pickup\000"
 7977      72657365 
 7977      745F7069 
 7977      636B7570 
 7977      00
 7978              	.LASF143:
 7979 0ecf 64617461 		.ascii	"data_rdy_status\000"
 7979      5F726479 
 7979      5F737461 
 7979      74757300 
 7980              	.LASF28:
 7981 0edf 494E565F 		.ascii	"INV_SENSOR_ACTIVITY_CLASSIFIER\000"
 7981      53454E53 
 7981      4F525F41 
 7981      43544956 
 7981      4954595F 
 7982              	.LASF49:
 7983 0efe 494E565F 		.ascii	"INV_SENSOR_WAKEUP_NINEQ_accel\000"
 7983      53454E53 
 7983      4F525F57 
 7983      414B4555 
 7983      505F4E49 
 7984              	.LASF6:
 7985 0f1c 5F5F7569 		.ascii	"__uint8_t\000"
 7985      6E74385F 
 7985      7400
 7986              	.LASF53:
 7987 0f26 494E565F 		.ascii	"INV_SENSOR_INVALID\000"
 7987      53454E53 
 7987      4F525F49 
 7987      4E56414C 
 7987      494400
 7988              	.LASF213:
 7989 0f39 696E765F 		.ascii	"inv_set_accel_divider\000"
 7989      7365745F 
 7989      61636365 
 7989      6C5F6469 
 7989      76696465 
 7990              	.LASF121:
 7991 0f4f 4D696E44 		.ascii	"MinDelayGenElementT\000"
 7991      656C6179 
 7991      47656E45 
 7991      6C656D65 
 7991      6E745400 
 7992              	.LASF200:
 7993 0f63 4D696E44 		.ascii	"MinDelayGenGyro5List\000"
 7993      656C6179 
 7993      47656E47 
ARM GAS  C:\Users\ADMINI~1\AppData\Local\Temp\ccjTNAQQ.s 			page 187


 7993      79726F35 
 7993      4C697374 
 7994              	.LASF218:
 7995 0f78 696E765F 		.ascii	"inv_mems_allow_lpen_control\000"
 7995      6D656D73 
 7995      5F616C6C 
 7995      6F775F6C 
 7995      70656E5F 
 7996              	.LASF205:
 7997 0f94 646D705F 		.ascii	"dmp_set_tilt_enable\000"
 7997      7365745F 
 7997      74696C74 
 7997      5F656E61 
 7997      626C6500 
 7998              	.LASF196:
 7999 0fa8 4D696E44 		.ascii	"MinDelayGenAccel5List\000"
 7999      656C6179 
 7999      47656E41 
 7999      6363656C 
 7999      354C6973 
 8000              	.LASF11:
 8001 0fbe 73697A65 		.ascii	"sizetype\000"
 8001      74797065 
 8001      00
 8002              	.LASF8:
 8003 0fc7 6C6F6E67 		.ascii	"long unsigned int\000"
 8003      20756E73 
 8003      69676E65 
 8003      6420696E 
 8003      7400
 8004              	.LASF151:
 8005 0fd9 746D705F 		.ascii	"tmp_androidSensorsOn_mask\000"
 8005      616E6472 
 8005      6F696453 
 8005      656E736F 
 8005      72734F6E 
 8006              	.LASF59:
 8007 0ff3 4E554D5F 		.ascii	"NUM_ACCEL_CAL_PARAMS\000"
 8007      41434345 
 8007      4C5F4341 
 8007      4C5F5041 
 8007      52414D53 
 8008              	.LASF208:
 8009 1008 696E765F 		.ascii	"inv_get_accel_divider\000"
 8009      6765745F 
 8009      61636365 
 8009      6C5F6469 
 8009      76696465 
 8010              	.LASF55:
 8011 101e 61636365 		.ascii	"accel_cal_params\000"
 8011      6C5F6361 
 8011      6C5F7061 
 8011      72616D73 
 8011      00
 8012              	.LASF215:
 8013 102f 696E765F 		.ascii	"inv_get_gyro_fullscale\000"
 8013      6765745F 
ARM GAS  C:\Users\ADMINI~1\AppData\Local\Temp\ccjTNAQQ.s 			page 188


 8013      6779726F 
 8013      5F66756C 
 8013      6C736361 
 8014              	.LASF193:
 8015 1046 4D696E44 		.ascii	"MinDelayGenAccel2List\000"
 8015      656C6179 
 8015      47656E41 
 8015      6363656C 
 8015      324C6973 
 8016              	.LASF34:
 8017 105c 494E565F 		.ascii	"INV_SENSOR_NINEQ_cpass\000"
 8017      53454E53 
 8017      4F525F4E 
 8017      494E4551 
 8017      5F637061 
 8018              	.LASF109:
 8019 1073 53455455 		.ascii	"SETUP\000"
 8019      5000
 8020              	.LASF147:
 8021 1079 4F647244 		.ascii	"OdrDelay\000"
 8021      656C6179 
 8021      00
 8022              	.LASF124:
 8023 1082 48775361 		.ascii	"HwSampleRateDivider\000"
 8023      6D706C65 
 8023      52617465 
 8023      44697669 
 8023      64657200 
 8024              	.LASF2:
 8025 1096 756E7369 		.ascii	"unsigned char\000"
 8025      676E6564 
 8025      20636861 
 8025      7200
 8026              	.LASF7:
 8027 10a4 5F5F7569 		.ascii	"__uint32_t\000"
 8027      6E743332 
 8027      5F7400
 8028              	.LASF153:
 8029 10af 696E765F 		.ascii	"inv_set_batch_mode_status\000"
 8029      7365745F 
 8029      62617463 
 8029      685F6D6F 
 8029      64655F73 
 8030              	.LASF160:
 8031 10c9 74696D65 		.ascii	"timeout\000"
 8031      6F757400 
 8032              	.LASF132:
 8033 10d1 44656C61 		.ascii	"Delay\000"
 8033      7900
 8034              	.LASF46:
 8035 10d7 494E565F 		.ascii	"INV_SENSOR_WAKEUP_STEP_COUNTER\000"
 8035      53454E53 
 8035      4F525F57 
 8035      414B4555 
 8035      505F5354 
 8036              	.LASF125:
 8037 10f6 52657375 		.ascii	"Result\000"
ARM GAS  C:\Users\ADMINI~1\AppData\Local\Temp\ccjTNAQQ.s 			page 189


 8037      6C7400
 8038              	.LASF102:
 8039 10fd 414E4452 		.ascii	"ANDROID_SENSOR_WAKEUP_TILT_DETECTOR\000"
 8039      4F49445F 
 8039      53454E53 
 8039      4F525F57 
 8039      414B4555 
 8040              	.LASF79:
 8041 1121 414E4452 		.ascii	"ANDROID_SENSOR_STEP_DETECTOR\000"
 8041      4F49445F 
 8041      53454E53 
 8041      4F525F53 
 8041      5445505F 
 8042              	.LASF44:
 8043 113e 494E565F 		.ascii	"INV_SENSOR_WAKEUP_CALIB_GYRO\000"
 8043      53454E53 
 8043      4F525F57 
 8043      414B4555 
 8043      505F4341 
 8044              	.LASF183:
 8045 115b 696E765F 		.ascii	"inv_dmp_odr_delays\000"
 8045      646D705F 
 8045      6F64725F 
 8045      64656C61 
 8045      797300
 8046              	.LASF32:
 8047 116e 494E565F 		.ascii	"INV_SENSOR_NINEQ_accel\000"
 8047      53454E53 
 8047      4F525F4E 
 8047      494E4551 
 8047      5F616363 
 8048              	.LASF231:
 8049 1185 433A5C44 		.ascii	"C:\\Dropbox\\Projects\\George Posture Correction Pr"
 8049      726F7062 
 8049      6F785C50 
 8049      726F6A65 
 8049      6374735C 
 8050 11b5 6F6A6563 		.ascii	"oject\\BackBone\\BackBone_Bootloadable.cydsn\000"
 8050      745C4261 
 8050      636B426F 
 8050      6E655C42 
 8050      61636B42 
 8051              	.LASF20:
 8052 11e0 494E565F 		.ascii	"INV_SENSOR_SIXQ\000"
 8052      53454E53 
 8052      4F525F53 
 8052      49585100 
 8053              	.LASF24:
 8054 11f0 494E565F 		.ascii	"INV_SENSOR_PRESSURE\000"
 8054      53454E53 
 8054      4F525F50 
 8054      52455353 
 8054      55524500 
 8055              	.LASF138:
 8056 1204 6D656D73 		.ascii	"mems_put_to_sleep\000"
 8056      5F707574 
 8056      5F746F5F 
ARM GAS  C:\Users\ADMINI~1\AppData\Local\Temp\ccjTNAQQ.s 			page 190


 8056      736C6565 
 8056      7000
 8057              	.LASF223:
 8058 1216 696E765F 		.ascii	"inv_sleep_mems\000"
 8058      736C6565 
 8058      705F6D65 
 8058      6D7300
 8059              	.LASF74:
 8060 1225 414E4452 		.ascii	"ANDROID_SENSOR_AMBIENT_TEMPERATURE\000"
 8060      4F49445F 
 8060      53454E53 
 8060      4F525F41 
 8060      4D424945 
 8061              	.LASF56:
 8062 1248 41434345 		.ascii	"ACCEL_CAL_ALPHA_VAR\000"
 8062      4C5F4341 
 8062      4C5F414C 
 8062      5048415F 
 8062      56415200 
 8063              	.LASF1:
 8064 125c 7369676E 		.ascii	"signed char\000"
 8064      65642063 
 8064      68617200 
 8065              	.LASF166:
 8066 1268 68775F73 		.ascii	"hw_smplrt_divider\000"
 8066      6D706C72 
 8066      745F6469 
 8066      76696465 
 8066      7200
 8067              	.LASF16:
 8068 127a 494E565F 		.ascii	"INV_SENSOR_GYRO\000"
 8068      53454E53 
 8068      4F525F47 
 8068      59524F00 
 8069              	.LASF136:
 8070 128a 64656C74 		.ascii	"delta\000"
 8070      6100
 8071              	.LASF4:
 8072 1290 73686F72 		.ascii	"short unsigned int\000"
 8072      7420756E 
 8072      7369676E 
 8072      65642069 
 8072      6E7400
 8073              	.LASF169:
 8074 12a3 6765744D 		.ascii	"getMinDlyAccel\000"
 8074      696E446C 
 8074      79416363 
 8074      656C00
 8075              	.LASF83:
 8076 12b2 414E4452 		.ascii	"ANDROID_SENSOR_PROXIMITY\000"
 8076      4F49445F 
 8076      53454E53 
 8076      4F525F50 
 8076      524F5849 
 8077              	.LASF21:
 8078 12cb 494E565F 		.ascii	"INV_SENSOR_NINEQ\000"
 8078      53454E53 
ARM GAS  C:\Users\ADMINI~1\AppData\Local\Temp\ccjTNAQQ.s 			page 191


 8078      4F525F4E 
 8078      494E4551 
 8078      00
 8079              	.LASF57:
 8080 12dc 41434345 		.ascii	"ACCEL_CAL_A_VAR\000"
 8080      4C5F4341 
 8080      4C5F415F 
 8080      56415200 
 8081              	.LASF137:
 8082 12ec 696E765F 		.ascii	"inv_enable_sensor_internal\000"
 8082      656E6162 
 8082      6C655F73 
 8082      656E736F 
 8082      725F696E 
 8083              	.LASF116:
 8084 1307 646F7562 		.ascii	"double\000"
 8084      6C6500
 8085              	.LASF209:
 8086 130e 646D705F 		.ascii	"dmp_set_batchmode_params\000"
 8086      7365745F 
 8086      62617463 
 8086      686D6F64 
 8086      655F7061 
 8087              	.LASF152:
 8088 1327 696E765F 		.ascii	"inv_reGenerate_sensorControl\000"
 8088      72654765 
 8088      6E657261 
 8088      74655F73 
 8088      656E736F 
 8089              	.LASF17:
 8090 1344 494E565F 		.ascii	"INV_SENSOR_LPQ\000"
 8090      53454E53 
 8090      4F525F4C 
 8090      505100
 8091              	.LASF165:
 8092 1353 696E765F 		.ascii	"inv_set_accel_quaternion_gain\000"
 8092      7365745F 
 8092      61636365 
 8092      6C5F7175 
 8092      61746572 
 8093              	.LASF140:
 8094 1371 696E765F 		.ascii	"inv_event_control\000"
 8094      6576656E 
 8094      745F636F 
 8094      6E74726F 
 8094      6C00
 8095              	.LASF72:
 8096 1383 414E4452 		.ascii	"ANDROID_SENSOR_ROTATION_VECTOR\000"
 8096      4F49445F 
 8096      53454E53 
 8096      4F525F52 
 8096      4F544154 
 8097              	.LASF27:
 8098 13a2 494E565F 		.ascii	"INV_SENSOR_STEP_COUNTER\000"
 8098      53454E53 
 8098      4F525F53 
 8098      5445505F 
ARM GAS  C:\Users\ADMINI~1\AppData\Local\Temp\ccjTNAQQ.s 			page 192


 8098      434F554E 
 8099              	.LASF71:
 8100 13ba 414E4452 		.ascii	"ANDROID_SENSOR_LINEAR_ACCELERATION\000"
 8100      4F49445F 
 8100      53454E53 
 8100      4F525F4C 
 8100      494E4541 
 8101              	.LASF22:
 8102 13dd 494E565F 		.ascii	"INV_SENSOR_GEOMAG\000"
 8102      53454E53 
 8102      4F525F47 
 8102      454F4D41 
 8102      4700
 8103              	.LASF65:
 8104 13ef 414E4452 		.ascii	"ANDROID_SENSOR_GYROSCOPE\000"
 8104      4F49445F 
 8104      53454E53 
 8104      4F525F47 
 8104      59524F53 
 8105              	.LASF233:
 8106 1408 4D696E44 		.ascii	"MinDelayGenActual\000"
 8106      656C6179 
 8106      47656E41 
 8106      63747561 
 8106      6C00
 8107              	.LASF48:
 8108 141a 494E565F 		.ascii	"INV_SENSOR_WAKEUP_SIXQ_accel\000"
 8108      53454E53 
 8108      4F525F57 
 8108      414B4555 
 8108      505F5349 
 8109              	.LASF135:
 8110 1437 73656E73 		.ascii	"sensor_control\000"
 8110      6F725F63 
 8110      6F6E7472 
 8110      6F6C00
 8111              	.LASF39:
 8112 1446 494E565F 		.ascii	"INV_SENSOR_WAKEUP_SIXQ\000"
 8112      53454E53 
 8112      4F525F57 
 8112      414B4555 
 8112      505F5349 
 8113              	.LASF85:
 8114 145d 414E4452 		.ascii	"ANDROID_SENSOR_WAKEUP_MAGNETIC_FIELD\000"
 8114      4F49445F 
 8114      53454E53 
 8114      4F525F57 
 8114      414B4555 
 8115              	.LASF227:
 8116 1482 696E765F 		.ascii	"inv_set_dmp_stepcounter_update_offset\000"
 8116      7365745F 
 8116      646D705F 
 8116      73746570 
 8116      636F756E 
 8117              		.ident	"GCC: (GNU Tools for ARM Embedded Processors) 4.9.3 20150303 (release) [ARM/embedded-4_9-br
