ARM GAS  C:\Users\ADMINI~1\AppData\Local\Temp\ccBS4ngB.s 			page 1


   1              		.cpu cortex-m0
   2              		.fpu softvfp
   3              		.eabi_attribute 20, 1
   4              		.eabi_attribute 21, 1
   5              		.eabi_attribute 23, 3
   6              		.eabi_attribute 24, 1
   7              		.eabi_attribute 25, 1
   8              		.eabi_attribute 26, 1
   9              		.eabi_attribute 30, 4
  10              		.eabi_attribute 34, 0
  11              		.eabi_attribute 18, 4
  12              		.code	16
  13              		.file	"inv_mems_augmented_sensors.c"
  14              		.text
  15              	.Ltext0:
  16              		.cfi_sections	.debug_frame
  17              		.section	.text.inv_mems_augmented_sensors_get_gravity,"ax",%progbits
  18              		.align	1
  19              		.global	inv_mems_augmented_sensors_get_gravity
  20              		.code	16
  21              		.thumb_func
  22              		.type	inv_mems_augmented_sensors_get_gravity, %function
  23              	inv_mems_augmented_sensors_get_gravity:
  24              	.LFB4:
  25              		.file 1 ".\\20648_driver\\drivers\\inv_mems_augmented_sensors.c"
   1:.\20648_driver\drivers/inv_mems_augmented_sensors.c **** /*
   2:.\20648_driver\drivers/inv_mems_augmented_sensors.c **** * _________________________________________________________________________________________________
   3:.\20648_driver\drivers/inv_mems_augmented_sensors.c **** * Copyright © 2014-2015 InvenSense Inc. Portions Copyright © 2014-2015 Movea. All rights reserved.
   4:.\20648_driver\drivers/inv_mems_augmented_sensors.c **** * This software, related documentation and any modifications thereto (collectively “Software”) is s
   5:.\20648_driver\drivers/inv_mems_augmented_sensors.c **** * to InvenSense and its licensors' intellectual property rights under U.S. and international copyri
   6:.\20648_driver\drivers/inv_mems_augmented_sensors.c **** * other intellectual property rights laws.
   7:.\20648_driver\drivers/inv_mems_augmented_sensors.c **** * InvenSense and its licensors retain all intellectual property and proprietary rights in and to th
   8:.\20648_driver\drivers/inv_mems_augmented_sensors.c **** * and any use, reproduction, disclosure or distribution of the Software without an express license
   9:.\20648_driver\drivers/inv_mems_augmented_sensors.c **** * agreement from InvenSense is strictly prohibited.
  10:.\20648_driver\drivers/inv_mems_augmented_sensors.c **** * _________________________________________________________________________________________________
  11:.\20648_driver\drivers/inv_mems_augmented_sensors.c **** */
  12:.\20648_driver\drivers/inv_mems_augmented_sensors.c **** 
  13:.\20648_driver\drivers/inv_mems_augmented_sensors.c **** #include ".\20648_driver\drivers\inv_mems_augmented_sensors.h"
  14:.\20648_driver\drivers/inv_mems_augmented_sensors.c **** 
  15:.\20648_driver\drivers/inv_mems_augmented_sensors.c **** #ifndef MEMS_20609
  16:.\20648_driver\drivers/inv_mems_augmented_sensors.c **** #include ".\20648_driver\drivers\inv_mems_base_control.h"
  17:.\20648_driver\drivers/inv_mems_augmented_sensors.c **** #else
  18:.\20648_driver\drivers/inv_mems_augmented_sensors.c **** #include "driver/inv_mems_base_control_20609.h"
  19:.\20648_driver\drivers/inv_mems_augmented_sensors.c **** #endif
  20:.\20648_driver\drivers/inv_mems_augmented_sensors.c **** 
  21:.\20648_driver\drivers/inv_mems_augmented_sensors.c **** #include ".\20648_driver\invn\mlmath.h"
  22:.\20648_driver\drivers/inv_mems_augmented_sensors.c **** #include ".\20648_driver\invn\ml_math_func.h"
  23:.\20648_driver\drivers/inv_mems_augmented_sensors.c **** 
  24:.\20648_driver\drivers/inv_mems_augmented_sensors.c **** // ODR expected for gravity-based sensors
  25:.\20648_driver\drivers/inv_mems_augmented_sensors.c **** static unsigned short sGravityOdrMs = 0xFFFF;
  26:.\20648_driver\drivers/inv_mems_augmented_sensors.c **** static unsigned short sGrvOdrMs = 0xFFFF;
  27:.\20648_driver\drivers/inv_mems_augmented_sensors.c **** static unsigned short sLinAccOdrMs = 0xFFFF;
  28:.\20648_driver\drivers/inv_mems_augmented_sensors.c **** static unsigned short sGravityWuOdrMs = 0xFFFF;
  29:.\20648_driver\drivers/inv_mems_augmented_sensors.c **** static unsigned short sGrvWuOdrMs = 0xFFFF;
  30:.\20648_driver\drivers/inv_mems_augmented_sensors.c **** static unsigned short sLinAccWuOdrMs = 0xFFFF;
  31:.\20648_driver\drivers/inv_mems_augmented_sensors.c **** 
  32:.\20648_driver\drivers/inv_mems_augmented_sensors.c **** // ODR expected for rotation vector-based sensors
ARM GAS  C:\Users\ADMINI~1\AppData\Local\Temp\ccBS4ngB.s 			page 2


  33:.\20648_driver\drivers/inv_mems_augmented_sensors.c **** static unsigned short sRvOdrMs = 0xFFFF;
  34:.\20648_driver\drivers/inv_mems_augmented_sensors.c **** static unsigned short sOriOdrMs = 0xFFFF;
  35:.\20648_driver\drivers/inv_mems_augmented_sensors.c **** static unsigned short sRvWuOdrMs = 0xFFFF;
  36:.\20648_driver\drivers/inv_mems_augmented_sensors.c **** static unsigned short sOriWuOdrMs = 0xFFFF;
  37:.\20648_driver\drivers/inv_mems_augmented_sensors.c **** 
  38:.\20648_driver\drivers/inv_mems_augmented_sensors.c **** // Determine the fastest ODR for all gravity-based sensors
  39:.\20648_driver\drivers/inv_mems_augmented_sensors.c **** #define AUGMENTED_SENSOR_GET_6QUAT_MIN_ODR(newOdr) \
  40:.\20648_driver\drivers/inv_mems_augmented_sensors.c **** 	if	(inv_androidSensor_enabled	(ANDROID_SENSOR_GRAVITY)) \
  41:.\20648_driver\drivers/inv_mems_augmented_sensors.c **** 		newOdr = MIN(sGravityOdrMs,newOdr); \
  42:.\20648_driver\drivers/inv_mems_augmented_sensors.c **** 	if	(inv_androidSensor_enabled	(ANDROID_SENSOR_GAME_ROTATION_VECTOR)) \
  43:.\20648_driver\drivers/inv_mems_augmented_sensors.c **** 		newOdr = MIN(sGrvOdrMs,newOdr);  \
  44:.\20648_driver\drivers/inv_mems_augmented_sensors.c **** 	if	(inv_androidSensor_enabled	(ANDROID_SENSOR_LINEAR_ACCELERATION)) \
  45:.\20648_driver\drivers/inv_mems_augmented_sensors.c **** 		newOdr = MIN(sLinAccOdrMs,newOdr);
  46:.\20648_driver\drivers/inv_mems_augmented_sensors.c **** #define AUGMENTED_SENSOR_GET_6QUATWU_MIN_ODR(newOdr) \
  47:.\20648_driver\drivers/inv_mems_augmented_sensors.c **** 	if	(inv_androidSensor_enabled	(ANDROID_SENSOR_WAKEUP_GRAVITY)) \
  48:.\20648_driver\drivers/inv_mems_augmented_sensors.c **** 		newOdr = MIN(sGravityWuOdrMs,newOdr); \
  49:.\20648_driver\drivers/inv_mems_augmented_sensors.c **** 	if	(inv_androidSensor_enabled	(ANDROID_SENSOR_WAKEUP_GAME_ROTATION_VECTOR)) \
  50:.\20648_driver\drivers/inv_mems_augmented_sensors.c **** 		newOdr = MIN(sGrvWuOdrMs,newOdr);  \
  51:.\20648_driver\drivers/inv_mems_augmented_sensors.c **** 	if	(inv_androidSensor_enabled	(ANDROID_SENSOR_WAKEUP_LINEAR_ACCELERATION)) \
  52:.\20648_driver\drivers/inv_mems_augmented_sensors.c **** 		newOdr = MIN(sLinAccWuOdrMs,newOdr);
  53:.\20648_driver\drivers/inv_mems_augmented_sensors.c **** 
  54:.\20648_driver\drivers/inv_mems_augmented_sensors.c **** // Determine the fastest ODR for all rotation vector-based sensors
  55:.\20648_driver\drivers/inv_mems_augmented_sensors.c **** #define AUGMENTED_SENSOR_GET_9QUAT_MIN_ODR(newOdr) \
  56:.\20648_driver\drivers/inv_mems_augmented_sensors.c **** 	if	(inv_androidSensor_enabled	(ANDROID_SENSOR_ORIENTATION)) \
  57:.\20648_driver\drivers/inv_mems_augmented_sensors.c **** 		newOdr = MIN(sOriOdrMs,newOdr); \
  58:.\20648_driver\drivers/inv_mems_augmented_sensors.c **** 	if	(inv_androidSensor_enabled	(ANDROID_SENSOR_ROTATION_VECTOR)) \
  59:.\20648_driver\drivers/inv_mems_augmented_sensors.c **** 		newOdr = MIN(sRvOdrMs,newOdr);
  60:.\20648_driver\drivers/inv_mems_augmented_sensors.c **** #define AUGMENTED_SENSOR_GET_9QUATWU_MIN_ODR(newOdr) \
  61:.\20648_driver\drivers/inv_mems_augmented_sensors.c **** 	if	(inv_androidSensor_enabled	(ANDROID_SENSOR_WAKEUP_ORIENTATION)) \
  62:.\20648_driver\drivers/inv_mems_augmented_sensors.c **** 		newOdr = MIN(sOriWuOdrMs,newOdr); \
  63:.\20648_driver\drivers/inv_mems_augmented_sensors.c **** 	if	(inv_androidSensor_enabled	(ANDROID_SENSOR_WAKEUP_ROTATION_VECTOR)) \
  64:.\20648_driver\drivers/inv_mems_augmented_sensors.c **** 		newOdr = MIN(sRvWuOdrMs,newOdr);
  65:.\20648_driver\drivers/inv_mems_augmented_sensors.c **** 
  66:.\20648_driver\drivers/inv_mems_augmented_sensors.c **** inv_error_t inv_mems_augmented_sensors_get_gravity(long gravity[3], const long quat6axis_3e[3])
  67:.\20648_driver\drivers/inv_mems_augmented_sensors.c **** {
  26              		.loc 1 67 0
  27              		.cfi_startproc
  28              	.LVL0:
  29 0000 30B5     		push	{r4, r5, lr}
  30              		.cfi_def_cfa_offset 12
  31              		.cfi_offset 4, -12
  32              		.cfi_offset 5, -8
  33              		.cfi_offset 14, -4
  34 0002 87B0     		sub	sp, sp, #28
  35              		.cfi_def_cfa_offset 40
  68:.\20648_driver\drivers/inv_mems_augmented_sensors.c ****     long lQuat6axis4e[4];
  69:.\20648_driver\drivers/inv_mems_augmented_sensors.c **** 	unsigned long lConvertgToMS2 = 642689UL; //9.80665f in Q16         
  70:.\20648_driver\drivers/inv_mems_augmented_sensors.c ****     
  71:.\20648_driver\drivers/inv_mems_augmented_sensors.c ****     if(!gravity) return -1;
  36              		.loc 1 71 0
  37 0004 0028     		cmp	r0, #0
  38 0006 4CD0     		beq	.L4
  72:.\20648_driver\drivers/inv_mems_augmented_sensors.c ****     if(!quat6axis_3e) return -1;
  39              		.loc 1 72 0
  40 0008 0029     		cmp	r1, #0
  41 000a 4AD0     		beq	.L4
  42 000c 041C     		mov	r4, r0
ARM GAS  C:\Users\ADMINI~1\AppData\Local\Temp\ccBS4ngB.s 			page 3


  73:.\20648_driver\drivers/inv_mems_augmented_sensors.c ****     
  74:.\20648_driver\drivers/inv_mems_augmented_sensors.c ****     // compute w element
  75:.\20648_driver\drivers/inv_mems_augmented_sensors.c ****     inv_compute_scalar_part(quat6axis_3e, lQuat6axis4e);
  43              		.loc 1 75 0
  44 000e 081C     		mov	r0, r1
  45              	.LVL1:
  46 0010 02A9     		add	r1, sp, #8
  47              	.LVL2:
  48 0012 FFF7FEFF 		bl	inv_compute_scalar_part
  49              	.LVL3:
  76:.\20648_driver\drivers/inv_mems_augmented_sensors.c **** 
  77:.\20648_driver\drivers/inv_mems_augmented_sensors.c ****     gravity[0] = (2 * inv_qfix_mult(lQuat6axis4e[1], lQuat6axis4e[3], 30) - 2 * inv_qfix_mult(lQuat
  50              		.loc 1 77 0
  51 0016 0599     		ldr	r1, [sp, #20]
  52 0018 1E22     		mov	r2, #30
  53 001a 0398     		ldr	r0, [sp, #12]
  54 001c FFF7FEFF 		bl	inv_qfix_mult
  55              	.LVL4:
  56 0020 0499     		ldr	r1, [sp, #16]
  57 0022 051C     		mov	r5, r0
  58 0024 1E22     		mov	r2, #30
  59 0026 0298     		ldr	r0, [sp, #8]
  60 0028 FFF7FEFF 		bl	inv_qfix_mult
  61              	.LVL5:
  62 002c 2D1A     		sub	r5, r5, r0
  63 002e 6D00     		lsl	r5, r5, #1
  64 0030 AD13     		asr	r5, r5, #14
  65 0032 2560     		str	r5, [r4]
  78:.\20648_driver\drivers/inv_mems_augmented_sensors.c ****     gravity[1] = (2 * inv_qfix_mult(lQuat6axis4e[2], lQuat6axis4e[3], 30) + 2 * inv_qfix_mult(lQuat
  66              		.loc 1 78 0
  67 0034 0599     		ldr	r1, [sp, #20]
  68 0036 1E22     		mov	r2, #30
  69 0038 0498     		ldr	r0, [sp, #16]
  70 003a FFF7FEFF 		bl	inv_qfix_mult
  71              	.LVL6:
  72 003e 0399     		ldr	r1, [sp, #12]
  73 0040 051C     		mov	r5, r0
  74 0042 1E22     		mov	r2, #30
  75 0044 0298     		ldr	r0, [sp, #8]
  76 0046 FFF7FEFF 		bl	inv_qfix_mult
  77              	.LVL7:
  78 004a 2818     		add	r0, r5, r0
  79:.\20648_driver\drivers/inv_mems_augmented_sensors.c ****     gravity[2] = ((1 << 30) - 2 * inv_qfix_mult(lQuat6axis4e[1], lQuat6axis4e[1], 30) - 2 * inv_qfi
  79              		.loc 1 79 0
  80 004c 039B     		ldr	r3, [sp, #12]
  78:.\20648_driver\drivers/inv_mems_augmented_sensors.c ****     gravity[1] = (2 * inv_qfix_mult(lQuat6axis4e[2], lQuat6axis4e[3], 30) + 2 * inv_qfix_mult(lQuat
  81              		.loc 1 78 0
  82 004e 4000     		lsl	r0, r0, #1
  83 0050 8013     		asr	r0, r0, #14
  84              		.loc 1 79 0
  85 0052 191C     		mov	r1, r3
  78:.\20648_driver\drivers/inv_mems_augmented_sensors.c ****     gravity[1] = (2 * inv_qfix_mult(lQuat6axis4e[2], lQuat6axis4e[3], 30) + 2 * inv_qfix_mult(lQuat
  86              		.loc 1 78 0
  87 0054 6060     		str	r0, [r4, #4]
  88              		.loc 1 79 0
  89 0056 1E22     		mov	r2, #30
  90 0058 181C     		mov	r0, r3
ARM GAS  C:\Users\ADMINI~1\AppData\Local\Temp\ccBS4ngB.s 			page 4


  91 005a 0193     		str	r3, [sp, #4]
  92 005c FFF7FEFF 		bl	inv_qfix_mult
  93              	.LVL8:
  94 0060 0499     		ldr	r1, [sp, #16]
  95 0062 051C     		mov	r5, r0
  96 0064 1E22     		mov	r2, #30
  97 0066 081C     		mov	r0, r1
  98 0068 FFF7FEFF 		bl	inv_qfix_mult
  99              	.LVL9:
 100 006c 8023     		mov	r3, #128
 101 006e 9B05     		lsl	r3, r3, #22
 102 0070 5B1B     		sub	r3, r3, r5
 103 0072 181A     		sub	r0, r3, r0
 104 0074 4000     		lsl	r0, r0, #1
 105 0076 8013     		asr	r0, r0, #14
 106 0078 A060     		str	r0, [r4, #8]
  80:.\20648_driver\drivers/inv_mems_augmented_sensors.c **** 
  81:.\20648_driver\drivers/inv_mems_augmented_sensors.c **** 	// convert to m/s2
  82:.\20648_driver\drivers/inv_mems_augmented_sensors.c **** 	gravity[0] = inv_qfix_mult(gravity[0], lConvertgToMS2, 16);
 107              		.loc 1 82 0
 108 007a 0C49     		ldr	r1, .L6
 109 007c 1022     		mov	r2, #16
 110 007e 2068     		ldr	r0, [r4]
 111 0080 FFF7FEFF 		bl	inv_qfix_mult
 112              	.LVL10:
  83:.\20648_driver\drivers/inv_mems_augmented_sensors.c **** 	gravity[1] = inv_qfix_mult(gravity[1], lConvertgToMS2, 16);
 113              		.loc 1 83 0
 114 0084 0949     		ldr	r1, .L6
  82:.\20648_driver\drivers/inv_mems_augmented_sensors.c **** 	gravity[1] = inv_qfix_mult(gravity[1], lConvertgToMS2, 16);
 115              		.loc 1 82 0
 116 0086 2060     		str	r0, [r4]
 117              		.loc 1 83 0
 118 0088 1022     		mov	r2, #16
 119 008a 6068     		ldr	r0, [r4, #4]
 120 008c FFF7FEFF 		bl	inv_qfix_mult
 121              	.LVL11:
  84:.\20648_driver\drivers/inv_mems_augmented_sensors.c **** 	gravity[2] = inv_qfix_mult(gravity[2], lConvertgToMS2, 16);    
 122              		.loc 1 84 0
 123 0090 0649     		ldr	r1, .L6
  83:.\20648_driver\drivers/inv_mems_augmented_sensors.c **** 	gravity[1] = inv_qfix_mult(gravity[1], lConvertgToMS2, 16);
 124              		.loc 1 83 0
 125 0092 6060     		str	r0, [r4, #4]
 126              		.loc 1 84 0
 127 0094 1022     		mov	r2, #16
 128 0096 A068     		ldr	r0, [r4, #8]
 129 0098 FFF7FEFF 		bl	inv_qfix_mult
 130              	.LVL12:
 131 009c A060     		str	r0, [r4, #8]
  85:.\20648_driver\drivers/inv_mems_augmented_sensors.c **** 
  86:.\20648_driver\drivers/inv_mems_augmented_sensors.c ****     return MPU_SUCCESS;
 132              		.loc 1 86 0
 133 009e 0020     		mov	r0, #0
 134 00a0 01E0     		b	.L2
 135              	.LVL13:
 136              	.L4:
  71:.\20648_driver\drivers/inv_mems_augmented_sensors.c ****     if(!quat6axis_3e) return -1;
 137              		.loc 1 71 0
ARM GAS  C:\Users\ADMINI~1\AppData\Local\Temp\ccBS4ngB.s 			page 5


 138 00a2 0120     		mov	r0, #1
 139              	.LVL14:
 140 00a4 4042     		neg	r0, r0
 141              	.LVL15:
 142              	.L2:
  87:.\20648_driver\drivers/inv_mems_augmented_sensors.c **** }
 143              		.loc 1 87 0
 144 00a6 07B0     		add	sp, sp, #28
 145              		@ sp needed
 146 00a8 30BD     		pop	{r4, r5, pc}
 147              	.L7:
 148 00aa C046     		.align	2
 149              	.L6:
 150 00ac 81CE0900 		.word	642689
 151              		.cfi_endproc
 152              	.LFE4:
 153              		.size	inv_mems_augmented_sensors_get_gravity, .-inv_mems_augmented_sensors_get_gravity
 154              		.section	.text.inv_mems_augmented_sensors_get_linearacceleration,"ax",%progbits
 155              		.align	1
 156              		.global	inv_mems_augmented_sensors_get_linearacceleration
 157              		.code	16
 158              		.thumb_func
 159              		.type	inv_mems_augmented_sensors_get_linearacceleration, %function
 160              	inv_mems_augmented_sensors_get_linearacceleration:
 161              	.LFB5:
  88:.\20648_driver\drivers/inv_mems_augmented_sensors.c **** 
  89:.\20648_driver\drivers/inv_mems_augmented_sensors.c **** inv_error_t inv_mems_augmented_sensors_get_linearacceleration(long linacc[3], const long gravity[3]
  90:.\20648_driver\drivers/inv_mems_augmented_sensors.c **** {
 162              		.loc 1 90 0
 163              		.cfi_startproc
 164              	.LVL16:
 165 0000 10B5     		push	{r4, lr}
 166              		.cfi_def_cfa_offset 8
 167              		.cfi_offset 4, -8
 168              		.cfi_offset 14, -4
  91:.\20648_driver\drivers/inv_mems_augmented_sensors.c ****     if(!linacc) return -1;
 169              		.loc 1 91 0
 170 0002 0028     		cmp	r0, #0
 171 0004 11D0     		beq	.L12
  92:.\20648_driver\drivers/inv_mems_augmented_sensors.c ****     if(!gravity) return -1;
 172              		.loc 1 92 0
 173 0006 0029     		cmp	r1, #0
 174 0008 0FD0     		beq	.L12
  93:.\20648_driver\drivers/inv_mems_augmented_sensors.c ****     if(!accel) return -1;
 175              		.loc 1 93 0
 176 000a 002A     		cmp	r2, #0
 177 000c 0DD0     		beq	.L12
  94:.\20648_driver\drivers/inv_mems_augmented_sensors.c ****     
  95:.\20648_driver\drivers/inv_mems_augmented_sensors.c ****     linacc[0] = accel[0] - gravity[0];
 178              		.loc 1 95 0
 179 000e 1368     		ldr	r3, [r2]
 180 0010 0C68     		ldr	r4, [r1]
 181 0012 1B1B     		sub	r3, r3, r4
 182 0014 0360     		str	r3, [r0]
  96:.\20648_driver\drivers/inv_mems_augmented_sensors.c ****     linacc[1] = accel[1] - gravity[1];
 183              		.loc 1 96 0
 184 0016 5368     		ldr	r3, [r2, #4]
ARM GAS  C:\Users\ADMINI~1\AppData\Local\Temp\ccBS4ngB.s 			page 6


 185 0018 4C68     		ldr	r4, [r1, #4]
 186 001a 1B1B     		sub	r3, r3, r4
 187 001c 4360     		str	r3, [r0, #4]
  97:.\20648_driver\drivers/inv_mems_augmented_sensors.c ****     linacc[2] = accel[2] - gravity[2];
 188              		.loc 1 97 0
 189 001e 9368     		ldr	r3, [r2, #8]
 190 0020 8A68     		ldr	r2, [r1, #8]
 191              	.LVL17:
 192 0022 9B1A     		sub	r3, r3, r2
 193 0024 8360     		str	r3, [r0, #8]
  98:.\20648_driver\drivers/inv_mems_augmented_sensors.c ****                     
  99:.\20648_driver\drivers/inv_mems_augmented_sensors.c ****     return MPU_SUCCESS;
 194              		.loc 1 99 0
 195 0026 0020     		mov	r0, #0
 196              	.LVL18:
 197 0028 01E0     		b	.L9
 198              	.LVL19:
 199              	.L12:
  91:.\20648_driver\drivers/inv_mems_augmented_sensors.c ****     if(!gravity) return -1;
 200              		.loc 1 91 0
 201 002a 0120     		mov	r0, #1
 202              	.LVL20:
 203 002c 4042     		neg	r0, r0
 204              	.LVL21:
 205              	.L9:
 100:.\20648_driver\drivers/inv_mems_augmented_sensors.c **** }
 206              		.loc 1 100 0
 207              		@ sp needed
 208 002e 10BD     		pop	{r4, pc}
 209              		.cfi_endproc
 210              	.LFE5:
 211              		.size	inv_mems_augmented_sensors_get_linearacceleration, .-inv_mems_augmented_sensors_get_linearac
 212              		.section	.text.inv_mems_augmented_sensors_get_orientation,"ax",%progbits
 213              		.align	1
 214              		.global	inv_mems_augmented_sensors_get_orientation
 215              		.code	16
 216              		.thumb_func
 217              		.type	inv_mems_augmented_sensors_get_orientation, %function
 218              	inv_mems_augmented_sensors_get_orientation:
 219              	.LFB6:
 101:.\20648_driver\drivers/inv_mems_augmented_sensors.c **** 
 102:.\20648_driver\drivers/inv_mems_augmented_sensors.c **** 
 103:.\20648_driver\drivers/inv_mems_augmented_sensors.c **** inv_error_t inv_mems_augmented_sensors_get_orientation(long orientation[3], const long quat9axis_3e
 104:.\20648_driver\drivers/inv_mems_augmented_sensors.c **** {
 220              		.loc 1 104 0
 221              		.cfi_startproc
 222              	.LVL22:
 223 0000 10B5     		push	{r4, lr}
 224              		.cfi_def_cfa_offset 8
 225              		.cfi_offset 4, -8
 226              		.cfi_offset 14, -4
 227 0002 90B0     		sub	sp, sp, #64
 228              		.cfi_def_cfa_offset 72
 105:.\20648_driver\drivers/inv_mems_augmented_sensors.c ****     long lQuat9axis4e[4];
 106:.\20648_driver\drivers/inv_mems_augmented_sensors.c **** 	long lMatrixQ30[9];       
 107:.\20648_driver\drivers/inv_mems_augmented_sensors.c **** 	long lMatrixQ30Square; 
 108:.\20648_driver\drivers/inv_mems_augmented_sensors.c **** 	long lRad2degQ16 = 0x394BB8; // (float)(180.0 / 3.14159265358979) in Q16
ARM GAS  C:\Users\ADMINI~1\AppData\Local\Temp\ccBS4ngB.s 			page 7


 109:.\20648_driver\drivers/inv_mems_augmented_sensors.c ****     
 110:.\20648_driver\drivers/inv_mems_augmented_sensors.c ****     if(!orientation) return -1;
 229              		.loc 1 110 0
 230 0004 0028     		cmp	r0, #0
 231 0006 4AD0     		beq	.L16
 111:.\20648_driver\drivers/inv_mems_augmented_sensors.c ****     if(!quat9axis_3e) return -1;
 232              		.loc 1 111 0
 233 0008 0029     		cmp	r1, #0
 234 000a 48D0     		beq	.L16
 235 000c 041C     		mov	r4, r0
 112:.\20648_driver\drivers/inv_mems_augmented_sensors.c ****     
 113:.\20648_driver\drivers/inv_mems_augmented_sensors.c ****     // compute w element
 114:.\20648_driver\drivers/inv_mems_augmented_sensors.c **** 	inv_compute_scalar_part(quat9axis_3e, lQuat9axis4e);
 236              		.loc 1 114 0
 237 000e 081C     		mov	r0, r1
 238              	.LVL23:
 239 0010 03A9     		add	r1, sp, #12
 240              	.LVL24:
 241 0012 FFF7FEFF 		bl	inv_compute_scalar_part
 242              	.LVL25:
 115:.\20648_driver\drivers/inv_mems_augmented_sensors.c ****     
 116:.\20648_driver\drivers/inv_mems_augmented_sensors.c **** 	// quaternion to a rotation matrix, q30 to q30
 117:.\20648_driver\drivers/inv_mems_augmented_sensors.c **** 	inv_transpose_quaternion_to_rotation((const long *)lQuat9axis4e, (long *)lMatrixQ30);
 243              		.loc 1 117 0
 244 0016 03A8     		add	r0, sp, #12
 245 0018 07A9     		add	r1, sp, #28
 246 001a FFF7FEFF 		bl	inv_transpose_quaternion_to_rotation
 247              	.LVL26:
 118:.\20648_driver\drivers/inv_mems_augmented_sensors.c ****         
 119:.\20648_driver\drivers/inv_mems_augmented_sensors.c **** 	// compute orientation in q16
 120:.\20648_driver\drivers/inv_mems_augmented_sensors.c **** 	// orientationFlt[0] = atan2f(-matrixFlt[1][0], matrixFlt[0][0]) * rad2deg;
 121:.\20648_driver\drivers/inv_mems_augmented_sensors.c **** 	orientation[0] = atan2_q15(-lMatrixQ30[3] >> 15, lMatrixQ30[0] >> 15) << 1;
 248              		.loc 1 121 0
 249 001e 0A9B     		ldr	r3, [sp, #40]
 250 0020 0193     		str	r3, [sp, #4]
 251 0022 5842     		neg	r0, r3
 252 0024 079B     		ldr	r3, [sp, #28]
 253 0026 C013     		asr	r0, r0, #15
 254 0028 D913     		asr	r1, r3, #15
 255 002a FFF7FEFF 		bl	atan2_q15
 256              	.LVL27:
 257 002e 4000     		lsl	r0, r0, #1
 122:.\20648_driver\drivers/inv_mems_augmented_sensors.c **** 	orientation[0] = inv_qfix_mult(orientation[0], lRad2degQ16, 16);
 258              		.loc 1 122 0
 259 0030 1022     		mov	r2, #16
 260 0032 1D49     		ldr	r1, .L18
 121:.\20648_driver\drivers/inv_mems_augmented_sensors.c **** 	orientation[0] = inv_qfix_mult(orientation[0], lRad2degQ16, 16);
 261              		.loc 1 121 0
 262 0034 2060     		str	r0, [r4]
 263              		.loc 1 122 0
 264 0036 FFF7FEFF 		bl	inv_qfix_mult
 265              	.LVL28:
 123:.\20648_driver\drivers/inv_mems_augmented_sensors.c **** 
 124:.\20648_driver\drivers/inv_mems_augmented_sensors.c **** 	// orientationFlt[1] = atan2f(-matrixFlt[2][1], matrixFlt[2][2]) * rad2deg;
 125:.\20648_driver\drivers/inv_mems_augmented_sensors.c **** 	orientation[1] = atan2_q15(-lMatrixQ30[7] >> 15, lMatrixQ30[8] >> 15) << 1;
 266              		.loc 1 125 0
 267 003a 0E9B     		ldr	r3, [sp, #56]
ARM GAS  C:\Users\ADMINI~1\AppData\Local\Temp\ccBS4ngB.s 			page 8


 122:.\20648_driver\drivers/inv_mems_augmented_sensors.c **** 
 268              		.loc 1 122 0
 269 003c 2060     		str	r0, [r4]
 270              		.loc 1 125 0
 271 003e 5842     		neg	r0, r3
 272 0040 0F9B     		ldr	r3, [sp, #60]
 273 0042 C013     		asr	r0, r0, #15
 274 0044 D913     		asr	r1, r3, #15
 275 0046 0193     		str	r3, [sp, #4]
 276 0048 FFF7FEFF 		bl	atan2_q15
 277              	.LVL29:
 278 004c 4000     		lsl	r0, r0, #1
 126:.\20648_driver\drivers/inv_mems_augmented_sensors.c **** 	orientation[1] = inv_qfix_mult(orientation[1], lRad2degQ16, 16);
 279              		.loc 1 126 0
 280 004e 1649     		ldr	r1, .L18
 281 0050 1022     		mov	r2, #16
 125:.\20648_driver\drivers/inv_mems_augmented_sensors.c **** 	orientation[1] = inv_qfix_mult(orientation[1], lRad2degQ16, 16);
 282              		.loc 1 125 0
 283 0052 6060     		str	r0, [r4, #4]
 284              		.loc 1 126 0
 285 0054 FFF7FEFF 		bl	inv_qfix_mult
 286              	.LVL30:
 127:.\20648_driver\drivers/inv_mems_augmented_sensors.c **** 
 128:.\20648_driver\drivers/inv_mems_augmented_sensors.c **** 	// orientationFlt[2] = asinf ( matrixFlt[2][0]) * rad2deg;
 129:.\20648_driver\drivers/inv_mems_augmented_sensors.c **** 	// asin(x) = atan (x/sqrt(1-x²))
 130:.\20648_driver\drivers/inv_mems_augmented_sensors.c **** 	// atan2(y,x) = atan(y/x)
 131:.\20648_driver\drivers/inv_mems_augmented_sensors.c **** 	// asin(x) = atan2(x, sqrt(1-x²))
 132:.\20648_driver\drivers/inv_mems_augmented_sensors.c **** 	lMatrixQ30Square = inv_qfix_mult(lMatrixQ30[6], lMatrixQ30[6], 30); // x²
 287              		.loc 1 132 0
 288 0058 0D9B     		ldr	r3, [sp, #52]
 289 005a 1E22     		mov	r2, #30
 290 005c 191C     		mov	r1, r3
 126:.\20648_driver\drivers/inv_mems_augmented_sensors.c **** 
 291              		.loc 1 126 0
 292 005e 6060     		str	r0, [r4, #4]
 293              		.loc 1 132 0
 294 0060 181C     		mov	r0, r3
 295 0062 0193     		str	r3, [sp, #4]
 296 0064 FFF7FEFF 		bl	inv_qfix_mult
 297              	.LVL31:
 133:.\20648_driver\drivers/inv_mems_augmented_sensors.c **** 	lMatrixQ30Square = (1UL << 30) - lMatrixQ30Square; // 1-x²
 298              		.loc 1 133 0
 299 0068 8023     		mov	r3, #128
 300 006a DB05     		lsl	r3, r3, #23
 301 006c 181A     		sub	r0, r3, r0
 302              	.LVL32:
 134:.\20648_driver\drivers/inv_mems_augmented_sensors.c **** 	lMatrixQ30Square = inv_fast_sqrt(lMatrixQ30Square); // sqrt(1-x²)
 303              		.loc 1 134 0
 304 006e FFF7FEFF 		bl	inv_fast_sqrt
 305              	.LVL33:
 306 0072 011C     		mov	r1, r0
 307              	.LVL34:
 135:.\20648_driver\drivers/inv_mems_augmented_sensors.c **** 	orientation[2] = atan2_q15(lMatrixQ30[6] >> 15,  lMatrixQ30Square >> 15) << 1; // atan2(x, sqrt(1-
 308              		.loc 1 135 0
 309 0074 0D98     		ldr	r0, [sp, #52]
 310              	.LVL35:
 311 0076 C913     		asr	r1, r1, #15
ARM GAS  C:\Users\ADMINI~1\AppData\Local\Temp\ccBS4ngB.s 			page 9


 312              	.LVL36:
 313 0078 C013     		asr	r0, r0, #15
 314 007a FFF7FEFF 		bl	atan2_q15
 315              	.LVL37:
 316 007e 4000     		lsl	r0, r0, #1
 317 0080 A060     		str	r0, [r4, #8]
 136:.\20648_driver\drivers/inv_mems_augmented_sensors.c **** 	orientation[2] = inv_qfix_mult(orientation[2], lRad2degQ16, 16); // * rad2deg
 318              		.loc 1 136 0
 319 0082 0949     		ldr	r1, .L18
 320 0084 1022     		mov	r2, #16
 321 0086 FFF7FEFF 		bl	inv_qfix_mult
 322              	.LVL38:
 323 008a A060     		str	r0, [r4, #8]
 137:.\20648_driver\drivers/inv_mems_augmented_sensors.c **** 
 138:.\20648_driver\drivers/inv_mems_augmented_sensors.c **** 	if (orientation[0] < 0)
 139:.\20648_driver\drivers/inv_mems_augmented_sensors.c **** 		orientation[0] += 360UL << 16;
 140:.\20648_driver\drivers/inv_mems_augmented_sensors.c **** 
 141:.\20648_driver\drivers/inv_mems_augmented_sensors.c ****     return MPU_SUCCESS;
 324              		.loc 1 141 0
 325 008c 0020     		mov	r0, #0
 138:.\20648_driver\drivers/inv_mems_augmented_sensors.c **** 		orientation[0] += 360UL << 16;
 326              		.loc 1 138 0
 327 008e 2368     		ldr	r3, [r4]
 328 0090 8342     		cmp	r3, r0
 329 0092 06DA     		bge	.L14
 139:.\20648_driver\drivers/inv_mems_augmented_sensors.c **** 
 330              		.loc 1 139 0
 331 0094 B422     		mov	r2, #180
 332 0096 5204     		lsl	r2, r2, #17
 333 0098 9B18     		add	r3, r3, r2
 334 009a 2360     		str	r3, [r4]
 335 009c 01E0     		b	.L14
 336              	.LVL39:
 337              	.L16:
 110:.\20648_driver\drivers/inv_mems_augmented_sensors.c ****     if(!quat9axis_3e) return -1;
 338              		.loc 1 110 0
 339 009e 0120     		mov	r0, #1
 340              	.LVL40:
 341 00a0 4042     		neg	r0, r0
 342              	.LVL41:
 343              	.L14:
 142:.\20648_driver\drivers/inv_mems_augmented_sensors.c **** }
 344              		.loc 1 142 0
 345 00a2 10B0     		add	sp, sp, #64
 346              		@ sp needed
 347 00a4 10BD     		pop	{r4, pc}
 348              	.L19:
 349 00a6 C046     		.align	2
 350              	.L18:
 351 00a8 B84B3900 		.word	3754936
 352              		.cfi_endproc
 353              	.LFE6:
 354              		.size	inv_mems_augmented_sensors_get_orientation, .-inv_mems_augmented_sensors_get_orientation
 355              		.section	.text.inv_mems_augmented_sensors_set_odr,"ax",%progbits
 356              		.align	1
 357              		.global	inv_mems_augmented_sensors_set_odr
 358              		.code	16
ARM GAS  C:\Users\ADMINI~1\AppData\Local\Temp\ccBS4ngB.s 			page 10


 359              		.thumb_func
 360              		.type	inv_mems_augmented_sensors_set_odr, %function
 361              	inv_mems_augmented_sensors_set_odr:
 362              	.LFB7:
 143:.\20648_driver\drivers/inv_mems_augmented_sensors.c **** 
 144:.\20648_driver\drivers/inv_mems_augmented_sensors.c **** unsigned short inv_mems_augmented_sensors_set_odr(unsigned char androidSensor, unsigned short delay
 145:.\20648_driver\drivers/inv_mems_augmented_sensors.c **** {
 363              		.loc 1 145 0
 364              		.cfi_startproc
 365              	.LVL42:
 366 0000 38B5     		push	{r3, r4, r5, lr}
 367              		.cfi_def_cfa_offset 16
 368              		.cfi_offset 3, -16
 369              		.cfi_offset 4, -12
 370              		.cfi_offset 5, -8
 371              		.cfi_offset 14, -4
 372              		.loc 1 145 0
 373 0002 0C1C     		mov	r4, r1
 146:.\20648_driver\drivers/inv_mems_augmented_sensors.c **** 	switch(androidSensor)
 374              		.loc 1 146 0
 375 0004 0F28     		cmp	r0, #15
 376 0006 27D0     		beq	.L22
 377 0008 11D8     		bhi	.L23
 378 000a 0928     		cmp	r0, #9
 379 000c 21D0     		beq	.L24
 380 000e 05D8     		bhi	.L25
 381 0010 0328     		cmp	r0, #3
 382 0012 00D0     		beq	.LCB332
 383 0014 8DE0     		b	.L21	@long jump
 384              	.LCB332:
 147:.\20648_driver\drivers/inv_mems_augmented_sensors.c **** 	{
 148:.\20648_driver\drivers/inv_mems_augmented_sensors.c **** 		case ANDROID_SENSOR_GRAVITY:
 149:.\20648_driver\drivers/inv_mems_augmented_sensors.c **** 			sGravityOdrMs = delayInMs;
 150:.\20648_driver\drivers/inv_mems_augmented_sensors.c **** 			AUGMENTED_SENSOR_GET_6QUAT_MIN_ODR(delayInMs);
 151:.\20648_driver\drivers/inv_mems_augmented_sensors.c **** 			break;
 152:.\20648_driver\drivers/inv_mems_augmented_sensors.c ****         case ANDROID_SENSOR_GAME_ROTATION_VECTOR:
 153:.\20648_driver\drivers/inv_mems_augmented_sensors.c **** 			sGrvOdrMs = delayInMs;
 154:.\20648_driver\drivers/inv_mems_augmented_sensors.c **** 			AUGMENTED_SENSOR_GET_6QUAT_MIN_ODR(delayInMs);
 155:.\20648_driver\drivers/inv_mems_augmented_sensors.c **** 			break;
 156:.\20648_driver\drivers/inv_mems_augmented_sensors.c ****         case ANDROID_SENSOR_LINEAR_ACCELERATION:
 157:.\20648_driver\drivers/inv_mems_augmented_sensors.c **** 			sLinAccOdrMs = delayInMs;
 158:.\20648_driver\drivers/inv_mems_augmented_sensors.c **** 			AUGMENTED_SENSOR_GET_6QUAT_MIN_ODR(delayInMs);
 159:.\20648_driver\drivers/inv_mems_augmented_sensors.c **** 			break;
 160:.\20648_driver\drivers/inv_mems_augmented_sensors.c ****         case ANDROID_SENSOR_ORIENTATION:
 161:.\20648_driver\drivers/inv_mems_augmented_sensors.c **** 			sOriOdrMs = delayInMs;
 385              		.loc 1 161 0
 386 0016 484D     		ldr	r5, .L195
 387 0018 E980     		strh	r1, [r5, #6]
 388 001a 3FE0     		b	.L180
 389              	.L25:
 146:.\20648_driver\drivers/inv_mems_augmented_sensors.c **** 	switch(androidSensor)
 390              		.loc 1 146 0
 391 001c 0A28     		cmp	r0, #10
 392 001e 1ED0     		beq	.L27
 393 0020 0B28     		cmp	r0, #11
 394 0022 00D0     		beq	.LCB343
 395 0024 85E0     		b	.L21	@long jump
ARM GAS  C:\Users\ADMINI~1\AppData\Local\Temp\ccBS4ngB.s 			page 11


 396              	.LCB343:
 162:.\20648_driver\drivers/inv_mems_augmented_sensors.c **** 			AUGMENTED_SENSOR_GET_9QUAT_MIN_ODR(delayInMs);
 163:.\20648_driver\drivers/inv_mems_augmented_sensors.c **** 			break;
 164:.\20648_driver\drivers/inv_mems_augmented_sensors.c ****         case ANDROID_SENSOR_ROTATION_VECTOR:
 165:.\20648_driver\drivers/inv_mems_augmented_sensors.c **** 			sRvOdrMs = delayInMs;
 397              		.loc 1 165 0
 398 0026 444D     		ldr	r5, .L195
 166:.\20648_driver\drivers/inv_mems_augmented_sensors.c **** 			AUGMENTED_SENSOR_GET_9QUAT_MIN_ODR(delayInMs);
 399              		.loc 1 166 0
 400 0028 0320     		mov	r0, #3
 401              	.LVL43:
 165:.\20648_driver\drivers/inv_mems_augmented_sensors.c **** 			AUGMENTED_SENSOR_GET_9QUAT_MIN_ODR(delayInMs);
 402              		.loc 1 165 0
 403 002a 2981     		strh	r1, [r5, #8]
 404 002c 36E0     		b	.L180
 405              	.LVL44:
 406              	.L23:
 146:.\20648_driver\drivers/inv_mems_augmented_sensors.c **** 	{
 407              		.loc 1 146 0
 408 002e 1E28     		cmp	r0, #30
 409 0030 45D0     		beq	.L29
 410 0032 07D8     		bhi	.L30
 411 0034 1928     		cmp	r0, #25
 412 0036 61D0     		beq	.L31
 413 0038 1D28     		cmp	r0, #29
 414 003a 00D0     		beq	.LCB361
 415 003c 79E0     		b	.L21	@long jump
 416              	.LCB361:
 167:.\20648_driver\drivers/inv_mems_augmented_sensors.c **** 			break;
 168:.\20648_driver\drivers/inv_mems_augmented_sensors.c **** 		case ANDROID_SENSOR_WAKEUP_GRAVITY:
 169:.\20648_driver\drivers/inv_mems_augmented_sensors.c **** 			sGravityWuOdrMs = delayInMs;
 417              		.loc 1 169 0
 418 003e 3E4D     		ldr	r5, .L195
 419 0040 6981     		strh	r1, [r5, #10]
 420 0042 3FE0     		b	.L194
 421              	.L30:
 146:.\20648_driver\drivers/inv_mems_augmented_sensors.c **** 	{
 422              		.loc 1 146 0
 423 0044 1F28     		cmp	r0, #31
 424 0046 5CD0     		beq	.L33
 425 0048 2328     		cmp	r0, #35
 426 004a 72D1     		bne	.L21
 170:.\20648_driver\drivers/inv_mems_augmented_sensors.c **** 			AUGMENTED_SENSOR_GET_6QUATWU_MIN_ODR(delayInMs);
 171:.\20648_driver\drivers/inv_mems_augmented_sensors.c **** 			break;
 172:.\20648_driver\drivers/inv_mems_augmented_sensors.c ****         case ANDROID_SENSOR_WAKEUP_GAME_ROTATION_VECTOR:
 173:.\20648_driver\drivers/inv_mems_augmented_sensors.c **** 			sGrvWuOdrMs = delayInMs;
 427              		.loc 1 173 0
 428 004c 3A4D     		ldr	r5, .L195
 429 004e A981     		strh	r1, [r5, #12]
 430 0050 37E0     		b	.L192
 431              	.L24:
 149:.\20648_driver\drivers/inv_mems_augmented_sensors.c **** 			AUGMENTED_SENSOR_GET_6QUAT_MIN_ODR(delayInMs);
 432              		.loc 1 149 0
 433 0052 394D     		ldr	r5, .L195
 434 0054 2980     		strh	r1, [r5]
 435 0056 05E0     		b	.L190
 436              	.L22:
ARM GAS  C:\Users\ADMINI~1\AppData\Local\Temp\ccBS4ngB.s 			page 12


 153:.\20648_driver\drivers/inv_mems_augmented_sensors.c **** 			AUGMENTED_SENSOR_GET_6QUAT_MIN_ODR(delayInMs);
 437              		.loc 1 153 0
 438 0058 374D     		ldr	r5, .L195
 439 005a 6980     		strh	r1, [r5, #2]
 440 005c 01E0     		b	.L188
 441              	.L27:
 157:.\20648_driver\drivers/inv_mems_augmented_sensors.c **** 			AUGMENTED_SENSOR_GET_6QUAT_MIN_ODR(delayInMs);
 442              		.loc 1 157 0
 443 005e 364D     		ldr	r5, .L195
 444 0060 A980     		strh	r1, [r5, #4]
 445              	.L188:
 158:.\20648_driver\drivers/inv_mems_augmented_sensors.c **** 			break;
 446              		.loc 1 158 0
 447 0062 0920     		mov	r0, #9
 448              	.LVL45:
 449              	.L190:
 450 0064 FFF7FEFF 		bl	inv_androidSensor_enabled
 451              	.LVL46:
 452 0068 0028     		cmp	r0, #0
 453 006a 05D0     		beq	.L45
 158:.\20648_driver\drivers/inv_mems_augmented_sensors.c **** 			break;
 454              		.loc 1 158 0 is_stmt 0 discriminator 1
 455 006c 2A88     		ldrh	r2, [r5]
 456 006e 231C     		add	r3, r4, #0
 457 0070 9442     		cmp	r4, r2
 458 0072 00D9     		bls	.L46
 459 0074 131C     		add	r3, r2, #0
 460              	.L46:
 461 0076 9CB2     		uxth	r4, r3
 462              	.LVL47:
 463              	.L45:
 158:.\20648_driver\drivers/inv_mems_augmented_sensors.c **** 			break;
 464              		.loc 1 158 0 discriminator 3
 465 0078 0F20     		mov	r0, #15
 466 007a FFF7FEFF 		bl	inv_androidSensor_enabled
 467              	.LVL48:
 468 007e 0028     		cmp	r0, #0
 469 0080 05D0     		beq	.L47
 158:.\20648_driver\drivers/inv_mems_augmented_sensors.c **** 			break;
 470              		.loc 1 158 0 discriminator 4
 471 0082 6A88     		ldrh	r2, [r5, #2]
 472 0084 231C     		add	r3, r4, #0
 473 0086 9442     		cmp	r4, r2
 474 0088 00D9     		bls	.L48
 475 008a 131C     		add	r3, r2, #0
 476              	.L48:
 477 008c 9CB2     		uxth	r4, r3
 478              	.LVL49:
 479              	.L47:
 158:.\20648_driver\drivers/inv_mems_augmented_sensors.c **** 			break;
 480              		.loc 1 158 0 discriminator 6
 481 008e 0A20     		mov	r0, #10
 482 0090 FFF7FEFF 		bl	inv_androidSensor_enabled
 483              	.LVL50:
 484 0094 0028     		cmp	r0, #0
 485 0096 4CD0     		beq	.L21
 158:.\20648_driver\drivers/inv_mems_augmented_sensors.c **** 			break;
ARM GAS  C:\Users\ADMINI~1\AppData\Local\Temp\ccBS4ngB.s 			page 13


 486              		.loc 1 158 0 discriminator 7
 487 0098 AA88     		ldrh	r2, [r5, #4]
 488 009a 45E0     		b	.L157
 489              	.LVL51:
 490              	.L180:
 166:.\20648_driver\drivers/inv_mems_augmented_sensors.c **** 			break;
 491              		.loc 1 166 0 is_stmt 1
 492 009c FFF7FEFF 		bl	inv_androidSensor_enabled
 493              	.LVL52:
 494 00a0 0028     		cmp	r0, #0
 495 00a2 05D0     		beq	.L53
 166:.\20648_driver\drivers/inv_mems_augmented_sensors.c **** 			break;
 496              		.loc 1 166 0 is_stmt 0 discriminator 1
 497 00a4 EA88     		ldrh	r2, [r5, #6]
 498 00a6 231C     		add	r3, r4, #0
 499 00a8 9442     		cmp	r4, r2
 500 00aa 00D9     		bls	.L54
 501 00ac 131C     		add	r3, r2, #0
 502              	.L54:
 503 00ae 9CB2     		uxth	r4, r3
 504              	.LVL53:
 505              	.L53:
 166:.\20648_driver\drivers/inv_mems_augmented_sensors.c **** 			break;
 506              		.loc 1 166 0 discriminator 3
 507 00b0 0B20     		mov	r0, #11
 508 00b2 FFF7FEFF 		bl	inv_androidSensor_enabled
 509              	.LVL54:
 510 00b6 0028     		cmp	r0, #0
 511 00b8 3BD0     		beq	.L21
 166:.\20648_driver\drivers/inv_mems_augmented_sensors.c **** 			break;
 512              		.loc 1 166 0 discriminator 4
 513 00ba 2A89     		ldrh	r2, [r5, #8]
 514 00bc 34E0     		b	.L157
 515              	.LVL55:
 516              	.L29:
 174:.\20648_driver\drivers/inv_mems_augmented_sensors.c **** 			AUGMENTED_SENSOR_GET_6QUATWU_MIN_ODR(delayInMs);
 175:.\20648_driver\drivers/inv_mems_augmented_sensors.c **** 			break;
 176:.\20648_driver\drivers/inv_mems_augmented_sensors.c ****         case ANDROID_SENSOR_WAKEUP_LINEAR_ACCELERATION:
 177:.\20648_driver\drivers/inv_mems_augmented_sensors.c **** 			sLinAccWuOdrMs = delayInMs;
 517              		.loc 1 177 0 is_stmt 1
 518 00be 1E4D     		ldr	r5, .L195
 519 00c0 E981     		strh	r1, [r5, #14]
 520              	.L192:
 178:.\20648_driver\drivers/inv_mems_augmented_sensors.c **** 			AUGMENTED_SENSOR_GET_6QUATWU_MIN_ODR(delayInMs);
 521              		.loc 1 178 0
 522 00c2 1D20     		mov	r0, #29
 523              	.LVL56:
 524              	.L194:
 525 00c4 FFF7FEFF 		bl	inv_androidSensor_enabled
 526              	.LVL57:
 527 00c8 0028     		cmp	r0, #0
 528 00ca 05D0     		beq	.L66
 529              		.loc 1 178 0 is_stmt 0 discriminator 1
 530 00cc 6A89     		ldrh	r2, [r5, #10]
 531 00ce 231C     		add	r3, r4, #0
 532 00d0 9442     		cmp	r4, r2
 533 00d2 00D9     		bls	.L67
ARM GAS  C:\Users\ADMINI~1\AppData\Local\Temp\ccBS4ngB.s 			page 14


 534 00d4 131C     		add	r3, r2, #0
 535              	.L67:
 536 00d6 9CB2     		uxth	r4, r3
 537              	.LVL58:
 538              	.L66:
 539              		.loc 1 178 0 discriminator 3
 540 00d8 2320     		mov	r0, #35
 541 00da FFF7FEFF 		bl	inv_androidSensor_enabled
 542              	.LVL59:
 543 00de 0028     		cmp	r0, #0
 544 00e0 05D0     		beq	.L68
 545              		.loc 1 178 0 discriminator 4
 546 00e2 AA89     		ldrh	r2, [r5, #12]
 547 00e4 231C     		add	r3, r4, #0
 548 00e6 9442     		cmp	r4, r2
 549 00e8 00D9     		bls	.L69
 550 00ea 131C     		add	r3, r2, #0
 551              	.L69:
 552 00ec 9CB2     		uxth	r4, r3
 553              	.LVL60:
 554              	.L68:
 555              		.loc 1 178 0 discriminator 6
 556 00ee 1E20     		mov	r0, #30
 557 00f0 FFF7FEFF 		bl	inv_androidSensor_enabled
 558              	.LVL61:
 559 00f4 0028     		cmp	r0, #0
 560 00f6 1CD0     		beq	.L21
 561              		.loc 1 178 0 discriminator 7
 562 00f8 EA89     		ldrh	r2, [r5, #14]
 563 00fa 15E0     		b	.L157
 564              	.LVL62:
 565              	.L31:
 179:.\20648_driver\drivers/inv_mems_augmented_sensors.c **** 			break;
 180:.\20648_driver\drivers/inv_mems_augmented_sensors.c ****         case ANDROID_SENSOR_WAKEUP_ORIENTATION:
 181:.\20648_driver\drivers/inv_mems_augmented_sensors.c **** 			sOriWuOdrMs = delayInMs;
 566              		.loc 1 181 0 is_stmt 1
 567 00fc 0E4D     		ldr	r5, .L195
 568 00fe 2982     		strh	r1, [r5, #16]
 569 0100 02E0     		b	.L176
 570              	.L33:
 182:.\20648_driver\drivers/inv_mems_augmented_sensors.c **** 			AUGMENTED_SENSOR_GET_9QUATWU_MIN_ODR(delayInMs);
 183:.\20648_driver\drivers/inv_mems_augmented_sensors.c **** 			break;
 184:.\20648_driver\drivers/inv_mems_augmented_sensors.c ****         case ANDROID_SENSOR_WAKEUP_ROTATION_VECTOR:
 185:.\20648_driver\drivers/inv_mems_augmented_sensors.c **** 			sRvWuOdrMs = delayInMs;
 186:.\20648_driver\drivers/inv_mems_augmented_sensors.c **** 			AUGMENTED_SENSOR_GET_9QUATWU_MIN_ODR(delayInMs);
 571              		.loc 1 186 0
 572 0102 1920     		mov	r0, #25
 573              	.LVL63:
 185:.\20648_driver\drivers/inv_mems_augmented_sensors.c **** 			AUGMENTED_SENSOR_GET_9QUATWU_MIN_ODR(delayInMs);
 574              		.loc 1 185 0
 575 0104 0C4D     		ldr	r5, .L195
 576 0106 6982     		strh	r1, [r5, #18]
 577              	.L176:
 578              		.loc 1 186 0
 579 0108 FFF7FEFF 		bl	inv_androidSensor_enabled
 580              	.LVL64:
 581 010c 0028     		cmp	r0, #0
ARM GAS  C:\Users\ADMINI~1\AppData\Local\Temp\ccBS4ngB.s 			page 15


 582 010e 05D0     		beq	.L74
 583              		.loc 1 186 0 is_stmt 0 discriminator 1
 584 0110 2A8A     		ldrh	r2, [r5, #16]
 585 0112 231C     		add	r3, r4, #0
 586 0114 9442     		cmp	r4, r2
 587 0116 00D9     		bls	.L75
 588 0118 131C     		add	r3, r2, #0
 589              	.L75:
 590 011a 9CB2     		uxth	r4, r3
 591              	.LVL65:
 592              	.L74:
 593              		.loc 1 186 0 discriminator 3
 594 011c 1F20     		mov	r0, #31
 595 011e FFF7FEFF 		bl	inv_androidSensor_enabled
 596              	.LVL66:
 597 0122 0028     		cmp	r0, #0
 598 0124 05D0     		beq	.L21
 599              		.loc 1 186 0 discriminator 4
 600 0126 6A8A     		ldrh	r2, [r5, #18]
 601              	.L157:
 602 0128 231C     		add	r3, r4, #0
 603 012a 9442     		cmp	r4, r2
 604 012c 00D9     		bls	.L76
 605              	.LVL67:
 606 012e 131C     		add	r3, r2, #0
 607              	.LVL68:
 608              	.L76:
 609 0130 9CB2     		uxth	r4, r3
 610              	.LVL69:
 611              	.L21:
 187:.\20648_driver\drivers/inv_mems_augmented_sensors.c **** 			break;
 188:.\20648_driver\drivers/inv_mems_augmented_sensors.c **** 		default :
 189:.\20648_driver\drivers/inv_mems_augmented_sensors.c **** 			break;
 190:.\20648_driver\drivers/inv_mems_augmented_sensors.c **** 	}
 191:.\20648_driver\drivers/inv_mems_augmented_sensors.c **** 
 192:.\20648_driver\drivers/inv_mems_augmented_sensors.c **** 	return delayInMs;
 193:.\20648_driver\drivers/inv_mems_augmented_sensors.c **** }
 612              		.loc 1 193 0 is_stmt 1
 613 0132 201C     		mov	r0, r4
 614              		@ sp needed
 615              	.LVL70:
 616 0134 38BD     		pop	{r3, r4, r5, pc}
 617              	.L196:
 618 0136 C046     		.align	2
 619              	.L195:
 620 0138 00000000 		.word	.LANCHOR0
 621              		.cfi_endproc
 622              	.LFE7:
 623              		.size	inv_mems_augmented_sensors_set_odr, .-inv_mems_augmented_sensors_set_odr
 624              		.section	.text.inv_mems_augmented_sensors_update_odr,"ax",%progbits
 625              		.align	1
 626              		.global	inv_mems_augmented_sensors_update_odr
 627              		.code	16
 628              		.thumb_func
 629              		.type	inv_mems_augmented_sensors_update_odr, %function
 630              	inv_mems_augmented_sensors_update_odr:
 631              	.LFB8:
ARM GAS  C:\Users\ADMINI~1\AppData\Local\Temp\ccBS4ngB.s 			page 16


 194:.\20648_driver\drivers/inv_mems_augmented_sensors.c **** 
 195:.\20648_driver\drivers/inv_mems_augmented_sensors.c **** 
 196:.\20648_driver\drivers/inv_mems_augmented_sensors.c **** void inv_mems_augmented_sensors_update_odr(unsigned char androidSensor, unsigned short * updatedDel
 197:.\20648_driver\drivers/inv_mems_augmented_sensors.c **** {
 632              		.loc 1 197 0
 633              		.cfi_startproc
 634              	.LVL71:
 635 0000 38B5     		push	{r3, r4, r5, lr}
 636              		.cfi_def_cfa_offset 16
 637              		.cfi_offset 3, -16
 638              		.cfi_offset 4, -12
 639              		.cfi_offset 5, -8
 640              		.cfi_offset 14, -4
 641              		.loc 1 197 0
 642 0002 0D1C     		mov	r5, r1
 198:.\20648_driver\drivers/inv_mems_augmented_sensors.c **** 	unsigned short lDelayInMs = 0xFFFF; // max value of uint16_t, so that we can get min value of all 
 199:.\20648_driver\drivers/inv_mems_augmented_sensors.c **** 	switch(androidSensor)
 643              		.loc 1 199 0
 644 0004 0F28     		cmp	r0, #15
 645 0006 16D0     		beq	.L199
 646 0008 09D8     		bhi	.L200
 647 000a 0A28     		cmp	r0, #10
 648 000c 04D8     		bhi	.L201
 649 000e 0928     		cmp	r0, #9
 650 0010 11D2     		bcs	.L199
 651 0012 0328     		cmp	r0, #3
 652 0014 49D0     		beq	.L202
 653 0016 6FE0     		b	.L197
 654              	.L201:
 655 0018 0B28     		cmp	r0, #11
 656 001a 46D0     		beq	.L202
 657 001c 6CE0     		b	.L197
 658              	.L200:
 659 001e 1E28     		cmp	r0, #30
 660 0020 04D8     		bhi	.L203
 661 0022 1D28     		cmp	r0, #29
 662 0024 24D2     		bcs	.L204
 663 0026 1928     		cmp	r0, #25
 664 0028 50D0     		beq	.L205
 665 002a 65E0     		b	.L197
 666              	.L203:
 667 002c 1F28     		cmp	r0, #31
 668 002e 4DD0     		beq	.L205
 669 0030 2328     		cmp	r0, #35
 670 0032 1DD0     		beq	.L204
 671 0034 60E0     		b	.L197
 672              	.L199:
 200:.\20648_driver\drivers/inv_mems_augmented_sensors.c **** 	{
 201:.\20648_driver\drivers/inv_mems_augmented_sensors.c **** 		case ANDROID_SENSOR_GRAVITY:
 202:.\20648_driver\drivers/inv_mems_augmented_sensors.c ****         case ANDROID_SENSOR_GAME_ROTATION_VECTOR:
 203:.\20648_driver\drivers/inv_mems_augmented_sensors.c ****         case ANDROID_SENSOR_LINEAR_ACCELERATION:
 204:.\20648_driver\drivers/inv_mems_augmented_sensors.c **** 			AUGMENTED_SENSOR_GET_6QUAT_MIN_ODR(lDelayInMs);
 673              		.loc 1 204 0
 674 0036 0920     		mov	r0, #9
 675              	.LVL72:
 676 0038 FFF7FEFF 		bl	inv_androidSensor_enabled
 677              	.LVL73:
ARM GAS  C:\Users\ADMINI~1\AppData\Local\Temp\ccBS4ngB.s 			page 17


 678 003c 0028     		cmp	r0, #0
 679 003e 02D0     		beq	.L226
 680              		.loc 1 204 0 is_stmt 0 discriminator 1
 681 0040 2E4B     		ldr	r3, .L268
 682 0042 1C88     		ldrh	r4, [r3]
 683              	.LVL74:
 684 0044 00E0     		b	.L206
 685              	.LVL75:
 686              	.L226:
 198:.\20648_driver\drivers/inv_mems_augmented_sensors.c **** 	unsigned short lDelayInMs = 0xFFFF; // max value of uint16_t, so that we can get min value of all 
 687              		.loc 1 198 0 is_stmt 1
 688 0046 2E4C     		ldr	r4, .L268+4
 689              	.LVL76:
 690              	.L206:
 691              		.loc 1 204 0 discriminator 3
 692 0048 0F20     		mov	r0, #15
 693 004a FFF7FEFF 		bl	inv_androidSensor_enabled
 694              	.LVL77:
 695 004e 0028     		cmp	r0, #0
 696 0050 06D0     		beq	.L208
 697              		.loc 1 204 0 is_stmt 0 discriminator 4
 698 0052 2A4B     		ldr	r3, .L268
 699 0054 5A88     		ldrh	r2, [r3, #2]
 700 0056 231C     		add	r3, r4, #0
 701 0058 9442     		cmp	r4, r2
 702 005a 00D9     		bls	.L209
 703 005c 131C     		add	r3, r2, #0
 704              	.L209:
 705 005e 9CB2     		uxth	r4, r3
 706              	.LVL78:
 707              	.L208:
 708              		.loc 1 204 0 discriminator 6
 709 0060 0A20     		mov	r0, #10
 710 0062 FFF7FEFF 		bl	inv_androidSensor_enabled
 711              	.LVL79:
 712 0066 0028     		cmp	r0, #0
 713 0068 45D0     		beq	.L224
 714              		.loc 1 204 0 discriminator 7
 715 006a 244B     		ldr	r3, .L268
 716 006c 9A88     		ldrh	r2, [r3, #4]
 717 006e 3DE0     		b	.L267
 718              	.LVL80:
 719              	.L204:
 205:.\20648_driver\drivers/inv_mems_augmented_sensors.c **** 			*updatedDelayPtr = lDelayInMs;
 206:.\20648_driver\drivers/inv_mems_augmented_sensors.c **** 			break;
 207:.\20648_driver\drivers/inv_mems_augmented_sensors.c **** 		case ANDROID_SENSOR_WAKEUP_GRAVITY:
 208:.\20648_driver\drivers/inv_mems_augmented_sensors.c ****         case ANDROID_SENSOR_WAKEUP_GAME_ROTATION_VECTOR:
 209:.\20648_driver\drivers/inv_mems_augmented_sensors.c ****         case ANDROID_SENSOR_WAKEUP_LINEAR_ACCELERATION:
 210:.\20648_driver\drivers/inv_mems_augmented_sensors.c **** 			AUGMENTED_SENSOR_GET_6QUATWU_MIN_ODR(lDelayInMs);
 720              		.loc 1 210 0 is_stmt 1
 721 0070 1D20     		mov	r0, #29
 722              	.LVL81:
 723 0072 FFF7FEFF 		bl	inv_androidSensor_enabled
 724              	.LVL82:
 725 0076 0028     		cmp	r0, #0
 726 0078 02D0     		beq	.L227
 727              		.loc 1 210 0 is_stmt 0 discriminator 1
ARM GAS  C:\Users\ADMINI~1\AppData\Local\Temp\ccBS4ngB.s 			page 18


 728 007a 204B     		ldr	r3, .L268
 729 007c 5C89     		ldrh	r4, [r3, #10]
 730              	.LVL83:
 731 007e 00E0     		b	.L212
 732              	.LVL84:
 733              	.L227:
 198:.\20648_driver\drivers/inv_mems_augmented_sensors.c **** 	switch(androidSensor)
 734              		.loc 1 198 0 is_stmt 1
 735 0080 1F4C     		ldr	r4, .L268+4
 736              	.LVL85:
 737              	.L212:
 738              		.loc 1 210 0 discriminator 3
 739 0082 2320     		mov	r0, #35
 740 0084 FFF7FEFF 		bl	inv_androidSensor_enabled
 741              	.LVL86:
 742 0088 0028     		cmp	r0, #0
 743 008a 06D0     		beq	.L214
 744              		.loc 1 210 0 is_stmt 0 discriminator 4
 745 008c 1B4B     		ldr	r3, .L268
 746 008e 9A89     		ldrh	r2, [r3, #12]
 747 0090 231C     		add	r3, r4, #0
 748 0092 9442     		cmp	r4, r2
 749 0094 00D9     		bls	.L215
 750 0096 131C     		add	r3, r2, #0
 751              	.L215:
 752 0098 9CB2     		uxth	r4, r3
 753              	.LVL87:
 754              	.L214:
 755              		.loc 1 210 0 discriminator 6
 756 009a 1E20     		mov	r0, #30
 757 009c FFF7FEFF 		bl	inv_androidSensor_enabled
 758              	.LVL88:
 759 00a0 0028     		cmp	r0, #0
 760 00a2 28D0     		beq	.L224
 761              		.loc 1 210 0 discriminator 7
 762 00a4 154B     		ldr	r3, .L268
 763 00a6 DA89     		ldrh	r2, [r3, #14]
 764 00a8 20E0     		b	.L267
 765              	.LVL89:
 766              	.L202:
 211:.\20648_driver\drivers/inv_mems_augmented_sensors.c **** 			*updatedDelayPtr = lDelayInMs;
 212:.\20648_driver\drivers/inv_mems_augmented_sensors.c **** 			break;
 213:.\20648_driver\drivers/inv_mems_augmented_sensors.c **** 		case ANDROID_SENSOR_ORIENTATION:
 214:.\20648_driver\drivers/inv_mems_augmented_sensors.c ****         case ANDROID_SENSOR_ROTATION_VECTOR:
 215:.\20648_driver\drivers/inv_mems_augmented_sensors.c **** 			AUGMENTED_SENSOR_GET_9QUAT_MIN_ODR(lDelayInMs);
 767              		.loc 1 215 0 is_stmt 1
 768 00aa 0320     		mov	r0, #3
 769              	.LVL90:
 770 00ac FFF7FEFF 		bl	inv_androidSensor_enabled
 771              	.LVL91:
 772 00b0 0028     		cmp	r0, #0
 773 00b2 02D0     		beq	.L228
 774              		.loc 1 215 0 is_stmt 0 discriminator 1
 775 00b4 114B     		ldr	r3, .L268
 776 00b6 DC88     		ldrh	r4, [r3, #6]
 777              	.LVL92:
 778 00b8 00E0     		b	.L218
ARM GAS  C:\Users\ADMINI~1\AppData\Local\Temp\ccBS4ngB.s 			page 19


 779              	.LVL93:
 780              	.L228:
 198:.\20648_driver\drivers/inv_mems_augmented_sensors.c **** 	switch(androidSensor)
 781              		.loc 1 198 0 is_stmt 1
 782 00ba 114C     		ldr	r4, .L268+4
 783              	.LVL94:
 784              	.L218:
 785              		.loc 1 215 0 discriminator 3
 786 00bc 0B20     		mov	r0, #11
 787 00be FFF7FEFF 		bl	inv_androidSensor_enabled
 788              	.LVL95:
 789 00c2 0028     		cmp	r0, #0
 790 00c4 17D0     		beq	.L224
 791              		.loc 1 215 0 is_stmt 0 discriminator 4
 792 00c6 0D4B     		ldr	r3, .L268
 793 00c8 1A89     		ldrh	r2, [r3, #8]
 794 00ca 0FE0     		b	.L267
 795              	.LVL96:
 796              	.L205:
 216:.\20648_driver\drivers/inv_mems_augmented_sensors.c **** 			*updatedDelayPtr = lDelayInMs;
 217:.\20648_driver\drivers/inv_mems_augmented_sensors.c **** 			break;
 218:.\20648_driver\drivers/inv_mems_augmented_sensors.c **** 		case ANDROID_SENSOR_WAKEUP_ORIENTATION:
 219:.\20648_driver\drivers/inv_mems_augmented_sensors.c ****         case ANDROID_SENSOR_WAKEUP_ROTATION_VECTOR:
 220:.\20648_driver\drivers/inv_mems_augmented_sensors.c **** 			AUGMENTED_SENSOR_GET_9QUATWU_MIN_ODR(lDelayInMs);
 797              		.loc 1 220 0 is_stmt 1
 798 00cc 1920     		mov	r0, #25
 799              	.LVL97:
 800 00ce FFF7FEFF 		bl	inv_androidSensor_enabled
 801              	.LVL98:
 802 00d2 0028     		cmp	r0, #0
 803 00d4 02D0     		beq	.L229
 804              		.loc 1 220 0 is_stmt 0 discriminator 1
 805 00d6 094B     		ldr	r3, .L268
 806 00d8 1C8A     		ldrh	r4, [r3, #16]
 807              	.LVL99:
 808 00da 00E0     		b	.L222
 809              	.LVL100:
 810              	.L229:
 198:.\20648_driver\drivers/inv_mems_augmented_sensors.c **** 	switch(androidSensor)
 811              		.loc 1 198 0 is_stmt 1
 812 00dc 084C     		ldr	r4, .L268+4
 813              	.LVL101:
 814              	.L222:
 815              		.loc 1 220 0 discriminator 3
 816 00de 1F20     		mov	r0, #31
 817 00e0 FFF7FEFF 		bl	inv_androidSensor_enabled
 818              	.LVL102:
 819 00e4 0028     		cmp	r0, #0
 820 00e6 06D0     		beq	.L224
 821              		.loc 1 220 0 is_stmt 0 discriminator 4
 822 00e8 044B     		ldr	r3, .L268
 823 00ea 5A8A     		ldrh	r2, [r3, #18]
 824              	.L267:
 825 00ec 231C     		add	r3, r4, #0
 826 00ee 9442     		cmp	r4, r2
 827 00f0 00D9     		bls	.L225
 828              	.LVL103:
ARM GAS  C:\Users\ADMINI~1\AppData\Local\Temp\ccBS4ngB.s 			page 20


 829 00f2 131C     		add	r3, r2, #0
 830              	.LVL104:
 831              	.L225:
 832 00f4 9CB2     		uxth	r4, r3
 833              	.LVL105:
 834              	.L224:
 221:.\20648_driver\drivers/inv_mems_augmented_sensors.c **** 			*updatedDelayPtr = lDelayInMs;
 835              		.loc 1 221 0 is_stmt 1
 836 00f6 2C80     		strh	r4, [r5]
 837              	.LVL106:
 838              	.L197:
 222:.\20648_driver\drivers/inv_mems_augmented_sensors.c **** 			break;
 223:.\20648_driver\drivers/inv_mems_augmented_sensors.c **** 		default :
 224:.\20648_driver\drivers/inv_mems_augmented_sensors.c **** 			break;
 225:.\20648_driver\drivers/inv_mems_augmented_sensors.c **** 	}
 226:.\20648_driver\drivers/inv_mems_augmented_sensors.c **** 
 227:.\20648_driver\drivers/inv_mems_augmented_sensors.c **** }
 839              		.loc 1 227 0
 840              		@ sp needed
 841              	.LVL107:
 842 00f8 38BD     		pop	{r3, r4, r5, pc}
 843              	.L269:
 844 00fa C046     		.align	2
 845              	.L268:
 846 00fc 00000000 		.word	.LANCHOR0
 847 0100 FFFF0000 		.word	65535
 848              		.cfi_endproc
 849              	.LFE8:
 850              		.size	inv_mems_augmented_sensors_update_odr, .-inv_mems_augmented_sensors_update_odr
 851              		.data
 852              		.align	1
 853              		.set	.LANCHOR0,. + 0
 854              		.type	sGravityOdrMs, %object
 855              		.size	sGravityOdrMs, 2
 856              	sGravityOdrMs:
 857 0000 FFFF     		.short	-1
 858              		.type	sGrvOdrMs, %object
 859              		.size	sGrvOdrMs, 2
 860              	sGrvOdrMs:
 861 0002 FFFF     		.short	-1
 862              		.type	sLinAccOdrMs, %object
 863              		.size	sLinAccOdrMs, 2
 864              	sLinAccOdrMs:
 865 0004 FFFF     		.short	-1
 866              		.type	sOriOdrMs, %object
 867              		.size	sOriOdrMs, 2
 868              	sOriOdrMs:
 869 0006 FFFF     		.short	-1
 870              		.type	sRvOdrMs, %object
 871              		.size	sRvOdrMs, 2
 872              	sRvOdrMs:
 873 0008 FFFF     		.short	-1
 874              		.type	sGravityWuOdrMs, %object
 875              		.size	sGravityWuOdrMs, 2
 876              	sGravityWuOdrMs:
 877 000a FFFF     		.short	-1
 878              		.type	sGrvWuOdrMs, %object
ARM GAS  C:\Users\ADMINI~1\AppData\Local\Temp\ccBS4ngB.s 			page 21


 879              		.size	sGrvWuOdrMs, 2
 880              	sGrvWuOdrMs:
 881 000c FFFF     		.short	-1
 882              		.type	sLinAccWuOdrMs, %object
 883              		.size	sLinAccWuOdrMs, 2
 884              	sLinAccWuOdrMs:
 885 000e FFFF     		.short	-1
 886              		.type	sOriWuOdrMs, %object
 887              		.size	sOriWuOdrMs, 2
 888              	sOriWuOdrMs:
 889 0010 FFFF     		.short	-1
 890              		.type	sRvWuOdrMs, %object
 891              		.size	sRvWuOdrMs, 2
 892              	sRvWuOdrMs:
 893 0012 FFFF     		.short	-1
 894              		.text
 895              	.Letext0:
 896              		.file 2 "./.\\20648_driver\\invn\\ml_math_func.h"
 897              		.file 3 "./.\\20648_driver\\drivers\\inv_mems_base_control.h"
 898              		.file 4 "./.\\20648_driver\\drivers\\inv_mems_defines.h"
 899              		.file 5 "./.\\20648_driver\\common\\mltypes.h"