ARM GAS  C:\Users\ADMINI~1\AppData\Local\Temp\ccp9or53.s 			page 1


   1              		.cpu cortex-m0
   2              		.fpu softvfp
   3              		.eabi_attribute 20, 1
   4              		.eabi_attribute 21, 1
   5              		.eabi_attribute 23, 3
   6              		.eabi_attribute 24, 1
   7              		.eabi_attribute 25, 1
   8              		.eabi_attribute 26, 1
   9              		.eabi_attribute 30, 4
  10              		.eabi_attribute 34, 0
  11              		.eabi_attribute 18, 4
  12              		.code	16
  13              		.file	"inv_mems_mpu_selftest.c"
  14              		.text
  15              	.Ltext0:
  16              		.cfi_sections	.debug_frame
  17              		.section	.text.inv_check_accelgyro_self_test,"ax",%progbits
  18              		.align	1
  19              		.code	16
  20              		.thumb_func
  21              		.type	inv_check_accelgyro_self_test, %function
  22              	inv_check_accelgyro_self_test:
  23              	.LFB2:
  24              		.file 1 ".\\20648_driver\\drivers\\inv_mems_mpu_selftest.c"
   1:.\20648_driver\drivers/inv_mems_mpu_selftest.c **** /*
   2:.\20648_driver\drivers/inv_mems_mpu_selftest.c **** * _________________________________________________________________________________________________
   3:.\20648_driver\drivers/inv_mems_mpu_selftest.c **** * Copyright © 2014-2015 InvenSense Inc. Portions Copyright © 2014-2015 Movea. All rights reserved.
   4:.\20648_driver\drivers/inv_mems_mpu_selftest.c **** * This software, related documentation and any modifications thereto (collectively “Software”) is s
   5:.\20648_driver\drivers/inv_mems_mpu_selftest.c **** * to InvenSense and its licensors' intellectual property rights under U.S. and international copyri
   6:.\20648_driver\drivers/inv_mems_mpu_selftest.c **** * other intellectual property rights laws.
   7:.\20648_driver\drivers/inv_mems_mpu_selftest.c **** * InvenSense and its licensors retain all intellectual property and proprietary rights in and to th
   8:.\20648_driver\drivers/inv_mems_mpu_selftest.c **** * and any use, reproduction, disclosure or distribution of the Software without an express license
   9:.\20648_driver\drivers/inv_mems_mpu_selftest.c **** * agreement from InvenSense is strictly prohibited.
  10:.\20648_driver\drivers/inv_mems_mpu_selftest.c **** * _________________________________________________________________________________________________
  11:.\20648_driver\drivers/inv_mems_mpu_selftest.c **** */
  12:.\20648_driver\drivers/inv_mems_mpu_selftest.c **** #ifndef MEMS_20609
  13:.\20648_driver\drivers/inv_mems_mpu_selftest.c **** 
  14:.\20648_driver\drivers/inv_mems_mpu_selftest.c **** #include ".\20648_driver\drivers\inv_mems_mpu_selftest.h"
  15:.\20648_driver\drivers/inv_mems_mpu_selftest.c **** 
  16:.\20648_driver\drivers/inv_mems_mpu_selftest.c **** #if (MEMS_CHIP == HW_ICM20648)
  17:.\20648_driver\drivers/inv_mems_mpu_selftest.c **** #include ".\20648_driver\drivers\inv_mems_defines.h"
  18:.\20648_driver\drivers/inv_mems_mpu_selftest.c **** #include ".\20648_driver\drivers\inv_mems_base_driver.h"
  19:.\20648_driver\drivers/inv_mems_mpu_selftest.c **** #include ".\20648_driver\common\inv_mems_drv_hook.h"
  20:.\20648_driver\drivers/inv_mems_mpu_selftest.c **** #include ".\20648_driver\drivers\inv_mems_transport.h"
  21:.\20648_driver\drivers/inv_mems_mpu_selftest.c **** #if defined MEMS_SECONDARY_DEVICE
  22:.\20648_driver\drivers/inv_mems_mpu_selftest.c **** #include "driver/inv_mems_slave_compass.h"
  23:.\20648_driver\drivers/inv_mems_mpu_selftest.c **** #endif
  24:.\20648_driver\drivers/inv_mems_mpu_selftest.c **** 
  25:.\20648_driver\drivers/inv_mems_mpu_selftest.c **** ////
  26:.\20648_driver\drivers/inv_mems_mpu_selftest.c **** extern int a_average[3];
  27:.\20648_driver\drivers/inv_mems_mpu_selftest.c **** extern int g_average[3];
  28:.\20648_driver\drivers/inv_mems_mpu_selftest.c **** 
  29:.\20648_driver\drivers/inv_mems_mpu_selftest.c **** /* full scale and LPF setting */
  30:.\20648_driver\drivers/inv_mems_mpu_selftest.c **** #define SELFTEST_GYRO_FS            ((0 << 3) | 1)
  31:.\20648_driver\drivers/inv_mems_mpu_selftest.c **** #define SELFTEST_ACCEL_FS           ((7 << 3) | 1)
  32:.\20648_driver\drivers/inv_mems_mpu_selftest.c **** 
  33:.\20648_driver\drivers/inv_mems_mpu_selftest.c **** /* register settings */
ARM GAS  C:\Users\ADMINI~1\AppData\Local\Temp\ccp9or53.s 			page 2


  34:.\20648_driver\drivers/inv_mems_mpu_selftest.c **** #define SELFTEST_GYRO_SMPLRT_DIV        10
  35:.\20648_driver\drivers/inv_mems_mpu_selftest.c **** #define SELFTEST_GYRO_AVGCFG        	3
  36:.\20648_driver\drivers/inv_mems_mpu_selftest.c **** #define SELFTEST_ACCEL_SMPLRT_DIV       10
  37:.\20648_driver\drivers/inv_mems_mpu_selftest.c **** #define SELFTEST_ACCEL_DEC3_CFG     	2
  38:.\20648_driver\drivers/inv_mems_mpu_selftest.c **** 
  39:.\20648_driver\drivers/inv_mems_mpu_selftest.c **** /* wait time in ms between 2 data collection */
  40:.\20648_driver\drivers/inv_mems_mpu_selftest.c **** #define WAIT_TIME_BTW_2_SAMPLESREAD     10
  41:.\20648_driver\drivers/inv_mems_mpu_selftest.c **** /* wait time in ms after sensor self-test enabling for oscillations to stabilize */
  42:.\20648_driver\drivers/inv_mems_mpu_selftest.c **** #define DEF_ST_STABLE_TIME              20 //ms
  43:.\20648_driver\drivers/inv_mems_mpu_selftest.c **** /* number of times self test reading should be done until abord */
  44:.\20648_driver\drivers/inv_mems_mpu_selftest.c **** #define DEF_ST_TRY_TIMES                2
  45:.\20648_driver\drivers/inv_mems_mpu_selftest.c **** /* number of samples to be read to be averaged */
  46:.\20648_driver\drivers/inv_mems_mpu_selftest.c **** #define DEF_ST_SAMPLES                  200
  47:.\20648_driver\drivers/inv_mems_mpu_selftest.c **** 
  48:.\20648_driver\drivers/inv_mems_mpu_selftest.c **** #define LOWER_BOUND_CHECK(value) ((value)>>1) // value * 0.5
  49:.\20648_driver\drivers/inv_mems_mpu_selftest.c **** #define UPPER_BOUND_CHECK(value) ((value) + ((value)>>1) ) // value * 1.5
  50:.\20648_driver\drivers/inv_mems_mpu_selftest.c **** 
  51:.\20648_driver\drivers/inv_mems_mpu_selftest.c **** struct recover_regs {
  52:.\20648_driver\drivers/inv_mems_mpu_selftest.c **** 	// Bank#0
  53:.\20648_driver\drivers/inv_mems_mpu_selftest.c **** 	uint8_t fifo_cfg;			// REG_FIFO_CFG
  54:.\20648_driver\drivers/inv_mems_mpu_selftest.c **** 	uint8_t user_ctrl;			// REG_USER_CTRL
  55:.\20648_driver\drivers/inv_mems_mpu_selftest.c **** 	uint8_t lp_config;			// REG_LP_CONFIG
  56:.\20648_driver\drivers/inv_mems_mpu_selftest.c **** 	uint8_t int_enable;			// REG_INT_ENABLE
  57:.\20648_driver\drivers/inv_mems_mpu_selftest.c **** 	uint8_t int_enable_1;		// REG_INT_ENABLE_1
  58:.\20648_driver\drivers/inv_mems_mpu_selftest.c ****     uint8_t int_enable_2;       // REG_INT_ENABLE_2
  59:.\20648_driver\drivers/inv_mems_mpu_selftest.c **** 	uint8_t fifo_en;				// REG_FIFO_EN
  60:.\20648_driver\drivers/inv_mems_mpu_selftest.c **** 	uint8_t fifo_en_2;			// REG_FIFO_EN_2
  61:.\20648_driver\drivers/inv_mems_mpu_selftest.c **** 	uint8_t fifo_rst;			// REG_FIFO_RST
  62:.\20648_driver\drivers/inv_mems_mpu_selftest.c ****     
  63:.\20648_driver\drivers/inv_mems_mpu_selftest.c **** 	// Bank#2
  64:.\20648_driver\drivers/inv_mems_mpu_selftest.c **** 	uint8_t gyro_smplrt_div;		// REG_GYRO_SMPLRT_DIV
  65:.\20648_driver\drivers/inv_mems_mpu_selftest.c **** 	uint8_t gyro_config_1;		// REG_GYRO_CONFIG_1
  66:.\20648_driver\drivers/inv_mems_mpu_selftest.c **** 	uint8_t gyro_config_2;		// REG_GYRO_CONFIG_2
  67:.\20648_driver\drivers/inv_mems_mpu_selftest.c **** 	uint8_t accel_smplrt_div_1;	// REG_ACCEL_SMPLRT_DIV_1
  68:.\20648_driver\drivers/inv_mems_mpu_selftest.c **** 	uint8_t accel_smplrt_div_2;	// REG_ACCEL_SMPLRT_DIV_2
  69:.\20648_driver\drivers/inv_mems_mpu_selftest.c **** 	uint8_t accel_config;		// REG_ACCEL_CONFIG
  70:.\20648_driver\drivers/inv_mems_mpu_selftest.c **** 	uint8_t accel_config_2;		// REG_ACCEL_CONFIG_2
  71:.\20648_driver\drivers/inv_mems_mpu_selftest.c **** };
  72:.\20648_driver\drivers/inv_mems_mpu_selftest.c **** static struct recover_regs saved_regs;
  73:.\20648_driver\drivers/inv_mems_mpu_selftest.c **** 
  74:.\20648_driver\drivers/inv_mems_mpu_selftest.c **** static uint8_t gyro_st_data[3] = {0};
  75:.\20648_driver\drivers/inv_mems_mpu_selftest.c **** static uint8_t accel_st_data[3] = {0};
  76:.\20648_driver\drivers/inv_mems_mpu_selftest.c **** 
  77:.\20648_driver\drivers/inv_mems_mpu_selftest.c **** // Table for list of results for factory self-test value equation
  78:.\20648_driver\drivers/inv_mems_mpu_selftest.c **** // st_otp = 2620/2^FS * 1.01^(st_value - 1)
  79:.\20648_driver\drivers/inv_mems_mpu_selftest.c **** // for gyro and accel FS = 0 so 2620 * 1.01^(st_value - 1)
  80:.\20648_driver\drivers/inv_mems_mpu_selftest.c **** // st_value = 1 => 2620
  81:.\20648_driver\drivers/inv_mems_mpu_selftest.c **** // st_value = 2 => 2620 * 1.01 = 2646
  82:.\20648_driver\drivers/inv_mems_mpu_selftest.c **** // etc../
  83:.\20648_driver\drivers/inv_mems_mpu_selftest.c **** static const uint16_t sSelfTestEquation[256] = {
  84:.\20648_driver\drivers/inv_mems_mpu_selftest.c **** 	2620, 2646, 2672, 2699, 2726, 2753, 2781, 2808,
  85:.\20648_driver\drivers/inv_mems_mpu_selftest.c **** 	2837, 2865, 2894, 2923, 2952, 2981, 3011, 3041,
  86:.\20648_driver\drivers/inv_mems_mpu_selftest.c **** 	3072, 3102, 3133, 3165, 3196, 3228, 3261, 3293,
  87:.\20648_driver\drivers/inv_mems_mpu_selftest.c **** 	3326, 3359, 3393, 3427, 3461, 3496, 3531, 3566,
  88:.\20648_driver\drivers/inv_mems_mpu_selftest.c **** 	3602, 3638, 3674, 3711, 3748, 3786, 3823, 3862,
  89:.\20648_driver\drivers/inv_mems_mpu_selftest.c **** 	3900, 3939, 3979, 4019, 4059, 4099, 4140, 4182,
  90:.\20648_driver\drivers/inv_mems_mpu_selftest.c **** 	4224, 4266, 4308, 4352, 4395, 4439, 4483, 4528,
ARM GAS  C:\Users\ADMINI~1\AppData\Local\Temp\ccp9or53.s 			page 3


  91:.\20648_driver\drivers/inv_mems_mpu_selftest.c **** 	4574, 4619, 4665, 4712, 4759, 4807, 4855, 4903,
  92:.\20648_driver\drivers/inv_mems_mpu_selftest.c **** 	4953, 5002, 5052, 5103, 5154, 5205, 5257, 5310,
  93:.\20648_driver\drivers/inv_mems_mpu_selftest.c **** 	5363, 5417, 5471, 5525, 5581, 5636, 5693, 5750,
  94:.\20648_driver\drivers/inv_mems_mpu_selftest.c **** 	5807, 5865, 5924, 5983, 6043, 6104, 6165, 6226,
  95:.\20648_driver\drivers/inv_mems_mpu_selftest.c **** 	6289, 6351, 6415, 6479, 6544, 6609, 6675, 6742,
  96:.\20648_driver\drivers/inv_mems_mpu_selftest.c **** 	6810, 6878, 6946, 7016, 7086, 7157, 7229, 7301,
  97:.\20648_driver\drivers/inv_mems_mpu_selftest.c **** 	7374, 7448, 7522, 7597, 7673, 7750, 7828, 7906,
  98:.\20648_driver\drivers/inv_mems_mpu_selftest.c **** 	7985, 8065, 8145, 8227, 8309, 8392, 8476, 8561,
  99:.\20648_driver\drivers/inv_mems_mpu_selftest.c **** 	8647, 8733, 8820, 8909, 8998, 9088, 9178, 9270,
 100:.\20648_driver\drivers/inv_mems_mpu_selftest.c **** 	9363, 9457, 9551, 9647, 9743, 9841, 9939, 10038,
 101:.\20648_driver\drivers/inv_mems_mpu_selftest.c **** 	10139, 10240, 10343, 10446, 10550, 10656, 10763, 10870,
 102:.\20648_driver\drivers/inv_mems_mpu_selftest.c **** 	10979, 11089, 11200, 11312, 11425, 11539, 11654, 11771,
 103:.\20648_driver\drivers/inv_mems_mpu_selftest.c **** 	11889, 12008, 12128, 12249, 12371, 12495, 12620, 12746,
 104:.\20648_driver\drivers/inv_mems_mpu_selftest.c **** 	12874, 13002, 13132, 13264, 13396, 13530, 13666, 13802,
 105:.\20648_driver\drivers/inv_mems_mpu_selftest.c **** 	13940, 14080, 14221, 14363, 14506, 14652, 14798, 14946,
 106:.\20648_driver\drivers/inv_mems_mpu_selftest.c **** 	15096, 15247, 15399, 15553, 15709, 15866, 16024, 16184,
 107:.\20648_driver\drivers/inv_mems_mpu_selftest.c **** 	16346, 16510, 16675, 16842, 17010, 17180, 17352, 17526,
 108:.\20648_driver\drivers/inv_mems_mpu_selftest.c **** 	17701, 17878, 18057, 18237, 18420, 18604, 18790, 18978,
 109:.\20648_driver\drivers/inv_mems_mpu_selftest.c **** 	19167, 19359, 19553, 19748, 19946, 20145, 20347, 20550,
 110:.\20648_driver\drivers/inv_mems_mpu_selftest.c **** 	20756, 20963, 21173, 21385, 21598, 21814, 22033, 22253,
 111:.\20648_driver\drivers/inv_mems_mpu_selftest.c **** 	22475, 22700, 22927, 23156, 23388, 23622, 23858, 24097,
 112:.\20648_driver\drivers/inv_mems_mpu_selftest.c **** 	24338, 24581, 24827, 25075, 25326, 25579, 25835, 26093,
 113:.\20648_driver\drivers/inv_mems_mpu_selftest.c **** 	26354, 26618, 26884, 27153, 27424, 27699, 27976, 28255,
 114:.\20648_driver\drivers/inv_mems_mpu_selftest.c **** 	28538, 28823, 29112, 29403, 29697, 29994, 30294, 30597,
 115:.\20648_driver\drivers/inv_mems_mpu_selftest.c **** 	30903, 31212, 31524, 31839, 32157, 32479, 32804
 116:.\20648_driver\drivers/inv_mems_mpu_selftest.c **** };
 117:.\20648_driver\drivers/inv_mems_mpu_selftest.c **** 
 118:.\20648_driver\drivers/inv_mems_mpu_selftest.c **** static inv_error_t inv_save_setting()
 119:.\20648_driver\drivers/inv_mems_mpu_selftest.c **** {
 120:.\20648_driver\drivers/inv_mems_mpu_selftest.c **** 	inv_error_t result = 0;
 121:.\20648_driver\drivers/inv_mems_mpu_selftest.c **** 
 122:.\20648_driver\drivers/inv_mems_mpu_selftest.c **** 	result |= inv_read_mems_reg(REG_FIFO_CFG, 1, &saved_regs.fifo_cfg);
 123:.\20648_driver\drivers/inv_mems_mpu_selftest.c **** 
 124:.\20648_driver\drivers/inv_mems_mpu_selftest.c **** 	result |= inv_read_mems_reg(REG_USER_CTRL, 1, &saved_regs.user_ctrl);
 125:.\20648_driver\drivers/inv_mems_mpu_selftest.c **** 
 126:.\20648_driver\drivers/inv_mems_mpu_selftest.c **** 	result = inv_read_mems_reg(REG_LP_CONFIG, 1, &saved_regs.lp_config);
 127:.\20648_driver\drivers/inv_mems_mpu_selftest.c **** 
 128:.\20648_driver\drivers/inv_mems_mpu_selftest.c **** 	result |= inv_read_mems_reg(REG_INT_ENABLE, 1, &saved_regs.int_enable);
 129:.\20648_driver\drivers/inv_mems_mpu_selftest.c **** 	
 130:.\20648_driver\drivers/inv_mems_mpu_selftest.c **** 	result |= inv_read_mems_reg(REG_INT_ENABLE_1, 1, &saved_regs.int_enable_1);
 131:.\20648_driver\drivers/inv_mems_mpu_selftest.c **** 
 132:.\20648_driver\drivers/inv_mems_mpu_selftest.c ****     result |= inv_read_mems_reg(REG_INT_ENABLE_2, 1, &saved_regs.int_enable_2);
 133:.\20648_driver\drivers/inv_mems_mpu_selftest.c **** 
 134:.\20648_driver\drivers/inv_mems_mpu_selftest.c **** 	result |= inv_read_mems_reg(REG_FIFO_EN, 1, &saved_regs.fifo_en);
 135:.\20648_driver\drivers/inv_mems_mpu_selftest.c **** 
 136:.\20648_driver\drivers/inv_mems_mpu_selftest.c **** 	result |= inv_read_mems_reg(REG_FIFO_EN_2, 1, &saved_regs.fifo_en_2);
 137:.\20648_driver\drivers/inv_mems_mpu_selftest.c **** 
 138:.\20648_driver\drivers/inv_mems_mpu_selftest.c **** 	result |= inv_read_mems_reg(REG_FIFO_RST, 1, &saved_regs.fifo_rst);
 139:.\20648_driver\drivers/inv_mems_mpu_selftest.c **** 
 140:.\20648_driver\drivers/inv_mems_mpu_selftest.c **** 	result |= inv_read_mems_reg(REG_GYRO_SMPLRT_DIV, 1, &saved_regs.gyro_smplrt_div);
 141:.\20648_driver\drivers/inv_mems_mpu_selftest.c **** 
 142:.\20648_driver\drivers/inv_mems_mpu_selftest.c **** 	result |= inv_read_mems_reg(REG_GYRO_CONFIG_1, 1, &saved_regs.gyro_config_1);
 143:.\20648_driver\drivers/inv_mems_mpu_selftest.c **** 
 144:.\20648_driver\drivers/inv_mems_mpu_selftest.c **** 	result |= inv_read_mems_reg(REG_GYRO_CONFIG_2, 1, &saved_regs.gyro_config_2);
 145:.\20648_driver\drivers/inv_mems_mpu_selftest.c **** 
 146:.\20648_driver\drivers/inv_mems_mpu_selftest.c **** 	result |= inv_read_mems_reg(REG_ACCEL_SMPLRT_DIV_1, 1, &saved_regs.accel_smplrt_div_1);
 147:.\20648_driver\drivers/inv_mems_mpu_selftest.c **** 
ARM GAS  C:\Users\ADMINI~1\AppData\Local\Temp\ccp9or53.s 			page 4


 148:.\20648_driver\drivers/inv_mems_mpu_selftest.c **** 	result |= inv_read_mems_reg(REG_ACCEL_SMPLRT_DIV_2, 1, &saved_regs.accel_smplrt_div_2);
 149:.\20648_driver\drivers/inv_mems_mpu_selftest.c **** 
 150:.\20648_driver\drivers/inv_mems_mpu_selftest.c **** 	result |= inv_read_mems_reg(REG_ACCEL_CONFIG, 1, &saved_regs.accel_config);
 151:.\20648_driver\drivers/inv_mems_mpu_selftest.c **** 
 152:.\20648_driver\drivers/inv_mems_mpu_selftest.c **** 	result |= inv_read_mems_reg(REG_ACCEL_CONFIG_2, 1, &saved_regs.accel_config_2);
 153:.\20648_driver\drivers/inv_mems_mpu_selftest.c **** 
 154:.\20648_driver\drivers/inv_mems_mpu_selftest.c **** 	return result;
 155:.\20648_driver\drivers/inv_mems_mpu_selftest.c **** }
 156:.\20648_driver\drivers/inv_mems_mpu_selftest.c **** 
 157:.\20648_driver\drivers/inv_mems_mpu_selftest.c **** static inv_error_t inv_recover_setting()
 158:.\20648_driver\drivers/inv_mems_mpu_selftest.c **** {
 159:.\20648_driver\drivers/inv_mems_mpu_selftest.c **** 	inv_error_t result = 0;
 160:.\20648_driver\drivers/inv_mems_mpu_selftest.c **** 
 161:.\20648_driver\drivers/inv_mems_mpu_selftest.c **** 	// Stop sensors
 162:.\20648_driver\drivers/inv_mems_mpu_selftest.c ****     result |= inv_write_single_mems_reg(REG_PWR_MGMT_2, 
 163:.\20648_driver\drivers/inv_mems_mpu_selftest.c ****                                      BIT_PWR_PRESSURE_STBY | BIT_PWR_ACCEL_STBY | BIT_PWR_GYRO_STBY
 164:.\20648_driver\drivers/inv_mems_mpu_selftest.c **** 
 165:.\20648_driver\drivers/inv_mems_mpu_selftest.c **** 	// Restore sensor configurations
 166:.\20648_driver\drivers/inv_mems_mpu_selftest.c **** 	result |= inv_write_single_mems_reg(REG_GYRO_SMPLRT_DIV, saved_regs.gyro_smplrt_div);
 167:.\20648_driver\drivers/inv_mems_mpu_selftest.c **** 	
 168:.\20648_driver\drivers/inv_mems_mpu_selftest.c **** 	result |= inv_write_single_mems_reg(REG_GYRO_CONFIG_1, saved_regs.gyro_config_1);
 169:.\20648_driver\drivers/inv_mems_mpu_selftest.c **** 
 170:.\20648_driver\drivers/inv_mems_mpu_selftest.c **** 	result |= inv_write_single_mems_reg(REG_GYRO_CONFIG_2, saved_regs.gyro_config_2);
 171:.\20648_driver\drivers/inv_mems_mpu_selftest.c **** 	
 172:.\20648_driver\drivers/inv_mems_mpu_selftest.c **** 	result |= inv_write_single_mems_reg(REG_ACCEL_SMPLRT_DIV_1, saved_regs.accel_smplrt_div_1);
 173:.\20648_driver\drivers/inv_mems_mpu_selftest.c **** 
 174:.\20648_driver\drivers/inv_mems_mpu_selftest.c **** 	result |= inv_write_single_mems_reg(REG_ACCEL_SMPLRT_DIV_2, saved_regs.accel_smplrt_div_2);
 175:.\20648_driver\drivers/inv_mems_mpu_selftest.c **** 
 176:.\20648_driver\drivers/inv_mems_mpu_selftest.c **** 	result |= inv_write_single_mems_reg(REG_ACCEL_CONFIG, saved_regs.accel_config);
 177:.\20648_driver\drivers/inv_mems_mpu_selftest.c **** 
 178:.\20648_driver\drivers/inv_mems_mpu_selftest.c **** 	result |= inv_write_single_mems_reg(REG_ACCEL_CONFIG_2, saved_regs.accel_config_2);
 179:.\20648_driver\drivers/inv_mems_mpu_selftest.c **** 
 180:.\20648_driver\drivers/inv_mems_mpu_selftest.c **** 	// Restore FIFO configurations
 181:.\20648_driver\drivers/inv_mems_mpu_selftest.c **** 	result |= inv_write_single_mems_reg(REG_FIFO_CFG, saved_regs.fifo_cfg);
 182:.\20648_driver\drivers/inv_mems_mpu_selftest.c **** 
 183:.\20648_driver\drivers/inv_mems_mpu_selftest.c **** 	result |= inv_write_single_mems_reg(REG_LP_CONFIG, saved_regs.lp_config);
 184:.\20648_driver\drivers/inv_mems_mpu_selftest.c **** 
 185:.\20648_driver\drivers/inv_mems_mpu_selftest.c **** 	result |= inv_write_single_mems_reg(REG_INT_ENABLE, saved_regs.int_enable);
 186:.\20648_driver\drivers/inv_mems_mpu_selftest.c **** 
 187:.\20648_driver\drivers/inv_mems_mpu_selftest.c **** 	result |= inv_write_single_mems_reg(REG_INT_ENABLE_1, saved_regs.int_enable_1);
 188:.\20648_driver\drivers/inv_mems_mpu_selftest.c **** 
 189:.\20648_driver\drivers/inv_mems_mpu_selftest.c **** 	result |= inv_write_single_mems_reg(REG_FIFO_EN, saved_regs.fifo_en);
 190:.\20648_driver\drivers/inv_mems_mpu_selftest.c **** 
 191:.\20648_driver\drivers/inv_mems_mpu_selftest.c **** 	result |= inv_write_single_mems_reg(REG_FIFO_EN_2, saved_regs.fifo_en_2);
 192:.\20648_driver\drivers/inv_mems_mpu_selftest.c **** 
 193:.\20648_driver\drivers/inv_mems_mpu_selftest.c **** 	result |= inv_write_single_mems_reg(REG_FIFO_RST, MAX_5_BIT_VALUE);
 194:.\20648_driver\drivers/inv_mems_mpu_selftest.c **** 
 195:.\20648_driver\drivers/inv_mems_mpu_selftest.c **** 	result |= inv_write_single_mems_reg(REG_FIFO_RST, saved_regs.fifo_rst);
 196:.\20648_driver\drivers/inv_mems_mpu_selftest.c **** 
 197:.\20648_driver\drivers/inv_mems_mpu_selftest.c **** 	// Reset DMP
 198:.\20648_driver\drivers/inv_mems_mpu_selftest.c **** 	result |= inv_write_single_mems_reg(REG_USER_CTRL, 
 199:.\20648_driver\drivers/inv_mems_mpu_selftest.c ****                                      (saved_regs.user_ctrl & (~BIT_FIFO_EN)) | BIT_DMP_RST);
 200:.\20648_driver\drivers/inv_mems_mpu_selftest.c **** 	inv_sleep(DMP_RESET_TIME);
 201:.\20648_driver\drivers/inv_mems_mpu_selftest.c ****     
 202:.\20648_driver\drivers/inv_mems_mpu_selftest.c ****     result |=inv_set_dmp_address();
 203:.\20648_driver\drivers/inv_mems_mpu_selftest.c **** #if (MEMS_CHIP != HW_ICM20609)
 204:.\20648_driver\drivers/inv_mems_mpu_selftest.c ****     result |=inv_set_secondary();
ARM GAS  C:\Users\ADMINI~1\AppData\Local\Temp\ccp9or53.s 			page 5


 205:.\20648_driver\drivers/inv_mems_mpu_selftest.c **** #endif
 206:.\20648_driver\drivers/inv_mems_mpu_selftest.c **** #if defined MEMS_SECONDARY_DEVICE
 207:.\20648_driver\drivers/inv_mems_mpu_selftest.c ****     result |=inv_setup_compass_akm();
 208:.\20648_driver\drivers/inv_mems_mpu_selftest.c **** #endif    
 209:.\20648_driver\drivers/inv_mems_mpu_selftest.c ****     result |= inv_sleep_mems();
 210:.\20648_driver\drivers/inv_mems_mpu_selftest.c **** 	return result;
 211:.\20648_driver\drivers/inv_mems_mpu_selftest.c **** }
 212:.\20648_driver\drivers/inv_mems_mpu_selftest.c **** 
 213:.\20648_driver\drivers/inv_mems_mpu_selftest.c **** /**
 214:.\20648_driver\drivers/inv_mems_mpu_selftest.c **** *  @brief check accel or gyro self test
 215:.\20648_driver\drivers/inv_mems_mpu_selftest.c **** *  @param[in] sensorType type of sensor to be tested
 216:.\20648_driver\drivers/inv_mems_mpu_selftest.c **** *  @param[in] selfTestValuesReadFromReg self test written in register at production time.
 217:.\20648_driver\drivers/inv_mems_mpu_selftest.c **** *  @param[in] meanNormalTestValues average value of normal test.
 218:.\20648_driver\drivers/inv_mems_mpu_selftest.c **** *  @param[in] meanSelfTestValues   average value of self test
 219:.\20648_driver\drivers/inv_mems_mpu_selftest.c **** *  @return zero as success. A non-zero return value indicates failure in self test.
 220:.\20648_driver\drivers/inv_mems_mpu_selftest.c **** */
 221:.\20648_driver\drivers/inv_mems_mpu_selftest.c **** static int inv_check_accelgyro_self_test(enum INV_SENSORS sensorType, uint8_t * selfTestValuesReadF
 222:.\20648_driver\drivers/inv_mems_mpu_selftest.c **** {
  25              		.loc 1 222 0
  26              		.cfi_startproc
  27              	.LVL0:
  28 0000 F0B5     		push	{r4, r5, r6, r7, lr}
  29              		.cfi_def_cfa_offset 20
  30              		.cfi_offset 4, -20
  31              		.cfi_offset 5, -16
  32              		.cfi_offset 6, -12
  33              		.cfi_offset 7, -8
  34              		.cfi_offset 14, -4
 223:.\20648_driver\drivers/inv_mems_mpu_selftest.c ****     int ret_val;
 224:.\20648_driver\drivers/inv_mems_mpu_selftest.c ****     int lIsStOtpReadZero = 0;
 225:.\20648_driver\drivers/inv_mems_mpu_selftest.c ****     int l_st_otp_read[3], lDiffNormalStValues[3], i;
 226:.\20648_driver\drivers/inv_mems_mpu_selftest.c ****     
 227:.\20648_driver\drivers/inv_mems_mpu_selftest.c ****     ret_val = 0;
 228:.\20648_driver\drivers/inv_mems_mpu_selftest.c ****     
 229:.\20648_driver\drivers/inv_mems_mpu_selftest.c ****     // Calculate factory Self-Test value (ST_OTP) based on the following equation:
 230:.\20648_driver\drivers/inv_mems_mpu_selftest.c ****     // The factory Self-Test value (ST_OTP) is calculated from the ST_Code (the SELF_TEST values re
 231:.\20648_driver\drivers/inv_mems_mpu_selftest.c ****     // using the following equation, where “FS” is the full scale value code:
 232:.\20648_driver\drivers/inv_mems_mpu_selftest.c ****     // st_otp = 2620/2^FS * 1.01^(st_value - 1)
 233:.\20648_driver\drivers/inv_mems_mpu_selftest.c ****     // the result of the equation is in sSelfTestEquation array
 234:.\20648_driver\drivers/inv_mems_mpu_selftest.c ****     for (i = 0; i < 3; i++) {
  35              		.loc 1 234 0
  36 0002 0025     		mov	r5, #0
 224:.\20648_driver\drivers/inv_mems_mpu_selftest.c ****     int l_st_otp_read[3], lDiffNormalStValues[3], i;
  37              		.loc 1 224 0
  38 0004 AC46     		mov	ip, r5
 222:.\20648_driver\drivers/inv_mems_mpu_selftest.c ****     int ret_val;
  39              		.loc 1 222 0
  40 0006 87B0     		sub	sp, sp, #28
  41              		.cfi_def_cfa_offset 48
 222:.\20648_driver\drivers/inv_mems_mpu_selftest.c ****     int ret_val;
  42              		.loc 1 222 0
  43 0008 0193     		str	r3, [sp, #4]
  44              	.LVL1:
  45              	.L4:
 235:.\20648_driver\drivers/inv_mems_mpu_selftest.c ****         if (selfTestValuesReadFromReg[i] != 0) {
  46              		.loc 1 235 0
  47 000a 4C5D     		ldrb	r4, [r1, r5]
ARM GAS  C:\Users\ADMINI~1\AppData\Local\Temp\ccp9or53.s 			page 6


  48 000c 03AF     		add	r7, sp, #12
  49 000e AE00     		lsl	r6, r5, #2
  50 0010 002C     		cmp	r4, #0
  51 0012 05D0     		beq	.L2
 236:.\20648_driver\drivers/inv_mems_mpu_selftest.c ****             l_st_otp_read[i] = sSelfTestEquation[selfTestValuesReadFromReg[i] - 1];
  52              		.loc 1 236 0
  53 0014 013C     		sub	r4, r4, #1
  54 0016 134B     		ldr	r3, .L13
  55 0018 6400     		lsl	r4, r4, #1
  56 001a E45A     		ldrh	r4, [r4, r3]
  57 001c BC51     		str	r4, [r7, r6]
  58 001e 02E0     		b	.L3
  59              	.L2:
 237:.\20648_driver\drivers/inv_mems_mpu_selftest.c ****         } else {
 238:.\20648_driver\drivers/inv_mems_mpu_selftest.c ****             l_st_otp_read[i] = 0;
 239:.\20648_driver\drivers/inv_mems_mpu_selftest.c ****             lIsStOtpReadZero = 1;
  60              		.loc 1 239 0
  61 0020 0123     		mov	r3, #1
  62 0022 9C46     		mov	ip, r3
  63              	.LVL2:
 238:.\20648_driver\drivers/inv_mems_mpu_selftest.c ****             lIsStOtpReadZero = 1;
  64              		.loc 1 238 0
  65 0024 BC51     		str	r4, [r7, r6]
  66              	.LVL3:
  67              	.L3:
 234:.\20648_driver\drivers/inv_mems_mpu_selftest.c ****         if (selfTestValuesReadFromReg[i] != 0) {
  68              		.loc 1 234 0 discriminator 2
  69 0026 0135     		add	r5, r5, #1
  70              	.LVL4:
  71 0028 032D     		cmp	r5, #3
  72 002a EED1     		bne	.L4
  73              	.LVL5:
 234:.\20648_driver\drivers/inv_mems_mpu_selftest.c ****         if (selfTestValuesReadFromReg[i] != 0) {
  74              		.loc 1 234 0 is_stmt 0
  75 002c 0021     		mov	r1, #0
  76              	.LVL6:
  77 002e 0C1C     		mov	r4, r1
  78              	.LVL7:
  79              	.L7:
 240:.\20648_driver\drivers/inv_mems_mpu_selftest.c ****         }
 241:.\20648_driver\drivers/inv_mems_mpu_selftest.c ****     }
 242:.\20648_driver\drivers/inv_mems_mpu_selftest.c ****     
 243:.\20648_driver\drivers/inv_mems_mpu_selftest.c ****     // Calculate the Self-Test response as follows:
 244:.\20648_driver\drivers/inv_mems_mpu_selftest.c ****     // - GXST = GX_ST_OS - GX_OS
 245:.\20648_driver\drivers/inv_mems_mpu_selftest.c ****     // - GYST = GY_ST_OS - GY_OS
 246:.\20648_driver\drivers/inv_mems_mpu_selftest.c ****     // - GZST = GZ_ST_OS - GZ_OS
 247:.\20648_driver\drivers/inv_mems_mpu_selftest.c ****     // - AXST = AX_ST_OS - AX_OS
 248:.\20648_driver\drivers/inv_mems_mpu_selftest.c ****     // - AYST = AY_ST_OS - AY_OS
 249:.\20648_driver\drivers/inv_mems_mpu_selftest.c ****     // - AZST = AZ_ST_OS - AZ_OS
 250:.\20648_driver\drivers/inv_mems_mpu_selftest.c ****     for (i = 0; i < 3; i++) {
 251:.\20648_driver\drivers/inv_mems_mpu_selftest.c ****         lDiffNormalStValues[i] = meanSelfTestValues[i] - meanNormalTestValues[i];
  80              		.loc 1 251 0 is_stmt 1
  81 0030 019B     		ldr	r3, [sp, #4]
  82 0032 5558     		ldr	r5, [r2, r1]
  83 0034 5E58     		ldr	r6, [r3, r1]
 252:.\20648_driver\drivers/inv_mems_mpu_selftest.c ****         
 253:.\20648_driver\drivers/inv_mems_mpu_selftest.c ****         // Ensure the factory Self-Test values ST_OTP are not 0
ARM GAS  C:\Users\ADMINI~1\AppData\Local\Temp\ccp9or53.s 			page 7


 254:.\20648_driver\drivers/inv_mems_mpu_selftest.c ****         if (!lIsStOtpReadZero) {
  84              		.loc 1 254 0
  85 0036 6346     		mov	r3, ip
  86 0038 002B     		cmp	r3, #0
  87 003a 0BD1     		bne	.L8
  88              	.LVL8:
 251:.\20648_driver\drivers/inv_mems_mpu_selftest.c ****         
  89              		.loc 1 251 0
  90 003c 761B     		sub	r6, r6, r5
 255:.\20648_driver\drivers/inv_mems_mpu_selftest.c ****             // Compare the current Self-Test response (GXST, GYST, GZST, AXST, AYST and AZST) to th
 256:.\20648_driver\drivers/inv_mems_mpu_selftest.c ****             // and report Self-Test is passing if all the following criteria are fulfilled:
 257:.\20648_driver\drivers/inv_mems_mpu_selftest.c ****             // (GXST / GXST_OTP)  > 0.5
 258:.\20648_driver\drivers/inv_mems_mpu_selftest.c ****             if (lDiffNormalStValues[i] < LOWER_BOUND_CHECK(l_st_otp_read[i]) )
  91              		.loc 1 258 0
  92 003e 03AD     		add	r5, sp, #12
  93 0040 4F59     		ldr	r7, [r1, r5]
  94 0042 7D10     		asr	r5, r7, #1
  95 0044 AE42     		cmp	r6, r5
  96 0046 00DA     		bge	.L6
 259:.\20648_driver\drivers/inv_mems_mpu_selftest.c ****                 ret_val = 1;
  97              		.loc 1 259 0
  98 0048 0124     		mov	r4, #1
  99              	.LVL9:
 100              	.L6:
 260:.\20648_driver\drivers/inv_mems_mpu_selftest.c ****             if (sensorType != INV_SENSOR_GYRO)
 101              		.loc 1 260 0
 102 004a 0128     		cmp	r0, #1
 103 004c 03D0     		beq	.L5
 261:.\20648_driver\drivers/inv_mems_mpu_selftest.c **** 				// (AXST / AXST_OTP)  < 1.5
 262:.\20648_driver\drivers/inv_mems_mpu_selftest.c ****                 if (lDiffNormalStValues[i] > UPPER_BOUND_CHECK(l_st_otp_read[i]) )
 104              		.loc 1 262 0
 105 004e 7D19     		add	r5, r7, r5
 106 0050 AE42     		cmp	r6, r5
 107 0052 00DD     		ble	.L5
 108              	.L8:
 263:.\20648_driver\drivers/inv_mems_mpu_selftest.c ****                     ret_val = 1;
 264:.\20648_driver\drivers/inv_mems_mpu_selftest.c ****         } else
 265:.\20648_driver\drivers/inv_mems_mpu_selftest.c ****             ret_val = 1;
 109              		.loc 1 265 0
 110 0054 0124     		mov	r4, #1
 111              	.LVL10:
 112              	.L5:
 113 0056 0431     		add	r1, r1, #4
 250:.\20648_driver\drivers/inv_mems_mpu_selftest.c ****         lDiffNormalStValues[i] = meanSelfTestValues[i] - meanNormalTestValues[i];
 114              		.loc 1 250 0 discriminator 2
 115 0058 0C29     		cmp	r1, #12
 116 005a E9D1     		bne	.L7
 266:.\20648_driver\drivers/inv_mems_mpu_selftest.c ****     }
 267:.\20648_driver\drivers/inv_mems_mpu_selftest.c ****     
 268:.\20648_driver\drivers/inv_mems_mpu_selftest.c ****     return ret_val;
 269:.\20648_driver\drivers/inv_mems_mpu_selftest.c **** }
 117              		.loc 1 269 0
 118 005c 201C     		mov	r0, r4
 119              	.LVL11:
 120 005e 07B0     		add	sp, sp, #28
 121              		@ sp needed
 122              	.LVL12:
ARM GAS  C:\Users\ADMINI~1\AppData\Local\Temp\ccp9or53.s 			page 8


 123 0060 F0BD     		pop	{r4, r5, r6, r7, pc}
 124              	.L14:
 125 0062 C046     		.align	2
 126              	.L13:
 127 0064 00000000 		.word	.LANCHOR0
 128              		.cfi_endproc
 129              	.LFE2:
 130              		.size	inv_check_accelgyro_self_test, .-inv_check_accelgyro_self_test
 131              		.section	.text.inv_selftest_read_samples,"ax",%progbits
 132              		.align	1
 133              		.code	16
 134              		.thumb_func
 135              		.type	inv_selftest_read_samples, %function
 136              	inv_selftest_read_samples:
 137              	.LFB4:
 270:.\20648_driver\drivers/inv_mems_mpu_selftest.c **** 
 271:.\20648_driver\drivers/inv_mems_mpu_selftest.c **** static inv_error_t inv_setup_selftest()
 272:.\20648_driver\drivers/inv_mems_mpu_selftest.c **** {
 273:.\20648_driver\drivers/inv_mems_mpu_selftest.c **** 	inv_error_t result = 0;
 274:.\20648_driver\drivers/inv_mems_mpu_selftest.c **** 
 275:.\20648_driver\drivers/inv_mems_mpu_selftest.c **** 	// Wake up
 276:.\20648_driver\drivers/inv_mems_mpu_selftest.c ****     result |= inv_write_single_mems_reg(REG_PWR_MGMT_1, BIT_CLK_PLL);
 277:.\20648_driver\drivers/inv_mems_mpu_selftest.c ****     
 278:.\20648_driver\drivers/inv_mems_mpu_selftest.c **** 	// Save the current settings
 279:.\20648_driver\drivers/inv_mems_mpu_selftest.c **** 	result |= inv_save_setting();
 280:.\20648_driver\drivers/inv_mems_mpu_selftest.c ****     
 281:.\20648_driver\drivers/inv_mems_mpu_selftest.c **** 	// Stop sensors
 282:.\20648_driver\drivers/inv_mems_mpu_selftest.c ****     result |= inv_write_single_mems_reg(REG_PWR_MGMT_2, 
 283:.\20648_driver\drivers/inv_mems_mpu_selftest.c ****                                      BIT_PWR_PRESSURE_STBY | BIT_PWR_ACCEL_STBY | BIT_PWR_GYRO_STBY
 284:.\20648_driver\drivers/inv_mems_mpu_selftest.c ****     
 285:.\20648_driver\drivers/inv_mems_mpu_selftest.c ****     /*   Perform a soft-reset of the chip by setting the MSB of PWR_MGMT_1 register
 286:.\20648_driver\drivers/inv_mems_mpu_selftest.c ****     * This will clear any prior states in the chip
 287:.\20648_driver\drivers/inv_mems_mpu_selftest.c ****     */
 288:.\20648_driver\drivers/inv_mems_mpu_selftest.c ****     result |= inv_write_single_mems_reg(REG_PWR_MGMT_1, BIT_H_RESET);               
 289:.\20648_driver\drivers/inv_mems_mpu_selftest.c ****     inv_sleep(100); //100ms delay after soft reset--yd
 290:.\20648_driver\drivers/inv_mems_mpu_selftest.c ****         
 291:.\20648_driver\drivers/inv_mems_mpu_selftest.c ****     // Wake up
 292:.\20648_driver\drivers/inv_mems_mpu_selftest.c ****     result |= inv_write_single_mems_reg(REG_PWR_MGMT_1, BIT_CLK_PLL);
 293:.\20648_driver\drivers/inv_mems_mpu_selftest.c **** 	if (result)
 294:.\20648_driver\drivers/inv_mems_mpu_selftest.c **** 		return result;
 295:.\20648_driver\drivers/inv_mems_mpu_selftest.c ****         
 296:.\20648_driver\drivers/inv_mems_mpu_selftest.c **** 	// Set cycle mode
 297:.\20648_driver\drivers/inv_mems_mpu_selftest.c **** 	result |= inv_write_single_mems_reg(REG_LP_CONFIG, 
 298:.\20648_driver\drivers/inv_mems_mpu_selftest.c ****                                      BIT_I2C_MST_CYCLE | BIT_ACCEL_CYCLE | BIT_GYRO_CYCLE);
 299:.\20648_driver\drivers/inv_mems_mpu_selftest.c ****     
 300:.\20648_driver\drivers/inv_mems_mpu_selftest.c **** 	// Configure FSR and DLPF for gyro
 301:.\20648_driver\drivers/inv_mems_mpu_selftest.c **** 	result |= inv_write_single_mems_reg(REG_GYRO_SMPLRT_DIV, SELFTEST_GYRO_SMPLRT_DIV);
 302:.\20648_driver\drivers/inv_mems_mpu_selftest.c **** 
 303:.\20648_driver\drivers/inv_mems_mpu_selftest.c **** 	result |= inv_write_single_mems_reg(REG_GYRO_CONFIG_1, SELFTEST_GYRO_FS);
 304:.\20648_driver\drivers/inv_mems_mpu_selftest.c **** 
 305:.\20648_driver\drivers/inv_mems_mpu_selftest.c **** 	result |= inv_write_single_mems_reg(REG_GYRO_CONFIG_2, SELFTEST_GYRO_AVGCFG);
 306:.\20648_driver\drivers/inv_mems_mpu_selftest.c ****     
 307:.\20648_driver\drivers/inv_mems_mpu_selftest.c **** 	// Configure FSR and DLPF for accel
 308:.\20648_driver\drivers/inv_mems_mpu_selftest.c **** 	result |= inv_write_single_mems_reg(REG_ACCEL_SMPLRT_DIV_1, 0);
 309:.\20648_driver\drivers/inv_mems_mpu_selftest.c **** 
 310:.\20648_driver\drivers/inv_mems_mpu_selftest.c **** 	result |= inv_write_single_mems_reg(REG_ACCEL_SMPLRT_DIV_2, SELFTEST_ACCEL_SMPLRT_DIV);
 311:.\20648_driver\drivers/inv_mems_mpu_selftest.c **** 
ARM GAS  C:\Users\ADMINI~1\AppData\Local\Temp\ccp9or53.s 			page 9


 312:.\20648_driver\drivers/inv_mems_mpu_selftest.c **** 	result |= inv_write_single_mems_reg(REG_ACCEL_CONFIG, SELFTEST_ACCEL_FS);
 313:.\20648_driver\drivers/inv_mems_mpu_selftest.c **** 
 314:.\20648_driver\drivers/inv_mems_mpu_selftest.c **** 	result |= inv_write_single_mems_reg(REG_ACCEL_CONFIG_2, SELFTEST_ACCEL_DEC3_CFG);
 315:.\20648_driver\drivers/inv_mems_mpu_selftest.c **** 
 316:.\20648_driver\drivers/inv_mems_mpu_selftest.c ****     // Read selftest values
 317:.\20648_driver\drivers/inv_mems_mpu_selftest.c ****     // Retrieve factory Self-Test code (ST_Code) from SELF_TEST registers  (User Bank 1): 
 318:.\20648_driver\drivers/inv_mems_mpu_selftest.c **** 	result |= inv_read_mems_reg(REG_SELF_TEST1, 1, &gyro_st_data[0]);
 319:.\20648_driver\drivers/inv_mems_mpu_selftest.c **** 
 320:.\20648_driver\drivers/inv_mems_mpu_selftest.c **** 	result |= inv_read_mems_reg(REG_SELF_TEST2, 1, &gyro_st_data[1]);
 321:.\20648_driver\drivers/inv_mems_mpu_selftest.c **** 
 322:.\20648_driver\drivers/inv_mems_mpu_selftest.c **** 	result |= inv_read_mems_reg(REG_SELF_TEST3, 1, &gyro_st_data[2]);
 323:.\20648_driver\drivers/inv_mems_mpu_selftest.c **** 
 324:.\20648_driver\drivers/inv_mems_mpu_selftest.c **** 	result |= inv_read_mems_reg(REG_SELF_TEST4, 1, &accel_st_data[0]);
 325:.\20648_driver\drivers/inv_mems_mpu_selftest.c **** 
 326:.\20648_driver\drivers/inv_mems_mpu_selftest.c **** 	result |= inv_read_mems_reg(REG_SELF_TEST5, 1, &accel_st_data[1]);
 327:.\20648_driver\drivers/inv_mems_mpu_selftest.c **** 
 328:.\20648_driver\drivers/inv_mems_mpu_selftest.c **** 	result |= inv_read_mems_reg(REG_SELF_TEST6, 1, &accel_st_data[2]);
 329:.\20648_driver\drivers/inv_mems_mpu_selftest.c **** 
 330:.\20648_driver\drivers/inv_mems_mpu_selftest.c **** 	// Restart sensors
 331:.\20648_driver\drivers/inv_mems_mpu_selftest.c ****     result |= inv_write_single_mems_reg(REG_PWR_MGMT_2, BIT_PWR_PRESSURE_STBY);
 332:.\20648_driver\drivers/inv_mems_mpu_selftest.c ****     inv_sleep(GYRO_ENGINE_UP_TIME);
 333:.\20648_driver\drivers/inv_mems_mpu_selftest.c ****     
 334:.\20648_driver\drivers/inv_mems_mpu_selftest.c **** 	return result;
 335:.\20648_driver\drivers/inv_mems_mpu_selftest.c **** }
 336:.\20648_driver\drivers/inv_mems_mpu_selftest.c **** 
 337:.\20648_driver\drivers/inv_mems_mpu_selftest.c **** static int inv_selftest_read_samples(enum INV_SENSORS type, int *sum_result, int *s)
 338:.\20648_driver\drivers/inv_mems_mpu_selftest.c **** {
 138              		.loc 1 338 0
 139              		.cfi_startproc
 140              	.LVL13:
 141 0000 73B5     		push	{r0, r1, r4, r5, r6, lr}
 142              		.cfi_def_cfa_offset 24
 143              		.cfi_offset 0, -24
 144              		.cfi_offset 1, -20
 145              		.cfi_offset 4, -16
 146              		.cfi_offset 5, -12
 147              		.cfi_offset 6, -8
 148              		.cfi_offset 14, -4
 149              		.loc 1 338 0
 150 0002 0E1C     		mov	r6, r1
 151 0004 141C     		mov	r4, r2
 339:.\20648_driver\drivers/inv_mems_mpu_selftest.c **** 	uint8_t w;
 340:.\20648_driver\drivers/inv_mems_mpu_selftest.c **** 	int16_t vals[3];
 341:.\20648_driver\drivers/inv_mems_mpu_selftest.c **** 	uint8_t d[BYTES_PER_SENSOR];
 342:.\20648_driver\drivers/inv_mems_mpu_selftest.c **** 	int j;
 343:.\20648_driver\drivers/inv_mems_mpu_selftest.c ****     
 344:.\20648_driver\drivers/inv_mems_mpu_selftest.c **** 	// Average 200 readings and save the averaged values as GX_OS, GY_OS, GZ_OS, AX_OS, AY_OS and AZ_O
 345:.\20648_driver\drivers/inv_mems_mpu_selftest.c **** 	// - GX_OS = Average (GYRO_XOUT_H | GYRO_XOUT_L)
 346:.\20648_driver\drivers/inv_mems_mpu_selftest.c **** 	// - GY_OS = Average (GYRO_YOUT_H | GYRO_YOUT_L)
 347:.\20648_driver\drivers/inv_mems_mpu_selftest.c **** 	// - GZ_OS = Average (GYRO_ZOUT_H | GYRO_ZOUT_L)
 348:.\20648_driver\drivers/inv_mems_mpu_selftest.c **** 	// - AX_OS = Average (ACCEL_XOUT_H | ACCEL_XOUT_L)
 349:.\20648_driver\drivers/inv_mems_mpu_selftest.c **** 	// - AY_OS = Average (ACCEL_YOUT_H | ACCEL_YOUT_L)
 350:.\20648_driver\drivers/inv_mems_mpu_selftest.c **** 	// - AZ_OS = Average (ACCEL_ZOUT_H | ACCEL_ZOUT_L)
 351:.\20648_driver\drivers/inv_mems_mpu_selftest.c **** 
 352:.\20648_driver\drivers/inv_mems_mpu_selftest.c ****     if (INV_SENSOR_GYRO == type)
 353:.\20648_driver\drivers/inv_mems_mpu_selftest.c ****         w = REG_GYRO_XOUT_H_SH;
 152              		.loc 1 353 0
ARM GAS  C:\Users\ADMINI~1\AppData\Local\Temp\ccp9or53.s 			page 10


 153 0006 3325     		mov	r5, #51
 352:.\20648_driver\drivers/inv_mems_mpu_selftest.c ****         w = REG_GYRO_XOUT_H_SH;
 154              		.loc 1 352 0
 155 0008 0128     		cmp	r0, #1
 156 000a 1DD0     		beq	.L17
 354:.\20648_driver\drivers/inv_mems_mpu_selftest.c ****     else
 355:.\20648_driver\drivers/inv_mems_mpu_selftest.c ****         w = REG_ACCEL_XOUT_H_SH;
 157              		.loc 1 355 0
 158 000c 063D     		sub	r5, r5, #6
 159 000e 1BE0     		b	.L17
 160              	.LVL14:
 161              	.L20:
 356:.\20648_driver\drivers/inv_mems_mpu_selftest.c ****     
 357:.\20648_driver\drivers/inv_mems_mpu_selftest.c ****     while (*s < DEF_ST_SAMPLES) {
 358:.\20648_driver\drivers/inv_mems_mpu_selftest.c ****         
 359:.\20648_driver\drivers/inv_mems_mpu_selftest.c ****             if(inv_read_mems_reg(w, BYTES_PER_SENSOR, d))
 162              		.loc 1 359 0
 163 0010 A8B2     		uxth	r0, r5
 164 0012 0621     		mov	r1, #6
 165 0014 6A46     		mov	r2, sp
 166 0016 FFF7FEFF 		bl	inv_read_mems_reg
 167              	.LVL15:
 168 001a 0028     		cmp	r0, #0
 169 001c 19D1     		bne	.L22
 170 001e 321C     		mov	r2, r6
 171              	.L19:
 172 0020 011C     		mov	r1, r0
 360:.\20648_driver\drivers/inv_mems_mpu_selftest.c ****                 return -1;
 361:.\20648_driver\drivers/inv_mems_mpu_selftest.c ****                
 362:.\20648_driver\drivers/inv_mems_mpu_selftest.c ****             for (j = 0; j < THREE_AXES; j++) {
 363:.\20648_driver\drivers/inv_mems_mpu_selftest.c ****                 vals[j] = (d[(2*j)]<<8) | (d[(2*j)+ 1] & 0xff);
 173              		.loc 1 363 0 discriminator 3
 174 0022 6B46     		mov	r3, sp
 175 0024 6944     		add	r1, r1, sp
 176 0026 1B5C     		ldrb	r3, [r3, r0]
 177 0028 4978     		ldrb	r1, [r1, #1]
 178 002a 1B02     		lsl	r3, r3, #8
 179 002c 0B43     		orr	r3, r1
 364:.\20648_driver\drivers/inv_mems_mpu_selftest.c ****                 sum_result[j] += vals[j];
 180              		.loc 1 364 0 discriminator 3
 181 002e 1168     		ldr	r1, [r2]
 182 0030 1BB2     		sxth	r3, r3
 183 0032 CB18     		add	r3, r1, r3
 184 0034 0230     		add	r0, r0, #2
 185 0036 08C2     		stmia	r2!, {r3}
 186              	.LVL16:
 362:.\20648_driver\drivers/inv_mems_mpu_selftest.c ****                 vals[j] = (d[(2*j)]<<8) | (d[(2*j)+ 1] & 0xff);
 187              		.loc 1 362 0 discriminator 3
 188 0038 0628     		cmp	r0, #6
 189 003a F1D1     		bne	.L19
 365:.\20648_driver\drivers/inv_mems_mpu_selftest.c ****             }
 366:.\20648_driver\drivers/inv_mems_mpu_selftest.c **** 
 367:.\20648_driver\drivers/inv_mems_mpu_selftest.c ****             (*s)++;
 190              		.loc 1 367 0
 191 003c 2368     		ldr	r3, [r4]
 368:.\20648_driver\drivers/inv_mems_mpu_selftest.c **** 
 369:.\20648_driver\drivers/inv_mems_mpu_selftest.c **** 			inv_sleep(WAIT_TIME_BTW_2_SAMPLESREAD);
ARM GAS  C:\Users\ADMINI~1\AppData\Local\Temp\ccp9or53.s 			page 11


 192              		.loc 1 369 0
 193 003e 0430     		add	r0, r0, #4
 367:.\20648_driver\drivers/inv_mems_mpu_selftest.c **** 
 194              		.loc 1 367 0
 195 0040 0133     		add	r3, r3, #1
 196 0042 2360     		str	r3, [r4]
 197              		.loc 1 369 0
 198 0044 FFF7FEFF 		bl	inv_sleep
 199              	.LVL17:
 200              	.L17:
 357:.\20648_driver\drivers/inv_mems_mpu_selftest.c ****         
 201              		.loc 1 357 0
 202 0048 2368     		ldr	r3, [r4]
 203 004a C72B     		cmp	r3, #199
 204 004c E0DD     		ble	.L20
 370:.\20648_driver\drivers/inv_mems_mpu_selftest.c ****     }
 371:.\20648_driver\drivers/inv_mems_mpu_selftest.c **** 	return 0;
 205              		.loc 1 371 0
 206 004e 0020     		mov	r0, #0
 207 0050 01E0     		b	.L18
 208              	.L22:
 360:.\20648_driver\drivers/inv_mems_mpu_selftest.c ****                
 209              		.loc 1 360 0
 210 0052 0120     		mov	r0, #1
 211 0054 4042     		neg	r0, r0
 212              	.L18:
 372:.\20648_driver\drivers/inv_mems_mpu_selftest.c **** }
 213              		.loc 1 372 0
 214              		@ sp needed
 215              	.LVL18:
 216              	.LVL19:
 217              	.LVL20:
 218 0056 76BD     		pop	{r1, r2, r4, r5, r6, pc}
 219              		.cfi_endproc
 220              	.LFE4:
 221              		.size	inv_selftest_read_samples, .-inv_selftest_read_samples
 222              		.global	__aeabi_idiv
 223              		.section	.text.inv_do_test_accelgyro,"ax",%progbits
 224              		.align	1
 225              		.code	16
 226              		.thumb_func
 227              		.type	inv_do_test_accelgyro, %function
 228              	inv_do_test_accelgyro:
 229              	.LFB5:
 373:.\20648_driver\drivers/inv_mems_mpu_selftest.c **** 
 374:.\20648_driver\drivers/inv_mems_mpu_selftest.c **** /*
 375:.\20648_driver\drivers/inv_mems_mpu_selftest.c **** *  inv_do_test_accelgyro() - do the actual test of self testing
 376:.\20648_driver\drivers/inv_mems_mpu_selftest.c **** */
 377:.\20648_driver\drivers/inv_mems_mpu_selftest.c **** static int inv_do_test_accelgyro(enum INV_SENSORS sensorType, int *meanValue, int *stMeanValue)
 378:.\20648_driver\drivers/inv_mems_mpu_selftest.c **** {
 230              		.loc 1 378 0
 231              		.cfi_startproc
 232              	.LVL21:
 379:.\20648_driver\drivers/inv_mems_mpu_selftest.c **** 	int result, i, j;
 380:.\20648_driver\drivers/inv_mems_mpu_selftest.c **** 	int lNbSamples = 0;
 233              		.loc 1 380 0
 234 0000 0023     		mov	r3, #0
ARM GAS  C:\Users\ADMINI~1\AppData\Local\Temp\ccp9or53.s 			page 12


 378:.\20648_driver\drivers/inv_mems_mpu_selftest.c **** 	int result, i, j;
 235              		.loc 1 378 0
 236 0002 F7B5     		push	{r0, r1, r2, r4, r5, r6, r7, lr}
 237              		.cfi_def_cfa_offset 32
 238              		.cfi_offset 0, -32
 239              		.cfi_offset 1, -28
 240              		.cfi_offset 2, -24
 241              		.cfi_offset 4, -20
 242              		.cfi_offset 5, -16
 243              		.cfi_offset 6, -12
 244              		.cfi_offset 7, -8
 245              		.cfi_offset 14, -4
 381:.\20648_driver\drivers/inv_mems_mpu_selftest.c ****     
 382:.\20648_driver\drivers/inv_mems_mpu_selftest.c ****     // initialize output to be 0
 383:.\20648_driver\drivers/inv_mems_mpu_selftest.c **** 	for (i = 0; i < THREE_AXES; i++) {
 384:.\20648_driver\drivers/inv_mems_mpu_selftest.c **** 		meanValue[i] = 0;
 246              		.loc 1 384 0
 247 0004 0B60     		str	r3, [r1]
 378:.\20648_driver\drivers/inv_mems_mpu_selftest.c **** 	int result, i, j;
 248              		.loc 1 378 0
 249 0006 151C     		mov	r5, r2
 385:.\20648_driver\drivers/inv_mems_mpu_selftest.c **** 		stMeanValue[i] = 0;
 250              		.loc 1 385 0
 251 0008 1360     		str	r3, [r2]
 384:.\20648_driver\drivers/inv_mems_mpu_selftest.c **** 		stMeanValue[i] = 0;
 252              		.loc 1 384 0
 253 000a 4B60     		str	r3, [r1, #4]
 254              		.loc 1 385 0
 255 000c 5360     		str	r3, [r2, #4]
 384:.\20648_driver\drivers/inv_mems_mpu_selftest.c **** 		stMeanValue[i] = 0;
 256              		.loc 1 384 0
 257 000e 8B60     		str	r3, [r1, #8]
 258              		.loc 1 385 0
 259 0010 9360     		str	r3, [r2, #8]
 386:.\20648_driver\drivers/inv_mems_mpu_selftest.c **** 	}
 387:.\20648_driver\drivers/inv_mems_mpu_selftest.c **** 	
 388:.\20648_driver\drivers/inv_mems_mpu_selftest.c ****     // read the accel/gyro output
 389:.\20648_driver\drivers/inv_mems_mpu_selftest.c ****     // the output values are 16 bits wide and in 2’s complement
 390:.\20648_driver\drivers/inv_mems_mpu_selftest.c ****     // Average 200 readings and save the averaged values
 391:.\20648_driver\drivers/inv_mems_mpu_selftest.c ****     result = inv_selftest_read_samples(sensorType, meanValue, &lNbSamples);
 260              		.loc 1 391 0
 261 0012 01AA     		add	r2, sp, #4
 262              	.LVL22:
 378:.\20648_driver\drivers/inv_mems_mpu_selftest.c **** 	int result, i, j;
 263              		.loc 1 378 0
 264 0014 071C     		mov	r7, r0
 265 0016 0E1C     		mov	r6, r1
 380:.\20648_driver\drivers/inv_mems_mpu_selftest.c ****     
 266              		.loc 1 380 0
 267 0018 0193     		str	r3, [sp, #4]
 268              	.LVL23:
 269              		.loc 1 391 0
 270 001a FFF7FEFF 		bl	inv_selftest_read_samples
 271              	.LVL24:
 272 001e 041E     		sub	r4, r0, #0
 392:.\20648_driver\drivers/inv_mems_mpu_selftest.c ****     if (result)
 273              		.loc 1 392 0
ARM GAS  C:\Users\ADMINI~1\AppData\Local\Temp\ccp9or53.s 			page 13


 274 0020 39D1     		bne	.L24
 393:.\20648_driver\drivers/inv_mems_mpu_selftest.c ****         return result;
 394:.\20648_driver\drivers/inv_mems_mpu_selftest.c **** 	for (j = 0; j < THREE_AXES; j++) {
 395:.\20648_driver\drivers/inv_mems_mpu_selftest.c **** 		meanValue[j] /= lNbSamples;
 275              		.loc 1 395 0
 276 0022 019C     		ldr	r4, [sp, #4]
 277              	.LVL25:
 278 0024 3068     		ldr	r0, [r6]
 279              	.LVL26:
 280 0026 211C     		mov	r1, r4
 281 0028 FFF7FEFF 		bl	__aeabi_idiv
 282              	.LVL27:
 283 002c 211C     		mov	r1, r4
 284 002e 3060     		str	r0, [r6]
 285              	.LVL28:
 286 0030 7068     		ldr	r0, [r6, #4]
 287 0032 FFF7FEFF 		bl	__aeabi_idiv
 288              	.LVL29:
 289 0036 211C     		mov	r1, r4
 290 0038 7060     		str	r0, [r6, #4]
 291              	.LVL30:
 292 003a B068     		ldr	r0, [r6, #8]
 293 003c FFF7FEFF 		bl	__aeabi_idiv
 294              	.LVL31:
 295 0040 B060     		str	r0, [r6, #8]
 296              	.LVL32:
 396:.\20648_driver\drivers/inv_mems_mpu_selftest.c **** 	}
 397:.\20648_driver\drivers/inv_mems_mpu_selftest.c ****     
 398:.\20648_driver\drivers/inv_mems_mpu_selftest.c ****     // Set Self-Test Bit
 399:.\20648_driver\drivers/inv_mems_mpu_selftest.c ****     if (sensorType == INV_SENSOR_GYRO)
 297              		.loc 1 399 0
 298 0042 012F     		cmp	r7, #1
 299 0044 03D1     		bne	.L25
 400:.\20648_driver\drivers/inv_mems_mpu_selftest.c ****     {
 401:.\20648_driver\drivers/inv_mems_mpu_selftest.c ****         // Enable gyroscope Self-Test by setting register User Bank 2, Register Address 02 (02h) Bi
 402:.\20648_driver\drivers/inv_mems_mpu_selftest.c ****         result = inv_write_single_mems_reg(REG_GYRO_CONFIG_2, BIT_GYRO_CTEN | SELFTEST_GYRO_AVGCFG)
 300              		.loc 1 402 0
 301 0046 8120     		mov	r0, #129
 302 0048 3B21     		mov	r1, #59
 303 004a 4000     		lsl	r0, r0, #1
 304 004c 02E0     		b	.L30
 305              	.L25:
 403:.\20648_driver\drivers/inv_mems_mpu_selftest.c ****     } else
 404:.\20648_driver\drivers/inv_mems_mpu_selftest.c ****     {
 405:.\20648_driver\drivers/inv_mems_mpu_selftest.c ****         result = inv_write_single_mems_reg(REG_ACCEL_CONFIG_2, BIT_ACCEL_CTEN | SELFTEST_ACCEL_DEC3
 306              		.loc 1 405 0
 307 004e 1620     		mov	r0, #22
 308 0050 1E21     		mov	r1, #30
 309 0052 FF30     		add	r0, r0, #255
 310              	.L30:
 311 0054 FFF7FEFF 		bl	inv_write_single_mems_reg
 312              	.LVL33:
 313 0058 061C     		mov	r6, r0
 314              	.LVL34:
 315 005a 041E     		sub	r4, r0, #0
 406:.\20648_driver\drivers/inv_mems_mpu_selftest.c ****     }
 407:.\20648_driver\drivers/inv_mems_mpu_selftest.c ****     if (result)
ARM GAS  C:\Users\ADMINI~1\AppData\Local\Temp\ccp9or53.s 			page 14


 316              		.loc 1 407 0
 317 005c 1BD1     		bne	.L24
 408:.\20648_driver\drivers/inv_mems_mpu_selftest.c ****         return result;
 409:.\20648_driver\drivers/inv_mems_mpu_selftest.c ****     
 410:.\20648_driver\drivers/inv_mems_mpu_selftest.c ****     // Wait 20ms for oscillations to stabilize. 
 411:.\20648_driver\drivers/inv_mems_mpu_selftest.c ****     inv_sleep(DEF_ST_STABLE_TIME);
 318              		.loc 1 411 0
 319 005e 1420     		mov	r0, #20
 320              	.LVL35:
 321 0060 FFF7FEFF 		bl	inv_sleep
 322              	.LVL36:
 412:.\20648_driver\drivers/inv_mems_mpu_selftest.c ****         
 413:.\20648_driver\drivers/inv_mems_mpu_selftest.c ****     // Read the accel/gyro output and average 200 readings
 414:.\20648_driver\drivers/inv_mems_mpu_selftest.c ****     // These readings are in units of LSBs
 415:.\20648_driver\drivers/inv_mems_mpu_selftest.c ****     lNbSamples = 0; 
 416:.\20648_driver\drivers/inv_mems_mpu_selftest.c ****     result = inv_selftest_read_samples(sensorType, stMeanValue, &lNbSamples);
 323              		.loc 1 416 0
 324 0064 381C     		mov	r0, r7
 325 0066 291C     		mov	r1, r5
 326 0068 01AA     		add	r2, sp, #4
 415:.\20648_driver\drivers/inv_mems_mpu_selftest.c ****     result = inv_selftest_read_samples(sensorType, stMeanValue, &lNbSamples);
 327              		.loc 1 415 0
 328 006a 0196     		str	r6, [sp, #4]
 329              		.loc 1 416 0
 330 006c FFF7FEFF 		bl	inv_selftest_read_samples
 331              	.LVL37:
 332 0070 041E     		sub	r4, r0, #0
 333              	.LVL38:
 417:.\20648_driver\drivers/inv_mems_mpu_selftest.c ****     if (result)
 334              		.loc 1 417 0
 335 0072 10D1     		bne	.L24
 418:.\20648_driver\drivers/inv_mems_mpu_selftest.c ****         return result;
 419:.\20648_driver\drivers/inv_mems_mpu_selftest.c **** 	for (j = 0; j < THREE_AXES; j++) {
 420:.\20648_driver\drivers/inv_mems_mpu_selftest.c **** 		stMeanValue[j] /= lNbSamples;
 336              		.loc 1 420 0
 337 0074 019C     		ldr	r4, [sp, #4]
 338              	.LVL39:
 339 0076 2868     		ldr	r0, [r5]
 340              	.LVL40:
 341 0078 211C     		mov	r1, r4
 342 007a FFF7FEFF 		bl	__aeabi_idiv
 343              	.LVL41:
 344 007e 211C     		mov	r1, r4
 345 0080 2860     		str	r0, [r5]
 346              	.LVL42:
 347 0082 6868     		ldr	r0, [r5, #4]
 348 0084 FFF7FEFF 		bl	__aeabi_idiv
 349              	.LVL43:
 350 0088 211C     		mov	r1, r4
 351 008a 6860     		str	r0, [r5, #4]
 352              	.LVL44:
 353 008c A868     		ldr	r0, [r5, #8]
 354 008e FFF7FEFF 		bl	__aeabi_idiv
 355              	.LVL45:
 421:.\20648_driver\drivers/inv_mems_mpu_selftest.c **** 	}
 422:.\20648_driver\drivers/inv_mems_mpu_selftest.c ****     
 423:.\20648_driver\drivers/inv_mems_mpu_selftest.c **** 	return 0;
ARM GAS  C:\Users\ADMINI~1\AppData\Local\Temp\ccp9or53.s 			page 15


 356              		.loc 1 423 0
 357 0092 341C     		mov	r4, r6
 420:.\20648_driver\drivers/inv_mems_mpu_selftest.c **** 	}
 358              		.loc 1 420 0
 359 0094 A860     		str	r0, [r5, #8]
 360              	.LVL46:
 361              	.L24:
 424:.\20648_driver\drivers/inv_mems_mpu_selftest.c **** }
 362              		.loc 1 424 0
 363 0096 201C     		mov	r0, r4
 364              		@ sp needed
 365              	.LVL47:
 366 0098 FEBD     		pop	{r1, r2, r3, r4, r5, r6, r7, pc}
 367              		.cfi_endproc
 368              	.LFE5:
 369              		.size	inv_do_test_accelgyro, .-inv_do_test_accelgyro
 370              		.section	.text.inv_mems_run_selftest,"ax",%progbits
 371              		.align	1
 372              		.global	inv_mems_run_selftest
 373              		.code	16
 374              		.thumb_func
 375              		.type	inv_mems_run_selftest, %function
 376              	inv_mems_run_selftest:
 377              	.LFB6:
 425:.\20648_driver\drivers/inv_mems_mpu_selftest.c **** 
 426:.\20648_driver\drivers/inv_mems_mpu_selftest.c **** 
 427:.\20648_driver\drivers/inv_mems_mpu_selftest.c **** 
 428:.\20648_driver\drivers/inv_mems_mpu_selftest.c **** 
 429:.\20648_driver\drivers/inv_mems_mpu_selftest.c **** int inv_mems_run_selftest(void)
 430:.\20648_driver\drivers/inv_mems_mpu_selftest.c **** {
 378              		.loc 1 430 0
 379              		.cfi_startproc
 380              	.LVL48:
 381 0000 F0B5     		push	{r4, r5, r6, r7, lr}
 382              		.cfi_def_cfa_offset 20
 383              		.cfi_offset 4, -20
 384              		.cfi_offset 5, -16
 385              		.cfi_offset 6, -12
 386              		.cfi_offset 7, -8
 387              		.cfi_offset 14, -4
 388              	.LBB8:
 389              	.LBB9:
 276:.\20648_driver\drivers/inv_mems_mpu_selftest.c ****     
 390              		.loc 1 276 0
 391 0002 0121     		mov	r1, #1
 392              	.LBE9:
 393              	.LBE8:
 394              		.loc 1 430 0
 395 0004 8DB0     		sub	sp, sp, #52
 396              		.cfi_def_cfa_offset 72
 397              	.LBB16:
 398              	.LBB14:
 276:.\20648_driver\drivers/inv_mems_mpu_selftest.c ****     
 399              		.loc 1 276 0
 400 0006 0620     		mov	r0, #6
 401 0008 FFF7FEFF 		bl	inv_write_single_mems_reg
 402              	.LVL49:
ARM GAS  C:\Users\ADMINI~1\AppData\Local\Temp\ccp9or53.s 			page 16


 403              	.LBB10:
 404              	.LBB11:
 122:.\20648_driver\drivers/inv_mems_mpu_selftest.c **** 
 405              		.loc 1 122 0
 406 000c C74C     		ldr	r4, .L40
 407              	.LBE11:
 408              	.LBE10:
 276:.\20648_driver\drivers/inv_mems_mpu_selftest.c ****     
 409              		.loc 1 276 0
 410 000e 061C     		mov	r6, r0
 411              	.LVL50:
 412              	.LBB13:
 413              	.LBB12:
 122:.\20648_driver\drivers/inv_mems_mpu_selftest.c **** 
 414              		.loc 1 122 0
 415 0010 0121     		mov	r1, #1
 416 0012 221C     		mov	r2, r4
 417 0014 7620     		mov	r0, #118
 418              	.LVL51:
 419 0016 FFF7FEFF 		bl	inv_read_mems_reg
 420              	.LVL52:
 124:.\20648_driver\drivers/inv_mems_mpu_selftest.c **** 
 421              		.loc 1 124 0
 422 001a 621C     		add	r2, r4, #1
 423 001c 0121     		mov	r1, #1
 424 001e 0320     		mov	r0, #3
 425 0020 FFF7FEFF 		bl	inv_read_mems_reg
 426              	.LVL53:
 126:.\20648_driver\drivers/inv_mems_mpu_selftest.c **** 
 427              		.loc 1 126 0
 428 0024 A21C     		add	r2, r4, #2
 429 0026 0121     		mov	r1, #1
 430 0028 0520     		mov	r0, #5
 431 002a FFF7FEFF 		bl	inv_read_mems_reg
 432              	.LVL54:
 128:.\20648_driver\drivers/inv_mems_mpu_selftest.c **** 	
 433              		.loc 1 128 0
 434 002e E21C     		add	r2, r4, #3
 126:.\20648_driver\drivers/inv_mems_mpu_selftest.c **** 
 435              		.loc 1 126 0
 436 0030 071C     		mov	r7, r0
 437              	.LVL55:
 128:.\20648_driver\drivers/inv_mems_mpu_selftest.c **** 	
 438              		.loc 1 128 0
 439 0032 0121     		mov	r1, #1
 440 0034 1020     		mov	r0, #16
 441              	.LVL56:
 442 0036 FFF7FEFF 		bl	inv_read_mems_reg
 443              	.LVL57:
 130:.\20648_driver\drivers/inv_mems_mpu_selftest.c **** 
 444              		.loc 1 130 0
 445 003a 221D     		add	r2, r4, #4
 128:.\20648_driver\drivers/inv_mems_mpu_selftest.c **** 	
 446              		.loc 1 128 0
 447 003c 051C     		mov	r5, r0
 130:.\20648_driver\drivers/inv_mems_mpu_selftest.c **** 
 448              		.loc 1 130 0
ARM GAS  C:\Users\ADMINI~1\AppData\Local\Temp\ccp9or53.s 			page 17


 449 003e 0121     		mov	r1, #1
 450 0040 1120     		mov	r0, #17
 451 0042 FFF7FEFF 		bl	inv_read_mems_reg
 452              	.LVL58:
 453 0046 3E43     		orr	r6, r7
 454              	.LVL59:
 132:.\20648_driver\drivers/inv_mems_mpu_selftest.c **** 
 455              		.loc 1 132 0
 456 0048 621D     		add	r2, r4, #5
 130:.\20648_driver\drivers/inv_mems_mpu_selftest.c **** 
 457              		.loc 1 130 0
 458 004a 071C     		mov	r7, r0
 459              	.LVL60:
 132:.\20648_driver\drivers/inv_mems_mpu_selftest.c **** 
 460              		.loc 1 132 0
 461 004c 0121     		mov	r1, #1
 462 004e 1220     		mov	r0, #18
 463 0050 FFF7FEFF 		bl	inv_read_mems_reg
 464              	.LVL61:
 465 0054 2E43     		orr	r6, r5
 134:.\20648_driver\drivers/inv_mems_mpu_selftest.c **** 
 466              		.loc 1 134 0
 467 0056 A21D     		add	r2, r4, #6
 132:.\20648_driver\drivers/inv_mems_mpu_selftest.c **** 
 468              		.loc 1 132 0
 469 0058 051C     		mov	r5, r0
 134:.\20648_driver\drivers/inv_mems_mpu_selftest.c **** 
 470              		.loc 1 134 0
 471 005a 0121     		mov	r1, #1
 472 005c 6620     		mov	r0, #102
 473 005e FFF7FEFF 		bl	inv_read_mems_reg
 474              	.LVL62:
 475 0062 3E43     		orr	r6, r7
 136:.\20648_driver\drivers/inv_mems_mpu_selftest.c **** 
 476              		.loc 1 136 0
 477 0064 E21D     		add	r2, r4, #7
 134:.\20648_driver\drivers/inv_mems_mpu_selftest.c **** 
 478              		.loc 1 134 0
 479 0066 071C     		mov	r7, r0
 136:.\20648_driver\drivers/inv_mems_mpu_selftest.c **** 
 480              		.loc 1 136 0
 481 0068 0121     		mov	r1, #1
 482 006a 6720     		mov	r0, #103
 483 006c FFF7FEFF 		bl	inv_read_mems_reg
 484              	.LVL63:
 138:.\20648_driver\drivers/inv_mems_mpu_selftest.c **** 
 485              		.loc 1 138 0
 486 0070 221C     		mov	r2, r4
 487 0072 2E43     		orr	r6, r5
 488 0074 0832     		add	r2, r2, #8
 136:.\20648_driver\drivers/inv_mems_mpu_selftest.c **** 
 489              		.loc 1 136 0
 490 0076 051C     		mov	r5, r0
 138:.\20648_driver\drivers/inv_mems_mpu_selftest.c **** 
 491              		.loc 1 138 0
 492 0078 0121     		mov	r1, #1
 493 007a 6820     		mov	r0, #104
ARM GAS  C:\Users\ADMINI~1\AppData\Local\Temp\ccp9or53.s 			page 18


 494 007c FFF7FEFF 		bl	inv_read_mems_reg
 495              	.LVL64:
 496 0080 3E43     		orr	r6, r7
 140:.\20648_driver\drivers/inv_mems_mpu_selftest.c **** 
 497              		.loc 1 140 0
 498 0082 221C     		mov	r2, r4
 138:.\20648_driver\drivers/inv_mems_mpu_selftest.c **** 
 499              		.loc 1 138 0
 500 0084 071C     		mov	r7, r0
 140:.\20648_driver\drivers/inv_mems_mpu_selftest.c **** 
 501              		.loc 1 140 0
 502 0086 8020     		mov	r0, #128
 503 0088 0932     		add	r2, r2, #9
 504 008a 0121     		mov	r1, #1
 505 008c 4000     		lsl	r0, r0, #1
 506 008e FFF7FEFF 		bl	inv_read_mems_reg
 507              	.LVL65:
 508 0092 2E43     		orr	r6, r5
 142:.\20648_driver\drivers/inv_mems_mpu_selftest.c **** 
 509              		.loc 1 142 0
 510 0094 221C     		mov	r2, r4
 140:.\20648_driver\drivers/inv_mems_mpu_selftest.c **** 
 511              		.loc 1 140 0
 512 0096 051C     		mov	r5, r0
 142:.\20648_driver\drivers/inv_mems_mpu_selftest.c **** 
 513              		.loc 1 142 0
 514 0098 0220     		mov	r0, #2
 515 009a 0A32     		add	r2, r2, #10
 516 009c 0121     		mov	r1, #1
 517 009e FF30     		add	r0, r0, #255
 518 00a0 FFF7FEFF 		bl	inv_read_mems_reg
 519              	.LVL66:
 520 00a4 3E43     		orr	r6, r7
 144:.\20648_driver\drivers/inv_mems_mpu_selftest.c **** 
 521              		.loc 1 144 0
 522 00a6 221C     		mov	r2, r4
 142:.\20648_driver\drivers/inv_mems_mpu_selftest.c **** 
 523              		.loc 1 142 0
 524 00a8 071C     		mov	r7, r0
 144:.\20648_driver\drivers/inv_mems_mpu_selftest.c **** 
 525              		.loc 1 144 0
 526 00aa 8120     		mov	r0, #129
 527 00ac 0B32     		add	r2, r2, #11
 528 00ae 0121     		mov	r1, #1
 529 00b0 4000     		lsl	r0, r0, #1
 530 00b2 FFF7FEFF 		bl	inv_read_mems_reg
 531              	.LVL67:
 532 00b6 2E43     		orr	r6, r5
 146:.\20648_driver\drivers/inv_mems_mpu_selftest.c **** 
 533              		.loc 1 146 0
 534 00b8 221C     		mov	r2, r4
 144:.\20648_driver\drivers/inv_mems_mpu_selftest.c **** 
 535              		.loc 1 144 0
 536 00ba 051C     		mov	r5, r0
 146:.\20648_driver\drivers/inv_mems_mpu_selftest.c **** 
 537              		.loc 1 146 0
 538 00bc 8820     		mov	r0, #136
ARM GAS  C:\Users\ADMINI~1\AppData\Local\Temp\ccp9or53.s 			page 19


 539 00be 0C32     		add	r2, r2, #12
 540 00c0 0121     		mov	r1, #1
 541 00c2 4000     		lsl	r0, r0, #1
 542 00c4 FFF7FEFF 		bl	inv_read_mems_reg
 543              	.LVL68:
 544 00c8 3E43     		orr	r6, r7
 148:.\20648_driver\drivers/inv_mems_mpu_selftest.c **** 
 545              		.loc 1 148 0
 546 00ca 221C     		mov	r2, r4
 146:.\20648_driver\drivers/inv_mems_mpu_selftest.c **** 
 547              		.loc 1 146 0
 548 00cc 071C     		mov	r7, r0
 148:.\20648_driver\drivers/inv_mems_mpu_selftest.c **** 
 549              		.loc 1 148 0
 550 00ce 1220     		mov	r0, #18
 551 00d0 0D32     		add	r2, r2, #13
 552 00d2 0121     		mov	r1, #1
 553 00d4 FF30     		add	r0, r0, #255
 554 00d6 FFF7FEFF 		bl	inv_read_mems_reg
 555              	.LVL69:
 556 00da 2E43     		orr	r6, r5
 150:.\20648_driver\drivers/inv_mems_mpu_selftest.c **** 
 557              		.loc 1 150 0
 558 00dc 221C     		mov	r2, r4
 148:.\20648_driver\drivers/inv_mems_mpu_selftest.c **** 
 559              		.loc 1 148 0
 560 00de 051C     		mov	r5, r0
 150:.\20648_driver\drivers/inv_mems_mpu_selftest.c **** 
 561              		.loc 1 150 0
 562 00e0 8A20     		mov	r0, #138
 563 00e2 0E32     		add	r2, r2, #14
 564 00e4 0121     		mov	r1, #1
 565 00e6 4000     		lsl	r0, r0, #1
 566 00e8 FFF7FEFF 		bl	inv_read_mems_reg
 567              	.LVL70:
 568 00ec 3E43     		orr	r6, r7
 152:.\20648_driver\drivers/inv_mems_mpu_selftest.c **** 
 569              		.loc 1 152 0
 570 00ee 221C     		mov	r2, r4
 150:.\20648_driver\drivers/inv_mems_mpu_selftest.c **** 
 571              		.loc 1 150 0
 572 00f0 071C     		mov	r7, r0
 152:.\20648_driver\drivers/inv_mems_mpu_selftest.c **** 
 573              		.loc 1 152 0
 574 00f2 1620     		mov	r0, #22
 575 00f4 0F32     		add	r2, r2, #15
 576 00f6 0121     		mov	r1, #1
 577 00f8 FF30     		add	r0, r0, #255
 578 00fa FFF7FEFF 		bl	inv_read_mems_reg
 579              	.LVL71:
 580 00fe 3543     		orr	r5, r6
 581 0100 3D43     		orr	r5, r7
 582              	.LBE12:
 583              	.LBE13:
 279:.\20648_driver\drivers/inv_mems_mpu_selftest.c ****     
 584              		.loc 1 279 0
 585 0102 0543     		orr	r5, r0
ARM GAS  C:\Users\ADMINI~1\AppData\Local\Temp\ccp9or53.s 			page 20


 586              	.LVL72:
 282:.\20648_driver\drivers/inv_mems_mpu_selftest.c ****                                      BIT_PWR_PRESSURE_STBY | BIT_PWR_ACCEL_STBY | BIT_PWR_GYRO_STBY
 587              		.loc 1 282 0
 588 0104 7F21     		mov	r1, #127
 589 0106 0720     		mov	r0, #7
 590 0108 FFF7FEFF 		bl	inv_write_single_mems_reg
 591              	.LVL73:
 288:.\20648_driver\drivers/inv_mems_mpu_selftest.c ****     inv_sleep(100); //100ms delay after soft reset--yd
 592              		.loc 1 288 0
 593 010c 8021     		mov	r1, #128
 282:.\20648_driver\drivers/inv_mems_mpu_selftest.c ****                                      BIT_PWR_PRESSURE_STBY | BIT_PWR_ACCEL_STBY | BIT_PWR_GYRO_STBY
 594              		.loc 1 282 0
 595 010e 0543     		orr	r5, r0
 596              	.LVL74:
 288:.\20648_driver\drivers/inv_mems_mpu_selftest.c ****     inv_sleep(100); //100ms delay after soft reset--yd
 597              		.loc 1 288 0
 598 0110 0620     		mov	r0, #6
 599 0112 FFF7FEFF 		bl	inv_write_single_mems_reg
 600              	.LVL75:
 601 0116 0543     		orr	r5, r0
 602              	.LVL76:
 289:.\20648_driver\drivers/inv_mems_mpu_selftest.c ****         
 603              		.loc 1 289 0
 604 0118 6420     		mov	r0, #100
 605 011a FFF7FEFF 		bl	inv_sleep
 606              	.LVL77:
 292:.\20648_driver\drivers/inv_mems_mpu_selftest.c **** 	if (result)
 607              		.loc 1 292 0
 608 011e 0620     		mov	r0, #6
 609 0120 0121     		mov	r1, #1
 610 0122 FFF7FEFF 		bl	inv_write_single_mems_reg
 611              	.LVL78:
 612 0126 0543     		orr	r5, r0
 613              	.LVL79:
 293:.\20648_driver\drivers/inv_mems_mpu_selftest.c **** 		return result;
 614              		.loc 1 293 0
 615 0128 02D0     		beq	.L32
 616              	.LVL80:
 617              	.L34:
 618              	.LBE14:
 619              	.LBE16:
 431:.\20648_driver\drivers/inv_mems_mpu_selftest.c **** 	int result;
 432:.\20648_driver\drivers/inv_mems_mpu_selftest.c **** 	int gyro_bias_st[THREE_AXES], gyro_bias_regular[THREE_AXES];
 433:.\20648_driver\drivers/inv_mems_mpu_selftest.c **** 	int accel_bias_st[THREE_AXES], accel_bias_regular[THREE_AXES];
 434:.\20648_driver\drivers/inv_mems_mpu_selftest.c **** 	int test_times;
 435:.\20648_driver\drivers/inv_mems_mpu_selftest.c **** 	char accel_result, gyro_result, compass_result;
 436:.\20648_driver\drivers/inv_mems_mpu_selftest.c ****     int i;
 437:.\20648_driver\drivers/inv_mems_mpu_selftest.c **** 	
 438:.\20648_driver\drivers/inv_mems_mpu_selftest.c **** 	accel_result = 0;
 439:.\20648_driver\drivers/inv_mems_mpu_selftest.c **** 	gyro_result = 0;
 620              		.loc 1 439 0
 621 012a 0025     		mov	r5, #0
 438:.\20648_driver\drivers/inv_mems_mpu_selftest.c **** 	gyro_result = 0;
 622              		.loc 1 438 0
 623 012c 2E1C     		mov	r6, r5
 624 012e A2E0     		b	.L33
 625              	.LVL81:
ARM GAS  C:\Users\ADMINI~1\AppData\Local\Temp\ccp9or53.s 			page 21


 626              	.L32:
 627              	.LBB17:
 628              	.LBB15:
 297:.\20648_driver\drivers/inv_mems_mpu_selftest.c ****                                      BIT_I2C_MST_CYCLE | BIT_ACCEL_CYCLE | BIT_GYRO_CYCLE);
 629              		.loc 1 297 0
 630 0130 7021     		mov	r1, #112
 631 0132 0520     		mov	r0, #5
 632 0134 FFF7FEFF 		bl	inv_write_single_mems_reg
 633              	.LVL82:
 634 0138 061C     		mov	r6, r0
 635              	.LVL83:
 301:.\20648_driver\drivers/inv_mems_mpu_selftest.c **** 
 636              		.loc 1 301 0
 637 013a 8020     		mov	r0, #128
 638              	.LVL84:
 639 013c 0A21     		mov	r1, #10
 640 013e 4000     		lsl	r0, r0, #1
 641 0140 FFF7FEFF 		bl	inv_write_single_mems_reg
 642              	.LVL85:
 643 0144 0643     		orr	r6, r0
 644              	.LVL86:
 303:.\20648_driver\drivers/inv_mems_mpu_selftest.c **** 
 645              		.loc 1 303 0
 646 0146 0220     		mov	r0, #2
 647 0148 0121     		mov	r1, #1
 648 014a FF30     		add	r0, r0, #255
 649 014c FFF7FEFF 		bl	inv_write_single_mems_reg
 650              	.LVL87:
 651 0150 0643     		orr	r6, r0
 652              	.LVL88:
 305:.\20648_driver\drivers/inv_mems_mpu_selftest.c ****     
 653              		.loc 1 305 0
 654 0152 8120     		mov	r0, #129
 655 0154 0321     		mov	r1, #3
 656 0156 4000     		lsl	r0, r0, #1
 657 0158 FFF7FEFF 		bl	inv_write_single_mems_reg
 658              	.LVL89:
 659 015c 0643     		orr	r6, r0
 660              	.LVL90:
 308:.\20648_driver\drivers/inv_mems_mpu_selftest.c **** 
 661              		.loc 1 308 0
 662 015e 8820     		mov	r0, #136
 663 0160 291C     		mov	r1, r5
 664 0162 4000     		lsl	r0, r0, #1
 665 0164 FFF7FEFF 		bl	inv_write_single_mems_reg
 666              	.LVL91:
 667 0168 351C     		mov	r5, r6
 668 016a 0543     		orr	r5, r0
 669              	.LVL92:
 310:.\20648_driver\drivers/inv_mems_mpu_selftest.c **** 
 670              		.loc 1 310 0
 671 016c 1220     		mov	r0, #18
 672 016e 0A21     		mov	r1, #10
 673 0170 FF30     		add	r0, r0, #255
 674 0172 FFF7FEFF 		bl	inv_write_single_mems_reg
 675              	.LVL93:
 676 0176 0543     		orr	r5, r0
ARM GAS  C:\Users\ADMINI~1\AppData\Local\Temp\ccp9or53.s 			page 22


 677              	.LVL94:
 312:.\20648_driver\drivers/inv_mems_mpu_selftest.c **** 
 678              		.loc 1 312 0
 679 0178 8A20     		mov	r0, #138
 680 017a 3921     		mov	r1, #57
 681 017c 4000     		lsl	r0, r0, #1
 682 017e FFF7FEFF 		bl	inv_write_single_mems_reg
 683              	.LVL95:
 684 0182 0543     		orr	r5, r0
 685              	.LVL96:
 314:.\20648_driver\drivers/inv_mems_mpu_selftest.c **** 
 686              		.loc 1 314 0
 687 0184 1620     		mov	r0, #22
 688 0186 0221     		mov	r1, #2
 689 0188 FF30     		add	r0, r0, #255
 690 018a FFF7FEFF 		bl	inv_write_single_mems_reg
 691              	.LVL97:
 318:.\20648_driver\drivers/inv_mems_mpu_selftest.c **** 
 692              		.loc 1 318 0
 693 018e 221C     		mov	r2, r4
 314:.\20648_driver\drivers/inv_mems_mpu_selftest.c **** 
 694              		.loc 1 314 0
 695 0190 0543     		orr	r5, r0
 696              	.LVL98:
 318:.\20648_driver\drivers/inv_mems_mpu_selftest.c **** 
 697              		.loc 1 318 0
 698 0192 1032     		add	r2, r2, #16
 699 0194 0121     		mov	r1, #1
 700 0196 8220     		mov	r0, #130
 701 0198 FFF7FEFF 		bl	inv_read_mems_reg
 702              	.LVL99:
 320:.\20648_driver\drivers/inv_mems_mpu_selftest.c **** 
 703              		.loc 1 320 0
 704 019c 221C     		mov	r2, r4
 318:.\20648_driver\drivers/inv_mems_mpu_selftest.c **** 
 705              		.loc 1 318 0
 706 019e 0543     		orr	r5, r0
 707              	.LVL100:
 320:.\20648_driver\drivers/inv_mems_mpu_selftest.c **** 
 708              		.loc 1 320 0
 709 01a0 1132     		add	r2, r2, #17
 710 01a2 0121     		mov	r1, #1
 711 01a4 8320     		mov	r0, #131
 712 01a6 FFF7FEFF 		bl	inv_read_mems_reg
 713              	.LVL101:
 322:.\20648_driver\drivers/inv_mems_mpu_selftest.c **** 
 714              		.loc 1 322 0
 715 01aa 221C     		mov	r2, r4
 320:.\20648_driver\drivers/inv_mems_mpu_selftest.c **** 
 716              		.loc 1 320 0
 717 01ac 0543     		orr	r5, r0
 718              	.LVL102:
 322:.\20648_driver\drivers/inv_mems_mpu_selftest.c **** 
 719              		.loc 1 322 0
 720 01ae 1232     		add	r2, r2, #18
 721 01b0 0121     		mov	r1, #1
 722 01b2 8420     		mov	r0, #132
ARM GAS  C:\Users\ADMINI~1\AppData\Local\Temp\ccp9or53.s 			page 23


 723 01b4 FFF7FEFF 		bl	inv_read_mems_reg
 724              	.LVL103:
 324:.\20648_driver\drivers/inv_mems_mpu_selftest.c **** 
 725              		.loc 1 324 0
 726 01b8 221C     		mov	r2, r4
 322:.\20648_driver\drivers/inv_mems_mpu_selftest.c **** 
 727              		.loc 1 322 0
 728 01ba 0543     		orr	r5, r0
 729              	.LVL104:
 324:.\20648_driver\drivers/inv_mems_mpu_selftest.c **** 
 730              		.loc 1 324 0
 731 01bc 1332     		add	r2, r2, #19
 732 01be 0121     		mov	r1, #1
 733 01c0 8E20     		mov	r0, #142
 734 01c2 FFF7FEFF 		bl	inv_read_mems_reg
 735              	.LVL105:
 326:.\20648_driver\drivers/inv_mems_mpu_selftest.c **** 
 736              		.loc 1 326 0
 737 01c6 221C     		mov	r2, r4
 324:.\20648_driver\drivers/inv_mems_mpu_selftest.c **** 
 738              		.loc 1 324 0
 739 01c8 0543     		orr	r5, r0
 740              	.LVL106:
 326:.\20648_driver\drivers/inv_mems_mpu_selftest.c **** 
 741              		.loc 1 326 0
 742 01ca 1432     		add	r2, r2, #20
 743 01cc 0121     		mov	r1, #1
 744 01ce 8F20     		mov	r0, #143
 745 01d0 FFF7FEFF 		bl	inv_read_mems_reg
 746              	.LVL107:
 328:.\20648_driver\drivers/inv_mems_mpu_selftest.c **** 
 747              		.loc 1 328 0
 748 01d4 221C     		mov	r2, r4
 326:.\20648_driver\drivers/inv_mems_mpu_selftest.c **** 
 749              		.loc 1 326 0
 750 01d6 0543     		orr	r5, r0
 751              	.LVL108:
 328:.\20648_driver\drivers/inv_mems_mpu_selftest.c **** 
 752              		.loc 1 328 0
 753 01d8 1532     		add	r2, r2, #21
 754 01da 0121     		mov	r1, #1
 755 01dc 9020     		mov	r0, #144
 756 01de FFF7FEFF 		bl	inv_read_mems_reg
 757              	.LVL109:
 331:.\20648_driver\drivers/inv_mems_mpu_selftest.c ****     inv_sleep(GYRO_ENGINE_UP_TIME);
 758              		.loc 1 331 0
 759 01e2 4021     		mov	r1, #64
 328:.\20648_driver\drivers/inv_mems_mpu_selftest.c **** 
 760              		.loc 1 328 0
 761 01e4 0543     		orr	r5, r0
 762              	.LVL110:
 331:.\20648_driver\drivers/inv_mems_mpu_selftest.c ****     inv_sleep(GYRO_ENGINE_UP_TIME);
 763              		.loc 1 331 0
 764 01e6 0720     		mov	r0, #7
 765 01e8 FFF7FEFF 		bl	inv_write_single_mems_reg
 766              	.LVL111:
 767 01ec 0543     		orr	r5, r0
ARM GAS  C:\Users\ADMINI~1\AppData\Local\Temp\ccp9or53.s 			page 24


 768              	.LVL112:
 332:.\20648_driver\drivers/inv_mems_mpu_selftest.c ****     
 769              		.loc 1 332 0
 770 01ee 3220     		mov	r0, #50
 771 01f0 FFF7FEFF 		bl	inv_sleep
 772              	.LVL113:
 773              	.LBE15:
 774              	.LBE17:
 440:.\20648_driver\drivers/inv_mems_mpu_selftest.c **** 	compass_result = 0;
 441:.\20648_driver\drivers/inv_mems_mpu_selftest.c ****     
 442:.\20648_driver\drivers/inv_mems_mpu_selftest.c **** 	// save original state of the chip, initialize registers, configure sensors and read ST values
 443:.\20648_driver\drivers/inv_mems_mpu_selftest.c ****     result = inv_setup_selftest();
 444:.\20648_driver\drivers/inv_mems_mpu_selftest.c ****     if (result)
 775              		.loc 1 444 0
 776 01f4 002D     		cmp	r5, #0
 777 01f6 98D1     		bne	.L34
 778              	.LVL114:
 445:.\20648_driver\drivers/inv_mems_mpu_selftest.c **** 		goto test_fail;
 446:.\20648_driver\drivers/inv_mems_mpu_selftest.c ****     
 447:.\20648_driver\drivers/inv_mems_mpu_selftest.c **** 	// perform self test for gyro
 448:.\20648_driver\drivers/inv_mems_mpu_selftest.c **** 	test_times = DEF_ST_TRY_TIMES;	
 449:.\20648_driver\drivers/inv_mems_mpu_selftest.c **** 	while (test_times > 0) {
 450:.\20648_driver\drivers/inv_mems_mpu_selftest.c **** 		result = inv_do_test_accelgyro(INV_SENSOR_GYRO, gyro_bias_regular, gyro_bias_st);
 779              		.loc 1 450 0
 780 01f8 03AF     		add	r7, sp, #12
 781 01fa 0120     		mov	r0, #1
 782 01fc 391C     		mov	r1, r7
 783 01fe 6A46     		mov	r2, sp
 784 0200 FFF7FEFF 		bl	inv_do_test_accelgyro
 785              	.LVL115:
 451:.\20648_driver\drivers/inv_mems_mpu_selftest.c **** 		if (result)
 786              		.loc 1 451 0
 787 0204 0028     		cmp	r0, #0
 788 0206 08D1     		bne	.L35
 789              	.LVL116:
 790              	.L38:
 452:.\20648_driver\drivers/inv_mems_mpu_selftest.c **** 			test_times--;
 453:.\20648_driver\drivers/inv_mems_mpu_selftest.c ****         else
 454:.\20648_driver\drivers/inv_mems_mpu_selftest.c ****             break;
 455:.\20648_driver\drivers/inv_mems_mpu_selftest.c **** 	}
 456:.\20648_driver\drivers/inv_mems_mpu_selftest.c **** 	if (result)
 457:.\20648_driver\drivers/inv_mems_mpu_selftest.c **** 		goto test_fail;    
 458:.\20648_driver\drivers/inv_mems_mpu_selftest.c ****     
 459:.\20648_driver\drivers/inv_mems_mpu_selftest.c **** 	// perform self test for accel
 460:.\20648_driver\drivers/inv_mems_mpu_selftest.c **** 	test_times = DEF_ST_TRY_TIMES;
 461:.\20648_driver\drivers/inv_mems_mpu_selftest.c **** 	while (test_times > 0) {
 462:.\20648_driver\drivers/inv_mems_mpu_selftest.c **** 		result = inv_do_test_accelgyro(INV_SENSOR_ACCEL, accel_bias_regular, accel_bias_st);
 791              		.loc 1 462 0
 792 0208 09AD     		add	r5, sp, #36
 793              	.LVL117:
 794 020a 0020     		mov	r0, #0
 795 020c 291C     		mov	r1, r5
 796 020e 06AA     		add	r2, sp, #24
 797 0210 FFF7FEFF 		bl	inv_do_test_accelgyro
 798              	.LVL118:
 463:.\20648_driver\drivers/inv_mems_mpu_selftest.c **** 		if (result)
 799              		.loc 1 463 0
ARM GAS  C:\Users\ADMINI~1\AppData\Local\Temp\ccp9or53.s 			page 25


 800 0214 0028     		cmp	r0, #0
 801 0216 08D1     		bne	.L36
 802 0218 0FE0     		b	.L37
 803              	.LVL119:
 804              	.L35:
 450:.\20648_driver\drivers/inv_mems_mpu_selftest.c **** 		if (result)
 805              		.loc 1 450 0
 806 021a 0120     		mov	r0, #1
 807              	.LVL120:
 808 021c 391C     		mov	r1, r7
 809 021e 6A46     		mov	r2, sp
 810 0220 FFF7FEFF 		bl	inv_do_test_accelgyro
 811              	.LVL121:
 456:.\20648_driver\drivers/inv_mems_mpu_selftest.c **** 		goto test_fail;    
 812              		.loc 1 456 0
 813 0224 0028     		cmp	r0, #0
 814 0226 EFD0     		beq	.L38
 815 0228 7FE7     		b	.L34
 816              	.LVL122:
 817              	.L36:
 462:.\20648_driver\drivers/inv_mems_mpu_selftest.c **** 		if (result)
 818              		.loc 1 462 0
 819 022a 0020     		mov	r0, #0
 820              	.LVL123:
 821 022c 291C     		mov	r1, r5
 822 022e 06AA     		add	r2, sp, #24
 823 0230 FFF7FEFF 		bl	inv_do_test_accelgyro
 824              	.LVL124:
 464:.\20648_driver\drivers/inv_mems_mpu_selftest.c **** 			test_times--;
 465:.\20648_driver\drivers/inv_mems_mpu_selftest.c ****         else
 466:.\20648_driver\drivers/inv_mems_mpu_selftest.c ****             break;
 467:.\20648_driver\drivers/inv_mems_mpu_selftest.c **** 	}
 468:.\20648_driver\drivers/inv_mems_mpu_selftest.c **** 	if (result)
 825              		.loc 1 468 0
 826 0234 0028     		cmp	r0, #0
 827 0236 00D0     		beq	.LCB779
 828 0238 77E7     		b	.L34	@long jump
 829              	.LCB779:
 830              	.LVL125:
 831              	.L37:
 430:.\20648_driver\drivers/inv_mems_mpu_selftest.c **** 	int result;
 832              		.loc 1 430 0
 833 023a 0023     		mov	r3, #0
 834              	.LVL126:
 835              	.L39:
 469:.\20648_driver\drivers/inv_mems_mpu_selftest.c **** 		goto test_fail;
 470:.\20648_driver\drivers/inv_mems_mpu_selftest.c **** 
 471:.\20648_driver\drivers/inv_mems_mpu_selftest.c **** 	for (i = 0; i < 3; i++) {
 472:.\20648_driver\drivers/inv_mems_mpu_selftest.c **** 		g_average[i] = gyro_bias_regular[i];// / DEF_ST_PRECISION;
 836              		.loc 1 472 0 discriminator 3
 837 023c F958     		ldr	r1, [r7, r3]
 838 023e 3C4A     		ldr	r2, .L40+4
 839 0240 D150     		str	r1, [r2, r3]
 473:.\20648_driver\drivers/inv_mems_mpu_selftest.c **** 		a_average[i] = accel_bias_regular[i];// / DEF_ST_PRECISION;
 840              		.loc 1 473 0 discriminator 3
 841 0242 E958     		ldr	r1, [r5, r3]
 842 0244 3B4A     		ldr	r2, .L40+8
ARM GAS  C:\Users\ADMINI~1\AppData\Local\Temp\ccp9or53.s 			page 26


 843 0246 D150     		str	r1, [r2, r3]
 844 0248 0433     		add	r3, r3, #4
 471:.\20648_driver\drivers/inv_mems_mpu_selftest.c **** 		g_average[i] = gyro_bias_regular[i];// / DEF_ST_PRECISION;
 845              		.loc 1 471 0 discriminator 3
 846 024a 0C2B     		cmp	r3, #12
 847 024c F6D1     		bne	.L39
 474:.\20648_driver\drivers/inv_mems_mpu_selftest.c **** 	}
 475:.\20648_driver\drivers/inv_mems_mpu_selftest.c **** 	// check values read at various steps
 476:.\20648_driver\drivers/inv_mems_mpu_selftest.c **** 	accel_result = !inv_check_accelgyro_self_test(INV_SENSOR_ACCEL, accel_st_data, accel_bias_regular,
 848              		.loc 1 476 0
 849 024e 211C     		mov	r1, r4
 850 0250 2A1C     		mov	r2, r5
 851 0252 1331     		add	r1, r1, #19
 852 0254 06AB     		add	r3, sp, #24
 853 0256 0020     		mov	r0, #0
 854 0258 FFF7FEFF 		bl	inv_check_accelgyro_self_test
 855              	.LVL127:
 477:.\20648_driver\drivers/inv_mems_mpu_selftest.c **** 	gyro_result = !inv_check_accelgyro_self_test(INV_SENSOR_GYRO, gyro_st_data, gyro_bias_regular, gyr
 856              		.loc 1 477 0
 857 025c 211C     		mov	r1, r4
 476:.\20648_driver\drivers/inv_mems_mpu_selftest.c **** 	gyro_result = !inv_check_accelgyro_self_test(INV_SENSOR_GYRO, gyro_st_data, gyro_bias_regular, gyr
 858              		.loc 1 476 0
 859 025e 4642     		neg	r6, r0
 860 0260 4641     		adc	r6, r6, r0
 861              		.loc 1 477 0
 862 0262 1031     		add	r1, r1, #16
 863 0264 0120     		mov	r0, #1
 864 0266 3A1C     		mov	r2, r7
 865 0268 6B46     		mov	r3, sp
 866 026a FFF7FEFF 		bl	inv_check_accelgyro_self_test
 867              	.LVL128:
 868 026e 4542     		neg	r5, r0
 869 0270 4541     		adc	r5, r5, r0
 476:.\20648_driver\drivers/inv_mems_mpu_selftest.c **** 	gyro_result = !inv_check_accelgyro_self_test(INV_SENSOR_GYRO, gyro_st_data, gyro_bias_regular, gyr
 870              		.loc 1 476 0
 871 0272 F6B2     		uxtb	r6, r6
 872              	.LVL129:
 873              		.loc 1 477 0
 874 0274 EDB2     		uxtb	r5, r5
 875              	.LVL130:
 876              	.L33:
 877              	.LBB18:
 878              	.LBB19:
 162:.\20648_driver\drivers/inv_mems_mpu_selftest.c ****                                      BIT_PWR_PRESSURE_STBY | BIT_PWR_ACCEL_STBY | BIT_PWR_GYRO_STBY
 879              		.loc 1 162 0
 880 0276 7F21     		mov	r1, #127
 881 0278 0720     		mov	r0, #7
 882 027a FFF7FEFF 		bl	inv_write_single_mems_reg
 883              	.LVL131:
 166:.\20648_driver\drivers/inv_mems_mpu_selftest.c **** 	
 884              		.loc 1 166 0
 885 027e 8020     		mov	r0, #128
 886 0280 617A     		ldrb	r1, [r4, #9]
 887 0282 4000     		lsl	r0, r0, #1
 888 0284 FFF7FEFF 		bl	inv_write_single_mems_reg
 889              	.LVL132:
 168:.\20648_driver\drivers/inv_mems_mpu_selftest.c **** 
ARM GAS  C:\Users\ADMINI~1\AppData\Local\Temp\ccp9or53.s 			page 27


 890              		.loc 1 168 0
 891 0288 0220     		mov	r0, #2
 892 028a A17A     		ldrb	r1, [r4, #10]
 893 028c FF30     		add	r0, r0, #255
 894 028e FFF7FEFF 		bl	inv_write_single_mems_reg
 895              	.LVL133:
 170:.\20648_driver\drivers/inv_mems_mpu_selftest.c **** 	
 896              		.loc 1 170 0
 897 0292 8120     		mov	r0, #129
 898 0294 E17A     		ldrb	r1, [r4, #11]
 899 0296 4000     		lsl	r0, r0, #1
 900 0298 FFF7FEFF 		bl	inv_write_single_mems_reg
 901              	.LVL134:
 172:.\20648_driver\drivers/inv_mems_mpu_selftest.c **** 
 902              		.loc 1 172 0
 903 029c 8820     		mov	r0, #136
 904 029e 217B     		ldrb	r1, [r4, #12]
 905 02a0 4000     		lsl	r0, r0, #1
 906 02a2 FFF7FEFF 		bl	inv_write_single_mems_reg
 907              	.LVL135:
 174:.\20648_driver\drivers/inv_mems_mpu_selftest.c **** 
 908              		.loc 1 174 0
 909 02a6 1220     		mov	r0, #18
 910 02a8 617B     		ldrb	r1, [r4, #13]
 911 02aa FF30     		add	r0, r0, #255
 912 02ac FFF7FEFF 		bl	inv_write_single_mems_reg
 913              	.LVL136:
 176:.\20648_driver\drivers/inv_mems_mpu_selftest.c **** 
 914              		.loc 1 176 0
 915 02b0 8A20     		mov	r0, #138
 916 02b2 A17B     		ldrb	r1, [r4, #14]
 917 02b4 4000     		lsl	r0, r0, #1
 918 02b6 FFF7FEFF 		bl	inv_write_single_mems_reg
 919              	.LVL137:
 178:.\20648_driver\drivers/inv_mems_mpu_selftest.c **** 
 920              		.loc 1 178 0
 921 02ba 1620     		mov	r0, #22
 922 02bc E17B     		ldrb	r1, [r4, #15]
 923 02be FF30     		add	r0, r0, #255
 924 02c0 FFF7FEFF 		bl	inv_write_single_mems_reg
 925              	.LVL138:
 181:.\20648_driver\drivers/inv_mems_mpu_selftest.c **** 
 926              		.loc 1 181 0
 927 02c4 2178     		ldrb	r1, [r4]
 928 02c6 7620     		mov	r0, #118
 929 02c8 FFF7FEFF 		bl	inv_write_single_mems_reg
 930              	.LVL139:
 183:.\20648_driver\drivers/inv_mems_mpu_selftest.c **** 
 931              		.loc 1 183 0
 932 02cc A178     		ldrb	r1, [r4, #2]
 933 02ce 0520     		mov	r0, #5
 934 02d0 FFF7FEFF 		bl	inv_write_single_mems_reg
 935              	.LVL140:
 185:.\20648_driver\drivers/inv_mems_mpu_selftest.c **** 
 936              		.loc 1 185 0
 937 02d4 E178     		ldrb	r1, [r4, #3]
 938 02d6 1020     		mov	r0, #16
ARM GAS  C:\Users\ADMINI~1\AppData\Local\Temp\ccp9or53.s 			page 28


 939 02d8 FFF7FEFF 		bl	inv_write_single_mems_reg
 940              	.LVL141:
 187:.\20648_driver\drivers/inv_mems_mpu_selftest.c **** 
 941              		.loc 1 187 0
 942 02dc 2179     		ldrb	r1, [r4, #4]
 943 02de 1120     		mov	r0, #17
 944 02e0 FFF7FEFF 		bl	inv_write_single_mems_reg
 945              	.LVL142:
 189:.\20648_driver\drivers/inv_mems_mpu_selftest.c **** 
 946              		.loc 1 189 0
 947 02e4 A179     		ldrb	r1, [r4, #6]
 948 02e6 6620     		mov	r0, #102
 949 02e8 FFF7FEFF 		bl	inv_write_single_mems_reg
 950              	.LVL143:
 191:.\20648_driver\drivers/inv_mems_mpu_selftest.c **** 
 951              		.loc 1 191 0
 952 02ec E179     		ldrb	r1, [r4, #7]
 953 02ee 6720     		mov	r0, #103
 954 02f0 FFF7FEFF 		bl	inv_write_single_mems_reg
 955              	.LVL144:
 193:.\20648_driver\drivers/inv_mems_mpu_selftest.c **** 
 956              		.loc 1 193 0
 957 02f4 1F21     		mov	r1, #31
 958 02f6 6820     		mov	r0, #104
 959 02f8 FFF7FEFF 		bl	inv_write_single_mems_reg
 960              	.LVL145:
 195:.\20648_driver\drivers/inv_mems_mpu_selftest.c **** 
 961              		.loc 1 195 0
 962 02fc 217A     		ldrb	r1, [r4, #8]
 963 02fe 6820     		mov	r0, #104
 964 0300 FFF7FEFF 		bl	inv_write_single_mems_reg
 965              	.LVL146:
 198:.\20648_driver\drivers/inv_mems_mpu_selftest.c ****                                      (saved_regs.user_ctrl & (~BIT_FIFO_EN)) | BIT_DMP_RST);
 966              		.loc 1 198 0
 967 0304 4823     		mov	r3, #72
 968 0306 6178     		ldrb	r1, [r4, #1]
 969 0308 0320     		mov	r0, #3
 970 030a 9943     		bic	r1, r3
 971 030c 403B     		sub	r3, r3, #64
 972 030e 1943     		orr	r1, r3
 973 0310 FFF7FEFF 		bl	inv_write_single_mems_reg
 974              	.LVL147:
 200:.\20648_driver\drivers/inv_mems_mpu_selftest.c ****     
 975              		.loc 1 200 0
 976 0314 1420     		mov	r0, #20
 977 0316 FFF7FEFF 		bl	inv_sleep
 978              	.LVL148:
 202:.\20648_driver\drivers/inv_mems_mpu_selftest.c **** #if (MEMS_CHIP != HW_ICM20609)
 979              		.loc 1 202 0
 980 031a FFF7FEFF 		bl	inv_set_dmp_address
 981              	.LVL149:
 209:.\20648_driver\drivers/inv_mems_mpu_selftest.c **** 	return result;
 982              		.loc 1 209 0
 983 031e FFF7FEFF 		bl	inv_sleep_mems
 984              	.LVL150:
 985              	.LBE19:
 986              	.LBE18:
ARM GAS  C:\Users\ADMINI~1\AppData\Local\Temp\ccp9or53.s 			page 29


 478:.\20648_driver\drivers/inv_mems_mpu_selftest.c **** #if defined MEMS_SECONDARY_DEVICE
 479:.\20648_driver\drivers/inv_mems_mpu_selftest.c **** 	compass_result = !inv_check_akm_self_test();
 480:.\20648_driver\drivers/inv_mems_mpu_selftest.c **** #endif
 481:.\20648_driver\drivers/inv_mems_mpu_selftest.c ****     
 482:.\20648_driver\drivers/inv_mems_mpu_selftest.c **** test_fail:
 483:.\20648_driver\drivers/inv_mems_mpu_selftest.c **** 	// restore original state of the chips
 484:.\20648_driver\drivers/inv_mems_mpu_selftest.c **** 	inv_recover_setting();
 485:.\20648_driver\drivers/inv_mems_mpu_selftest.c **** 
 486:.\20648_driver\drivers/inv_mems_mpu_selftest.c ****     return (compass_result << 2) |
 487:.\20648_driver\drivers/inv_mems_mpu_selftest.c ****            (accel_result   << 1) |
 987              		.loc 1 487 0
 988 0322 7000     		lsl	r0, r6, #1
 486:.\20648_driver\drivers/inv_mems_mpu_selftest.c ****            (accel_result   << 1) |
 989              		.loc 1 486 0
 990 0324 2843     		orr	r0, r5
 488:.\20648_driver\drivers/inv_mems_mpu_selftest.c ****             gyro_result;
 489:.\20648_driver\drivers/inv_mems_mpu_selftest.c **** }
 991              		.loc 1 489 0
 992 0326 0DB0     		add	sp, sp, #52
 993              		@ sp needed
 994              	.LVL151:
 995              	.LVL152:
 996 0328 F0BD     		pop	{r4, r5, r6, r7, pc}
 997              	.L41:
 998 032a C046     		.align	2
 999              	.L40:
 1000 032c 00000000 		.word	.LANCHOR1
 1001 0330 00000000 		.word	g_average
 1002 0334 00000000 		.word	a_average
 1003              		.cfi_endproc
 1004              	.LFE6:
 1005              		.size	inv_mems_run_selftest, .-inv_mems_run_selftest
 1006              		.section	.rodata
 1007              		.align	1
 1008              		.set	.LANCHOR0,. + 0
 1009              		.type	sSelfTestEquation, %object
 1010              		.size	sSelfTestEquation, 512
 1011              	sSelfTestEquation:
 1012 0000 3C0A     		.short	2620
 1013 0002 560A     		.short	2646
 1014 0004 700A     		.short	2672
 1015 0006 8B0A     		.short	2699
 1016 0008 A60A     		.short	2726
 1017 000a C10A     		.short	2753
 1018 000c DD0A     		.short	2781
 1019 000e F80A     		.short	2808
 1020 0010 150B     		.short	2837
 1021 0012 310B     		.short	2865
 1022 0014 4E0B     		.short	2894
 1023 0016 6B0B     		.short	2923
 1024 0018 880B     		.short	2952
 1025 001a A50B     		.short	2981
 1026 001c C30B     		.short	3011
 1027 001e E10B     		.short	3041
 1028 0020 000C     		.short	3072
 1029 0022 1E0C     		.short	3102
 1030 0024 3D0C     		.short	3133
ARM GAS  C:\Users\ADMINI~1\AppData\Local\Temp\ccp9or53.s 			page 30


 1031 0026 5D0C     		.short	3165
 1032 0028 7C0C     		.short	3196
 1033 002a 9C0C     		.short	3228
 1034 002c BD0C     		.short	3261
 1035 002e DD0C     		.short	3293
 1036 0030 FE0C     		.short	3326
 1037 0032 1F0D     		.short	3359
 1038 0034 410D     		.short	3393
 1039 0036 630D     		.short	3427
 1040 0038 850D     		.short	3461
 1041 003a A80D     		.short	3496
 1042 003c CB0D     		.short	3531
 1043 003e EE0D     		.short	3566
 1044 0040 120E     		.short	3602
 1045 0042 360E     		.short	3638
 1046 0044 5A0E     		.short	3674
 1047 0046 7F0E     		.short	3711
 1048 0048 A40E     		.short	3748
 1049 004a CA0E     		.short	3786
 1050 004c EF0E     		.short	3823
 1051 004e 160F     		.short	3862
 1052 0050 3C0F     		.short	3900
 1053 0052 630F     		.short	3939
 1054 0054 8B0F     		.short	3979
 1055 0056 B30F     		.short	4019
 1056 0058 DB0F     		.short	4059
 1057 005a 0310     		.short	4099
 1058 005c 2C10     		.short	4140
 1059 005e 5610     		.short	4182
 1060 0060 8010     		.short	4224
 1061 0062 AA10     		.short	4266
 1062 0064 D410     		.short	4308
 1063 0066 0011     		.short	4352
 1064 0068 2B11     		.short	4395
 1065 006a 5711     		.short	4439
 1066 006c 8311     		.short	4483
 1067 006e B011     		.short	4528
 1068 0070 DE11     		.short	4574
 1069 0072 0B12     		.short	4619
 1070 0074 3912     		.short	4665
 1071 0076 6812     		.short	4712
 1072 0078 9712     		.short	4759
 1073 007a C712     		.short	4807
 1074 007c F712     		.short	4855
 1075 007e 2713     		.short	4903
 1076 0080 5913     		.short	4953
 1077 0082 8A13     		.short	5002
 1078 0084 BC13     		.short	5052
 1079 0086 EF13     		.short	5103
 1080 0088 2214     		.short	5154
 1081 008a 5514     		.short	5205
 1082 008c 8914     		.short	5257
 1083 008e BE14     		.short	5310
 1084 0090 F314     		.short	5363
 1085 0092 2915     		.short	5417
 1086 0094 5F15     		.short	5471
 1087 0096 9515     		.short	5525
ARM GAS  C:\Users\ADMINI~1\AppData\Local\Temp\ccp9or53.s 			page 31


 1088 0098 CD15     		.short	5581
 1089 009a 0416     		.short	5636
 1090 009c 3D16     		.short	5693
 1091 009e 7616     		.short	5750
 1092 00a0 AF16     		.short	5807
 1093 00a2 E916     		.short	5865
 1094 00a4 2417     		.short	5924
 1095 00a6 5F17     		.short	5983
 1096 00a8 9B17     		.short	6043
 1097 00aa D817     		.short	6104
 1098 00ac 1518     		.short	6165
 1099 00ae 5218     		.short	6226
 1100 00b0 9118     		.short	6289
 1101 00b2 CF18     		.short	6351
 1102 00b4 0F19     		.short	6415
 1103 00b6 4F19     		.short	6479
 1104 00b8 9019     		.short	6544
 1105 00ba D119     		.short	6609
 1106 00bc 131A     		.short	6675
 1107 00be 561A     		.short	6742
 1108 00c0 9A1A     		.short	6810
 1109 00c2 DE1A     		.short	6878
 1110 00c4 221B     		.short	6946
 1111 00c6 681B     		.short	7016
 1112 00c8 AE1B     		.short	7086
 1113 00ca F51B     		.short	7157
 1114 00cc 3D1C     		.short	7229
 1115 00ce 851C     		.short	7301
 1116 00d0 CE1C     		.short	7374
 1117 00d2 181D     		.short	7448
 1118 00d4 621D     		.short	7522
 1119 00d6 AD1D     		.short	7597
 1120 00d8 F91D     		.short	7673
 1121 00da 461E     		.short	7750
 1122 00dc 941E     		.short	7828
 1123 00de E21E     		.short	7906
 1124 00e0 311F     		.short	7985
 1125 00e2 811F     		.short	8065
 1126 00e4 D11F     		.short	8145
 1127 00e6 2320     		.short	8227
 1128 00e8 7520     		.short	8309
 1129 00ea C820     		.short	8392
 1130 00ec 1C21     		.short	8476
 1131 00ee 7121     		.short	8561
 1132 00f0 C721     		.short	8647
 1133 00f2 1D22     		.short	8733
 1134 00f4 7422     		.short	8820
 1135 00f6 CD22     		.short	8909
 1136 00f8 2623     		.short	8998
 1137 00fa 8023     		.short	9088
 1138 00fc DA23     		.short	9178
 1139 00fe 3624     		.short	9270
 1140 0100 9324     		.short	9363
 1141 0102 F124     		.short	9457
 1142 0104 4F25     		.short	9551
 1143 0106 AF25     		.short	9647
 1144 0108 0F26     		.short	9743
ARM GAS  C:\Users\ADMINI~1\AppData\Local\Temp\ccp9or53.s 			page 32


 1145 010a 7126     		.short	9841
 1146 010c D326     		.short	9939
 1147 010e 3627     		.short	10038
 1148 0110 9B27     		.short	10139
 1149 0112 0028     		.short	10240
 1150 0114 6728     		.short	10343
 1151 0116 CE28     		.short	10446
 1152 0118 3629     		.short	10550
 1153 011a A029     		.short	10656
 1154 011c 0B2A     		.short	10763
 1155 011e 762A     		.short	10870
 1156 0120 E32A     		.short	10979
 1157 0122 512B     		.short	11089
 1158 0124 C02B     		.short	11200
 1159 0126 302C     		.short	11312
 1160 0128 A12C     		.short	11425
 1161 012a 132D     		.short	11539
 1162 012c 862D     		.short	11654
 1163 012e FB2D     		.short	11771
 1164 0130 712E     		.short	11889
 1165 0132 E82E     		.short	12008
 1166 0134 602F     		.short	12128
 1167 0136 D92F     		.short	12249
 1168 0138 5330     		.short	12371
 1169 013a CF30     		.short	12495
 1170 013c 4C31     		.short	12620
 1171 013e CA31     		.short	12746
 1172 0140 4A32     		.short	12874
 1173 0142 CA32     		.short	13002
 1174 0144 4C33     		.short	13132
 1175 0146 D033     		.short	13264
 1176 0148 5434     		.short	13396
 1177 014a DA34     		.short	13530
 1178 014c 6235     		.short	13666
 1179 014e EA35     		.short	13802
 1180 0150 7436     		.short	13940
 1181 0152 0037     		.short	14080
 1182 0154 8D37     		.short	14221
 1183 0156 1B38     		.short	14363
 1184 0158 AA38     		.short	14506
 1185 015a 3C39     		.short	14652
 1186 015c CE39     		.short	14798
 1187 015e 623A     		.short	14946
 1188 0160 F83A     		.short	15096
 1189 0162 8F3B     		.short	15247
 1190 0164 273C     		.short	15399
 1191 0166 C13C     		.short	15553
 1192 0168 5D3D     		.short	15709
 1193 016a FA3D     		.short	15866
 1194 016c 983E     		.short	16024
 1195 016e 383F     		.short	16184
 1196 0170 DA3F     		.short	16346
 1197 0172 7E40     		.short	16510
 1198 0174 2341     		.short	16675
 1199 0176 CA41     		.short	16842
 1200 0178 7242     		.short	17010
 1201 017a 1C43     		.short	17180
ARM GAS  C:\Users\ADMINI~1\AppData\Local\Temp\ccp9or53.s 			page 33


 1202 017c C843     		.short	17352
 1203 017e 7644     		.short	17526
 1204 0180 2545     		.short	17701
 1205 0182 D645     		.short	17878
 1206 0184 8946     		.short	18057
 1207 0186 3D47     		.short	18237
 1208 0188 F447     		.short	18420
 1209 018a AC48     		.short	18604
 1210 018c 6649     		.short	18790
 1211 018e 224A     		.short	18978
 1212 0190 DF4A     		.short	19167
 1213 0192 9F4B     		.short	19359
 1214 0194 614C     		.short	19553
 1215 0196 244D     		.short	19748
 1216 0198 EA4D     		.short	19946
 1217 019a B14E     		.short	20145
 1218 019c 7B4F     		.short	20347
 1219 019e 4650     		.short	20550
 1220 01a0 1451     		.short	20756
 1221 01a2 E351     		.short	20963
 1222 01a4 B552     		.short	21173
 1223 01a6 8953     		.short	21385
 1224 01a8 5E54     		.short	21598
 1225 01aa 3655     		.short	21814
 1226 01ac 1156     		.short	22033
 1227 01ae ED56     		.short	22253
 1228 01b0 CB57     		.short	22475
 1229 01b2 AC58     		.short	22700
 1230 01b4 8F59     		.short	22927
 1231 01b6 745A     		.short	23156
 1232 01b8 5C5B     		.short	23388
 1233 01ba 465C     		.short	23622
 1234 01bc 325D     		.short	23858
 1235 01be 215E     		.short	24097
 1236 01c0 125F     		.short	24338
 1237 01c2 0560     		.short	24581
 1238 01c4 FB60     		.short	24827
 1239 01c6 F361     		.short	25075
 1240 01c8 EE62     		.short	25326
 1241 01ca EB63     		.short	25579
 1242 01cc EB64     		.short	25835
 1243 01ce ED65     		.short	26093
 1244 01d0 F266     		.short	26354
 1245 01d2 FA67     		.short	26618
 1246 01d4 0469     		.short	26884
 1247 01d6 116A     		.short	27153
 1248 01d8 206B     		.short	27424
 1249 01da 336C     		.short	27699
 1250 01dc 486D     		.short	27976
 1251 01de 5F6E     		.short	28255
 1252 01e0 7A6F     		.short	28538
 1253 01e2 9770     		.short	28823
 1254 01e4 B871     		.short	29112
 1255 01e6 DB72     		.short	29403
 1256 01e8 0174     		.short	29697
 1257 01ea 2A75     		.short	29994
 1258 01ec 5676     		.short	30294
ARM GAS  C:\Users\ADMINI~1\AppData\Local\Temp\ccp9or53.s 			page 34


 1259 01ee 8577     		.short	30597
 1260 01f0 B778     		.short	30903
 1261 01f2 EC79     		.short	31212
 1262 01f4 247B     		.short	31524
 1263 01f6 5F7C     		.short	31839
 1264 01f8 9D7D     		.short	32157
 1265 01fa DF7E     		.short	32479
 1266 01fc 2480     		.short	-32732
 1267 01fe 0000     		.space	2
 1268              		.bss
 1269              		.set	.LANCHOR1,. + 0
 1270              		.type	saved_regs, %object
 1271              		.size	saved_regs, 16
 1272              	saved_regs:
 1273 0000 00000000 		.space	16
 1273      00000000 
 1273      00000000 
 1273      00000000 
 1274              		.type	gyro_st_data, %object
 1275              		.size	gyro_st_data, 3
 1276              	gyro_st_data:
 1277 0010 000000   		.space	3
 1278              		.type	accel_st_data, %object
 1279              		.size	accel_st_data, 3
 1280              	accel_st_data:
 1281 0013 000000   		.space	3
 1282              		.text
 1283              	.Letext0:
 1284              		.file 2 "c:\\program files (x86)\\cypress\\psoc creator\\3.3\\psoc creator\\import\\gnu\\arm\\4.9.
 1285              		.file 3 "./.\\20648_driver\\common\\mltypes.h"
 1286              		.file 4 "c:\\program files (x86)\\cypress\\psoc creator\\3.3\\psoc creator\\import\\gnu\\arm\\4.9.
 1287              		.file 5 "./.\\20648_driver\\drivers\\inv_mems_transport.h"
 1288              		.file 6 "./.\\20648_driver\\drivers\\inv_mems_base_driver.h"
 1289              		.file 7 "./.\\20648_driver\\dmp3a\\dmp3Driver.h"
 1290              		.file 8 "./.\\20648_driver\\common\\inv_mems_drv_hook.h"