ARM GAS  C:\Users\ADMINI~1\AppData\Local\Temp\ccjTNAQQ.s 			page 1


   1              		.cpu cortex-m0
   2              		.fpu softvfp
   3              		.eabi_attribute 20, 1
   4              		.eabi_attribute 21, 1
   5              		.eabi_attribute 23, 3
   6              		.eabi_attribute 24, 1
   7              		.eabi_attribute 25, 1
   8              		.eabi_attribute 26, 1
   9              		.eabi_attribute 30, 4
  10              		.eabi_attribute 34, 0
  11              		.eabi_attribute 18, 4
  12              		.code	16
  13              		.file	"inv_mems_base_control.c"
  14              		.text
  15              	.Ltext0:
  16              		.cfi_sections	.debug_frame
  17              		.global	__aeabi_idiv
  18              		.section	.text.DividerRateSet,"ax",%progbits
  19              		.align	1
  20              		.code	16
  21              		.thumb_func
  22              		.type	DividerRateSet, %function
  23              	DividerRateSet:
  24              	.LFB2:
  25              		.file 1 ".\\20648_driver\\drivers\\inv_mems_base_control.c"
   1:.\20648_driver\drivers/inv_mems_base_control.c **** /*
   2:.\20648_driver\drivers/inv_mems_base_control.c **** * _________________________________________________________________________________________________
   3:.\20648_driver\drivers/inv_mems_base_control.c **** * Copyright © 2014-2015 InvenSense Inc. Portions Copyright © 2014-2015 Movea. All rights reserved.
   4:.\20648_driver\drivers/inv_mems_base_control.c **** * This software, related documentation and any modifications thereto (collectively “Software”) is s
   5:.\20648_driver\drivers/inv_mems_base_control.c **** * to InvenSense and its licensors' intellectual property rights under U.S. and international copyri
   6:.\20648_driver\drivers/inv_mems_base_control.c **** * other intellectual property rights laws.
   7:.\20648_driver\drivers/inv_mems_base_control.c **** * InvenSense and its licensors retain all intellectual property and proprietary rights in and to th
   8:.\20648_driver\drivers/inv_mems_base_control.c **** * and any use, reproduction, disclosure or distribution of the Software without an express license
   9:.\20648_driver\drivers/inv_mems_base_control.c **** * agreement from InvenSense is strictly prohibited.
  10:.\20648_driver\drivers/inv_mems_base_control.c **** * _________________________________________________________________________________________________
  11:.\20648_driver\drivers/inv_mems_base_control.c **** */
  12:.\20648_driver\drivers/inv_mems_base_control.c **** 
  13:.\20648_driver\drivers/inv_mems_base_control.c **** #ifndef MEMS_20609
  14:.\20648_driver\drivers/inv_mems_base_control.c **** 
  15:.\20648_driver\drivers/inv_mems_base_control.c **** #include ".\20648_driver\drivers\inv_mems_base_control.h"
  16:.\20648_driver\drivers/inv_mems_base_control.c **** 
  17:.\20648_driver\drivers/inv_mems_base_control.c **** #include ".\20648_driver\invn\mlmath.h"
  18:.\20648_driver\drivers/inv_mems_base_control.c **** #include ".\20648_driver\dmp3\inv_mems_interface_mapping.h"
  19:.\20648_driver\drivers/inv_mems_base_control.c **** 
  20:.\20648_driver\drivers/inv_mems_base_control.c **** #if defined MEMS_SECONDARY_DEVICE
  21:.\20648_driver\drivers/inv_mems_base_control.c **** #include "driver/inv_mems_slave_compass.h"
  22:.\20648_driver\drivers/inv_mems_base_control.c **** #include "driver/inv_mems_slave_pressure.h"
  23:.\20648_driver\drivers/inv_mems_base_control.c **** #include "driver/inv_mems_secondary_transport.h"
  24:.\20648_driver\drivers/inv_mems_base_control.c **** #endif
  25:.\20648_driver\drivers/inv_mems_base_control.c **** 
  26:.\20648_driver\drivers/inv_mems_base_control.c **** #if defined MEMS_AUGMENTED_SENSORS
  27:.\20648_driver\drivers/inv_mems_base_control.c **** #include "driver/inv_mems_augmented_sensors.h"
  28:.\20648_driver\drivers/inv_mems_base_control.c **** #endif
  29:.\20648_driver\drivers/inv_mems_base_control.c **** 
  30:.\20648_driver\drivers/inv_mems_base_control.c **** #include ".\20648_driver\invn\invn_types.h"
  31:.\20648_driver\drivers/inv_mems_base_control.c **** 
  32:.\20648_driver\drivers/inv_mems_base_control.c **** //#define INV_SENSOR_MULTIFIFO
ARM GAS  C:\Users\ADMINI~1\AppData\Local\Temp\ccjTNAQQ.s 			page 2


  33:.\20648_driver\drivers/inv_mems_base_control.c **** #define INV_ODR_MIN_DELAY   200     // Limited by 8-bit HW Gyro rate divider register "GYRO_SMPLRT_
  34:.\20648_driver\drivers/inv_mems_base_control.c **** 
  35:.\20648_driver\drivers/inv_mems_base_control.c **** static inv_error_t inv_enable_sensor_internal(unsigned char androidSensor, unsigned char enable, ch
  36:.\20648_driver\drivers/inv_mems_base_control.c **** #if defined MEMS_SECONDARY_DEVICE
  37:.\20648_driver\drivers/inv_mems_base_control.c **** static unsigned char sensor_needs_compass(unsigned char androidSensor);
  38:.\20648_driver\drivers/inv_mems_base_control.c **** static unsigned char sensor_needs_pressure(unsigned char androidSensor);
  39:.\20648_driver\drivers/inv_mems_base_control.c **** #endif
  40:.\20648_driver\drivers/inv_mems_base_control.c **** 
  41:.\20648_driver\drivers/inv_mems_base_control.c **** static unsigned short inv_dmp_odr_dividers[INV_SENSOR_NUM_MAX] = {0};	// Actual ODRs in dividers fr
  42:.\20648_driver\drivers/inv_mems_base_control.c **** static unsigned short inv_dmp_odr_delays[INV_SENSOR_NUM_MAX] =          // Desired ODRs in millisec
  43:.\20648_driver\drivers/inv_mems_base_control.c **** {
  44:.\20648_driver\drivers/inv_mems_base_control.c ****     INV_ODR_MIN_DELAY,      // INV_SENSOR_ACCEL
  45:.\20648_driver\drivers/inv_mems_base_control.c ****     INV_ODR_MIN_DELAY,      // INV_SENSOR_GYRO,        
  46:.\20648_driver\drivers/inv_mems_base_control.c ****     INV_ODR_MIN_DELAY,      // INV_SENSOR_LPQ,  
  47:.\20648_driver\drivers/inv_mems_base_control.c ****     INV_ODR_MIN_DELAY,      // INV_SENSOR_COMPASS,
  48:.\20648_driver\drivers/inv_mems_base_control.c ****     INV_ODR_MIN_DELAY,      // INV_SENSOR_ALS,
  49:.\20648_driver\drivers/inv_mems_base_control.c ****     INV_ODR_MIN_DELAY,      // INV_SENSOR_SIXQ,
  50:.\20648_driver\drivers/inv_mems_base_control.c ****     INV_ODR_MIN_DELAY,      // INV_SENSOR_NINEQ,
  51:.\20648_driver\drivers/inv_mems_base_control.c ****     INV_ODR_MIN_DELAY,      // INV_SENSOR_GEOMAG,
  52:.\20648_driver\drivers/inv_mems_base_control.c ****     INV_ODR_MIN_DELAY,      // INV_SENSOR_PEDQ,
  53:.\20648_driver\drivers/inv_mems_base_control.c ****     INV_ODR_MIN_DELAY,      // INV_SENSOR_PRESSURE,
  54:.\20648_driver\drivers/inv_mems_base_control.c ****     INV_ODR_MIN_DELAY,      // INV_SENSOR_CALIB_GYRO,
  55:.\20648_driver\drivers/inv_mems_base_control.c ****     INV_ODR_MIN_DELAY,      // INV_SENSOR_CALIB_COMPASS,
  56:.\20648_driver\drivers/inv_mems_base_control.c ****     INV_ODR_MIN_DELAY,      // INV_SENSOR_STEP_COUNTER,
  57:.\20648_driver\drivers/inv_mems_base_control.c ****     INV_ODR_MIN_DELAY,      // INV_SENSOR_ACTIVITY_CLASSIFIER,
  58:.\20648_driver\drivers/inv_mems_base_control.c ****     INV_ODR_MIN_DELAY,      // INV_SENSOR_FLIP_PICKUP,
  59:.\20648_driver\drivers/inv_mems_base_control.c ****     INV_ODR_MIN_DELAY,      // INV_SENSOR_BRING_TO_SEE,
  60:.\20648_driver\drivers/inv_mems_base_control.c **** 
  61:.\20648_driver\drivers/inv_mems_base_control.c ****     INV_ODR_MIN_DELAY,      // INV_SENSOR_SIXQ_accel,
  62:.\20648_driver\drivers/inv_mems_base_control.c ****     INV_ODR_MIN_DELAY,      // INV_SENSOR_NINEQ_accel,
  63:.\20648_driver\drivers/inv_mems_base_control.c ****     INV_ODR_MIN_DELAY,      // INV_SENSOR_GEOMAG_cpass,
  64:.\20648_driver\drivers/inv_mems_base_control.c ****     INV_ODR_MIN_DELAY,      // INV_SENSOR_NINEQ_cpass,
  65:.\20648_driver\drivers/inv_mems_base_control.c **** 
  66:.\20648_driver\drivers/inv_mems_base_control.c ****     INV_ODR_MIN_DELAY,      // INV_SENSOR_WAKEUP_ACCEL,
  67:.\20648_driver\drivers/inv_mems_base_control.c ****     INV_ODR_MIN_DELAY,      // INV_SENSOR_WAKEUP_GYRO,        
  68:.\20648_driver\drivers/inv_mems_base_control.c ****     //INV_ODR_MIN_DELAY,    // INV_SENSOR_WAKEUP_LPQ,
  69:.\20648_driver\drivers/inv_mems_base_control.c ****     INV_ODR_MIN_DELAY,      // INV_SENSOR_WAKEUP_COMPASS,
  70:.\20648_driver\drivers/inv_mems_base_control.c ****     INV_ODR_MIN_DELAY,      // INV_SENSOR_WAKEUP_ALS,
  71:.\20648_driver\drivers/inv_mems_base_control.c ****     INV_ODR_MIN_DELAY,      // INV_SENSOR_WAKEUP_SIXQ,
  72:.\20648_driver\drivers/inv_mems_base_control.c ****     INV_ODR_MIN_DELAY,      // INV_SENSOR_WAKEUP_NINEQ,
  73:.\20648_driver\drivers/inv_mems_base_control.c ****     INV_ODR_MIN_DELAY,      // INV_SENSOR_WAKEUP_GEOMAG,
  74:.\20648_driver\drivers/inv_mems_base_control.c ****     INV_ODR_MIN_DELAY,      // INV_SENSOR_WAKEUP_PEDQ,
  75:.\20648_driver\drivers/inv_mems_base_control.c ****     INV_ODR_MIN_DELAY,      // INV_SENSOR_WAKEUP_PRESSURE,
  76:.\20648_driver\drivers/inv_mems_base_control.c ****     INV_ODR_MIN_DELAY,      // INV_SENSOR_WAKEUP_CALIB_GYRO,
  77:.\20648_driver\drivers/inv_mems_base_control.c ****     INV_ODR_MIN_DELAY,      // INV_SENSOR_WAKEUP_CALIB_COMPASS,
  78:.\20648_driver\drivers/inv_mems_base_control.c ****     INV_ODR_MIN_DELAY,      // INV_SENSOR_WAKEUP_STEP_COUNTER,
  79:.\20648_driver\drivers/inv_mems_base_control.c ****     INV_ODR_MIN_DELAY,      // INV_SENSOR_WAKEUP_TILT_DETECTOR,
  80:.\20648_driver\drivers/inv_mems_base_control.c ****     //INV_ODR_MIN_DELAY,    // INV_SENSOR_WAKEUP_ACTIVITY_CLASSIFIER,
  81:.\20648_driver\drivers/inv_mems_base_control.c **** 
  82:.\20648_driver\drivers/inv_mems_base_control.c ****     INV_ODR_MIN_DELAY,      // INV_SENSOR_WAKEUP_SIXQ_accel,
  83:.\20648_driver\drivers/inv_mems_base_control.c ****     INV_ODR_MIN_DELAY,      // INV_SENSOR_WAKEUP_NINEQ_accel,
  84:.\20648_driver\drivers/inv_mems_base_control.c ****     INV_ODR_MIN_DELAY,      // INV_SENSOR_WAKEUP_GEOMAG_cpass,
  85:.\20648_driver\drivers/inv_mems_base_control.c ****     INV_ODR_MIN_DELAY,      // INV_SENSOR_WAKEUP_NINEQ_cpass,
  86:.\20648_driver\drivers/inv_mems_base_control.c **** };
  87:.\20648_driver\drivers/inv_mems_base_control.c **** 
  88:.\20648_driver\drivers/inv_mems_base_control.c **** #if (MEMS_CHIP == HW_ICM20645_E || MEMS_CHIP == HW_ICM20648)
  89:.\20648_driver\drivers/inv_mems_base_control.c **** static unsigned short bac_on = 0; // indicates if ANDROID_SENSOR_ACTIVITY_CLASSIFICATON is on
ARM GAS  C:\Users\ADMINI~1\AppData\Local\Temp\ccjTNAQQ.s 			page 3


  90:.\20648_driver\drivers/inv_mems_base_control.c **** static unsigned short bac_status = 0;
  91:.\20648_driver\drivers/inv_mems_base_control.c **** #endif
  92:.\20648_driver\drivers/inv_mems_base_control.c **** static unsigned short b2s_status = 0;
  93:.\20648_driver\drivers/inv_mems_base_control.c **** static unsigned short flip_pickup_status = 0;
  94:.\20648_driver\drivers/inv_mems_base_control.c **** static unsigned short inv_sensor_control = 0;
  95:.\20648_driver\drivers/inv_mems_base_control.c **** static unsigned short inv_sensor_control2 = 0;
  96:.\20648_driver\drivers/inv_mems_base_control.c **** static unsigned long inv_androidSensorsOn_mask[2] = {0}; // Each bit corresponds to a sensor being 
  97:.\20648_driver\drivers/inv_mems_base_control.c **** 
  98:.\20648_driver\drivers/inv_mems_base_control.c **** #if (MEMS_CHIP == HW_ICM30630)
  99:.\20648_driver\drivers/inv_mems_base_control.c **** static unsigned char sGmrvIsOn = 0; // indicates if GMRV was requested to be ON by end-user. Once t
 100:.\20648_driver\drivers/inv_mems_base_control.c **** #endif
 101:.\20648_driver\drivers/inv_mems_base_control.c **** 
 102:.\20648_driver\drivers/inv_mems_base_control.c **** const short inv_androidSensor_to_control_bits[ANDROID_SENSOR_NUM_MAX]=
 103:.\20648_driver\drivers/inv_mems_base_control.c **** {
 104:.\20648_driver\drivers/inv_mems_base_control.c ****     // Unsupported Sensors are -1
 105:.\20648_driver\drivers/inv_mems_base_control.c ****     -1, // Meta Data
 106:.\20648_driver\drivers/inv_mems_base_control.c ****     -32760, //0x8008, // Accelerometer
 107:.\20648_driver\drivers/inv_mems_base_control.c ****     0x0028, // Magnetic Field
 108:.\20648_driver\drivers/inv_mems_base_control.c ****     0x0408, // Orientation
 109:.\20648_driver\drivers/inv_mems_base_control.c **** #if (MEMS_CHIP == HW_ICM30630 || MEMS_CHIP == HW_ICM20648)
 110:.\20648_driver\drivers/inv_mems_base_control.c ****     0x4048, // Gyroscope
 111:.\20648_driver\drivers/inv_mems_base_control.c **** #else
 112:.\20648_driver\drivers/inv_mems_base_control.c ****     0x0048, // Gyroscope
 113:.\20648_driver\drivers/inv_mems_base_control.c **** #endif
 114:.\20648_driver\drivers/inv_mems_base_control.c ****     0x1008, // Light
 115:.\20648_driver\drivers/inv_mems_base_control.c ****     0x0088, // Pressure
 116:.\20648_driver\drivers/inv_mems_base_control.c ****     -1, // Temperature
 117:.\20648_driver\drivers/inv_mems_base_control.c ****     -1, // Proximity <----------- fixme
 118:.\20648_driver\drivers/inv_mems_base_control.c ****     0x0808, // Gravity
 119:.\20648_driver\drivers/inv_mems_base_control.c ****     -30712, // 0x8808, // Linear Acceleration
 120:.\20648_driver\drivers/inv_mems_base_control.c ****     0x0408, // Rotation Vector
 121:.\20648_driver\drivers/inv_mems_base_control.c ****     -1, // Humidity
 122:.\20648_driver\drivers/inv_mems_base_control.c ****     -1, // Ambient Temperature
 123:.\20648_driver\drivers/inv_mems_base_control.c ****     0x2008, // Magnetic Field Uncalibrated
 124:.\20648_driver\drivers/inv_mems_base_control.c ****     0x0808, // Game Rotation Vector
 125:.\20648_driver\drivers/inv_mems_base_control.c ****     0x4008, // Gyroscope Uncalibrated
 126:.\20648_driver\drivers/inv_mems_base_control.c ****     0, // Significant Motion
 127:.\20648_driver\drivers/inv_mems_base_control.c ****     0x0018, // Step Detector
 128:.\20648_driver\drivers/inv_mems_base_control.c ****     0x0010, // Step Counter <----------- fixme
 129:.\20648_driver\drivers/inv_mems_base_control.c **** #if (MEMS_CHIP == HW_ICM20648)
 130:.\20648_driver\drivers/inv_mems_base_control.c ****     0x0108, // Geomagnetic Rotation Vector
 131:.\20648_driver\drivers/inv_mems_base_control.c **** #else
 132:.\20648_driver\drivers/inv_mems_base_control.c ****     0x0408, // Geomagnetic Rotation Vector
 133:.\20648_driver\drivers/inv_mems_base_control.c **** #endif
 134:.\20648_driver\drivers/inv_mems_base_control.c **** 	-1, //ANDROID_SENSOR_HEART_RATE,
 135:.\20648_driver\drivers/inv_mems_base_control.c **** 	-1, //ANDROID_SENSOR_PROXIMITY,
 136:.\20648_driver\drivers/inv_mems_base_control.c **** 
 137:.\20648_driver\drivers/inv_mems_base_control.c **** 	-32760, // ANDROID_SENSOR_WAKEUP_ACCELEROMETER,
 138:.\20648_driver\drivers/inv_mems_base_control.c **** 	0x0028, // ANDROID_SENSOR_WAKEUP_MAGNETIC_FIELD,
 139:.\20648_driver\drivers/inv_mems_base_control.c **** 	0x0408, // ANDROID_SENSOR_WAKEUP_ORIENTATION,
 140:.\20648_driver\drivers/inv_mems_base_control.c **** #if (MEMS_CHIP == HW_ICM30630 || MEMS_CHIP == HW_ICM20648)
 141:.\20648_driver\drivers/inv_mems_base_control.c ****     0x4048, // ANDROID_SENSOR_WAKEUP_GYROSCOPE,
 142:.\20648_driver\drivers/inv_mems_base_control.c **** #else
 143:.\20648_driver\drivers/inv_mems_base_control.c ****     0x0048, // ANDROID_SENSOR_WAKEUP_GYROSCOPE,
 144:.\20648_driver\drivers/inv_mems_base_control.c **** #endif
 145:.\20648_driver\drivers/inv_mems_base_control.c **** 	0x1008, // ANDROID_SENSOR_WAKEUP_LIGHT,
 146:.\20648_driver\drivers/inv_mems_base_control.c **** 	0x0088, // ANDROID_SENSOR_WAKEUP_PRESSURE,
ARM GAS  C:\Users\ADMINI~1\AppData\Local\Temp\ccjTNAQQ.s 			page 4


 147:.\20648_driver\drivers/inv_mems_base_control.c **** 	0x0808, // ANDROID_SENSOR_WAKEUP_GRAVITY,
 148:.\20648_driver\drivers/inv_mems_base_control.c **** 	-30712, // ANDROID_SENSOR_WAKEUP_LINEAR_ACCELERATION,
 149:.\20648_driver\drivers/inv_mems_base_control.c **** 	0x0408, // ANDROID_SENSOR_WAKEUP_ROTATION_VECTOR,
 150:.\20648_driver\drivers/inv_mems_base_control.c **** 	-1,		// ANDROID_SENSOR_WAKEUP_RELATIVE_HUMIDITY,
 151:.\20648_driver\drivers/inv_mems_base_control.c **** 	-1,		// ANDROID_SENSOR_WAKEUP_AMBIENT_TEMPERATURE,
 152:.\20648_driver\drivers/inv_mems_base_control.c **** 	0x2008, // ANDROID_SENSOR_WAKEUP_MAGNETIC_FIELD_UNCALIBRATED,
 153:.\20648_driver\drivers/inv_mems_base_control.c **** 	0x0808, // ANDROID_SENSOR_WAKEUP_GAME_ROTATION_VECTOR,
 154:.\20648_driver\drivers/inv_mems_base_control.c **** 	0x4008, // ANDROID_SENSOR_WAKEUP_GYROSCOPE_UNCALIBRATED,
 155:.\20648_driver\drivers/inv_mems_base_control.c **** 	0x0018, // ANDROID_SENSOR_WAKEUP_STEP_DETECTOR,
 156:.\20648_driver\drivers/inv_mems_base_control.c **** 	0x0010, // ANDROID_SENSOR_WAKEUP_STEP_COUNTER,
 157:.\20648_driver\drivers/inv_mems_base_control.c **** #if (MEMS_CHIP == HW_ICM20648)
 158:.\20648_driver\drivers/inv_mems_base_control.c ****     0x0108, // ANDROID_SENSOR_WAKEUP_GEOMAGNETIC_ROTATION_VECTOR
 159:.\20648_driver\drivers/inv_mems_base_control.c **** #else
 160:.\20648_driver\drivers/inv_mems_base_control.c **** 	0x0408, // ANDROID_SENSOR_WAKEUP_GEOMAGNETIC_ROTATION_VECTOR,
 161:.\20648_driver\drivers/inv_mems_base_control.c **** #endif
 162:.\20648_driver\drivers/inv_mems_base_control.c **** 	-1,		// ANDROID_SENSOR_WAKEUP_HEART_RATE,
 163:.\20648_driver\drivers/inv_mems_base_control.c **** 	0,		// ANDROID_SENSOR_WAKEUP_TILT_DETECTOR,
 164:.\20648_driver\drivers/inv_mems_base_control.c **** };
 165:.\20648_driver\drivers/inv_mems_base_control.c **** 
 166:.\20648_driver\drivers/inv_mems_base_control.c **** unsigned long inv_androidSensor_enabled(unsigned char androidSensor)
 167:.\20648_driver\drivers/inv_mems_base_control.c **** {
 168:.\20648_driver\drivers/inv_mems_base_control.c **** 	return inv_androidSensorsOn_mask[(androidSensor>>5)] & (1L << (androidSensor&0x1F));
 169:.\20648_driver\drivers/inv_mems_base_control.c **** }
 170:.\20648_driver\drivers/inv_mems_base_control.c **** 
 171:.\20648_driver\drivers/inv_mems_base_control.c **** 
 172:.\20648_driver\drivers/inv_mems_base_control.c **** /******************/
 173:.\20648_driver\drivers/inv_mems_base_control.c **** typedef	struct
 174:.\20648_driver\drivers/inv_mems_base_control.c **** {	enum	ANDROID_SENSORS	AndroidSensor;
 175:.\20648_driver\drivers/inv_mems_base_control.c **** 	enum	INV_SENSORS		InvSensor;
 176:.\20648_driver\drivers/inv_mems_base_control.c **** }	MinDelayGenElementT;
 177:.\20648_driver\drivers/inv_mems_base_control.c **** 
 178:.\20648_driver\drivers/inv_mems_base_control.c **** /******************/
 179:.\20648_driver\drivers/inv_mems_base_control.c **** //	accel
 180:.\20648_driver\drivers/inv_mems_base_control.c **** static	const	MinDelayGenElementT	MinDelayGenAccelList	[]	=
 181:.\20648_driver\drivers/inv_mems_base_control.c **** {	{	ANDROID_SENSOR_ACCELEROMETER,						INV_SENSOR_ACCEL				}
 182:.\20648_driver\drivers/inv_mems_base_control.c **** ,	{	ANDROID_SENSOR_WAKEUP_ACCELEROMETER,				INV_SENSOR_WAKEUP_ACCEL			}
 183:.\20648_driver\drivers/inv_mems_base_control.c **** ,	{	ANDROID_SENSOR_GEOMAGNETIC_ROTATION_VECTOR,			INV_SENSOR_GEOMAG				}
 184:.\20648_driver\drivers/inv_mems_base_control.c **** ,	{	ANDROID_SENSOR_WAKEUP_GEOMAGNETIC_ROTATION_VECTOR,	INV_SENSOR_WAKEUP_GEOMAG		}
 185:.\20648_driver\drivers/inv_mems_base_control.c **** #if (MEMS_CHIP != HW_ICM30630)
 186:.\20648_driver\drivers/inv_mems_base_control.c **** ,	{	ANDROID_SENSOR_STEP_DETECTOR,						INV_SENSOR_STEP_COUNTER			}
 187:.\20648_driver\drivers/inv_mems_base_control.c **** ,	{	ANDROID_SENSOR_STEP_COUNTER,						INV_SENSOR_STEP_COUNTER			}
 188:.\20648_driver\drivers/inv_mems_base_control.c **** ,	{	ANDROID_SENSOR_WAKEUP_STEP_DETECTOR,				INV_SENSOR_WAKEUP_STEP_COUNTER	}
 189:.\20648_driver\drivers/inv_mems_base_control.c **** ,	{	ANDROID_SENSOR_WAKEUP_STEP_COUNTER,					INV_SENSOR_WAKEUP_STEP_COUNTER	}
 190:.\20648_driver\drivers/inv_mems_base_control.c **** ,	{	ANDROID_SENSOR_WAKEUP_SIGNIFICANT_MOTION,			INV_SENSOR_WAKEUP_STEP_COUNTER	}
 191:.\20648_driver\drivers/inv_mems_base_control.c **** ,	{	ANDROID_SENSOR_WAKEUP_TILT_DETECTOR,				INV_SENSOR_WAKEUP_TILT_DETECTOR	}
 192:.\20648_driver\drivers/inv_mems_base_control.c **** #endif
 193:.\20648_driver\drivers/inv_mems_base_control.c **** ,	{	ANDROID_SENSOR_GRAVITY,								INV_SENSOR_SIXQ_accel			}
 194:.\20648_driver\drivers/inv_mems_base_control.c **** ,	{	ANDROID_SENSOR_GAME_ROTATION_VECTOR,				INV_SENSOR_SIXQ_accel			}
 195:.\20648_driver\drivers/inv_mems_base_control.c **** ,	{	ANDROID_SENSOR_LINEAR_ACCELERATION,					INV_SENSOR_SIXQ_accel			}
 196:.\20648_driver\drivers/inv_mems_base_control.c **** ,	{	ANDROID_SENSOR_WAKEUP_GRAVITY,						INV_SENSOR_WAKEUP_SIXQ_accel	}
 197:.\20648_driver\drivers/inv_mems_base_control.c **** ,	{	ANDROID_SENSOR_WAKEUP_GAME_ROTATION_VECTOR,			INV_SENSOR_WAKEUP_SIXQ_accel	}
 198:.\20648_driver\drivers/inv_mems_base_control.c **** ,	{	ANDROID_SENSOR_WAKEUP_LINEAR_ACCELERATION,			INV_SENSOR_WAKEUP_SIXQ_accel	}
 199:.\20648_driver\drivers/inv_mems_base_control.c **** ,	{	ANDROID_SENSOR_ORIENTATION,							INV_SENSOR_NINEQ_accel			}
 200:.\20648_driver\drivers/inv_mems_base_control.c **** ,	{	ANDROID_SENSOR_ROTATION_VECTOR,						INV_SENSOR_NINEQ_accel			}
 201:.\20648_driver\drivers/inv_mems_base_control.c **** ,	{	ANDROID_SENSOR_WAKEUP_ORIENTATION,					INV_SENSOR_WAKEUP_NINEQ_accel	}
 202:.\20648_driver\drivers/inv_mems_base_control.c **** ,	{	ANDROID_SENSOR_WAKEUP_ROTATION_VECTOR,				INV_SENSOR_WAKEUP_NINEQ_accel	}
 203:.\20648_driver\drivers/inv_mems_base_control.c **** };
ARM GAS  C:\Users\ADMINI~1\AppData\Local\Temp\ccjTNAQQ.s 			page 5


 204:.\20648_driver\drivers/inv_mems_base_control.c **** 
 205:.\20648_driver\drivers/inv_mems_base_control.c **** //	gyro
 206:.\20648_driver\drivers/inv_mems_base_control.c **** static	const	MinDelayGenElementT	MinDelayGenGyroList	[]	=
 207:.\20648_driver\drivers/inv_mems_base_control.c **** {	{	ANDROID_SENSOR_GYROSCOPE_UNCALIBRATED,			INV_SENSOR_GYRO					}
 208:.\20648_driver\drivers/inv_mems_base_control.c **** ,	{	ANDROID_SENSOR_WAKEUP_GYROSCOPE_UNCALIBRATED,	INV_SENSOR_WAKEUP_GYRO			}
 209:.\20648_driver\drivers/inv_mems_base_control.c **** ,	{	ANDROID_SENSOR_GYROSCOPE,						INV_SENSOR_CALIB_GYRO			}
 210:.\20648_driver\drivers/inv_mems_base_control.c **** ,	{	ANDROID_SENSOR_WAKEUP_GYROSCOPE,				INV_SENSOR_WAKEUP_CALIB_GYRO	}
 211:.\20648_driver\drivers/inv_mems_base_control.c **** ,	{	ANDROID_SENSOR_GRAVITY,							INV_SENSOR_SIXQ					}
 212:.\20648_driver\drivers/inv_mems_base_control.c **** ,	{	ANDROID_SENSOR_GAME_ROTATION_VECTOR,			INV_SENSOR_SIXQ					}
 213:.\20648_driver\drivers/inv_mems_base_control.c **** ,	{	ANDROID_SENSOR_LINEAR_ACCELERATION,				INV_SENSOR_SIXQ					}
 214:.\20648_driver\drivers/inv_mems_base_control.c **** ,	{	ANDROID_SENSOR_WAKEUP_GRAVITY,					INV_SENSOR_WAKEUP_SIXQ			}
 215:.\20648_driver\drivers/inv_mems_base_control.c **** ,	{	ANDROID_SENSOR_WAKEUP_GAME_ROTATION_VECTOR,		INV_SENSOR_WAKEUP_SIXQ			}
 216:.\20648_driver\drivers/inv_mems_base_control.c **** ,	{	ANDROID_SENSOR_WAKEUP_LINEAR_ACCELERATION,		INV_SENSOR_WAKEUP_SIXQ			}
 217:.\20648_driver\drivers/inv_mems_base_control.c **** ,	{	ANDROID_SENSOR_ORIENTATION,						INV_SENSOR_NINEQ				}
 218:.\20648_driver\drivers/inv_mems_base_control.c **** ,	{	ANDROID_SENSOR_ROTATION_VECTOR,					INV_SENSOR_NINEQ				}
 219:.\20648_driver\drivers/inv_mems_base_control.c **** ,	{	ANDROID_SENSOR_WAKEUP_ORIENTATION,				INV_SENSOR_WAKEUP_NINEQ			}
 220:.\20648_driver\drivers/inv_mems_base_control.c **** ,	{	ANDROID_SENSOR_WAKEUP_ROTATION_VECTOR,			INV_SENSOR_WAKEUP_NINEQ			}
 221:.\20648_driver\drivers/inv_mems_base_control.c **** };
 222:.\20648_driver\drivers/inv_mems_base_control.c **** 
 223:.\20648_driver\drivers/inv_mems_base_control.c **** #if (MEMS_CHIP == HW_ICM30630)
 224:.\20648_driver\drivers/inv_mems_base_control.c **** static	const	MinDelayGenElementT	MinDelayGenGyroForGmrvList	[]	=
 225:.\20648_driver\drivers/inv_mems_base_control.c ****     // special case for GMRV : it will enable GRV instead of GMRV if GMRV needs to be enabled in pa
 226:.\20648_driver\drivers/inv_mems_base_control.c **** {	{	ANDROID_SENSOR_GAME_ROTATION_VECTOR,			INV_SENSOR_GEOMAG				}
 227:.\20648_driver\drivers/inv_mems_base_control.c **** ,	{	ANDROID_SENSOR_GAME_ROTATION_VECTOR,	        INV_SENSOR_WAKEUP_GEOMAG		}
 228:.\20648_driver\drivers/inv_mems_base_control.c **** };
 229:.\20648_driver\drivers/inv_mems_base_control.c **** #endif
 230:.\20648_driver\drivers/inv_mems_base_control.c **** 
 231:.\20648_driver\drivers/inv_mems_base_control.c **** #if defined MEMS_SECONDARY_DEVICE
 232:.\20648_driver\drivers/inv_mems_base_control.c **** //	Cpass
 233:.\20648_driver\drivers/inv_mems_base_control.c **** static	const	MinDelayGenElementT	MinDelayGenCpassList	[]	=
 234:.\20648_driver\drivers/inv_mems_base_control.c **** {	{	ANDROID_SENSOR_MAGNETIC_FIELD_UNCALIBRATED,			INV_SENSOR_COMPASS				}
 235:.\20648_driver\drivers/inv_mems_base_control.c **** ,	{	ANDROID_SENSOR_WAKEUP_MAGNETIC_FIELD_UNCALIBRATED,	INV_SENSOR_WAKEUP_COMPASS		}
 236:.\20648_driver\drivers/inv_mems_base_control.c **** ,	{	ANDROID_SENSOR_GEOMAGNETIC_FIELD,					INV_SENSOR_CALIB_COMPASS		}
 237:.\20648_driver\drivers/inv_mems_base_control.c **** ,	{	ANDROID_SENSOR_WAKEUP_MAGNETIC_FIELD,				INV_SENSOR_WAKEUP_CALIB_COMPASS	}
 238:.\20648_driver\drivers/inv_mems_base_control.c **** ,	{	ANDROID_SENSOR_GEOMAGNETIC_ROTATION_VECTOR,			INV_SENSOR_GEOMAG_cpass			}
 239:.\20648_driver\drivers/inv_mems_base_control.c **** ,	{	ANDROID_SENSOR_ORIENTATION,							INV_SENSOR_NINEQ_cpass			}
 240:.\20648_driver\drivers/inv_mems_base_control.c **** ,	{	ANDROID_SENSOR_ROTATION_VECTOR,						INV_SENSOR_NINEQ_cpass			}
 241:.\20648_driver\drivers/inv_mems_base_control.c **** ,	{	ANDROID_SENSOR_WAKEUP_GEOMAGNETIC_ROTATION_VECTOR,	INV_SENSOR_WAKEUP_GEOMAG_cpass	}
 242:.\20648_driver\drivers/inv_mems_base_control.c **** ,	{	ANDROID_SENSOR_WAKEUP_ORIENTATION,					INV_SENSOR_WAKEUP_NINEQ_cpass	}
 243:.\20648_driver\drivers/inv_mems_base_control.c **** ,	{	ANDROID_SENSOR_WAKEUP_ROTATION_VECTOR,				INV_SENSOR_WAKEUP_NINEQ_cpass	}
 244:.\20648_driver\drivers/inv_mems_base_control.c **** };
 245:.\20648_driver\drivers/inv_mems_base_control.c **** 
 246:.\20648_driver\drivers/inv_mems_base_control.c **** //	Pressure	
 247:.\20648_driver\drivers/inv_mems_base_control.c **** static	const	MinDelayGenElementT	MinDelayGenPressureList	[]	=
 248:.\20648_driver\drivers/inv_mems_base_control.c **** {	{	ANDROID_SENSOR_PRESSURE,							INV_SENSOR_PRESSURE			}
 249:.\20648_driver\drivers/inv_mems_base_control.c **** ,	{	ANDROID_SENSOR_WAKEUP_PRESSURE,						INV_SENSOR_WAKEUP_PRESSURE	}
 250:.\20648_driver\drivers/inv_mems_base_control.c **** };
 251:.\20648_driver\drivers/inv_mems_base_control.c **** #endif
 252:.\20648_driver\drivers/inv_mems_base_control.c **** /*************************/
 253:.\20648_driver\drivers/inv_mems_base_control.c **** 
 254:.\20648_driver\drivers/inv_mems_base_control.c **** static	const	MinDelayGenElementT	MinDelayGenAccel2List	[]	=
 255:.\20648_driver\drivers/inv_mems_base_control.c **** {	{	ANDROID_SENSOR_ACCELEROMETER,						INV_SENSOR_ACCEL				}
 256:.\20648_driver\drivers/inv_mems_base_control.c **** ,	{	ANDROID_SENSOR_WAKEUP_ACCELEROMETER,				INV_SENSOR_WAKEUP_ACCEL			}
 257:.\20648_driver\drivers/inv_mems_base_control.c **** ,	{	ANDROID_SENSOR_LINEAR_ACCELERATION,					INV_SENSOR_SIXQ_accel			}
 258:.\20648_driver\drivers/inv_mems_base_control.c **** ,	{	ANDROID_SENSOR_WAKEUP_LINEAR_ACCELERATION,			INV_SENSOR_WAKEUP_SIXQ_accel	}
 259:.\20648_driver\drivers/inv_mems_base_control.c **** };
 260:.\20648_driver\drivers/inv_mems_base_control.c **** 
ARM GAS  C:\Users\ADMINI~1\AppData\Local\Temp\ccjTNAQQ.s 			page 6


 261:.\20648_driver\drivers/inv_mems_base_control.c **** /**********/
 262:.\20648_driver\drivers/inv_mems_base_control.c **** static	const	MinDelayGenElementT	MinDelayGenAccel3List	[]	=
 263:.\20648_driver\drivers/inv_mems_base_control.c **** {	{	ANDROID_SENSOR_GEOMAGNETIC_ROTATION_VECTOR,			INV_SENSOR_GEOMAG			}
 264:.\20648_driver\drivers/inv_mems_base_control.c **** ,	{	ANDROID_SENSOR_WAKEUP_GEOMAGNETIC_ROTATION_VECTOR,	INV_SENSOR_WAKEUP_GEOMAG	}
 265:.\20648_driver\drivers/inv_mems_base_control.c **** };
 266:.\20648_driver\drivers/inv_mems_base_control.c **** 
 267:.\20648_driver\drivers/inv_mems_base_control.c **** /**********/
 268:.\20648_driver\drivers/inv_mems_base_control.c **** #if (MEMS_CHIP != HW_ICM30630)
 269:.\20648_driver\drivers/inv_mems_base_control.c **** static	const	MinDelayGenElementT	MinDelayGenAccel4List	[]	=
 270:.\20648_driver\drivers/inv_mems_base_control.c **** {	{	ANDROID_SENSOR_STEP_DETECTOR,						INV_SENSOR_STEP_COUNTER			}
 271:.\20648_driver\drivers/inv_mems_base_control.c **** ,	{	ANDROID_SENSOR_STEP_COUNTER,						INV_SENSOR_STEP_COUNTER			}
 272:.\20648_driver\drivers/inv_mems_base_control.c **** ,	{	ANDROID_SENSOR_WAKEUP_STEP_DETECTOR,				INV_SENSOR_WAKEUP_STEP_COUNTER	}
 273:.\20648_driver\drivers/inv_mems_base_control.c **** ,	{	ANDROID_SENSOR_WAKEUP_STEP_COUNTER,					INV_SENSOR_WAKEUP_STEP_COUNTER	}
 274:.\20648_driver\drivers/inv_mems_base_control.c **** ,	{	ANDROID_SENSOR_WAKEUP_SIGNIFICANT_MOTION,			INV_SENSOR_WAKEUP_STEP_COUNTER	}
 275:.\20648_driver\drivers/inv_mems_base_control.c **** };
 276:.\20648_driver\drivers/inv_mems_base_control.c **** #endif
 277:.\20648_driver\drivers/inv_mems_base_control.c **** 
 278:.\20648_driver\drivers/inv_mems_base_control.c **** #if (MEMS_CHIP == HW_ICM20645_E || MEMS_CHIP == HW_ICM20648)
 279:.\20648_driver\drivers/inv_mems_base_control.c **** /**********/
 280:.\20648_driver\drivers/inv_mems_base_control.c **** static	const	MinDelayGenElementT	MinDelayGenAccel5List	[]	=
 281:.\20648_driver\drivers/inv_mems_base_control.c **** {	{	ANDROID_SENSOR_WAKEUP_TILT_DETECTOR,				INV_SENSOR_WAKEUP_TILT_DETECTOR	}
 282:.\20648_driver\drivers/inv_mems_base_control.c **** };
 283:.\20648_driver\drivers/inv_mems_base_control.c **** #endif
 284:.\20648_driver\drivers/inv_mems_base_control.c **** 
 285:.\20648_driver\drivers/inv_mems_base_control.c **** /**********//**********/
 286:.\20648_driver\drivers/inv_mems_base_control.c **** static	const	MinDelayGenElementT	MinDelayGenGyro2List	[]	=
 287:.\20648_driver\drivers/inv_mems_base_control.c **** {	{	ANDROID_SENSOR_GYROSCOPE_UNCALIBRATED,				INV_SENSOR_GYRO			}
 288:.\20648_driver\drivers/inv_mems_base_control.c **** ,	{	ANDROID_SENSOR_WAKEUP_GYROSCOPE_UNCALIBRATED,		INV_SENSOR_WAKEUP_GYRO	}
 289:.\20648_driver\drivers/inv_mems_base_control.c **** #if (MEMS_CHIP == HW_ICM30630 || MEMS_CHIP == HW_ICM20648)
 290:.\20648_driver\drivers/inv_mems_base_control.c **** ,   {	ANDROID_SENSOR_GYROSCOPE,							INV_SENSOR_CALIB_GYRO			}
 291:.\20648_driver\drivers/inv_mems_base_control.c **** ,   {	ANDROID_SENSOR_WAKEUP_GYROSCOPE,					INV_SENSOR_WAKEUP_CALIB_GYRO	}
 292:.\20648_driver\drivers/inv_mems_base_control.c **** #endif
 293:.\20648_driver\drivers/inv_mems_base_control.c **** };
 294:.\20648_driver\drivers/inv_mems_base_control.c **** 
 295:.\20648_driver\drivers/inv_mems_base_control.c **** /**********/
 296:.\20648_driver\drivers/inv_mems_base_control.c **** static	const	MinDelayGenElementT	MinDelayGenGyro3List	[]	=
 297:.\20648_driver\drivers/inv_mems_base_control.c **** {	{	ANDROID_SENSOR_GYROSCOPE,							INV_SENSOR_CALIB_GYRO			}
 298:.\20648_driver\drivers/inv_mems_base_control.c **** ,	{	ANDROID_SENSOR_WAKEUP_GYROSCOPE,					INV_SENSOR_WAKEUP_CALIB_GYRO	}
 299:.\20648_driver\drivers/inv_mems_base_control.c **** };
 300:.\20648_driver\drivers/inv_mems_base_control.c **** 
 301:.\20648_driver\drivers/inv_mems_base_control.c **** /**********/
 302:.\20648_driver\drivers/inv_mems_base_control.c **** static	const	MinDelayGenElementT	MinDelayGenGyro4List	[]	=
 303:.\20648_driver\drivers/inv_mems_base_control.c **** {	{	ANDROID_SENSOR_GRAVITY,								INV_SENSOR_SIXQ			}
 304:.\20648_driver\drivers/inv_mems_base_control.c **** ,	{	ANDROID_SENSOR_GAME_ROTATION_VECTOR,				INV_SENSOR_SIXQ			}
 305:.\20648_driver\drivers/inv_mems_base_control.c **** ,	{	ANDROID_SENSOR_LINEAR_ACCELERATION,					INV_SENSOR_SIXQ			}
 306:.\20648_driver\drivers/inv_mems_base_control.c **** ,	{	ANDROID_SENSOR_WAKEUP_GRAVITY,						INV_SENSOR_WAKEUP_SIXQ	}
 307:.\20648_driver\drivers/inv_mems_base_control.c **** ,	{	ANDROID_SENSOR_WAKEUP_GAME_ROTATION_VECTOR,			INV_SENSOR_WAKEUP_SIXQ	}
 308:.\20648_driver\drivers/inv_mems_base_control.c **** ,	{	ANDROID_SENSOR_WAKEUP_LINEAR_ACCELERATION,			INV_SENSOR_WAKEUP_SIXQ	}
 309:.\20648_driver\drivers/inv_mems_base_control.c **** };
 310:.\20648_driver\drivers/inv_mems_base_control.c **** 
 311:.\20648_driver\drivers/inv_mems_base_control.c **** #if (MEMS_CHIP == HW_ICM30630)
 312:.\20648_driver\drivers/inv_mems_base_control.c **** static	const	MinDelayGenElementT	MinDelayGenGyro4ForGmrvList	[]	=
 313:.\20648_driver\drivers/inv_mems_base_control.c ****     // special case for GMRV : it will enable GRV instead of GMRV if GMRV needs to be enabled in pa
 314:.\20648_driver\drivers/inv_mems_base_control.c **** {	{	ANDROID_SENSOR_GAME_ROTATION_VECTOR,			    INV_SENSOR_GEOMAG				}
 315:.\20648_driver\drivers/inv_mems_base_control.c **** ,	{	ANDROID_SENSOR_GAME_ROTATION_VECTOR,	            INV_SENSOR_WAKEUP_GEOMAG		}
 316:.\20648_driver\drivers/inv_mems_base_control.c **** };
 317:.\20648_driver\drivers/inv_mems_base_control.c **** #endif
ARM GAS  C:\Users\ADMINI~1\AppData\Local\Temp\ccjTNAQQ.s 			page 7


 318:.\20648_driver\drivers/inv_mems_base_control.c **** 
 319:.\20648_driver\drivers/inv_mems_base_control.c **** /**********/
 320:.\20648_driver\drivers/inv_mems_base_control.c **** static	const	MinDelayGenElementT	MinDelayGenGyro5List	[]	=
 321:.\20648_driver\drivers/inv_mems_base_control.c **** {	{	ANDROID_SENSOR_ORIENTATION,				INV_SENSOR_NINEQ		}
 322:.\20648_driver\drivers/inv_mems_base_control.c **** ,	{	ANDROID_SENSOR_ROTATION_VECTOR,			INV_SENSOR_NINEQ		}
 323:.\20648_driver\drivers/inv_mems_base_control.c **** ,	{	ANDROID_SENSOR_WAKEUP_ORIENTATION,		INV_SENSOR_WAKEUP_NINEQ	}
 324:.\20648_driver\drivers/inv_mems_base_control.c **** ,	{	ANDROID_SENSOR_WAKEUP_ROTATION_VECTOR,	INV_SENSOR_WAKEUP_NINEQ	}
 325:.\20648_driver\drivers/inv_mems_base_control.c **** };
 326:.\20648_driver\drivers/inv_mems_base_control.c **** 
 327:.\20648_driver\drivers/inv_mems_base_control.c **** #if defined MEMS_SECONDARY_DEVICE
 328:.\20648_driver\drivers/inv_mems_base_control.c **** /**********//**********/
 329:.\20648_driver\drivers/inv_mems_base_control.c **** static	const	MinDelayGenElementT	MinDelayGenCpass2List	[]	=
 330:.\20648_driver\drivers/inv_mems_base_control.c **** {	{	ANDROID_SENSOR_MAGNETIC_FIELD_UNCALIBRATED,			INV_SENSOR_COMPASS			}
 331:.\20648_driver\drivers/inv_mems_base_control.c **** ,	{	ANDROID_SENSOR_WAKEUP_MAGNETIC_FIELD_UNCALIBRATED,	INV_SENSOR_WAKEUP_COMPASS	}
 332:.\20648_driver\drivers/inv_mems_base_control.c **** };
 333:.\20648_driver\drivers/inv_mems_base_control.c **** 
 334:.\20648_driver\drivers/inv_mems_base_control.c **** /**********/
 335:.\20648_driver\drivers/inv_mems_base_control.c **** static	const	MinDelayGenElementT	MinDelayGenCpass3List	[]	=
 336:.\20648_driver\drivers/inv_mems_base_control.c **** {	{	ANDROID_SENSOR_GEOMAGNETIC_FIELD,					INV_SENSOR_CALIB_COMPASS		}
 337:.\20648_driver\drivers/inv_mems_base_control.c **** ,	{	ANDROID_SENSOR_WAKEUP_MAGNETIC_FIELD,				INV_SENSOR_WAKEUP_CALIB_COMPASS	}
 338:.\20648_driver\drivers/inv_mems_base_control.c **** };
 339:.\20648_driver\drivers/inv_mems_base_control.c **** 
 340:.\20648_driver\drivers/inv_mems_base_control.c **** /**********//**********/
 341:.\20648_driver\drivers/inv_mems_base_control.c **** static	const	MinDelayGenElementT	MinDelayGenPressure2List	[]	=
 342:.\20648_driver\drivers/inv_mems_base_control.c **** {	{	ANDROID_SENSOR_PRESSURE,						INV_SENSOR_PRESSURE			}
 343:.\20648_driver\drivers/inv_mems_base_control.c **** ,	{	ANDROID_SENSOR_WAKEUP_PRESSURE,					INV_SENSOR_WAKEUP_PRESSURE	}
 344:.\20648_driver\drivers/inv_mems_base_control.c **** };
 345:.\20648_driver\drivers/inv_mems_base_control.c **** #endif
 346:.\20648_driver\drivers/inv_mems_base_control.c **** /**********/
 347:.\20648_driver\drivers/inv_mems_base_control.c **** 	
 348:.\20648_driver\drivers/inv_mems_base_control.c **** typedef	unsigned	short	MinDelayT;
 349:.\20648_driver\drivers/inv_mems_base_control.c **** typedef	unsigned	short	u16;
 350:.\20648_driver\drivers/inv_mems_base_control.c **** typedef	unsigned	long	u32;
 351:.\20648_driver\drivers/inv_mems_base_control.c **** 
 352:.\20648_driver\drivers/inv_mems_base_control.c **** /******************/
 353:.\20648_driver\drivers/inv_mems_base_control.c **** #define	MinDelayGen(list)	MinDelayGenActual((list), sizeof((list)) / sizeof (MinDelayGenElementT))
 354:.\20648_driver\drivers/inv_mems_base_control.c **** 
 355:.\20648_driver\drivers/inv_mems_base_control.c **** static		MinDelayT	MinDelayGenActual
 356:.\20648_driver\drivers/inv_mems_base_control.c **** (
 357:.\20648_driver\drivers/inv_mems_base_control.c **** 	const	MinDelayGenElementT	*	Element,
 358:.\20648_driver\drivers/inv_mems_base_control.c **** 			u32						ElementQuan
 359:.\20648_driver\drivers/inv_mems_base_control.c **** )
 360:.\20648_driver\drivers/inv_mems_base_control.c **** {
 361:.\20648_driver\drivers/inv_mems_base_control.c **** 	MinDelayT	MinDelay	=	(MinDelayT)-1;
 362:.\20648_driver\drivers/inv_mems_base_control.c **** 
 363:.\20648_driver\drivers/inv_mems_base_control.c **** 	while	(ElementQuan--)
 364:.\20648_driver\drivers/inv_mems_base_control.c **** 	{
 365:.\20648_driver\drivers/inv_mems_base_control.c **** 		if	(inv_androidSensor_enabled	(Element->AndroidSensor))
 366:.\20648_driver\drivers/inv_mems_base_control.c **** 		{
 367:.\20648_driver\drivers/inv_mems_base_control.c **** 			MinDelayT	OdrDelay	=	inv_dmp_odr_delays	[Element->InvSensor];
 368:.\20648_driver\drivers/inv_mems_base_control.c **** 
 369:.\20648_driver\drivers/inv_mems_base_control.c **** 		  	if	(MinDelay >	OdrDelay)
 370:.\20648_driver\drivers/inv_mems_base_control.c **** 			{
 371:.\20648_driver\drivers/inv_mems_base_control.c **** 					MinDelay	=	OdrDelay;
 372:.\20648_driver\drivers/inv_mems_base_control.c **** 			}
 373:.\20648_driver\drivers/inv_mems_base_control.c **** 		}
 374:.\20648_driver\drivers/inv_mems_base_control.c **** 		Element++;
ARM GAS  C:\Users\ADMINI~1\AppData\Local\Temp\ccjTNAQQ.s 			page 8


 375:.\20648_driver\drivers/inv_mems_base_control.c **** 	}	//	end while elements to process
 376:.\20648_driver\drivers/inv_mems_base_control.c **** 
 377:.\20648_driver\drivers/inv_mems_base_control.c **** 	return	MinDelay;
 378:.\20648_driver\drivers/inv_mems_base_control.c **** }	//	end of MinDelayGenActual()
 379:.\20648_driver\drivers/inv_mems_base_control.c **** 
 380:.\20648_driver\drivers/inv_mems_base_control.c **** /******************/
 381:.\20648_driver\drivers/inv_mems_base_control.c **** static	inv_error_t	DividerRateSet
 382:.\20648_driver\drivers/inv_mems_base_control.c **** (
 383:.\20648_driver\drivers/inv_mems_base_control.c **** 	MinDelayT			MinDelay,
 384:.\20648_driver\drivers/inv_mems_base_control.c **** 	u16					HwSampleRateDivider,
 385:.\20648_driver\drivers/inv_mems_base_control.c **** 	enum	INV_SENSORS	InvSensor
 386:.\20648_driver\drivers/inv_mems_base_control.c **** )
 387:.\20648_driver\drivers/inv_mems_base_control.c **** {
  26              		.loc 1 387 0
  27              		.cfi_startproc
  28              	.LVL0:
  29 0000 38B5     		push	{r3, r4, r5, lr}
  30              		.cfi_def_cfa_offset 16
  31              		.cfi_offset 3, -16
  32              		.cfi_offset 4, -12
  33              		.cfi_offset 5, -8
  34              		.cfi_offset 14, -4
 388:.\20648_driver\drivers/inv_mems_base_control.c **** 	inv_error_t	Result	=	0;
 389:.\20648_driver\drivers/inv_mems_base_control.c **** 	
 390:.\20648_driver\drivers/inv_mems_base_control.c **** 	if	(MinDelay != 0xFFFF)
  35              		.loc 1 390 0
  36 0002 0C4C     		ldr	r4, .L5
 387:.\20648_driver\drivers/inv_mems_base_control.c **** 	inv_error_t	Result	=	0;
  37              		.loc 1 387 0
  38 0004 031C     		mov	r3, r0
 388:.\20648_driver\drivers/inv_mems_base_control.c **** 	inv_error_t	Result	=	0;
  39              		.loc 1 388 0
  40 0006 0020     		mov	r0, #0
  41              	.LVL1:
  42              		.loc 1 390 0
  43 0008 A342     		cmp	r3, r4
  44 000a 12D0     		beq	.L2
  45 000c 0D1C     		mov	r5, r1
  46              	.LVL2:
  47              	.LBB13:
  48              	.LBB14:
  49              	.LBB15:
 391:.\20648_driver\drivers/inv_mems_base_control.c **** 	{
 392:.\20648_driver\drivers/inv_mems_base_control.c **** 		u16	DmpOdrDivider	=	(MinDelay * 1125L) / (HwSampleRateDivider * 1000L);      // a divider from (1
  50              		.loc 1 392 0
  51 000e FA21     		mov	r1, #250
  52              	.LVL3:
  53 0010 0948     		ldr	r0, .L5+4
  54 0012 8900     		lsl	r1, r1, #2
  55 0014 6943     		mul	r1, r5
  56 0016 5843     		mul	r0, r3
  57 0018 141C     		mov	r4, r2
  58              	.LVL4:
  59 001a FFF7FEFF 		bl	__aeabi_idiv
  60              	.LVL5:
  61 001e 80B2     		uxth	r0, r0
  62              	.LVL6:
ARM GAS  C:\Users\ADMINI~1\AppData\Local\Temp\ccjTNAQQ.s 			page 9


 393:.\20648_driver\drivers/inv_mems_base_control.c **** 
 394:.\20648_driver\drivers/inv_mems_base_control.c **** 		inv_dmp_odr_dividers[InvSensor] = HwSampleRateDivider * DmpOdrDivider;
  63              		.loc 1 394 0
  64 0020 4543     		mul	r5, r0
  65              	.LVL7:
  66 0022 064B     		ldr	r3, .L5+8
 395:.\20648_driver\drivers/inv_mems_base_control.c ****         Result |= dmp_set_sensor_rate(InvSensor, (DmpOdrDivider - 1));
  67              		.loc 1 395 0
  68 0024 0138     		sub	r0, r0, #1
  69              	.LVL8:
 394:.\20648_driver\drivers/inv_mems_base_control.c ****         Result |= dmp_set_sensor_rate(InvSensor, (DmpOdrDivider - 1));
  70              		.loc 1 394 0
  71 0026 6200     		lsl	r2, r4, #1
  72              		.loc 1 395 0
  73 0028 01B2     		sxth	r1, r0
  74 002a 201C     		mov	r0, r4
  75              	.LVL9:
 394:.\20648_driver\drivers/inv_mems_base_control.c ****         Result |= dmp_set_sensor_rate(InvSensor, (DmpOdrDivider - 1));
  76              		.loc 1 394 0
  77 002c D552     		strh	r5, [r2, r3]
  78              		.loc 1 395 0
  79 002e FFF7FEFF 		bl	dmp_set_sensor_rate
  80              	.LVL10:
  81              	.L2:
  82              	.LBE15:
  83              	.LBE14:
  84              	.LBE13:
 396:.\20648_driver\drivers/inv_mems_base_control.c **** 	}
 397:.\20648_driver\drivers/inv_mems_base_control.c **** 	
 398:.\20648_driver\drivers/inv_mems_base_control.c **** 	return	Result;
 399:.\20648_driver\drivers/inv_mems_base_control.c **** }	//	end of DividerRateGet()
  85              		.loc 1 399 0
  86              		@ sp needed
  87 0032 38BD     		pop	{r3, r4, r5, pc}
  88              	.L6:
  89              		.align	2
  90              	.L5:
  91 0034 FFFF0000 		.word	65535
  92 0038 65040000 		.word	1125
  93 003c 00000000 		.word	.LANCHOR0
  94              		.cfi_endproc
  95              	.LFE2:
  96              		.size	DividerRateSet, .-DividerRateSet
  97              		.section	.text.inv_androidSensor_enabled,"ax",%progbits
  98              		.align	1
  99              		.global	inv_androidSensor_enabled
 100              		.code	16
 101              		.thumb_func
 102              		.type	inv_androidSensor_enabled, %function
 103              	inv_androidSensor_enabled:
 104              	.LFB0:
 167:.\20648_driver\drivers/inv_mems_base_control.c **** 	return inv_androidSensorsOn_mask[(androidSensor>>5)] & (1L << (androidSensor&0x1F));
 105              		.loc 1 167 0
 106              		.cfi_startproc
 107              	.LVL11:
 168:.\20648_driver\drivers/inv_mems_base_control.c **** }
 108              		.loc 1 168 0
ARM GAS  C:\Users\ADMINI~1\AppData\Local\Temp\ccjTNAQQ.s 			page 10


 109 0000 1F22     		mov	r2, #31
 110 0002 0123     		mov	r3, #1
 111 0004 0240     		and	r2, r0
 112 0006 9340     		lsl	r3, r3, r2
 113 0008 1A1C     		mov	r2, r3
 114 000a 4309     		lsr	r3, r0, #5
 115 000c 0248     		ldr	r0, .L8
 116              	.LVL12:
 117 000e 9B00     		lsl	r3, r3, #2
 118 0010 C318     		add	r3, r0, r3
 119 0012 D86C     		ldr	r0, [r3, #76]
 169:.\20648_driver\drivers/inv_mems_base_control.c **** 
 120              		.loc 1 169 0
 121              		@ sp needed
 168:.\20648_driver\drivers/inv_mems_base_control.c **** }
 122              		.loc 1 168 0
 123 0014 1040     		and	r0, r2
 169:.\20648_driver\drivers/inv_mems_base_control.c **** 
 124              		.loc 1 169 0
 125 0016 7047     		bx	lr
 126              	.L9:
 127              		.align	2
 128              	.L8:
 129 0018 00000000 		.word	.LANCHOR0
 130              		.cfi_endproc
 131              	.LFE0:
 132              		.size	inv_androidSensor_enabled, .-inv_androidSensor_enabled
 133              		.section	.text.MinDelayGenActual,"ax",%progbits
 134              		.align	1
 135              		.code	16
 136              		.thumb_func
 137              		.type	MinDelayGenActual, %function
 138              	MinDelayGenActual:
 139              	.LFB1:
 360:.\20648_driver\drivers/inv_mems_base_control.c **** 	MinDelayT	MinDelay	=	(MinDelayT)-1;
 140              		.loc 1 360 0
 141              		.cfi_startproc
 142              	.LVL13:
 143 0000 70B5     		push	{r4, r5, r6, lr}
 144              		.cfi_def_cfa_offset 16
 145              		.cfi_offset 4, -16
 146              		.cfi_offset 5, -12
 147              		.cfi_offset 6, -8
 148              		.cfi_offset 14, -4
 360:.\20648_driver\drivers/inv_mems_base_control.c **** 	MinDelayT	MinDelay	=	(MinDelayT)-1;
 149              		.loc 1 360 0
 150 0002 051C     		mov	r5, r0
 151 0004 0E1C     		mov	r6, r1
 361:.\20648_driver\drivers/inv_mems_base_control.c **** 
 152              		.loc 1 361 0
 153 0006 0A4C     		ldr	r4, .L19
 154              	.LVL14:
 155              	.L11:
 363:.\20648_driver\drivers/inv_mems_base_control.c **** 	{
 156              		.loc 1 363 0
 157 0008 013E     		sub	r6, r6, #1
 158 000a 0FD3     		bcc	.L18
ARM GAS  C:\Users\ADMINI~1\AppData\Local\Temp\ccjTNAQQ.s 			page 11


 159              	.LVL15:
 365:.\20648_driver\drivers/inv_mems_base_control.c **** 		{
 160              		.loc 1 365 0
 161 000c 2878     		ldrb	r0, [r5]
 162 000e FFF7FEFF 		bl	inv_androidSensor_enabled
 163              	.LVL16:
 164 0012 0028     		cmp	r0, #0
 165 0014 08D0     		beq	.L12
 166              	.LBB16:
 367:.\20648_driver\drivers/inv_mems_base_control.c **** 
 167              		.loc 1 367 0
 168 0016 6B78     		ldrb	r3, [r5, #1]
 169 0018 064A     		ldr	r2, .L19+4
 170 001a 5B00     		lsl	r3, r3, #1
 171 001c 9A5A     		ldrh	r2, [r3, r2]
 172              	.LVL17:
 173 001e 131C     		add	r3, r2, #0
 174 0020 A242     		cmp	r2, r4
 175 0022 00D9     		bls	.L13
 176 0024 231C     		add	r3, r4, #0
 177              	.L13:
 178 0026 9CB2     		uxth	r4, r3
 179              	.LVL18:
 180              	.L12:
 181              	.LBE16:
 374:.\20648_driver\drivers/inv_mems_base_control.c **** 	}	//	end while elements to process
 182              		.loc 1 374 0
 183 0028 0235     		add	r5, r5, #2
 184              	.LVL19:
 185 002a EDE7     		b	.L11
 186              	.L18:
 378:.\20648_driver\drivers/inv_mems_base_control.c **** 
 187              		.loc 1 378 0
 188 002c 201C     		mov	r0, r4
 189              		@ sp needed
 190              	.LVL20:
 191              	.LVL21:
 192              	.LVL22:
 193 002e 70BD     		pop	{r4, r5, r6, pc}
 194              	.L20:
 195              		.align	2
 196              	.L19:
 197 0030 FFFF0000 		.word	65535
 198 0034 00000000 		.word	.LANCHOR1
 199              		.cfi_endproc
 200              	.LFE1:
 201              		.size	MinDelayGenActual, .-MinDelayGenActual
 202              		.section	.text.inv_get_odr,"ax",%progbits
 203              		.align	1
 204              		.global	inv_get_odr
 205              		.code	16
 206              		.thumb_func
 207              		.type	inv_get_odr, %function
 208              	inv_get_odr:
 209              	.LFB8:
 400:.\20648_driver\drivers/inv_mems_base_control.c **** 
 401:.\20648_driver\drivers/inv_mems_base_control.c **** /******************/
ARM GAS  C:\Users\ADMINI~1\AppData\Local\Temp\ccjTNAQQ.s 			page 12


 402:.\20648_driver\drivers/inv_mems_base_control.c **** static	u16	SampleRateDividerGet	(MinDelayT	MinDelay)
 403:.\20648_driver\drivers/inv_mems_base_control.c **** {
 404:.\20648_driver\drivers/inv_mems_base_control.c **** 	u16	Delay	=	min	(INV_ODR_MIN_DELAY, MinDelay); // because of GYRO_SMPLRT_DIV which relies on 8 bit
 405:.\20648_driver\drivers/inv_mems_base_control.c ****     return			Delay * 1125L / 1000L;      // a divider from 1125Hz.
 406:.\20648_driver\drivers/inv_mems_base_control.c **** }	//	end of SampleRateDividerGet()
 407:.\20648_driver\drivers/inv_mems_base_control.c **** 
 408:.\20648_driver\drivers/inv_mems_base_control.c **** 
 409:.\20648_driver\drivers/inv_mems_base_control.c **** 
 410:.\20648_driver\drivers/inv_mems_base_control.c **** /** @brief Get minimum ODR to be applied to accel engine based on all accel-based enabled sensors.
 411:.\20648_driver\drivers/inv_mems_base_control.c **** * @return ODR in ms we expect to be applied to accel engine
 412:.\20648_driver\drivers/inv_mems_base_control.c **** */
 413:.\20648_driver\drivers/inv_mems_base_control.c **** static unsigned short getMinDlyAccel(void)
 414:.\20648_driver\drivers/inv_mems_base_control.c **** {
 415:.\20648_driver\drivers/inv_mems_base_control.c **** 	unsigned short lMinOdr	=	MinDelayGen	(MinDelayGenAccelList);
 416:.\20648_driver\drivers/inv_mems_base_control.c **** 
 417:.\20648_driver\drivers/inv_mems_base_control.c **** #if (MEMS_CHIP == HW_ICM20645_E || MEMS_CHIP == HW_ICM20648)
 418:.\20648_driver\drivers/inv_mems_base_control.c **** 	if	(bac_status != 0)			lMinOdr	=	min	(	lMinOdr, inv_dmp_odr_delays	[INV_SENSOR_ACTIVITY_CLASSIFIER
 419:.\20648_driver\drivers/inv_mems_base_control.c **** #endif
 420:.\20648_driver\drivers/inv_mems_base_control.c ****     if	(flip_pickup_status != 0)	lMinOdr	=	min	(	lMinOdr, inv_dmp_odr_delays	[INV_SENSOR_FLIP_PICKU
 421:.\20648_driver\drivers/inv_mems_base_control.c ****     if	(b2s_status != 0)           lMinOdr	=	min	(	lMinOdr, inv_dmp_odr_delays	[INV_SENSOR_BRING_TO
 422:.\20648_driver\drivers/inv_mems_base_control.c **** 	
 423:.\20648_driver\drivers/inv_mems_base_control.c **** #if (MEMS_CHIP == HW_ICM20648)
 424:.\20648_driver\drivers/inv_mems_base_control.c **** 	/** To have correct algorithm performance and quick convergence of GMRV, it is advised to set acce
 425:.\20648_driver\drivers/inv_mems_base_control.c **** 	    In case power consumption is to be improved at the expense of performance, this setup should b
 426:.\20648_driver\drivers/inv_mems_base_control.c **** 	if ( inv_androidSensor_enabled(ANDROID_SENSOR_WAKEUP_GEOMAGNETIC_ROTATION_VECTOR) || inv_androidSe
 427:.\20648_driver\drivers/inv_mems_base_control.c ****                                     lMinOdr	=	min	(	lMinOdr, 5	 );
 428:.\20648_driver\drivers/inv_mems_base_control.c **** 	/** To have correct algorithm performance and quick convergence of RV, it is advised to set accele
 429:.\20648_driver\drivers/inv_mems_base_control.c **** 	    In case power consumption is to be improved at the expense of performance, this setup should b
 430:.\20648_driver\drivers/inv_mems_base_control.c **** 	if ( inv_androidSensor_enabled(ANDROID_SENSOR_WAKEUP_ROTATION_VECTOR) || inv_androidSensor_enabled
 431:.\20648_driver\drivers/inv_mems_base_control.c ****                                     lMinOdr	=	min	(	lMinOdr, 5	 );
 432:.\20648_driver\drivers/inv_mems_base_control.c **** #endif
 433:.\20648_driver\drivers/inv_mems_base_control.c **** 
 434:.\20648_driver\drivers/inv_mems_base_control.c **** 	return lMinOdr;
 435:.\20648_driver\drivers/inv_mems_base_control.c **** }
 436:.\20648_driver\drivers/inv_mems_base_control.c **** 
 437:.\20648_driver\drivers/inv_mems_base_control.c **** /** @brief Get minimum ODR to be applied to gyro engine based on all gyro-based enabled sensors.
 438:.\20648_driver\drivers/inv_mems_base_control.c **** * @return ODR in ms we expect to be applied to gyro engine
 439:.\20648_driver\drivers/inv_mems_base_control.c **** */
 440:.\20648_driver\drivers/inv_mems_base_control.c **** static unsigned short getMinDlyGyro(void)
 441:.\20648_driver\drivers/inv_mems_base_control.c **** {
 442:.\20648_driver\drivers/inv_mems_base_control.c **** 	unsigned short lMinOdr	=	MinDelayGen	(MinDelayGenGyroList);
 443:.\20648_driver\drivers/inv_mems_base_control.c **** #if (MEMS_CHIP == HW_ICM30630)
 444:.\20648_driver\drivers/inv_mems_base_control.c ****     /** Min ODR to be applied only for GMRV case */
 445:.\20648_driver\drivers/inv_mems_base_control.c **** 	unsigned short lMinOdrForGmrv	=	MinDelayGen	(MinDelayGenGyroForGmrvList);
 446:.\20648_driver\drivers/inv_mems_base_control.c **** #endif
 447:.\20648_driver\drivers/inv_mems_base_control.c ****     
 448:.\20648_driver\drivers/inv_mems_base_control.c **** #if (MEMS_CHIP == HW_ICM20648)
 449:.\20648_driver\drivers/inv_mems_base_control.c **** 	/** To have correct algorithm performance and quick convergence of RV, it is advised to set gyro t
 450:.\20648_driver\drivers/inv_mems_base_control.c **** 	    In case power consumption is to be improved at the expense of performance, this setup should b
 451:.\20648_driver\drivers/inv_mems_base_control.c **** 	if ( inv_androidSensor_enabled(ANDROID_SENSOR_WAKEUP_ROTATION_VECTOR) || inv_androidSensor_enabled
 452:.\20648_driver\drivers/inv_mems_base_control.c ****                                     lMinOdr	=	min	(	lMinOdr, 5	 );
 453:.\20648_driver\drivers/inv_mems_base_control.c **** #endif
 454:.\20648_driver\drivers/inv_mems_base_control.c **** 
 455:.\20648_driver\drivers/inv_mems_base_control.c **** #if (MEMS_CHIP == HW_ICM30630)
 456:.\20648_driver\drivers/inv_mems_base_control.c ****     /** In case GMRV is ON, need to check for GMRV related ODR be applied to GRV too, since GRV wil
 457:.\20648_driver\drivers/inv_mems_base_control.c ****     if(sGmrvIsOn)
 458:.\20648_driver\drivers/inv_mems_base_control.c ****         lMinOdr = min(lMinOdr , lMinOdrForGmrv);
ARM GAS  C:\Users\ADMINI~1\AppData\Local\Temp\ccjTNAQQ.s 			page 13


 459:.\20648_driver\drivers/inv_mems_base_control.c **** #endif
 460:.\20648_driver\drivers/inv_mems_base_control.c **** 
 461:.\20648_driver\drivers/inv_mems_base_control.c **** 	return lMinOdr;
 462:.\20648_driver\drivers/inv_mems_base_control.c **** }
 463:.\20648_driver\drivers/inv_mems_base_control.c **** 
 464:.\20648_driver\drivers/inv_mems_base_control.c **** #if defined MEMS_SECONDARY_DEVICE
 465:.\20648_driver\drivers/inv_mems_base_control.c **** /** @brief Get minimum ODR to be applied to compass engine based on all compass-based enabled senso
 466:.\20648_driver\drivers/inv_mems_base_control.c **** * @return ODR in ms we expect to be applied to compass engine
 467:.\20648_driver\drivers/inv_mems_base_control.c **** */
 468:.\20648_driver\drivers/inv_mems_base_control.c **** static unsigned short getMinDlyCompass(void)
 469:.\20648_driver\drivers/inv_mems_base_control.c **** {
 470:.\20648_driver\drivers/inv_mems_base_control.c **** 	unsigned short lMinOdr	=	MinDelayGen	(MinDelayGenCpassList);
 471:.\20648_driver\drivers/inv_mems_base_control.c **** 
 472:.\20648_driver\drivers/inv_mems_base_control.c **** #if (MEMS_CHIP == HW_ICM20648)
 473:.\20648_driver\drivers/inv_mems_base_control.c **** 	/** To have correct algorithm performance and quick convergence of GMRV, it is advised to set comp
 474:.\20648_driver\drivers/inv_mems_base_control.c **** 	    In case power consumption is to be improved at the expense of performance, this setup should b
 475:.\20648_driver\drivers/inv_mems_base_control.c **** 	if ( inv_androidSensor_enabled(ANDROID_SENSOR_WAKEUP_GEOMAGNETIC_ROTATION_VECTOR) || inv_androidSe
 476:.\20648_driver\drivers/inv_mems_base_control.c ****                                     lMinOdr	=	min	(	lMinOdr, 15 );
 477:.\20648_driver\drivers/inv_mems_base_control.c **** 	/** To have correct algorithm performance and quick convergence of RV, it is advised to set compas
 478:.\20648_driver\drivers/inv_mems_base_control.c **** 	    In case power consumption is to be improved at the expense of performance, this setup should b
 479:.\20648_driver\drivers/inv_mems_base_control.c **** 	if ( inv_androidSensor_enabled(ANDROID_SENSOR_WAKEUP_ROTATION_VECTOR) || inv_androidSensor_enabled
 480:.\20648_driver\drivers/inv_mems_base_control.c ****                                     lMinOdr	=	min	(	lMinOdr, 28 );
 481:.\20648_driver\drivers/inv_mems_base_control.c **** #endif
 482:.\20648_driver\drivers/inv_mems_base_control.c **** 
 483:.\20648_driver\drivers/inv_mems_base_control.c **** 	return lMinOdr;
 484:.\20648_driver\drivers/inv_mems_base_control.c **** }
 485:.\20648_driver\drivers/inv_mems_base_control.c **** #endif
 486:.\20648_driver\drivers/inv_mems_base_control.c **** 
 487:.\20648_driver\drivers/inv_mems_base_control.c **** /******************/
 488:.\20648_driver\drivers/inv_mems_base_control.c **** inv_error_t inv_set_hw_smplrt_dmp_odrs()
 489:.\20648_driver\drivers/inv_mems_base_control.c **** {
 490:.\20648_driver\drivers/inv_mems_base_control.c ****     inv_error_t result = 0;
 491:.\20648_driver\drivers/inv_mems_base_control.c **** 
 492:.\20648_driver\drivers/inv_mems_base_control.c ****     unsigned short minDly, minDly_accel, minDly_gyro;
 493:.\20648_driver\drivers/inv_mems_base_control.c **** #if defined MEMS_SECONDARY_DEVICE
 494:.\20648_driver\drivers/inv_mems_base_control.c **** 	unsigned short minDly_cpass;
 495:.\20648_driver\drivers/inv_mems_base_control.c ****     unsigned short minDly_pressure;
 496:.\20648_driver\drivers/inv_mems_base_control.c **** #endif
 497:.\20648_driver\drivers/inv_mems_base_control.c ****     unsigned short hw_smplrt_divider = 0;
 498:.\20648_driver\drivers/inv_mems_base_control.c **** 
 499:.\20648_driver\drivers/inv_mems_base_control.c **** // get min delays of all enabled sensors for each sensor engine group
 500:.\20648_driver\drivers/inv_mems_base_control.c **** 
 501:.\20648_driver\drivers/inv_mems_base_control.c **** 	// Engine ACCEL Based
 502:.\20648_driver\drivers/inv_mems_base_control.c **** 	minDly_accel = getMinDlyAccel();
 503:.\20648_driver\drivers/inv_mems_base_control.c **** 
 504:.\20648_driver\drivers/inv_mems_base_control.c **** 	// Engine Gyro Based
 505:.\20648_driver\drivers/inv_mems_base_control.c **** 	minDly_gyro  = getMinDlyGyro();
 506:.\20648_driver\drivers/inv_mems_base_control.c **** 
 507:.\20648_driver\drivers/inv_mems_base_control.c **** #if defined MEMS_SECONDARY_DEVICE
 508:.\20648_driver\drivers/inv_mems_base_control.c ****     // Engine Cpass Based	
 509:.\20648_driver\drivers/inv_mems_base_control.c **** 	minDly_cpass = getMinDlyCompass();
 510:.\20648_driver\drivers/inv_mems_base_control.c **** 
 511:.\20648_driver\drivers/inv_mems_base_control.c ****     // Engine Pressure Based	
 512:.\20648_driver\drivers/inv_mems_base_control.c **** 	minDly_pressure	=	MinDelayGen	(MinDelayGenPressureList);
 513:.\20648_driver\drivers/inv_mems_base_control.c **** #endif
 514:.\20648_driver\drivers/inv_mems_base_control.c **** 
 515:.\20648_driver\drivers/inv_mems_base_control.c **** #ifndef INV_SENSOR_MULTIFIFO
ARM GAS  C:\Users\ADMINI~1\AppData\Local\Temp\ccjTNAQQ.s 			page 14


 516:.\20648_driver\drivers/inv_mems_base_control.c ****     // get min delay of all enabled sensors of all sensor engine groups
 517:.\20648_driver\drivers/inv_mems_base_control.c ****     minDly = min(minDly_gyro, minDly_accel);
 518:.\20648_driver\drivers/inv_mems_base_control.c **** #if defined MEMS_SECONDARY_DEVICE
 519:.\20648_driver\drivers/inv_mems_base_control.c ****     minDly = min(minDly, minDly_cpass);
 520:.\20648_driver\drivers/inv_mems_base_control.c ****     minDly = min(minDly, minDly_pressure);
 521:.\20648_driver\drivers/inv_mems_base_control.c **** #endif
 522:.\20648_driver\drivers/inv_mems_base_control.c **** 
 523:.\20648_driver\drivers/inv_mems_base_control.c ****     if (minDly_accel != 0xFFFF)	        minDly_accel = minDly;
 524:.\20648_driver\drivers/inv_mems_base_control.c ****     if (minDly_gyro  != 0xFFFF)	        minDly_gyro  = minDly;
 525:.\20648_driver\drivers/inv_mems_base_control.c **** #if defined MEMS_SECONDARY_DEVICE
 526:.\20648_driver\drivers/inv_mems_base_control.c ****     if (minDly_cpass != 0xFFFF)		minDly_cpass = minDly;
 527:.\20648_driver\drivers/inv_mems_base_control.c ****     if (minDly_pressure != 0xFFFF)	minDly_pressure = minDly;
 528:.\20648_driver\drivers/inv_mems_base_control.c **** #endif
 529:.\20648_driver\drivers/inv_mems_base_control.c **** #endif
 530:.\20648_driver\drivers/inv_mems_base_control.c ****     
 531:.\20648_driver\drivers/inv_mems_base_control.c **** // set odrs for each enabled sensors
 532:.\20648_driver\drivers/inv_mems_base_control.c **** 
 533:.\20648_driver\drivers/inv_mems_base_control.c **** 	// Engine ACCEL Based
 534:.\20648_driver\drivers/inv_mems_base_control.c ****     if (minDly_accel != 0xFFFF)	// 0xFFFF -- none accel based sensor enable
 535:.\20648_driver\drivers/inv_mems_base_control.c **** 	{
 536:.\20648_driver\drivers/inv_mems_base_control.c **** 		static unsigned short lLastHwSmplrtDivider = 1;
 537:.\20648_driver\drivers/inv_mems_base_control.c **** 
 538:.\20648_driver\drivers/inv_mems_base_control.c **** 		hw_smplrt_divider	=	SampleRateDividerGet	(minDly_accel);
 539:.\20648_driver\drivers/inv_mems_base_control.c **** 
 540:.\20648_driver\drivers/inv_mems_base_control.c **** 		if (hw_smplrt_divider != lLastHwSmplrtDivider)
 541:.\20648_driver\drivers/inv_mems_base_control.c **** 		{
 542:.\20648_driver\drivers/inv_mems_base_control.c **** 			result	|=	inv_set_accel_quaternion_gain	(hw_smplrt_divider);
 543:.\20648_driver\drivers/inv_mems_base_control.c **** 			result	|=	inv_set_accel_cal_params		(hw_smplrt_divider);
 544:.\20648_driver\drivers/inv_mems_base_control.c **** 			result	|=	inv_set_accel_divider			(hw_smplrt_divider - 1);
 545:.\20648_driver\drivers/inv_mems_base_control.c **** 			lLastHwSmplrtDivider = hw_smplrt_divider;
 546:.\20648_driver\drivers/inv_mems_base_control.c **** 		}
 547:.\20648_driver\drivers/inv_mems_base_control.c **** 
 548:.\20648_driver\drivers/inv_mems_base_control.c **** 		result			|=	DividerRateSet	(MinDelayGen		(MinDelayGenAccel2List), hw_smplrt_divider, INV_SENSOR_A
 549:.\20648_driver\drivers/inv_mems_base_control.c **** 		result			|=	DividerRateSet	(MinDelayGen		(MinDelayGenAccel3List), hw_smplrt_divider, INV_SENSOR_G
 550:.\20648_driver\drivers/inv_mems_base_control.c **** 	
 551:.\20648_driver\drivers/inv_mems_base_control.c **** #if (MEMS_CHIP != HW_ICM30630)
 552:.\20648_driver\drivers/inv_mems_base_control.c **** 		result			|=	DividerRateSet	(MinDelayGen		(MinDelayGenAccel4List), hw_smplrt_divider, INV_SENSOR_S
 553:.\20648_driver\drivers/inv_mems_base_control.c **** #endif
 554:.\20648_driver\drivers/inv_mems_base_control.c **** #if (MEMS_CHIP == HW_ICM20645_E || MEMS_CHIP == HW_ICM20648 )
 555:.\20648_driver\drivers/inv_mems_base_control.c **** 		{
 556:.\20648_driver\drivers/inv_mems_base_control.c **** 			unsigned short lStepCounterMinDly =	MinDelayGen		(MinDelayGenAccel5List);
 557:.\20648_driver\drivers/inv_mems_base_control.c **** 			if	(bac_status != 0)				lStepCounterMinDly = min(lStepCounterMinDly, inv_dmp_odr_delays[INV_SENS
 558:.\20648_driver\drivers/inv_mems_base_control.c **** //			if (flip_pickup_status != 0)		lStepCounterMinDly = min(lStepCounterMinDly, inv_dmp_odr_delays[
 559:.\20648_driver\drivers/inv_mems_base_control.c **** 			result			|=	DividerRateSet	(lStepCounterMinDly, hw_smplrt_divider, INV_SENSOR_STEP_COUNTER);
 560:.\20648_driver\drivers/inv_mems_base_control.c **** 		}
 561:.\20648_driver\drivers/inv_mems_base_control.c **** #endif
 562:.\20648_driver\drivers/inv_mems_base_control.c **** 	}
 563:.\20648_driver\drivers/inv_mems_base_control.c **** 
 564:.\20648_driver\drivers/inv_mems_base_control.c ****     // Engine Gyro Based
 565:.\20648_driver\drivers/inv_mems_base_control.c **** 	if (minDly_gyro != 0xFFFF) { // 0xFFFF -- none gyro based sensor enable
 566:.\20648_driver\drivers/inv_mems_base_control.c **** 		static unsigned short lLastHwSmplrtDivider = 1;
 567:.\20648_driver\drivers/inv_mems_base_control.c **** 		hw_smplrt_divider	=	SampleRateDividerGet	(minDly_gyro);
 568:.\20648_driver\drivers/inv_mems_base_control.c **** 		
 569:.\20648_driver\drivers/inv_mems_base_control.c **** 		if (hw_smplrt_divider != lLastHwSmplrtDivider)
 570:.\20648_driver\drivers/inv_mems_base_control.c **** 		{
 571:.\20648_driver\drivers/inv_mems_base_control.c **** 			result	|=	inv_set_gyro_divider	((unsigned char)(hw_smplrt_divider - 1));
 572:.\20648_driver\drivers/inv_mems_base_control.c **** 			lLastHwSmplrtDivider = hw_smplrt_divider;
ARM GAS  C:\Users\ADMINI~1\AppData\Local\Temp\ccjTNAQQ.s 			page 15


 573:.\20648_driver\drivers/inv_mems_base_control.c **** 		}
 574:.\20648_driver\drivers/inv_mems_base_control.c ****       
 575:.\20648_driver\drivers/inv_mems_base_control.c **** 		result			|=	DividerRateSet	(MinDelayGen		(MinDelayGenGyro2List), hw_smplrt_divider, INV_SENSOR_GY
 576:.\20648_driver\drivers/inv_mems_base_control.c **** 		result			|=	DividerRateSet	(MinDelayGen		(MinDelayGenGyro3List), hw_smplrt_divider, INV_SENSOR_CA
 577:.\20648_driver\drivers/inv_mems_base_control.c **** #if (MEMS_CHIP == HW_ICM30630)
 578:.\20648_driver\drivers/inv_mems_base_control.c ****         {
 579:.\20648_driver\drivers/inv_mems_base_control.c ****         unsigned short lMinOdrForGmrv;
 580:.\20648_driver\drivers/inv_mems_base_control.c ****         /** In case GMRV is ON, need to check for GMRV related ODR be applied to GRV too, since GRV
 581:.\20648_driver\drivers/inv_mems_base_control.c ****         if (sGmrvIsOn)
 582:.\20648_driver\drivers/inv_mems_base_control.c ****             lMinOdrForGmrv = MinDelayGen	(MinDelayGenGyro4ForGmrvList);
 583:.\20648_driver\drivers/inv_mems_base_control.c ****         else
 584:.\20648_driver\drivers/inv_mems_base_control.c ****             lMinOdrForGmrv = 0xFFFF;
 585:.\20648_driver\drivers/inv_mems_base_control.c **** 		result			|=	DividerRateSet	(min(lMinOdrForGmrv, MinDelayGen		(MinDelayGenGyro4List)), hw_smplrt_d
 586:.\20648_driver\drivers/inv_mems_base_control.c ****         }
 587:.\20648_driver\drivers/inv_mems_base_control.c **** #else
 588:.\20648_driver\drivers/inv_mems_base_control.c **** 		result			|=	DividerRateSet	(MinDelayGen		(MinDelayGenGyro4List), hw_smplrt_divider, INV_SENSOR_SI
 589:.\20648_driver\drivers/inv_mems_base_control.c **** #endif
 590:.\20648_driver\drivers/inv_mems_base_control.c **** 		result			|=	DividerRateSet	(MinDelayGen		(MinDelayGenGyro5List), hw_smplrt_divider, INV_SENSOR_NI
 591:.\20648_driver\drivers/inv_mems_base_control.c ****     }
 592:.\20648_driver\drivers/inv_mems_base_control.c **** 
 593:.\20648_driver\drivers/inv_mems_base_control.c **** #if defined MEMS_SECONDARY_DEVICE
 594:.\20648_driver\drivers/inv_mems_base_control.c **** 	// Engine Cpass and Pressure Based	
 595:.\20648_driver\drivers/inv_mems_base_control.c ****     if ((minDly_cpass != 0xFFFF) || (minDly_pressure != 0xFFFF)){
 596:.\20648_driver\drivers/inv_mems_base_control.c **** 		unsigned int lI2cEffectiveDivider = 0;
 597:.\20648_driver\drivers/inv_mems_base_control.c **** 
 598:.\20648_driver\drivers/inv_mems_base_control.c **** 		// if compass or pressure are alone, compute 1st stage divider, otherwise it will be taken from a
 599:.\20648_driver\drivers/inv_mems_base_control.c **** 		if ( (minDly_accel == 0xFFFF) && (minDly_gyro == 0xFFFF) )
 600:.\20648_driver\drivers/inv_mems_base_control.c **** 			hw_smplrt_divider	=	SampleRateDividerGet	(minDly);
 601:.\20648_driver\drivers/inv_mems_base_control.c **** 
 602:.\20648_driver\drivers/inv_mems_base_control.c **** 		// Apply compass or pressure ODR to I2C and get effective ODR
 603:.\20648_driver\drivers/inv_mems_base_control.c **** 		// so that 2nd level of divider can take into account real frequency we can expect
 604:.\20648_driver\drivers/inv_mems_base_control.c **** 		// to determine its divider value
 605:.\20648_driver\drivers/inv_mems_base_control.c **** 		result	|=	inv_mems_secondary_set_odr	(hw_smplrt_divider, &lI2cEffectiveDivider);
 606:.\20648_driver\drivers/inv_mems_base_control.c **** 
 607:.\20648_driver\drivers/inv_mems_base_control.c **** 		// if compass or pressure are alone, recompute 1st stage divider based on configured divider for 
 608:.\20648_driver\drivers/inv_mems_base_control.c **** 		// otherwise divider is taken from accel or gyro, so there is no need to recompute effective divi
 609:.\20648_driver\drivers/inv_mems_base_control.c **** 		// based on the divider we just applied
 610:.\20648_driver\drivers/inv_mems_base_control.c **** 		if ( (minDly_accel == 0xFFFF) && (minDly_gyro == 0xFFFF) )
 611:.\20648_driver\drivers/inv_mems_base_control.c **** 		    hw_smplrt_divider = lI2cEffectiveDivider;
 612:.\20648_driver\drivers/inv_mems_base_control.c ****         
 613:.\20648_driver\drivers/inv_mems_base_control.c **** 		if (minDly_cpass != 0xFFFF)
 614:.\20648_driver\drivers/inv_mems_base_control.c **** 		{
 615:.\20648_driver\drivers/inv_mems_base_control.c **** 			result			|=	DividerRateSet	(MinDelayGen		(MinDelayGenCpass2List), hw_smplrt_divider, INV_SENSOR_
 616:.\20648_driver\drivers/inv_mems_base_control.c **** 			result			|=	DividerRateSet	(MinDelayGen		(MinDelayGenCpass3List), hw_smplrt_divider, INV_SENSOR_
 617:.\20648_driver\drivers/inv_mems_base_control.c **** 		}
 618:.\20648_driver\drivers/inv_mems_base_control.c **** 
 619:.\20648_driver\drivers/inv_mems_base_control.c **** 		if (minDly_pressure != 0xFFFF)
 620:.\20648_driver\drivers/inv_mems_base_control.c **** 			result			|=	DividerRateSet	(MinDelayGen		(MinDelayGenPressure2List), hw_smplrt_divider, INV_SENS
 621:.\20648_driver\drivers/inv_mems_base_control.c **** 	}
 622:.\20648_driver\drivers/inv_mems_base_control.c **** #endif
 623:.\20648_driver\drivers/inv_mems_base_control.c **** 	
 624:.\20648_driver\drivers/inv_mems_base_control.c ****     return result;
 625:.\20648_driver\drivers/inv_mems_base_control.c **** }
 626:.\20648_driver\drivers/inv_mems_base_control.c **** 
 627:.\20648_driver\drivers/inv_mems_base_control.c **** inv_error_t inv_set_odr(unsigned char androidSensor, unsigned short delayInMs)
 628:.\20648_driver\drivers/inv_mems_base_control.c **** {
 629:.\20648_driver\drivers/inv_mems_base_control.c ****     inv_error_t result;
ARM GAS  C:\Users\ADMINI~1\AppData\Local\Temp\ccjTNAQQ.s 			page 16


 630:.\20648_driver\drivers/inv_mems_base_control.c ****     
 631:.\20648_driver\drivers/inv_mems_base_control.c **** #if defined MEMS_SECONDARY_DEVICE
 632:.\20648_driver\drivers/inv_mems_base_control.c **** 	if(sensor_needs_compass(androidSensor))
 633:.\20648_driver\drivers/inv_mems_base_control.c **** 		if(!inv_mems_get_compass_availability())
 634:.\20648_driver\drivers/inv_mems_base_control.c **** 			return INV_ERROR_INVALID_PARAMETER;
 635:.\20648_driver\drivers/inv_mems_base_control.c **** 	if(sensor_needs_pressure(androidSensor))
 636:.\20648_driver\drivers/inv_mems_base_control.c **** 		if(!inv_mems_get_pressure_availability())
 637:.\20648_driver\drivers/inv_mems_base_control.c **** 			return INV_ERROR_INVALID_PARAMETER;
 638:.\20648_driver\drivers/inv_mems_base_control.c **** #endif
 639:.\20648_driver\drivers/inv_mems_base_control.c **** 
 640:.\20648_driver\drivers/inv_mems_base_control.c **** 	inv_mems_prevent_lpen_control();
 641:.\20648_driver\drivers/inv_mems_base_control.c ****     
 642:.\20648_driver\drivers/inv_mems_base_control.c ****     if (delayInMs == 0) delayInMs = 1;
 643:.\20648_driver\drivers/inv_mems_base_control.c ****     if (delayInMs > 1000) delayInMs = 1000;     // 1Hz / 1000ms
 644:.\20648_driver\drivers/inv_mems_base_control.c ****     switch (androidSensor) {
 645:.\20648_driver\drivers/inv_mems_base_control.c ****         case ANDROID_SENSOR_ACCELEROMETER:
 646:.\20648_driver\drivers/inv_mems_base_control.c ****             inv_dmp_odr_delays[INV_SENSOR_ACCEL] = delayInMs;
 647:.\20648_driver\drivers/inv_mems_base_control.c ****             break;
 648:.\20648_driver\drivers/inv_mems_base_control.c **** 
 649:.\20648_driver\drivers/inv_mems_base_control.c **** #if (MEMS_CHIP != HW_ICM30630)
 650:.\20648_driver\drivers/inv_mems_base_control.c ****         case ANDROID_SENSOR_STEP_DETECTOR:
 651:.\20648_driver\drivers/inv_mems_base_control.c ****         case ANDROID_SENSOR_STEP_COUNTER:
 652:.\20648_driver\drivers/inv_mems_base_control.c ****             inv_dmp_odr_delays[INV_SENSOR_STEP_COUNTER] = delayInMs;
 653:.\20648_driver\drivers/inv_mems_base_control.c ****             break;
 654:.\20648_driver\drivers/inv_mems_base_control.c **** #endif
 655:.\20648_driver\drivers/inv_mems_base_control.c ****         case ANDROID_SENSOR_GEOMAGNETIC_ROTATION_VECTOR:
 656:.\20648_driver\drivers/inv_mems_base_control.c ****             inv_dmp_odr_delays[INV_SENSOR_GEOMAG] = delayInMs;
 657:.\20648_driver\drivers/inv_mems_base_control.c ****             inv_dmp_odr_delays[INV_SENSOR_GEOMAG_cpass] = delayInMs;
 658:.\20648_driver\drivers/inv_mems_base_control.c ****             break;
 659:.\20648_driver\drivers/inv_mems_base_control.c **** 
 660:.\20648_driver\drivers/inv_mems_base_control.c **** #if (MEMS_CHIP == HW_ICM20645_E || MEMS_CHIP == HW_ICM20648)
 661:.\20648_driver\drivers/inv_mems_base_control.c ****         case ANDROID_SENSOR_ACTIVITY_CLASSIFICATON:
 662:.\20648_driver\drivers/inv_mems_base_control.c ****             inv_dmp_odr_delays[INV_SENSOR_ACTIVITY_CLASSIFIER] = delayInMs;
 663:.\20648_driver\drivers/inv_mems_base_control.c ****             break;
 664:.\20648_driver\drivers/inv_mems_base_control.c **** #endif
 665:.\20648_driver\drivers/inv_mems_base_control.c ****         case ANDROID_SENSOR_GYROSCOPE_UNCALIBRATED:
 666:.\20648_driver\drivers/inv_mems_base_control.c ****             inv_dmp_odr_delays[INV_SENSOR_GYRO] = delayInMs;
 667:.\20648_driver\drivers/inv_mems_base_control.c ****             break;
 668:.\20648_driver\drivers/inv_mems_base_control.c **** 
 669:.\20648_driver\drivers/inv_mems_base_control.c ****         case ANDROID_SENSOR_GYROSCOPE:
 670:.\20648_driver\drivers/inv_mems_base_control.c **** #if (MEMS_CHIP == HW_ICM30630)
 671:.\20648_driver\drivers/inv_mems_base_control.c ****             inv_dmp_odr_delays[INV_SENSOR_GYRO] = delayInMs;
 672:.\20648_driver\drivers/inv_mems_base_control.c **** #endif
 673:.\20648_driver\drivers/inv_mems_base_control.c ****             inv_dmp_odr_delays[INV_SENSOR_CALIB_GYRO] = delayInMs;
 674:.\20648_driver\drivers/inv_mems_base_control.c ****             break;
 675:.\20648_driver\drivers/inv_mems_base_control.c **** 
 676:.\20648_driver\drivers/inv_mems_base_control.c ****         case ANDROID_SENSOR_GRAVITY:
 677:.\20648_driver\drivers/inv_mems_base_control.c ****         case ANDROID_SENSOR_GAME_ROTATION_VECTOR:
 678:.\20648_driver\drivers/inv_mems_base_control.c ****         case ANDROID_SENSOR_LINEAR_ACCELERATION:
 679:.\20648_driver\drivers/inv_mems_base_control.c **** #if defined MEMS_AUGMENTED_SENSORS
 680:.\20648_driver\drivers/inv_mems_base_control.c ****             // if augmented sensors are handled by this driver,
 681:.\20648_driver\drivers/inv_mems_base_control.c ****             // then the fastest 6quat-based sensor which is enabled
 682:.\20648_driver\drivers/inv_mems_base_control.c ****             // should be applied to all 6quat-based sensors
 683:.\20648_driver\drivers/inv_mems_base_control.c **** 			delayInMs = inv_mems_augmented_sensors_set_odr(androidSensor, delayInMs);
 684:.\20648_driver\drivers/inv_mems_base_control.c **** #endif
 685:.\20648_driver\drivers/inv_mems_base_control.c ****             inv_dmp_odr_delays[INV_SENSOR_SIXQ] = delayInMs;
 686:.\20648_driver\drivers/inv_mems_base_control.c ****             inv_dmp_odr_delays[INV_SENSOR_SIXQ_accel] = delayInMs;
ARM GAS  C:\Users\ADMINI~1\AppData\Local\Temp\ccjTNAQQ.s 			page 17


 687:.\20648_driver\drivers/inv_mems_base_control.c ****             break;
 688:.\20648_driver\drivers/inv_mems_base_control.c **** 
 689:.\20648_driver\drivers/inv_mems_base_control.c ****         case ANDROID_SENSOR_ORIENTATION:
 690:.\20648_driver\drivers/inv_mems_base_control.c ****         case ANDROID_SENSOR_ROTATION_VECTOR:
 691:.\20648_driver\drivers/inv_mems_base_control.c **** #if defined MEMS_AUGMENTED_SENSORS
 692:.\20648_driver\drivers/inv_mems_base_control.c ****             // if augmented sensors are handled by this driver,
 693:.\20648_driver\drivers/inv_mems_base_control.c ****             // then the fastest 9quat-based sensor which is enabled
 694:.\20648_driver\drivers/inv_mems_base_control.c ****             // should be applied to all 9quat-based sensors
 695:.\20648_driver\drivers/inv_mems_base_control.c **** 			delayInMs = inv_mems_augmented_sensors_set_odr(androidSensor, delayInMs);
 696:.\20648_driver\drivers/inv_mems_base_control.c **** #endif
 697:.\20648_driver\drivers/inv_mems_base_control.c ****             inv_dmp_odr_delays[INV_SENSOR_NINEQ] = delayInMs;
 698:.\20648_driver\drivers/inv_mems_base_control.c ****             inv_dmp_odr_delays[INV_SENSOR_NINEQ_accel] = delayInMs;
 699:.\20648_driver\drivers/inv_mems_base_control.c ****             inv_dmp_odr_delays[INV_SENSOR_NINEQ_cpass] = delayInMs;
 700:.\20648_driver\drivers/inv_mems_base_control.c ****             break;
 701:.\20648_driver\drivers/inv_mems_base_control.c **** 
 702:.\20648_driver\drivers/inv_mems_base_control.c ****         case ANDROID_SENSOR_MAGNETIC_FIELD_UNCALIBRATED:
 703:.\20648_driver\drivers/inv_mems_base_control.c ****             inv_dmp_odr_delays[INV_SENSOR_COMPASS] = delayInMs;
 704:.\20648_driver\drivers/inv_mems_base_control.c ****             break;
 705:.\20648_driver\drivers/inv_mems_base_control.c **** 
 706:.\20648_driver\drivers/inv_mems_base_control.c ****         case ANDROID_SENSOR_GEOMAGNETIC_FIELD:
 707:.\20648_driver\drivers/inv_mems_base_control.c ****             inv_dmp_odr_delays[INV_SENSOR_CALIB_COMPASS] = delayInMs;
 708:.\20648_driver\drivers/inv_mems_base_control.c ****             break;
 709:.\20648_driver\drivers/inv_mems_base_control.c **** 
 710:.\20648_driver\drivers/inv_mems_base_control.c ****         case ANDROID_SENSOR_LIGHT:
 711:.\20648_driver\drivers/inv_mems_base_control.c ****         case ANDROID_SENSOR_PROXIMITY:
 712:.\20648_driver\drivers/inv_mems_base_control.c ****             inv_dmp_odr_delays[INV_SENSOR_ALS] = delayInMs;
 713:.\20648_driver\drivers/inv_mems_base_control.c ****             break;
 714:.\20648_driver\drivers/inv_mems_base_control.c **** 
 715:.\20648_driver\drivers/inv_mems_base_control.c ****         case ANDROID_SENSOR_WAKEUP_ACCELEROMETER:
 716:.\20648_driver\drivers/inv_mems_base_control.c ****             inv_dmp_odr_delays[INV_SENSOR_WAKEUP_ACCEL] = delayInMs;
 717:.\20648_driver\drivers/inv_mems_base_control.c ****             break;
 718:.\20648_driver\drivers/inv_mems_base_control.c **** 
 719:.\20648_driver\drivers/inv_mems_base_control.c **** #if (MEMS_CHIP != HW_ICM30630)
 720:.\20648_driver\drivers/inv_mems_base_control.c ****         case ANDROID_SENSOR_WAKEUP_STEP_DETECTOR:
 721:.\20648_driver\drivers/inv_mems_base_control.c ****         case ANDROID_SENSOR_WAKEUP_STEP_COUNTER:
 722:.\20648_driver\drivers/inv_mems_base_control.c ****         case ANDROID_SENSOR_WAKEUP_SIGNIFICANT_MOTION:
 723:.\20648_driver\drivers/inv_mems_base_control.c ****             inv_dmp_odr_delays[INV_SENSOR_WAKEUP_STEP_COUNTER] = delayInMs;
 724:.\20648_driver\drivers/inv_mems_base_control.c ****             break;
 725:.\20648_driver\drivers/inv_mems_base_control.c **** #endif
 726:.\20648_driver\drivers/inv_mems_base_control.c ****         case ANDROID_SENSOR_WAKEUP_GEOMAGNETIC_ROTATION_VECTOR:
 727:.\20648_driver\drivers/inv_mems_base_control.c ****             inv_dmp_odr_delays[INV_SENSOR_WAKEUP_GEOMAG] = delayInMs;
 728:.\20648_driver\drivers/inv_mems_base_control.c ****             inv_dmp_odr_delays[INV_SENSOR_WAKEUP_GEOMAG_cpass] = delayInMs;
 729:.\20648_driver\drivers/inv_mems_base_control.c ****             break;
 730:.\20648_driver\drivers/inv_mems_base_control.c **** 
 731:.\20648_driver\drivers/inv_mems_base_control.c **** #if (MEMS_CHIP == HW_ICM20645_E || MEMS_CHIP == HW_ICM20648)
 732:.\20648_driver\drivers/inv_mems_base_control.c ****         case ANDROID_SENSOR_WAKEUP_TILT_DETECTOR:
 733:.\20648_driver\drivers/inv_mems_base_control.c ****             inv_dmp_odr_delays[INV_SENSOR_WAKEUP_TILT_DETECTOR] = delayInMs;
 734:.\20648_driver\drivers/inv_mems_base_control.c ****             break;
 735:.\20648_driver\drivers/inv_mems_base_control.c **** #endif
 736:.\20648_driver\drivers/inv_mems_base_control.c ****         case ANDROID_SENSOR_B2S:
 737:.\20648_driver\drivers/inv_mems_base_control.c ****             inv_dmp_odr_delays[INV_SENSOR_BRING_TO_SEE] = delayInMs;
 738:.\20648_driver\drivers/inv_mems_base_control.c ****             break;
 739:.\20648_driver\drivers/inv_mems_base_control.c **** 
 740:.\20648_driver\drivers/inv_mems_base_control.c ****         case ANDROID_SENSOR_WAKEUP_GYROSCOPE_UNCALIBRATED:
 741:.\20648_driver\drivers/inv_mems_base_control.c ****             inv_dmp_odr_delays[INV_SENSOR_WAKEUP_GYRO] = delayInMs;
 742:.\20648_driver\drivers/inv_mems_base_control.c ****             break;
 743:.\20648_driver\drivers/inv_mems_base_control.c **** 
ARM GAS  C:\Users\ADMINI~1\AppData\Local\Temp\ccjTNAQQ.s 			page 18


 744:.\20648_driver\drivers/inv_mems_base_control.c ****         case ANDROID_SENSOR_WAKEUP_GYROSCOPE:
 745:.\20648_driver\drivers/inv_mems_base_control.c ****             inv_dmp_odr_delays[INV_SENSOR_WAKEUP_CALIB_GYRO] = delayInMs;
 746:.\20648_driver\drivers/inv_mems_base_control.c ****             break;
 747:.\20648_driver\drivers/inv_mems_base_control.c **** 
 748:.\20648_driver\drivers/inv_mems_base_control.c ****         case ANDROID_SENSOR_WAKEUP_GRAVITY:
 749:.\20648_driver\drivers/inv_mems_base_control.c ****         case ANDROID_SENSOR_WAKEUP_GAME_ROTATION_VECTOR:
 750:.\20648_driver\drivers/inv_mems_base_control.c ****         case ANDROID_SENSOR_WAKEUP_LINEAR_ACCELERATION:
 751:.\20648_driver\drivers/inv_mems_base_control.c **** #if defined MEMS_AUGMENTED_SENSORS
 752:.\20648_driver\drivers/inv_mems_base_control.c ****             // if augmented sensors are handled by this driver,
 753:.\20648_driver\drivers/inv_mems_base_control.c ****             // then the fastest 6quat-based sensor which is enabled
 754:.\20648_driver\drivers/inv_mems_base_control.c ****             // should be applied to all 6quat-based sensors
 755:.\20648_driver\drivers/inv_mems_base_control.c **** 			delayInMs = inv_mems_augmented_sensors_set_odr(androidSensor, delayInMs);
 756:.\20648_driver\drivers/inv_mems_base_control.c **** #endif
 757:.\20648_driver\drivers/inv_mems_base_control.c ****             inv_dmp_odr_delays[INV_SENSOR_WAKEUP_SIXQ] = delayInMs;
 758:.\20648_driver\drivers/inv_mems_base_control.c ****             inv_dmp_odr_delays[INV_SENSOR_WAKEUP_SIXQ_accel] = delayInMs;
 759:.\20648_driver\drivers/inv_mems_base_control.c ****             break;
 760:.\20648_driver\drivers/inv_mems_base_control.c **** 
 761:.\20648_driver\drivers/inv_mems_base_control.c ****         case ANDROID_SENSOR_WAKEUP_ORIENTATION:
 762:.\20648_driver\drivers/inv_mems_base_control.c ****         case ANDROID_SENSOR_WAKEUP_ROTATION_VECTOR:
 763:.\20648_driver\drivers/inv_mems_base_control.c **** #if defined MEMS_AUGMENTED_SENSORS
 764:.\20648_driver\drivers/inv_mems_base_control.c ****             // if augmented sensors are handled by this driver,
 765:.\20648_driver\drivers/inv_mems_base_control.c ****             // then the fastest 9quat-based sensor which is enabled
 766:.\20648_driver\drivers/inv_mems_base_control.c ****             // should be applied to all 9quat-based sensors
 767:.\20648_driver\drivers/inv_mems_base_control.c **** 			delayInMs = inv_mems_augmented_sensors_set_odr(androidSensor, delayInMs);
 768:.\20648_driver\drivers/inv_mems_base_control.c **** #endif
 769:.\20648_driver\drivers/inv_mems_base_control.c ****             inv_dmp_odr_delays[INV_SENSOR_WAKEUP_NINEQ] = delayInMs;
 770:.\20648_driver\drivers/inv_mems_base_control.c ****             inv_dmp_odr_delays[INV_SENSOR_WAKEUP_NINEQ_accel] = delayInMs;
 771:.\20648_driver\drivers/inv_mems_base_control.c ****             inv_dmp_odr_delays[INV_SENSOR_WAKEUP_NINEQ_cpass] = delayInMs;
 772:.\20648_driver\drivers/inv_mems_base_control.c ****             break;
 773:.\20648_driver\drivers/inv_mems_base_control.c **** 
 774:.\20648_driver\drivers/inv_mems_base_control.c ****         case ANDROID_SENSOR_WAKEUP_MAGNETIC_FIELD_UNCALIBRATED:
 775:.\20648_driver\drivers/inv_mems_base_control.c ****             inv_dmp_odr_delays[INV_SENSOR_WAKEUP_COMPASS] = delayInMs;
 776:.\20648_driver\drivers/inv_mems_base_control.c ****             break;
 777:.\20648_driver\drivers/inv_mems_base_control.c **** 
 778:.\20648_driver\drivers/inv_mems_base_control.c ****         case ANDROID_SENSOR_WAKEUP_MAGNETIC_FIELD:
 779:.\20648_driver\drivers/inv_mems_base_control.c ****             inv_dmp_odr_delays[INV_SENSOR_WAKEUP_CALIB_COMPASS] = delayInMs;
 780:.\20648_driver\drivers/inv_mems_base_control.c ****             break;
 781:.\20648_driver\drivers/inv_mems_base_control.c **** 
 782:.\20648_driver\drivers/inv_mems_base_control.c ****         case ANDROID_SENSOR_WAKEUP_LIGHT:
 783:.\20648_driver\drivers/inv_mems_base_control.c ****         case ANDROID_SENSOR_WAKEUP_PROXIMITY:
 784:.\20648_driver\drivers/inv_mems_base_control.c ****             inv_dmp_odr_delays[INV_SENSOR_WAKEUP_ALS] = delayInMs;
 785:.\20648_driver\drivers/inv_mems_base_control.c ****             break;
 786:.\20648_driver\drivers/inv_mems_base_control.c **** 
 787:.\20648_driver\drivers/inv_mems_base_control.c ****         case ANDROID_SENSOR_PRESSURE:
 788:.\20648_driver\drivers/inv_mems_base_control.c ****             inv_dmp_odr_delays[INV_SENSOR_PRESSURE] = delayInMs;
 789:.\20648_driver\drivers/inv_mems_base_control.c ****             break;
 790:.\20648_driver\drivers/inv_mems_base_control.c **** 
 791:.\20648_driver\drivers/inv_mems_base_control.c ****         case ANDROID_SENSOR_WAKEUP_PRESSURE:
 792:.\20648_driver\drivers/inv_mems_base_control.c ****             inv_dmp_odr_delays[INV_SENSOR_WAKEUP_PRESSURE] = delayInMs;
 793:.\20648_driver\drivers/inv_mems_base_control.c ****             break;
 794:.\20648_driver\drivers/inv_mems_base_control.c **** 
 795:.\20648_driver\drivers/inv_mems_base_control.c ****         case ANDROID_SENSOR_FLIP_PICKUP:
 796:.\20648_driver\drivers/inv_mems_base_control.c ****             inv_dmp_odr_delays[INV_SENSOR_FLIP_PICKUP] = delayInMs;
 797:.\20648_driver\drivers/inv_mems_base_control.c ****             break;
 798:.\20648_driver\drivers/inv_mems_base_control.c **** 
 799:.\20648_driver\drivers/inv_mems_base_control.c ****         // not support yet
 800:.\20648_driver\drivers/inv_mems_base_control.c ****         case ANDROID_SENSOR_META_DATA:
ARM GAS  C:\Users\ADMINI~1\AppData\Local\Temp\ccjTNAQQ.s 			page 19


 801:.\20648_driver\drivers/inv_mems_base_control.c ****         case ANDROID_SENSOR_TEMPERATURE:
 802:.\20648_driver\drivers/inv_mems_base_control.c ****         case ANDROID_SENSOR_AMBIENT_TEMPERATURE:
 803:.\20648_driver\drivers/inv_mems_base_control.c ****         case ANDROID_SENSOR_HUMIDITY:
 804:.\20648_driver\drivers/inv_mems_base_control.c ****         case ANDROID_SENSOR_HEART_RATE:
 805:.\20648_driver\drivers/inv_mems_base_control.c ****         case ANDROID_SENSOR_SCREEN_ROTATION:
 806:.\20648_driver\drivers/inv_mems_base_control.c ****         case ANDROID_SENSOR_WAKEUP_AMBIENT_TEMPERATURE:
 807:.\20648_driver\drivers/inv_mems_base_control.c ****         case ANDROID_SENSOR_WAKEUP_RELATIVE_HUMIDITY:
 808:.\20648_driver\drivers/inv_mems_base_control.c ****         case ANDROID_SENSOR_WAKEUP_HEART_RATE:
 809:.\20648_driver\drivers/inv_mems_base_control.c ****             break;
 810:.\20648_driver\drivers/inv_mems_base_control.c ****             
 811:.\20648_driver\drivers/inv_mems_base_control.c ****         default:
 812:.\20648_driver\drivers/inv_mems_base_control.c ****             break;      
 813:.\20648_driver\drivers/inv_mems_base_control.c ****     }
 814:.\20648_driver\drivers/inv_mems_base_control.c **** 
 815:.\20648_driver\drivers/inv_mems_base_control.c ****     result = inv_set_hw_smplrt_dmp_odrs();
 816:.\20648_driver\drivers/inv_mems_base_control.c ****     result |= inv_set_gyro_sf(inv_get_gyro_divider(), inv_get_gyro_fullscale());
 817:.\20648_driver\drivers/inv_mems_base_control.c **** 
 818:.\20648_driver\drivers/inv_mems_base_control.c ****     // debug get odr
 819:.\20648_driver\drivers/inv_mems_base_control.c ****     // result should be SAME as you entered in Ms in the Rolldice console
 820:.\20648_driver\drivers/inv_mems_base_control.c ****     // i.e. If you use: O a 63 [ Press capital O then 'a' then 63 then ENTER]
 821:.\20648_driver\drivers/inv_mems_base_control.c ****     // You should get the nearest number to 63 here if you debug  the 'test_odr'  
 822:.\20648_driver\drivers/inv_mems_base_control.c ****     
 823:.\20648_driver\drivers/inv_mems_base_control.c ****     //inv_get_odr( androidSensor, &test_odr );
 824:.\20648_driver\drivers/inv_mems_base_control.c ****       
 825:.\20648_driver\drivers/inv_mems_base_control.c **** 	inv_mems_allow_lpen_control();
 826:.\20648_driver\drivers/inv_mems_base_control.c ****     return result;
 827:.\20648_driver\drivers/inv_mems_base_control.c **** }
 828:.\20648_driver\drivers/inv_mems_base_control.c **** 
 829:.\20648_driver\drivers/inv_mems_base_control.c **** /*
 830:.\20648_driver\drivers/inv_mems_base_control.c ****    inv_get_odr()
 831:.\20648_driver\drivers/inv_mems_base_control.c ****    Function to Query DMP3 DataRate (ODR)
 832:.\20648_driver\drivers/inv_mems_base_control.c ****    
 833:.\20648_driver\drivers/inv_mems_base_control.c ****    *odr = inv_get_odr_in_units( );
 834:.\20648_driver\drivers/inv_mems_base_control.c **** 
 835:.\20648_driver\drivers/inv_mems_base_control.c ****     The result in odr_units saved in *odr param
 836:.\20648_driver\drivers/inv_mems_base_control.c **** */
 837:.\20648_driver\drivers/inv_mems_base_control.c **** inv_error_t inv_get_odr(unsigned char SensorId, uint32_t *odr, enum INV_ODR_TYPE odr_units)
 838:.\20648_driver\drivers/inv_mems_base_control.c **** {
 210              		.loc 1 838 0
 211              		.cfi_startproc
 212              	.LVL23:
 213 0000 10B5     		push	{r4, lr}
 214              		.cfi_def_cfa_offset 8
 215              		.cfi_offset 4, -8
 216              		.cfi_offset 14, -4
 217              		.loc 1 838 0
 218 0002 0C1E     		sub	r4, r1, #0
 839:.\20648_driver\drivers/inv_mems_base_control.c ****     inv_error_t result=0;
 840:.\20648_driver\drivers/inv_mems_base_control.c **** 
 841:.\20648_driver\drivers/inv_mems_base_control.c ****     if(!odr) // sanity
 219              		.loc 1 841 0
 220 0004 00D1     		bne	.LCB209
 221 0006 73E0     		b	.L51	@long jump
 222              	.LCB209:
 842:.\20648_driver\drivers/inv_mems_base_control.c ****       return -1;
 843:.\20648_driver\drivers/inv_mems_base_control.c ****        
 844:.\20648_driver\drivers/inv_mems_base_control.c ****    *odr = 0;
ARM GAS  C:\Users\ADMINI~1\AppData\Local\Temp\ccjTNAQQ.s 			page 20


 223              		.loc 1 844 0
 224 0008 0023     		mov	r3, #0
 845:.\20648_driver\drivers/inv_mems_base_control.c ****    
 846:.\20648_driver\drivers/inv_mems_base_control.c ****    /*
 847:.\20648_driver\drivers/inv_mems_base_control.c ****      You can obtain the odr in Milliseconds, Micro Seconds or Ticks.
 848:.\20648_driver\drivers/inv_mems_base_control.c ****      Use the enum values: ODR_IN_Ms, ODR_IN_Us or ODR_IN_Ticks,
 849:.\20648_driver\drivers/inv_mems_base_control.c ****      when calling inv_get_odr_in_units().
 850:.\20648_driver\drivers/inv_mems_base_control.c ****    */
 851:.\20648_driver\drivers/inv_mems_base_control.c ****    
 852:.\20648_driver\drivers/inv_mems_base_control.c ****     switch (SensorId) {
 225              		.loc 1 852 0
 226 000a 0138     		sub	r0, r0, #1
 227              	.LVL24:
 844:.\20648_driver\drivers/inv_mems_base_control.c ****    
 228              		.loc 1 844 0
 229 000c 0B60     		str	r3, [r1]
 230              		.loc 1 852 0
 231 000e 2C28     		cmp	r0, #44
 232 0010 00D9     		bls	.LCB215
 233 0012 70E0     		b	.L52	@long jump
 234              	.LCB215:
 235 0014 111C     		mov	r1, r2
 236              	.LVL25:
 237 0016 FFF7FEFF 		bl	__gnu_thumb1_case_uqi
 238              	.L24:
 239 001a 17       		.byte	(.L23-.L24)/2
 240 001b 32       		.byte	(.L25-.L24)/2
 241 001c 2C       		.byte	(.L26-.L24)/2
 242 001d 26       		.byte	(.L27-.L24)/2
 243 001e 35       		.byte	(.L28-.L24)/2
 244 001f 5F       		.byte	(.L29-.L24)/2
 245 0020 6E       		.byte	(.L52-.L24)/2
 246 0021 5C       		.byte	(.L30-.L24)/2
 247 0022 29       		.byte	(.L31-.L24)/2
 248 0023 29       		.byte	(.L31-.L24)/2
 249 0024 2C       		.byte	(.L26-.L24)/2
 250 0025 6E       		.byte	(.L52-.L24)/2
 251 0026 6E       		.byte	(.L52-.L24)/2
 252 0027 2F       		.byte	(.L32-.L24)/2
 253 0028 29       		.byte	(.L31-.L24)/2
 254 0029 23       		.byte	(.L33-.L24)/2
 255 002a 3B       		.byte	(.L34-.L24)/2
 256 002b 1A       		.byte	(.L35-.L24)/2
 257 002c 1A       		.byte	(.L35-.L24)/2
 258 002d 1D       		.byte	(.L36-.L24)/2
 259 002e 6E       		.byte	(.L52-.L24)/2
 260 002f 35       		.byte	(.L28-.L24)/2
 261 0030 38       		.byte	(.L37-.L24)/2
 262 0031 59       		.byte	(.L38-.L24)/2
 263 0032 53       		.byte	(.L39-.L24)/2
 264 0033 49       		.byte	(.L40-.L24)/2
 265 0034 5C       		.byte	(.L30-.L24)/2
 266 0035 62       		.byte	(.L41-.L24)/2
 267 0036 4F       		.byte	(.L42-.L24)/2
 268 0037 4F       		.byte	(.L42-.L24)/2
 269 0038 53       		.byte	(.L39-.L24)/2
 270 0039 6E       		.byte	(.L52-.L24)/2
ARM GAS  C:\Users\ADMINI~1\AppData\Local\Temp\ccjTNAQQ.s 			page 21


 271 003a 6E       		.byte	(.L52-.L24)/2
 272 003b 56       		.byte	(.L43-.L24)/2
 273 003c 4C       		.byte	(.L44-.L24)/2
 274 003d 46       		.byte	(.L45-.L24)/2
 275 003e 3B       		.byte	(.L34-.L24)/2
 276 003f 3B       		.byte	(.L34-.L24)/2
 277 0040 3D       		.byte	(.L46-.L24)/2
 278 0041 6E       		.byte	(.L52-.L24)/2
 279 0042 40       		.byte	(.L47-.L24)/2
 280 0043 6E       		.byte	(.L52-.L24)/2
 281 0044 43       		.byte	(.L48-.L24)/2
 282 0045 65       		.byte	(.L49-.L24)/2
 283 0046 20       		.byte	(.L50-.L24)/2
 284 0047 00       		.p2align 1
 285              	.L23:
 853:.\20648_driver\drivers/inv_mems_base_control.c ****         case ANDROID_SENSOR_ACCELEROMETER:
 854:.\20648_driver\drivers/inv_mems_base_control.c ****             *odr = inv_get_odr_in_units( inv_dmp_odr_dividers[INV_SENSOR_ACCEL] , odr_units );
 286              		.loc 1 854 0
 287 0048 2C4B     		ldr	r3, .L55
 288 004a 1888     		ldrh	r0, [r3]
 289 004c 4CE0     		b	.L53
 290              	.L35:
 855:.\20648_driver\drivers/inv_mems_base_control.c ****             break;
 856:.\20648_driver\drivers/inv_mems_base_control.c **** 
 857:.\20648_driver\drivers/inv_mems_base_control.c **** #if (MEMS_CHIP != HW_ICM30630)
 858:.\20648_driver\drivers/inv_mems_base_control.c ****         case ANDROID_SENSOR_STEP_DETECTOR:
 859:.\20648_driver\drivers/inv_mems_base_control.c ****         case ANDROID_SENSOR_STEP_COUNTER:
 860:.\20648_driver\drivers/inv_mems_base_control.c ****             *odr = inv_get_odr_in_units( inv_dmp_odr_dividers[INV_SENSOR_STEP_COUNTER] , odr_units 
 291              		.loc 1 860 0
 292 004e 2B4B     		ldr	r3, .L55
 293 0050 188B     		ldrh	r0, [r3, #24]
 294 0052 49E0     		b	.L53
 295              	.L36:
 861:.\20648_driver\drivers/inv_mems_base_control.c ****             break;
 862:.\20648_driver\drivers/inv_mems_base_control.c **** #endif
 863:.\20648_driver\drivers/inv_mems_base_control.c ****             
 864:.\20648_driver\drivers/inv_mems_base_control.c ****         case ANDROID_SENSOR_GEOMAGNETIC_ROTATION_VECTOR:
 865:.\20648_driver\drivers/inv_mems_base_control.c ****             *odr = inv_get_odr_in_units( inv_dmp_odr_dividers[INV_SENSOR_GEOMAG] , odr_units );    
 296              		.loc 1 865 0
 297 0054 294B     		ldr	r3, .L55
 298 0056 D889     		ldrh	r0, [r3, #14]
 299 0058 46E0     		b	.L53
 300              	.L50:
 866:.\20648_driver\drivers/inv_mems_base_control.c ****             break;
 867:.\20648_driver\drivers/inv_mems_base_control.c **** 
 868:.\20648_driver\drivers/inv_mems_base_control.c **** #if (MEMS_CHIP == HW_ICM20645_E || MEMS_CHIP == HW_ICM20648)
 869:.\20648_driver\drivers/inv_mems_base_control.c ****         case ANDROID_SENSOR_ACTIVITY_CLASSIFICATON:
 870:.\20648_driver\drivers/inv_mems_base_control.c ****             *odr = inv_get_odr_in_units( inv_dmp_odr_dividers[INV_SENSOR_ACTIVITY_CLASSIFIER] , odr
 301              		.loc 1 870 0
 302 005a 284B     		ldr	r3, .L55
 303 005c 588B     		ldrh	r0, [r3, #26]
 304 005e 43E0     		b	.L53
 305              	.L33:
 871:.\20648_driver\drivers/inv_mems_base_control.c ****             break;
 872:.\20648_driver\drivers/inv_mems_base_control.c **** #endif
 873:.\20648_driver\drivers/inv_mems_base_control.c **** 
 874:.\20648_driver\drivers/inv_mems_base_control.c ****         case ANDROID_SENSOR_GYROSCOPE_UNCALIBRATED:
ARM GAS  C:\Users\ADMINI~1\AppData\Local\Temp\ccjTNAQQ.s 			page 22


 875:.\20648_driver\drivers/inv_mems_base_control.c ****             *odr = inv_get_odr_in_units( inv_dmp_odr_dividers[INV_SENSOR_GYRO] , odr_units );
 306              		.loc 1 875 0
 307 0060 264B     		ldr	r3, .L55
 308 0062 5888     		ldrh	r0, [r3, #2]
 309 0064 40E0     		b	.L53
 310              	.L27:
 876:.\20648_driver\drivers/inv_mems_base_control.c ****             break;
 877:.\20648_driver\drivers/inv_mems_base_control.c **** 
 878:.\20648_driver\drivers/inv_mems_base_control.c ****         case ANDROID_SENSOR_GYROSCOPE:
 879:.\20648_driver\drivers/inv_mems_base_control.c ****             *odr = inv_get_odr_in_units( inv_dmp_odr_dividers[INV_SENSOR_CALIB_GYRO] , odr_units );
 311              		.loc 1 879 0
 312 0066 254B     		ldr	r3, .L55
 313 0068 988A     		ldrh	r0, [r3, #20]
 314 006a 3DE0     		b	.L53
 315              	.L31:
 880:.\20648_driver\drivers/inv_mems_base_control.c ****             break;
 881:.\20648_driver\drivers/inv_mems_base_control.c **** 
 882:.\20648_driver\drivers/inv_mems_base_control.c ****         case ANDROID_SENSOR_GAME_ROTATION_VECTOR:
 883:.\20648_driver\drivers/inv_mems_base_control.c ****         case ANDROID_SENSOR_GRAVITY:
 884:.\20648_driver\drivers/inv_mems_base_control.c ****         case ANDROID_SENSOR_LINEAR_ACCELERATION:
 885:.\20648_driver\drivers/inv_mems_base_control.c ****             *odr = inv_get_odr_in_units( inv_dmp_odr_dividers[INV_SENSOR_SIXQ] , odr_units );
 316              		.loc 1 885 0
 317 006c 234B     		ldr	r3, .L55
 318 006e 5889     		ldrh	r0, [r3, #10]
 319 0070 3AE0     		b	.L53
 320              	.L26:
 886:.\20648_driver\drivers/inv_mems_base_control.c ****             break;
 887:.\20648_driver\drivers/inv_mems_base_control.c **** 
 888:.\20648_driver\drivers/inv_mems_base_control.c ****         case ANDROID_SENSOR_ORIENTATION:
 889:.\20648_driver\drivers/inv_mems_base_control.c ****         case ANDROID_SENSOR_ROTATION_VECTOR:
 890:.\20648_driver\drivers/inv_mems_base_control.c ****             *odr = inv_get_odr_in_units( inv_dmp_odr_dividers[INV_SENSOR_NINEQ] , odr_units );
 321              		.loc 1 890 0
 322 0072 224B     		ldr	r3, .L55
 323 0074 9889     		ldrh	r0, [r3, #12]
 324 0076 37E0     		b	.L53
 325              	.L32:
 891:.\20648_driver\drivers/inv_mems_base_control.c ****             break;
 892:.\20648_driver\drivers/inv_mems_base_control.c **** 
 893:.\20648_driver\drivers/inv_mems_base_control.c ****         case ANDROID_SENSOR_MAGNETIC_FIELD_UNCALIBRATED:
 894:.\20648_driver\drivers/inv_mems_base_control.c ****             *odr = inv_get_odr_in_units( inv_dmp_odr_dividers[INV_SENSOR_COMPASS] , odr_units );
 326              		.loc 1 894 0
 327 0078 204B     		ldr	r3, .L55
 328 007a D888     		ldrh	r0, [r3, #6]
 329 007c 34E0     		b	.L53
 330              	.L25:
 895:.\20648_driver\drivers/inv_mems_base_control.c ****             break;
 896:.\20648_driver\drivers/inv_mems_base_control.c **** 
 897:.\20648_driver\drivers/inv_mems_base_control.c ****         case ANDROID_SENSOR_GEOMAGNETIC_FIELD:
 898:.\20648_driver\drivers/inv_mems_base_control.c ****             *odr = inv_get_odr_in_units( inv_dmp_odr_dividers[INV_SENSOR_CALIB_COMPASS] , odr_units
 331              		.loc 1 898 0
 332 007e 1F4B     		ldr	r3, .L55
 333 0080 D88A     		ldrh	r0, [r3, #22]
 334 0082 31E0     		b	.L53
 335              	.L28:
 899:.\20648_driver\drivers/inv_mems_base_control.c ****             break;
 900:.\20648_driver\drivers/inv_mems_base_control.c **** 
 901:.\20648_driver\drivers/inv_mems_base_control.c ****         case ANDROID_SENSOR_LIGHT:
ARM GAS  C:\Users\ADMINI~1\AppData\Local\Temp\ccjTNAQQ.s 			page 23


 902:.\20648_driver\drivers/inv_mems_base_control.c ****         case ANDROID_SENSOR_PROXIMITY:
 903:.\20648_driver\drivers/inv_mems_base_control.c ****             *odr = inv_get_odr_in_units( inv_dmp_odr_dividers[INV_SENSOR_ALS] , odr_units );
 336              		.loc 1 903 0
 337 0084 1D4B     		ldr	r3, .L55
 338 0086 1889     		ldrh	r0, [r3, #8]
 339 0088 2EE0     		b	.L53
 340              	.L37:
 904:.\20648_driver\drivers/inv_mems_base_control.c ****             break;
 905:.\20648_driver\drivers/inv_mems_base_control.c **** 
 906:.\20648_driver\drivers/inv_mems_base_control.c ****         case ANDROID_SENSOR_WAKEUP_ACCELEROMETER:
 907:.\20648_driver\drivers/inv_mems_base_control.c ****             *odr = inv_get_odr_in_units( inv_dmp_odr_dividers[INV_SENSOR_WAKEUP_ACCEL] , odr_units 
 341              		.loc 1 907 0
 342 008a 1C4B     		ldr	r3, .L55
 343 008c 188D     		ldrh	r0, [r3, #40]
 344 008e 2BE0     		b	.L53
 345              	.L34:
 908:.\20648_driver\drivers/inv_mems_base_control.c ****             break;
 909:.\20648_driver\drivers/inv_mems_base_control.c **** 
 910:.\20648_driver\drivers/inv_mems_base_control.c **** #if (MEMS_CHIP != HW_ICM30630)
 911:.\20648_driver\drivers/inv_mems_base_control.c ****         case ANDROID_SENSOR_WAKEUP_STEP_DETECTOR:
 912:.\20648_driver\drivers/inv_mems_base_control.c ****         case ANDROID_SENSOR_WAKEUP_STEP_COUNTER:
 913:.\20648_driver\drivers/inv_mems_base_control.c ****         case ANDROID_SENSOR_WAKEUP_SIGNIFICANT_MOTION:
 914:.\20648_driver\drivers/inv_mems_base_control.c ****             *odr = inv_get_odr_in_units( inv_dmp_odr_dividers[INV_SENSOR_WAKEUP_STEP_COUNTER] , odr
 346              		.loc 1 914 0
 347 0090 1A4B     		ldr	r3, .L55
 348 0092 13E0     		b	.L54
 349              	.L46:
 915:.\20648_driver\drivers/inv_mems_base_control.c ****             break;
 916:.\20648_driver\drivers/inv_mems_base_control.c **** #endif
 917:.\20648_driver\drivers/inv_mems_base_control.c **** 
 918:.\20648_driver\drivers/inv_mems_base_control.c ****         case ANDROID_SENSOR_WAKEUP_GEOMAGNETIC_ROTATION_VECTOR:
 919:.\20648_driver\drivers/inv_mems_base_control.c ****             *odr = inv_get_odr_in_units( inv_dmp_odr_dividers[INV_SENSOR_WAKEUP_GEOMAG] , odr_units
 350              		.loc 1 919 0
 351 0094 194B     		ldr	r3, .L55
 352 0096 988E     		ldrh	r0, [r3, #52]
 353 0098 26E0     		b	.L53
 354              	.L47:
 920:.\20648_driver\drivers/inv_mems_base_control.c ****             break;
 921:.\20648_driver\drivers/inv_mems_base_control.c **** 
 922:.\20648_driver\drivers/inv_mems_base_control.c **** #if (MEMS_CHIP == HW_ICM20645_E || MEMS_CHIP == HW_ICM20648 )
 923:.\20648_driver\drivers/inv_mems_base_control.c ****         case ANDROID_SENSOR_WAKEUP_TILT_DETECTOR:
 924:.\20648_driver\drivers/inv_mems_base_control.c ****             *odr = inv_get_odr_in_units( inv_dmp_odr_dividers[INV_SENSOR_WAKEUP_TILT_DETECTOR] , od
 355              		.loc 1 924 0
 356 009a 184B     		ldr	r3, .L55
 357 009c 0233     		add	r3, r3, #2
 358 009e 0DE0     		b	.L54
 359              	.L48:
 925:.\20648_driver\drivers/inv_mems_base_control.c ****             break;
 926:.\20648_driver\drivers/inv_mems_base_control.c **** #endif
 927:.\20648_driver\drivers/inv_mems_base_control.c ****         case ANDROID_SENSOR_B2S:
 928:.\20648_driver\drivers/inv_mems_base_control.c ****             *odr = inv_get_odr_in_units( inv_dmp_odr_dividers[INV_SENSOR_BRING_TO_SEE] , odr_units 
 360              		.loc 1 928 0
 361 00a0 164B     		ldr	r3, .L55
 362 00a2 D88B     		ldrh	r0, [r3, #30]
 363 00a4 20E0     		b	.L53
 364              	.L45:
 929:.\20648_driver\drivers/inv_mems_base_control.c ****             break;
ARM GAS  C:\Users\ADMINI~1\AppData\Local\Temp\ccjTNAQQ.s 			page 24


 930:.\20648_driver\drivers/inv_mems_base_control.c **** 
 931:.\20648_driver\drivers/inv_mems_base_control.c ****         case ANDROID_SENSOR_WAKEUP_GYROSCOPE_UNCALIBRATED:
 932:.\20648_driver\drivers/inv_mems_base_control.c ****             *odr = inv_get_odr_in_units( inv_dmp_odr_dividers[INV_SENSOR_WAKEUP_GYRO] , odr_units )
 365              		.loc 1 932 0
 366 00a6 154B     		ldr	r3, .L55
 367 00a8 588D     		ldrh	r0, [r3, #42]
 368 00aa 1DE0     		b	.L53
 369              	.L40:
 933:.\20648_driver\drivers/inv_mems_base_control.c ****             break;
 934:.\20648_driver\drivers/inv_mems_base_control.c **** 
 935:.\20648_driver\drivers/inv_mems_base_control.c ****         case ANDROID_SENSOR_WAKEUP_GYROSCOPE:
 936:.\20648_driver\drivers/inv_mems_base_control.c ****             *odr = inv_get_odr_in_units( inv_dmp_odr_dividers[INV_SENSOR_WAKEUP_CALIB_GYRO] , odr_u
 370              		.loc 1 936 0
 371 00ac 134B     		ldr	r3, .L55
 372 00ae 588F     		ldrh	r0, [r3, #58]
 373 00b0 1AE0     		b	.L53
 374              	.L44:
 937:.\20648_driver\drivers/inv_mems_base_control.c ****             break;
 938:.\20648_driver\drivers/inv_mems_base_control.c **** 
 939:.\20648_driver\drivers/inv_mems_base_control.c ****         case ANDROID_SENSOR_WAKEUP_GAME_ROTATION_VECTOR:
 940:.\20648_driver\drivers/inv_mems_base_control.c ****             *odr = inv_get_odr_in_units( inv_dmp_odr_dividers[INV_SENSOR_WAKEUP_SIXQ] , odr_units )
 375              		.loc 1 940 0
 376 00b2 124B     		ldr	r3, .L55
 377 00b4 188E     		ldrh	r0, [r3, #48]
 378 00b6 17E0     		b	.L53
 379              	.L42:
 941:.\20648_driver\drivers/inv_mems_base_control.c ****             break;
 942:.\20648_driver\drivers/inv_mems_base_control.c **** 
 943:.\20648_driver\drivers/inv_mems_base_control.c ****         case ANDROID_SENSOR_WAKEUP_GRAVITY:
 944:.\20648_driver\drivers/inv_mems_base_control.c ****         case ANDROID_SENSOR_WAKEUP_LINEAR_ACCELERATION:
 945:.\20648_driver\drivers/inv_mems_base_control.c ****             *odr = inv_get_odr_in_units( inv_dmp_odr_dividers[INV_SENSOR_WAKEUP_SIXQ_accel] , odr_u
 380              		.loc 1 945 0
 381 00b8 104B     		ldr	r3, .L55
 382 00ba 0433     		add	r3, r3, #4
 383              	.L54:
 384 00bc D88F     		ldrh	r0, [r3, #62]
 385 00be 13E0     		b	.L53
 386              	.L39:
 946:.\20648_driver\drivers/inv_mems_base_control.c ****             break;
 947:.\20648_driver\drivers/inv_mems_base_control.c **** 
 948:.\20648_driver\drivers/inv_mems_base_control.c ****         case ANDROID_SENSOR_WAKEUP_ORIENTATION:
 949:.\20648_driver\drivers/inv_mems_base_control.c ****         case ANDROID_SENSOR_WAKEUP_ROTATION_VECTOR:
 950:.\20648_driver\drivers/inv_mems_base_control.c ****             *odr = inv_get_odr_in_units( inv_dmp_odr_dividers[INV_SENSOR_WAKEUP_NINEQ] , odr_units 
 387              		.loc 1 950 0
 388 00c0 0E4B     		ldr	r3, .L55
 389 00c2 588E     		ldrh	r0, [r3, #50]
 390 00c4 10E0     		b	.L53
 391              	.L43:
 951:.\20648_driver\drivers/inv_mems_base_control.c ****             break;
 952:.\20648_driver\drivers/inv_mems_base_control.c **** 
 953:.\20648_driver\drivers/inv_mems_base_control.c ****         case ANDROID_SENSOR_WAKEUP_MAGNETIC_FIELD_UNCALIBRATED:
 954:.\20648_driver\drivers/inv_mems_base_control.c ****             *odr = inv_get_odr_in_units( inv_dmp_odr_dividers[INV_SENSOR_WAKEUP_COMPASS] , odr_unit
 392              		.loc 1 954 0
 393 00c6 0D4B     		ldr	r3, .L55
 394 00c8 988D     		ldrh	r0, [r3, #44]
 395 00ca 0DE0     		b	.L53
 396              	.L38:
ARM GAS  C:\Users\ADMINI~1\AppData\Local\Temp\ccjTNAQQ.s 			page 25


 955:.\20648_driver\drivers/inv_mems_base_control.c ****             break;
 956:.\20648_driver\drivers/inv_mems_base_control.c **** 
 957:.\20648_driver\drivers/inv_mems_base_control.c ****         case ANDROID_SENSOR_WAKEUP_MAGNETIC_FIELD:
 958:.\20648_driver\drivers/inv_mems_base_control.c ****             *odr = inv_get_odr_in_units( inv_dmp_odr_dividers[INV_SENSOR_WAKEUP_CALIB_COMPASS] , od
 397              		.loc 1 958 0
 398 00cc 0B4B     		ldr	r3, .L55
 399 00ce 988F     		ldrh	r0, [r3, #60]
 400 00d0 0AE0     		b	.L53
 401              	.L30:
 959:.\20648_driver\drivers/inv_mems_base_control.c ****             break;
 960:.\20648_driver\drivers/inv_mems_base_control.c **** 
 961:.\20648_driver\drivers/inv_mems_base_control.c ****         case ANDROID_SENSOR_WAKEUP_LIGHT:
 962:.\20648_driver\drivers/inv_mems_base_control.c ****         case ANDROID_SENSOR_WAKEUP_PROXIMITY:
 963:.\20648_driver\drivers/inv_mems_base_control.c ****             *odr = inv_get_odr_in_units( inv_dmp_odr_dividers[INV_SENSOR_WAKEUP_ALS] , odr_units );
 402              		.loc 1 963 0
 403 00d2 0A4B     		ldr	r3, .L55
 404 00d4 D88D     		ldrh	r0, [r3, #46]
 405 00d6 07E0     		b	.L53
 406              	.L29:
 964:.\20648_driver\drivers/inv_mems_base_control.c ****             break;
 965:.\20648_driver\drivers/inv_mems_base_control.c **** 
 966:.\20648_driver\drivers/inv_mems_base_control.c ****         case ANDROID_SENSOR_PRESSURE:
 967:.\20648_driver\drivers/inv_mems_base_control.c ****             *odr = inv_get_odr_in_units( inv_dmp_odr_dividers[INV_SENSOR_PRESSURE] , odr_units );
 407              		.loc 1 967 0
 408 00d8 084B     		ldr	r3, .L55
 409 00da 588A     		ldrh	r0, [r3, #18]
 410 00dc 04E0     		b	.L53
 411              	.L41:
 968:.\20648_driver\drivers/inv_mems_base_control.c ****             break;
 969:.\20648_driver\drivers/inv_mems_base_control.c **** 
 970:.\20648_driver\drivers/inv_mems_base_control.c ****         case ANDROID_SENSOR_WAKEUP_PRESSURE:
 971:.\20648_driver\drivers/inv_mems_base_control.c ****             *odr = inv_get_odr_in_units( inv_dmp_odr_dividers[INV_SENSOR_WAKEUP_PRESSURE] , odr_uni
 412              		.loc 1 971 0
 413 00de 074B     		ldr	r3, .L55
 414 00e0 188F     		ldrh	r0, [r3, #56]
 415 00e2 01E0     		b	.L53
 416              	.L49:
 972:.\20648_driver\drivers/inv_mems_base_control.c ****             break;
 973:.\20648_driver\drivers/inv_mems_base_control.c **** 
 974:.\20648_driver\drivers/inv_mems_base_control.c ****         case ANDROID_SENSOR_FLIP_PICKUP:
 975:.\20648_driver\drivers/inv_mems_base_control.c ****             *odr = inv_get_odr_in_units( inv_dmp_odr_dividers[INV_SENSOR_FLIP_PICKUP] , odr_units )
 417              		.loc 1 975 0
 418 00e4 054B     		ldr	r3, .L55
 419 00e6 988B     		ldrh	r0, [r3, #28]
 420              	.L53:
 421 00e8 FFF7FEFF 		bl	inv_get_odr_in_units
 422              	.LVL26:
 423 00ec 2060     		str	r0, [r4]
 424 00ee 02E0     		b	.L52
 425              	.LVL27:
 426              	.L51:
 842:.\20648_driver\drivers/inv_mems_base_control.c ****        
 427              		.loc 1 842 0
 428 00f0 0120     		mov	r0, #1
 429              	.LVL28:
 430 00f2 4042     		neg	r0, r0
 431 00f4 00E0     		b	.L22
ARM GAS  C:\Users\ADMINI~1\AppData\Local\Temp\ccjTNAQQ.s 			page 26


 432              	.LVL29:
 433              	.L52:
 976:.\20648_driver\drivers/inv_mems_base_control.c ****             break;
 977:.\20648_driver\drivers/inv_mems_base_control.c **** 
 978:.\20648_driver\drivers/inv_mems_base_control.c ****         // not support yet
 979:.\20648_driver\drivers/inv_mems_base_control.c ****         case ANDROID_SENSOR_META_DATA:
 980:.\20648_driver\drivers/inv_mems_base_control.c ****         case ANDROID_SENSOR_TEMPERATURE:
 981:.\20648_driver\drivers/inv_mems_base_control.c ****         case ANDROID_SENSOR_AMBIENT_TEMPERATURE:
 982:.\20648_driver\drivers/inv_mems_base_control.c ****         case ANDROID_SENSOR_HUMIDITY:
 983:.\20648_driver\drivers/inv_mems_base_control.c ****         case ANDROID_SENSOR_HEART_RATE:
 984:.\20648_driver\drivers/inv_mems_base_control.c ****         case ANDROID_SENSOR_SCREEN_ROTATION:
 985:.\20648_driver\drivers/inv_mems_base_control.c ****         case ANDROID_SENSOR_WAKEUP_AMBIENT_TEMPERATURE:
 986:.\20648_driver\drivers/inv_mems_base_control.c ****         case ANDROID_SENSOR_WAKEUP_RELATIVE_HUMIDITY:
 987:.\20648_driver\drivers/inv_mems_base_control.c ****         case ANDROID_SENSOR_WAKEUP_HEART_RATE:
 988:.\20648_driver\drivers/inv_mems_base_control.c ****             *odr=0;
 989:.\20648_driver\drivers/inv_mems_base_control.c ****             break;
 990:.\20648_driver\drivers/inv_mems_base_control.c ****             
 991:.\20648_driver\drivers/inv_mems_base_control.c ****         default:
 992:.\20648_driver\drivers/inv_mems_base_control.c ****           *odr=0;
 993:.\20648_driver\drivers/inv_mems_base_control.c ****     } 
 994:.\20648_driver\drivers/inv_mems_base_control.c ****     
 995:.\20648_driver\drivers/inv_mems_base_control.c ****     return result;
 434              		.loc 1 995 0
 435 00f6 0020     		mov	r0, #0
 436              	.L22:
 996:.\20648_driver\drivers/inv_mems_base_control.c **** }
 437              		.loc 1 996 0
 438              		@ sp needed
 439              	.LVL30:
 440 00f8 10BD     		pop	{r4, pc}
 441              	.L56:
 442 00fa C046     		.align	2
 443              	.L55:
 444 00fc 00000000 		.word	.LANCHOR0
 445              		.cfi_endproc
 446              	.LFE8:
 447              		.size	inv_get_odr, .-inv_get_odr
 448              		.section	.text.inv_reGenerate_sensorControl,"ax",%progbits
 449              		.align	1
 450              		.global	inv_reGenerate_sensorControl
 451              		.code	16
 452              		.thumb_func
 453              		.type	inv_reGenerate_sensorControl, %function
 454              	inv_reGenerate_sensorControl:
 455              	.LFB9:
 997:.\20648_driver\drivers/inv_mems_base_control.c **** 
 998:.\20648_driver\drivers/inv_mems_base_control.c **** void inv_reGenerate_sensorControl(const short *sen_num_2_ctrl, unsigned short *sensor_control)
 999:.\20648_driver\drivers/inv_mems_base_control.c **** {
 456              		.loc 1 999 0
 457              		.cfi_startproc
 458              	.LVL31:
1000:.\20648_driver\drivers/inv_mems_base_control.c ****     short delta;
1001:.\20648_driver\drivers/inv_mems_base_control.c ****     int i, cntr;
1002:.\20648_driver\drivers/inv_mems_base_control.c ****     unsigned long tmp_androidSensorsOn_mask;
1003:.\20648_driver\drivers/inv_mems_base_control.c **** 
1004:.\20648_driver\drivers/inv_mems_base_control.c **** 	*sensor_control = 0;
 459              		.loc 1 1004 0
ARM GAS  C:\Users\ADMINI~1\AppData\Local\Temp\ccjTNAQQ.s 			page 27


 460 0000 0023     		mov	r3, #0
 999:.\20648_driver\drivers/inv_mems_base_control.c ****     short delta;
 461              		.loc 1 999 0
 462 0002 70B5     		push	{r4, r5, r6, lr}
 463              		.cfi_def_cfa_offset 16
 464              		.cfi_offset 4, -16
 465              		.cfi_offset 5, -12
 466              		.cfi_offset 6, -8
 467              		.cfi_offset 14, -4
 468              		.loc 1 1004 0
 469 0004 0B80     		strh	r3, [r1]
 470              	.LVL32:
 471              	.L61:
1005:.\20648_driver\drivers/inv_mems_base_control.c **** 	for (i = 0; i < 2; i++) {		
1006:.\20648_driver\drivers/inv_mems_base_control.c **** 		cntr = 32 * i;
1007:.\20648_driver\drivers/inv_mems_base_control.c **** 		tmp_androidSensorsOn_mask = inv_androidSensorsOn_mask[i];
 472              		.loc 1 1007 0
 473 0006 0B4A     		ldr	r2, .L69
 474 0008 4C32     		add	r2, r2, #76
 475 000a 9C58     		ldr	r4, [r3, r2]
 476              	.LVL33:
 477 000c 1A01     		lsl	r2, r3, #4
 478 000e 8218     		add	r2, r0, r2
 479              	.LVL34:
 480              	.L58:
1008:.\20648_driver\drivers/inv_mems_base_control.c **** 		while (tmp_androidSensorsOn_mask) {
 481              		.loc 1 1008 0
 482 0010 002C     		cmp	r4, #0
 483 0012 0BD0     		beq	.L68
1009:.\20648_driver\drivers/inv_mems_base_control.c **** 			if (tmp_androidSensorsOn_mask & 1) {
 484              		.loc 1 1009 0
 485 0014 E507     		lsl	r5, r4, #31
 486 0016 06D5     		bpl	.L59
1010:.\20648_driver\drivers/inv_mems_base_control.c **** 				delta = sen_num_2_ctrl[cntr];
 487              		.loc 1 1010 0
 488 0018 1688     		ldrh	r6, [r2]
 489              	.LVL35:
1011:.\20648_driver\drivers/inv_mems_base_control.c **** 				if (delta != -1) *sensor_control |= delta;
 490              		.loc 1 1011 0
 491 001a 35B2     		sxth	r5, r6
 492 001c 0135     		add	r5, r5, #1
 493 001e 02D0     		beq	.L59
 494              		.loc 1 1011 0 is_stmt 0 discriminator 1
 495 0020 0D88     		ldrh	r5, [r1]
 496 0022 3543     		orr	r5, r6
 497 0024 0D80     		strh	r5, [r1]
 498              	.LVL36:
 499              	.L59:
1012:.\20648_driver\drivers/inv_mems_base_control.c **** 			}
1013:.\20648_driver\drivers/inv_mems_base_control.c **** 			tmp_androidSensorsOn_mask >>= 1;
 500              		.loc 1 1013 0 is_stmt 1
 501 0026 6408     		lsr	r4, r4, #1
 502              	.LVL37:
 503 0028 0232     		add	r2, r2, #2
 504 002a F1E7     		b	.L58
 505              	.L68:
 506 002c 0433     		add	r3, r3, #4
ARM GAS  C:\Users\ADMINI~1\AppData\Local\Temp\ccjTNAQQ.s 			page 28


1005:.\20648_driver\drivers/inv_mems_base_control.c **** 		cntr = 32 * i;
 507              		.loc 1 1005 0 discriminator 2
 508 002e 082B     		cmp	r3, #8
 509 0030 E9D1     		bne	.L61
1014:.\20648_driver\drivers/inv_mems_base_control.c **** 			cntr++;
1015:.\20648_driver\drivers/inv_mems_base_control.c **** 		}
1016:.\20648_driver\drivers/inv_mems_base_control.c **** 	}
1017:.\20648_driver\drivers/inv_mems_base_control.c **** }
 510              		.loc 1 1017 0
 511              		@ sp needed
 512              	.LVL38:
 513 0032 70BD     		pop	{r4, r5, r6, pc}
 514              	.L70:
 515              		.align	2
 516              	.L69:
 517 0034 00000000 		.word	.LANCHOR0
 518              		.cfi_endproc
 519              	.LFE9:
 520              		.size	inv_reGenerate_sensorControl, .-inv_reGenerate_sensorControl
 521              		.section	.text.inv_is_gyro_enabled,"ax",%progbits
 522              		.align	1
 523              		.global	inv_is_gyro_enabled
 524              		.code	16
 525              		.thumb_func
 526              		.type	inv_is_gyro_enabled, %function
 527              	inv_is_gyro_enabled:
 528              	.LFB11:
1018:.\20648_driver\drivers/inv_mems_base_control.c **** 
1019:.\20648_driver\drivers/inv_mems_base_control.c **** /** Computes the sensor control register that needs to be sent to the DMP
1020:.\20648_driver\drivers/inv_mems_base_control.c **** * @param[in] androidSensor A sensor number, the numbers correspond to sensors.h definition in Andro
1021:.\20648_driver\drivers/inv_mems_base_control.c **** * @param[in] enable non-zero to turn sensor on, 0 to turn sensor off
1022:.\20648_driver\drivers/inv_mems_base_control.c **** * @param[in] sen_num_2_ctrl Table matching android sensor number to bits in DMP control register
1023:.\20648_driver\drivers/inv_mems_base_control.c **** * @param[in,out] sensor_control Sensor control register to write to DMP to enable/disable sensors
1024:.\20648_driver\drivers/inv_mems_base_control.c **** */
1025:.\20648_driver\drivers/inv_mems_base_control.c **** static void inv_convert_androidSensor_to_control(unsigned char androidSensor, unsigned char enable,
1026:.\20648_driver\drivers/inv_mems_base_control.c **** {
1027:.\20648_driver\drivers/inv_mems_base_control.c ****     short delta = 0;
1028:.\20648_driver\drivers/inv_mems_base_control.c **** 
1029:.\20648_driver\drivers/inv_mems_base_control.c **** #if (MEMS_CHIP == HW_ICM20645_E)
1030:.\20648_driver\drivers/inv_mems_base_control.c **** 	if (androidSensor == ANDROID_SENSOR_ACTIVITY_CLASSIFICATON || androidSensor == ANDROID_SENSOR_FLIP
1031:.\20648_driver\drivers/inv_mems_base_control.c **** 		if (enable)
1032:.\20648_driver\drivers/inv_mems_base_control.c **** 			*sensor_control |= HEADER2_SET;
1033:.\20648_driver\drivers/inv_mems_base_control.c **** 		else
1034:.\20648_driver\drivers/inv_mems_base_control.c **** 			// control has to be regenerated when removing sensors because of overlap
1035:.\20648_driver\drivers/inv_mems_base_control.c **** 			inv_reGenerate_sensorControl(sen_num_2_ctrl, sensor_control);
1036:.\20648_driver\drivers/inv_mems_base_control.c **** 
1037:.\20648_driver\drivers/inv_mems_base_control.c **** 		if (bac_status || flip_pickup_status)
1038:.\20648_driver\drivers/inv_mems_base_control.c **** 			*sensor_control |= HEADER2_SET;
1039:.\20648_driver\drivers/inv_mems_base_control.c **** 	}
1040:.\20648_driver\drivers/inv_mems_base_control.c **** #endif
1041:.\20648_driver\drivers/inv_mems_base_control.c ****     
1042:.\20648_driver\drivers/inv_mems_base_control.c **** #if (MEMS_CHIP == HW_ICM30630)
1043:.\20648_driver\drivers/inv_mems_base_control.c **** 	if (androidSensor == ANDROID_SENSOR_FLIP_PICKUP) {
1044:.\20648_driver\drivers/inv_mems_base_control.c **** 		if (enable)
1045:.\20648_driver\drivers/inv_mems_base_control.c **** 			*sensor_control |= HEADER2_SET;
1046:.\20648_driver\drivers/inv_mems_base_control.c **** 		else
1047:.\20648_driver\drivers/inv_mems_base_control.c **** 			// control has to be regenerated when removing sensors because of overlap
ARM GAS  C:\Users\ADMINI~1\AppData\Local\Temp\ccjTNAQQ.s 			page 29


1048:.\20648_driver\drivers/inv_mems_base_control.c **** 			inv_reGenerate_sensorControl(sen_num_2_ctrl, sensor_control);
1049:.\20648_driver\drivers/inv_mems_base_control.c **** 
1050:.\20648_driver\drivers/inv_mems_base_control.c **** 		if (flip_pickup_status)
1051:.\20648_driver\drivers/inv_mems_base_control.c **** 			*sensor_control |= HEADER2_SET;
1052:.\20648_driver\drivers/inv_mems_base_control.c **** 	}
1053:.\20648_driver\drivers/inv_mems_base_control.c **** #endif
1054:.\20648_driver\drivers/inv_mems_base_control.c ****     
1055:.\20648_driver\drivers/inv_mems_base_control.c **** #if (MEMS_CHIP == HW_ICM20645_E || MEMS_CHIP == HW_ICM20648)
1056:.\20648_driver\drivers/inv_mems_base_control.c **** 	if (bac_status || flip_pickup_status)
1057:.\20648_driver\drivers/inv_mems_base_control.c **** 		*sensor_control |= HEADER2_SET;
1058:.\20648_driver\drivers/inv_mems_base_control.c **** #endif
1059:.\20648_driver\drivers/inv_mems_base_control.c **** 
1060:.\20648_driver\drivers/inv_mems_base_control.c ****     if (androidSensor >= ANDROID_SENSOR_NUM_MAX)
1061:.\20648_driver\drivers/inv_mems_base_control.c ****         return; // Sensor not supported
1062:.\20648_driver\drivers/inv_mems_base_control.c ****     
1063:.\20648_driver\drivers/inv_mems_base_control.c ****     delta = sen_num_2_ctrl[androidSensor];
1064:.\20648_driver\drivers/inv_mems_base_control.c ****     if (delta == -1)
1065:.\20648_driver\drivers/inv_mems_base_control.c ****         return; // This sensor not supported
1066:.\20648_driver\drivers/inv_mems_base_control.c **** 
1067:.\20648_driver\drivers/inv_mems_base_control.c ****     if (enable) {
1068:.\20648_driver\drivers/inv_mems_base_control.c ****         inv_androidSensorsOn_mask[(androidSensor>>5)] |= 1L << (androidSensor & 0x1F); // Set bit
1069:.\20648_driver\drivers/inv_mems_base_control.c ****         *sensor_control |= delta;
1070:.\20648_driver\drivers/inv_mems_base_control.c ****     } else {
1071:.\20648_driver\drivers/inv_mems_base_control.c ****         inv_androidSensorsOn_mask[(androidSensor>>5)] &= ~(1L << (androidSensor & 0x1F)); // Clear 
1072:.\20648_driver\drivers/inv_mems_base_control.c **** 		// control has to be regenerated when removing sensors because of overlap
1073:.\20648_driver\drivers/inv_mems_base_control.c **** 		inv_reGenerate_sensorControl(sen_num_2_ctrl, sensor_control);
1074:.\20648_driver\drivers/inv_mems_base_control.c **** 	}
1075:.\20648_driver\drivers/inv_mems_base_control.c ****     
1076:.\20648_driver\drivers/inv_mems_base_control.c **** #if (MEMS_CHIP == HW_ICM30630)
1077:.\20648_driver\drivers/inv_mems_base_control.c **** 	if (flip_pickup_status)
1078:.\20648_driver\drivers/inv_mems_base_control.c **** 		*sensor_control |= HEADER2_SET;
1079:.\20648_driver\drivers/inv_mems_base_control.c **** #endif
1080:.\20648_driver\drivers/inv_mems_base_control.c **** 
1081:.\20648_driver\drivers/inv_mems_base_control.c ****     return;
1082:.\20648_driver\drivers/inv_mems_base_control.c **** }
1083:.\20648_driver\drivers/inv_mems_base_control.c **** 
1084:.\20648_driver\drivers/inv_mems_base_control.c **** // return true 1 if gyro was enabled, otherwise false 0
1085:.\20648_driver\drivers/inv_mems_base_control.c **** unsigned char inv_is_gyro_enabled(void)
1086:.\20648_driver\drivers/inv_mems_base_control.c **** {
 529              		.loc 1 1086 0
 530              		.cfi_startproc
1087:.\20648_driver\drivers/inv_mems_base_control.c ****   if ((inv_androidSensorsOn_mask[0] & INV_NEEDS_GYRO_MASK) || (inv_androidSensorsOn_mask[1] & INV_N
 531              		.loc 1 1087 0
 532 0000 064B     		ldr	r3, .L74
 533 0002 074A     		ldr	r2, .L74+4
 534 0004 D96C     		ldr	r1, [r3, #76]
1088:.\20648_driver\drivers/inv_mems_base_control.c ****     return 1;
 535              		.loc 1 1088 0
 536 0006 0120     		mov	r0, #1
1087:.\20648_driver\drivers/inv_mems_base_control.c ****   if ((inv_androidSensorsOn_mask[0] & INV_NEEDS_GYRO_MASK) || (inv_androidSensorsOn_mask[1] & INV_N
 537              		.loc 1 1087 0
 538 0008 1142     		tst	r1, r2
 539 000a 05D1     		bne	.L72
1087:.\20648_driver\drivers/inv_mems_base_control.c ****   if ((inv_androidSensorsOn_mask[0] & INV_NEEDS_GYRO_MASK) || (inv_androidSensorsOn_mask[1] & INV_N
 540              		.loc 1 1087 0 is_stmt 0 discriminator 1
 541 000c 186D     		ldr	r0, [r3, #80]
 542 000e 1823     		mov	r3, #24
ARM GAS  C:\Users\ADMINI~1\AppData\Local\Temp\ccjTNAQQ.s 			page 30


 543 0010 1840     		and	r0, r3
 544 0012 431E     		sub	r3, r0, #1
 545 0014 9841     		sbc	r0, r0, r3
 546              		.loc 1 1088 0 is_stmt 1 discriminator 1
 547 0016 C0B2     		uxtb	r0, r0
 548              	.L72:
1089:.\20648_driver\drivers/inv_mems_base_control.c ****   return 0;
1090:.\20648_driver\drivers/inv_mems_base_control.c **** }
 549              		.loc 1 1090 0
 550              		@ sp needed
 551 0018 7047     		bx	lr
 552              	.L75:
 553 001a C046     		.align	2
 554              	.L74:
 555 001c 00000000 		.word	.LANCHOR0
 556 0020 188E01E6 		.word	-436105704
 557              		.cfi_endproc
 558              	.LFE11:
 559              		.size	inv_is_gyro_enabled, .-inv_is_gyro_enabled
 560              		.section	.text.inv_enable_activity_classifier,"ax",%progbits
 561              		.align	1
 562              		.global	inv_enable_activity_classifier
 563              		.code	16
 564              		.thumb_func
 565              		.type	inv_enable_activity_classifier, %function
 566              	inv_enable_activity_classifier:
 567              	.LFB14:
1091:.\20648_driver\drivers/inv_mems_base_control.c **** 
1092:.\20648_driver\drivers/inv_mems_base_control.c **** inv_error_t inv_enable_sensor(unsigned char androidSensor, unsigned char enable)
1093:.\20648_driver\drivers/inv_mems_base_control.c **** {
1094:.\20648_driver\drivers/inv_mems_base_control.c ****     inv_error_t result = 0;
1095:.\20648_driver\drivers/inv_mems_base_control.c **** #if (MEMS_CHIP == HW_ICM30630)
1096:.\20648_driver\drivers/inv_mems_base_control.c ****     static unsigned char sGyroIsOn = 0;
1097:.\20648_driver\drivers/inv_mems_base_control.c ****     static unsigned char sGrvIsOn  = 0;
1098:.\20648_driver\drivers/inv_mems_base_control.c **** #endif
1099:.\20648_driver\drivers/inv_mems_base_control.c **** 
1100:.\20648_driver\drivers/inv_mems_base_control.c **** 	// Fixes #5227 : The very first sensor on/off is not working
1101:.\20648_driver\drivers/inv_mems_base_control.c **** 	// 1 because mems is considered in sleep by default
1102:.\20648_driver\drivers/inv_mems_base_control.c **** 	// BEfore it was 0, it was why the first reg write was not taken in account !!!
1103:.\20648_driver\drivers/inv_mems_base_control.c **** 	static char mems_put_to_sleep = 1;  
1104:.\20648_driver\drivers/inv_mems_base_control.c **** 	
1105:.\20648_driver\drivers/inv_mems_base_control.c **** #if defined MEMS_SECONDARY_DEVICE
1106:.\20648_driver\drivers/inv_mems_base_control.c **** 	if(sensor_needs_compass(androidSensor))
1107:.\20648_driver\drivers/inv_mems_base_control.c **** 		if(!inv_mems_get_compass_availability())
1108:.\20648_driver\drivers/inv_mems_base_control.c **** 			return INV_ERROR_INVALID_PARAMETER;
1109:.\20648_driver\drivers/inv_mems_base_control.c **** 	if(sensor_needs_pressure(androidSensor))
1110:.\20648_driver\drivers/inv_mems_base_control.c **** 		if(!inv_mems_get_pressure_availability())
1111:.\20648_driver\drivers/inv_mems_base_control.c **** 			return INV_ERROR_INVALID_PARAMETER;
1112:.\20648_driver\drivers/inv_mems_base_control.c **** #endif
1113:.\20648_driver\drivers/inv_mems_base_control.c **** 
1114:.\20648_driver\drivers/inv_mems_base_control.c **** 	inv_mems_prevent_lpen_control();
1115:.\20648_driver\drivers/inv_mems_base_control.c **** 	if( mems_put_to_sleep ) {
1116:.\20648_driver\drivers/inv_mems_base_control.c **** 		mems_put_to_sleep = 0;
1117:.\20648_driver\drivers/inv_mems_base_control.c **** 		result |= inv_wakeup_mems();
1118:.\20648_driver\drivers/inv_mems_base_control.c **** 	}
1119:.\20648_driver\drivers/inv_mems_base_control.c **** 
1120:.\20648_driver\drivers/inv_mems_base_control.c **** #if (MEMS_CHIP == HW_ICM30630)
ARM GAS  C:\Users\ADMINI~1\AppData\Local\Temp\ccjTNAQQ.s 			page 31


1121:.\20648_driver\drivers/inv_mems_base_control.c ****     if ( (androidSensor == ANDROID_SENSOR_GEOMAGNETIC_ROTATION_VECTOR) || (androidSensor == ANDROID
1122:.\20648_driver\drivers/inv_mems_base_control.c ****     {
1123:.\20648_driver\drivers/inv_mems_base_control.c ****         sGmrvIsOn = enable;
1124:.\20648_driver\drivers/inv_mems_base_control.c ****         if (enable) {
1125:.\20648_driver\drivers/inv_mems_base_control.c ****             if ( sGyroIsOn || sGrvIsOn )
1126:.\20648_driver\drivers/inv_mems_base_control.c ****                 // enable GMRV while one of gyro based sensor already ON
1127:.\20648_driver\drivers/inv_mems_base_control.c ****                 // enable internally GRV instead of GMRV
1128:.\20648_driver\drivers/inv_mems_base_control.c ****                 result |= inv_enable_sensor_internal(ANDROID_SENSOR_GAME_ROTATION_VECTOR, 1, &mems_
1129:.\20648_driver\drivers/inv_mems_base_control.c ****             else
1130:.\20648_driver\drivers/inv_mems_base_control.c ****                 // enable GMRV and no gyro based sensor already ON
1131:.\20648_driver\drivers/inv_mems_base_control.c ****                 // enable internally GMRV
1132:.\20648_driver\drivers/inv_mems_base_control.c ****                 result |= inv_enable_sensor_internal(ANDROID_SENSOR_GEOMAGNETIC_ROTATION_VECTOR, 1,
1133:.\20648_driver\drivers/inv_mems_base_control.c ****         } else {
1134:.\20648_driver\drivers/inv_mems_base_control.c ****             if ( ! (sGyroIsOn || sGrvIsOn)  )
1135:.\20648_driver\drivers/inv_mems_base_control.c ****                 // disable GMRV and no gyro based sensor is ON
1136:.\20648_driver\drivers/inv_mems_base_control.c ****                 // disable internally GMRV
1137:.\20648_driver\drivers/inv_mems_base_control.c ****                 result |= inv_enable_sensor_internal(ANDROID_SENSOR_GEOMAGNETIC_ROTATION_VECTOR, 0,
1138:.\20648_driver\drivers/inv_mems_base_control.c ****             // else disable GMRV but one gyro based sensor still ON so keep internally GRV ON => no
1139:.\20648_driver\drivers/inv_mems_base_control.c ****         }
1140:.\20648_driver\drivers/inv_mems_base_control.c ****         return result;
1141:.\20648_driver\drivers/inv_mems_base_control.c ****     }
1142:.\20648_driver\drivers/inv_mems_base_control.c ****     
1143:.\20648_driver\drivers/inv_mems_base_control.c ****     if ( (androidSensor == ANDROID_SENSOR_GYROSCOPE_UNCALIBRATED) || (androidSensor == ANDROID_SENS
1144:.\20648_driver\drivers/inv_mems_base_control.c ****     {
1145:.\20648_driver\drivers/inv_mems_base_control.c ****         sGyroIsOn = enable;
1146:.\20648_driver\drivers/inv_mems_base_control.c ****         if (enable) {
1147:.\20648_driver\drivers/inv_mems_base_control.c ****             if (sGmrvIsOn) {
1148:.\20648_driver\drivers/inv_mems_base_control.c ****                 // enable gyro while GMRV already on
1149:.\20648_driver\drivers/inv_mems_base_control.c ****                 // enable internally GRV instead of GMRV
1150:.\20648_driver\drivers/inv_mems_base_control.c ****                 result |= inv_enable_sensor_internal(ANDROID_SENSOR_GEOMAGNETIC_ROTATION_VECTOR, 0,
1151:.\20648_driver\drivers/inv_mems_base_control.c ****                 result |= inv_enable_sensor_internal(ANDROID_SENSOR_GAME_ROTATION_VECTOR, 1, &mems_
1152:.\20648_driver\drivers/inv_mems_base_control.c ****             }
1153:.\20648_driver\drivers/inv_mems_base_control.c ****             // else enable gyro and no GMRV already ON => nothing to do
1154:.\20648_driver\drivers/inv_mems_base_control.c ****         } else {
1155:.\20648_driver\drivers/inv_mems_base_control.c ****             if ( sGmrvIsOn )
1156:.\20648_driver\drivers/inv_mems_base_control.c ****                 // disable gyro while GMRV still on
1157:.\20648_driver\drivers/inv_mems_base_control.c ****                 if ( !sGrvIsOn ) {
1158:.\20648_driver\drivers/inv_mems_base_control.c ****                     // if GRV also OFF, disable internally GRV and enable internally GMRV instead
1159:.\20648_driver\drivers/inv_mems_base_control.c ****                     result |= inv_enable_sensor_internal(ANDROID_SENSOR_GAME_ROTATION_VECTOR, 0, &m
1160:.\20648_driver\drivers/inv_mems_base_control.c ****                     result |= inv_enable_sensor_internal(ANDROID_SENSOR_GEOMAGNETIC_ROTATION_VECTOR
1161:.\20648_driver\drivers/inv_mems_base_control.c ****                 }
1162:.\20648_driver\drivers/inv_mems_base_control.c ****                 // else if GRV is still ON, enable internally GRV instead of GMRV => nothing to do
1163:.\20648_driver\drivers/inv_mems_base_control.c ****             // else disable gyro and no GMRV is ON => nothing to do
1164:.\20648_driver\drivers/inv_mems_base_control.c ****         }
1165:.\20648_driver\drivers/inv_mems_base_control.c ****         
1166:.\20648_driver\drivers/inv_mems_base_control.c ****     }
1167:.\20648_driver\drivers/inv_mems_base_control.c ****     
1168:.\20648_driver\drivers/inv_mems_base_control.c ****     if ( (androidSensor == ANDROID_SENSOR_GAME_ROTATION_VECTOR) || (androidSensor == ANDROID_SENSOR
1169:.\20648_driver\drivers/inv_mems_base_control.c ****     {
1170:.\20648_driver\drivers/inv_mems_base_control.c ****         sGrvIsOn = enable;
1171:.\20648_driver\drivers/inv_mems_base_control.c ****         if (enable) {
1172:.\20648_driver\drivers/inv_mems_base_control.c ****             if ( sGmrvIsOn ) {
1173:.\20648_driver\drivers/inv_mems_base_control.c ****                 // enable GRV while GMRV already on
1174:.\20648_driver\drivers/inv_mems_base_control.c ****                 // enable internally GRV instead of GMRV
1175:.\20648_driver\drivers/inv_mems_base_control.c ****                 result |= inv_enable_sensor_internal(ANDROID_SENSOR_GEOMAGNETIC_ROTATION_VECTOR, 0,
1176:.\20648_driver\drivers/inv_mems_base_control.c ****             }
1177:.\20648_driver\drivers/inv_mems_base_control.c ****             // else enable GRV and no GMRV already ON
ARM GAS  C:\Users\ADMINI~1\AppData\Local\Temp\ccjTNAQQ.s 			page 32


1178:.\20648_driver\drivers/inv_mems_base_control.c ****             
1179:.\20648_driver\drivers/inv_mems_base_control.c ****             result |= inv_enable_sensor_internal(ANDROID_SENSOR_GAME_ROTATION_VECTOR, 1, &mems_put_
1180:.\20648_driver\drivers/inv_mems_base_control.c ****         } else {
1181:.\20648_driver\drivers/inv_mems_base_control.c ****             if ( sGmrvIsOn ) {
1182:.\20648_driver\drivers/inv_mems_base_control.c ****                 // disable GRV while GMRV still on
1183:.\20648_driver\drivers/inv_mems_base_control.c ****                 if ( ! sGyroIsOn ) {
1184:.\20648_driver\drivers/inv_mems_base_control.c ****                     // if gyro also OFF, disable internally GRV and enable internally GMRV instead
1185:.\20648_driver\drivers/inv_mems_base_control.c ****                     result |= inv_enable_sensor_internal(ANDROID_SENSOR_GAME_ROTATION_VECTOR, 0, &m
1186:.\20648_driver\drivers/inv_mems_base_control.c ****                     result |= inv_enable_sensor_internal(ANDROID_SENSOR_GEOMAGNETIC_ROTATION_VECTOR
1187:.\20648_driver\drivers/inv_mems_base_control.c ****                 }
1188:.\20648_driver\drivers/inv_mems_base_control.c ****                 // else if gyro is still ON, enable internally GRV instead of GMRV => nothing to do
1189:.\20648_driver\drivers/inv_mems_base_control.c ****             } else {
1190:.\20648_driver\drivers/inv_mems_base_control.c ****                 // disable GRV and no GMRV is ON
1191:.\20648_driver\drivers/inv_mems_base_control.c ****                 result |= inv_enable_sensor_internal(ANDROID_SENSOR_GAME_ROTATION_VECTOR, 0, &mems_
1192:.\20648_driver\drivers/inv_mems_base_control.c ****             }
1193:.\20648_driver\drivers/inv_mems_base_control.c ****             
1194:.\20648_driver\drivers/inv_mems_base_control.c ****         }
1195:.\20648_driver\drivers/inv_mems_base_control.c ****         return result;
1196:.\20648_driver\drivers/inv_mems_base_control.c ****     }
1197:.\20648_driver\drivers/inv_mems_base_control.c **** #endif
1198:.\20648_driver\drivers/inv_mems_base_control.c **** 
1199:.\20648_driver\drivers/inv_mems_base_control.c ****     result |= inv_enable_sensor_internal(androidSensor, enable, &mems_put_to_sleep);
1200:.\20648_driver\drivers/inv_mems_base_control.c ****     
1201:.\20648_driver\drivers/inv_mems_base_control.c **** 	inv_mems_allow_lpen_control();
1202:.\20648_driver\drivers/inv_mems_base_control.c ****     return result;
1203:.\20648_driver\drivers/inv_mems_base_control.c **** }
1204:.\20648_driver\drivers/inv_mems_base_control.c **** 
1205:.\20648_driver\drivers/inv_mems_base_control.c **** static inv_error_t inv_enable_sensor_internal(unsigned char androidSensor, unsigned char enable, ch
1206:.\20648_driver\drivers/inv_mems_base_control.c **** {
1207:.\20648_driver\drivers/inv_mems_base_control.c ****     inv_error_t result = 0;
1208:.\20648_driver\drivers/inv_mems_base_control.c ****     unsigned short inv_event_control = 0;
1209:.\20648_driver\drivers/inv_mems_base_control.c **** #if (MEMS_CHIP != HW_ICM30630)
1210:.\20648_driver\drivers/inv_mems_base_control.c ****     static unsigned short smd_status = 0;
1211:.\20648_driver\drivers/inv_mems_base_control.c ****     static unsigned short ped_int_status = 0;
1212:.\20648_driver\drivers/inv_mems_base_control.c **** #endif
1213:.\20648_driver\drivers/inv_mems_base_control.c ****     unsigned short data_rdy_status = 0;
1214:.\20648_driver\drivers/inv_mems_base_control.c **** 
1215:.\20648_driver\drivers/inv_mems_base_control.c **** 	unsigned long steps=0;
1216:.\20648_driver\drivers/inv_mems_base_control.c ****     
1217:.\20648_driver\drivers/inv_mems_base_control.c **** #if (MEMS_CHIP != HW_ICM30630)
1218:.\20648_driver\drivers/inv_mems_base_control.c ****     if (androidSensor == ANDROID_SENSOR_WAKEUP_SIGNIFICANT_MOTION) {
1219:.\20648_driver\drivers/inv_mems_base_control.c ****         if (enable)
1220:.\20648_driver\drivers/inv_mems_base_control.c ****             smd_status = INV_SMD_EN;
1221:.\20648_driver\drivers/inv_mems_base_control.c ****         else
1222:.\20648_driver\drivers/inv_mems_base_control.c ****             smd_status = 0;
1223:.\20648_driver\drivers/inv_mems_base_control.c ****     }
1224:.\20648_driver\drivers/inv_mems_base_control.c **** 
1225:.\20648_driver\drivers/inv_mems_base_control.c ****     if (androidSensor == ANDROID_SENSOR_STEP_DETECTOR) {
1226:.\20648_driver\drivers/inv_mems_base_control.c ****         if (enable)
1227:.\20648_driver\drivers/inv_mems_base_control.c ****             ped_int_status = INV_PEDOMETER_INT_EN;
1228:.\20648_driver\drivers/inv_mems_base_control.c ****         else
1229:.\20648_driver\drivers/inv_mems_base_control.c ****             ped_int_status = 0;
1230:.\20648_driver\drivers/inv_mems_base_control.c ****     }
1231:.\20648_driver\drivers/inv_mems_base_control.c **** #endif
1232:.\20648_driver\drivers/inv_mems_base_control.c **** 
1233:.\20648_driver\drivers/inv_mems_base_control.c **** #if (MEMS_CHIP == HW_ICM30630 || MEMS_CHIP == HW_ICM20645_E || MEMS_CHIP == HW_ICM20648)
1234:.\20648_driver\drivers/inv_mems_base_control.c ****     if (androidSensor == ANDROID_SENSOR_FLIP_PICKUP) {
ARM GAS  C:\Users\ADMINI~1\AppData\Local\Temp\ccjTNAQQ.s 			page 33


1235:.\20648_driver\drivers/inv_mems_base_control.c ****       if (enable){          
1236:.\20648_driver\drivers/inv_mems_base_control.c ****             flip_pickup_status = FLIP_PICKUP_SET;
1237:.\20648_driver\drivers/inv_mems_base_control.c ****             // 5061-add-call to reset flip pickup parameters here
1238:.\20648_driver\drivers/inv_mems_base_control.c ****             dmp_reset_pickup();
1239:.\20648_driver\drivers/inv_mems_base_control.c ****       }
1240:.\20648_driver\drivers/inv_mems_base_control.c ****         else
1241:.\20648_driver\drivers/inv_mems_base_control.c ****             flip_pickup_status = 0;
1242:.\20648_driver\drivers/inv_mems_base_control.c ****     }
1243:.\20648_driver\drivers/inv_mems_base_control.c **** 
1244:.\20648_driver\drivers/inv_mems_base_control.c ****     if (androidSensor == ANDROID_SENSOR_B2S) {
1245:.\20648_driver\drivers/inv_mems_base_control.c ****         if(enable)
1246:.\20648_driver\drivers/inv_mems_base_control.c ****             b2s_status = INV_BTS_EN;
1247:.\20648_driver\drivers/inv_mems_base_control.c ****         else
1248:.\20648_driver\drivers/inv_mems_base_control.c ****             b2s_status = 0;
1249:.\20648_driver\drivers/inv_mems_base_control.c ****     }
1250:.\20648_driver\drivers/inv_mems_base_control.c **** #endif
1251:.\20648_driver\drivers/inv_mems_base_control.c **** 
1252:.\20648_driver\drivers/inv_mems_base_control.c **** #if (MEMS_CHIP == HW_ICM20645_E || MEMS_CHIP == HW_ICM20648 )
1253:.\20648_driver\drivers/inv_mems_base_control.c ****     if (androidSensor == ANDROID_SENSOR_ACTIVITY_CLASSIFICATON)
1254:.\20648_driver\drivers/inv_mems_base_control.c ****         inv_enable_activity_classifier(enable);
1255:.\20648_driver\drivers/inv_mems_base_control.c **** 
1256:.\20648_driver\drivers/inv_mems_base_control.c ****     if (androidSensor == ANDROID_SENSOR_WAKEUP_TILT_DETECTOR)
1257:.\20648_driver\drivers/inv_mems_base_control.c ****         inv_enable_tilt(enable);
1258:.\20648_driver\drivers/inv_mems_base_control.c **** #endif
1259:.\20648_driver\drivers/inv_mems_base_control.c **** 
1260:.\20648_driver\drivers/inv_mems_base_control.c ****     inv_convert_androidSensor_to_control(androidSensor, enable,
1261:.\20648_driver\drivers/inv_mems_base_control.c ****         inv_androidSensor_to_control_bits, &inv_sensor_control);
1262:.\20648_driver\drivers/inv_mems_base_control.c **** #if (MEMS_CHIP == HW_ICM30630)
1263:.\20648_driver\drivers/inv_mems_base_control.c ****     // For 30630, raw gyro and gyro bias are sent out by turning on GYRO_SET
1264:.\20648_driver\drivers/inv_mems_base_control.c ****     // So to calculate calibrated gyro, GYRO_SET needs to be turned on, too
1265:.\20648_driver\drivers/inv_mems_base_control.c ****     if (inv_sensor_control & GYRO_CALIBR_SET)
1266:.\20648_driver\drivers/inv_mems_base_control.c ****         inv_sensor_control |= GYRO_SET;
1267:.\20648_driver\drivers/inv_mems_base_control.c **** #endif
1268:.\20648_driver\drivers/inv_mems_base_control.c ****     result = dmp_set_data_output_control1(inv_sensor_control);
1269:.\20648_driver\drivers/inv_mems_base_control.c **** 	if (b2s_status)
1270:.\20648_driver\drivers/inv_mems_base_control.c **** 		result |= dmp_set_data_interrupt_control(inv_sensor_control|0x8008);
1271:.\20648_driver\drivers/inv_mems_base_control.c **** 		// result |= dmp_set_data_interrupt_control(inv_sensor_control|0x0000);
1272:.\20648_driver\drivers/inv_mems_base_control.c **** 	else
1273:.\20648_driver\drivers/inv_mems_base_control.c **** 		result |= dmp_set_data_interrupt_control(inv_sensor_control);
1274:.\20648_driver\drivers/inv_mems_base_control.c **** 
1275:.\20648_driver\drivers/inv_mems_base_control.c ****     if (inv_sensor_control & ACCEL_SET)
1276:.\20648_driver\drivers/inv_mems_base_control.c ****         inv_sensor_control2 |= ACCEL_ACCURACY_SET;
1277:.\20648_driver\drivers/inv_mems_base_control.c ****     else
1278:.\20648_driver\drivers/inv_mems_base_control.c ****         inv_sensor_control2 &= ~ACCEL_ACCURACY_SET;
1279:.\20648_driver\drivers/inv_mems_base_control.c ****     
1280:.\20648_driver\drivers/inv_mems_base_control.c ****     if (  (inv_sensor_control & GYRO_CALIBR_SET)
1281:.\20648_driver\drivers/inv_mems_base_control.c **** #if (MEMS_CHIP == HW_ICM30630)
1282:.\20648_driver\drivers/inv_mems_base_control.c ****        || (inv_sensor_control & GYRO_SET)
1283:.\20648_driver\drivers/inv_mems_base_control.c **** #endif
1284:.\20648_driver\drivers/inv_mems_base_control.c ****         )
1285:.\20648_driver\drivers/inv_mems_base_control.c ****         inv_sensor_control2 |= GYRO_ACCURACY_SET;
1286:.\20648_driver\drivers/inv_mems_base_control.c ****     else
1287:.\20648_driver\drivers/inv_mems_base_control.c ****         inv_sensor_control2 &= ~GYRO_ACCURACY_SET;
1288:.\20648_driver\drivers/inv_mems_base_control.c ****     
1289:.\20648_driver\drivers/inv_mems_base_control.c **** #if defined MEMS_SECONDARY_DEVICE
1290:.\20648_driver\drivers/inv_mems_base_control.c ****     if (inv_sensor_control & CPASS_CALIBR_SET || inv_sensor_control & QUAT9_SET	
1291:.\20648_driver\drivers/inv_mems_base_control.c **** #if (MEMS_CHIP == HW_ICM20648)
ARM GAS  C:\Users\ADMINI~1\AppData\Local\Temp\ccjTNAQQ.s 			page 34


1292:.\20648_driver\drivers/inv_mems_base_control.c **** 		|| inv_sensor_control & GEOMAG_SET
1293:.\20648_driver\drivers/inv_mems_base_control.c **** #endif
1294:.\20648_driver\drivers/inv_mems_base_control.c **** 		)
1295:.\20648_driver\drivers/inv_mems_base_control.c ****         inv_sensor_control2 |= CPASS_ACCURACY_SET;
1296:.\20648_driver\drivers/inv_mems_base_control.c ****     else
1297:.\20648_driver\drivers/inv_mems_base_control.c ****         inv_sensor_control2 &= ~CPASS_ACCURACY_SET;
1298:.\20648_driver\drivers/inv_mems_base_control.c **** #endif
1299:.\20648_driver\drivers/inv_mems_base_control.c **** #if (MEMS_CHIP == HW_ICM20645_E || MEMS_CHIP == HW_ICM20648)
1300:.\20648_driver\drivers/inv_mems_base_control.c ****     if(bac_status)
1301:.\20648_driver\drivers/inv_mems_base_control.c ****         inv_sensor_control2 |= bac_status;
1302:.\20648_driver\drivers/inv_mems_base_control.c ****     else
1303:.\20648_driver\drivers/inv_mems_base_control.c ****         inv_sensor_control2 &= ~bac_status;
1304:.\20648_driver\drivers/inv_mems_base_control.c **** #endif
1305:.\20648_driver\drivers/inv_mems_base_control.c **** #if (MEMS_CHIP == HW_ICM30630 || MEMS_CHIP == HW_ICM20645_E || MEMS_CHIP == HW_ICM20648)
1306:.\20648_driver\drivers/inv_mems_base_control.c ****     if(flip_pickup_status)
1307:.\20648_driver\drivers/inv_mems_base_control.c ****         inv_sensor_control2 |= flip_pickup_status;
1308:.\20648_driver\drivers/inv_mems_base_control.c ****     else
1309:.\20648_driver\drivers/inv_mems_base_control.c ****         inv_sensor_control2 &= ~flip_pickup_status;
1310:.\20648_driver\drivers/inv_mems_base_control.c **** 
1311:.\20648_driver\drivers/inv_mems_base_control.c **** 
1312:.\20648_driver\drivers/inv_mems_base_control.c ****         // inv_event_control   |= b2s_status; 
1313:.\20648_driver\drivers/inv_mems_base_control.c **** 
1314:.\20648_driver\drivers/inv_mems_base_control.c ****   #if (MEMS_CHIP == HW_ICM20648)
1315:.\20648_driver\drivers/inv_mems_base_control.c **** 	if(androidSensor == ANDROID_SENSOR_B2S)
1316:.\20648_driver\drivers/inv_mems_base_control.c **** 	{
1317:.\20648_driver\drivers/inv_mems_base_control.c **** 		if(enable)
1318:.\20648_driver\drivers/inv_mems_base_control.c **** 			inv_event_control |= INV_BRING_AND_LOOK_T0_SEE_EN;
1319:.\20648_driver\drivers/inv_mems_base_control.c **** 	}
1320:.\20648_driver\drivers/inv_mems_base_control.c ****   #endif
1321:.\20648_driver\drivers/inv_mems_base_control.c **** #endif
1322:.\20648_driver\drivers/inv_mems_base_control.c **** 
1323:.\20648_driver\drivers/inv_mems_base_control.c **** #if (MEMS_CHIP != HW_ICM20648)
1324:.\20648_driver\drivers/inv_mems_base_control.c ****     if(inv_androidSensorsOn_mask[0] & (1L << ANDROID_SENSOR_GEOMAGNETIC_ROTATION_VECTOR))
1325:.\20648_driver\drivers/inv_mems_base_control.c ****         inv_sensor_control2 |= GEOMAG_EN;
1326:.\20648_driver\drivers/inv_mems_base_control.c ****     else
1327:.\20648_driver\drivers/inv_mems_base_control.c ****         inv_sensor_control2 &= ~GEOMAG_EN;
1328:.\20648_driver\drivers/inv_mems_base_control.c **** #endif
1329:.\20648_driver\drivers/inv_mems_base_control.c **** 
1330:.\20648_driver\drivers/inv_mems_base_control.c ****     result |= dmp_set_data_output_control2(inv_sensor_control2);
1331:.\20648_driver\drivers/inv_mems_base_control.c **** 
1332:.\20648_driver\drivers/inv_mems_base_control.c ****     // sets DATA_RDY_STATUS in DMP based on which sensors are on
1333:.\20648_driver\drivers/inv_mems_base_control.c ****     if (inv_androidSensorsOn_mask[0] & INV_NEEDS_GYRO_MASK || inv_androidSensorsOn_mask[1] & INV_NE
1334:.\20648_driver\drivers/inv_mems_base_control.c ****         data_rdy_status |= GYRO_AVAILABLE;
1335:.\20648_driver\drivers/inv_mems_base_control.c ****     if (inv_androidSensorsOn_mask[0] & INV_NEEDS_ACCEL_MASK || inv_androidSensorsOn_mask[1] & INV_N
1336:.\20648_driver\drivers/inv_mems_base_control.c ****         data_rdy_status |= ACCEL_AVAILABLE;
1337:.\20648_driver\drivers/inv_mems_base_control.c **** #if (MEMS_CHIP == HW_ICM30630 || MEMS_CHIP == HW_ICM20645_E || MEMS_CHIP == HW_ICM20648)
1338:.\20648_driver\drivers/inv_mems_base_control.c ****     if (flip_pickup_status || b2s_status)
1339:.\20648_driver\drivers/inv_mems_base_control.c ****         data_rdy_status |= ACCEL_AVAILABLE;
1340:.\20648_driver\drivers/inv_mems_base_control.c **** #endif
1341:.\20648_driver\drivers/inv_mems_base_control.c **** #if (MEMS_CHIP == HW_ICM20645_E || MEMS_CHIP == HW_ICM20648)
1342:.\20648_driver\drivers/inv_mems_base_control.c ****     if (bac_status)
1343:.\20648_driver\drivers/inv_mems_base_control.c ****         data_rdy_status |= ACCEL_AVAILABLE;
1344:.\20648_driver\drivers/inv_mems_base_control.c **** #endif
1345:.\20648_driver\drivers/inv_mems_base_control.c ****     if (inv_androidSensorsOn_mask[0] & INV_NEEDS_COMPASS_MASK || inv_androidSensorsOn_mask[1] & INV
1346:.\20648_driver\drivers/inv_mems_base_control.c ****         data_rdy_status |= SECONDARY_COMPASS_AVAILABLE;
1347:.\20648_driver\drivers/inv_mems_base_control.c ****     if (inv_androidSensorsOn_mask[0] & INV_NEEDS_PRESSURE)
1348:.\20648_driver\drivers/inv_mems_base_control.c ****         data_rdy_status |= SECONDARY_PRESSURE_AVAILABLE;
ARM GAS  C:\Users\ADMINI~1\AppData\Local\Temp\ccjTNAQQ.s 			page 35


1349:.\20648_driver\drivers/inv_mems_base_control.c **** 
1350:.\20648_driver\drivers/inv_mems_base_control.c ****     // turn on gyro cal only if gyro is available
1351:.\20648_driver\drivers/inv_mems_base_control.c ****     if (data_rdy_status & GYRO_AVAILABLE)
1352:.\20648_driver\drivers/inv_mems_base_control.c ****         inv_event_control |= INV_GYRO_CAL_EN;
1353:.\20648_driver\drivers/inv_mems_base_control.c ****     inv_event_control |= INV_ACCEL_CAL_EN | INV_COMPASS_CAL_EN;
1354:.\20648_driver\drivers/inv_mems_base_control.c **** #if (MEMS_CHIP != HW_ICM30630)
1355:.\20648_driver\drivers/inv_mems_base_control.c ****     inv_event_control |= smd_status | ped_int_status;
1356:.\20648_driver\drivers/inv_mems_base_control.c **** #endif
1357:.\20648_driver\drivers/inv_mems_base_control.c ****     
1358:.\20648_driver\drivers/inv_mems_base_control.c ****     if (inv_sensor_control & QUAT9_SET)
1359:.\20648_driver\drivers/inv_mems_base_control.c ****         inv_event_control |= INV_NINE_AXIS_EN;
1360:.\20648_driver\drivers/inv_mems_base_control.c **** #if (MEMS_CHIP != HW_ICM30630)
1361:.\20648_driver\drivers/inv_mems_base_control.c ****     if (inv_sensor_control & (PED_STEPDET_SET | PED_STEPIND_SET) || inv_event_control & INV_SMD_EN)
1362:.\20648_driver\drivers/inv_mems_base_control.c **** #if (MEMS_CHIP == HW_ICM20648)
1363:.\20648_driver\drivers/inv_mems_base_control.c **** #if defined MEMS_WEARABLE_DEVICE
1364:.\20648_driver\drivers/inv_mems_base_control.c ****         inv_event_control |= INV_BAC_WEARABLE;
1365:.\20648_driver\drivers/inv_mems_base_control.c **** #endif
1366:.\20648_driver\drivers/inv_mems_base_control.c **** #endif
1367:.\20648_driver\drivers/inv_mems_base_control.c ****         inv_event_control |= INV_PEDOMETER_EN;
1368:.\20648_driver\drivers/inv_mems_base_control.c ****     }
1369:.\20648_driver\drivers/inv_mems_base_control.c **** #endif
1370:.\20648_driver\drivers/inv_mems_base_control.c **** #if (MEMS_CHIP == HW_ICM20645_E || MEMS_CHIP == HW_ICM20648)
1371:.\20648_driver\drivers/inv_mems_base_control.c ****     if (inv_sensor_control2 & ACT_RECOG_SET){
1372:.\20648_driver\drivers/inv_mems_base_control.c ****         inv_event_control |= INV_PEDOMETER_EN;
1373:.\20648_driver\drivers/inv_mems_base_control.c **** #if (MEMS_CHIP == HW_ICM20648)
1374:.\20648_driver\drivers/inv_mems_base_control.c **** #if defined MEMS_WEARABLE_DEVICE
1375:.\20648_driver\drivers/inv_mems_base_control.c ****         inv_event_control |= INV_BAC_WEARABLE;
1376:.\20648_driver\drivers/inv_mems_base_control.c **** #endif
1377:.\20648_driver\drivers/inv_mems_base_control.c **** #endif
1378:.\20648_driver\drivers/inv_mems_base_control.c ****     }
1379:.\20648_driver\drivers/inv_mems_base_control.c **** #endif
1380:.\20648_driver\drivers/inv_mems_base_control.c **** #if (MEMS_CHIP == HW_ICM30630 || MEMS_CHIP == HW_ICM20645_E || MEMS_CHIP == HW_ICM20648)
1381:.\20648_driver\drivers/inv_mems_base_control.c ****     if (inv_sensor_control2 & FLIP_PICKUP_SET){
1382:.\20648_driver\drivers/inv_mems_base_control.c ****         inv_event_control |= FLIP_PICKUP_EN;
1383:.\20648_driver\drivers/inv_mems_base_control.c ****         // 5061-add-call to reset flip pickup parameters here
1384:.\20648_driver\drivers/inv_mems_base_control.c ****         dmp_reset_pickup();
1385:.\20648_driver\drivers/inv_mems_base_control.c ****     }
1386:.\20648_driver\drivers/inv_mems_base_control.c **** #endif
1387:.\20648_driver\drivers/inv_mems_base_control.c **** 
1388:.\20648_driver\drivers/inv_mems_base_control.c **** #if (MEMS_CHIP == HW_ICM20648)
1389:.\20648_driver\drivers/inv_mems_base_control.c ****     if (inv_sensor_control & GEOMAG_SET)
1390:.\20648_driver\drivers/inv_mems_base_control.c ****         inv_event_control |= GEOMAG_EN;
1391:.\20648_driver\drivers/inv_mems_base_control.c **** #endif
1392:.\20648_driver\drivers/inv_mems_base_control.c **** 
1393:.\20648_driver\drivers/inv_mems_base_control.c ****     result |= dmp_set_motion_event_control(inv_event_control);
1394:.\20648_driver\drivers/inv_mems_base_control.c **** 
1395:.\20648_driver\drivers/inv_mems_base_control.c **** #if defined MEMS_AUGMENTED_SENSORS
1396:.\20648_driver\drivers/inv_mems_base_control.c ****     // A sensor was just enabled/disabled, need to recompute the required ODR for all augmented sen
1397:.\20648_driver\drivers/inv_mems_base_control.c ****     // The fastest ODR will always be applied to other related sensors
1398:.\20648_driver\drivers/inv_mems_base_control.c **** 	if ( (androidSensor == ANDROID_SENSOR_GRAVITY) || (androidSensor == ANDROID_SENSOR_GAME_ROTATION_V
1399:.\20648_driver\drivers/inv_mems_base_control.c **** 	{
1400:.\20648_driver\drivers/inv_mems_base_control.c **** 		inv_mems_augmented_sensors_update_odr(androidSensor, &inv_dmp_odr_delays[INV_SENSOR_SIXQ]);
1401:.\20648_driver\drivers/inv_mems_base_control.c **** 		inv_mems_augmented_sensors_update_odr(androidSensor, &inv_dmp_odr_delays[INV_SENSOR_SIXQ_accel]);
1402:.\20648_driver\drivers/inv_mems_base_control.c **** 	}
1403:.\20648_driver\drivers/inv_mems_base_control.c **** 	if ( (androidSensor == ANDROID_SENSOR_ORIENTATION) || (androidSensor == ANDROID_SENSOR_ROTATION_VE
1404:.\20648_driver\drivers/inv_mems_base_control.c **** 	{
1405:.\20648_driver\drivers/inv_mems_base_control.c **** 		inv_mems_augmented_sensors_update_odr(androidSensor, &inv_dmp_odr_delays[INV_SENSOR_NINEQ]);
ARM GAS  C:\Users\ADMINI~1\AppData\Local\Temp\ccjTNAQQ.s 			page 36


1406:.\20648_driver\drivers/inv_mems_base_control.c **** 		inv_mems_augmented_sensors_update_odr(androidSensor, &inv_dmp_odr_delays[INV_SENSOR_NINEQ_accel])
1407:.\20648_driver\drivers/inv_mems_base_control.c **** 		inv_mems_augmented_sensors_update_odr(androidSensor, &inv_dmp_odr_delays[INV_SENSOR_NINEQ_cpass])
1408:.\20648_driver\drivers/inv_mems_base_control.c **** 	}
1409:.\20648_driver\drivers/inv_mems_base_control.c **** 	if ( (androidSensor == ANDROID_SENSOR_WAKEUP_GRAVITY) || (androidSensor == ANDROID_SENSOR_WAKEUP_G
1410:.\20648_driver\drivers/inv_mems_base_control.c **** 	{
1411:.\20648_driver\drivers/inv_mems_base_control.c **** 		inv_mems_augmented_sensors_update_odr(androidSensor, &inv_dmp_odr_delays[INV_SENSOR_WAKEUP_SIXQ])
1412:.\20648_driver\drivers/inv_mems_base_control.c **** 		inv_mems_augmented_sensors_update_odr(androidSensor, &inv_dmp_odr_delays[INV_SENSOR_WAKEUP_SIXQ_a
1413:.\20648_driver\drivers/inv_mems_base_control.c **** 	}
1414:.\20648_driver\drivers/inv_mems_base_control.c **** 	if ( (androidSensor == ANDROID_SENSOR_WAKEUP_ORIENTATION) || (androidSensor == ANDROID_SENSOR_WAKE
1415:.\20648_driver\drivers/inv_mems_base_control.c **** 	{
1416:.\20648_driver\drivers/inv_mems_base_control.c **** 		inv_mems_augmented_sensors_update_odr(androidSensor, &inv_dmp_odr_delays[INV_SENSOR_WAKEUP_NINEQ]
1417:.\20648_driver\drivers/inv_mems_base_control.c **** 		inv_mems_augmented_sensors_update_odr(androidSensor, &inv_dmp_odr_delays[INV_SENSOR_WAKEUP_NINEQ_
1418:.\20648_driver\drivers/inv_mems_base_control.c **** 		inv_mems_augmented_sensors_update_odr(androidSensor, &inv_dmp_odr_delays[INV_SENSOR_WAKEUP_NINEQ_
1419:.\20648_driver\drivers/inv_mems_base_control.c **** 	}
1420:.\20648_driver\drivers/inv_mems_base_control.c **** #endif
1421:.\20648_driver\drivers/inv_mems_base_control.c **** 
1422:.\20648_driver\drivers/inv_mems_base_control.c **** 	result |= inv_set_hw_smplrt_dmp_odrs();
1423:.\20648_driver\drivers/inv_mems_base_control.c ****     result |= inv_set_gyro_sf(inv_get_gyro_divider(), inv_get_gyro_fullscale());
1424:.\20648_driver\drivers/inv_mems_base_control.c **** 
1425:.\20648_driver\drivers/inv_mems_base_control.c ****     if (!inv_sensor_control && !(inv_androidSensorsOn_mask[0] & (1L << ANDROID_SENSOR_WAKEUP_SIGNIF
1426:.\20648_driver\drivers/inv_mems_base_control.c ****         *mems_put_to_sleep =1 ;
1427:.\20648_driver\drivers/inv_mems_base_control.c ****         result |= inv_sleep_mems();
1428:.\20648_driver\drivers/inv_mems_base_control.c ****     }
1429:.\20648_driver\drivers/inv_mems_base_control.c **** 
1430:.\20648_driver\drivers/inv_mems_base_control.c ****     // DMP no longer controls PWR_MGMT_2 because of hardware bug, 0x80 set to override default beha
1431:.\20648_driver\drivers/inv_mems_base_control.c ****     result |= inv_enable_mems_hw_sensors((int)data_rdy_status | 0x80);
1432:.\20648_driver\drivers/inv_mems_base_control.c **** 
1433:.\20648_driver\drivers/inv_mems_base_control.c ****     // set DATA_RDY_STATUS in DMP
1434:.\20648_driver\drivers/inv_mems_base_control.c **** 	if ( (data_rdy_status & SECONDARY_COMPASS_AVAILABLE) ||
1435:.\20648_driver\drivers/inv_mems_base_control.c **** 		 (data_rdy_status & SECONDARY_PRESSURE_AVAILABLE) )	{
1436:.\20648_driver\drivers/inv_mems_base_control.c **** 		data_rdy_status &= ~SECONDARY_PRESSURE_AVAILABLE;
1437:.\20648_driver\drivers/inv_mems_base_control.c **** 		data_rdy_status |= SECONDARY_COMPASS_AVAILABLE;
1438:.\20648_driver\drivers/inv_mems_base_control.c **** 	}
1439:.\20648_driver\drivers/inv_mems_base_control.c **** 
1440:.\20648_driver\drivers/inv_mems_base_control.c ****     result |= dmp_set_data_rdy_status(data_rdy_status);
1441:.\20648_driver\drivers/inv_mems_base_control.c **** 
1442:.\20648_driver\drivers/inv_mems_base_control.c **** 	// To have the all steps when you enable the sensor
1443:.\20648_driver\drivers/inv_mems_base_control.c **** 	if (androidSensor == ANDROID_SENSOR_STEP_COUNTER)
1444:.\20648_driver\drivers/inv_mems_base_control.c **** 	{
1445:.\20648_driver\drivers/inv_mems_base_control.c **** 		if (enable)
1446:.\20648_driver\drivers/inv_mems_base_control.c **** 		{
1447:.\20648_driver\drivers/inv_mems_base_control.c **** 			dmp_get_pedometer_get_all_steps(&steps);
1448:.\20648_driver\drivers/inv_mems_base_control.c **** 			inv_set_dmp_stepcounter_update_offset(steps);
1449:.\20648_driver\drivers/inv_mems_base_control.c **** 		}
1450:.\20648_driver\drivers/inv_mems_base_control.c **** 	}
1451:.\20648_driver\drivers/inv_mems_base_control.c ****     return result;
1452:.\20648_driver\drivers/inv_mems_base_control.c **** }
1453:.\20648_driver\drivers/inv_mems_base_control.c **** 
1454:.\20648_driver\drivers/inv_mems_base_control.c **** #if (MEMS_CHIP == HW_ICM20645_E|| MEMS_CHIP == HW_ICM20648)
1455:.\20648_driver\drivers/inv_mems_base_control.c **** void inv_enable_activity_classifier(unsigned char enable) 
1456:.\20648_driver\drivers/inv_mems_base_control.c **** {
 568              		.loc 1 1456 0
 569              		.cfi_startproc
 570              	.LVL39:
 571 0000 08B5     		push	{r3, lr}
 572              		.cfi_def_cfa_offset 8
 573              		.cfi_offset 3, -8
ARM GAS  C:\Users\ADMINI~1\AppData\Local\Temp\ccjTNAQQ.s 			page 37


 574              		.cfi_offset 14, -4
1457:.\20648_driver\drivers/inv_mems_base_control.c **** 	bac_on = enable;
 575              		.loc 1 1457 0
 576 0002 0B4B     		ldr	r3, .L81
 577 0004 1A1C     		mov	r2, r3
 578 0006 5432     		add	r2, r2, #84
 579 0008 1080     		strh	r0, [r2]
1458:.\20648_driver\drivers/inv_mems_base_control.c **** 	if (enable) {
 580              		.loc 1 1458 0
 581 000a 0028     		cmp	r0, #0
 582 000c 04D0     		beq	.L77
 583              	.LVL40:
 584              	.LBB21:
 585              	.LBB22:
1459:.\20648_driver\drivers/inv_mems_base_control.c **** 		bac_status = ACT_RECOG_SET;
 586              		.loc 1 1459 0
 587 000e 8022     		mov	r2, #128
 588 0010 5633     		add	r3, r3, #86
 589 0012 1A80     		strh	r2, [r3]
1460:.\20648_driver\drivers/inv_mems_base_control.c **** 		dmp_set_tilt_enable(0);
 590              		.loc 1 1460 0
 591 0014 0020     		mov	r0, #0
 592              	.LVL41:
 593 0016 08E0     		b	.L80
 594              	.LVL42:
 595              	.L77:
 596              	.LBE22:
 597              	.LBE21:
 598              	.LBB23:
 599              	.LBB24:
 168:.\20648_driver\drivers/inv_mems_base_control.c **** }
 600              		.loc 1 168 0
 601 0018 8020     		mov	r0, #128
 602              	.LVL43:
 603 001a 1A6D     		ldr	r2, [r3, #80]
 604 001c 8000     		lsl	r0, r0, #2
 605 001e 1040     		and	r0, r2
 606              	.LBE24:
 607              	.LBE23:
1461:.\20648_driver\drivers/inv_mems_base_control.c **** 	}
1462:.\20648_driver\drivers/inv_mems_base_control.c **** 	else {
1463:.\20648_driver\drivers/inv_mems_base_control.c **** 		// only disable tilt engine if no request for tilt sensor
1464:.\20648_driver\drivers/inv_mems_base_control.c **** 		if (!inv_androidSensor_enabled(ANDROID_SENSOR_WAKEUP_TILT_DETECTOR)) {
 608              		.loc 1 1464 0
 609 0020 02D1     		bne	.L79
1465:.\20648_driver\drivers/inv_mems_base_control.c **** 			bac_status = 0;
 610              		.loc 1 1465 0
 611 0022 5633     		add	r3, r3, #86
 612 0024 1880     		strh	r0, [r3]
 613 0026 00E0     		b	.L80
 614              	.L79:
1466:.\20648_driver\drivers/inv_mems_base_control.c **** 			dmp_set_tilt_enable(0);
1467:.\20648_driver\drivers/inv_mems_base_control.c **** 		}
1468:.\20648_driver\drivers/inv_mems_base_control.c **** 		// do not diable BAC engine if tilt sensor is still on because tilt is part of BAC
1469:.\20648_driver\drivers/inv_mems_base_control.c **** 		else {
1470:.\20648_driver\drivers/inv_mems_base_control.c **** 			dmp_set_tilt_enable(1);
 615              		.loc 1 1470 0
ARM GAS  C:\Users\ADMINI~1\AppData\Local\Temp\ccjTNAQQ.s 			page 38


 616 0028 0120     		mov	r0, #1
 617              	.LVL44:
 618              	.L80:
 619 002a FFF7FEFF 		bl	dmp_set_tilt_enable
 620              	.LVL45:
1471:.\20648_driver\drivers/inv_mems_base_control.c **** 		}
1472:.\20648_driver\drivers/inv_mems_base_control.c **** 	}
1473:.\20648_driver\drivers/inv_mems_base_control.c **** }
 621              		.loc 1 1473 0
 622              		@ sp needed
 623 002e 08BD     		pop	{r3, pc}
 624              	.L82:
 625              		.align	2
 626              	.L81:
 627 0030 00000000 		.word	.LANCHOR0
 628              		.cfi_endproc
 629              	.LFE14:
 630              		.size	inv_enable_activity_classifier, .-inv_enable_activity_classifier
 631              		.section	.text.inv_enable_tilt,"ax",%progbits
 632              		.align	1
 633              		.global	inv_enable_tilt
 634              		.code	16
 635              		.thumb_func
 636              		.type	inv_enable_tilt, %function
 637              	inv_enable_tilt:
 638              	.LFB15:
1474:.\20648_driver\drivers/inv_mems_base_control.c **** 
1475:.\20648_driver\drivers/inv_mems_base_control.c **** void inv_enable_tilt(unsigned char enable) 
1476:.\20648_driver\drivers/inv_mems_base_control.c **** {
 639              		.loc 1 1476 0
 640              		.cfi_startproc
 641              	.LVL46:
 642 0000 08B5     		push	{r3, lr}
 643              		.cfi_def_cfa_offset 8
 644              		.cfi_offset 3, -8
 645              		.cfi_offset 14, -4
 646 0002 0B4B     		ldr	r3, .L89
1477:.\20648_driver\drivers/inv_mems_base_control.c **** 	if (enable) {
1478:.\20648_driver\drivers/inv_mems_base_control.c **** 		bac_status = ACT_RECOG_SET;
 647              		.loc 1 1478 0
 648 0004 1A1C     		mov	r2, r3
1477:.\20648_driver\drivers/inv_mems_base_control.c **** 	if (enable) {
 649              		.loc 1 1477 0
 650 0006 0028     		cmp	r0, #0
 651 0008 08D0     		beq	.L84
 652              		.loc 1 1478 0
 653 000a 8021     		mov	r1, #128
1479:.\20648_driver\drivers/inv_mems_base_control.c **** 		if (!bac_on)
 654              		.loc 1 1479 0
 655 000c 5433     		add	r3, r3, #84
 656 000e 1B88     		ldrh	r3, [r3]
1478:.\20648_driver\drivers/inv_mems_base_control.c **** 		if (!bac_on)
 657              		.loc 1 1478 0
 658 0010 5632     		add	r2, r2, #86
 659 0012 1180     		strh	r1, [r2]
1480:.\20648_driver\drivers/inv_mems_base_control.c **** 			dmp_set_tilt_enable(1); // turn off BAC FIFO output except tilt if BAC sensor is off
 660              		.loc 1 1480 0
ARM GAS  C:\Users\ADMINI~1\AppData\Local\Temp\ccjTNAQQ.s 			page 39


 661 0014 0120     		mov	r0, #1
 662              	.LVL47:
1479:.\20648_driver\drivers/inv_mems_base_control.c **** 		if (!bac_on)
 663              		.loc 1 1479 0
 664 0016 002B     		cmp	r3, #0
 665 0018 08D1     		bne	.L83
 666 001a 05E0     		b	.L88
 667              	.LVL48:
 668              	.L84:
1481:.\20648_driver\drivers/inv_mems_base_control.c **** 	}
1482:.\20648_driver\drivers/inv_mems_base_control.c **** 	else {
1483:.\20648_driver\drivers/inv_mems_base_control.c **** 		// do not disable BAC engine if BAC sensor is still on even though tilt is off
1484:.\20648_driver\drivers/inv_mems_base_control.c **** 		if (!bac_on) {
 669              		.loc 1 1484 0
 670 001c 5432     		add	r2, r2, #84
 671 001e 1088     		ldrh	r0, [r2]
 672              	.LVL49:
 673 0020 0028     		cmp	r0, #0
 674 0022 03D1     		bne	.L83
 675              	.LVL50:
 676              	.LBB27:
 677              	.LBB28:
1485:.\20648_driver\drivers/inv_mems_base_control.c **** 			bac_status = 0;
 678              		.loc 1 1485 0
 679 0024 5633     		add	r3, r3, #86
 680 0026 1880     		strh	r0, [r3]
 681              	.LVL51:
 682              	.L88:
1486:.\20648_driver\drivers/inv_mems_base_control.c **** 			dmp_set_tilt_enable(0);
 683              		.loc 1 1486 0
 684 0028 FFF7FEFF 		bl	dmp_set_tilt_enable
 685              	.LVL52:
 686              	.L83:
 687              	.LBE28:
 688              	.LBE27:
1487:.\20648_driver\drivers/inv_mems_base_control.c **** 		}
1488:.\20648_driver\drivers/inv_mems_base_control.c **** 	}
1489:.\20648_driver\drivers/inv_mems_base_control.c **** }
 689              		.loc 1 1489 0
 690              		@ sp needed
 691 002c 08BD     		pop	{r3, pc}
 692              	.L90:
 693 002e C046     		.align	2
 694              	.L89:
 695 0030 00000000 		.word	.LANCHOR0
 696              		.cfi_endproc
 697              	.LFE15:
 698              		.size	inv_enable_tilt, .-inv_enable_tilt
 699              		.section	.text.inv_set_batch_mode_status,"ax",%progbits
 700              		.align	1
 701              		.global	inv_set_batch_mode_status
 702              		.code	16
 703              		.thumb_func
 704              		.type	inv_set_batch_mode_status, %function
 705              	inv_set_batch_mode_status:
 706              	.LFB17:
1490:.\20648_driver\drivers/inv_mems_base_control.c **** #endif
ARM GAS  C:\Users\ADMINI~1\AppData\Local\Temp\ccjTNAQQ.s 			page 40


1491:.\20648_driver\drivers/inv_mems_base_control.c **** 
1492:.\20648_driver\drivers/inv_mems_base_control.c **** inv_error_t inv_enable_batch(unsigned char enable)
1493:.\20648_driver\drivers/inv_mems_base_control.c **** {
1494:.\20648_driver\drivers/inv_mems_base_control.c ****     int ret = 0;
1495:.\20648_driver\drivers/inv_mems_base_control.c **** 
1496:.\20648_driver\drivers/inv_mems_base_control.c ****     if(enable)
1497:.\20648_driver\drivers/inv_mems_base_control.c ****         inv_sensor_control2 |= BATCH_MODE_EN;
1498:.\20648_driver\drivers/inv_mems_base_control.c ****     else
1499:.\20648_driver\drivers/inv_mems_base_control.c ****         inv_sensor_control2 &= ~BATCH_MODE_EN;
1500:.\20648_driver\drivers/inv_mems_base_control.c **** 
1501:.\20648_driver\drivers/inv_mems_base_control.c ****     ret = dmp_set_data_output_control2(inv_sensor_control2);
1502:.\20648_driver\drivers/inv_mems_base_control.c **** 	
1503:.\20648_driver\drivers/inv_mems_base_control.c **** #if (MEMS_CHIP == HW_ICM20648)
1504:.\20648_driver\drivers/inv_mems_base_control.c **** 	/* give batch mode status to mems transport layer 
1505:.\20648_driver\drivers/inv_mems_base_control.c **** 	to allow disable/enable LP_EN when reading FIFO in batch mode */
1506:.\20648_driver\drivers/inv_mems_base_control.c **** 	inv_set_batch_mode_status(enable);
1507:.\20648_driver\drivers/inv_mems_base_control.c **** #endif
1508:.\20648_driver\drivers/inv_mems_base_control.c **** 
1509:.\20648_driver\drivers/inv_mems_base_control.c ****     return ret;
1510:.\20648_driver\drivers/inv_mems_base_control.c **** }
1511:.\20648_driver\drivers/inv_mems_base_control.c **** 
1512:.\20648_driver\drivers/inv_mems_base_control.c **** #if (MEMS_CHIP == HW_ICM20648)
1513:.\20648_driver\drivers/inv_mems_base_control.c **** static unsigned char sBatchMode=0;
1514:.\20648_driver\drivers/inv_mems_base_control.c **** 
1515:.\20648_driver\drivers/inv_mems_base_control.c **** void inv_set_batch_mode_status(unsigned char enable)
1516:.\20648_driver\drivers/inv_mems_base_control.c **** {
 707              		.loc 1 1516 0
 708              		.cfi_startproc
 709              	.LVL53:
 710 0000 044B     		ldr	r3, .L94
1517:.\20648_driver\drivers/inv_mems_base_control.c **** 	if(enable)
1518:.\20648_driver\drivers/inv_mems_base_control.c **** 		sBatchMode=1;
 711              		.loc 1 1518 0
 712 0002 5833     		add	r3, r3, #88
1517:.\20648_driver\drivers/inv_mems_base_control.c **** 	if(enable)
 713              		.loc 1 1517 0
 714 0004 0028     		cmp	r0, #0
 715 0006 02D0     		beq	.L92
 716              		.loc 1 1518 0
 717 0008 0122     		mov	r2, #1
 718 000a 1A70     		strb	r2, [r3]
 719 000c 00E0     		b	.L91
 720              	.L92:
1519:.\20648_driver\drivers/inv_mems_base_control.c **** 	else
1520:.\20648_driver\drivers/inv_mems_base_control.c **** 		sBatchMode=0;
 721              		.loc 1 1520 0
 722 000e 1870     		strb	r0, [r3]
 723              	.L91:
1521:.\20648_driver\drivers/inv_mems_base_control.c **** }
 724              		.loc 1 1521 0
 725              		@ sp needed
 726 0010 7047     		bx	lr
 727              	.L95:
 728 0012 C046     		.align	2
 729              	.L94:
 730 0014 00000000 		.word	.LANCHOR0
 731              		.cfi_endproc
ARM GAS  C:\Users\ADMINI~1\AppData\Local\Temp\ccjTNAQQ.s 			page 41


 732              	.LFE17:
 733              		.size	inv_set_batch_mode_status, .-inv_set_batch_mode_status
 734              		.section	.text.inv_enable_batch,"ax",%progbits
 735              		.align	1
 736              		.global	inv_enable_batch
 737              		.code	16
 738              		.thumb_func
 739              		.type	inv_enable_batch, %function
 740              	inv_enable_batch:
 741              	.LFB16:
1493:.\20648_driver\drivers/inv_mems_base_control.c ****     int ret = 0;
 742              		.loc 1 1493 0
 743              		.cfi_startproc
 744              	.LVL54:
 745 0000 38B5     		push	{r3, r4, r5, lr}
 746              		.cfi_def_cfa_offset 16
 747              		.cfi_offset 3, -16
 748              		.cfi_offset 4, -12
 749              		.cfi_offset 5, -8
 750              		.cfi_offset 14, -4
 751 0002 0C4B     		ldr	r3, .L100
1493:.\20648_driver\drivers/inv_mems_base_control.c ****     int ret = 0;
 752              		.loc 1 1493 0
 753 0004 041C     		mov	r4, r0
1497:.\20648_driver\drivers/inv_mems_base_control.c ****     else
 754              		.loc 1 1497 0
 755 0006 191C     		mov	r1, r3
 756 0008 5A31     		add	r1, r1, #90
1496:.\20648_driver\drivers/inv_mems_base_control.c ****         inv_sensor_control2 |= BATCH_MODE_EN;
 757              		.loc 1 1496 0
 758 000a 0028     		cmp	r0, #0
 759 000c 04D0     		beq	.L97
1497:.\20648_driver\drivers/inv_mems_base_control.c ****     else
 760              		.loc 1 1497 0
 761 000e 8020     		mov	r0, #128
 762              	.LVL55:
 763 0010 0A88     		ldrh	r2, [r1]
 764 0012 4000     		lsl	r0, r0, #1
 765 0014 0243     		orr	r2, r0
 766 0016 02E0     		b	.L99
 767              	.LVL56:
 768              	.L97:
1499:.\20648_driver\drivers/inv_mems_base_control.c **** 
 769              		.loc 1 1499 0
 770 0018 0888     		ldrh	r0, [r1]
 771              	.LVL57:
 772 001a 074A     		ldr	r2, .L100+4
 773 001c 0240     		and	r2, r0
 774              	.L99:
 775 001e 0A80     		strh	r2, [r1]
1501:.\20648_driver\drivers/inv_mems_base_control.c **** 	
 776              		.loc 1 1501 0
 777 0020 5A33     		add	r3, r3, #90
 778 0022 1888     		ldrh	r0, [r3]
 779 0024 FFF7FEFF 		bl	dmp_set_data_output_control2
 780              	.LVL58:
 781 0028 051C     		mov	r5, r0
ARM GAS  C:\Users\ADMINI~1\AppData\Local\Temp\ccjTNAQQ.s 			page 42


 782              	.LVL59:
1506:.\20648_driver\drivers/inv_mems_base_control.c **** #endif
 783              		.loc 1 1506 0
 784 002a 201C     		mov	r0, r4
 785              	.LVL60:
 786 002c FFF7FEFF 		bl	inv_set_batch_mode_status
 787              	.LVL61:
1510:.\20648_driver\drivers/inv_mems_base_control.c **** 
 788              		.loc 1 1510 0
 789              		@ sp needed
 790 0030 281C     		mov	r0, r5
 791              	.LVL62:
 792 0032 38BD     		pop	{r3, r4, r5, pc}
 793              	.L101:
 794              		.align	2
 795              	.L100:
 796 0034 00000000 		.word	.LANCHOR0
 797 0038 FFFEFFFF 		.word	-257
 798              		.cfi_endproc
 799              	.LFE16:
 800              		.size	inv_enable_batch, .-inv_enable_batch
 801              		.section	.text.inv_get_batch_mode_status,"ax",%progbits
 802              		.align	1
 803              		.global	inv_get_batch_mode_status
 804              		.code	16
 805              		.thumb_func
 806              		.type	inv_get_batch_mode_status, %function
 807              	inv_get_batch_mode_status:
 808              	.LFB18:
1522:.\20648_driver\drivers/inv_mems_base_control.c **** 
1523:.\20648_driver\drivers/inv_mems_base_control.c **** unsigned char inv_get_batch_mode_status(void)
1524:.\20648_driver\drivers/inv_mems_base_control.c **** {
 809              		.loc 1 1524 0
 810              		.cfi_startproc
1525:.\20648_driver\drivers/inv_mems_base_control.c **** 	return sBatchMode;
 811              		.loc 1 1525 0
 812 0000 014B     		ldr	r3, .L103
1526:.\20648_driver\drivers/inv_mems_base_control.c **** }
 813              		.loc 1 1526 0
 814              		@ sp needed
1525:.\20648_driver\drivers/inv_mems_base_control.c **** 	return sBatchMode;
 815              		.loc 1 1525 0
 816 0002 5833     		add	r3, r3, #88
 817 0004 1878     		ldrb	r0, [r3]
 818              		.loc 1 1526 0
 819 0006 7047     		bx	lr
 820              	.L104:
 821              		.align	2
 822              	.L103:
 823 0008 00000000 		.word	.LANCHOR0
 824              		.cfi_endproc
 825              	.LFE18:
 826              		.size	inv_get_batch_mode_status, .-inv_get_batch_mode_status
 827              		.section	.text.inv_set_batch_timeout,"ax",%progbits
 828              		.align	1
 829              		.global	inv_set_batch_timeout
 830              		.code	16
ARM GAS  C:\Users\ADMINI~1\AppData\Local\Temp\ccjTNAQQ.s 			page 43


 831              		.thumb_func
 832              		.type	inv_set_batch_timeout, %function
 833              	inv_set_batch_timeout:
 834              	.LFB19:
1527:.\20648_driver\drivers/inv_mems_base_control.c **** #endif
1528:.\20648_driver\drivers/inv_mems_base_control.c **** 
1529:.\20648_driver\drivers/inv_mems_base_control.c **** inv_error_t inv_set_batch_timeout(unsigned short batch_time_in_seconds)
1530:.\20648_driver\drivers/inv_mems_base_control.c **** {
 835              		.loc 1 1530 0
 836              		.cfi_startproc
 837              	.LVL63:
1531:.\20648_driver\drivers/inv_mems_base_control.c ****     unsigned int timeout = 0;
1532:.\20648_driver\drivers/inv_mems_base_control.c **** 
1533:.\20648_driver\drivers/inv_mems_base_control.c ****     if(inv_sensor_control & GYRO_CALIBR_SET || inv_sensor_control & QUAT6_SET || inv_sensor_control
 838              		.loc 1 1533 0
 839 0000 114B     		ldr	r3, .L111
 840 0002 124A     		ldr	r2, .L111+4
 841 0004 5C33     		add	r3, r3, #92
 842 0006 1B88     		ldrh	r3, [r3]
1530:.\20648_driver\drivers/inv_mems_base_control.c ****     unsigned int timeout = 0;
 843              		.loc 1 1530 0
 844 0008 10B5     		push	{r4, lr}
 845              		.cfi_def_cfa_offset 8
 846              		.cfi_offset 4, -8
 847              		.cfi_offset 14, -4
1530:.\20648_driver\drivers/inv_mems_base_control.c ****     unsigned int timeout = 0;
 848              		.loc 1 1530 0
 849 000a 041C     		mov	r4, r0
 850              		.loc 1 1533 0
 851 000c 1342     		tst	r3, r2
 852 000e 08D0     		beq	.L106
1534:.\20648_driver\drivers/inv_mems_base_control.c ****         timeout = (unsigned int) (batch_time_in_seconds * (BASE_SAMPLE_RATE/ (inv_get_gyro_divider(
 853              		.loc 1 1534 0
 854 0010 FFF7FEFF 		bl	inv_get_gyro_divider
 855              	.LVL64:
 856 0014 411C     		add	r1, r0, #1
 857 0016 0E48     		ldr	r0, .L111+8
 858              	.LVL65:
 859 0018 FFF7FEFF 		bl	__aeabi_idiv
 860              	.LVL66:
1535:.\20648_driver\drivers/inv_mems_base_control.c ****         return dmp_set_batchmode_params(timeout, GYRO_AVAILABLE);
 861              		.loc 1 1535 0
 862 001c 0121     		mov	r1, #1
1534:.\20648_driver\drivers/inv_mems_base_control.c ****         timeout = (unsigned int) (batch_time_in_seconds * (BASE_SAMPLE_RATE/ (inv_get_gyro_divider(
 863              		.loc 1 1534 0
 864 001e 6043     		mul	r0, r4
 865 0020 0CE0     		b	.L110
 866              	.LVL67:
 867              	.L106:
1536:.\20648_driver\drivers/inv_mems_base_control.c ****     }
1537:.\20648_driver\drivers/inv_mems_base_control.c ****     
1538:.\20648_driver\drivers/inv_mems_base_control.c ****     if(inv_sensor_control & ACCEL_SET
 868              		.loc 1 1538 0
 869 0022 1AB2     		sxth	r2, r3
 870 0024 002A     		cmp	r2, #0
 871 0026 01DB     		blt	.L108
1539:.\20648_driver\drivers/inv_mems_base_control.c **** #if (MEMS_CHIP == HW_ICM20648)
ARM GAS  C:\Users\ADMINI~1\AppData\Local\Temp\ccjTNAQQ.s 			page 44


1540:.\20648_driver\drivers/inv_mems_base_control.c **** 		|| inv_sensor_control & GEOMAG_SET
 872              		.loc 1 1540 0
 873 0028 DB05     		lsl	r3, r3, #23
 874 002a 0AD5     		bpl	.L109
 875              	.L108:
1541:.\20648_driver\drivers/inv_mems_base_control.c **** #endif
1542:.\20648_driver\drivers/inv_mems_base_control.c **** 	) {    // If Accel is enabled and no Gyro based sensor is enabled.
1543:.\20648_driver\drivers/inv_mems_base_control.c ****         timeout = (unsigned int) (batch_time_in_seconds * (BASE_SAMPLE_RATE/ (inv_get_accel_divider
 876              		.loc 1 1543 0
 877 002c FFF7FEFF 		bl	inv_get_accel_divider
 878              	.LVL68:
 879 0030 411C     		add	r1, r0, #1
 880 0032 0748     		ldr	r0, .L111+8
 881              	.LVL69:
 882 0034 FFF7FEFF 		bl	__aeabi_idiv
 883              	.LVL70:
1544:.\20648_driver\drivers/inv_mems_base_control.c ****         return dmp_set_batchmode_params(timeout, ACCEL_AVAILABLE);
 884              		.loc 1 1544 0
 885 0038 0221     		mov	r1, #2
1543:.\20648_driver\drivers/inv_mems_base_control.c ****         return dmp_set_batchmode_params(timeout, ACCEL_AVAILABLE);
 886              		.loc 1 1543 0
 887 003a 6043     		mul	r0, r4
 888              	.L110:
 889              		.loc 1 1544 0
 890 003c FFF7FEFF 		bl	dmp_set_batchmode_params
 891              	.LVL71:
 892 0040 01E0     		b	.L107
 893              	.LVL72:
 894              	.L109:
1545:.\20648_driver\drivers/inv_mems_base_control.c ****     }
1546:.\20648_driver\drivers/inv_mems_base_control.c **** 
1547:.\20648_driver\drivers/inv_mems_base_control.c **** #if defined MEMS_SECONDARY_DEVICE
1548:.\20648_driver\drivers/inv_mems_base_control.c ****     if(inv_sensor_control & CPASS_SET || inv_sensor_control & CPASS_CALIBR_SET || inv_sensor_contro
1549:.\20648_driver\drivers/inv_mems_base_control.c **** 	int rc = 0;
1550:.\20648_driver\drivers/inv_mems_base_control.c ****         
1551:.\20648_driver\drivers/inv_mems_base_control.c **** 	timeout = (unsigned int) (batch_time_in_seconds * (BASE_SAMPLE_RATE/ inv_get_secondary_divider()))
1552:.\20648_driver\drivers/inv_mems_base_control.c **** 	
1553:.\20648_driver\drivers/inv_mems_base_control.c **** 	if(inv_sensor_control & PRESSURE_SET) {
1554:.\20648_driver\drivers/inv_mems_base_control.c **** 		rc = dmp_set_batchmode_params(timeout, SECONDARY_PRESSURE_AVAILABLE);
1555:.\20648_driver\drivers/inv_mems_base_control.c **** 	}
1556:.\20648_driver\drivers/inv_mems_base_control.c **** 	if(inv_sensor_control & CPASS_SET || inv_sensor_control & CPASS_CALIBR_SET) {
1557:.\20648_driver\drivers/inv_mems_base_control.c **** 		rc |= dmp_set_batchmode_params(timeout, SECONDARY_COMPASS_AVAILABLE);
1558:.\20648_driver\drivers/inv_mems_base_control.c **** 	}
1559:.\20648_driver\drivers/inv_mems_base_control.c **** 	
1560:.\20648_driver\drivers/inv_mems_base_control.c ****         return rc;
1561:.\20648_driver\drivers/inv_mems_base_control.c ****     }
1562:.\20648_driver\drivers/inv_mems_base_control.c **** #endif
1563:.\20648_driver\drivers/inv_mems_base_control.c **** 
1564:.\20648_driver\drivers/inv_mems_base_control.c ****     return -1;  // Call batch only when a sensor is enabled.
 895              		.loc 1 1564 0
 896 0042 0120     		mov	r0, #1
 897              	.LVL73:
 898 0044 4042     		neg	r0, r0
 899              	.LVL74:
 900              	.L107:
1565:.\20648_driver\drivers/inv_mems_base_control.c **** }    
 901              		.loc 1 1565 0
ARM GAS  C:\Users\ADMINI~1\AppData\Local\Temp\ccjTNAQQ.s 			page 45


 902              		@ sp needed
 903 0046 10BD     		pop	{r4, pc}
 904              	.L112:
 905              		.align	2
 906              	.L111:
 907 0048 00000000 		.word	.LANCHOR0
 908 004c 404C0000 		.word	19520
 909 0050 65040000 		.word	1125
 910              		.cfi_endproc
 911              	.LFE19:
 912              		.size	inv_set_batch_timeout, .-inv_set_batch_timeout
 913              		.section	.text.inv_set_batch_timeout_ms,"ax",%progbits
 914              		.align	1
 915              		.global	inv_set_batch_timeout_ms
 916              		.code	16
 917              		.thumb_func
 918              		.type	inv_set_batch_timeout_ms, %function
 919              	inv_set_batch_timeout_ms:
 920              	.LFB20:
1566:.\20648_driver\drivers/inv_mems_base_control.c **** 
1567:.\20648_driver\drivers/inv_mems_base_control.c **** inv_error_t inv_set_batch_timeout_ms(unsigned short batch_time_in_ms)
1568:.\20648_driver\drivers/inv_mems_base_control.c **** {
 921              		.loc 1 1568 0
 922              		.cfi_startproc
 923              	.LVL75:
1569:.\20648_driver\drivers/inv_mems_base_control.c **** 	unsigned int timeout = 0;
1570:.\20648_driver\drivers/inv_mems_base_control.c **** 
1571:.\20648_driver\drivers/inv_mems_base_control.c **** 	if(inv_sensor_control & GYRO_CALIBR_SET || inv_sensor_control & QUAT6_SET || inv_sensor_control & 
 924              		.loc 1 1571 0
 925 0000 154B     		ldr	r3, .L119
 926 0002 164A     		ldr	r2, .L119+4
 927 0004 5C33     		add	r3, r3, #92
 928 0006 1B88     		ldrh	r3, [r3]
1568:.\20648_driver\drivers/inv_mems_base_control.c **** 	unsigned int timeout = 0;
 929              		.loc 1 1568 0
 930 0008 10B5     		push	{r4, lr}
 931              		.cfi_def_cfa_offset 8
 932              		.cfi_offset 4, -8
 933              		.cfi_offset 14, -4
1568:.\20648_driver\drivers/inv_mems_base_control.c **** 	unsigned int timeout = 0;
 934              		.loc 1 1568 0
 935 000a 041C     		mov	r4, r0
 936              		.loc 1 1571 0
 937 000c 1342     		tst	r3, r2
 938 000e 0CD0     		beq	.L114
1572:.\20648_driver\drivers/inv_mems_base_control.c **** 		timeout = (unsigned int) ((batch_time_in_ms * (BASE_SAMPLE_RATE/ (inv_get_gyro_divider() + 1)))/1
 939              		.loc 1 1572 0
 940 0010 FFF7FEFF 		bl	inv_get_gyro_divider
 941              	.LVL76:
 942 0014 411C     		add	r1, r0, #1
 943 0016 1248     		ldr	r0, .L119+8
 944              	.LVL77:
 945 0018 FFF7FEFF 		bl	__aeabi_idiv
 946              	.LVL78:
 947 001c FA21     		mov	r1, #250
 948 001e 6043     		mul	r0, r4
 949 0020 8900     		lsl	r1, r1, #2
ARM GAS  C:\Users\ADMINI~1\AppData\Local\Temp\ccjTNAQQ.s 			page 46


 950 0022 FFF7FEFF 		bl	__aeabi_idiv
 951              	.LVL79:
1573:.\20648_driver\drivers/inv_mems_base_control.c **** 		return dmp_set_batchmode_params(timeout, GYRO_AVAILABLE);
 952              		.loc 1 1573 0
 953 0026 0121     		mov	r1, #1
 954 0028 10E0     		b	.L118
 955              	.LVL80:
 956              	.L114:
1574:.\20648_driver\drivers/inv_mems_base_control.c **** 	}
1575:.\20648_driver\drivers/inv_mems_base_control.c **** 
1576:.\20648_driver\drivers/inv_mems_base_control.c **** 	if(inv_sensor_control & ACCEL_SET
 957              		.loc 1 1576 0
 958 002a 1AB2     		sxth	r2, r3
 959 002c 002A     		cmp	r2, #0
 960 002e 01DB     		blt	.L116
1577:.\20648_driver\drivers/inv_mems_base_control.c **** #if (MEMS_CHIP == HW_ICM20648)
1578:.\20648_driver\drivers/inv_mems_base_control.c **** 		|| inv_sensor_control & GEOMAG_SET
 961              		.loc 1 1578 0
 962 0030 DB05     		lsl	r3, r3, #23
 963 0032 0ED5     		bpl	.L117
 964              	.L116:
1579:.\20648_driver\drivers/inv_mems_base_control.c **** #endif
1580:.\20648_driver\drivers/inv_mems_base_control.c **** 	) {    // If Accel is enabled and no Gyro based sensor is enabled.
1581:.\20648_driver\drivers/inv_mems_base_control.c **** 		timeout = (unsigned int) ((batch_time_in_ms * (BASE_SAMPLE_RATE/ (inv_get_accel_divider() + 1)))/
 965              		.loc 1 1581 0
 966 0034 FFF7FEFF 		bl	inv_get_accel_divider
 967              	.LVL81:
 968 0038 411C     		add	r1, r0, #1
 969 003a 0948     		ldr	r0, .L119+8
 970              	.LVL82:
 971 003c FFF7FEFF 		bl	__aeabi_idiv
 972              	.LVL83:
 973 0040 FA21     		mov	r1, #250
 974 0042 6043     		mul	r0, r4
 975 0044 8900     		lsl	r1, r1, #2
 976 0046 FFF7FEFF 		bl	__aeabi_idiv
 977              	.LVL84:
1582:.\20648_driver\drivers/inv_mems_base_control.c **** 		return dmp_set_batchmode_params(timeout, ACCEL_AVAILABLE);
 978              		.loc 1 1582 0
 979 004a 0221     		mov	r1, #2
 980              	.L118:
 981 004c FFF7FEFF 		bl	dmp_set_batchmode_params
 982              	.LVL85:
 983 0050 01E0     		b	.L115
 984              	.LVL86:
 985              	.L117:
1583:.\20648_driver\drivers/inv_mems_base_control.c **** 	}
1584:.\20648_driver\drivers/inv_mems_base_control.c ****     
1585:.\20648_driver\drivers/inv_mems_base_control.c **** #if defined MEMS_SECONDARY_DEVICE
1586:.\20648_driver\drivers/inv_mems_base_control.c **** 	if(inv_sensor_control & CPASS_SET || inv_sensor_control & CPASS_CALIBR_SET || inv_sensor_control &
1587:.\20648_driver\drivers/inv_mems_base_control.c **** 		int rc = 0;
1588:.\20648_driver\drivers/inv_mems_base_control.c **** 		
1589:.\20648_driver\drivers/inv_mems_base_control.c **** 		timeout = (unsigned int) ((batch_time_in_ms * (BASE_SAMPLE_RATE/ inv_get_secondary_divider()))/10
1590:.\20648_driver\drivers/inv_mems_base_control.c **** 		
1591:.\20648_driver\drivers/inv_mems_base_control.c **** 		if(inv_sensor_control & PRESSURE_SET) {
1592:.\20648_driver\drivers/inv_mems_base_control.c **** 			rc = dmp_set_batchmode_params(timeout, SECONDARY_PRESSURE_AVAILABLE);
1593:.\20648_driver\drivers/inv_mems_base_control.c **** 		}
ARM GAS  C:\Users\ADMINI~1\AppData\Local\Temp\ccjTNAQQ.s 			page 47


1594:.\20648_driver\drivers/inv_mems_base_control.c **** 		if(inv_sensor_control & CPASS_SET || inv_sensor_control & CPASS_CALIBR_SET) {
1595:.\20648_driver\drivers/inv_mems_base_control.c **** 			rc |= dmp_set_batchmode_params(timeout, SECONDARY_COMPASS_AVAILABLE);
1596:.\20648_driver\drivers/inv_mems_base_control.c **** 		}
1597:.\20648_driver\drivers/inv_mems_base_control.c **** 		
1598:.\20648_driver\drivers/inv_mems_base_control.c **** 		return rc;
1599:.\20648_driver\drivers/inv_mems_base_control.c **** 	}
1600:.\20648_driver\drivers/inv_mems_base_control.c **** #endif
1601:.\20648_driver\drivers/inv_mems_base_control.c **** 
1602:.\20648_driver\drivers/inv_mems_base_control.c **** 	return -1;  // Call batch only when a sensor is enabled.
 986              		.loc 1 1602 0
 987 0052 0120     		mov	r0, #1
 988              	.LVL87:
 989 0054 4042     		neg	r0, r0
 990              	.LVL88:
 991              	.L115:
1603:.\20648_driver\drivers/inv_mems_base_control.c **** }    
 992              		.loc 1 1603 0
 993              		@ sp needed
 994 0056 10BD     		pop	{r4, pc}
 995              	.L120:
 996              		.align	2
 997              	.L119:
 998 0058 00000000 		.word	.LANCHOR0
 999 005c 404C0000 		.word	19520
 1000 0060 65040000 		.word	1125
 1001              		.cfi_endproc
 1002              	.LFE20:
 1003              		.size	inv_set_batch_timeout_ms, .-inv_set_batch_timeout_ms
 1004              		.section	.text.inv_get_androidSensorsOn_mask,"ax",%progbits
 1005              		.align	1
 1006              		.global	inv_get_androidSensorsOn_mask
 1007              		.code	16
 1008              		.thumb_func
 1009              		.type	inv_get_androidSensorsOn_mask, %function
 1010              	inv_get_androidSensorsOn_mask:
 1011              	.LFB21:
1604:.\20648_driver\drivers/inv_mems_base_control.c **** 
1605:.\20648_driver\drivers/inv_mems_base_control.c **** /** Each bit corresponds to a sensor being on (Sensors 0 to 21)
1606:.\20648_driver\drivers/inv_mems_base_control.c **** */
1607:.\20648_driver\drivers/inv_mems_base_control.c **** unsigned long *inv_get_androidSensorsOn_mask()
1608:.\20648_driver\drivers/inv_mems_base_control.c **** {
 1012              		.loc 1 1608 0
 1013              		.cfi_startproc
1609:.\20648_driver\drivers/inv_mems_base_control.c ****     return inv_androidSensorsOn_mask;
 1014              		.loc 1 1609 0
 1015 0000 0148     		ldr	r0, .L122
1610:.\20648_driver\drivers/inv_mems_base_control.c **** }
 1016              		.loc 1 1610 0
 1017              		@ sp needed
 1018 0002 4C30     		add	r0, r0, #76
 1019 0004 7047     		bx	lr
 1020              	.L123:
 1021 0006 C046     		.align	2
 1022              	.L122:
 1023 0008 00000000 		.word	.LANCHOR0
 1024              		.cfi_endproc
 1025              	.LFE21:
ARM GAS  C:\Users\ADMINI~1\AppData\Local\Temp\ccjTNAQQ.s 			page 48


 1026              		.size	inv_get_androidSensorsOn_mask, .-inv_get_androidSensorsOn_mask
 1027              		.section	.text.inv_get_activitiy_classifier_on_flag,"ax",%progbits
 1028              		.align	1
 1029              		.global	inv_get_activitiy_classifier_on_flag
 1030              		.code	16
 1031              		.thumb_func
 1032              		.type	inv_get_activitiy_classifier_on_flag, %function
 1033              	inv_get_activitiy_classifier_on_flag:
 1034              	.LFB22:
1611:.\20648_driver\drivers/inv_mems_base_control.c **** 
1612:.\20648_driver\drivers/inv_mems_base_control.c **** #if (MEMS_CHIP == HW_ICM20645_E || MEMS_CHIP == HW_ICM20648 )
1613:.\20648_driver\drivers/inv_mems_base_control.c **** unsigned short inv_get_activitiy_classifier_on_flag()
1614:.\20648_driver\drivers/inv_mems_base_control.c **** {
 1035              		.loc 1 1614 0
 1036              		.cfi_startproc
1615:.\20648_driver\drivers/inv_mems_base_control.c **** 	return bac_on;
 1037              		.loc 1 1615 0
 1038 0000 014B     		ldr	r3, .L125
1616:.\20648_driver\drivers/inv_mems_base_control.c **** }
 1039              		.loc 1 1616 0
 1040              		@ sp needed
1615:.\20648_driver\drivers/inv_mems_base_control.c **** 	return bac_on;
 1041              		.loc 1 1615 0
 1042 0002 5433     		add	r3, r3, #84
 1043 0004 1888     		ldrh	r0, [r3]
 1044              		.loc 1 1616 0
 1045 0006 7047     		bx	lr
 1046              	.L126:
 1047              		.align	2
 1048              	.L125:
 1049 0008 00000000 		.word	.LANCHOR0
 1050              		.cfi_endproc
 1051              	.LFE22:
 1052              		.size	inv_get_activitiy_classifier_on_flag, .-inv_get_activitiy_classifier_on_flag
 1053              		.section	.text.inv_set_accel_quaternion_gain,"ax",%progbits
 1054              		.align	1
 1055              		.global	inv_set_accel_quaternion_gain
 1056              		.code	16
 1057              		.thumb_func
 1058              		.type	inv_set_accel_quaternion_gain, %function
 1059              	inv_set_accel_quaternion_gain:
 1060              	.LFB23:
1617:.\20648_driver\drivers/inv_mems_base_control.c **** #endif
1618:.\20648_driver\drivers/inv_mems_base_control.c **** 
1619:.\20648_driver\drivers/inv_mems_base_control.c **** /** @brief Sets accel quaternion gain according to accel engine rate.
1620:.\20648_driver\drivers/inv_mems_base_control.c **** * @param[in] hw_smplrt_divider  hardware sample rate divider such that accel engine rate = 1125Hz/h
1621:.\20648_driver\drivers/inv_mems_base_control.c **** * @return 0 in case of success, -1 for any error
1622:.\20648_driver\drivers/inv_mems_base_control.c **** */
1623:.\20648_driver\drivers/inv_mems_base_control.c **** inv_error_t inv_set_accel_quaternion_gain(unsigned short hw_smplrt_divider)
1624:.\20648_driver\drivers/inv_mems_base_control.c **** {
 1061              		.loc 1 1624 0
 1062              		.cfi_startproc
 1063              	.LVL89:
 1064 0000 0A38     		sub	r0, r0, #10
 1065              	.LVL90:
 1066 0002 80B2     		uxth	r0, r0
 1067 0004 08B5     		push	{r3, lr}
ARM GAS  C:\Users\ADMINI~1\AppData\Local\Temp\ccjTNAQQ.s 			page 49


 1068              		.cfi_def_cfa_offset 8
 1069              		.cfi_offset 3, -8
 1070              		.cfi_offset 14, -4
 1071 0006 0C28     		cmp	r0, #12
 1072 0008 03D8     		bhi	.L129
 1073 000a 044B     		ldr	r3, .L130
 1074 000c 8000     		lsl	r0, r0, #2
 1075 000e C058     		ldr	r0, [r0, r3]
 1076 0010 00E0     		b	.L128
 1077              	.L129:
 1078              		.loc 1 1624 0
 1079 0012 0348     		ldr	r0, .L130+4
 1080              	.L128:
 1081              	.LVL91:
1625:.\20648_driver\drivers/inv_mems_base_control.c ****     inv_error_t result = INV_SUCCESS;
1626:.\20648_driver\drivers/inv_mems_base_control.c ****     int accel_gain = 15252014L; //set 225Hz gain as default
1627:.\20648_driver\drivers/inv_mems_base_control.c **** 
1628:.\20648_driver\drivers/inv_mems_base_control.c ****     switch (hw_smplrt_divider) {
1629:.\20648_driver\drivers/inv_mems_base_control.c ****         case 5:     //1125Hz/5 = 225Hz
1630:.\20648_driver\drivers/inv_mems_base_control.c ****             accel_gain = 15252014L;
1631:.\20648_driver\drivers/inv_mems_base_control.c ****             break;
1632:.\20648_driver\drivers/inv_mems_base_control.c ****         case 10:    //1125Hz/10 = 112Hz
1633:.\20648_driver\drivers/inv_mems_base_control.c ****             accel_gain = 30504029L;
1634:.\20648_driver\drivers/inv_mems_base_control.c ****             break;
1635:.\20648_driver\drivers/inv_mems_base_control.c ****         case 11:    //1125Hz/11 = 102Hz
1636:.\20648_driver\drivers/inv_mems_base_control.c ****             accel_gain = 33554432L;
1637:.\20648_driver\drivers/inv_mems_base_control.c ****             break;
1638:.\20648_driver\drivers/inv_mems_base_control.c ****         case 22:    //1125Hz/22 = 51Hz
1639:.\20648_driver\drivers/inv_mems_base_control.c ****             accel_gain = 67108864L;
1640:.\20648_driver\drivers/inv_mems_base_control.c ****             break;
1641:.\20648_driver\drivers/inv_mems_base_control.c ****         default:
1642:.\20648_driver\drivers/inv_mems_base_control.c ****             accel_gain = 15252014L;
1643:.\20648_driver\drivers/inv_mems_base_control.c ****             break;
1644:.\20648_driver\drivers/inv_mems_base_control.c ****     }
1645:.\20648_driver\drivers/inv_mems_base_control.c **** 
1646:.\20648_driver\drivers/inv_mems_base_control.c ****     result = dmp_set_accel_feedback_gain(accel_gain);
 1082              		.loc 1 1646 0
 1083 0014 FFF7FEFF 		bl	dmp_set_accel_feedback_gain
 1084              	.LVL92:
1647:.\20648_driver\drivers/inv_mems_base_control.c **** 
1648:.\20648_driver\drivers/inv_mems_base_control.c ****     return result;
1649:.\20648_driver\drivers/inv_mems_base_control.c **** }
 1085              		.loc 1 1649 0
 1086              		@ sp needed
 1087 0018 08BD     		pop	{r3, pc}
 1088              	.L131:
 1089 001a C046     		.align	2
 1090              	.L130:
 1091 001c 00000000 		.word	.LANCHOR2
 1092 0020 2EBAE800 		.word	15252014
 1093              		.cfi_endproc
 1094              	.LFE23:
 1095              		.size	inv_set_accel_quaternion_gain, .-inv_set_accel_quaternion_gain
 1096              		.section	.text.inv_set_accel_cal_params,"ax",%progbits
 1097              		.align	1
 1098              		.global	inv_set_accel_cal_params
 1099              		.code	16
ARM GAS  C:\Users\ADMINI~1\AppData\Local\Temp\ccjTNAQQ.s 			page 50


 1100              		.thumb_func
 1101              		.type	inv_set_accel_cal_params, %function
 1102              	inv_set_accel_cal_params:
 1103              	.LFB24:
1650:.\20648_driver\drivers/inv_mems_base_control.c **** 
1651:.\20648_driver\drivers/inv_mems_base_control.c **** inv_error_t inv_set_accel_cal_params(unsigned short hw_smplrt_divider)
1652:.\20648_driver\drivers/inv_mems_base_control.c **** {
 1104              		.loc 1 1652 0
 1105              		.cfi_startproc
 1106              	.LVL93:
 1107 0000 1FB5     		push	{r0, r1, r2, r3, r4, lr}
 1108              		.cfi_def_cfa_offset 24
 1109              		.cfi_offset 0, -24
 1110              		.cfi_offset 1, -20
 1111              		.cfi_offset 2, -16
 1112              		.cfi_offset 3, -12
 1113              		.cfi_offset 4, -8
 1114              		.cfi_offset 14, -4
 1115              		.loc 1 1652 0
 1116 0002 041C     		mov	r4, r0
1653:.\20648_driver\drivers/inv_mems_base_control.c ****     inv_error_t result = INV_SUCCESS;
1654:.\20648_driver\drivers/inv_mems_base_control.c ****     int accel_cal_params[NUM_ACCEL_CAL_PARAMS] = {0};
 1117              		.loc 1 1654 0
 1118 0004 0021     		mov	r1, #0
 1119 0006 01A8     		add	r0, sp, #4
 1120              	.LVL94:
 1121 0008 0C22     		mov	r2, #12
 1122 000a FFF7FEFF 		bl	memset
 1123              	.LVL95:
1655:.\20648_driver\drivers/inv_mems_base_control.c **** 
1656:.\20648_driver\drivers/inv_mems_base_control.c ****     if (hw_smplrt_divider <= 5) { // freq = 225Hz
 1124              		.loc 1 1656 0
 1125 000e 052C     		cmp	r4, #5
 1126 0010 03D8     		bhi	.L133
1657:.\20648_driver\drivers/inv_mems_base_control.c ****         accel_cal_params[ACCEL_CAL_ALPHA_VAR] = 1026019965L;
 1127              		.loc 1 1657 0
 1128 0012 184B     		ldr	r3, .L141
 1129 0014 0193     		str	r3, [sp, #4]
1658:.\20648_driver\drivers/inv_mems_base_control.c ****         accel_cal_params[ACCEL_CAL_A_VAR] = 47721859L;
 1130              		.loc 1 1658 0
 1131 0016 184B     		ldr	r3, .L141+4
 1132 0018 25E0     		b	.L140
 1133              	.L133:
1659:.\20648_driver\drivers/inv_mems_base_control.c ****     } else if (hw_smplrt_divider <= 10) { // 225Hz > freq >= 112Hz
 1134              		.loc 1 1659 0
 1135 001a 0A2C     		cmp	r4, #10
 1136 001c 03D8     		bhi	.L135
1660:.\20648_driver\drivers/inv_mems_base_control.c ****         accel_cal_params[ACCEL_CAL_ALPHA_VAR] = 977872018L;
 1137              		.loc 1 1660 0
 1138 001e 174B     		ldr	r3, .L141+8
 1139 0020 0193     		str	r3, [sp, #4]
1661:.\20648_driver\drivers/inv_mems_base_control.c ****         accel_cal_params[ACCEL_CAL_A_VAR] = 95869806L;
 1140              		.loc 1 1661 0
 1141 0022 174B     		ldr	r3, .L141+12
 1142 0024 1FE0     		b	.L140
 1143              	.L135:
1662:.\20648_driver\drivers/inv_mems_base_control.c ****     } else if (hw_smplrt_divider <= 11) { // 112Hz > freq >= 102Hz
ARM GAS  C:\Users\ADMINI~1\AppData\Local\Temp\ccjTNAQQ.s 			page 51


 1144              		.loc 1 1662 0
 1145 0026 0B2C     		cmp	r4, #11
 1146 0028 06D1     		bne	.L136
1663:.\20648_driver\drivers/inv_mems_base_control.c ****         accel_cal_params[ACCEL_CAL_ALPHA_VAR] = 858993459L;
 1147              		.loc 1 1663 0
 1148 002a 164B     		ldr	r3, .L141+16
 1149 002c 0193     		str	r3, [sp, #4]
1664:.\20648_driver\drivers/inv_mems_base_control.c ****         accel_cal_params[ACCEL_CAL_A_VAR] = 214748365L;
 1150              		.loc 1 1664 0
 1151 002e 164B     		ldr	r3, .L141+20
 1152 0030 0293     		str	r3, [sp, #8]
1665:.\20648_driver\drivers/inv_mems_base_control.c ****         accel_cal_params[ACCEL_CAL_DIV] = 1;
 1153              		.loc 1 1665 0
 1154 0032 0123     		mov	r3, #1
 1155 0034 0393     		str	r3, [sp, #12]
 1156 0036 17E0     		b	.L134
 1157              	.L136:
1666:.\20648_driver\drivers/inv_mems_base_control.c ****     } else if (hw_smplrt_divider <= 20) { // 102Hz > freq >= 56Hz
 1158              		.loc 1 1666 0
 1159 0038 142C     		cmp	r4, #20
 1160 003a 03D8     		bhi	.L137
1667:.\20648_driver\drivers/inv_mems_base_control.c ****         accel_cal_params[ACCEL_CAL_ALPHA_VAR] = 882002213L;
 1161              		.loc 1 1667 0
 1162 003c 134B     		ldr	r3, .L141+24
 1163 003e 0193     		str	r3, [sp, #4]
1668:.\20648_driver\drivers/inv_mems_base_control.c ****         accel_cal_params[ACCEL_CAL_A_VAR] = 191739611L;
 1164              		.loc 1 1668 0
 1165 0040 134B     		ldr	r3, .L141+28
 1166 0042 10E0     		b	.L140
 1167              	.L137:
1669:.\20648_driver\drivers/inv_mems_base_control.c ****     } else if (hw_smplrt_divider <= 22) { // 56Hz > freq >= 51Hz
 1168              		.loc 1 1669 0
 1169 0044 162C     		cmp	r4, #22
 1170 0046 03D8     		bhi	.L138
1670:.\20648_driver\drivers/inv_mems_base_control.c ****         accel_cal_params[ACCEL_CAL_ALPHA_VAR] = 858993459L;
 1171              		.loc 1 1670 0
 1172 0048 0E4B     		ldr	r3, .L141+16
 1173 004a 0193     		str	r3, [sp, #4]
1671:.\20648_driver\drivers/inv_mems_base_control.c ****         accel_cal_params[ACCEL_CAL_A_VAR] = 214748365L;
 1174              		.loc 1 1671 0
 1175 004c 0E4B     		ldr	r3, .L141+20
 1176 004e 0AE0     		b	.L140
 1177              	.L138:
1672:.\20648_driver\drivers/inv_mems_base_control.c ****     } else if (hw_smplrt_divider <= 75) { // 51Hz > freq >= 15Hz
 1178              		.loc 1 1672 0
 1179 0050 4B2C     		cmp	r4, #75
 1180 0052 03D8     		bhi	.L139
1673:.\20648_driver\drivers/inv_mems_base_control.c ****         accel_cal_params[ACCEL_CAL_ALPHA_VAR] = 357913941L;
 1181              		.loc 1 1673 0
 1182 0054 0F4B     		ldr	r3, .L141+32
 1183 0056 0193     		str	r3, [sp, #4]
1674:.\20648_driver\drivers/inv_mems_base_control.c ****         accel_cal_params[ACCEL_CAL_A_VAR] = 715827883L;
 1184              		.loc 1 1674 0
 1185 0058 0F4B     		ldr	r3, .L141+36
 1186 005a 04E0     		b	.L140
 1187              	.L139:
1675:.\20648_driver\drivers/inv_mems_base_control.c ****     } else if (hw_smplrt_divider <= 225) { // 15Hz > freq >= 5Hz
ARM GAS  C:\Users\ADMINI~1\AppData\Local\Temp\ccjTNAQQ.s 			page 52


 1188              		.loc 1 1675 0
 1189 005c E12C     		cmp	r4, #225
 1190 005e 03D8     		bhi	.L134
1676:.\20648_driver\drivers/inv_mems_base_control.c ****         accel_cal_params[ACCEL_CAL_ALPHA_VAR] = 107374182L;
 1191              		.loc 1 1676 0
 1192 0060 0E4B     		ldr	r3, .L141+40
 1193 0062 0193     		str	r3, [sp, #4]
1677:.\20648_driver\drivers/inv_mems_base_control.c ****         accel_cal_params[ACCEL_CAL_A_VAR] = 966367642L;
 1194              		.loc 1 1677 0
 1195 0064 0E4B     		ldr	r3, .L141+44
 1196              	.L140:
 1197 0066 0293     		str	r3, [sp, #8]
 1198              	.L134:
1678:.\20648_driver\drivers/inv_mems_base_control.c ****     }
1679:.\20648_driver\drivers/inv_mems_base_control.c **** 
1680:.\20648_driver\drivers/inv_mems_base_control.c ****     result = dmp_set_accel_cal_params(accel_cal_params);
 1199              		.loc 1 1680 0
 1200 0068 01A8     		add	r0, sp, #4
 1201 006a FFF7FEFF 		bl	dmp_set_accel_cal_params
 1202              	.LVL96:
1681:.\20648_driver\drivers/inv_mems_base_control.c **** 
1682:.\20648_driver\drivers/inv_mems_base_control.c ****     return result;
1683:.\20648_driver\drivers/inv_mems_base_control.c **** }
 1203              		.loc 1 1683 0
 1204 006e 04B0     		add	sp, sp, #16
 1205              		@ sp needed
 1206 0070 10BD     		pop	{r4, pc}
 1207              	.L142:
 1208 0072 C046     		.align	2
 1209              	.L141:
 1210 0074 7DD2273D 		.word	1026019965
 1211 0078 832DD802 		.word	47721859
 1212 007c 9224493A 		.word	977872018
 1213 0080 6EDBB605 		.word	95869806
 1214 0084 33333333 		.word	858993459
 1215 0088 CDCCCC0C 		.word	214748365
 1216 008c 25499234 		.word	882002213
 1217 0090 DBB66D0B 		.word	191739611
 1218 0094 55555515 		.word	357913941
 1219 0098 ABAAAA2A 		.word	715827883
 1220 009c 66666606 		.word	107374182
 1221 00a0 9A999939 		.word	966367642
 1222              		.cfi_endproc
 1223              	.LFE24:
 1224              		.size	inv_set_accel_cal_params, .-inv_set_accel_cal_params
 1225              		.section	.text.inv_set_hw_smplrt_dmp_odrs,"ax",%progbits
 1226              		.align	1
 1227              		.global	inv_set_hw_smplrt_dmp_odrs
 1228              		.code	16
 1229              		.thumb_func
 1230              		.type	inv_set_hw_smplrt_dmp_odrs, %function
 1231              	inv_set_hw_smplrt_dmp_odrs:
 1232              	.LFB6:
 489:.\20648_driver\drivers/inv_mems_base_control.c ****     inv_error_t result = 0;
 1233              		.loc 1 489 0
 1234              		.cfi_startproc
 1235              	.LVL97:
ARM GAS  C:\Users\ADMINI~1\AppData\Local\Temp\ccjTNAQQ.s 			page 53


 1236 0000 F7B5     		push	{r0, r1, r2, r4, r5, r6, r7, lr}
 1237              		.cfi_def_cfa_offset 32
 1238              		.cfi_offset 0, -32
 1239              		.cfi_offset 1, -28
 1240              		.cfi_offset 2, -24
 1241              		.cfi_offset 4, -20
 1242              		.cfi_offset 5, -16
 1243              		.cfi_offset 6, -12
 1244              		.cfi_offset 7, -8
 1245              		.cfi_offset 14, -4
 1246              	.LBB52:
 1247              	.LBB53:
 415:.\20648_driver\drivers/inv_mems_base_control.c **** 
 1248              		.loc 1 415 0
 1249 0002 844D     		ldr	r5, .L194
 1250 0004 1421     		mov	r1, #20
 1251 0006 281C     		mov	r0, r5
 1252 0008 3430     		add	r0, r0, #52
 1253 000a FFF7FEFF 		bl	MinDelayGenActual
 1254              	.LVL98:
 418:.\20648_driver\drivers/inv_mems_base_control.c **** #endif
 1255              		.loc 1 418 0
 1256 000e 824F     		ldr	r7, .L194+4
 415:.\20648_driver\drivers/inv_mems_base_control.c **** 
 1257              		.loc 1 415 0
 1258 0010 041C     		mov	r4, r0
 1259              	.LVL99:
 418:.\20648_driver\drivers/inv_mems_base_control.c **** #endif
 1260              		.loc 1 418 0
 1261 0012 3B1C     		mov	r3, r7
 1262 0014 5633     		add	r3, r3, #86
 1263 0016 1B88     		ldrh	r3, [r3]
 1264 0018 0195     		str	r5, [sp, #4]
 1265 001a 002B     		cmp	r3, #0
 1266 001c 06D0     		beq	.L144
 1267 001e 7F4B     		ldr	r3, .L194+8
 1268 0020 041C     		add	r4, r0, #0
 1269 0022 5B8B     		ldrh	r3, [r3, #26]
 1270 0024 9842     		cmp	r0, r3
 1271 0026 00D9     		bls	.L145
 1272 0028 1C1C     		add	r4, r3, #0
 1273              	.L145:
 1274 002a A4B2     		uxth	r4, r4
 1275              	.LVL100:
 1276              	.L144:
 420:.\20648_driver\drivers/inv_mems_base_control.c ****     if	(b2s_status != 0)           lMinOdr	=	min	(	lMinOdr, inv_dmp_odr_delays	[INV_SENSOR_BRING_TO
 1277              		.loc 1 420 0
 1278 002c 3B1C     		mov	r3, r7
 1279 002e 5E33     		add	r3, r3, #94
 1280 0030 1B88     		ldrh	r3, [r3]
 1281 0032 002B     		cmp	r3, #0
 1282 0034 06D0     		beq	.L146
 1283 0036 794B     		ldr	r3, .L194+8
 1284 0038 9A8B     		ldrh	r2, [r3, #28]
 1285 003a 231C     		add	r3, r4, #0
 1286 003c 9442     		cmp	r4, r2
 1287 003e 00D9     		bls	.L147
ARM GAS  C:\Users\ADMINI~1\AppData\Local\Temp\ccjTNAQQ.s 			page 54


 1288 0040 131C     		add	r3, r2, #0
 1289              	.L147:
 1290 0042 9CB2     		uxth	r4, r3
 1291              	.LVL101:
 1292              	.L146:
 421:.\20648_driver\drivers/inv_mems_base_control.c **** 	
 1293              		.loc 1 421 0
 1294 0044 3B1C     		mov	r3, r7
 1295 0046 6033     		add	r3, r3, #96
 1296 0048 1B88     		ldrh	r3, [r3]
 1297 004a 002B     		cmp	r3, #0
 1298 004c 06D0     		beq	.L148
 1299 004e 734B     		ldr	r3, .L194+8
 1300 0050 DA8B     		ldrh	r2, [r3, #30]
 1301 0052 231C     		add	r3, r4, #0
 1302 0054 9442     		cmp	r4, r2
 1303 0056 00D9     		bls	.L149
 1304 0058 131C     		add	r3, r2, #0
 1305              	.L149:
 1306 005a 9CB2     		uxth	r4, r3
 1307              	.LVL102:
 1308              	.L148:
 426:.\20648_driver\drivers/inv_mems_base_control.c ****                                     lMinOdr	=	min	(	lMinOdr, 5	 );
 1309              		.loc 1 426 0
 1310 005c 3B6D     		ldr	r3, [r7, #80]
 1311 005e 1B06     		lsl	r3, r3, #24
 1312 0060 02D4     		bmi	.L150
 1313              	.LVL103:
 1314 0062 FB6C     		ldr	r3, [r7, #76]
 1315 0064 DB02     		lsl	r3, r3, #11
 1316 0066 04D5     		bpl	.L151
 1317              	.LVL104:
 1318              	.L150:
 427:.\20648_driver\drivers/inv_mems_base_control.c **** 	/** To have correct algorithm performance and quick convergence of RV, it is advised to set accele
 1319              		.loc 1 427 0
 1320 0068 231C     		add	r3, r4, #0
 1321 006a 052C     		cmp	r4, #5
 1322 006c 00D9     		bls	.L152
 1323              	.LVL105:
 1324 006e 0523     		mov	r3, #5
 1325              	.LVL106:
 1326              	.L152:
 1327 0070 9CB2     		uxth	r4, r3
 1328              	.LVL107:
 1329              	.L151:
 1330 0072 6B4D     		ldr	r5, .L194+12
 1331 0074 FB6C     		ldr	r3, [r7, #76]
 1332 0076 1D40     		and	r5, r3
 430:.\20648_driver\drivers/inv_mems_base_control.c ****                                     lMinOdr	=	min	(	lMinOdr, 5	 );
 1333              		.loc 1 430 0
 1334 0078 04D0     		beq	.L153
 431:.\20648_driver\drivers/inv_mems_base_control.c **** #endif
 1335              		.loc 1 431 0
 1336 007a 231C     		add	r3, r4, #0
 1337 007c 052C     		cmp	r4, #5
 1338 007e 00D9     		bls	.L154
 1339 0080 0523     		mov	r3, #5
ARM GAS  C:\Users\ADMINI~1\AppData\Local\Temp\ccjTNAQQ.s 			page 55


 1340              	.L154:
 1341 0082 9CB2     		uxth	r4, r3
 1342              	.LVL108:
 1343              	.L153:
 1344              	.LBE53:
 1345              	.LBE52:
 1346              	.LBB54:
 1347              	.LBB55:
 442:.\20648_driver\drivers/inv_mems_base_control.c **** #if (MEMS_CHIP == HW_ICM30630)
 1348              		.loc 1 442 0
 1349 0084 0198     		ldr	r0, [sp, #4]
 1350 0086 0E21     		mov	r1, #14
 1351 0088 5C30     		add	r0, r0, #92
 1352 008a FFF7FEFF 		bl	MinDelayGenActual
 1353              	.LVL109:
 1354 008e 061C     		mov	r6, r0
 1355              	.LVL110:
 451:.\20648_driver\drivers/inv_mems_base_control.c ****                                     lMinOdr	=	min	(	lMinOdr, 5	 );
 1356              		.loc 1 451 0
 1357 0090 002D     		cmp	r5, #0
 1358 0092 04D0     		beq	.L155
 452:.\20648_driver\drivers/inv_mems_base_control.c **** #endif
 1359              		.loc 1 452 0
 1360 0094 061C     		add	r6, r0, #0
 1361 0096 0528     		cmp	r0, #5
 1362 0098 00D9     		bls	.L156
 1363 009a 0526     		mov	r6, #5
 1364              	.L156:
 1365 009c B6B2     		uxth	r6, r6
 1366              	.LVL111:
 1367              	.L155:
 1368              	.LBE55:
 1369              	.LBE54:
 517:.\20648_driver\drivers/inv_mems_base_control.c **** #if defined MEMS_SECONDARY_DEVICE
 1370              		.loc 1 517 0
 1371 009e 331C     		add	r3, r6, #0
 1372 00a0 A642     		cmp	r6, r4
 1373 00a2 00D9     		bls	.L157
 1374 00a4 231C     		add	r3, r4, #0
 1375              	.L157:
 523:.\20648_driver\drivers/inv_mems_base_control.c ****     if (minDly_gyro  != 0xFFFF)	        minDly_gyro  = minDly;
 1376              		.loc 1 523 0
 1377 00a6 5F4A     		ldr	r2, .L194+16
 517:.\20648_driver\drivers/inv_mems_base_control.c **** #if defined MEMS_SECONDARY_DEVICE
 1378              		.loc 1 517 0
 1379 00a8 9BB2     		uxth	r3, r3
 1380              	.LVL112:
 523:.\20648_driver\drivers/inv_mems_base_control.c ****     if (minDly_gyro  != 0xFFFF)	        minDly_gyro  = minDly;
 1381              		.loc 1 523 0
 1382 00aa 9442     		cmp	r4, r2
 1383 00ac 00D1     		bne	.LCB1348
 1384 00ae ACE0     		b	.L158	@long jump
 1385              	.LCB1348:
 1386              	.LVL113:
 524:.\20648_driver\drivers/inv_mems_base_control.c **** #if defined MEMS_SECONDARY_DEVICE
 1387              		.loc 1 524 0
 1388 00b0 9642     		cmp	r6, r2
ARM GAS  C:\Users\ADMINI~1\AppData\Local\Temp\ccjTNAQQ.s 			page 56


 1389 00b2 00D1     		bne	.LCB1351
 1390 00b4 A4E0     		b	.L159	@long jump
 1391              	.LCB1351:
 1392              	.LVL114:
 490:.\20648_driver\drivers/inv_mems_base_control.c **** 
 1393              		.loc 1 490 0
 1394 00b6 0025     		mov	r5, #0
 534:.\20648_driver\drivers/inv_mems_base_control.c **** 	{
 1395              		.loc 1 534 0
 1396 00b8 9342     		cmp	r3, r2
 1397 00ba 00D1     		bne	.LCB1356
 1398 00bc A8E0     		b	.L179	@long jump
 1399              	.LCB1356:
 1400 00be 1E1C     		mov	r6, r3
 1401              	.LVL115:
 1402              	.L167:
 1403              	.LBB56:
 1404              	.LBB57:
 1405              	.LBB58:
 404:.\20648_driver\drivers/inv_mems_base_control.c ****     return			Delay * 1125L / 1000L;      // a divider from 1125Hz.
 1406              		.loc 1 404 0
 1407 00c0 181C     		add	r0, r3, #0
 1408 00c2 C82B     		cmp	r3, #200
 1409 00c4 00D9     		bls	.L161
 1410 00c6 C820     		mov	r0, #200
 1411              	.L161:
 405:.\20648_driver\drivers/inv_mems_base_control.c **** }	//	end of SampleRateDividerGet()
 1412              		.loc 1 405 0
 1413 00c8 FA21     		mov	r1, #250
 1414 00ca 574B     		ldr	r3, .L194+20
 1415              	.LVL116:
 1416 00cc 80B2     		uxth	r0, r0
 1417 00ce 5843     		mul	r0, r3
 1418 00d0 8900     		lsl	r1, r1, #2
 1419 00d2 FFF7FEFF 		bl	__aeabi_idiv
 1420              	.LVL117:
 1421              	.LBE58:
 1422              	.LBE57:
 540:.\20648_driver\drivers/inv_mems_base_control.c **** 		{
 1423              		.loc 1 540 0
 1424 00d6 514B     		ldr	r3, .L194+8
 1425              	.LBB60:
 1426              	.LBB59:
 405:.\20648_driver\drivers/inv_mems_base_control.c **** }	//	end of SampleRateDividerGet()
 1427              		.loc 1 405 0
 1428 00d8 84B2     		uxth	r4, r0
 1429              	.LVL118:
 1430              	.LBE59:
 1431              	.LBE60:
 540:.\20648_driver\drivers/inv_mems_base_control.c **** 		{
 1432              		.loc 1 540 0
 1433 00da 4A33     		add	r3, r3, #74
 1434 00dc 0093     		str	r3, [sp]
 1435 00de 1B88     		ldrh	r3, [r3]
 1436              	.LBE56:
 490:.\20648_driver\drivers/inv_mems_base_control.c **** 
 1437              		.loc 1 490 0
ARM GAS  C:\Users\ADMINI~1\AppData\Local\Temp\ccjTNAQQ.s 			page 57


 1438 00e0 0025     		mov	r5, #0
 1439              	.LBB64:
 540:.\20648_driver\drivers/inv_mems_base_control.c **** 		{
 1440              		.loc 1 540 0
 1441 00e2 A342     		cmp	r3, r4
 1442 00e4 0ED0     		beq	.L162
 542:.\20648_driver\drivers/inv_mems_base_control.c **** 			result	|=	inv_set_accel_cal_params		(hw_smplrt_divider);
 1443              		.loc 1 542 0
 1444 00e6 201C     		mov	r0, r4
 1445 00e8 FFF7FEFF 		bl	inv_set_accel_quaternion_gain
 1446              	.LVL119:
 1447 00ec 051C     		mov	r5, r0
 1448              	.LVL120:
 543:.\20648_driver\drivers/inv_mems_base_control.c **** 			result	|=	inv_set_accel_divider			(hw_smplrt_divider - 1);
 1449              		.loc 1 543 0
 1450 00ee 201C     		mov	r0, r4
 1451              	.LVL121:
 1452 00f0 FFF7FEFF 		bl	inv_set_accel_cal_params
 1453              	.LVL122:
 1454 00f4 0543     		orr	r5, r0
 1455              	.LVL123:
 544:.\20648_driver\drivers/inv_mems_base_control.c **** 			lLastHwSmplrtDivider = hw_smplrt_divider;
 1456              		.loc 1 544 0
 1457 00f6 601E     		sub	r0, r4, #1
 1458 00f8 00B2     		sxth	r0, r0
 1459 00fa FFF7FEFF 		bl	inv_set_accel_divider
 1460              	.LVL124:
 545:.\20648_driver\drivers/inv_mems_base_control.c **** 		}
 1461              		.loc 1 545 0
 1462 00fe 009B     		ldr	r3, [sp]
 544:.\20648_driver\drivers/inv_mems_base_control.c **** 			lLastHwSmplrtDivider = hw_smplrt_divider;
 1463              		.loc 1 544 0
 1464 0100 0543     		orr	r5, r0
 1465              	.LVL125:
 545:.\20648_driver\drivers/inv_mems_base_control.c **** 		}
 1466              		.loc 1 545 0
 1467 0102 1C80     		strh	r4, [r3]
 1468              	.LVL126:
 1469              	.L162:
 548:.\20648_driver\drivers/inv_mems_base_control.c **** 		result			|=	DividerRateSet	(MinDelayGen		(MinDelayGenAccel3List), hw_smplrt_divider, INV_SENSOR_G
 1470              		.loc 1 548 0
 1471 0104 0198     		ldr	r0, [sp, #4]
 1472 0106 0421     		mov	r1, #4
 1473 0108 7830     		add	r0, r0, #120
 1474 010a FFF7FEFF 		bl	MinDelayGenActual
 1475              	.LVL127:
 1476 010e 0022     		mov	r2, #0
 1477 0110 211C     		mov	r1, r4
 1478 0112 FFF7FEFF 		bl	DividerRateSet
 1479              	.LVL128:
 1480 0116 2843     		orr	r0, r5
 549:.\20648_driver\drivers/inv_mems_base_control.c **** 	
 1481              		.loc 1 549 0
 1482 0118 444D     		ldr	r5, .L194+24
 1483              	.LVL129:
 548:.\20648_driver\drivers/inv_mems_base_control.c **** 		result			|=	DividerRateSet	(MinDelayGen		(MinDelayGenAccel3List), hw_smplrt_divider, INV_SENSOR_G
 1484              		.loc 1 548 0
ARM GAS  C:\Users\ADMINI~1\AppData\Local\Temp\ccjTNAQQ.s 			page 58


 1485 011a 0090     		str	r0, [sp]
 1486              	.LVL130:
 549:.\20648_driver\drivers/inv_mems_base_control.c **** 	
 1487              		.loc 1 549 0
 1488 011c 0221     		mov	r1, #2
 1489 011e 281C     		mov	r0, r5
 1490              	.LVL131:
 1491 0120 FFF7FEFF 		bl	MinDelayGenActual
 1492              	.LVL132:
 1493 0124 0722     		mov	r2, #7
 1494 0126 211C     		mov	r1, r4
 1495 0128 FFF7FEFF 		bl	DividerRateSet
 1496              	.LVL133:
 1497 012c 009B     		ldr	r3, [sp]
 552:.\20648_driver\drivers/inv_mems_base_control.c **** #endif
 1498              		.loc 1 552 0
 1499 012e 0521     		mov	r1, #5
 549:.\20648_driver\drivers/inv_mems_base_control.c **** 	
 1500              		.loc 1 549 0
 1501 0130 0343     		orr	r3, r0
 552:.\20648_driver\drivers/inv_mems_base_control.c **** #endif
 1502              		.loc 1 552 0
 1503 0132 281D     		add	r0, r5, #4
 549:.\20648_driver\drivers/inv_mems_base_control.c **** 	
 1504              		.loc 1 549 0
 1505 0134 0093     		str	r3, [sp]
 1506              	.LVL134:
 552:.\20648_driver\drivers/inv_mems_base_control.c **** #endif
 1507              		.loc 1 552 0
 1508 0136 FFF7FEFF 		bl	MinDelayGenActual
 1509              	.LVL135:
 1510 013a 0C22     		mov	r2, #12
 1511 013c 211C     		mov	r1, r4
 1512 013e FFF7FEFF 		bl	DividerRateSet
 1513              	.LVL136:
 1514 0142 009B     		ldr	r3, [sp]
 1515              	.LBB61:
 556:.\20648_driver\drivers/inv_mems_base_control.c **** 			if	(bac_status != 0)				lStepCounterMinDly = min(lStepCounterMinDly, inv_dmp_odr_delays[INV_SENS
 1516              		.loc 1 556 0
 1517 0144 0121     		mov	r1, #1
 1518              	.LBE61:
 552:.\20648_driver\drivers/inv_mems_base_control.c **** #endif
 1519              		.loc 1 552 0
 1520 0146 0343     		orr	r3, r0
 1521              	.LBB62:
 556:.\20648_driver\drivers/inv_mems_base_control.c **** 			if	(bac_status != 0)				lStepCounterMinDly = min(lStepCounterMinDly, inv_dmp_odr_delays[INV_SENS
 1522              		.loc 1 556 0
 1523 0148 281C     		mov	r0, r5
 1524 014a 0E30     		add	r0, r0, #14
 1525              	.LBE62:
 552:.\20648_driver\drivers/inv_mems_base_control.c **** #endif
 1526              		.loc 1 552 0
 1527 014c 0093     		str	r3, [sp]
 1528              	.LVL137:
 1529              	.LBB63:
 556:.\20648_driver\drivers/inv_mems_base_control.c **** 			if	(bac_status != 0)				lStepCounterMinDly = min(lStepCounterMinDly, inv_dmp_odr_delays[INV_SENS
 1530              		.loc 1 556 0
ARM GAS  C:\Users\ADMINI~1\AppData\Local\Temp\ccjTNAQQ.s 			page 59


 1531 014e FFF7FEFF 		bl	MinDelayGenActual
 1532              	.LVL138:
 557:.\20648_driver\drivers/inv_mems_base_control.c **** //			if (flip_pickup_status != 0)		lStepCounterMinDly = min(lStepCounterMinDly, inv_dmp_odr_delays[
 1533              		.loc 1 557 0
 1534 0152 5637     		add	r7, r7, #86
 1535 0154 3B88     		ldrh	r3, [r7]
 556:.\20648_driver\drivers/inv_mems_base_control.c **** 			if	(bac_status != 0)				lStepCounterMinDly = min(lStepCounterMinDly, inv_dmp_odr_delays[INV_SENS
 1536              		.loc 1 556 0
 1537 0156 021C     		mov	r2, r0
 1538              	.LVL139:
 557:.\20648_driver\drivers/inv_mems_base_control.c **** //			if (flip_pickup_status != 0)		lStepCounterMinDly = min(lStepCounterMinDly, inv_dmp_odr_delays[
 1539              		.loc 1 557 0
 1540 0158 002B     		cmp	r3, #0
 1541 015a 06D0     		beq	.L163
 557:.\20648_driver\drivers/inv_mems_base_control.c **** //			if (flip_pickup_status != 0)		lStepCounterMinDly = min(lStepCounterMinDly, inv_dmp_odr_delays[
 1542              		.loc 1 557 0 is_stmt 0 discriminator 1
 1543 015c 2F4B     		ldr	r3, .L194+8
 1544 015e 598B     		ldrh	r1, [r3, #26]
 1545 0160 131C     		add	r3, r2, #0
 1546 0162 8A42     		cmp	r2, r1
 1547 0164 00D9     		bls	.L164
 1548 0166 0B1C     		add	r3, r1, #0
 1549              	.L164:
 1550 0168 98B2     		uxth	r0, r3
 1551              	.LVL140:
 1552              	.L163:
 559:.\20648_driver\drivers/inv_mems_base_control.c **** 		}
 1553              		.loc 1 559 0 is_stmt 1
 1554 016a 211C     		mov	r1, r4
 1555 016c 0C22     		mov	r2, #12
 1556 016e FFF7FEFF 		bl	DividerRateSet
 1557              	.LVL141:
 1558 0172 331C     		mov	r3, r6
 1559 0174 009D     		ldr	r5, [sp]
 1560 0176 0543     		orr	r5, r0
 1561              	.LVL142:
 1562              	.L168:
 1563              	.LBE63:
 1564              	.LBE64:
 565:.\20648_driver\drivers/inv_mems_base_control.c **** 		static unsigned short lLastHwSmplrtDivider = 1;
 1565              		.loc 1 565 0
 1566 0178 2A4A     		ldr	r2, .L194+16
 1567 017a 9342     		cmp	r3, r2
 1568 017c 48D0     		beq	.L179
 1569              	.LVL143:
 1570              	.LBB65:
 1571              	.LBB66:
 1572              	.LBB67:
 404:.\20648_driver\drivers/inv_mems_base_control.c ****     return			Delay * 1125L / 1000L;      // a divider from 1125Hz.
 1573              		.loc 1 404 0
 1574 017e 181C     		add	r0, r3, #0
 1575 0180 C82B     		cmp	r3, #200
 1576 0182 00D9     		bls	.L165
 1577 0184 C820     		mov	r0, #200
 1578              	.L165:
 405:.\20648_driver\drivers/inv_mems_base_control.c **** }	//	end of SampleRateDividerGet()
 1579              		.loc 1 405 0
ARM GAS  C:\Users\ADMINI~1\AppData\Local\Temp\ccjTNAQQ.s 			page 60


 1580 0186 FA21     		mov	r1, #250
 1581 0188 274B     		ldr	r3, .L194+20
 1582              	.LVL144:
 1583 018a 80B2     		uxth	r0, r0
 1584 018c 5843     		mul	r0, r3
 1585 018e 8900     		lsl	r1, r1, #2
 1586 0190 FFF7FEFF 		bl	__aeabi_idiv
 1587              	.LVL145:
 1588              	.LBE67:
 1589              	.LBE66:
 569:.\20648_driver\drivers/inv_mems_base_control.c **** 		{
 1590              		.loc 1 569 0
 1591 0194 214E     		ldr	r6, .L194+8
 1592              	.LBB69:
 1593              	.LBB68:
 405:.\20648_driver\drivers/inv_mems_base_control.c **** }	//	end of SampleRateDividerGet()
 1594              		.loc 1 405 0
 1595 0196 84B2     		uxth	r4, r0
 1596              	.LBE68:
 1597              	.LBE69:
 569:.\20648_driver\drivers/inv_mems_base_control.c **** 		{
 1598              		.loc 1 569 0
 1599 0198 4C36     		add	r6, r6, #76
 1600 019a 3388     		ldrh	r3, [r6]
 1601 019c A342     		cmp	r3, r4
 1602 019e 05D0     		beq	.L166
 571:.\20648_driver\drivers/inv_mems_base_control.c **** 			lLastHwSmplrtDivider = hw_smplrt_divider;
 1603              		.loc 1 571 0
 1604 01a0 0138     		sub	r0, r0, #1
 1605 01a2 C0B2     		uxtb	r0, r0
 1606 01a4 FFF7FEFF 		bl	inv_set_gyro_divider
 1607              	.LVL146:
 572:.\20648_driver\drivers/inv_mems_base_control.c **** 		}
 1608              		.loc 1 572 0
 1609 01a8 3480     		strh	r4, [r6]
 571:.\20648_driver\drivers/inv_mems_base_control.c **** 			lLastHwSmplrtDivider = hw_smplrt_divider;
 1610              		.loc 1 571 0
 1611 01aa 0543     		orr	r5, r0
 1612              	.LVL147:
 1613              	.L166:
 575:.\20648_driver\drivers/inv_mems_base_control.c **** 		result			|=	DividerRateSet	(MinDelayGen		(MinDelayGenGyro3List), hw_smplrt_divider, INV_SENSOR_CA
 1614              		.loc 1 575 0
 1615 01ac 1F4E     		ldr	r6, .L194+24
 1616 01ae 0421     		mov	r1, #4
 1617 01b0 301C     		mov	r0, r6
 1618 01b2 1030     		add	r0, r0, #16
 1619 01b4 FFF7FEFF 		bl	MinDelayGenActual
 1620              	.LVL148:
 1621 01b8 0122     		mov	r2, #1
 1622 01ba 211C     		mov	r1, r4
 1623 01bc FFF7FEFF 		bl	DividerRateSet
 1624              	.LVL149:
 1625 01c0 0543     		orr	r5, r0
 1626              	.LVL150:
 576:.\20648_driver\drivers/inv_mems_base_control.c **** #if (MEMS_CHIP == HW_ICM30630)
 1627              		.loc 1 576 0
 1628 01c2 301C     		mov	r0, r6
ARM GAS  C:\Users\ADMINI~1\AppData\Local\Temp\ccjTNAQQ.s 			page 61


 1629 01c4 0221     		mov	r1, #2
 1630 01c6 1830     		add	r0, r0, #24
 1631 01c8 FFF7FEFF 		bl	MinDelayGenActual
 1632              	.LVL151:
 1633 01cc 0A22     		mov	r2, #10
 1634 01ce 211C     		mov	r1, r4
 1635 01d0 FFF7FEFF 		bl	DividerRateSet
 1636              	.LVL152:
 1637 01d4 0543     		orr	r5, r0
 1638              	.LVL153:
 588:.\20648_driver\drivers/inv_mems_base_control.c **** #endif
 1639              		.loc 1 588 0
 1640 01d6 301C     		mov	r0, r6
 1641 01d8 0621     		mov	r1, #6
 1642 01da 1C30     		add	r0, r0, #28
 1643 01dc FFF7FEFF 		bl	MinDelayGenActual
 1644              	.LVL154:
 1645 01e0 0522     		mov	r2, #5
 1646 01e2 211C     		mov	r1, r4
 1647 01e4 FFF7FEFF 		bl	DividerRateSet
 1648              	.LVL155:
 1649 01e8 0543     		orr	r5, r0
 1650              	.LVL156:
 590:.\20648_driver\drivers/inv_mems_base_control.c ****     }
 1651              		.loc 1 590 0
 1652 01ea 301C     		mov	r0, r6
 1653 01ec 0421     		mov	r1, #4
 1654 01ee 2830     		add	r0, r0, #40
 1655 01f0 FFF7FEFF 		bl	MinDelayGenActual
 1656              	.LVL157:
 1657 01f4 211C     		mov	r1, r4
 1658 01f6 0622     		mov	r2, #6
 1659 01f8 FFF7FEFF 		bl	DividerRateSet
 1660              	.LVL158:
 1661 01fc 0543     		orr	r5, r0
 1662              	.LVL159:
 1663 01fe 07E0     		b	.L179
 1664              	.LVL160:
 1665              	.L159:
 1666              	.LBE65:
 490:.\20648_driver\drivers/inv_mems_base_control.c **** 
 1667              		.loc 1 490 0
 1668 0200 0025     		mov	r5, #0
 534:.\20648_driver\drivers/inv_mems_base_control.c **** 	{
 1669              		.loc 1 534 0
 1670 0202 B342     		cmp	r3, r6
 1671 0204 00D0     		beq	.LCB1632
 1672 0206 5BE7     		b	.L167	@long jump
 1673              	.LCB1632:
 1674 0208 02E0     		b	.L179
 1675              	.LVL161:
 1676              	.L158:
 490:.\20648_driver\drivers/inv_mems_base_control.c **** 
 1677              		.loc 1 490 0
 1678 020a 0025     		mov	r5, #0
 524:.\20648_driver\drivers/inv_mems_base_control.c **** #if defined MEMS_SECONDARY_DEVICE
 1679              		.loc 1 524 0
ARM GAS  C:\Users\ADMINI~1\AppData\Local\Temp\ccjTNAQQ.s 			page 62


 1680 020c A642     		cmp	r6, r4
 1681 020e B3D1     		bne	.L168
 1682              	.LVL162:
 1683              	.L179:
 625:.\20648_driver\drivers/inv_mems_base_control.c **** 
 1684              		.loc 1 625 0
 1685 0210 281C     		mov	r0, r5
 1686              		@ sp needed
 1687 0212 FEBD     		pop	{r1, r2, r3, r4, r5, r6, r7, pc}
 1688              	.L195:
 1689              		.align	2
 1690              	.L194:
 1691 0214 00000000 		.word	.LANCHOR2
 1692 0218 00000000 		.word	.LANCHOR0
 1693 021c 00000000 		.word	.LANCHOR1
 1694 0220 00080080 		.word	-2147481600
 1695 0224 FFFF0000 		.word	65535
 1696 0228 65040000 		.word	1125
 1697 022c 80000000 		.word	.LANCHOR3
 1698              		.cfi_endproc
 1699              	.LFE6:
 1700              		.size	inv_set_hw_smplrt_dmp_odrs, .-inv_set_hw_smplrt_dmp_odrs
 1701              		.section	.text.inv_set_odr,"ax",%progbits
 1702              		.align	1
 1703              		.global	inv_set_odr
 1704              		.code	16
 1705              		.thumb_func
 1706              		.type	inv_set_odr, %function
 1707              	inv_set_odr:
 1708              	.LFB7:
 628:.\20648_driver\drivers/inv_mems_base_control.c ****     inv_error_t result;
 1709              		.loc 1 628 0
 1710              		.cfi_startproc
 1711              	.LVL163:
 1712 0000 38B5     		push	{r3, r4, r5, lr}
 1713              		.cfi_def_cfa_offset 16
 1714              		.cfi_offset 3, -16
 1715              		.cfi_offset 4, -12
 1716              		.cfi_offset 5, -8
 1717              		.cfi_offset 14, -4
 628:.\20648_driver\drivers/inv_mems_base_control.c ****     inv_error_t result;
 1718              		.loc 1 628 0
 1719 0002 0C1C     		mov	r4, r1
 1720 0004 051C     		mov	r5, r0
 640:.\20648_driver\drivers/inv_mems_base_control.c ****     
 1721              		.loc 1 640 0
 1722 0006 FFF7FEFF 		bl	inv_mems_prevent_lpen_control
 1723              	.LVL164:
 642:.\20648_driver\drivers/inv_mems_base_control.c ****     if (delayInMs > 1000) delayInMs = 1000;     // 1Hz / 1000ms
 1724              		.loc 1 642 0
 1725 000a 002C     		cmp	r4, #0
 1726 000c 05D0     		beq	.L227
 1727              	.LVL165:
 643:.\20648_driver\drivers/inv_mems_base_control.c ****     switch (androidSensor) {
 1728              		.loc 1 643 0
 1729 000e FA23     		mov	r3, #250
 1730 0010 9B00     		lsl	r3, r3, #2
ARM GAS  C:\Users\ADMINI~1\AppData\Local\Temp\ccjTNAQQ.s 			page 63


 1731 0012 9C42     		cmp	r4, r3
 1732 0014 02D9     		bls	.L198
 1733 0016 1C1C     		mov	r4, r3
 1734              	.LVL166:
 1735 0018 00E0     		b	.L198
 1736              	.LVL167:
 1737              	.L227:
 642:.\20648_driver\drivers/inv_mems_base_control.c ****     if (delayInMs > 1000) delayInMs = 1000;     // 1Hz / 1000ms
 1738              		.loc 1 642 0
 1739 001a 0124     		mov	r4, #1
 1740              	.LVL168:
 1741              	.L198:
 644:.\20648_driver\drivers/inv_mems_base_control.c ****         case ANDROID_SENSOR_ACCELEROMETER:
 1742              		.loc 1 644 0
 1743 001c 681E     		sub	r0, r5, #1
 1744 001e 2C28     		cmp	r0, #44
 1745 0020 6ED8     		bhi	.L199
 1746 0022 FFF7FEFF 		bl	__gnu_thumb1_case_uqi
 1747              	.L201:
 1748 0026 17       		.byte	(.L200-.L201)/2
 1749 0027 35       		.byte	(.L202-.L201)/2
 1750 0028 2D       		.byte	(.L203-.L201)/2
 1751 0029 26       		.byte	(.L204-.L201)/2
 1752 002a 38       		.byte	(.L205-.L201)/2
 1753 002b 65       		.byte	(.L206-.L201)/2
 1754 002c 6D       		.byte	(.L199-.L201)/2
 1755 002d 62       		.byte	(.L207-.L201)/2
 1756 002e 29       		.byte	(.L208-.L201)/2
 1757 002f 29       		.byte	(.L208-.L201)/2
 1758 0030 2D       		.byte	(.L203-.L201)/2
 1759 0031 6D       		.byte	(.L199-.L201)/2
 1760 0032 6D       		.byte	(.L199-.L201)/2
 1761 0033 32       		.byte	(.L209-.L201)/2
 1762 0034 29       		.byte	(.L208-.L201)/2
 1763 0035 23       		.byte	(.L210-.L201)/2
 1764 0036 3E       		.byte	(.L211-.L201)/2
 1765 0037 19       		.byte	(.L212-.L201)/2
 1766 0038 19       		.byte	(.L212-.L201)/2
 1767 0039 1C       		.byte	(.L213-.L201)/2
 1768 003a 6D       		.byte	(.L199-.L201)/2
 1769 003b 38       		.byte	(.L205-.L201)/2
 1770 003c 3B       		.byte	(.L214-.L201)/2
 1771 003d 5F       		.byte	(.L215-.L201)/2
 1772 003e 55       		.byte	(.L216-.L201)/2
 1773 003f 4E       		.byte	(.L217-.L201)/2
 1774 0040 62       		.byte	(.L207-.L201)/2
 1775 0041 68       		.byte	(.L218-.L201)/2
 1776 0042 51       		.byte	(.L219-.L201)/2
 1777 0043 51       		.byte	(.L219-.L201)/2
 1778 0044 55       		.byte	(.L216-.L201)/2
 1779 0045 6D       		.byte	(.L199-.L201)/2
 1780 0046 6D       		.byte	(.L199-.L201)/2
 1781 0047 5C       		.byte	(.L220-.L201)/2
 1782 0048 51       		.byte	(.L219-.L201)/2
 1783 0049 4B       		.byte	(.L221-.L201)/2
 1784 004a 3E       		.byte	(.L211-.L201)/2
 1785 004b 3E       		.byte	(.L211-.L201)/2
ARM GAS  C:\Users\ADMINI~1\AppData\Local\Temp\ccjTNAQQ.s 			page 64


 1786 004c 40       		.byte	(.L222-.L201)/2
 1787 004d 6D       		.byte	(.L199-.L201)/2
 1788 004e 45       		.byte	(.L223-.L201)/2
 1789 004f 6D       		.byte	(.L199-.L201)/2
 1790 0050 48       		.byte	(.L224-.L201)/2
 1791 0051 6B       		.byte	(.L225-.L201)/2
 1792 0052 20       		.byte	(.L226-.L201)/2
 1793 0053 00       		.p2align 1
 1794              	.L200:
 646:.\20648_driver\drivers/inv_mems_base_control.c ****             break;
 1795              		.loc 1 646 0
 1796 0054 334B     		ldr	r3, .L231
 1797 0056 40E0     		b	.L229
 1798              	.L212:
 652:.\20648_driver\drivers/inv_mems_base_control.c ****             break;
 1799              		.loc 1 652 0
 1800 0058 324B     		ldr	r3, .L231
 1801 005a 1C83     		strh	r4, [r3, #24]
 653:.\20648_driver\drivers/inv_mems_base_control.c **** #endif
 1802              		.loc 1 653 0
 1803 005c 50E0     		b	.L199
 1804              	.L213:
 656:.\20648_driver\drivers/inv_mems_base_control.c ****             inv_dmp_odr_delays[INV_SENSOR_GEOMAG_cpass] = delayInMs;
 1805              		.loc 1 656 0
 1806 005e 314B     		ldr	r3, .L231
 1807 0060 DC81     		strh	r4, [r3, #14]
 657:.\20648_driver\drivers/inv_mems_base_control.c ****             break;
 1808              		.loc 1 657 0
 1809 0062 9C84     		strh	r4, [r3, #36]
 658:.\20648_driver\drivers/inv_mems_base_control.c **** 
 1810              		.loc 1 658 0
 1811 0064 4CE0     		b	.L199
 1812              	.L226:
 662:.\20648_driver\drivers/inv_mems_base_control.c ****             break;
 1813              		.loc 1 662 0
 1814 0066 2F4B     		ldr	r3, .L231
 1815 0068 5C83     		strh	r4, [r3, #26]
 663:.\20648_driver\drivers/inv_mems_base_control.c **** #endif
 1816              		.loc 1 663 0
 1817 006a 49E0     		b	.L199
 1818              	.L210:
 666:.\20648_driver\drivers/inv_mems_base_control.c ****             break;
 1819              		.loc 1 666 0
 1820 006c 2D4B     		ldr	r3, .L231
 1821 006e 5C80     		strh	r4, [r3, #2]
 667:.\20648_driver\drivers/inv_mems_base_control.c **** 
 1822              		.loc 1 667 0
 1823 0070 46E0     		b	.L199
 1824              	.L204:
 673:.\20648_driver\drivers/inv_mems_base_control.c ****             break;
 1825              		.loc 1 673 0
 1826 0072 2C4B     		ldr	r3, .L231
 1827 0074 9C82     		strh	r4, [r3, #20]
 674:.\20648_driver\drivers/inv_mems_base_control.c **** 
 1828              		.loc 1 674 0
 1829 0076 43E0     		b	.L199
 1830              	.L208:
ARM GAS  C:\Users\ADMINI~1\AppData\Local\Temp\ccjTNAQQ.s 			page 65


 685:.\20648_driver\drivers/inv_mems_base_control.c ****             inv_dmp_odr_delays[INV_SENSOR_SIXQ_accel] = delayInMs;
 1831              		.loc 1 685 0
 1832 0078 2A4B     		ldr	r3, .L231
 1833 007a 5C81     		strh	r4, [r3, #10]
 686:.\20648_driver\drivers/inv_mems_base_control.c ****             break;
 1834              		.loc 1 686 0
 1835 007c 1C84     		strh	r4, [r3, #32]
 687:.\20648_driver\drivers/inv_mems_base_control.c **** 
 1836              		.loc 1 687 0
 1837 007e 3FE0     		b	.L199
 1838              	.L203:
 697:.\20648_driver\drivers/inv_mems_base_control.c ****             inv_dmp_odr_delays[INV_SENSOR_NINEQ_accel] = delayInMs;
 1839              		.loc 1 697 0
 1840 0080 284B     		ldr	r3, .L231
 1841 0082 9C81     		strh	r4, [r3, #12]
 698:.\20648_driver\drivers/inv_mems_base_control.c ****             inv_dmp_odr_delays[INV_SENSOR_NINEQ_cpass] = delayInMs;
 1842              		.loc 1 698 0
 1843 0084 5C84     		strh	r4, [r3, #34]
 699:.\20648_driver\drivers/inv_mems_base_control.c ****             break;
 1844              		.loc 1 699 0
 1845 0086 DC84     		strh	r4, [r3, #38]
 700:.\20648_driver\drivers/inv_mems_base_control.c **** 
 1846              		.loc 1 700 0
 1847 0088 3AE0     		b	.L199
 1848              	.L209:
 703:.\20648_driver\drivers/inv_mems_base_control.c ****             break;
 1849              		.loc 1 703 0
 1850 008a 264B     		ldr	r3, .L231
 1851 008c DC80     		strh	r4, [r3, #6]
 704:.\20648_driver\drivers/inv_mems_base_control.c **** 
 1852              		.loc 1 704 0
 1853 008e 37E0     		b	.L199
 1854              	.L202:
 707:.\20648_driver\drivers/inv_mems_base_control.c ****             break;
 1855              		.loc 1 707 0
 1856 0090 244B     		ldr	r3, .L231
 1857 0092 DC82     		strh	r4, [r3, #22]
 708:.\20648_driver\drivers/inv_mems_base_control.c **** 
 1858              		.loc 1 708 0
 1859 0094 34E0     		b	.L199
 1860              	.L205:
 712:.\20648_driver\drivers/inv_mems_base_control.c ****             break;
 1861              		.loc 1 712 0
 1862 0096 234B     		ldr	r3, .L231
 1863 0098 1C81     		strh	r4, [r3, #8]
 713:.\20648_driver\drivers/inv_mems_base_control.c **** 
 1864              		.loc 1 713 0
 1865 009a 31E0     		b	.L199
 1866              	.L214:
 716:.\20648_driver\drivers/inv_mems_base_control.c ****             break;
 1867              		.loc 1 716 0
 1868 009c 214B     		ldr	r3, .L231
 1869 009e 1C85     		strh	r4, [r3, #40]
 717:.\20648_driver\drivers/inv_mems_base_control.c **** 
 1870              		.loc 1 717 0
 1871 00a0 2EE0     		b	.L199
 1872              	.L211:
ARM GAS  C:\Users\ADMINI~1\AppData\Local\Temp\ccjTNAQQ.s 			page 66


 723:.\20648_driver\drivers/inv_mems_base_control.c ****             break;
 1873              		.loc 1 723 0
 1874 00a2 204B     		ldr	r3, .L231
 1875 00a4 02E0     		b	.L230
 1876              	.L222:
 727:.\20648_driver\drivers/inv_mems_base_control.c ****             inv_dmp_odr_delays[INV_SENSOR_WAKEUP_GEOMAG_cpass] = delayInMs;
 1877              		.loc 1 727 0
 1878 00a6 1F4B     		ldr	r3, .L231
 1879 00a8 9C86     		strh	r4, [r3, #52]
 728:.\20648_driver\drivers/inv_mems_base_control.c ****             break;
 1880              		.loc 1 728 0
 1881 00aa 0833     		add	r3, r3, #8
 1882              	.L230:
 1883 00ac DC87     		strh	r4, [r3, #62]
 729:.\20648_driver\drivers/inv_mems_base_control.c **** 
 1884              		.loc 1 729 0
 1885 00ae 27E0     		b	.L199
 1886              	.L223:
 733:.\20648_driver\drivers/inv_mems_base_control.c ****             break;
 1887              		.loc 1 733 0
 1888 00b0 1C4B     		ldr	r3, .L231
 1889 00b2 0233     		add	r3, r3, #2
 1890 00b4 FAE7     		b	.L230
 1891              	.L224:
 737:.\20648_driver\drivers/inv_mems_base_control.c ****             break;
 1892              		.loc 1 737 0
 1893 00b6 1B4B     		ldr	r3, .L231
 1894 00b8 DC83     		strh	r4, [r3, #30]
 738:.\20648_driver\drivers/inv_mems_base_control.c **** 
 1895              		.loc 1 738 0
 1896 00ba 21E0     		b	.L199
 1897              	.L221:
 741:.\20648_driver\drivers/inv_mems_base_control.c ****             break;
 1898              		.loc 1 741 0
 1899 00bc 194B     		ldr	r3, .L231
 1900 00be 5C85     		strh	r4, [r3, #42]
 742:.\20648_driver\drivers/inv_mems_base_control.c **** 
 1901              		.loc 1 742 0
 1902 00c0 1EE0     		b	.L199
 1903              	.L217:
 745:.\20648_driver\drivers/inv_mems_base_control.c ****             break;
 1904              		.loc 1 745 0
 1905 00c2 184B     		ldr	r3, .L231
 1906 00c4 5C87     		strh	r4, [r3, #58]
 746:.\20648_driver\drivers/inv_mems_base_control.c **** 
 1907              		.loc 1 746 0
 1908 00c6 1BE0     		b	.L199
 1909              	.L219:
 757:.\20648_driver\drivers/inv_mems_base_control.c ****             inv_dmp_odr_delays[INV_SENSOR_WAKEUP_SIXQ_accel] = delayInMs;
 1910              		.loc 1 757 0
 1911 00c8 164B     		ldr	r3, .L231
 1912 00ca 1C86     		strh	r4, [r3, #48]
 758:.\20648_driver\drivers/inv_mems_base_control.c ****             break;
 1913              		.loc 1 758 0
 1914 00cc 0433     		add	r3, r3, #4
 1915 00ce EDE7     		b	.L230
 1916              	.L216:
ARM GAS  C:\Users\ADMINI~1\AppData\Local\Temp\ccjTNAQQ.s 			page 67


 769:.\20648_driver\drivers/inv_mems_base_control.c ****             inv_dmp_odr_delays[INV_SENSOR_WAKEUP_NINEQ_accel] = delayInMs;
 1917              		.loc 1 769 0
 1918 00d0 144B     		ldr	r3, .L231
 770:.\20648_driver\drivers/inv_mems_base_control.c ****             inv_dmp_odr_delays[INV_SENSOR_WAKEUP_NINEQ_cpass] = delayInMs;
 1919              		.loc 1 770 0
 1920 00d2 9A1D     		add	r2, r3, #6
 769:.\20648_driver\drivers/inv_mems_base_control.c ****             inv_dmp_odr_delays[INV_SENSOR_WAKEUP_NINEQ_accel] = delayInMs;
 1921              		.loc 1 769 0
 1922 00d4 5C86     		strh	r4, [r3, #50]
 770:.\20648_driver\drivers/inv_mems_base_control.c ****             inv_dmp_odr_delays[INV_SENSOR_WAKEUP_NINEQ_cpass] = delayInMs;
 1923              		.loc 1 770 0
 1924 00d6 D487     		strh	r4, [r2, #62]
 771:.\20648_driver\drivers/inv_mems_base_control.c ****             break;
 1925              		.loc 1 771 0
 1926 00d8 4833     		add	r3, r3, #72
 1927              	.L229:
 1928 00da 1C80     		strh	r4, [r3]
 772:.\20648_driver\drivers/inv_mems_base_control.c **** 
 1929              		.loc 1 772 0
 1930 00dc 10E0     		b	.L199
 1931              	.L220:
 775:.\20648_driver\drivers/inv_mems_base_control.c ****             break;
 1932              		.loc 1 775 0
 1933 00de 114B     		ldr	r3, .L231
 1934 00e0 9C85     		strh	r4, [r3, #44]
 776:.\20648_driver\drivers/inv_mems_base_control.c **** 
 1935              		.loc 1 776 0
 1936 00e2 0DE0     		b	.L199
 1937              	.L215:
 779:.\20648_driver\drivers/inv_mems_base_control.c ****             break;
 1938              		.loc 1 779 0
 1939 00e4 0F4B     		ldr	r3, .L231
 1940 00e6 9C87     		strh	r4, [r3, #60]
 780:.\20648_driver\drivers/inv_mems_base_control.c **** 
 1941              		.loc 1 780 0
 1942 00e8 0AE0     		b	.L199
 1943              	.L207:
 784:.\20648_driver\drivers/inv_mems_base_control.c ****             break;
 1944              		.loc 1 784 0
 1945 00ea 0E4B     		ldr	r3, .L231
 1946 00ec DC85     		strh	r4, [r3, #46]
 785:.\20648_driver\drivers/inv_mems_base_control.c **** 
 1947              		.loc 1 785 0
 1948 00ee 07E0     		b	.L199
 1949              	.L206:
 788:.\20648_driver\drivers/inv_mems_base_control.c ****             break;
 1950              		.loc 1 788 0
 1951 00f0 0C4B     		ldr	r3, .L231
 1952 00f2 5C82     		strh	r4, [r3, #18]
 789:.\20648_driver\drivers/inv_mems_base_control.c **** 
 1953              		.loc 1 789 0
 1954 00f4 04E0     		b	.L199
 1955              	.L218:
 792:.\20648_driver\drivers/inv_mems_base_control.c ****             break;
 1956              		.loc 1 792 0
 1957 00f6 0B4B     		ldr	r3, .L231
 1958 00f8 1C87     		strh	r4, [r3, #56]
ARM GAS  C:\Users\ADMINI~1\AppData\Local\Temp\ccjTNAQQ.s 			page 68


 793:.\20648_driver\drivers/inv_mems_base_control.c **** 
 1959              		.loc 1 793 0
 1960 00fa 01E0     		b	.L199
 1961              	.L225:
 796:.\20648_driver\drivers/inv_mems_base_control.c ****             break;
 1962              		.loc 1 796 0
 1963 00fc 094B     		ldr	r3, .L231
 1964 00fe 9C83     		strh	r4, [r3, #28]
 1965              	.L199:
 815:.\20648_driver\drivers/inv_mems_base_control.c ****     result |= inv_set_gyro_sf(inv_get_gyro_divider(), inv_get_gyro_fullscale());
 1966              		.loc 1 815 0
 1967 0100 FFF7FEFF 		bl	inv_set_hw_smplrt_dmp_odrs
 1968              	.LVL169:
 1969 0104 041C     		mov	r4, r0
 1970              	.LVL170:
 816:.\20648_driver\drivers/inv_mems_base_control.c **** 
 1971              		.loc 1 816 0
 1972 0106 FFF7FEFF 		bl	inv_get_gyro_divider
 1973              	.LVL171:
 1974 010a 051C     		mov	r5, r0
 1975 010c FFF7FEFF 		bl	inv_get_gyro_fullscale
 1976              	.LVL172:
 1977 0110 011C     		mov	r1, r0
 1978 0112 281C     		mov	r0, r5
 1979 0114 FFF7FEFF 		bl	inv_set_gyro_sf
 1980              	.LVL173:
 1981 0118 0443     		orr	r4, r0
 1982              	.LVL174:
 827:.\20648_driver\drivers/inv_mems_base_control.c **** 
 1983              		.loc 1 827 0
 1984              		@ sp needed
 825:.\20648_driver\drivers/inv_mems_base_control.c ****     return result;
 1985              		.loc 1 825 0
 1986 011a FFF7FEFF 		bl	inv_mems_allow_lpen_control
 1987              	.LVL175:
 827:.\20648_driver\drivers/inv_mems_base_control.c **** 
 1988              		.loc 1 827 0
 1989 011e 201C     		mov	r0, r4
 1990              	.LVL176:
 1991 0120 38BD     		pop	{r3, r4, r5, pc}
 1992              	.L232:
 1993 0122 C046     		.align	2
 1994              	.L231:
 1995 0124 00000000 		.word	.LANCHOR1
 1996              		.cfi_endproc
 1997              	.LFE7:
 1998              		.size	inv_set_odr, .-inv_set_odr
 1999              		.section	.text.inv_enable_sensor,"ax",%progbits
 2000              		.align	1
 2001              		.global	inv_enable_sensor
 2002              		.code	16
 2003              		.thumb_func
 2004              		.type	inv_enable_sensor, %function
 2005              	inv_enable_sensor:
 2006              	.LFB12:
1093:.\20648_driver\drivers/inv_mems_base_control.c ****     inv_error_t result = 0;
 2007              		.loc 1 1093 0
ARM GAS  C:\Users\ADMINI~1\AppData\Local\Temp\ccjTNAQQ.s 			page 69


