ARM GAS  C:\Users\ADMINI~1\AppData\Local\Temp\ccDzzuxj.s 			page 1


   1              		.cpu cortex-m0
   2              		.fpu softvfp
   3              		.eabi_attribute 20, 1
   4              		.eabi_attribute 21, 1
   5              		.eabi_attribute 23, 3
   6              		.eabi_attribute 24, 1
   7              		.eabi_attribute 25, 1
   8              		.eabi_attribute 26, 1
   9              		.eabi_attribute 30, 4
  10              		.eabi_attribute 34, 0
  11              		.eabi_attribute 18, 4
  12              		.code	16
  13              		.file	"inv_mems_interface_mapping.c"
  14              		.text
  15              	.Ltext0:
  16              		.cfi_sections	.debug_frame
  17              		.section	.text.dmp_reset_odr_counters,"ax",%progbits
  18              		.align	1
  19              		.global	dmp_reset_odr_counters
  20              		.code	16
  21              		.thumb_func
  22              		.type	dmp_reset_odr_counters, %function
  23              	dmp_reset_odr_counters:
  24              	.LFB0:
  25              		.file 1 ".\\20648_driver\\dmp3\\inv_mems_interface_mapping.c"
   1:.\20648_driver\dmp3/inv_mems_interface_mapping.c **** /*
   2:.\20648_driver\dmp3/inv_mems_interface_mapping.c **** * _________________________________________________________________________________________________
   3:.\20648_driver\dmp3/inv_mems_interface_mapping.c **** * Copyright © 2014-2015 InvenSense Inc. Portions Copyright © 2014-2015 Movea. All rights reserved.
   4:.\20648_driver\dmp3/inv_mems_interface_mapping.c **** * This software, related documentation and any modifications thereto (collectively “Software”) is s
   5:.\20648_driver\dmp3/inv_mems_interface_mapping.c **** * to InvenSense and its licensors' intellectual property rights under U.S. and international copyri
   6:.\20648_driver\dmp3/inv_mems_interface_mapping.c **** * other intellectual property rights laws.
   7:.\20648_driver\dmp3/inv_mems_interface_mapping.c **** * InvenSense and its licensors retain all intellectual property and proprietary rights in and to th
   8:.\20648_driver\dmp3/inv_mems_interface_mapping.c **** * and any use, reproduction, disclosure or distribution of the Software without an express license
   9:.\20648_driver\dmp3/inv_mems_interface_mapping.c **** * agreement from InvenSense is strictly prohibited.
  10:.\20648_driver\dmp3/inv_mems_interface_mapping.c **** * _________________________________________________________________________________________________
  11:.\20648_driver\dmp3/inv_mems_interface_mapping.c **** */
  12:.\20648_driver\dmp3/inv_mems_interface_mapping.c **** 
  13:.\20648_driver\dmp3/inv_mems_interface_mapping.c **** #include ".\20648_driver\dmp3\inv_mems_interface_mapping.h"
  14:.\20648_driver\dmp3/inv_mems_interface_mapping.c **** #include ".\20648_driver\invn\invn_types.h"
  15:.\20648_driver\dmp3/inv_mems_interface_mapping.c **** 
  16:.\20648_driver\dmp3/inv_mems_interface_mapping.c **** 
  17:.\20648_driver\dmp3/inv_mems_interface_mapping.c **** #include ".\20648_driver\drivers\inv_mems_hw_config.h"
  18:.\20648_driver\dmp3/inv_mems_interface_mapping.c **** #if defined MEMS_20630
  19:.\20648_driver\dmp3/inv_mems_interface_mapping.c **** #include "dmp3/dmp3Default_20630.h"
  20:.\20648_driver\dmp3/inv_mems_interface_mapping.c **** #include "dmp3/dmp3Driver.h"  
  21:.\20648_driver\dmp3/inv_mems_interface_mapping.c **** #elif defined MEMS_30630
  22:.\20648_driver\dmp3/inv_mems_interface_mapping.c **** #include "dmp3/dmp3Default_30630.h"
  23:.\20648_driver\dmp3/inv_mems_interface_mapping.c **** #include "dmp3/dmp3Driver.h"  
  24:.\20648_driver\dmp3/inv_mems_interface_mapping.c **** #elif defined MEMS_20645E
  25:.\20648_driver\dmp3/inv_mems_interface_mapping.c **** #include "dmp3/dmp3Default_20645E.h"
  26:.\20648_driver\dmp3/inv_mems_interface_mapping.c **** #include "dmp3/dmp3Driver.h"  
  27:.\20648_driver\dmp3/inv_mems_interface_mapping.c **** #elif defined MEMS_20648
  28:.\20648_driver\dmp3/inv_mems_interface_mapping.c **** #include ".\20648_driver\dmp3a\dmp3Default_20648.h"  
  29:.\20648_driver\dmp3/inv_mems_interface_mapping.c **** #include ".\20648_driver\dmp3a\dmp3Driver.h"    
  30:.\20648_driver\dmp3/inv_mems_interface_mapping.c **** #elif defined MEMS_20609
  31:.\20648_driver\dmp3/inv_mems_interface_mapping.c **** #include "dmp3/dmp3Default_20608D.h"
  32:.\20648_driver\dmp3/inv_mems_interface_mapping.c **** #include "dmp3a/dmp3Driver.h"
ARM GAS  C:\Users\ADMINI~1\AppData\Local\Temp\ccDzzuxj.s 			page 2


  33:.\20648_driver\dmp3/inv_mems_interface_mapping.c **** #else
  34:.\20648_driver\dmp3/inv_mems_interface_mapping.c **** #error "Unsupported configuration"
  35:.\20648_driver\dmp3/inv_mems_interface_mapping.c **** #endif
  36:.\20648_driver\dmp3/inv_mems_interface_mapping.c **** 
  37:.\20648_driver\dmp3/inv_mems_interface_mapping.c **** 
  38:.\20648_driver\dmp3/inv_mems_interface_mapping.c **** // the step counter to be substracted
  39:.\20648_driver\dmp3/inv_mems_interface_mapping.c **** static unsigned long sStepCounterToBeSubtracted = 0;
  40:.\20648_driver\dmp3/inv_mems_interface_mapping.c **** 
  41:.\20648_driver\dmp3/inv_mems_interface_mapping.c **** // the old step 
  42:.\20648_driver\dmp3/inv_mems_interface_mapping.c **** static unsigned long sOldSteps = 0;
  43:.\20648_driver\dmp3/inv_mems_interface_mapping.c **** 
  44:.\20648_driver\dmp3/inv_mems_interface_mapping.c **** inv_error_t dmp_reset_odr_counters()
  45:.\20648_driver\dmp3/inv_mems_interface_mapping.c **** {
  26              		.loc 1 45 0
  27              		.cfi_startproc
  28 0000 08B5     		push	{r3, lr}
  29              		.cfi_def_cfa_offset 8
  30              		.cfi_offset 3, -8
  31              		.cfi_offset 14, -4
  46:.\20648_driver\dmp3/inv_mems_interface_mapping.c **** #if defined MEMS_20648
  47:.\20648_driver\dmp3/inv_mems_interface_mapping.c ****     return dmp_reset_odr_counters_20648();
  32              		.loc 1 47 0
  33 0002 FFF7FEFF 		bl	dmp_reset_odr_counters_20648
  34              	.LVL0:
  48:.\20648_driver\dmp3/inv_mems_interface_mapping.c **** #elif defined MEMS_20609
  49:.\20648_driver\dmp3/inv_mems_interface_mapping.c ****     return dmp_reset_odr_counters_20609();
  50:.\20648_driver\dmp3/inv_mems_interface_mapping.c **** #else
  51:.\20648_driver\dmp3/inv_mems_interface_mapping.c **** #error "Unsupported configuration"
  52:.\20648_driver\dmp3/inv_mems_interface_mapping.c **** #endif
  53:.\20648_driver\dmp3/inv_mems_interface_mapping.c **** }
  35              		.loc 1 53 0
  36              		@ sp needed
  37 0006 08BD     		pop	{r3, pc}
  38              		.cfi_endproc
  39              	.LFE0:
  40              		.size	dmp_reset_odr_counters, .-dmp_reset_odr_counters
  41              		.section	.text.dmp_reset_control_registers,"ax",%progbits
  42              		.align	1
  43              		.global	dmp_reset_control_registers
  44              		.code	16
  45              		.thumb_func
  46              		.type	dmp_reset_control_registers, %function
  47              	dmp_reset_control_registers:
  48              	.LFB1:
  54:.\20648_driver\dmp3/inv_mems_interface_mapping.c **** 
  55:.\20648_driver\dmp3/inv_mems_interface_mapping.c **** inv_error_t dmp_reset_control_registers()
  56:.\20648_driver\dmp3/inv_mems_interface_mapping.c **** {
  49              		.loc 1 56 0
  50              		.cfi_startproc
  51 0000 08B5     		push	{r3, lr}
  52              		.cfi_def_cfa_offset 8
  53              		.cfi_offset 3, -8
  54              		.cfi_offset 14, -4
  57:.\20648_driver\dmp3/inv_mems_interface_mapping.c **** #if defined MEMS_20630
  58:.\20648_driver\dmp3/inv_mems_interface_mapping.c ****     return dmp_reset_control_registers_20630();
  59:.\20648_driver\dmp3/inv_mems_interface_mapping.c **** #elif defined MEMS_30630
  60:.\20648_driver\dmp3/inv_mems_interface_mapping.c ****     return dmp_reset_control_registers_30630();
ARM GAS  C:\Users\ADMINI~1\AppData\Local\Temp\ccDzzuxj.s 			page 3


  61:.\20648_driver\dmp3/inv_mems_interface_mapping.c **** #elif defined MEMS_20645E
  62:.\20648_driver\dmp3/inv_mems_interface_mapping.c ****     return dmp_reset_control_registers_20645E();
  63:.\20648_driver\dmp3/inv_mems_interface_mapping.c **** #elif defined MEMS_20648
  64:.\20648_driver\dmp3/inv_mems_interface_mapping.c ****     return dmp_reset_control_registers_20648();
  55              		.loc 1 64 0
  56 0002 FFF7FEFF 		bl	dmp_reset_control_registers_20648
  57              	.LVL1:
  65:.\20648_driver\dmp3/inv_mems_interface_mapping.c **** #elif defined MEMS_20609
  66:.\20648_driver\dmp3/inv_mems_interface_mapping.c ****     return INV_SUCCESS;
  67:.\20648_driver\dmp3/inv_mems_interface_mapping.c **** #else
  68:.\20648_driver\dmp3/inv_mems_interface_mapping.c **** #error "Unsupported configuration"
  69:.\20648_driver\dmp3/inv_mems_interface_mapping.c **** #endif
  70:.\20648_driver\dmp3/inv_mems_interface_mapping.c **** }
  58              		.loc 1 70 0
  59              		@ sp needed
  60 0006 08BD     		pop	{r3, pc}
  61              		.cfi_endproc
  62              	.LFE1:
  63              		.size	dmp_reset_control_registers, .-dmp_reset_control_registers
  64              		.section	.text.dmp_set_data_output_control1,"ax",%progbits
  65              		.align	1
  66              		.global	dmp_set_data_output_control1
  67              		.code	16
  68              		.thumb_func
  69              		.type	dmp_set_data_output_control1, %function
  70              	dmp_set_data_output_control1:
  71              	.LFB2:
  71:.\20648_driver\dmp3/inv_mems_interface_mapping.c **** 
  72:.\20648_driver\dmp3/inv_mems_interface_mapping.c **** inv_error_t dmp_set_data_output_control1(int output_mask)
  73:.\20648_driver\dmp3/inv_mems_interface_mapping.c **** {
  72              		.loc 1 73 0
  73              		.cfi_startproc
  74              	.LVL2:
  75 0000 08B5     		push	{r3, lr}
  76              		.cfi_def_cfa_offset 8
  77              		.cfi_offset 3, -8
  78              		.cfi_offset 14, -4
  74:.\20648_driver\dmp3/inv_mems_interface_mapping.c **** #if defined MEMS_20630
  75:.\20648_driver\dmp3/inv_mems_interface_mapping.c ****     return dmp_set_data_output_control1_20630(output_mask);
  76:.\20648_driver\dmp3/inv_mems_interface_mapping.c **** #elif defined MEMS_30630
  77:.\20648_driver\dmp3/inv_mems_interface_mapping.c ****     return dmp_set_data_output_control1_30630(output_mask);
  78:.\20648_driver\dmp3/inv_mems_interface_mapping.c **** #elif defined MEMS_20645E
  79:.\20648_driver\dmp3/inv_mems_interface_mapping.c ****     return dmp_set_data_output_control1_20645E(output_mask);
  80:.\20648_driver\dmp3/inv_mems_interface_mapping.c **** #elif defined MEMS_20648
  81:.\20648_driver\dmp3/inv_mems_interface_mapping.c ****     return dmp_set_data_output_control1_20648(output_mask);
  79              		.loc 1 81 0
  80 0002 FFF7FEFF 		bl	dmp_set_data_output_control1_20648
  81              	.LVL3:
  82:.\20648_driver\dmp3/inv_mems_interface_mapping.c **** #elif defined MEMS_20609
  83:.\20648_driver\dmp3/inv_mems_interface_mapping.c ****     return dmp_set_dataout_control1_20609(output_mask);
  84:.\20648_driver\dmp3/inv_mems_interface_mapping.c **** #else
  85:.\20648_driver\dmp3/inv_mems_interface_mapping.c **** #error "Unsupported configuration"
  86:.\20648_driver\dmp3/inv_mems_interface_mapping.c **** #endif
  87:.\20648_driver\dmp3/inv_mems_interface_mapping.c **** }
  82              		.loc 1 87 0
  83              		@ sp needed
  84 0006 08BD     		pop	{r3, pc}
ARM GAS  C:\Users\ADMINI~1\AppData\Local\Temp\ccDzzuxj.s 			page 4


  85              		.cfi_endproc
  86              	.LFE2:
  87              		.size	dmp_set_data_output_control1, .-dmp_set_data_output_control1
  88              		.section	.text.dmp_set_data_output_control2,"ax",%progbits
  89              		.align	1
  90              		.global	dmp_set_data_output_control2
  91              		.code	16
  92              		.thumb_func
  93              		.type	dmp_set_data_output_control2, %function
  94              	dmp_set_data_output_control2:
  95              	.LFB3:
  88:.\20648_driver\dmp3/inv_mems_interface_mapping.c **** 
  89:.\20648_driver\dmp3/inv_mems_interface_mapping.c **** inv_error_t dmp_set_data_output_control2(int output_mask)
  90:.\20648_driver\dmp3/inv_mems_interface_mapping.c **** {
  96              		.loc 1 90 0
  97              		.cfi_startproc
  98              	.LVL4:
  99 0000 08B5     		push	{r3, lr}
 100              		.cfi_def_cfa_offset 8
 101              		.cfi_offset 3, -8
 102              		.cfi_offset 14, -4
  91:.\20648_driver\dmp3/inv_mems_interface_mapping.c **** #if defined MEMS_20630
  92:.\20648_driver\dmp3/inv_mems_interface_mapping.c ****     return dmp_set_data_output_control2_20630(output_mask);
  93:.\20648_driver\dmp3/inv_mems_interface_mapping.c **** #elif defined MEMS_30630
  94:.\20648_driver\dmp3/inv_mems_interface_mapping.c ****     return  dmp_set_data_output_control2_30630(output_mask);
  95:.\20648_driver\dmp3/inv_mems_interface_mapping.c **** #elif defined MEMS_20645E
  96:.\20648_driver\dmp3/inv_mems_interface_mapping.c ****     return  dmp_set_data_output_control2_20645E(output_mask);
  97:.\20648_driver\dmp3/inv_mems_interface_mapping.c **** #elif defined MEMS_20648
  98:.\20648_driver\dmp3/inv_mems_interface_mapping.c ****     return dmp_set_data_output_control2_20648(output_mask);
 103              		.loc 1 98 0
 104 0002 FFF7FEFF 		bl	dmp_set_data_output_control2_20648
 105              	.LVL5:
  99:.\20648_driver\dmp3/inv_mems_interface_mapping.c **** #elif defined MEMS_20609
 100:.\20648_driver\dmp3/inv_mems_interface_mapping.c ****     return dmp_set_dataout_control2_20609(output_mask);
 101:.\20648_driver\dmp3/inv_mems_interface_mapping.c **** #else
 102:.\20648_driver\dmp3/inv_mems_interface_mapping.c **** #error "Unsupported configuration"
 103:.\20648_driver\dmp3/inv_mems_interface_mapping.c **** #endif
 104:.\20648_driver\dmp3/inv_mems_interface_mapping.c **** }
 106              		.loc 1 104 0
 107              		@ sp needed
 108 0006 08BD     		pop	{r3, pc}
 109              		.cfi_endproc
 110              	.LFE3:
 111              		.size	dmp_set_data_output_control2, .-dmp_set_data_output_control2
 112              		.section	.text.dmp_set_data_interrupt_control,"ax",%progbits
 113              		.align	1
 114              		.global	dmp_set_data_interrupt_control
 115              		.code	16
 116              		.thumb_func
 117              		.type	dmp_set_data_interrupt_control, %function
 118              	dmp_set_data_interrupt_control:
 119              	.LFB4:
 105:.\20648_driver\dmp3/inv_mems_interface_mapping.c **** 
 106:.\20648_driver\dmp3/inv_mems_interface_mapping.c **** inv_error_t dmp_set_data_interrupt_control(uint32_t interrupt_ctl)
 107:.\20648_driver\dmp3/inv_mems_interface_mapping.c **** {
 120              		.loc 1 107 0
 121              		.cfi_startproc
ARM GAS  C:\Users\ADMINI~1\AppData\Local\Temp\ccDzzuxj.s 			page 5


 122              	.LVL6:
 123 0000 08B5     		push	{r3, lr}
 124              		.cfi_def_cfa_offset 8
 125              		.cfi_offset 3, -8
 126              		.cfi_offset 14, -4
 108:.\20648_driver\dmp3/inv_mems_interface_mapping.c **** #if defined MEMS_20630
 109:.\20648_driver\dmp3/inv_mems_interface_mapping.c ****     return dmp_set_data_interrupt_control_20630(interrupt_ctl);
 110:.\20648_driver\dmp3/inv_mems_interface_mapping.c **** #elif defined MEMS_30630
 111:.\20648_driver\dmp3/inv_mems_interface_mapping.c ****     return dmp_set_data_interrupt_control_30630(interrupt_ctl);
 112:.\20648_driver\dmp3/inv_mems_interface_mapping.c **** #elif defined MEMS_20645E
 113:.\20648_driver\dmp3/inv_mems_interface_mapping.c ****     return dmp_set_data_interrupt_control_20645E(interrupt_ctl);
 114:.\20648_driver\dmp3/inv_mems_interface_mapping.c **** #elif defined MEMS_20648
 115:.\20648_driver\dmp3/inv_mems_interface_mapping.c ****     return dmp_set_data_interrupt_control_20648(interrupt_ctl);
 127              		.loc 1 115 0
 128 0002 FFF7FEFF 		bl	dmp_set_data_interrupt_control_20648
 129              	.LVL7:
 116:.\20648_driver\dmp3/inv_mems_interface_mapping.c **** #elif defined MEMS_20609
 117:.\20648_driver\dmp3/inv_mems_interface_mapping.c ****     return INV_SUCCESS;
 118:.\20648_driver\dmp3/inv_mems_interface_mapping.c **** #else
 119:.\20648_driver\dmp3/inv_mems_interface_mapping.c **** #error "Unsupported configuration"
 120:.\20648_driver\dmp3/inv_mems_interface_mapping.c **** #endif
 121:.\20648_driver\dmp3/inv_mems_interface_mapping.c **** }
 130              		.loc 1 121 0
 131              		@ sp needed
 132 0006 08BD     		pop	{r3, pc}
 133              		.cfi_endproc
 134              	.LFE4:
 135              		.size	dmp_set_data_interrupt_control, .-dmp_set_data_interrupt_control
 136              		.section	.text.dmp_set_FIFO_watermark,"ax",%progbits
 137              		.align	1
 138              		.global	dmp_set_FIFO_watermark
 139              		.code	16
 140              		.thumb_func
 141              		.type	dmp_set_FIFO_watermark, %function
 142              	dmp_set_FIFO_watermark:
 143              	.LFB5:
 122:.\20648_driver\dmp3/inv_mems_interface_mapping.c **** 
 123:.\20648_driver\dmp3/inv_mems_interface_mapping.c **** inv_error_t dmp_set_FIFO_watermark(unsigned short fifo_wm)
 124:.\20648_driver\dmp3/inv_mems_interface_mapping.c **** {
 144              		.loc 1 124 0
 145              		.cfi_startproc
 146              	.LVL8:
 147 0000 08B5     		push	{r3, lr}
 148              		.cfi_def_cfa_offset 8
 149              		.cfi_offset 3, -8
 150              		.cfi_offset 14, -4
 125:.\20648_driver\dmp3/inv_mems_interface_mapping.c **** #if defined MEMS_20630
 126:.\20648_driver\dmp3/inv_mems_interface_mapping.c ****     return INV_ERROR_INVALID_CONFIGURATION;
 127:.\20648_driver\dmp3/inv_mems_interface_mapping.c **** #elif defined MEMS_30630
 128:.\20648_driver\dmp3/inv_mems_interface_mapping.c ****     return dmp_set_FIFO_watermark_30630(fifo_wm);
 129:.\20648_driver\dmp3/inv_mems_interface_mapping.c **** #elif defined MEMS_20645E
 130:.\20648_driver\dmp3/inv_mems_interface_mapping.c ****     return dmp_set_FIFO_watermark_20645E(fifo_wm);
 131:.\20648_driver\dmp3/inv_mems_interface_mapping.c **** #elif defined MEMS_20648
 132:.\20648_driver\dmp3/inv_mems_interface_mapping.c ****     return dmp_set_FIFO_watermark_20648(fifo_wm);
 151              		.loc 1 132 0
 152 0002 FFF7FEFF 		bl	dmp_set_FIFO_watermark_20648
 153              	.LVL9:
ARM GAS  C:\Users\ADMINI~1\AppData\Local\Temp\ccDzzuxj.s 			page 6


 133:.\20648_driver\dmp3/inv_mems_interface_mapping.c **** #elif defined MEMS_20609
 134:.\20648_driver\dmp3/inv_mems_interface_mapping.c ****     return INV_SUCCESS;
 135:.\20648_driver\dmp3/inv_mems_interface_mapping.c **** #else
 136:.\20648_driver\dmp3/inv_mems_interface_mapping.c **** #error "Unsupported configuration"
 137:.\20648_driver\dmp3/inv_mems_interface_mapping.c **** #endif
 138:.\20648_driver\dmp3/inv_mems_interface_mapping.c **** }
 154              		.loc 1 138 0
 155              		@ sp needed
 156 0006 08BD     		pop	{r3, pc}
 157              		.cfi_endproc
 158              	.LFE5:
 159              		.size	dmp_set_FIFO_watermark, .-dmp_set_FIFO_watermark
 160              		.section	.text.dmp_set_data_rdy_status,"ax",%progbits
 161              		.align	1
 162              		.global	dmp_set_data_rdy_status
 163              		.code	16
 164              		.thumb_func
 165              		.type	dmp_set_data_rdy_status, %function
 166              	dmp_set_data_rdy_status:
 167              	.LFB6:
 139:.\20648_driver\dmp3/inv_mems_interface_mapping.c **** 
 140:.\20648_driver\dmp3/inv_mems_interface_mapping.c **** inv_error_t dmp_set_data_rdy_status(unsigned short data_rdy)
 141:.\20648_driver\dmp3/inv_mems_interface_mapping.c **** {
 168              		.loc 1 141 0
 169              		.cfi_startproc
 170              	.LVL10:
 171 0000 08B5     		push	{r3, lr}
 172              		.cfi_def_cfa_offset 8
 173              		.cfi_offset 3, -8
 174              		.cfi_offset 14, -4
 142:.\20648_driver\dmp3/inv_mems_interface_mapping.c **** #if defined MEMS_20630
 143:.\20648_driver\dmp3/inv_mems_interface_mapping.c ****     return dmp_set_data_rdy_status_20630(data_rdy);
 144:.\20648_driver\dmp3/inv_mems_interface_mapping.c **** #elif defined MEMS_30630
 145:.\20648_driver\dmp3/inv_mems_interface_mapping.c ****     return dmp_set_data_rdy_status_30630(data_rdy);
 146:.\20648_driver\dmp3/inv_mems_interface_mapping.c **** #elif defined MEMS_20645E
 147:.\20648_driver\dmp3/inv_mems_interface_mapping.c ****     return dmp_set_data_rdy_status_20645E(data_rdy);
 148:.\20648_driver\dmp3/inv_mems_interface_mapping.c **** #elif defined MEMS_20648
 149:.\20648_driver\dmp3/inv_mems_interface_mapping.c ****     return dmp_set_data_rdy_status_20648(data_rdy);
 175              		.loc 1 149 0
 176 0002 FFF7FEFF 		bl	dmp_set_data_rdy_status_20648
 177              	.LVL11:
 150:.\20648_driver\dmp3/inv_mems_interface_mapping.c **** #elif defined MEMS_20609
 151:.\20648_driver\dmp3/inv_mems_interface_mapping.c ****     return INV_SUCCESS;
 152:.\20648_driver\dmp3/inv_mems_interface_mapping.c **** #else
 153:.\20648_driver\dmp3/inv_mems_interface_mapping.c **** #error "Unsupported configuration"
 154:.\20648_driver\dmp3/inv_mems_interface_mapping.c **** #endif
 155:.\20648_driver\dmp3/inv_mems_interface_mapping.c **** }
 178              		.loc 1 155 0
 179              		@ sp needed
 180 0006 08BD     		pop	{r3, pc}
 181              		.cfi_endproc
 182              	.LFE6:
 183              		.size	dmp_set_data_rdy_status, .-dmp_set_data_rdy_status
 184              		.section	.text.dmp_set_motion_event_control,"ax",%progbits
 185              		.align	1
 186              		.global	dmp_set_motion_event_control
 187              		.code	16
ARM GAS  C:\Users\ADMINI~1\AppData\Local\Temp\ccDzzuxj.s 			page 7


 188              		.thumb_func
 189              		.type	dmp_set_motion_event_control, %function
 190              	dmp_set_motion_event_control:
 191              	.LFB7:
 156:.\20648_driver\dmp3/inv_mems_interface_mapping.c **** 
 157:.\20648_driver\dmp3/inv_mems_interface_mapping.c **** inv_error_t dmp_set_motion_event_control(unsigned short motion_mask)
 158:.\20648_driver\dmp3/inv_mems_interface_mapping.c **** {
 192              		.loc 1 158 0
 193              		.cfi_startproc
 194              	.LVL12:
 195 0000 08B5     		push	{r3, lr}
 196              		.cfi_def_cfa_offset 8
 197              		.cfi_offset 3, -8
 198              		.cfi_offset 14, -4
 159:.\20648_driver\dmp3/inv_mems_interface_mapping.c **** #if defined MEMS_20630
 160:.\20648_driver\dmp3/inv_mems_interface_mapping.c ****     return dmp_set_motion_event_control_20630(motion_mask);
 161:.\20648_driver\dmp3/inv_mems_interface_mapping.c **** #elif defined MEMS_30630
 162:.\20648_driver\dmp3/inv_mems_interface_mapping.c ****     return dmp_set_motion_event_control_30630(motion_mask);
 163:.\20648_driver\dmp3/inv_mems_interface_mapping.c **** #elif defined MEMS_20645E
 164:.\20648_driver\dmp3/inv_mems_interface_mapping.c ****     return dmp_set_motion_event_control_20645E(motion_mask);
 165:.\20648_driver\dmp3/inv_mems_interface_mapping.c **** #elif defined MEMS_20648
 166:.\20648_driver\dmp3/inv_mems_interface_mapping.c ****     return dmp_set_motion_event_control_20648(motion_mask);
 199              		.loc 1 166 0
 200 0002 FFF7FEFF 		bl	dmp_set_motion_event_control_20648
 201              	.LVL13:
 167:.\20648_driver\dmp3/inv_mems_interface_mapping.c **** #elif defined MEMS_20609
 168:.\20648_driver\dmp3/inv_mems_interface_mapping.c ****     return dmp_set_motion_interrupt_control_20609(motion_mask);
 169:.\20648_driver\dmp3/inv_mems_interface_mapping.c **** #else
 170:.\20648_driver\dmp3/inv_mems_interface_mapping.c **** #error "Unsupported configuration"
 171:.\20648_driver\dmp3/inv_mems_interface_mapping.c **** #endif
 172:.\20648_driver\dmp3/inv_mems_interface_mapping.c **** }
 202              		.loc 1 172 0
 203              		@ sp needed
 204 0006 08BD     		pop	{r3, pc}
 205              		.cfi_endproc
 206              	.LFE7:
 207              		.size	dmp_set_motion_event_control, .-dmp_set_motion_event_control
 208              		.section	.text.dmp_set_sensor_rate,"ax",%progbits
 209              		.align	1
 210              		.global	dmp_set_sensor_rate
 211              		.code	16
 212              		.thumb_func
 213              		.type	dmp_set_sensor_rate, %function
 214              	dmp_set_sensor_rate:
 215              	.LFB8:
 173:.\20648_driver\dmp3/inv_mems_interface_mapping.c **** 
 174:.\20648_driver\dmp3/inv_mems_interface_mapping.c **** inv_error_t dmp_set_sensor_rate(int sensor, short divider)
 175:.\20648_driver\dmp3/inv_mems_interface_mapping.c **** {
 216              		.loc 1 175 0
 217              		.cfi_startproc
 218              	.LVL14:
 219 0000 08B5     		push	{r3, lr}
 220              		.cfi_def_cfa_offset 8
 221              		.cfi_offset 3, -8
 222              		.cfi_offset 14, -4
 176:.\20648_driver\dmp3/inv_mems_interface_mapping.c **** #if defined MEMS_20630
 177:.\20648_driver\dmp3/inv_mems_interface_mapping.c ****     return dmp_set_sensor_rate_20630(sensor, divider);
ARM GAS  C:\Users\ADMINI~1\AppData\Local\Temp\ccDzzuxj.s 			page 8


 178:.\20648_driver\dmp3/inv_mems_interface_mapping.c **** #elif defined MEMS_30630
 179:.\20648_driver\dmp3/inv_mems_interface_mapping.c ****     return dmp_set_sensor_rate_30630(sensor, divider);
 180:.\20648_driver\dmp3/inv_mems_interface_mapping.c **** #elif defined MEMS_20645E
 181:.\20648_driver\dmp3/inv_mems_interface_mapping.c ****     return dmp_set_sensor_rate_20645E(sensor, divider);
 182:.\20648_driver\dmp3/inv_mems_interface_mapping.c **** #elif defined MEMS_20648
 183:.\20648_driver\dmp3/inv_mems_interface_mapping.c ****     return dmp_set_sensor_rate_20648(sensor, divider);
 223              		.loc 1 183 0
 224 0002 FFF7FEFF 		bl	dmp_set_sensor_rate_20648
 225              	.LVL15:
 184:.\20648_driver\dmp3/inv_mems_interface_mapping.c **** #elif defined MEMS_20609
 185:.\20648_driver\dmp3/inv_mems_interface_mapping.c ****     return dmp_set_sensor_rate_20609(sensor, divider);
 186:.\20648_driver\dmp3/inv_mems_interface_mapping.c **** #else
 187:.\20648_driver\dmp3/inv_mems_interface_mapping.c **** #error "Unsupported configuration"
 188:.\20648_driver\dmp3/inv_mems_interface_mapping.c **** #endif
 189:.\20648_driver\dmp3/inv_mems_interface_mapping.c **** }
 226              		.loc 1 189 0
 227              		@ sp needed
 228 0006 08BD     		pop	{r3, pc}
 229              		.cfi_endproc
 230              	.LFE8:
 231              		.size	dmp_set_sensor_rate, .-dmp_set_sensor_rate
 232              		.section	.text.dmp_set_batchmode_params,"ax",%progbits
 233              		.align	1
 234              		.global	dmp_set_batchmode_params
 235              		.code	16
 236              		.thumb_func
 237              		.type	dmp_set_batchmode_params, %function
 238              	dmp_set_batchmode_params:
 239              	.LFB9:
 190:.\20648_driver\dmp3/inv_mems_interface_mapping.c **** 
 191:.\20648_driver\dmp3/inv_mems_interface_mapping.c **** inv_error_t dmp_set_batchmode_params(unsigned int thld, short mask)
 192:.\20648_driver\dmp3/inv_mems_interface_mapping.c **** {
 240              		.loc 1 192 0
 241              		.cfi_startproc
 242              	.LVL16:
 243 0000 08B5     		push	{r3, lr}
 244              		.cfi_def_cfa_offset 8
 245              		.cfi_offset 3, -8
 246              		.cfi_offset 14, -4
 193:.\20648_driver\dmp3/inv_mems_interface_mapping.c **** #if defined MEMS_20630
 194:.\20648_driver\dmp3/inv_mems_interface_mapping.c ****     return dmp_set_batchmode_params_20630(thld, mask);
 195:.\20648_driver\dmp3/inv_mems_interface_mapping.c **** #elif defined MEMS_30630
 196:.\20648_driver\dmp3/inv_mems_interface_mapping.c ****     return dmp_set_batchmode_params_30630(thld, mask);
 197:.\20648_driver\dmp3/inv_mems_interface_mapping.c **** #elif defined MEMS_20645E
 198:.\20648_driver\dmp3/inv_mems_interface_mapping.c ****     return dmp_set_batchmode_params_20645E(thld, mask);
 199:.\20648_driver\dmp3/inv_mems_interface_mapping.c **** #elif defined MEMS_20648
 200:.\20648_driver\dmp3/inv_mems_interface_mapping.c ****     return dmp_set_batchmode_params_20648(thld, mask);
 247              		.loc 1 200 0
 248 0002 FFF7FEFF 		bl	dmp_set_batchmode_params_20648
 249              	.LVL17:
 201:.\20648_driver\dmp3/inv_mems_interface_mapping.c **** #elif defined MEMS_20609
 202:.\20648_driver\dmp3/inv_mems_interface_mapping.c ****     return INV_SUCCESS;
 203:.\20648_driver\dmp3/inv_mems_interface_mapping.c **** #else
 204:.\20648_driver\dmp3/inv_mems_interface_mapping.c **** #error "Unsupported configuration"
 205:.\20648_driver\dmp3/inv_mems_interface_mapping.c **** #endif
 206:.\20648_driver\dmp3/inv_mems_interface_mapping.c **** }
 250              		.loc 1 206 0
ARM GAS  C:\Users\ADMINI~1\AppData\Local\Temp\ccDzzuxj.s 			page 9


 251              		@ sp needed
 252 0006 08BD     		pop	{r3, pc}
 253              		.cfi_endproc
 254              	.LFE9:
 255              		.size	dmp_set_batchmode_params, .-dmp_set_batchmode_params
 256              		.section	.text.dmp_set_bias,"ax",%progbits
 257              		.align	1
 258              		.global	dmp_set_bias
 259              		.code	16
 260              		.thumb_func
 261              		.type	dmp_set_bias, %function
 262              	dmp_set_bias:
 263              	.LFB10:
 207:.\20648_driver\dmp3/inv_mems_interface_mapping.c **** 
 208:.\20648_driver\dmp3/inv_mems_interface_mapping.c **** inv_error_t dmp_set_bias(int *bias)
 209:.\20648_driver\dmp3/inv_mems_interface_mapping.c **** {
 264              		.loc 1 209 0
 265              		.cfi_startproc
 266              	.LVL18:
 267 0000 08B5     		push	{r3, lr}
 268              		.cfi_def_cfa_offset 8
 269              		.cfi_offset 3, -8
 270              		.cfi_offset 14, -4
 210:.\20648_driver\dmp3/inv_mems_interface_mapping.c **** #if defined MEMS_20630
 211:.\20648_driver\dmp3/inv_mems_interface_mapping.c ****     return dmp_set_bias_20630(bias);
 212:.\20648_driver\dmp3/inv_mems_interface_mapping.c **** #elif defined MEMS_30630
 213:.\20648_driver\dmp3/inv_mems_interface_mapping.c ****     return dmp_set_bias_30630(bias);
 214:.\20648_driver\dmp3/inv_mems_interface_mapping.c **** #elif defined MEMS_20645E
 215:.\20648_driver\dmp3/inv_mems_interface_mapping.c ****     return dmp_set_bias_20645E(bias);
 216:.\20648_driver\dmp3/inv_mems_interface_mapping.c **** #elif defined MEMS_20648
 217:.\20648_driver\dmp3/inv_mems_interface_mapping.c ****     return dmp_set_bias_20648(bias);
 271              		.loc 1 217 0
 272 0002 FFF7FEFF 		bl	dmp_set_bias_20648
 273              	.LVL19:
 218:.\20648_driver\dmp3/inv_mems_interface_mapping.c **** #elif defined MEMS_20609
 219:.\20648_driver\dmp3/inv_mems_interface_mapping.c ****     return INV_SUCCESS;
 220:.\20648_driver\dmp3/inv_mems_interface_mapping.c **** #else
 221:.\20648_driver\dmp3/inv_mems_interface_mapping.c **** #error "Unsupported configuration"
 222:.\20648_driver\dmp3/inv_mems_interface_mapping.c **** #endif
 223:.\20648_driver\dmp3/inv_mems_interface_mapping.c **** }
 274              		.loc 1 223 0
 275              		@ sp needed
 276 0006 08BD     		pop	{r3, pc}
 277              		.cfi_endproc
 278              	.LFE10:
 279              		.size	dmp_set_bias, .-dmp_set_bias
 280              		.section	.text.dmp_get_bias,"ax",%progbits
 281              		.align	1
 282              		.global	dmp_get_bias
 283              		.code	16
 284              		.thumb_func
 285              		.type	dmp_get_bias, %function
 286              	dmp_get_bias:
 287              	.LFB11:
 224:.\20648_driver\dmp3/inv_mems_interface_mapping.c **** 
 225:.\20648_driver\dmp3/inv_mems_interface_mapping.c **** inv_error_t dmp_get_bias(int *bias)
 226:.\20648_driver\dmp3/inv_mems_interface_mapping.c **** {
ARM GAS  C:\Users\ADMINI~1\AppData\Local\Temp\ccDzzuxj.s 			page 10


 288              		.loc 1 226 0
 289              		.cfi_startproc
 290              	.LVL20:
 291 0000 08B5     		push	{r3, lr}
 292              		.cfi_def_cfa_offset 8
 293              		.cfi_offset 3, -8
 294              		.cfi_offset 14, -4
 227:.\20648_driver\dmp3/inv_mems_interface_mapping.c **** #if defined MEMS_20630
 228:.\20648_driver\dmp3/inv_mems_interface_mapping.c ****     return dmp_get_bias_20630(bias);
 229:.\20648_driver\dmp3/inv_mems_interface_mapping.c **** #elif defined MEMS_30630
 230:.\20648_driver\dmp3/inv_mems_interface_mapping.c ****     return dmp_get_bias_30630(bias);
 231:.\20648_driver\dmp3/inv_mems_interface_mapping.c **** #elif defined MEMS_20645E
 232:.\20648_driver\dmp3/inv_mems_interface_mapping.c ****     return dmp_get_bias_20645E(bias);
 233:.\20648_driver\dmp3/inv_mems_interface_mapping.c **** #elif defined MEMS_20648
 234:.\20648_driver\dmp3/inv_mems_interface_mapping.c ****     return dmp_get_bias_20648(bias);
 295              		.loc 1 234 0
 296 0002 FFF7FEFF 		bl	dmp_get_bias_20648
 297              	.LVL21:
 235:.\20648_driver\dmp3/inv_mems_interface_mapping.c **** #elif defined MEMS_20609
 236:.\20648_driver\dmp3/inv_mems_interface_mapping.c ****     return INV_SUCCESS;
 237:.\20648_driver\dmp3/inv_mems_interface_mapping.c **** #else
 238:.\20648_driver\dmp3/inv_mems_interface_mapping.c **** #error "Unsupported configuration"
 239:.\20648_driver\dmp3/inv_mems_interface_mapping.c **** #endif
 240:.\20648_driver\dmp3/inv_mems_interface_mapping.c **** }
 298              		.loc 1 240 0
 299              		@ sp needed
 300 0006 08BD     		pop	{r3, pc}
 301              		.cfi_endproc
 302              	.LFE11:
 303              		.size	dmp_get_bias, .-dmp_get_bias
 304              		.section	.text.dmp_set_gyro_sf,"ax",%progbits
 305              		.align	1
 306              		.global	dmp_set_gyro_sf
 307              		.code	16
 308              		.thumb_func
 309              		.type	dmp_set_gyro_sf, %function
 310              	dmp_set_gyro_sf:
 311              	.LFB12:
 241:.\20648_driver\dmp3/inv_mems_interface_mapping.c **** 
 242:.\20648_driver\dmp3/inv_mems_interface_mapping.c **** inv_error_t dmp_set_gyro_sf(long gyro_sf)
 243:.\20648_driver\dmp3/inv_mems_interface_mapping.c **** {
 312              		.loc 1 243 0
 313              		.cfi_startproc
 314              	.LVL22:
 315 0000 08B5     		push	{r3, lr}
 316              		.cfi_def_cfa_offset 8
 317              		.cfi_offset 3, -8
 318              		.cfi_offset 14, -4
 244:.\20648_driver\dmp3/inv_mems_interface_mapping.c **** #if defined MEMS_20630
 245:.\20648_driver\dmp3/inv_mems_interface_mapping.c ****     return dmp_set_gyro_sf_20630(gyro_sf);
 246:.\20648_driver\dmp3/inv_mems_interface_mapping.c **** #elif defined MEMS_30630
 247:.\20648_driver\dmp3/inv_mems_interface_mapping.c ****     return dmp_set_gyro_sf_30630(gyro_sf);
 248:.\20648_driver\dmp3/inv_mems_interface_mapping.c **** #elif defined MEMS_20645E
 249:.\20648_driver\dmp3/inv_mems_interface_mapping.c ****     return dmp_set_gyro_sf_20645E(gyro_sf);
 250:.\20648_driver\dmp3/inv_mems_interface_mapping.c **** #elif defined MEMS_20648
 251:.\20648_driver\dmp3/inv_mems_interface_mapping.c ****     return dmp_set_gyro_sf_20648(gyro_sf);
 319              		.loc 1 251 0
ARM GAS  C:\Users\ADMINI~1\AppData\Local\Temp\ccDzzuxj.s 			page 11


 320 0002 FFF7FEFF 		bl	dmp_set_gyro_sf_20648
 321              	.LVL23:
 252:.\20648_driver\dmp3/inv_mems_interface_mapping.c **** #elif defined MEMS_20609
 253:.\20648_driver\dmp3/inv_mems_interface_mapping.c ****     return INV_SUCCESS;
 254:.\20648_driver\dmp3/inv_mems_interface_mapping.c **** #else
 255:.\20648_driver\dmp3/inv_mems_interface_mapping.c **** #error "Unsupported configuration"
 256:.\20648_driver\dmp3/inv_mems_interface_mapping.c **** #endif
 257:.\20648_driver\dmp3/inv_mems_interface_mapping.c **** }
 322              		.loc 1 257 0
 323              		@ sp needed
 324 0006 08BD     		pop	{r3, pc}
 325              		.cfi_endproc
 326              	.LFE12:
 327              		.size	dmp_set_gyro_sf, .-dmp_set_gyro_sf
 328              		.section	.text.dmp_set_accel_feedback_gain,"ax",%progbits
 329              		.align	1
 330              		.global	dmp_set_accel_feedback_gain
 331              		.code	16
 332              		.thumb_func
 333              		.type	dmp_set_accel_feedback_gain, %function
 334              	dmp_set_accel_feedback_gain:
 335              	.LFB13:
 258:.\20648_driver\dmp3/inv_mems_interface_mapping.c **** 
 259:.\20648_driver\dmp3/inv_mems_interface_mapping.c **** inv_error_t dmp_set_accel_feedback_gain(int accel_gain)
 260:.\20648_driver\dmp3/inv_mems_interface_mapping.c **** {
 336              		.loc 1 260 0
 337              		.cfi_startproc
 338              	.LVL24:
 339 0000 08B5     		push	{r3, lr}
 340              		.cfi_def_cfa_offset 8
 341              		.cfi_offset 3, -8
 342              		.cfi_offset 14, -4
 261:.\20648_driver\dmp3/inv_mems_interface_mapping.c **** #if defined MEMS_20630
 262:.\20648_driver\dmp3/inv_mems_interface_mapping.c ****     return dmp_set_accel_feedback_gain_20630(accel_gain);
 263:.\20648_driver\dmp3/inv_mems_interface_mapping.c **** #elif defined MEMS_30630
 264:.\20648_driver\dmp3/inv_mems_interface_mapping.c ****     return dmp_set_accel_feedback_gain_30630(accel_gain);
 265:.\20648_driver\dmp3/inv_mems_interface_mapping.c **** #elif defined MEMS_20645E
 266:.\20648_driver\dmp3/inv_mems_interface_mapping.c ****     return dmp_set_accel_feedback_gain_20645E(accel_gain);
 267:.\20648_driver\dmp3/inv_mems_interface_mapping.c **** #elif defined MEMS_20648
 268:.\20648_driver\dmp3/inv_mems_interface_mapping.c ****     return dmp_set_accel_feedback_gain_20648(accel_gain);
 343              		.loc 1 268 0
 344 0002 FFF7FEFF 		bl	dmp_set_accel_feedback_gain_20648
 345              	.LVL25:
 269:.\20648_driver\dmp3/inv_mems_interface_mapping.c **** #elif defined MEMS_20609
 270:.\20648_driver\dmp3/inv_mems_interface_mapping.c ****     return INV_SUCCESS;
 271:.\20648_driver\dmp3/inv_mems_interface_mapping.c **** #else
 272:.\20648_driver\dmp3/inv_mems_interface_mapping.c **** #error "Unsupported configuration"
 273:.\20648_driver\dmp3/inv_mems_interface_mapping.c **** #endif
 274:.\20648_driver\dmp3/inv_mems_interface_mapping.c **** }
 346              		.loc 1 274 0
 347              		@ sp needed
 348 0006 08BD     		pop	{r3, pc}
 349              		.cfi_endproc
 350              	.LFE13:
 351              		.size	dmp_set_accel_feedback_gain, .-dmp_set_accel_feedback_gain
 352              		.section	.text.dmp_set_accel_cal_params,"ax",%progbits
 353              		.align	1
ARM GAS  C:\Users\ADMINI~1\AppData\Local\Temp\ccDzzuxj.s 			page 12


 354              		.global	dmp_set_accel_cal_params
 355              		.code	16
 356              		.thumb_func
 357              		.type	dmp_set_accel_cal_params, %function
 358              	dmp_set_accel_cal_params:
 359              	.LFB14:
 275:.\20648_driver\dmp3/inv_mems_interface_mapping.c **** 
 276:.\20648_driver\dmp3/inv_mems_interface_mapping.c **** inv_error_t dmp_set_accel_cal_params(int *accel_cal)
 277:.\20648_driver\dmp3/inv_mems_interface_mapping.c **** {
 360              		.loc 1 277 0
 361              		.cfi_startproc
 362              	.LVL26:
 363 0000 08B5     		push	{r3, lr}
 364              		.cfi_def_cfa_offset 8
 365              		.cfi_offset 3, -8
 366              		.cfi_offset 14, -4
 278:.\20648_driver\dmp3/inv_mems_interface_mapping.c **** #if defined MEMS_20630
 279:.\20648_driver\dmp3/inv_mems_interface_mapping.c ****     return dmp_set_accel_cal_params_20630(accel_cal);
 280:.\20648_driver\dmp3/inv_mems_interface_mapping.c **** #elif defined MEMS_30630
 281:.\20648_driver\dmp3/inv_mems_interface_mapping.c ****     return dmp_set_accel_cal_params_30630(accel_cal);
 282:.\20648_driver\dmp3/inv_mems_interface_mapping.c **** #elif defined MEMS_20645E
 283:.\20648_driver\dmp3/inv_mems_interface_mapping.c ****     return dmp_set_accel_cal_params_20645E(accel_cal);
 284:.\20648_driver\dmp3/inv_mems_interface_mapping.c **** #elif defined MEMS_20648
 285:.\20648_driver\dmp3/inv_mems_interface_mapping.c ****     return dmp_set_accel_cal_params_20648(accel_cal);
 367              		.loc 1 285 0
 368 0002 FFF7FEFF 		bl	dmp_set_accel_cal_params_20648
 369              	.LVL27:
 286:.\20648_driver\dmp3/inv_mems_interface_mapping.c **** #elif defined MEMS_20609
 287:.\20648_driver\dmp3/inv_mems_interface_mapping.c ****     return INV_SUCCESS;
 288:.\20648_driver\dmp3/inv_mems_interface_mapping.c **** #else
 289:.\20648_driver\dmp3/inv_mems_interface_mapping.c **** #error "Unsupported configuration"
 290:.\20648_driver\dmp3/inv_mems_interface_mapping.c **** #endif
 291:.\20648_driver\dmp3/inv_mems_interface_mapping.c **** }
 370              		.loc 1 291 0
 371              		@ sp needed
 372 0006 08BD     		pop	{r3, pc}
 373              		.cfi_endproc
 374              	.LFE14:
 375              		.size	dmp_set_accel_cal_params, .-dmp_set_accel_cal_params
 376              		.section	.text.dmp_set_compass_cal_params,"ax",%progbits
 377              		.align	1
 378              		.global	dmp_set_compass_cal_params
 379              		.code	16
 380              		.thumb_func
 381              		.type	dmp_set_compass_cal_params, %function
 382              	dmp_set_compass_cal_params:
 383              	.LFB15:
 292:.\20648_driver\dmp3/inv_mems_interface_mapping.c **** 
 293:.\20648_driver\dmp3/inv_mems_interface_mapping.c **** inv_error_t dmp_set_compass_cal_params(int *compass_cal)
 294:.\20648_driver\dmp3/inv_mems_interface_mapping.c **** {
 384              		.loc 1 294 0
 385              		.cfi_startproc
 386              	.LVL28:
 387 0000 08B5     		push	{r3, lr}
 388              		.cfi_def_cfa_offset 8
 389              		.cfi_offset 3, -8
 390              		.cfi_offset 14, -4
ARM GAS  C:\Users\ADMINI~1\AppData\Local\Temp\ccDzzuxj.s 			page 13


 295:.\20648_driver\dmp3/inv_mems_interface_mapping.c **** #if defined MEMS_20630
 296:.\20648_driver\dmp3/inv_mems_interface_mapping.c ****     return dmp_set_compass_cal_params_20630(compass_cal);
 297:.\20648_driver\dmp3/inv_mems_interface_mapping.c **** #elif defined MEMS_30630
 298:.\20648_driver\dmp3/inv_mems_interface_mapping.c ****     return INV_ERROR_INVALID_CONFIGURATION;
 299:.\20648_driver\dmp3/inv_mems_interface_mapping.c **** #elif defined MEMS_20645E
 300:.\20648_driver\dmp3/inv_mems_interface_mapping.c ****     return INV_ERROR_INVALID_CONFIGURATION;
 301:.\20648_driver\dmp3/inv_mems_interface_mapping.c **** #elif defined MEMS_20648
 302:.\20648_driver\dmp3/inv_mems_interface_mapping.c ****     return dmp_set_compass_cal_params_20648(compass_cal);
 391              		.loc 1 302 0
 392 0002 FFF7FEFF 		bl	dmp_set_compass_cal_params_20648
 393              	.LVL29:
 303:.\20648_driver\dmp3/inv_mems_interface_mapping.c **** #elif defined MEMS_20609
 304:.\20648_driver\dmp3/inv_mems_interface_mapping.c ****     return INV_SUCCESS;
 305:.\20648_driver\dmp3/inv_mems_interface_mapping.c **** #else
 306:.\20648_driver\dmp3/inv_mems_interface_mapping.c **** #error "Unsupported configuration"
 307:.\20648_driver\dmp3/inv_mems_interface_mapping.c **** #endif
 308:.\20648_driver\dmp3/inv_mems_interface_mapping.c **** }
 394              		.loc 1 308 0
 395              		@ sp needed
 396 0006 08BD     		pop	{r3, pc}
 397              		.cfi_endproc
 398              	.LFE15:
 399              		.size	dmp_set_compass_cal_params, .-dmp_set_compass_cal_params
 400              		.section	.text.dmp_set_compass_matrix,"ax",%progbits
 401              		.align	1
 402              		.global	dmp_set_compass_matrix
 403              		.code	16
 404              		.thumb_func
 405              		.type	dmp_set_compass_matrix, %function
 406              	dmp_set_compass_matrix:
 407              	.LFB16:
 309:.\20648_driver\dmp3/inv_mems_interface_mapping.c **** 
 310:.\20648_driver\dmp3/inv_mems_interface_mapping.c **** inv_error_t dmp_set_compass_matrix(int *compass_mtx)
 311:.\20648_driver\dmp3/inv_mems_interface_mapping.c **** {
 408              		.loc 1 311 0
 409              		.cfi_startproc
 410              	.LVL30:
 411 0000 08B5     		push	{r3, lr}
 412              		.cfi_def_cfa_offset 8
 413              		.cfi_offset 3, -8
 414              		.cfi_offset 14, -4
 312:.\20648_driver\dmp3/inv_mems_interface_mapping.c **** #if defined MEMS_20630
 313:.\20648_driver\dmp3/inv_mems_interface_mapping.c ****     return dmp_set_compass_matrix_20630(compass_mtx);
 314:.\20648_driver\dmp3/inv_mems_interface_mapping.c **** #elif defined MEMS_30630
 315:.\20648_driver\dmp3/inv_mems_interface_mapping.c ****     return INV_ERROR_INVALID_CONFIGURATION;
 316:.\20648_driver\dmp3/inv_mems_interface_mapping.c **** #elif defined MEMS_20645E
 317:.\20648_driver\dmp3/inv_mems_interface_mapping.c ****     return INV_ERROR_INVALID_CONFIGURATION;
 318:.\20648_driver\dmp3/inv_mems_interface_mapping.c **** #elif defined MEMS_20648
 319:.\20648_driver\dmp3/inv_mems_interface_mapping.c ****     return dmp_set_compass_matrix_20648(compass_mtx);
 415              		.loc 1 319 0
 416 0002 FFF7FEFF 		bl	dmp_set_compass_matrix_20648
 417              	.LVL31:
 320:.\20648_driver\dmp3/inv_mems_interface_mapping.c **** #elif defined MEMS_20609
 321:.\20648_driver\dmp3/inv_mems_interface_mapping.c ****     return INV_SUCCESS;
 322:.\20648_driver\dmp3/inv_mems_interface_mapping.c **** #else
 323:.\20648_driver\dmp3/inv_mems_interface_mapping.c **** #error "Unsupported configuration"
 324:.\20648_driver\dmp3/inv_mems_interface_mapping.c **** #endif
ARM GAS  C:\Users\ADMINI~1\AppData\Local\Temp\ccDzzuxj.s 			page 14


 325:.\20648_driver\dmp3/inv_mems_interface_mapping.c **** }
 418              		.loc 1 325 0
 419              		@ sp needed
 420 0006 08BD     		pop	{r3, pc}
 421              		.cfi_endproc
 422              	.LFE16:
 423              		.size	dmp_set_compass_matrix, .-dmp_set_compass_matrix
 424              		.section	.text.dmp_set_pedometer_rate,"ax",%progbits
 425              		.align	1
 426              		.global	dmp_set_pedometer_rate
 427              		.code	16
 428              		.thumb_func
 429              		.type	dmp_set_pedometer_rate, %function
 430              	dmp_set_pedometer_rate:
 431              	.LFB17:
 326:.\20648_driver\dmp3/inv_mems_interface_mapping.c **** 
 327:.\20648_driver\dmp3/inv_mems_interface_mapping.c **** inv_error_t dmp_set_pedometer_rate(int ped_rate)
 328:.\20648_driver\dmp3/inv_mems_interface_mapping.c **** {
 432              		.loc 1 328 0
 433              		.cfi_startproc
 434              	.LVL32:
 435 0000 08B5     		push	{r3, lr}
 436              		.cfi_def_cfa_offset 8
 437              		.cfi_offset 3, -8
 438              		.cfi_offset 14, -4
 329:.\20648_driver\dmp3/inv_mems_interface_mapping.c **** #if defined MEMS_20630
 330:.\20648_driver\dmp3/inv_mems_interface_mapping.c ****     return dmp_set_pedometer_rate_20630(ped_rate);
 331:.\20648_driver\dmp3/inv_mems_interface_mapping.c **** #elif defined MEMS_30630
 332:.\20648_driver\dmp3/inv_mems_interface_mapping.c ****     return INV_ERROR_INVALID_CONFIGURATION;
 333:.\20648_driver\dmp3/inv_mems_interface_mapping.c **** #elif defined MEMS_20645E
 334:.\20648_driver\dmp3/inv_mems_interface_mapping.c ****     return INV_ERROR_INVALID_CONFIGURATION;
 335:.\20648_driver\dmp3/inv_mems_interface_mapping.c **** #elif defined MEMS_20648
 336:.\20648_driver\dmp3/inv_mems_interface_mapping.c ****     return dmp_set_pedometer_rate_20648(ped_rate);
 439              		.loc 1 336 0
 440 0002 FFF7FEFF 		bl	dmp_set_pedometer_rate_20648
 441              	.LVL33:
 337:.\20648_driver\dmp3/inv_mems_interface_mapping.c **** #elif defined MEMS_20609
 338:.\20648_driver\dmp3/inv_mems_interface_mapping.c ****     return INV_SUCCESS;
 339:.\20648_driver\dmp3/inv_mems_interface_mapping.c **** #else
 340:.\20648_driver\dmp3/inv_mems_interface_mapping.c **** #error "Unsupported configuration"
 341:.\20648_driver\dmp3/inv_mems_interface_mapping.c **** #endif
 342:.\20648_driver\dmp3/inv_mems_interface_mapping.c **** }
 442              		.loc 1 342 0
 443              		@ sp needed
 444 0006 08BD     		pop	{r3, pc}
 445              		.cfi_endproc
 446              	.LFE17:
 447              		.size	dmp_set_pedometer_rate, .-dmp_set_pedometer_rate
 448              		.section	.text.dmp_set_tilt_enable,"ax",%progbits
 449              		.align	1
 450              		.global	dmp_set_tilt_enable
 451              		.code	16
 452              		.thumb_func
 453              		.type	dmp_set_tilt_enable, %function
 454              	dmp_set_tilt_enable:
 455              	.LFB18:
 343:.\20648_driver\dmp3/inv_mems_interface_mapping.c **** 
ARM GAS  C:\Users\ADMINI~1\AppData\Local\Temp\ccDzzuxj.s 			page 15


 344:.\20648_driver\dmp3/inv_mems_interface_mapping.c **** inv_error_t dmp_set_tilt_enable(unsigned short enable)
 345:.\20648_driver\dmp3/inv_mems_interface_mapping.c **** {
 456              		.loc 1 345 0
 457              		.cfi_startproc
 458              	.LVL34:
 346:.\20648_driver\dmp3/inv_mems_interface_mapping.c **** #if defined MEMS_20630
 347:.\20648_driver\dmp3/inv_mems_interface_mapping.c ****     return INV_ERROR_INVALID_CONFIGURATION;
 348:.\20648_driver\dmp3/inv_mems_interface_mapping.c **** #elif defined MEMS_30630
 349:.\20648_driver\dmp3/inv_mems_interface_mapping.c ****     return dmp_set_tilt_enable_30630(enable);
 350:.\20648_driver\dmp3/inv_mems_interface_mapping.c **** #elif defined MEMS_20645E
 351:.\20648_driver\dmp3/inv_mems_interface_mapping.c ****     return dmp_set_tilt_enable_20645E(enable);
 352:.\20648_driver\dmp3/inv_mems_interface_mapping.c **** #elif defined MEMS_20648
 353:.\20648_driver\dmp3/inv_mems_interface_mapping.c ****     return INV_ERROR_INVALID_CONFIGURATION;
 354:.\20648_driver\dmp3/inv_mems_interface_mapping.c **** #elif defined MEMS_20609
 355:.\20648_driver\dmp3/inv_mems_interface_mapping.c ****     return INV_SUCCESS;
 356:.\20648_driver\dmp3/inv_mems_interface_mapping.c **** #else
 357:.\20648_driver\dmp3/inv_mems_interface_mapping.c **** #error "Unsupported configuration"
 358:.\20648_driver\dmp3/inv_mems_interface_mapping.c **** #endif
 359:.\20648_driver\dmp3/inv_mems_interface_mapping.c **** }
 459              		.loc 1 359 0
 460 0000 3120     		mov	r0, #49
 461              	.LVL35:
 462              		@ sp needed
 463 0002 7047     		bx	lr
 464              		.cfi_endproc
 465              	.LFE18:
 466              		.size	dmp_set_tilt_enable, .-dmp_set_tilt_enable
 467              		.section	.text.dmp_set_wom_enable,"ax",%progbits
 468              		.align	1
 469              		.global	dmp_set_wom_enable
 470              		.code	16
 471              		.thumb_func
 472              		.type	dmp_set_wom_enable, %function
 473              	dmp_set_wom_enable:
 474              	.LFB19:
 360:.\20648_driver\dmp3/inv_mems_interface_mapping.c **** 
 361:.\20648_driver\dmp3/inv_mems_interface_mapping.c **** inv_error_t dmp_set_wom_enable(unsigned char enable)
 362:.\20648_driver\dmp3/inv_mems_interface_mapping.c **** {
 475              		.loc 1 362 0
 476              		.cfi_startproc
 477              	.LVL36:
 478 0000 08B5     		push	{r3, lr}
 479              		.cfi_def_cfa_offset 8
 480              		.cfi_offset 3, -8
 481              		.cfi_offset 14, -4
 363:.\20648_driver\dmp3/inv_mems_interface_mapping.c **** #if defined MEMS_20630
 364:.\20648_driver\dmp3/inv_mems_interface_mapping.c ****     return  dmp_set_wom_enable_20630(enable);
 365:.\20648_driver\dmp3/inv_mems_interface_mapping.c **** #elif defined MEMS_30630
 366:.\20648_driver\dmp3/inv_mems_interface_mapping.c ****     return dmp_set_wom_enable_30630(enable);
 367:.\20648_driver\dmp3/inv_mems_interface_mapping.c **** #elif defined MEMS_20645E
 368:.\20648_driver\dmp3/inv_mems_interface_mapping.c ****     return dmp_set_wom_enable_20645E(enable);
 369:.\20648_driver\dmp3/inv_mems_interface_mapping.c **** #elif defined MEMS_20648
 370:.\20648_driver\dmp3/inv_mems_interface_mapping.c ****     return dmp_set_wom_enable_20648(enable);
 482              		.loc 1 370 0
 483 0002 FFF7FEFF 		bl	dmp_set_wom_enable_20648
 484              	.LVL37:
 371:.\20648_driver\dmp3/inv_mems_interface_mapping.c **** #elif defined MEMS_20609
ARM GAS  C:\Users\ADMINI~1\AppData\Local\Temp\ccDzzuxj.s 			page 16


 372:.\20648_driver\dmp3/inv_mems_interface_mapping.c ****     return INV_SUCCESS;
 373:.\20648_driver\dmp3/inv_mems_interface_mapping.c **** #else
 374:.\20648_driver\dmp3/inv_mems_interface_mapping.c **** #error "Unsupported configuration"
 375:.\20648_driver\dmp3/inv_mems_interface_mapping.c **** #endif
 376:.\20648_driver\dmp3/inv_mems_interface_mapping.c **** }
 485              		.loc 1 376 0
 486              		@ sp needed
 487 0006 08BD     		pop	{r3, pc}
 488              		.cfi_endproc
 489              	.LFE19:
 490              		.size	dmp_set_wom_enable, .-dmp_set_wom_enable
 491              		.section	.text.dmp_set_wom_motion_threshold,"ax",%progbits
 492              		.align	1
 493              		.global	dmp_set_wom_motion_threshold
 494              		.code	16
 495              		.thumb_func
 496              		.type	dmp_set_wom_motion_threshold, %function
 497              	dmp_set_wom_motion_threshold:
 498              	.LFB20:
 377:.\20648_driver\dmp3/inv_mems_interface_mapping.c **** 
 378:.\20648_driver\dmp3/inv_mems_interface_mapping.c **** inv_error_t dmp_set_wom_motion_threshold(int threshold)
 379:.\20648_driver\dmp3/inv_mems_interface_mapping.c **** {
 499              		.loc 1 379 0
 500              		.cfi_startproc
 501              	.LVL38:
 502 0000 08B5     		push	{r3, lr}
 503              		.cfi_def_cfa_offset 8
 504              		.cfi_offset 3, -8
 505              		.cfi_offset 14, -4
 380:.\20648_driver\dmp3/inv_mems_interface_mapping.c **** #if defined MEMS_20630
 381:.\20648_driver\dmp3/inv_mems_interface_mapping.c ****     return  dmp_set_wom_motion_threshold_20630(threshold);
 382:.\20648_driver\dmp3/inv_mems_interface_mapping.c **** #elif defined MEMS_30630
 383:.\20648_driver\dmp3/inv_mems_interface_mapping.c ****     return dmp_set_wom_motion_threshold_30630(threshold);
 384:.\20648_driver\dmp3/inv_mems_interface_mapping.c **** #elif defined MEMS_20645E
 385:.\20648_driver\dmp3/inv_mems_interface_mapping.c ****     return dmp_set_wom_motion_threshold_20645E(threshold);
 386:.\20648_driver\dmp3/inv_mems_interface_mapping.c **** #elif defined MEMS_20648
 387:.\20648_driver\dmp3/inv_mems_interface_mapping.c ****     return dmp_set_wom_motion_threshold_20648(threshold);
 506              		.loc 1 387 0
 507 0002 FFF7FEFF 		bl	dmp_set_wom_motion_threshold_20648
 508              	.LVL39:
 388:.\20648_driver\dmp3/inv_mems_interface_mapping.c **** #elif defined MEMS_20609
 389:.\20648_driver\dmp3/inv_mems_interface_mapping.c ****     return INV_SUCCESS;
 390:.\20648_driver\dmp3/inv_mems_interface_mapping.c **** #else
 391:.\20648_driver\dmp3/inv_mems_interface_mapping.c **** #error "Unsupported configuration"
 392:.\20648_driver\dmp3/inv_mems_interface_mapping.c **** #endif
 393:.\20648_driver\dmp3/inv_mems_interface_mapping.c **** }
 509              		.loc 1 393 0
 510              		@ sp needed
 511 0006 08BD     		pop	{r3, pc}
 512              		.cfi_endproc
 513              	.LFE20:
 514              		.size	dmp_set_wom_motion_threshold, .-dmp_set_wom_motion_threshold
 515              		.section	.text.dmp_set_wom_time_threshold,"ax",%progbits
 516              		.align	1
 517              		.global	dmp_set_wom_time_threshold
 518              		.code	16
 519              		.thumb_func
ARM GAS  C:\Users\ADMINI~1\AppData\Local\Temp\ccDzzuxj.s 			page 17


 520              		.type	dmp_set_wom_time_threshold, %function
 521              	dmp_set_wom_time_threshold:
 522              	.LFB21:
 394:.\20648_driver\dmp3/inv_mems_interface_mapping.c **** 
 395:.\20648_driver\dmp3/inv_mems_interface_mapping.c **** inv_error_t dmp_set_wom_time_threshold(unsigned short threshold)
 396:.\20648_driver\dmp3/inv_mems_interface_mapping.c **** {
 523              		.loc 1 396 0
 524              		.cfi_startproc
 525              	.LVL40:
 526 0000 08B5     		push	{r3, lr}
 527              		.cfi_def_cfa_offset 8
 528              		.cfi_offset 3, -8
 529              		.cfi_offset 14, -4
 397:.\20648_driver\dmp3/inv_mems_interface_mapping.c **** #if defined MEMS_20630
 398:.\20648_driver\dmp3/inv_mems_interface_mapping.c ****     return  dmp_set_wom_time_threshold_20630(threshold);
 399:.\20648_driver\dmp3/inv_mems_interface_mapping.c **** #elif defined MEMS_30630
 400:.\20648_driver\dmp3/inv_mems_interface_mapping.c ****     return dmp_set_wom_time_threshold_30630(threshold);
 401:.\20648_driver\dmp3/inv_mems_interface_mapping.c **** #elif defined MEMS_20645E
 402:.\20648_driver\dmp3/inv_mems_interface_mapping.c ****     return dmp_set_wom_time_threshold_20645E(threshold);
 403:.\20648_driver\dmp3/inv_mems_interface_mapping.c **** #elif defined MEMS_20648
 404:.\20648_driver\dmp3/inv_mems_interface_mapping.c ****     return dmp_set_wom_time_threshold_20648(threshold);
 530              		.loc 1 404 0
 531 0002 FFF7FEFF 		bl	dmp_set_wom_time_threshold_20648
 532              	.LVL41:
 405:.\20648_driver\dmp3/inv_mems_interface_mapping.c **** #elif defined MEMS_20609
 406:.\20648_driver\dmp3/inv_mems_interface_mapping.c ****     return INV_SUCCESS;
 407:.\20648_driver\dmp3/inv_mems_interface_mapping.c **** #else
 408:.\20648_driver\dmp3/inv_mems_interface_mapping.c **** #error "Unsupported configuration"
 409:.\20648_driver\dmp3/inv_mems_interface_mapping.c **** #endif
 410:.\20648_driver\dmp3/inv_mems_interface_mapping.c **** }
 533              		.loc 1 410 0
 534              		@ sp needed
 535 0006 08BD     		pop	{r3, pc}
 536              		.cfi_endproc
 537              	.LFE21:
 538              		.size	dmp_set_wom_time_threshold, .-dmp_set_wom_time_threshold
 539              		.section	.text.dmp_get_pedometer_get_all_steps,"ax",%progbits
 540              		.align	1
 541              		.global	dmp_get_pedometer_get_all_steps
 542              		.code	16
 543              		.thumb_func
 544              		.type	dmp_get_pedometer_get_all_steps, %function
 545              	dmp_get_pedometer_get_all_steps:
 546              	.LFB22:
 411:.\20648_driver\dmp3/inv_mems_interface_mapping.c **** 
 412:.\20648_driver\dmp3/inv_mems_interface_mapping.c **** inv_error_t dmp_get_pedometer_get_all_steps(unsigned long *steps)
 413:.\20648_driver\dmp3/inv_mems_interface_mapping.c **** {
 547              		.loc 1 413 0
 548              		.cfi_startproc
 549              	.LVL42:
 550 0000 08B5     		push	{r3, lr}
 551              		.cfi_def_cfa_offset 8
 552              		.cfi_offset 3, -8
 553              		.cfi_offset 14, -4
 414:.\20648_driver\dmp3/inv_mems_interface_mapping.c **** #if defined MEMS_20630
 415:.\20648_driver\dmp3/inv_mems_interface_mapping.c ****     return  dmp_get_pedometer_num_of_steps_20630(steps);
 416:.\20648_driver\dmp3/inv_mems_interface_mapping.c **** #elif defined MEMS_30630
ARM GAS  C:\Users\ADMINI~1\AppData\Local\Temp\ccDzzuxj.s 			page 18


 417:.\20648_driver\dmp3/inv_mems_interface_mapping.c ****     return dmp_get_pedometer_num_of_steps_30630(steps);
 418:.\20648_driver\dmp3/inv_mems_interface_mapping.c **** #elif defined MEMS_20645E
 419:.\20648_driver\dmp3/inv_mems_interface_mapping.c ****     return dmp_get_pedometer_num_of_steps_20645E(steps);
 420:.\20648_driver\dmp3/inv_mems_interface_mapping.c **** #elif defined MEMS_20648
 421:.\20648_driver\dmp3/inv_mems_interface_mapping.c ****     return dmp_get_pedometer_num_of_steps_20648(steps);
 554              		.loc 1 421 0
 555 0002 FFF7FEFF 		bl	dmp_get_pedometer_num_of_steps_20648
 556              	.LVL43:
 422:.\20648_driver\dmp3/inv_mems_interface_mapping.c **** #elif defined MEMS_20609
 423:.\20648_driver\dmp3/inv_mems_interface_mapping.c ****     return dmp_get_pedometer_num_of_steps_20609(steps);
 424:.\20648_driver\dmp3/inv_mems_interface_mapping.c **** #else
 425:.\20648_driver\dmp3/inv_mems_interface_mapping.c **** #error "Unsupported configuration"
 426:.\20648_driver\dmp3/inv_mems_interface_mapping.c **** #endif
 427:.\20648_driver\dmp3/inv_mems_interface_mapping.c **** }
 557              		.loc 1 427 0
 558              		@ sp needed
 559 0006 08BD     		pop	{r3, pc}
 560              		.cfi_endproc
 561              	.LFE22:
 562              		.size	dmp_get_pedometer_get_all_steps, .-dmp_get_pedometer_get_all_steps
 563              		.section	.text.dmp_get_pedometer_num_of_steps,"ax",%progbits
 564              		.align	1
 565              		.global	dmp_get_pedometer_num_of_steps
 566              		.code	16
 567              		.thumb_func
 568              		.type	dmp_get_pedometer_num_of_steps, %function
 569              	dmp_get_pedometer_num_of_steps:
 570              	.LFB23:
 428:.\20648_driver\dmp3/inv_mems_interface_mapping.c **** 
 429:.\20648_driver\dmp3/inv_mems_interface_mapping.c **** inv_error_t dmp_get_pedometer_num_of_steps(unsigned long *steps)
 430:.\20648_driver\dmp3/inv_mems_interface_mapping.c **** {
 571              		.loc 1 430 0
 572              		.cfi_startproc
 573              	.LVL44:
 431:.\20648_driver\dmp3/inv_mems_interface_mapping.c **** 	unsigned long lsteps = 0;
 574              		.loc 1 431 0
 575 0000 0023     		mov	r3, #0
 430:.\20648_driver\dmp3/inv_mems_interface_mapping.c **** 	unsigned long lsteps = 0;
 576              		.loc 1 430 0
 577 0002 13B5     		push	{r0, r1, r4, lr}
 578              		.cfi_def_cfa_offset 16
 579              		.cfi_offset 0, -16
 580              		.cfi_offset 1, -12
 581              		.cfi_offset 4, -8
 582              		.cfi_offset 14, -4
 430:.\20648_driver\dmp3/inv_mems_interface_mapping.c **** 	unsigned long lsteps = 0;
 583              		.loc 1 430 0
 584 0004 041C     		mov	r4, r0
 585              	.LBB4:
 586              	.LBB5:
 421:.\20648_driver\dmp3/inv_mems_interface_mapping.c **** #elif defined MEMS_20609
 587              		.loc 1 421 0
 588 0006 01A8     		add	r0, sp, #4
 589              	.LVL45:
 590              	.LBE5:
 591              	.LBE4:
 592              		.loc 1 431 0
ARM GAS  C:\Users\ADMINI~1\AppData\Local\Temp\ccDzzuxj.s 			page 19


 593 0008 0193     		str	r3, [sp, #4]
 594              	.LVL46:
 595              	.LBB7:
 596              	.LBB6:
 421:.\20648_driver\dmp3/inv_mems_interface_mapping.c **** #elif defined MEMS_20609
 597              		.loc 1 421 0
 598 000a FFF7FEFF 		bl	dmp_get_pedometer_num_of_steps_20648
 599              	.LVL47:
 600              	.LBE6:
 601              	.LBE7:
 432:.\20648_driver\dmp3/inv_mems_interface_mapping.c **** 	inv_error_t result;
 433:.\20648_driver\dmp3/inv_mems_interface_mapping.c **** 
 434:.\20648_driver\dmp3/inv_mems_interface_mapping.c **** 	result = dmp_get_pedometer_get_all_steps(&lsteps);
 435:.\20648_driver\dmp3/inv_mems_interface_mapping.c **** 
 436:.\20648_driver\dmp3/inv_mems_interface_mapping.c **** 	// need to subtract the steps accumulated while Step Counter sensor is not active.
 437:.\20648_driver\dmp3/inv_mems_interface_mapping.c **** 	*steps = lsteps - sStepCounterToBeSubtracted;
 602              		.loc 1 437 0
 603 000e 034A     		ldr	r2, .L25
 604 0010 019B     		ldr	r3, [sp, #4]
 605 0012 1168     		ldr	r1, [r2]
 438:.\20648_driver\dmp3/inv_mems_interface_mapping.c **** 	sOldSteps = *steps;
 439:.\20648_driver\dmp3/inv_mems_interface_mapping.c **** 	
 440:.\20648_driver\dmp3/inv_mems_interface_mapping.c **** 	return result;
 441:.\20648_driver\dmp3/inv_mems_interface_mapping.c **** }
 606              		.loc 1 441 0
 607              		@ sp needed
 437:.\20648_driver\dmp3/inv_mems_interface_mapping.c **** 	sOldSteps = *steps;
 608              		.loc 1 437 0
 609 0014 5B1A     		sub	r3, r3, r1
 610 0016 2360     		str	r3, [r4]
 438:.\20648_driver\dmp3/inv_mems_interface_mapping.c **** 	sOldSteps = *steps;
 611              		.loc 1 438 0
 612 0018 5360     		str	r3, [r2, #4]
 613              	.LVL48:
 614              		.loc 1 441 0
 615 001a 16BD     		pop	{r1, r2, r4, pc}
 616              	.L26:
 617              		.align	2
 618              	.L25:
 619 001c 00000000 		.word	.LANCHOR0
 620              		.cfi_endproc
 621              	.LFE23:
 622              		.size	dmp_get_pedometer_num_of_steps, .-dmp_get_pedometer_num_of_steps
 623              		.section	.text.inv_load_firmware,"ax",%progbits
 624              		.align	1
 625              		.global	inv_load_firmware
 626              		.code	16
 627              		.thumb_func
 628              		.type	inv_load_firmware, %function
 629              	inv_load_firmware:
 630              	.LFB24:
 442:.\20648_driver\dmp3/inv_mems_interface_mapping.c **** 
 443:.\20648_driver\dmp3/inv_mems_interface_mapping.c **** inv_error_t inv_load_firmware(const unsigned char *dmp_image_sram)
 444:.\20648_driver\dmp3/inv_mems_interface_mapping.c **** {
 631              		.loc 1 444 0
 632              		.cfi_startproc
 633              	.LVL49:
ARM GAS  C:\Users\ADMINI~1\AppData\Local\Temp\ccDzzuxj.s 			page 20


 634 0000 08B5     		push	{r3, lr}
 635              		.cfi_def_cfa_offset 8
 636              		.cfi_offset 3, -8
 637              		.cfi_offset 14, -4
 445:.\20648_driver\dmp3/inv_mems_interface_mapping.c **** #if defined MEMS_20630
 446:.\20648_driver\dmp3/inv_mems_interface_mapping.c ****     return  inv_load_firmware_20630(dmp_image_sram);
 447:.\20648_driver\dmp3/inv_mems_interface_mapping.c **** #elif defined MEMS_30630
 448:.\20648_driver\dmp3/inv_mems_interface_mapping.c ****     return  inv_load_firmware_30630(dmp_image_sram);
 449:.\20648_driver\dmp3/inv_mems_interface_mapping.c **** #elif defined MEMS_20645E
 450:.\20648_driver\dmp3/inv_mems_interface_mapping.c ****     return  inv_load_firmware_20645E(dmp_image_sram);
 451:.\20648_driver\dmp3/inv_mems_interface_mapping.c **** #elif defined MEMS_20648
 452:.\20648_driver\dmp3/inv_mems_interface_mapping.c ****     return inv_load_firmware_20648(dmp_image_sram);
 638              		.loc 1 452 0
 639 0002 FFF7FEFF 		bl	inv_load_firmware_20648
 640              	.LVL50:
 453:.\20648_driver\dmp3/inv_mems_interface_mapping.c **** #elif defined MEMS_20609
 454:.\20648_driver\dmp3/inv_mems_interface_mapping.c ****     return inv_load_firmware_20609(dmp_image_sram);
 455:.\20648_driver\dmp3/inv_mems_interface_mapping.c **** #else
 456:.\20648_driver\dmp3/inv_mems_interface_mapping.c **** #error "Unsupported configuration"
 457:.\20648_driver\dmp3/inv_mems_interface_mapping.c **** #endif
 458:.\20648_driver\dmp3/inv_mems_interface_mapping.c **** }
 641              		.loc 1 458 0
 642              		@ sp needed
 643 0006 08BD     		pop	{r3, pc}
 644              		.cfi_endproc
 645              	.LFE24:
 646              		.size	inv_load_firmware, .-inv_load_firmware
 647              		.section	.text.dmp_set_bts_accel_matrix,"ax",%progbits
 648              		.align	1
 649              		.global	dmp_set_bts_accel_matrix
 650              		.code	16
 651              		.thumb_func
 652              		.type	dmp_set_bts_accel_matrix, %function
 653              	dmp_set_bts_accel_matrix:
 654              	.LFB25:
 459:.\20648_driver\dmp3/inv_mems_interface_mapping.c **** 
 460:.\20648_driver\dmp3/inv_mems_interface_mapping.c **** inv_error_t dmp_set_bts_accel_matrix(signed char *orientation)
 461:.\20648_driver\dmp3/inv_mems_interface_mapping.c **** {
 655              		.loc 1 461 0
 656              		.cfi_startproc
 657              	.LVL51:
 462:.\20648_driver\dmp3/inv_mems_interface_mapping.c **** #if defined MEMS_20630
 463:.\20648_driver\dmp3/inv_mems_interface_mapping.c ****     return INV_ERROR_INVALID_CONFIGURATION;
 464:.\20648_driver\dmp3/inv_mems_interface_mapping.c **** #elif defined MEMS_30630
 465:.\20648_driver\dmp3/inv_mems_interface_mapping.c ****     return dmp_set_bts_accel_matrix_30630(orientation);
 466:.\20648_driver\dmp3/inv_mems_interface_mapping.c **** #elif defined MEMS_20645E
 467:.\20648_driver\dmp3/inv_mems_interface_mapping.c ****     return INV_ERROR_INVALID_CONFIGURATION;
 468:.\20648_driver\dmp3/inv_mems_interface_mapping.c **** #elif defined MEMS_20648
 469:.\20648_driver\dmp3/inv_mems_interface_mapping.c ****     return INV_ERROR_INVALID_CONFIGURATION;
 470:.\20648_driver\dmp3/inv_mems_interface_mapping.c **** #elif defined MEMS_20609
 471:.\20648_driver\dmp3/inv_mems_interface_mapping.c ****     return INV_SUCCESS;
 472:.\20648_driver\dmp3/inv_mems_interface_mapping.c **** #else
 473:.\20648_driver\dmp3/inv_mems_interface_mapping.c **** #error "Unsupported configuration"
 474:.\20648_driver\dmp3/inv_mems_interface_mapping.c **** #endif
 475:.\20648_driver\dmp3/inv_mems_interface_mapping.c **** }
 658              		.loc 1 475 0
 659 0000 3120     		mov	r0, #49
ARM GAS  C:\Users\ADMINI~1\AppData\Local\Temp\ccDzzuxj.s 			page 21


 660              	.LVL52:
 661              		@ sp needed
 662 0002 7047     		bx	lr
 663              		.cfi_endproc
 664              	.LFE25:
 665              		.size	dmp_set_bts_accel_matrix, .-dmp_set_bts_accel_matrix
 666              		.section	.text.inv_get_dmp_start_address,"ax",%progbits
 667              		.align	1
 668              		.global	inv_get_dmp_start_address
 669              		.code	16
 670              		.thumb_func
 671              		.type	inv_get_dmp_start_address, %function
 672              	inv_get_dmp_start_address:
 673              	.LFB26:
 476:.\20648_driver\dmp3/inv_mems_interface_mapping.c **** 
 477:.\20648_driver\dmp3/inv_mems_interface_mapping.c **** void inv_get_dmp_start_address(unsigned short *dmp_cnfg)
 478:.\20648_driver\dmp3/inv_mems_interface_mapping.c **** {
 674              		.loc 1 478 0
 675              		.cfi_startproc
 676              	.LVL53:
 677 0000 08B5     		push	{r3, lr}
 678              		.cfi_def_cfa_offset 8
 679              		.cfi_offset 3, -8
 680              		.cfi_offset 14, -4
 479:.\20648_driver\dmp3/inv_mems_interface_mapping.c **** #if defined MEMS_20630
 480:.\20648_driver\dmp3/inv_mems_interface_mapping.c ****     inv_get_dmp_start_address_20630(dmp_cnfg);
 481:.\20648_driver\dmp3/inv_mems_interface_mapping.c **** #elif defined MEMS_30630
 482:.\20648_driver\dmp3/inv_mems_interface_mapping.c ****     inv_get_dmp_start_address_30630(dmp_cnfg);
 483:.\20648_driver\dmp3/inv_mems_interface_mapping.c **** #elif defined MEMS_20645E
 484:.\20648_driver\dmp3/inv_mems_interface_mapping.c ****     inv_get_dmp_start_address_20645E(dmp_cnfg);
 485:.\20648_driver\dmp3/inv_mems_interface_mapping.c **** #elif defined MEMS_20648
 486:.\20648_driver\dmp3/inv_mems_interface_mapping.c ****     inv_get_dmp_start_address_20648(dmp_cnfg);
 681              		.loc 1 486 0
 682 0002 FFF7FEFF 		bl	inv_get_dmp_start_address_20648
 683              	.LVL54:
 487:.\20648_driver\dmp3/inv_mems_interface_mapping.c **** #elif defined MEMS_20609
 488:.\20648_driver\dmp3/inv_mems_interface_mapping.c ****     inv_get_dmp_start_address_20609(dmp_cnfg);
 489:.\20648_driver\dmp3/inv_mems_interface_mapping.c **** #else
 490:.\20648_driver\dmp3/inv_mems_interface_mapping.c **** #error "Unsupported configuration"
 491:.\20648_driver\dmp3/inv_mems_interface_mapping.c **** #endif
 492:.\20648_driver\dmp3/inv_mems_interface_mapping.c **** }
 684              		.loc 1 492 0
 685              		@ sp needed
 686 0006 08BD     		pop	{r3, pc}
 687              		.cfi_endproc
 688              	.LFE26:
 689              		.size	inv_get_dmp_start_address, .-inv_get_dmp_start_address
 690              		.section	.text.dmp_set_accel_fsr,"ax",%progbits
 691              		.align	1
 692              		.global	dmp_set_accel_fsr
 693              		.code	16
 694              		.thumb_func
 695              		.type	dmp_set_accel_fsr, %function
 696              	dmp_set_accel_fsr:
 697              	.LFB27:
 493:.\20648_driver\dmp3/inv_mems_interface_mapping.c **** 
 494:.\20648_driver\dmp3/inv_mems_interface_mapping.c **** inv_error_t dmp_set_accel_fsr(short accel_fsr)
ARM GAS  C:\Users\ADMINI~1\AppData\Local\Temp\ccDzzuxj.s 			page 22


 495:.\20648_driver\dmp3/inv_mems_interface_mapping.c **** {
 698              		.loc 1 495 0
 699              		.cfi_startproc
 700              	.LVL55:
 701 0000 08B5     		push	{r3, lr}
 702              		.cfi_def_cfa_offset 8
 703              		.cfi_offset 3, -8
 704              		.cfi_offset 14, -4
 496:.\20648_driver\dmp3/inv_mems_interface_mapping.c **** #if defined MEMS_20630
 497:.\20648_driver\dmp3/inv_mems_interface_mapping.c ****     return dmp_set_accel_fsr_20630(accel_fsr);
 498:.\20648_driver\dmp3/inv_mems_interface_mapping.c **** #elif defined MEMS_30630
 499:.\20648_driver\dmp3/inv_mems_interface_mapping.c ****     return dmp_set_accel_fsr_30630(accel_fsr);
 500:.\20648_driver\dmp3/inv_mems_interface_mapping.c **** #elif defined MEMS_20645E
 501:.\20648_driver\dmp3/inv_mems_interface_mapping.c ****     return dmp_set_accel_fsr_20645E(accel_fsr);
 502:.\20648_driver\dmp3/inv_mems_interface_mapping.c **** #elif defined MEMS_20648
 503:.\20648_driver\dmp3/inv_mems_interface_mapping.c ****     return dmp_set_accel_fsr_20648(accel_fsr);
 705              		.loc 1 503 0
 706 0002 FFF7FEFF 		bl	dmp_set_accel_fsr_20648
 707              	.LVL56:
 504:.\20648_driver\dmp3/inv_mems_interface_mapping.c **** #elif defined MEMS_20609
 505:.\20648_driver\dmp3/inv_mems_interface_mapping.c ****     return INV_SUCCESS;
 506:.\20648_driver\dmp3/inv_mems_interface_mapping.c **** #else
 507:.\20648_driver\dmp3/inv_mems_interface_mapping.c **** #error "Unsupported configuration"
 508:.\20648_driver\dmp3/inv_mems_interface_mapping.c **** #endif
 509:.\20648_driver\dmp3/inv_mems_interface_mapping.c **** }
 708              		.loc 1 509 0
 709              		@ sp needed
 710 0006 08BD     		pop	{r3, pc}
 711              		.cfi_endproc
 712              	.LFE27:
 713              		.size	dmp_set_accel_fsr, .-dmp_set_accel_fsr
 714              		.section	.text.dmp_set_accel_scale2,"ax",%progbits
 715              		.align	1
 716              		.global	dmp_set_accel_scale2
 717              		.code	16
 718              		.thumb_func
 719              		.type	dmp_set_accel_scale2, %function
 720              	dmp_set_accel_scale2:
 721              	.LFB28:
 510:.\20648_driver\dmp3/inv_mems_interface_mapping.c **** 
 511:.\20648_driver\dmp3/inv_mems_interface_mapping.c **** inv_error_t dmp_set_accel_scale2(short accel_fsr)
 512:.\20648_driver\dmp3/inv_mems_interface_mapping.c **** {
 722              		.loc 1 512 0
 723              		.cfi_startproc
 724              	.LVL57:
 725 0000 08B5     		push	{r3, lr}
 726              		.cfi_def_cfa_offset 8
 727              		.cfi_offset 3, -8
 728              		.cfi_offset 14, -4
 513:.\20648_driver\dmp3/inv_mems_interface_mapping.c **** #if defined MEMS_20630
 514:.\20648_driver\dmp3/inv_mems_interface_mapping.c ****     return dmp_set_accel_scale2_20630(accel_fsr);
 515:.\20648_driver\dmp3/inv_mems_interface_mapping.c **** #elif defined MEMS_30630
 516:.\20648_driver\dmp3/inv_mems_interface_mapping.c ****     return INV_SUCCESS;
 517:.\20648_driver\dmp3/inv_mems_interface_mapping.c **** #elif defined MEMS_20645E
 518:.\20648_driver\dmp3/inv_mems_interface_mapping.c ****     return INV_SUCCESS;
 519:.\20648_driver\dmp3/inv_mems_interface_mapping.c **** #elif defined MEMS_20648
 520:.\20648_driver\dmp3/inv_mems_interface_mapping.c ****     return dmp_set_accel_scale2_20648(accel_fsr);
ARM GAS  C:\Users\ADMINI~1\AppData\Local\Temp\ccDzzuxj.s 			page 23


 729              		.loc 1 520 0
 730 0002 FFF7FEFF 		bl	dmp_set_accel_scale2_20648
 731              	.LVL58:
 521:.\20648_driver\dmp3/inv_mems_interface_mapping.c **** #elif defined MEMS_20609
 522:.\20648_driver\dmp3/inv_mems_interface_mapping.c ****     return INV_SUCCESS;
 523:.\20648_driver\dmp3/inv_mems_interface_mapping.c **** #else
 524:.\20648_driver\dmp3/inv_mems_interface_mapping.c **** #error "Unsupported configuration"
 525:.\20648_driver\dmp3/inv_mems_interface_mapping.c **** #endif
 526:.\20648_driver\dmp3/inv_mems_interface_mapping.c **** }
 732              		.loc 1 526 0
 733              		@ sp needed
 734 0006 08BD     		pop	{r3, pc}
 735              		.cfi_endproc
 736              	.LFE28:
 737              		.size	dmp_set_accel_scale2, .-dmp_set_accel_scale2
 738              		.section	.text.inv_set_dmp_stepcounter_update_offset,"ax",%progbits
 739              		.align	1
 740              		.global	inv_set_dmp_stepcounter_update_offset
 741              		.code	16
 742              		.thumb_func
 743              		.type	inv_set_dmp_stepcounter_update_offset, %function
 744              	inv_set_dmp_stepcounter_update_offset:
 745              	.LFB29:
 527:.\20648_driver\dmp3/inv_mems_interface_mapping.c **** 
 528:.\20648_driver\dmp3/inv_mems_interface_mapping.c **** inv_error_t inv_set_dmp_stepcounter_update_offset(unsigned long steps)
 529:.\20648_driver\dmp3/inv_mems_interface_mapping.c **** {
 746              		.loc 1 529 0
 747              		.cfi_startproc
 748              	.LVL59:
 530:.\20648_driver\dmp3/inv_mems_interface_mapping.c **** 	sStepCounterToBeSubtracted = steps - sOldSteps;
 749              		.loc 1 530 0
 750 0000 024B     		ldr	r3, .L33
 531:.\20648_driver\dmp3/inv_mems_interface_mapping.c **** 	
 532:.\20648_driver\dmp3/inv_mems_interface_mapping.c **** 	return 0;
 533:.\20648_driver\dmp3/inv_mems_interface_mapping.c **** }
 751              		.loc 1 533 0
 752              		@ sp needed
 530:.\20648_driver\dmp3/inv_mems_interface_mapping.c **** 	sStepCounterToBeSubtracted = steps - sOldSteps;
 753              		.loc 1 530 0
 754 0002 5A68     		ldr	r2, [r3, #4]
 755 0004 801A     		sub	r0, r0, r2
 756              	.LVL60:
 757 0006 1860     		str	r0, [r3]
 758              		.loc 1 533 0
 759 0008 0020     		mov	r0, #0
 760 000a 7047     		bx	lr
 761              	.L34:
 762              		.align	2
 763              	.L33:
 764 000c 00000000 		.word	.LANCHOR0
 765              		.cfi_endproc
 766              	.LFE29:
 767              		.size	inv_set_dmp_stepcounter_update_offset, .-inv_set_dmp_stepcounter_update_offset
 768              		.section	.text.dmp_reset_pickup,"ax",%progbits
 769              		.align	1
 770              		.global	dmp_reset_pickup
 771              		.code	16
ARM GAS  C:\Users\ADMINI~1\AppData\Local\Temp\ccDzzuxj.s 			page 24


 772              		.thumb_func
 773              		.type	dmp_reset_pickup, %function
 774              	dmp_reset_pickup:
 775              	.LFB30:
 534:.\20648_driver\dmp3/inv_mems_interface_mapping.c **** 
 535:.\20648_driver\dmp3/inv_mems_interface_mapping.c **** // 5061: NEED TO MAKE SURE THIS IS FOR THE RIGHT CHIP
 536:.\20648_driver\dmp3/inv_mems_interface_mapping.c **** inv_error_t dmp_reset_pickup(void)
 537:.\20648_driver\dmp3/inv_mems_interface_mapping.c **** {
 776              		.loc 1 537 0
 777              		.cfi_startproc
 538:.\20648_driver\dmp3/inv_mems_interface_mapping.c **** #if defined MEMS_30630
 539:.\20648_driver\dmp3/inv_mems_interface_mapping.c ****     return dmp_reset_pickup_30630();
 540:.\20648_driver\dmp3/inv_mems_interface_mapping.c **** #elif defined MEMS_20630
 541:.\20648_driver\dmp3/inv_mems_interface_mapping.c ****     return INV_SUCCESS;
 542:.\20648_driver\dmp3/inv_mems_interface_mapping.c **** #elif defined MEMS_20645E
 543:.\20648_driver\dmp3/inv_mems_interface_mapping.c ****     return INV_SUCCESS;             // should there be a function for this chip?
 544:.\20648_driver\dmp3/inv_mems_interface_mapping.c **** #elif defined MEMS_20648
 545:.\20648_driver\dmp3/inv_mems_interface_mapping.c ****     return INV_SUCCESS; 
 546:.\20648_driver\dmp3/inv_mems_interface_mapping.c **** #elif defined MEMS_20609
 547:.\20648_driver\dmp3/inv_mems_interface_mapping.c ****     return INV_SUCCESS;
 548:.\20648_driver\dmp3/inv_mems_interface_mapping.c **** #else
 549:.\20648_driver\dmp3/inv_mems_interface_mapping.c **** #error "Unsupported configuration"
 550:.\20648_driver\dmp3/inv_mems_interface_mapping.c **** #endif    
 551:.\20648_driver\dmp3/inv_mems_interface_mapping.c **** }
 778              		.loc 1 551 0
 779 0000 0020     		mov	r0, #0
 780              		@ sp needed
 781 0002 7047     		bx	lr
 782              		.cfi_endproc
 783              	.LFE30:
 784              		.size	dmp_reset_pickup, .-dmp_reset_pickup
 785              		.section	.text.dmp_reset_bac_states,"ax",%progbits
 786              		.align	1
 787              		.global	dmp_reset_bac_states
 788              		.code	16
 789              		.thumb_func
 790              		.type	dmp_reset_bac_states, %function
 791              	dmp_reset_bac_states:
 792              	.LFB31:
 552:.\20648_driver\dmp3/inv_mems_interface_mapping.c **** 
 553:.\20648_driver\dmp3/inv_mems_interface_mapping.c **** //Function to reset the BAC states when bac is restarted.
 554:.\20648_driver\dmp3/inv_mems_interface_mapping.c **** inv_error_t dmp_reset_bac_states(void)
 555:.\20648_driver\dmp3/inv_mems_interface_mapping.c **** {
 793              		.loc 1 555 0
 794              		.cfi_startproc
 795 0000 08B5     		push	{r3, lr}
 796              		.cfi_def_cfa_offset 8
 797              		.cfi_offset 3, -8
 798              		.cfi_offset 14, -4
 556:.\20648_driver\dmp3/inv_mems_interface_mapping.c **** #if defined MEMS_30630
 557:.\20648_driver\dmp3/inv_mems_interface_mapping.c ****     return INV_SUCCESS;
 558:.\20648_driver\dmp3/inv_mems_interface_mapping.c **** #elif defined MEMS_20630
 559:.\20648_driver\dmp3/inv_mems_interface_mapping.c ****     return INV_SUCCESS;
 560:.\20648_driver\dmp3/inv_mems_interface_mapping.c **** #elif defined MEMS_20645E
 561:.\20648_driver\dmp3/inv_mems_interface_mapping.c ****     return INV_SUCCESS;             // should there be a function for this chip?
 562:.\20648_driver\dmp3/inv_mems_interface_mapping.c **** #elif defined MEMS_20648
 563:.\20648_driver\dmp3/inv_mems_interface_mapping.c ****     return dmp_reset_bac_states_20648(); 
ARM GAS  C:\Users\ADMINI~1\AppData\Local\Temp\ccDzzuxj.s 			page 25


 799              		.loc 1 563 0
 800 0002 FFF7FEFF 		bl	dmp_reset_bac_states_20648
 801              	.LVL61:
 564:.\20648_driver\dmp3/inv_mems_interface_mapping.c **** #elif defined MEMS_20609
 565:.\20648_driver\dmp3/inv_mems_interface_mapping.c ****     return INV_SUCCESS;
 566:.\20648_driver\dmp3/inv_mems_interface_mapping.c **** #else
 567:.\20648_driver\dmp3/inv_mems_interface_mapping.c **** #error "Unsupported configuration"
 568:.\20648_driver\dmp3/inv_mems_interface_mapping.c **** #endif    
 569:.\20648_driver\dmp3/inv_mems_interface_mapping.c **** }
 802              		.loc 1 569 0
 803              		@ sp needed
 804 0006 08BD     		pop	{r3, pc}
 805              		.cfi_endproc
 806              	.LFE31:
 807              		.size	dmp_reset_bac_states, .-dmp_reset_bac_states
 808              		.section	.text.inv_dmpdriver_write_mems,"ax",%progbits
 809              		.align	1
 810              		.global	inv_dmpdriver_write_mems
 811              		.code	16
 812              		.thumb_func
 813              		.type	inv_dmpdriver_write_mems, %function
 814              	inv_dmpdriver_write_mems:
 815              	.LFB36:
 570:.\20648_driver\dmp3/inv_mems_interface_mapping.c **** 
 571:.\20648_driver\dmp3/inv_mems_interface_mapping.c **** 
 572:.\20648_driver\dmp3/inv_mems_interface_mapping.c **** /* Map DMP API to DMP driver */
 573:.\20648_driver\dmp3/inv_mems_interface_mapping.c **** // #include "common/inv_drv_hook.h"
 574:.\20648_driver\dmp3/inv_mems_interface_mapping.c **** // #include "driver/data_converter.h"
 575:.\20648_driver\dmp3/inv_mems_interface_mapping.c **** #include ".\20648_driver\drivers\inv_mems_load_firmware.h"
 576:.\20648_driver\dmp3/inv_mems_interface_mapping.c **** // #include "driver/inv_defines.h"
 577:.\20648_driver\dmp3/inv_mems_interface_mapping.c **** #include ".\20648_driver\drivers\inv_mems_transport.h"
 578:.\20648_driver\dmp3/inv_mems_interface_mapping.c **** #include ".\20648_driver\invn\ml_math_func.h"
 579:.\20648_driver\dmp3/inv_mems_interface_mapping.c **** 
 580:.\20648_driver\dmp3/inv_mems_interface_mapping.c **** inv_error_t inv_dmpdriver_write_mems(unsigned short reg, unsigned int length, const unsigned char *
 581:.\20648_driver\dmp3/inv_mems_interface_mapping.c **** {
 816              		.loc 1 581 0
 817              		.cfi_startproc
 818              	.LVL62:
 819 0000 08B5     		push	{r3, lr}
 820              		.cfi_def_cfa_offset 8
 821              		.cfi_offset 3, -8
 822              		.cfi_offset 14, -4
 582:.\20648_driver\dmp3/inv_mems_interface_mapping.c ****     return inv_write_mems(reg, length, data);
 823              		.loc 1 582 0
 824 0002 FFF7FEFF 		bl	inv_write_mems
 825              	.LVL63:
 583:.\20648_driver\dmp3/inv_mems_interface_mapping.c **** }
 826              		.loc 1 583 0
 827              		@ sp needed
 828 0006 08BD     		pop	{r3, pc}
 829              		.cfi_endproc
 830              	.LFE36:
 831              		.size	inv_dmpdriver_write_mems, .-inv_dmpdriver_write_mems
 832              		.section	.text.inv_dmpdriver_read_mems,"ax",%progbits
 833              		.align	1
 834              		.global	inv_dmpdriver_read_mems
 835              		.code	16
ARM GAS  C:\Users\ADMINI~1\AppData\Local\Temp\ccDzzuxj.s 			page 26


 836              		.thumb_func
 837              		.type	inv_dmpdriver_read_mems, %function
 838              	inv_dmpdriver_read_mems:
 839              	.LFB37:
 584:.\20648_driver\dmp3/inv_mems_interface_mapping.c **** 
 585:.\20648_driver\dmp3/inv_mems_interface_mapping.c **** inv_error_t inv_dmpdriver_read_mems(unsigned short reg, unsigned int length, unsigned char *data)
 586:.\20648_driver\dmp3/inv_mems_interface_mapping.c **** {
 840              		.loc 1 586 0
 841              		.cfi_startproc
 842              	.LVL64:
 843 0000 08B5     		push	{r3, lr}
 844              		.cfi_def_cfa_offset 8
 845              		.cfi_offset 3, -8
 846              		.cfi_offset 14, -4
 587:.\20648_driver\dmp3/inv_mems_interface_mapping.c ****     return inv_read_mems(reg, length, data);
 847              		.loc 1 587 0
 848 0002 FFF7FEFF 		bl	inv_read_mems
 849              	.LVL65:
 588:.\20648_driver\dmp3/inv_mems_interface_mapping.c **** }
 850              		.loc 1 588 0
 851              		@ sp needed
 852 0006 08BD     		pop	{r3, pc}
 853              		.cfi_endproc
 854              	.LFE37:
 855              		.size	inv_dmpdriver_read_mems, .-inv_dmpdriver_read_mems
 856              		.section	.text.inv_dmpdriver_mems_firmware_load,"ax",%progbits
 857              		.align	1
 858              		.global	inv_dmpdriver_mems_firmware_load
 859              		.code	16
 860              		.thumb_func
 861              		.type	inv_dmpdriver_mems_firmware_load, %function
 862              	inv_dmpdriver_mems_firmware_load:
 863              	.LFB38:
 589:.\20648_driver\dmp3/inv_mems_interface_mapping.c **** 
 590:.\20648_driver\dmp3/inv_mems_interface_mapping.c **** inv_error_t inv_dmpdriver_mems_firmware_load(const unsigned char *data_start, unsigned short size_s
 591:.\20648_driver\dmp3/inv_mems_interface_mapping.c **** {
 864              		.loc 1 591 0
 865              		.cfi_startproc
 866              	.LVL66:
 867 0000 08B5     		push	{r3, lr}
 868              		.cfi_def_cfa_offset 8
 869              		.cfi_offset 3, -8
 870              		.cfi_offset 14, -4
 592:.\20648_driver\dmp3/inv_mems_interface_mapping.c ****     return inv_mems_firmware_load(data_start, size_start, load_addr);
 871              		.loc 1 592 0
 872 0002 FFF7FEFF 		bl	inv_mems_firmware_load
 873              	.LVL67:
 593:.\20648_driver\dmp3/inv_mems_interface_mapping.c **** }
 874              		.loc 1 593 0
 875              		@ sp needed
 876 0006 08BD     		pop	{r3, pc}
 877              		.cfi_endproc
 878              	.LFE38:
 879              		.size	inv_dmpdriver_mems_firmware_load, .-inv_dmpdriver_mems_firmware_load
 880              		.section	.text.inv_dmpdriver_int16_to_big8,"ax",%progbits
 881              		.align	1
 882              		.global	inv_dmpdriver_int16_to_big8
ARM GAS  C:\Users\ADMINI~1\AppData\Local\Temp\ccDzzuxj.s 			page 27


 883              		.code	16
 884              		.thumb_func
 885              		.type	inv_dmpdriver_int16_to_big8, %function
 886              	inv_dmpdriver_int16_to_big8:
 887              	.LFB39:
 594:.\20648_driver\dmp3/inv_mems_interface_mapping.c **** 
 595:.\20648_driver\dmp3/inv_mems_interface_mapping.c **** unsigned char *inv_dmpdriver_int16_to_big8(short x, unsigned char *big8)
 596:.\20648_driver\dmp3/inv_mems_interface_mapping.c **** {
 888              		.loc 1 596 0
 889              		.cfi_startproc
 890              	.LVL68:
 891 0000 08B5     		push	{r3, lr}
 892              		.cfi_def_cfa_offset 8
 893              		.cfi_offset 3, -8
 894              		.cfi_offset 14, -4
 597:.\20648_driver\dmp3/inv_mems_interface_mapping.c ****     return inv_int16_to_big8(x, big8);
 895              		.loc 1 597 0
 896 0002 FFF7FEFF 		bl	inv_int16_to_big8
 897              	.LVL69:
 598:.\20648_driver\dmp3/inv_mems_interface_mapping.c **** }
 898              		.loc 1 598 0
 899              		@ sp needed
 900 0006 08BD     		pop	{r3, pc}
 901              		.cfi_endproc
 902              	.LFE39:
 903              		.size	inv_dmpdriver_int16_to_big8, .-inv_dmpdriver_int16_to_big8
 904              		.section	.text.inv_dmpdriver_int32_to_big8,"ax",%progbits
 905              		.align	1
 906              		.global	inv_dmpdriver_int32_to_big8
 907              		.code	16
 908              		.thumb_func
 909              		.type	inv_dmpdriver_int32_to_big8, %function
 910              	inv_dmpdriver_int32_to_big8:
 911              	.LFB40:
 599:.\20648_driver\dmp3/inv_mems_interface_mapping.c **** 
 600:.\20648_driver\dmp3/inv_mems_interface_mapping.c **** unsigned char *inv_dmpdriver_int32_to_big8(long x, unsigned char *big8)
 601:.\20648_driver\dmp3/inv_mems_interface_mapping.c **** {
 912              		.loc 1 601 0
 913              		.cfi_startproc
 914              	.LVL70:
 915 0000 08B5     		push	{r3, lr}
 916              		.cfi_def_cfa_offset 8
 917              		.cfi_offset 3, -8
 918              		.cfi_offset 14, -4
 602:.\20648_driver\dmp3/inv_mems_interface_mapping.c ****     return inv_int32_to_big8(x, big8);
 919              		.loc 1 602 0
 920 0002 FFF7FEFF 		bl	inv_int32_to_big8
 921              	.LVL71:
 603:.\20648_driver\dmp3/inv_mems_interface_mapping.c **** }
 922              		.loc 1 603 0
 923              		@ sp needed
 924 0006 08BD     		pop	{r3, pc}
 925              		.cfi_endproc
 926              	.LFE40:
 927              		.size	inv_dmpdriver_int32_to_big8, .-inv_dmpdriver_int32_to_big8
 928              		.section	.text.inv_dmpdriver_big8_to_int32,"ax",%progbits
 929              		.align	1
ARM GAS  C:\Users\ADMINI~1\AppData\Local\Temp\ccDzzuxj.s 			page 28


 930              		.global	inv_dmpdriver_big8_to_int32
 931              		.code	16
 932              		.thumb_func
 933              		.type	inv_dmpdriver_big8_to_int32, %function
 934              	inv_dmpdriver_big8_to_int32:
 935              	.LFB41:
 604:.\20648_driver\dmp3/inv_mems_interface_mapping.c **** 
 605:.\20648_driver\dmp3/inv_mems_interface_mapping.c **** long inv_dmpdriver_big8_to_int32(const unsigned char *big8)
 606:.\20648_driver\dmp3/inv_mems_interface_mapping.c **** {
 936              		.loc 1 606 0
 937              		.cfi_startproc
 938              	.LVL72:
 939 0000 08B5     		push	{r3, lr}
 940              		.cfi_def_cfa_offset 8
 941              		.cfi_offset 3, -8
 942              		.cfi_offset 14, -4
 607:.\20648_driver\dmp3/inv_mems_interface_mapping.c ****     return inv_big8_to_int32(big8);
 943              		.loc 1 607 0
 944 0002 FFF7FEFF 		bl	inv_big8_to_int32
 945              	.LVL73:
 608:.\20648_driver\dmp3/inv_mems_interface_mapping.c **** }
 946              		.loc 1 608 0
 947              		@ sp needed
 948 0006 08BD     		pop	{r3, pc}
 949              		.cfi_endproc
 950              	.LFE41:
 951              		.size	inv_dmpdriver_big8_to_int32, .-inv_dmpdriver_big8_to_int32
 952              		.bss
 953              		.align	2
 954              		.set	.LANCHOR0,. + 0
 955              		.type	sStepCounterToBeSubtracted, %object
 956              		.size	sStepCounterToBeSubtracted, 4
 957              	sStepCounterToBeSubtracted:
 958 0000 00000000 		.space	4
 959              		.type	sOldSteps, %object
 960              		.size	sOldSteps, 4
 961              	sOldSteps:
 962 0004 00000000 		.space	4
 963              		.text
 964              	.Letext0:
 965              		.file 2 "c:\\program files (x86)\\cypress\\psoc creator\\3.3\\psoc creator\\import\\gnu\\arm\\4.9.
 966              		.file 3 "c:\\program files (x86)\\cypress\\psoc creator\\3.3\\psoc creator\\import\\gnu\\arm\\4.9.
 967              		.file 4 "./.\\20648_driver\\common\\mltypes.h"
 968              		.file 5 "./.\\20648_driver\\dmp3a\\dmp3Default_20648.h"
 969              		.file 6 "./.\\20648_driver\\drivers\\inv_mems_transport.h"
 970              		.file 7 "./.\\20648_driver\\drivers\\inv_mems_load_firmware.h"
 971              		.file 8 "./.\\20648_driver\\invn\\ml_math_func.h"