ARM GAS  C:\Users\ADMINI~1\AppData\Local\Temp\ccpBsAgo.s 			page 1


   1              		.cpu cortex-m0
   2              		.fpu softvfp
   3              		.eabi_attribute 20, 1
   4              		.eabi_attribute 21, 1
   5              		.eabi_attribute 23, 3
   6              		.eabi_attribute 24, 1
   7              		.eabi_attribute 25, 1
   8              		.eabi_attribute 26, 1
   9              		.eabi_attribute 30, 4
  10              		.eabi_attribute 34, 0
  11              		.eabi_attribute 18, 4
  12              		.code	16
  13              		.file	"isr_Timer1ms.c"
  14              		.text
  15              	.Ltext0:
  16              		.cfi_sections	.debug_frame
  17              		.section	.text.isr_Timer1ms_Interrupt,"ax",%progbits
  18              		.align	1
  19              		.global	isr_Timer1ms_Interrupt
  20              		.code	16
  21              		.thumb_func
  22              		.type	isr_Timer1ms_Interrupt, %function
  23              	isr_Timer1ms_Interrupt:
  24              	.LFB40:
  25              		.file 1 ".\\Generated_Source\\PSoC4\\isr_Timer1ms.c"
   1:.\Generated_Source\PSoC4/isr_Timer1ms.c **** /*******************************************************************************
   2:.\Generated_Source\PSoC4/isr_Timer1ms.c **** * File Name: isr_Timer1ms.c  
   3:.\Generated_Source\PSoC4/isr_Timer1ms.c **** * Version 1.70
   4:.\Generated_Source\PSoC4/isr_Timer1ms.c **** *
   5:.\Generated_Source\PSoC4/isr_Timer1ms.c **** *  Description:
   6:.\Generated_Source\PSoC4/isr_Timer1ms.c **** *   API for controlling the state of an interrupt.
   7:.\Generated_Source\PSoC4/isr_Timer1ms.c **** *
   8:.\Generated_Source\PSoC4/isr_Timer1ms.c **** *
   9:.\Generated_Source\PSoC4/isr_Timer1ms.c **** *  Note:
  10:.\Generated_Source\PSoC4/isr_Timer1ms.c **** *
  11:.\Generated_Source\PSoC4/isr_Timer1ms.c **** ********************************************************************************
  12:.\Generated_Source\PSoC4/isr_Timer1ms.c **** * Copyright 2008-2015, Cypress Semiconductor Corporation.  All rights reserved.
  13:.\Generated_Source\PSoC4/isr_Timer1ms.c **** * You may use this file only in accordance with the license, terms, conditions, 
  14:.\Generated_Source\PSoC4/isr_Timer1ms.c **** * disclaimers, and limitations in the end user license agreement accompanying 
  15:.\Generated_Source\PSoC4/isr_Timer1ms.c **** * the software package with which this file was provided.
  16:.\Generated_Source\PSoC4/isr_Timer1ms.c **** *******************************************************************************/
  17:.\Generated_Source\PSoC4/isr_Timer1ms.c **** 
  18:.\Generated_Source\PSoC4/isr_Timer1ms.c **** 
  19:.\Generated_Source\PSoC4/isr_Timer1ms.c **** #include <cydevice_trm.h>
  20:.\Generated_Source\PSoC4/isr_Timer1ms.c **** #include <CyLib.h>
  21:.\Generated_Source\PSoC4/isr_Timer1ms.c **** #include <isr_Timer1ms.h>
  22:.\Generated_Source\PSoC4/isr_Timer1ms.c **** #include "cyapicallbacks.h"
  23:.\Generated_Source\PSoC4/isr_Timer1ms.c **** 
  24:.\Generated_Source\PSoC4/isr_Timer1ms.c **** #if !defined(isr_Timer1ms__REMOVED) /* Check for removal by optimization */
  25:.\Generated_Source\PSoC4/isr_Timer1ms.c **** 
  26:.\Generated_Source\PSoC4/isr_Timer1ms.c **** /*******************************************************************************
  27:.\Generated_Source\PSoC4/isr_Timer1ms.c **** *  Place your includes, defines and code here 
  28:.\Generated_Source\PSoC4/isr_Timer1ms.c **** ********************************************************************************/
  29:.\Generated_Source\PSoC4/isr_Timer1ms.c **** /* `#START isr_Timer1ms_intc` */
  30:.\Generated_Source\PSoC4/isr_Timer1ms.c **** #include <I2C_Comm.h>
  31:.\Generated_Source\PSoC4/isr_Timer1ms.c **** #include <timeout.h>
  32:.\Generated_Source\PSoC4/isr_Timer1ms.c **** /* `#END` */
ARM GAS  C:\Users\ADMINI~1\AppData\Local\Temp\ccpBsAgo.s 			page 2


  33:.\Generated_Source\PSoC4/isr_Timer1ms.c **** 
  34:.\Generated_Source\PSoC4/isr_Timer1ms.c **** extern cyisraddress CyRamVectors[CYINT_IRQ_BASE + CY_NUM_INTERRUPTS];
  35:.\Generated_Source\PSoC4/isr_Timer1ms.c **** 
  36:.\Generated_Source\PSoC4/isr_Timer1ms.c **** /* Declared in startup, used to set unused interrupts to. */
  37:.\Generated_Source\PSoC4/isr_Timer1ms.c **** CY_ISR_PROTO(IntDefaultHandler);
  38:.\Generated_Source\PSoC4/isr_Timer1ms.c **** 
  39:.\Generated_Source\PSoC4/isr_Timer1ms.c **** 
  40:.\Generated_Source\PSoC4/isr_Timer1ms.c **** /*******************************************************************************
  41:.\Generated_Source\PSoC4/isr_Timer1ms.c **** * Function Name: isr_Timer1ms_Start
  42:.\Generated_Source\PSoC4/isr_Timer1ms.c **** ********************************************************************************
  43:.\Generated_Source\PSoC4/isr_Timer1ms.c **** *
  44:.\Generated_Source\PSoC4/isr_Timer1ms.c **** * Summary:
  45:.\Generated_Source\PSoC4/isr_Timer1ms.c **** *  Set up the interrupt and enable it. This function disables the interrupt, 
  46:.\Generated_Source\PSoC4/isr_Timer1ms.c **** *  sets the default interrupt vector, sets the priority from the value in the
  47:.\Generated_Source\PSoC4/isr_Timer1ms.c **** *  Design Wide Resources Interrupt Editor, then enables the interrupt to the 
  48:.\Generated_Source\PSoC4/isr_Timer1ms.c **** *  interrupt controller.
  49:.\Generated_Source\PSoC4/isr_Timer1ms.c **** *
  50:.\Generated_Source\PSoC4/isr_Timer1ms.c **** * Parameters:  
  51:.\Generated_Source\PSoC4/isr_Timer1ms.c **** *   None
  52:.\Generated_Source\PSoC4/isr_Timer1ms.c **** *
  53:.\Generated_Source\PSoC4/isr_Timer1ms.c **** * Return:
  54:.\Generated_Source\PSoC4/isr_Timer1ms.c **** *   None
  55:.\Generated_Source\PSoC4/isr_Timer1ms.c **** *
  56:.\Generated_Source\PSoC4/isr_Timer1ms.c **** *******************************************************************************/
  57:.\Generated_Source\PSoC4/isr_Timer1ms.c **** void isr_Timer1ms_Start(void)
  58:.\Generated_Source\PSoC4/isr_Timer1ms.c **** {
  59:.\Generated_Source\PSoC4/isr_Timer1ms.c ****     /* For all we know the interrupt is active. */
  60:.\Generated_Source\PSoC4/isr_Timer1ms.c ****     isr_Timer1ms_Disable();
  61:.\Generated_Source\PSoC4/isr_Timer1ms.c **** 
  62:.\Generated_Source\PSoC4/isr_Timer1ms.c ****     /* Set the ISR to point to the isr_Timer1ms Interrupt. */
  63:.\Generated_Source\PSoC4/isr_Timer1ms.c ****     isr_Timer1ms_SetVector(&isr_Timer1ms_Interrupt);
  64:.\Generated_Source\PSoC4/isr_Timer1ms.c **** 
  65:.\Generated_Source\PSoC4/isr_Timer1ms.c ****     /* Set the priority. */
  66:.\Generated_Source\PSoC4/isr_Timer1ms.c ****     isr_Timer1ms_SetPriority((uint8)isr_Timer1ms_INTC_PRIOR_NUMBER);
  67:.\Generated_Source\PSoC4/isr_Timer1ms.c **** 
  68:.\Generated_Source\PSoC4/isr_Timer1ms.c ****     /* Enable it. */
  69:.\Generated_Source\PSoC4/isr_Timer1ms.c ****     isr_Timer1ms_Enable();
  70:.\Generated_Source\PSoC4/isr_Timer1ms.c **** }
  71:.\Generated_Source\PSoC4/isr_Timer1ms.c **** 
  72:.\Generated_Source\PSoC4/isr_Timer1ms.c **** 
  73:.\Generated_Source\PSoC4/isr_Timer1ms.c **** /*******************************************************************************
  74:.\Generated_Source\PSoC4/isr_Timer1ms.c **** * Function Name: isr_Timer1ms_StartEx
  75:.\Generated_Source\PSoC4/isr_Timer1ms.c **** ********************************************************************************
  76:.\Generated_Source\PSoC4/isr_Timer1ms.c **** *
  77:.\Generated_Source\PSoC4/isr_Timer1ms.c **** * Summary:
  78:.\Generated_Source\PSoC4/isr_Timer1ms.c **** *  Sets up the interrupt and enables it. This function disables the interrupt,
  79:.\Generated_Source\PSoC4/isr_Timer1ms.c **** *  sets the interrupt vector based on the address passed in, sets the priority 
  80:.\Generated_Source\PSoC4/isr_Timer1ms.c **** *  from the value in the Design Wide Resources Interrupt Editor, then enables 
  81:.\Generated_Source\PSoC4/isr_Timer1ms.c **** *  the interrupt to the interrupt controller.
  82:.\Generated_Source\PSoC4/isr_Timer1ms.c **** *  
  83:.\Generated_Source\PSoC4/isr_Timer1ms.c **** *  When defining ISR functions, the CY_ISR and CY_ISR_PROTO macros should be 
  84:.\Generated_Source\PSoC4/isr_Timer1ms.c **** *  used to provide consistent definition across compilers:
  85:.\Generated_Source\PSoC4/isr_Timer1ms.c **** *  
  86:.\Generated_Source\PSoC4/isr_Timer1ms.c **** *  Function definition example:
  87:.\Generated_Source\PSoC4/isr_Timer1ms.c **** *   CY_ISR(MyISR)
  88:.\Generated_Source\PSoC4/isr_Timer1ms.c **** *   {
  89:.\Generated_Source\PSoC4/isr_Timer1ms.c **** *   }
ARM GAS  C:\Users\ADMINI~1\AppData\Local\Temp\ccpBsAgo.s 			page 3


  90:.\Generated_Source\PSoC4/isr_Timer1ms.c **** *   Function prototype example:
  91:.\Generated_Source\PSoC4/isr_Timer1ms.c **** *   CY_ISR_PROTO(MyISR);
  92:.\Generated_Source\PSoC4/isr_Timer1ms.c **** *
  93:.\Generated_Source\PSoC4/isr_Timer1ms.c **** * Parameters:  
  94:.\Generated_Source\PSoC4/isr_Timer1ms.c **** *   address: Address of the ISR to set in the interrupt vector table.
  95:.\Generated_Source\PSoC4/isr_Timer1ms.c **** *
  96:.\Generated_Source\PSoC4/isr_Timer1ms.c **** * Return:
  97:.\Generated_Source\PSoC4/isr_Timer1ms.c **** *   None
  98:.\Generated_Source\PSoC4/isr_Timer1ms.c **** *
  99:.\Generated_Source\PSoC4/isr_Timer1ms.c **** *******************************************************************************/
 100:.\Generated_Source\PSoC4/isr_Timer1ms.c **** void isr_Timer1ms_StartEx(cyisraddress address)
 101:.\Generated_Source\PSoC4/isr_Timer1ms.c **** {
 102:.\Generated_Source\PSoC4/isr_Timer1ms.c ****     /* For all we know the interrupt is active. */
 103:.\Generated_Source\PSoC4/isr_Timer1ms.c ****     isr_Timer1ms_Disable();
 104:.\Generated_Source\PSoC4/isr_Timer1ms.c **** 
 105:.\Generated_Source\PSoC4/isr_Timer1ms.c ****     /* Set the ISR to point to the isr_Timer1ms Interrupt. */
 106:.\Generated_Source\PSoC4/isr_Timer1ms.c ****     isr_Timer1ms_SetVector(address);
 107:.\Generated_Source\PSoC4/isr_Timer1ms.c **** 
 108:.\Generated_Source\PSoC4/isr_Timer1ms.c ****     /* Set the priority. */
 109:.\Generated_Source\PSoC4/isr_Timer1ms.c ****     isr_Timer1ms_SetPriority((uint8)isr_Timer1ms_INTC_PRIOR_NUMBER);
 110:.\Generated_Source\PSoC4/isr_Timer1ms.c **** 
 111:.\Generated_Source\PSoC4/isr_Timer1ms.c ****     /* Enable it. */
 112:.\Generated_Source\PSoC4/isr_Timer1ms.c ****     isr_Timer1ms_Enable();
 113:.\Generated_Source\PSoC4/isr_Timer1ms.c **** }
 114:.\Generated_Source\PSoC4/isr_Timer1ms.c **** 
 115:.\Generated_Source\PSoC4/isr_Timer1ms.c **** 
 116:.\Generated_Source\PSoC4/isr_Timer1ms.c **** /*******************************************************************************
 117:.\Generated_Source\PSoC4/isr_Timer1ms.c **** * Function Name: isr_Timer1ms_Stop
 118:.\Generated_Source\PSoC4/isr_Timer1ms.c **** ********************************************************************************
 119:.\Generated_Source\PSoC4/isr_Timer1ms.c **** *
 120:.\Generated_Source\PSoC4/isr_Timer1ms.c **** * Summary:
 121:.\Generated_Source\PSoC4/isr_Timer1ms.c **** *   Disables and removes the interrupt.
 122:.\Generated_Source\PSoC4/isr_Timer1ms.c **** *
 123:.\Generated_Source\PSoC4/isr_Timer1ms.c **** * Parameters:  
 124:.\Generated_Source\PSoC4/isr_Timer1ms.c **** *   None
 125:.\Generated_Source\PSoC4/isr_Timer1ms.c **** *
 126:.\Generated_Source\PSoC4/isr_Timer1ms.c **** * Return:
 127:.\Generated_Source\PSoC4/isr_Timer1ms.c **** *   None
 128:.\Generated_Source\PSoC4/isr_Timer1ms.c **** *
 129:.\Generated_Source\PSoC4/isr_Timer1ms.c **** *******************************************************************************/
 130:.\Generated_Source\PSoC4/isr_Timer1ms.c **** void isr_Timer1ms_Stop(void)
 131:.\Generated_Source\PSoC4/isr_Timer1ms.c **** {
 132:.\Generated_Source\PSoC4/isr_Timer1ms.c ****     /* Disable this interrupt. */
 133:.\Generated_Source\PSoC4/isr_Timer1ms.c ****     isr_Timer1ms_Disable();
 134:.\Generated_Source\PSoC4/isr_Timer1ms.c **** 
 135:.\Generated_Source\PSoC4/isr_Timer1ms.c ****     /* Set the ISR to point to the passive one. */
 136:.\Generated_Source\PSoC4/isr_Timer1ms.c ****     isr_Timer1ms_SetVector(&IntDefaultHandler);
 137:.\Generated_Source\PSoC4/isr_Timer1ms.c **** }
 138:.\Generated_Source\PSoC4/isr_Timer1ms.c **** 
 139:.\Generated_Source\PSoC4/isr_Timer1ms.c **** 
 140:.\Generated_Source\PSoC4/isr_Timer1ms.c **** /*******************************************************************************
 141:.\Generated_Source\PSoC4/isr_Timer1ms.c **** * Function Name: isr_Timer1ms_Interrupt
 142:.\Generated_Source\PSoC4/isr_Timer1ms.c **** ********************************************************************************
 143:.\Generated_Source\PSoC4/isr_Timer1ms.c **** *
 144:.\Generated_Source\PSoC4/isr_Timer1ms.c **** * Summary:
 145:.\Generated_Source\PSoC4/isr_Timer1ms.c **** *   The default Interrupt Service Routine for isr_Timer1ms.
 146:.\Generated_Source\PSoC4/isr_Timer1ms.c **** *
ARM GAS  C:\Users\ADMINI~1\AppData\Local\Temp\ccpBsAgo.s 			page 4


 147:.\Generated_Source\PSoC4/isr_Timer1ms.c **** *   Add custom code between the START and END comments to keep the next version
 148:.\Generated_Source\PSoC4/isr_Timer1ms.c **** *   of this file from over-writing your code.
 149:.\Generated_Source\PSoC4/isr_Timer1ms.c **** *
 150:.\Generated_Source\PSoC4/isr_Timer1ms.c **** *   Note You may use either the default ISR by using this API, or you may define
 151:.\Generated_Source\PSoC4/isr_Timer1ms.c **** *   your own separate ISR through ISR_StartEx().
 152:.\Generated_Source\PSoC4/isr_Timer1ms.c **** *
 153:.\Generated_Source\PSoC4/isr_Timer1ms.c **** * Parameters:  
 154:.\Generated_Source\PSoC4/isr_Timer1ms.c **** *   None
 155:.\Generated_Source\PSoC4/isr_Timer1ms.c **** *
 156:.\Generated_Source\PSoC4/isr_Timer1ms.c **** * Return:
 157:.\Generated_Source\PSoC4/isr_Timer1ms.c **** *   None
 158:.\Generated_Source\PSoC4/isr_Timer1ms.c **** *
 159:.\Generated_Source\PSoC4/isr_Timer1ms.c **** *******************************************************************************/
 160:.\Generated_Source\PSoC4/isr_Timer1ms.c **** CY_ISR(isr_Timer1ms_Interrupt)
 161:.\Generated_Source\PSoC4/isr_Timer1ms.c **** {
  26              		.loc 1 161 0
  27              		.cfi_startproc
 162:.\Generated_Source\PSoC4/isr_Timer1ms.c ****     #ifdef isr_Timer1ms_INTERRUPT_INTERRUPT_CALLBACK
 163:.\Generated_Source\PSoC4/isr_Timer1ms.c ****         isr_Timer1ms_Interrupt_InterruptCallback();
 164:.\Generated_Source\PSoC4/isr_Timer1ms.c ****     #endif /* isr_Timer1ms_INTERRUPT_INTERRUPT_CALLBACK */ 
 165:.\Generated_Source\PSoC4/isr_Timer1ms.c **** 
 166:.\Generated_Source\PSoC4/isr_Timer1ms.c ****     /*  Place your Interrupt code here. */
 167:.\Generated_Source\PSoC4/isr_Timer1ms.c ****     /* `#START isr_Timer1ms_Interrupt` */
 168:.\Generated_Source\PSoC4/isr_Timer1ms.c **** 	if(TimeoutEnableFlags & I2C_TIMEOUT)
  28              		.loc 1 168 0
  29 0000 0121     		mov	r1, #1
  30 0002 094B     		ldr	r3, .L9
  31 0004 1B78     		ldrb	r3, [r3]
  32 0006 0B42     		tst	r3, r1
  33 0008 0CD0     		beq	.L1
 169:.\Generated_Source\PSoC4/isr_Timer1ms.c **** 	{
 170:.\Generated_Source\PSoC4/isr_Timer1ms.c **** 		if(I2CTimeoutCounter != 0)
  34              		.loc 1 170 0
  35 000a 084A     		ldr	r2, .L9+4
  36 000c 1378     		ldrb	r3, [r2]
  37 000e 002B     		cmp	r3, #0
  38 0010 08D0     		beq	.L1
 171:.\Generated_Source\PSoC4/isr_Timer1ms.c **** 		{
 172:.\Generated_Source\PSoC4/isr_Timer1ms.c **** 			I2CTimeoutCounter--;
  39              		.loc 1 172 0
  40 0012 013B     		sub	r3, r3, #1
  41 0014 DBB2     		uxtb	r3, r3
  42 0016 1370     		strb	r3, [r2]
 173:.\Generated_Source\PSoC4/isr_Timer1ms.c **** 			if(I2CTimeoutCounter == 0)
  43              		.loc 1 173 0
  44 0018 002B     		cmp	r3, #0
  45 001a 03D1     		bne	.L1
  46              	.LBB20:
 174:.\Generated_Source\PSoC4/isr_Timer1ms.c **** 			{
 175:.\Generated_Source\PSoC4/isr_Timer1ms.c **** 				TimeoutErrorFlags |= I2C_TIMEOUT;
  47              		.loc 1 175 0
  48 001c 044A     		ldr	r2, .L9+8
  49 001e 1378     		ldrb	r3, [r2]
  50 0020 0B43     		orr	r3, r1
  51 0022 1370     		strb	r3, [r2]
  52              	.L1:
  53              	.LBE20:
ARM GAS  C:\Users\ADMINI~1\AppData\Local\Temp\ccpBsAgo.s 			page 5


 176:.\Generated_Source\PSoC4/isr_Timer1ms.c **** 			}
 177:.\Generated_Source\PSoC4/isr_Timer1ms.c **** 		}
 178:.\Generated_Source\PSoC4/isr_Timer1ms.c **** 	}
 179:.\Generated_Source\PSoC4/isr_Timer1ms.c ****     /* `#END` */
 180:.\Generated_Source\PSoC4/isr_Timer1ms.c **** }
  54              		.loc 1 180 0
  55              		@ sp needed
  56 0024 7047     		bx	lr
  57              	.L10:
  58 0026 C046     		.align	2
  59              	.L9:
  60 0028 00000000 		.word	TimeoutEnableFlags
  61 002c 00000000 		.word	I2CTimeoutCounter
  62 0030 00000000 		.word	TimeoutErrorFlags
  63              		.cfi_endproc
  64              	.LFE40:
  65              		.size	isr_Timer1ms_Interrupt, .-isr_Timer1ms_Interrupt
  66              		.section	.text.isr_Timer1ms_Stop,"ax",%progbits
  67              		.align	1
  68              		.global	isr_Timer1ms_Stop
  69              		.code	16
  70              		.thumb_func
  71              		.type	isr_Timer1ms_Stop, %function
  72              	isr_Timer1ms_Stop:
  73              	.LFB39:
 131:.\Generated_Source\PSoC4/isr_Timer1ms.c ****     /* Disable this interrupt. */
  74              		.loc 1 131 0
  75              		.cfi_startproc
  76              	.LBB21:
  77              	.LBB22:
 181:.\Generated_Source\PSoC4/isr_Timer1ms.c **** 
 182:.\Generated_Source\PSoC4/isr_Timer1ms.c **** 
 183:.\Generated_Source\PSoC4/isr_Timer1ms.c **** /*******************************************************************************
 184:.\Generated_Source\PSoC4/isr_Timer1ms.c **** * Function Name: isr_Timer1ms_SetVector
 185:.\Generated_Source\PSoC4/isr_Timer1ms.c **** ********************************************************************************
 186:.\Generated_Source\PSoC4/isr_Timer1ms.c **** *
 187:.\Generated_Source\PSoC4/isr_Timer1ms.c **** * Summary:
 188:.\Generated_Source\PSoC4/isr_Timer1ms.c **** *   Change the ISR vector for the Interrupt. Note calling isr_Timer1ms_Start
 189:.\Generated_Source\PSoC4/isr_Timer1ms.c **** *   will override any effect this method would have had. To set the vector 
 190:.\Generated_Source\PSoC4/isr_Timer1ms.c **** *   before the component has been started use isr_Timer1ms_StartEx instead.
 191:.\Generated_Source\PSoC4/isr_Timer1ms.c **** * 
 192:.\Generated_Source\PSoC4/isr_Timer1ms.c **** *   When defining ISR functions, the CY_ISR and CY_ISR_PROTO macros should be 
 193:.\Generated_Source\PSoC4/isr_Timer1ms.c **** *   used to provide consistent definition across compilers:
 194:.\Generated_Source\PSoC4/isr_Timer1ms.c **** *
 195:.\Generated_Source\PSoC4/isr_Timer1ms.c **** *   Function definition example:
 196:.\Generated_Source\PSoC4/isr_Timer1ms.c **** *   CY_ISR(MyISR)
 197:.\Generated_Source\PSoC4/isr_Timer1ms.c **** *   {
 198:.\Generated_Source\PSoC4/isr_Timer1ms.c **** *   }
 199:.\Generated_Source\PSoC4/isr_Timer1ms.c **** *
 200:.\Generated_Source\PSoC4/isr_Timer1ms.c **** *   Function prototype example:
 201:.\Generated_Source\PSoC4/isr_Timer1ms.c **** *     CY_ISR_PROTO(MyISR);
 202:.\Generated_Source\PSoC4/isr_Timer1ms.c **** *
 203:.\Generated_Source\PSoC4/isr_Timer1ms.c **** * Parameters:
 204:.\Generated_Source\PSoC4/isr_Timer1ms.c **** *   address: Address of the ISR to set in the interrupt vector table.
 205:.\Generated_Source\PSoC4/isr_Timer1ms.c **** *
 206:.\Generated_Source\PSoC4/isr_Timer1ms.c **** * Return:
 207:.\Generated_Source\PSoC4/isr_Timer1ms.c **** *   None
ARM GAS  C:\Users\ADMINI~1\AppData\Local\Temp\ccpBsAgo.s 			page 6


 208:.\Generated_Source\PSoC4/isr_Timer1ms.c **** *
 209:.\Generated_Source\PSoC4/isr_Timer1ms.c **** *******************************************************************************/
 210:.\Generated_Source\PSoC4/isr_Timer1ms.c **** void isr_Timer1ms_SetVector(cyisraddress address)
 211:.\Generated_Source\PSoC4/isr_Timer1ms.c **** {
 212:.\Generated_Source\PSoC4/isr_Timer1ms.c ****     CyRamVectors[CYINT_IRQ_BASE + isr_Timer1ms__INTC_NUMBER] = address;
 213:.\Generated_Source\PSoC4/isr_Timer1ms.c **** }
 214:.\Generated_Source\PSoC4/isr_Timer1ms.c **** 
 215:.\Generated_Source\PSoC4/isr_Timer1ms.c **** 
 216:.\Generated_Source\PSoC4/isr_Timer1ms.c **** /*******************************************************************************
 217:.\Generated_Source\PSoC4/isr_Timer1ms.c **** * Function Name: isr_Timer1ms_GetVector
 218:.\Generated_Source\PSoC4/isr_Timer1ms.c **** ********************************************************************************
 219:.\Generated_Source\PSoC4/isr_Timer1ms.c **** *
 220:.\Generated_Source\PSoC4/isr_Timer1ms.c **** * Summary:
 221:.\Generated_Source\PSoC4/isr_Timer1ms.c **** *   Gets the "address" of the current ISR vector for the Interrupt.
 222:.\Generated_Source\PSoC4/isr_Timer1ms.c **** *
 223:.\Generated_Source\PSoC4/isr_Timer1ms.c **** * Parameters:
 224:.\Generated_Source\PSoC4/isr_Timer1ms.c **** *   None
 225:.\Generated_Source\PSoC4/isr_Timer1ms.c **** *
 226:.\Generated_Source\PSoC4/isr_Timer1ms.c **** * Return:
 227:.\Generated_Source\PSoC4/isr_Timer1ms.c **** *   Address of the ISR in the interrupt vector table.
 228:.\Generated_Source\PSoC4/isr_Timer1ms.c **** *
 229:.\Generated_Source\PSoC4/isr_Timer1ms.c **** *******************************************************************************/
 230:.\Generated_Source\PSoC4/isr_Timer1ms.c **** cyisraddress isr_Timer1ms_GetVector(void)
 231:.\Generated_Source\PSoC4/isr_Timer1ms.c **** {
 232:.\Generated_Source\PSoC4/isr_Timer1ms.c ****     return CyRamVectors[CYINT_IRQ_BASE + isr_Timer1ms__INTC_NUMBER];
 233:.\Generated_Source\PSoC4/isr_Timer1ms.c **** }
 234:.\Generated_Source\PSoC4/isr_Timer1ms.c **** 
 235:.\Generated_Source\PSoC4/isr_Timer1ms.c **** 
 236:.\Generated_Source\PSoC4/isr_Timer1ms.c **** /*******************************************************************************
 237:.\Generated_Source\PSoC4/isr_Timer1ms.c **** * Function Name: isr_Timer1ms_SetPriority
 238:.\Generated_Source\PSoC4/isr_Timer1ms.c **** ********************************************************************************
 239:.\Generated_Source\PSoC4/isr_Timer1ms.c **** *
 240:.\Generated_Source\PSoC4/isr_Timer1ms.c **** * Summary:
 241:.\Generated_Source\PSoC4/isr_Timer1ms.c **** *   Sets the Priority of the Interrupt. 
 242:.\Generated_Source\PSoC4/isr_Timer1ms.c **** *
 243:.\Generated_Source\PSoC4/isr_Timer1ms.c **** *   Note calling isr_Timer1ms_Start or isr_Timer1ms_StartEx will 
 244:.\Generated_Source\PSoC4/isr_Timer1ms.c **** *   override any effect this API would have had. This API should only be called
 245:.\Generated_Source\PSoC4/isr_Timer1ms.c **** *   after isr_Timer1ms_Start or isr_Timer1ms_StartEx has been called. 
 246:.\Generated_Source\PSoC4/isr_Timer1ms.c **** *   To set the initial priority for the component, use the Design-Wide Resources
 247:.\Generated_Source\PSoC4/isr_Timer1ms.c **** *   Interrupt Editor.
 248:.\Generated_Source\PSoC4/isr_Timer1ms.c **** *
 249:.\Generated_Source\PSoC4/isr_Timer1ms.c **** *   Note This API has no effect on Non-maskable interrupt NMI).
 250:.\Generated_Source\PSoC4/isr_Timer1ms.c **** *
 251:.\Generated_Source\PSoC4/isr_Timer1ms.c **** * Parameters:
 252:.\Generated_Source\PSoC4/isr_Timer1ms.c **** *   priority: Priority of the interrupt, 0 being the highest priority
 253:.\Generated_Source\PSoC4/isr_Timer1ms.c **** *             PSoC 3 and PSoC 5LP: Priority is from 0 to 7.
 254:.\Generated_Source\PSoC4/isr_Timer1ms.c **** *             PSoC 4: Priority is from 0 to 3.
 255:.\Generated_Source\PSoC4/isr_Timer1ms.c **** *
 256:.\Generated_Source\PSoC4/isr_Timer1ms.c **** * Return:
 257:.\Generated_Source\PSoC4/isr_Timer1ms.c **** *   None
 258:.\Generated_Source\PSoC4/isr_Timer1ms.c **** *
 259:.\Generated_Source\PSoC4/isr_Timer1ms.c **** *******************************************************************************/
 260:.\Generated_Source\PSoC4/isr_Timer1ms.c **** void isr_Timer1ms_SetPriority(uint8 priority)
 261:.\Generated_Source\PSoC4/isr_Timer1ms.c **** {
 262:.\Generated_Source\PSoC4/isr_Timer1ms.c **** 	uint8 interruptState;
 263:.\Generated_Source\PSoC4/isr_Timer1ms.c ****     uint32 priorityOffset = ((isr_Timer1ms__INTC_NUMBER % 4u) * 8u) + 6u;
 264:.\Generated_Source\PSoC4/isr_Timer1ms.c ****     
ARM GAS  C:\Users\ADMINI~1\AppData\Local\Temp\ccpBsAgo.s 			page 7


 265:.\Generated_Source\PSoC4/isr_Timer1ms.c **** 	interruptState = CyEnterCriticalSection();
 266:.\Generated_Source\PSoC4/isr_Timer1ms.c ****     *isr_Timer1ms_INTC_PRIOR = (*isr_Timer1ms_INTC_PRIOR & (uint32)(~isr_Timer1ms__INTC_PRIOR_MASK)
 267:.\Generated_Source\PSoC4/isr_Timer1ms.c ****                                     ((uint32)priority << priorityOffset);
 268:.\Generated_Source\PSoC4/isr_Timer1ms.c **** 	CyExitCriticalSection(interruptState);
 269:.\Generated_Source\PSoC4/isr_Timer1ms.c **** }
 270:.\Generated_Source\PSoC4/isr_Timer1ms.c **** 
 271:.\Generated_Source\PSoC4/isr_Timer1ms.c **** 
 272:.\Generated_Source\PSoC4/isr_Timer1ms.c **** /*******************************************************************************
 273:.\Generated_Source\PSoC4/isr_Timer1ms.c **** * Function Name: isr_Timer1ms_GetPriority
 274:.\Generated_Source\PSoC4/isr_Timer1ms.c **** ********************************************************************************
 275:.\Generated_Source\PSoC4/isr_Timer1ms.c **** *
 276:.\Generated_Source\PSoC4/isr_Timer1ms.c **** * Summary:
 277:.\Generated_Source\PSoC4/isr_Timer1ms.c **** *   Gets the Priority of the Interrupt.
 278:.\Generated_Source\PSoC4/isr_Timer1ms.c **** *
 279:.\Generated_Source\PSoC4/isr_Timer1ms.c **** * Parameters:
 280:.\Generated_Source\PSoC4/isr_Timer1ms.c **** *   None
 281:.\Generated_Source\PSoC4/isr_Timer1ms.c **** *
 282:.\Generated_Source\PSoC4/isr_Timer1ms.c **** * Return:
 283:.\Generated_Source\PSoC4/isr_Timer1ms.c **** *   Priority of the interrupt, 0 being the highest priority
 284:.\Generated_Source\PSoC4/isr_Timer1ms.c **** *    PSoC 3 and PSoC 5LP: Priority is from 0 to 7.
 285:.\Generated_Source\PSoC4/isr_Timer1ms.c **** *    PSoC 4: Priority is from 0 to 3.
 286:.\Generated_Source\PSoC4/isr_Timer1ms.c **** *
 287:.\Generated_Source\PSoC4/isr_Timer1ms.c **** *******************************************************************************/
 288:.\Generated_Source\PSoC4/isr_Timer1ms.c **** uint8 isr_Timer1ms_GetPriority(void)
 289:.\Generated_Source\PSoC4/isr_Timer1ms.c **** {
 290:.\Generated_Source\PSoC4/isr_Timer1ms.c ****     uint32 priority;
 291:.\Generated_Source\PSoC4/isr_Timer1ms.c **** 	uint32 priorityOffset = ((isr_Timer1ms__INTC_NUMBER % 4u) * 8u) + 6u;
 292:.\Generated_Source\PSoC4/isr_Timer1ms.c **** 
 293:.\Generated_Source\PSoC4/isr_Timer1ms.c ****     priority = (*isr_Timer1ms_INTC_PRIOR & isr_Timer1ms__INTC_PRIOR_MASK) >> priorityOffset;
 294:.\Generated_Source\PSoC4/isr_Timer1ms.c **** 
 295:.\Generated_Source\PSoC4/isr_Timer1ms.c ****     return (uint8)priority;
 296:.\Generated_Source\PSoC4/isr_Timer1ms.c **** }
 297:.\Generated_Source\PSoC4/isr_Timer1ms.c **** 
 298:.\Generated_Source\PSoC4/isr_Timer1ms.c **** 
 299:.\Generated_Source\PSoC4/isr_Timer1ms.c **** /*******************************************************************************
 300:.\Generated_Source\PSoC4/isr_Timer1ms.c **** * Function Name: isr_Timer1ms_Enable
 301:.\Generated_Source\PSoC4/isr_Timer1ms.c **** ********************************************************************************
 302:.\Generated_Source\PSoC4/isr_Timer1ms.c **** *
 303:.\Generated_Source\PSoC4/isr_Timer1ms.c **** * Summary:
 304:.\Generated_Source\PSoC4/isr_Timer1ms.c **** *   Enables the interrupt to the interrupt controller. Do not call this function
 305:.\Generated_Source\PSoC4/isr_Timer1ms.c **** *   unless ISR_Start() has been called or the functionality of the ISR_Start() 
 306:.\Generated_Source\PSoC4/isr_Timer1ms.c **** *   function, which sets the vector and the priority, has been called.
 307:.\Generated_Source\PSoC4/isr_Timer1ms.c **** *
 308:.\Generated_Source\PSoC4/isr_Timer1ms.c **** * Parameters:
 309:.\Generated_Source\PSoC4/isr_Timer1ms.c **** *   None
 310:.\Generated_Source\PSoC4/isr_Timer1ms.c **** *
 311:.\Generated_Source\PSoC4/isr_Timer1ms.c **** * Return:
 312:.\Generated_Source\PSoC4/isr_Timer1ms.c **** *   None
 313:.\Generated_Source\PSoC4/isr_Timer1ms.c **** *
 314:.\Generated_Source\PSoC4/isr_Timer1ms.c **** *******************************************************************************/
 315:.\Generated_Source\PSoC4/isr_Timer1ms.c **** void isr_Timer1ms_Enable(void)
 316:.\Generated_Source\PSoC4/isr_Timer1ms.c **** {
 317:.\Generated_Source\PSoC4/isr_Timer1ms.c ****     /* Enable the general interrupt. */
 318:.\Generated_Source\PSoC4/isr_Timer1ms.c ****     *isr_Timer1ms_INTC_SET_EN = isr_Timer1ms__INTC_MASK;
 319:.\Generated_Source\PSoC4/isr_Timer1ms.c **** }
 320:.\Generated_Source\PSoC4/isr_Timer1ms.c **** 
 321:.\Generated_Source\PSoC4/isr_Timer1ms.c **** 
ARM GAS  C:\Users\ADMINI~1\AppData\Local\Temp\ccpBsAgo.s 			page 8


 322:.\Generated_Source\PSoC4/isr_Timer1ms.c **** /*******************************************************************************
 323:.\Generated_Source\PSoC4/isr_Timer1ms.c **** * Function Name: isr_Timer1ms_GetState
 324:.\Generated_Source\PSoC4/isr_Timer1ms.c **** ********************************************************************************
 325:.\Generated_Source\PSoC4/isr_Timer1ms.c **** *
 326:.\Generated_Source\PSoC4/isr_Timer1ms.c **** * Summary:
 327:.\Generated_Source\PSoC4/isr_Timer1ms.c **** *   Gets the state (enabled, disabled) of the Interrupt.
 328:.\Generated_Source\PSoC4/isr_Timer1ms.c **** *
 329:.\Generated_Source\PSoC4/isr_Timer1ms.c **** * Parameters:
 330:.\Generated_Source\PSoC4/isr_Timer1ms.c **** *   None
 331:.\Generated_Source\PSoC4/isr_Timer1ms.c **** *
 332:.\Generated_Source\PSoC4/isr_Timer1ms.c **** * Return:
 333:.\Generated_Source\PSoC4/isr_Timer1ms.c **** *   1 if enabled, 0 if disabled.
 334:.\Generated_Source\PSoC4/isr_Timer1ms.c **** *
 335:.\Generated_Source\PSoC4/isr_Timer1ms.c **** *******************************************************************************/
 336:.\Generated_Source\PSoC4/isr_Timer1ms.c **** uint8 isr_Timer1ms_GetState(void)
 337:.\Generated_Source\PSoC4/isr_Timer1ms.c **** {
 338:.\Generated_Source\PSoC4/isr_Timer1ms.c ****     /* Get the state of the general interrupt. */
 339:.\Generated_Source\PSoC4/isr_Timer1ms.c ****     return ((*isr_Timer1ms_INTC_SET_EN & (uint32)isr_Timer1ms__INTC_MASK) != 0u) ? 1u:0u;
 340:.\Generated_Source\PSoC4/isr_Timer1ms.c **** }
 341:.\Generated_Source\PSoC4/isr_Timer1ms.c **** 
 342:.\Generated_Source\PSoC4/isr_Timer1ms.c **** 
 343:.\Generated_Source\PSoC4/isr_Timer1ms.c **** /*******************************************************************************
 344:.\Generated_Source\PSoC4/isr_Timer1ms.c **** * Function Name: isr_Timer1ms_Disable
 345:.\Generated_Source\PSoC4/isr_Timer1ms.c **** ********************************************************************************
 346:.\Generated_Source\PSoC4/isr_Timer1ms.c **** *
 347:.\Generated_Source\PSoC4/isr_Timer1ms.c **** * Summary:
 348:.\Generated_Source\PSoC4/isr_Timer1ms.c **** *   Disables the Interrupt in the interrupt controller.
 349:.\Generated_Source\PSoC4/isr_Timer1ms.c **** *
 350:.\Generated_Source\PSoC4/isr_Timer1ms.c **** * Parameters:
 351:.\Generated_Source\PSoC4/isr_Timer1ms.c **** *   None
 352:.\Generated_Source\PSoC4/isr_Timer1ms.c **** *
 353:.\Generated_Source\PSoC4/isr_Timer1ms.c **** * Return:
 354:.\Generated_Source\PSoC4/isr_Timer1ms.c **** *   None
 355:.\Generated_Source\PSoC4/isr_Timer1ms.c **** *
 356:.\Generated_Source\PSoC4/isr_Timer1ms.c **** *******************************************************************************/
 357:.\Generated_Source\PSoC4/isr_Timer1ms.c **** void isr_Timer1ms_Disable(void)
 358:.\Generated_Source\PSoC4/isr_Timer1ms.c **** {
 359:.\Generated_Source\PSoC4/isr_Timer1ms.c ****     /* Disable the general interrupt. */
 360:.\Generated_Source\PSoC4/isr_Timer1ms.c ****     *isr_Timer1ms_INTC_CLR_EN = isr_Timer1ms__INTC_MASK;
  78              		.loc 1 360 0
  79 0000 0422     		mov	r2, #4
  80 0002 034B     		ldr	r3, .L12
  81              	.LBE22:
  82              	.LBE21:
 137:.\Generated_Source\PSoC4/isr_Timer1ms.c **** 
  83              		.loc 1 137 0
  84              		@ sp needed
  85              	.LBB24:
  86              	.LBB23:
  87              		.loc 1 360 0
  88 0004 1A60     		str	r2, [r3]
  89              	.LVL0:
  90              	.LBE23:
  91              	.LBE24:
  92              	.LBB25:
  93              	.LBB26:
 212:.\Generated_Source\PSoC4/isr_Timer1ms.c **** }
ARM GAS  C:\Users\ADMINI~1\AppData\Local\Temp\ccpBsAgo.s 			page 9


  94              		.loc 1 212 0
  95 0006 034A     		ldr	r2, .L12+4
  96 0008 034B     		ldr	r3, .L12+8
  97 000a 9A64     		str	r2, [r3, #72]
  98              	.LBE26:
  99              	.LBE25:
 137:.\Generated_Source\PSoC4/isr_Timer1ms.c **** 
 100              		.loc 1 137 0
 101 000c 7047     		bx	lr
 102              	.L13:
 103 000e C046     		.align	2
 104              	.L12:
 105 0010 80E100E0 		.word	-536813184
 106 0014 00000000 		.word	IntDefaultHandler
 107 0018 00000000 		.word	CyRamVectors
 108              		.cfi_endproc
 109              	.LFE39:
 110              		.size	isr_Timer1ms_Stop, .-isr_Timer1ms_Stop
 111              		.section	.text.isr_Timer1ms_SetVector,"ax",%progbits
 112              		.align	1
 113              		.global	isr_Timer1ms_SetVector
 114              		.code	16
 115              		.thumb_func
 116              		.type	isr_Timer1ms_SetVector, %function
 117              	isr_Timer1ms_SetVector:
 118              	.LFB41:
 211:.\Generated_Source\PSoC4/isr_Timer1ms.c ****     CyRamVectors[CYINT_IRQ_BASE + isr_Timer1ms__INTC_NUMBER] = address;
 119              		.loc 1 211 0
 120              		.cfi_startproc
 121              	.LVL1:
 212:.\Generated_Source\PSoC4/isr_Timer1ms.c **** }
 122              		.loc 1 212 0
 123 0000 014B     		ldr	r3, .L15
 213:.\Generated_Source\PSoC4/isr_Timer1ms.c **** 
 124              		.loc 1 213 0
 125              		@ sp needed
 212:.\Generated_Source\PSoC4/isr_Timer1ms.c **** }
 126              		.loc 1 212 0
 127 0002 9864     		str	r0, [r3, #72]
 213:.\Generated_Source\PSoC4/isr_Timer1ms.c **** 
 128              		.loc 1 213 0
 129 0004 7047     		bx	lr
 130              	.L16:
 131 0006 C046     		.align	2
 132              	.L15:
 133 0008 00000000 		.word	CyRamVectors
 134              		.cfi_endproc
 135              	.LFE41:
 136              		.size	isr_Timer1ms_SetVector, .-isr_Timer1ms_SetVector
 137              		.section	.text.isr_Timer1ms_GetVector,"ax",%progbits
 138              		.align	1
 139              		.global	isr_Timer1ms_GetVector
 140              		.code	16
 141              		.thumb_func
 142              		.type	isr_Timer1ms_GetVector, %function
 143              	isr_Timer1ms_GetVector:
 144              	.LFB42:
ARM GAS  C:\Users\ADMINI~1\AppData\Local\Temp\ccpBsAgo.s 			page 10


 231:.\Generated_Source\PSoC4/isr_Timer1ms.c ****     return CyRamVectors[CYINT_IRQ_BASE + isr_Timer1ms__INTC_NUMBER];
 145              		.loc 1 231 0
 146              		.cfi_startproc
 232:.\Generated_Source\PSoC4/isr_Timer1ms.c **** }
 147              		.loc 1 232 0
 148 0000 014B     		ldr	r3, .L18
 233:.\Generated_Source\PSoC4/isr_Timer1ms.c **** 
 149              		.loc 1 233 0
 150              		@ sp needed
 232:.\Generated_Source\PSoC4/isr_Timer1ms.c **** }
 151              		.loc 1 232 0
 152 0002 986C     		ldr	r0, [r3, #72]
 233:.\Generated_Source\PSoC4/isr_Timer1ms.c **** 
 153              		.loc 1 233 0
 154 0004 7047     		bx	lr
 155              	.L19:
 156 0006 C046     		.align	2
 157              	.L18:
 158 0008 00000000 		.word	CyRamVectors
 159              		.cfi_endproc
 160              	.LFE42:
 161              		.size	isr_Timer1ms_GetVector, .-isr_Timer1ms_GetVector
 162              		.section	.text.isr_Timer1ms_SetPriority,"ax",%progbits
 163              		.align	1
 164              		.global	isr_Timer1ms_SetPriority
 165              		.code	16
 166              		.thumb_func
 167              		.type	isr_Timer1ms_SetPriority, %function
 168              	isr_Timer1ms_SetPriority:
 169              	.LFB43:
 261:.\Generated_Source\PSoC4/isr_Timer1ms.c **** 	uint8 interruptState;
 170              		.loc 1 261 0
 171              		.cfi_startproc
 172              	.LVL2:
 173 0000 10B5     		push	{r4, lr}
 174              		.cfi_def_cfa_offset 8
 175              		.cfi_offset 4, -8
 176              		.cfi_offset 14, -4
 261:.\Generated_Source\PSoC4/isr_Timer1ms.c **** 	uint8 interruptState;
 177              		.loc 1 261 0
 178 0002 041C     		mov	r4, r0
 265:.\Generated_Source\PSoC4/isr_Timer1ms.c ****     *isr_Timer1ms_INTC_PRIOR = (*isr_Timer1ms_INTC_PRIOR & (uint32)(~isr_Timer1ms__INTC_PRIOR_MASK)
 179              		.loc 1 265 0
 180 0004 FFF7FEFF 		bl	CyEnterCriticalSection
 181              	.LVL3:
 266:.\Generated_Source\PSoC4/isr_Timer1ms.c ****                                     ((uint32)priority << priorityOffset);
 182              		.loc 1 266 0
 183 0008 0449     		ldr	r1, .L21
 184 000a 054A     		ldr	r2, .L21+4
 185 000c 0B68     		ldr	r3, [r1]
 267:.\Generated_Source\PSoC4/isr_Timer1ms.c **** 	CyExitCriticalSection(interruptState);
 186              		.loc 1 267 0
 187 000e A405     		lsl	r4, r4, #22
 266:.\Generated_Source\PSoC4/isr_Timer1ms.c ****                                     ((uint32)priority << priorityOffset);
 188              		.loc 1 266 0
 189 0010 1340     		and	r3, r2
 190 0012 2343     		orr	r3, r4
ARM GAS  C:\Users\ADMINI~1\AppData\Local\Temp\ccpBsAgo.s 			page 11


 191 0014 0B60     		str	r3, [r1]
 268:.\Generated_Source\PSoC4/isr_Timer1ms.c **** }
 192              		.loc 1 268 0
 193 0016 FFF7FEFF 		bl	CyExitCriticalSection
 194              	.LVL4:
 269:.\Generated_Source\PSoC4/isr_Timer1ms.c **** 
 195              		.loc 1 269 0
 196              		@ sp needed
 197 001a 10BD     		pop	{r4, pc}
 198              	.L22:
 199              		.align	2
 200              	.L21:
 201 001c 00E400E0 		.word	-536812544
 202 0020 FFFF3FFF 		.word	-12582913
 203              		.cfi_endproc
 204              	.LFE43:
 205              		.size	isr_Timer1ms_SetPriority, .-isr_Timer1ms_SetPriority
 206              		.section	.text.isr_Timer1ms_Start,"ax",%progbits
 207              		.align	1
 208              		.global	isr_Timer1ms_Start
 209              		.code	16
 210              		.thumb_func
 211              		.type	isr_Timer1ms_Start, %function
 212              	isr_Timer1ms_Start:
 213              	.LFB37:
  58:.\Generated_Source\PSoC4/isr_Timer1ms.c ****     /* For all we know the interrupt is active. */
 214              		.loc 1 58 0
 215              		.cfi_startproc
 216 0000 10B5     		push	{r4, lr}
 217              		.cfi_def_cfa_offset 8
 218              		.cfi_offset 4, -8
 219              		.cfi_offset 14, -4
 220              	.LBB27:
 221              	.LBB28:
 222              		.loc 1 360 0
 223 0002 0424     		mov	r4, #4
 224 0004 054B     		ldr	r3, .L24
 225              	.LBE28:
 226              	.LBE27:
 227              	.LBB30:
 228              	.LBB31:
 212:.\Generated_Source\PSoC4/isr_Timer1ms.c **** }
 229              		.loc 1 212 0
 230 0006 064A     		ldr	r2, .L24+4
 231              	.LBE31:
 232              	.LBE30:
 233              	.LBB34:
 234              	.LBB29:
 235              		.loc 1 360 0
 236 0008 1C60     		str	r4, [r3]
 237              	.LVL5:
 238              	.LBE29:
 239              	.LBE34:
 240              	.LBB35:
 241              	.LBB32:
 212:.\Generated_Source\PSoC4/isr_Timer1ms.c **** }
 242              		.loc 1 212 0
ARM GAS  C:\Users\ADMINI~1\AppData\Local\Temp\ccpBsAgo.s 			page 12


 243 000a 064B     		ldr	r3, .L24+8
 244              	.LBE32:
 245              	.LBE35:
  66:.\Generated_Source\PSoC4/isr_Timer1ms.c **** 
 246              		.loc 1 66 0
 247 000c 0320     		mov	r0, #3
 248              	.LBB36:
 249              	.LBB33:
 212:.\Generated_Source\PSoC4/isr_Timer1ms.c **** }
 250              		.loc 1 212 0
 251 000e 9A64     		str	r2, [r3, #72]
 252              	.LBE33:
 253              	.LBE36:
  66:.\Generated_Source\PSoC4/isr_Timer1ms.c **** 
 254              		.loc 1 66 0
 255 0010 FFF7FEFF 		bl	isr_Timer1ms_SetPriority
 256              	.LVL6:
 257              	.LBB37:
 258              	.LBB38:
 318:.\Generated_Source\PSoC4/isr_Timer1ms.c **** }
 259              		.loc 1 318 0
 260 0014 044B     		ldr	r3, .L24+12
 261              	.LBE38:
 262              	.LBE37:
  70:.\Generated_Source\PSoC4/isr_Timer1ms.c **** 
 263              		.loc 1 70 0
 264              		@ sp needed
 265              	.LBB40:
 266              	.LBB39:
 318:.\Generated_Source\PSoC4/isr_Timer1ms.c **** }
 267              		.loc 1 318 0
 268 0016 1C60     		str	r4, [r3]
 269              	.LBE39:
 270              	.LBE40:
  70:.\Generated_Source\PSoC4/isr_Timer1ms.c **** 
 271              		.loc 1 70 0
 272 0018 10BD     		pop	{r4, pc}
 273              	.L25:
 274 001a C046     		.align	2
 275              	.L24:
 276 001c 80E100E0 		.word	-536813184
 277 0020 00000000 		.word	isr_Timer1ms_Interrupt
 278 0024 00000000 		.word	CyRamVectors
 279 0028 00E100E0 		.word	-536813312
 280              		.cfi_endproc
 281              	.LFE37:
 282              		.size	isr_Timer1ms_Start, .-isr_Timer1ms_Start
 283              		.section	.text.isr_Timer1ms_StartEx,"ax",%progbits
 284              		.align	1
 285              		.global	isr_Timer1ms_StartEx
 286              		.code	16
 287              		.thumb_func
 288              		.type	isr_Timer1ms_StartEx, %function
 289              	isr_Timer1ms_StartEx:
 290              	.LFB38:
 101:.\Generated_Source\PSoC4/isr_Timer1ms.c ****     /* For all we know the interrupt is active. */
 291              		.loc 1 101 0
ARM GAS  C:\Users\ADMINI~1\AppData\Local\Temp\ccpBsAgo.s 			page 13


 292              		.cfi_startproc
 293              	.LVL7:
 294 0000 10B5     		push	{r4, lr}
 295              		.cfi_def_cfa_offset 8
 296              		.cfi_offset 4, -8
 297              		.cfi_offset 14, -4
 298              	.LBB41:
 299              	.LBB42:
 300              		.loc 1 360 0
 301 0002 0424     		mov	r4, #4
 302 0004 044B     		ldr	r3, .L27
 303              	.LBE42:
 304              	.LBE41:
 113:.\Generated_Source\PSoC4/isr_Timer1ms.c **** 
 305              		.loc 1 113 0
 306              		@ sp needed
 307              	.LBB44:
 308              	.LBB43:
 309              		.loc 1 360 0
 310 0006 1C60     		str	r4, [r3]
 311              	.LVL8:
 312              	.LBE43:
 313              	.LBE44:
 314              	.LBB45:
 315              	.LBB46:
 212:.\Generated_Source\PSoC4/isr_Timer1ms.c **** }
 316              		.loc 1 212 0
 317 0008 044B     		ldr	r3, .L27+4
 318 000a 9864     		str	r0, [r3, #72]
 319              	.LBE46:
 320              	.LBE45:
 109:.\Generated_Source\PSoC4/isr_Timer1ms.c **** 
 321              		.loc 1 109 0
 322 000c 0320     		mov	r0, #3
 323              	.LVL9:
 324 000e FFF7FEFF 		bl	isr_Timer1ms_SetPriority
 325              	.LVL10:
 326              	.LBB47:
 327              	.LBB48:
 318:.\Generated_Source\PSoC4/isr_Timer1ms.c **** }
 328              		.loc 1 318 0
 329 0012 034B     		ldr	r3, .L27+8
 330 0014 1C60     		str	r4, [r3]
 331              	.LBE48:
 332              	.LBE47:
 113:.\Generated_Source\PSoC4/isr_Timer1ms.c **** 
 333              		.loc 1 113 0
 334 0016 10BD     		pop	{r4, pc}
 335              	.L28:
 336              		.align	2
 337              	.L27:
 338 0018 80E100E0 		.word	-536813184
 339 001c 00000000 		.word	CyRamVectors
 340 0020 00E100E0 		.word	-536813312
 341              		.cfi_endproc
 342              	.LFE38:
 343              		.size	isr_Timer1ms_StartEx, .-isr_Timer1ms_StartEx
ARM GAS  C:\Users\ADMINI~1\AppData\Local\Temp\ccpBsAgo.s 			page 14


 344              		.section	.text.isr_Timer1ms_GetPriority,"ax",%progbits
 345              		.align	1
 346              		.global	isr_Timer1ms_GetPriority
 347              		.code	16
 348              		.thumb_func
 349              		.type	isr_Timer1ms_GetPriority, %function
 350              	isr_Timer1ms_GetPriority:
 351              	.LFB44:
 289:.\Generated_Source\PSoC4/isr_Timer1ms.c ****     uint32 priority;
 352              		.loc 1 289 0
 353              		.cfi_startproc
 354              	.LVL11:
 293:.\Generated_Source\PSoC4/isr_Timer1ms.c **** 
 355              		.loc 1 293 0
 356 0000 024B     		ldr	r3, .L30
 296:.\Generated_Source\PSoC4/isr_Timer1ms.c **** 
 357              		.loc 1 296 0
 358              		@ sp needed
 293:.\Generated_Source\PSoC4/isr_Timer1ms.c **** 
 359              		.loc 1 293 0
 360 0002 1868     		ldr	r0, [r3]
 361              	.LVL12:
 362 0004 0002     		lsl	r0, r0, #8
 363              	.LVL13:
 295:.\Generated_Source\PSoC4/isr_Timer1ms.c **** }
 364              		.loc 1 295 0
 365 0006 800F     		lsr	r0, r0, #30
 296:.\Generated_Source\PSoC4/isr_Timer1ms.c **** 
 366              		.loc 1 296 0
 367 0008 7047     		bx	lr
 368              	.L31:
 369 000a C046     		.align	2
 370              	.L30:
 371 000c 00E400E0 		.word	-536812544
 372              		.cfi_endproc
 373              	.LFE44:
 374              		.size	isr_Timer1ms_GetPriority, .-isr_Timer1ms_GetPriority
 375              		.section	.text.isr_Timer1ms_Enable,"ax",%progbits
 376              		.align	1
 377              		.global	isr_Timer1ms_Enable
 378              		.code	16
 379              		.thumb_func
 380              		.type	isr_Timer1ms_Enable, %function
 381              	isr_Timer1ms_Enable:
 382              	.LFB45:
 316:.\Generated_Source\PSoC4/isr_Timer1ms.c ****     /* Enable the general interrupt. */
 383              		.loc 1 316 0
 384              		.cfi_startproc
 318:.\Generated_Source\PSoC4/isr_Timer1ms.c **** }
 385              		.loc 1 318 0
 386 0000 0422     		mov	r2, #4
 387 0002 014B     		ldr	r3, .L33
 319:.\Generated_Source\PSoC4/isr_Timer1ms.c **** 
 388              		.loc 1 319 0
 389              		@ sp needed
 318:.\Generated_Source\PSoC4/isr_Timer1ms.c **** }
 390              		.loc 1 318 0
ARM GAS  C:\Users\ADMINI~1\AppData\Local\Temp\ccpBsAgo.s 			page 15


 391 0004 1A60     		str	r2, [r3]
 319:.\Generated_Source\PSoC4/isr_Timer1ms.c **** 
 392              		.loc 1 319 0
 393 0006 7047     		bx	lr
 394              	.L34:
 395              		.align	2
 396              	.L33:
 397 0008 00E100E0 		.word	-536813312
 398              		.cfi_endproc
 399              	.LFE45:
 400              		.size	isr_Timer1ms_Enable, .-isr_Timer1ms_Enable
 401              		.section	.text.isr_Timer1ms_GetState,"ax",%progbits
 402              		.align	1
 403              		.global	isr_Timer1ms_GetState
 404              		.code	16
 405              		.thumb_func
 406              		.type	isr_Timer1ms_GetState, %function
 407              	isr_Timer1ms_GetState:
 408              	.LFB46:
 337:.\Generated_Source\PSoC4/isr_Timer1ms.c ****     /* Get the state of the general interrupt. */
 409              		.loc 1 337 0
 410              		.cfi_startproc
 339:.\Generated_Source\PSoC4/isr_Timer1ms.c **** }
 411              		.loc 1 339 0
 412 0000 024B     		ldr	r3, .L36
 340:.\Generated_Source\PSoC4/isr_Timer1ms.c **** 
 413              		.loc 1 340 0
 414              		@ sp needed
 339:.\Generated_Source\PSoC4/isr_Timer1ms.c **** }
 415              		.loc 1 339 0
 416 0002 1868     		ldr	r0, [r3]
 417 0004 4007     		lsl	r0, r0, #29
 418 0006 C00F     		lsr	r0, r0, #31
 340:.\Generated_Source\PSoC4/isr_Timer1ms.c **** 
 419              		.loc 1 340 0
 420 0008 7047     		bx	lr
 421              	.L37:
 422 000a C046     		.align	2
 423              	.L36:
 424 000c 00E100E0 		.word	-536813312
 425              		.cfi_endproc
 426              	.LFE46:
 427              		.size	isr_Timer1ms_GetState, .-isr_Timer1ms_GetState
 428              		.section	.text.isr_Timer1ms_Disable,"ax",%progbits
 429              		.align	1
 430              		.global	isr_Timer1ms_Disable
 431              		.code	16
 432              		.thumb_func
 433              		.type	isr_Timer1ms_Disable, %function
 434              	isr_Timer1ms_Disable:
 435              	.LFB47:
 358:.\Generated_Source\PSoC4/isr_Timer1ms.c ****     /* Disable the general interrupt. */
 436              		.loc 1 358 0
 437              		.cfi_startproc
 438              		.loc 1 360 0
 439 0000 0422     		mov	r2, #4
 440 0002 014B     		ldr	r3, .L39
ARM GAS  C:\Users\ADMINI~1\AppData\Local\Temp\ccpBsAgo.s 			page 16


 361:.\Generated_Source\PSoC4/isr_Timer1ms.c **** }
 441              		.loc 1 361 0
 442              		@ sp needed
 360:.\Generated_Source\PSoC4/isr_Timer1ms.c **** }
 443              		.loc 1 360 0
 444 0004 1A60     		str	r2, [r3]
 445              		.loc 1 361 0
 446 0006 7047     		bx	lr
 447              	.L40:
 448              		.align	2
 449              	.L39:
 450 0008 80E100E0 		.word	-536813184
 451              		.cfi_endproc
 452              	.LFE47:
 453              		.size	isr_Timer1ms_Disable, .-isr_Timer1ms_Disable
 454              		.section	.text.isr_Timer1ms_SetPending,"ax",%progbits
 455              		.align	1
 456              		.global	isr_Timer1ms_SetPending
 457              		.code	16
 458              		.thumb_func
 459              		.type	isr_Timer1ms_SetPending, %function
 460              	isr_Timer1ms_SetPending:
 461              	.LFB48:
 362:.\Generated_Source\PSoC4/isr_Timer1ms.c **** 
 363:.\Generated_Source\PSoC4/isr_Timer1ms.c **** 
 364:.\Generated_Source\PSoC4/isr_Timer1ms.c **** /*******************************************************************************
 365:.\Generated_Source\PSoC4/isr_Timer1ms.c **** * Function Name: isr_Timer1ms_SetPending
 366:.\Generated_Source\PSoC4/isr_Timer1ms.c **** ********************************************************************************
 367:.\Generated_Source\PSoC4/isr_Timer1ms.c **** *
 368:.\Generated_Source\PSoC4/isr_Timer1ms.c **** * Summary:
 369:.\Generated_Source\PSoC4/isr_Timer1ms.c **** *   Causes the Interrupt to enter the pending state, a software method of
 370:.\Generated_Source\PSoC4/isr_Timer1ms.c **** *   generating the interrupt.
 371:.\Generated_Source\PSoC4/isr_Timer1ms.c **** *
 372:.\Generated_Source\PSoC4/isr_Timer1ms.c **** * Parameters:
 373:.\Generated_Source\PSoC4/isr_Timer1ms.c **** *   None
 374:.\Generated_Source\PSoC4/isr_Timer1ms.c **** *
 375:.\Generated_Source\PSoC4/isr_Timer1ms.c **** * Return:
 376:.\Generated_Source\PSoC4/isr_Timer1ms.c **** *   None
 377:.\Generated_Source\PSoC4/isr_Timer1ms.c **** *
 378:.\Generated_Source\PSoC4/isr_Timer1ms.c **** * Side Effects:
 379:.\Generated_Source\PSoC4/isr_Timer1ms.c **** *   If interrupts are enabled and the interrupt is set up properly, the ISR is
 380:.\Generated_Source\PSoC4/isr_Timer1ms.c **** *   entered (depending on the priority of this interrupt and other pending 
 381:.\Generated_Source\PSoC4/isr_Timer1ms.c **** *   interrupts).
 382:.\Generated_Source\PSoC4/isr_Timer1ms.c **** *
 383:.\Generated_Source\PSoC4/isr_Timer1ms.c **** *******************************************************************************/
 384:.\Generated_Source\PSoC4/isr_Timer1ms.c **** void isr_Timer1ms_SetPending(void)
 385:.\Generated_Source\PSoC4/isr_Timer1ms.c **** {
 462              		.loc 1 385 0
 463              		.cfi_startproc
 386:.\Generated_Source\PSoC4/isr_Timer1ms.c ****     *isr_Timer1ms_INTC_SET_PD = isr_Timer1ms__INTC_MASK;
 464              		.loc 1 386 0
 465 0000 0422     		mov	r2, #4
 466 0002 014B     		ldr	r3, .L42
 387:.\Generated_Source\PSoC4/isr_Timer1ms.c **** }
 467              		.loc 1 387 0
 468              		@ sp needed
 386:.\Generated_Source\PSoC4/isr_Timer1ms.c ****     *isr_Timer1ms_INTC_SET_PD = isr_Timer1ms__INTC_MASK;
ARM GAS  C:\Users\ADMINI~1\AppData\Local\Temp\ccpBsAgo.s 			page 17


 469              		.loc 1 386 0
 470 0004 1A60     		str	r2, [r3]
 471              		.loc 1 387 0
 472 0006 7047     		bx	lr
 473              	.L43:
 474              		.align	2
 475              	.L42:
 476 0008 00E200E0 		.word	-536813056
 477              		.cfi_endproc
 478              	.LFE48:
 479              		.size	isr_Timer1ms_SetPending, .-isr_Timer1ms_SetPending
 480              		.section	.text.isr_Timer1ms_ClearPending,"ax",%progbits
 481              		.align	1
 482              		.global	isr_Timer1ms_ClearPending
 483              		.code	16
 484              		.thumb_func
 485              		.type	isr_Timer1ms_ClearPending, %function
 486              	isr_Timer1ms_ClearPending:
 487              	.LFB49:
 388:.\Generated_Source\PSoC4/isr_Timer1ms.c **** 
 389:.\Generated_Source\PSoC4/isr_Timer1ms.c **** 
 390:.\Generated_Source\PSoC4/isr_Timer1ms.c **** /*******************************************************************************
 391:.\Generated_Source\PSoC4/isr_Timer1ms.c **** * Function Name: isr_Timer1ms_ClearPending
 392:.\Generated_Source\PSoC4/isr_Timer1ms.c **** ********************************************************************************
 393:.\Generated_Source\PSoC4/isr_Timer1ms.c **** *
 394:.\Generated_Source\PSoC4/isr_Timer1ms.c **** * Summary:
 395:.\Generated_Source\PSoC4/isr_Timer1ms.c **** *   Clears a pending interrupt in the interrupt controller.
 396:.\Generated_Source\PSoC4/isr_Timer1ms.c **** *
 397:.\Generated_Source\PSoC4/isr_Timer1ms.c **** *   Note Some interrupt sources are clear-on-read and require the block 
 398:.\Generated_Source\PSoC4/isr_Timer1ms.c **** *   interrupt/status register to be read/cleared with the appropriate block API 
 399:.\Generated_Source\PSoC4/isr_Timer1ms.c **** *   (GPIO, UART, and so on). Otherwise the ISR will continue to remain in 
 400:.\Generated_Source\PSoC4/isr_Timer1ms.c **** *   pending state even though the interrupt itself is cleared using this API.
 401:.\Generated_Source\PSoC4/isr_Timer1ms.c **** *
 402:.\Generated_Source\PSoC4/isr_Timer1ms.c **** * Parameters:
 403:.\Generated_Source\PSoC4/isr_Timer1ms.c **** *   None
 404:.\Generated_Source\PSoC4/isr_Timer1ms.c **** *
 405:.\Generated_Source\PSoC4/isr_Timer1ms.c **** * Return:
 406:.\Generated_Source\PSoC4/isr_Timer1ms.c **** *   None
 407:.\Generated_Source\PSoC4/isr_Timer1ms.c **** *
 408:.\Generated_Source\PSoC4/isr_Timer1ms.c **** *******************************************************************************/
 409:.\Generated_Source\PSoC4/isr_Timer1ms.c **** void isr_Timer1ms_ClearPending(void)
 410:.\Generated_Source\PSoC4/isr_Timer1ms.c **** {
 488              		.loc 1 410 0
 489              		.cfi_startproc
 411:.\Generated_Source\PSoC4/isr_Timer1ms.c ****     *isr_Timer1ms_INTC_CLR_PD = isr_Timer1ms__INTC_MASK;
 490              		.loc 1 411 0
 491 0000 0422     		mov	r2, #4
 492 0002 014B     		ldr	r3, .L45
 412:.\Generated_Source\PSoC4/isr_Timer1ms.c **** }
 493              		.loc 1 412 0
 494              		@ sp needed
 411:.\Generated_Source\PSoC4/isr_Timer1ms.c ****     *isr_Timer1ms_INTC_CLR_PD = isr_Timer1ms__INTC_MASK;
 495              		.loc 1 411 0
 496 0004 1A60     		str	r2, [r3]
 497              		.loc 1 412 0
 498 0006 7047     		bx	lr
 499              	.L46:
ARM GAS  C:\Users\ADMINI~1\AppData\Local\Temp\ccpBsAgo.s 			page 18


 500              		.align	2
 501              	.L45:
 502 0008 80E200E0 		.word	-536812928
 503              		.cfi_endproc
 504              	.LFE49:
 505              		.size	isr_Timer1ms_ClearPending, .-isr_Timer1ms_ClearPending
 506              		.text
 507              	.Letext0:
 508              		.file 2 "Generated_Source\\PSoC4/cytypes.h"
 509              		.file 3 "./timeout.h"
 510              		.file 4 "Generated_Source\\PSoC4/CyLib.h"