ARM GAS  C:\Users\ADMINI~1\AppData\Local\Temp\cctc3Ik5.s 			page 1


   1              		.cpu cortex-m0
   2              		.fpu softvfp
   3              		.eabi_attribute 20, 1
   4              		.eabi_attribute 21, 1
   5              		.eabi_attribute 23, 3
   6              		.eabi_attribute 24, 1
   7              		.eabi_attribute 25, 1
   8              		.eabi_attribute 26, 1
   9              		.eabi_attribute 30, 4
  10              		.eabi_attribute 34, 0
  11              		.eabi_attribute 18, 4
  12              		.code	16
  13              		.file	"main.c"
  14              		.text
  15              	.Ltext0:
  16              		.cfi_sections	.debug_frame
  17              		.section	.text.startup.main,"ax",%progbits
  18              		.align	1
  19              		.global	main
  20              		.code	16
  21              		.thumb_func
  22              		.type	main, %function
  23              	main:
  24              	.LFB42:
  25              		.file 1 ".\\main.c"
   1:.\main.c      **** /*******************************************************************************
   2:.\main.c      **** * File Name: main.c
   3:.\main.c      **** *
   4:.\main.c      **** * Version: 1.0
   5:.\main.c      **** *
   6:.\main.c      **** * Description:
   7:.\main.c      **** *  BLE example project that measures the battery voltage using PSoC 4 BLE's 
   8:.\main.c      **** *  internal ADC and notifies the BLE central device on any change in battery 
   9:.\main.c      **** *  voltage.
  10:.\main.c      **** *
  11:.\main.c      **** * Note:
  12:.\main.c      **** *
  13:.\main.c      **** * Hardware Dependency:
  14:.\main.c      **** *  CY8CKIT-042 BLE
  15:.\main.c      **** * 
  16:.\main.c      **** ********************************************************************************
  17:.\main.c      **** * Copyright 2015, Cypress Semiconductor Corporation.  All rights reserved.
  18:.\main.c      **** * You may use this file only in accordance with the license, terms, conditions,
  19:.\main.c      **** * disclaimers, and limitations in the end user license agreement accompanying
  20:.\main.c      **** * the software package with which this file was provided.
  21:.\main.c      **** *******************************************************************************/
  22:.\main.c      **** 
  23:.\main.c      **** #include "common.h"
  24:.\main.c      **** #include "bas.h"
  25:.\main.c      **** #include "inv.h"
  26:.\main.c      **** #include <timeout.h>
  27:.\main.c      **** #include <main.h>
  28:.\main.c      **** #include <BleApplications.h>
  29:.\main.c      **** #include <OTAMandatory.h>
  30:.\main.c      **** 
  31:.\main.c      **** extern void InitializeBootloaderSRAM();
  32:.\main.c      **** 
ARM GAS  C:\Users\ADMINI~1\AppData\Local\Temp\cctc3Ik5.s 			page 2


  33:.\main.c      **** uint8 BLEWriteData[4];
  34:.\main.c      **** uint8 BLEReadData[4];
  35:.\main.c      **** uint8 MotorFlag = 0;
  36:.\main.c      **** uint16 MotorPWMDutyCycle = 0;
  37:.\main.c      **** 
  38:.\main.c      **** uint8 VersionString[4] = {HW_MAJOR_VERSION, HW_MINOR_VERSION, FW_MAJOR_VERSION, FW_MINOR_VERSION};
  39:.\main.c      **** 
  40:.\main.c      **** extern uint8 deviceConnected;
  41:.\main.c      **** extern uint8 restartAdvertisement;
  42:.\main.c      **** 
  43:.\main.c      **** 
  44:.\main.c      **** /*******************************************************************************
  45:.\main.c      **** * Function Name: AppCallBack()
  46:.\main.c      **** ********************************************************************************
  47:.\main.c      **** *
  48:.\main.c      **** * Summary:
  49:.\main.c      **** *   This is an event callback function to receive events from the BLE Component.
  50:.\main.c      **** *
  51:.\main.c      **** * Parameters:
  52:.\main.c      **** *  event - event code
  53:.\main.c      **** *  eventParam - event parameters
  54:.\main.c      **** *
  55:.\main.c      **** *******************************************************************************/
  56:.\main.c      **** //void AppCallBack(uint32 event, void* eventParam)
  57:.\main.c      **** //{
  58:.\main.c      **** //    CYBLE_API_RESULT_T apiResult;
  59:.\main.c      **** //    CYBLE_GAP_BD_ADDR_T localAddr;
  60:.\main.c      **** //    uint8 i;
  61:.\main.c      **** //
  62:.\main.c      **** //	/* Structure to store data written by Client */	
  63:.\main.c      **** //	CYBLE_GATTS_WRITE_REQ_PARAM_T *wrReqParam;
  64:.\main.c      **** //    
  65:.\main.c      **** //    #if (DEBUG_UART_ENABLED == YES)
  66:.\main.c      **** //        CYBLE_GAP_AUTH_INFO_T *authInfo;
  67:.\main.c      **** //    #endif /* (DEBUG_UART_ENABLED == YES) */
  68:.\main.c      **** //    
  69:.\main.c      **** //    switch (event)
  70:.\main.c      **** //    {
  71:.\main.c      **** //        /**********************************************************
  72:.\main.c      **** //        *                       General Events
  73:.\main.c      **** //        ***********************************************************/
  74:.\main.c      **** //        /* This event is received when the component is Started */
  75:.\main.c      **** //        case CYBLE_EVT_STACK_ON: 
  76:.\main.c      **** //            /* Enter into discoverable mode so that remote can search it. */
  77:.\main.c      **** //            apiResult = CyBle_GappStartAdvertisement(CYBLE_ADVERTISING_FAST);
  78:.\main.c      **** //            if(apiResult != CYBLE_ERROR_OK)
  79:.\main.c      **** //            {
  80:.\main.c      **** //                DBG_PRINTF("StartAdvertisement API Error: %d \r\n", apiResult);
  81:.\main.c      **** //            }
  82:.\main.c      **** //            DBG_PRINTF("Bluetooth On, StartAdvertisement with addr: ");
  83:.\main.c      **** //            localAddr.type = 0u;
  84:.\main.c      **** //            CyBle_GetDeviceAddress(&localAddr);
  85:.\main.c      **** //            for(i = CYBLE_GAP_BD_ADDR_SIZE; i > 0u; i--)
  86:.\main.c      **** //            {
  87:.\main.c      **** //                DBG_PRINTF("%2.2x", localAddr.bdAddr[i-1]);
  88:.\main.c      **** //            }
  89:.\main.c      **** //            DBG_PRINTF("\r\n");
ARM GAS  C:\Users\ADMINI~1\AppData\Local\Temp\cctc3Ik5.s 			page 3


  90:.\main.c      **** //            break;
  91:.\main.c      **** //        case CYBLE_EVT_TIMEOUT: 
  92:.\main.c      **** //            break;
  93:.\main.c      **** //        /* This event indicates that some internal HW error has occurred. */
  94:.\main.c      **** //        case CYBLE_EVT_HARDWARE_ERROR:
  95:.\main.c      **** //            DBG_PRINTF("CYBLE_EVT_HARDWARE_ERROR \r\n");
  96:.\main.c      **** //            break;
  97:.\main.c      **** //            
  98:.\main.c      **** //        /* This event will be triggered by host stack if BLE stack is busy or not busy.
  99:.\main.c      **** //         *  Parameter corresponding to this event will be the state of BLE stack.
 100:.\main.c      **** //         *  BLE stack busy = CYBLE_STACK_STATE_BUSY,
 101:.\main.c      **** //         *  BLE stack not busy = CYBLE_STACK_STATE_FREE 
 102:.\main.c      **** //         */
 103:.\main.c      **** //        case CYBLE_EVT_STACK_BUSY_STATUS:
 104:.\main.c      **** //            DBG_PRINTF("EVT_STACK_BUSY_STATUS: %x\r\n", *(uint8 *)eventParam);
 105:.\main.c      **** //            break;
 106:.\main.c      **** //        case CYBLE_EVT_HCI_STATUS:
 107:.\main.c      **** //            DBG_PRINTF("EVT_HCI_STATUS: %x \r\n", *(uint8 *)eventParam);
 108:.\main.c      **** //            break;
 109:.\main.c      **** //            
 110:.\main.c      **** //        /**********************************************************
 111:.\main.c      **** //        *                       GAP Events
 112:.\main.c      **** //        ***********************************************************/
 113:.\main.c      **** //        case CYBLE_EVT_GAP_AUTH_REQ:
 114:.\main.c      **** //            DBG_PRINTF("EVT_AUTH_REQ: security=%x, bonding=%x, ekeySize=%x, err=%x \r\n", 
 115:.\main.c      **** //                (*(CYBLE_GAP_AUTH_INFO_T *)eventParam).security, 
 116:.\main.c      **** //                (*(CYBLE_GAP_AUTH_INFO_T *)eventParam).bonding, 
 117:.\main.c      **** //                (*(CYBLE_GAP_AUTH_INFO_T *)eventParam).ekeySize, 
 118:.\main.c      **** //                (*(CYBLE_GAP_AUTH_INFO_T *)eventParam).authErr);
 119:.\main.c      **** //            break;
 120:.\main.c      **** //        case CYBLE_EVT_GAP_PASSKEY_ENTRY_REQUEST:
 121:.\main.c      **** //            DBG_PRINTF("EVT_PASSKEY_ENTRY_REQUEST press 'p' to enter passkey \r\n");
 122:.\main.c      **** //            break;
 123:.\main.c      **** //        case CYBLE_EVT_GAP_PASSKEY_DISPLAY_REQUEST:
 124:.\main.c      **** //            DBG_PRINTF("EVT_PASSKEY_DISPLAY_REQUEST %6.6ld \r\n", *(uint32 *)eventParam);
 125:.\main.c      **** //            break;
 126:.\main.c      **** //        case CYBLE_EVT_GAP_KEYINFO_EXCHNGE_CMPLT:
 127:.\main.c      **** //            DBG_PRINTF("EVT_GAP_KEYINFO_EXCHNGE_CMPLT \r\n");
 128:.\main.c      **** //            break;
 129:.\main.c      **** //        case CYBLE_EVT_GAP_AUTH_COMPLETE:
 130:.\main.c      **** //            #if (DEBUG_UART_ENABLED == YES)
 131:.\main.c      **** //            authInfo = (CYBLE_GAP_AUTH_INFO_T *)eventParam;
 132:.\main.c      **** //            DBG_PRINTF("AUTH_COMPLETE: security:%x, bonding:%x, ekeySize:%x, authErr %x \r\n", 
 133:.\main.c      **** //                                    authInfo->security, authInfo->bonding, authInfo->ekeySize, au
 134:.\main.c      **** //            #endif /* (DEBUG_UART_ENABLED == YES) */
 135:.\main.c      **** //            break;
 136:.\main.c      **** //        case CYBLE_EVT_GAP_AUTH_FAILED:
 137:.\main.c      **** //            DBG_PRINTF("EVT_AUTH_FAILED: %x \r\n", *(uint8 *)eventParam);
 138:.\main.c      **** //            break;
 139:.\main.c      **** //        case CYBLE_EVT_GAPP_ADVERTISEMENT_START_STOP:
 140:.\main.c      **** //            DBG_PRINTF("EVT_ADVERTISING, state: %x \r\n", CyBle_GetState());
 141:.\main.c      **** //            if(CYBLE_STATE_DISCONNECTED == CyBle_GetState())
 142:.\main.c      **** //            {   
 143:.\main.c      **** //                /* Fast and slow advertising period complete, go to low power  
 144:.\main.c      **** //                 * mode (Hibernate mode) and wait for an external
 145:.\main.c      **** //                 * user event to wake up the device again */
 146:.\main.c      **** //                DBG_PRINTF("Hibernate \r\n");
ARM GAS  C:\Users\ADMINI~1\AppData\Local\Temp\cctc3Ik5.s 			page 4


 147:.\main.c      **** //            }
 148:.\main.c      **** //            break;
 149:.\main.c      **** //        case CYBLE_EVT_GAP_DEVICE_CONNECTED:
 150:.\main.c      **** //            DBG_PRINTF("EVT_GAP_DEVICE_CONNECTED \r\n");
 151:.\main.c      **** //            break;
 152:.\main.c      **** //        case CYBLE_EVT_GAP_DEVICE_DISCONNECTED:
 153:.\main.c      **** //            DBG_PRINTF("EVT_GAP_DEVICE_DISCONNECTED\r\n");
 154:.\main.c      **** //            apiResult = CyBle_GappStartAdvertisement(CYBLE_ADVERTISING_FAST);
 155:.\main.c      **** //            if(apiResult != CYBLE_ERROR_OK)
 156:.\main.c      **** //            {
 157:.\main.c      **** //                DBG_PRINTF("StartAdvertisement API Error: %d \r\n", apiResult);
 158:.\main.c      **** //            }
 159:.\main.c      **** //            break;
 160:.\main.c      **** //        case CYBLE_EVT_GATTS_XCNHG_MTU_REQ:
 161:.\main.c      **** //            { 
 162:.\main.c      **** //                uint16 mtu;
 163:.\main.c      **** //                CyBle_GattGetMtuSize(&mtu);
 164:.\main.c      **** //                DBG_PRINTF("CYBLE_EVT_GATTS_XCNHG_MTU_REQ, final mtu= %d \r\n", mtu);
 165:.\main.c      **** //            }
 166:.\main.c      **** //            break;
 167:.\main.c      **** //        case CYBLE_EVT_GATTS_WRITE_REQ:
 168:.\main.c      **** //			{
 169:.\main.c      **** //				wrReqParam = eventParam;
 170:.\main.c      **** //				if(CYBLE_BACKBONE_WRITE_DATA_CHAR_HANDLE == wrReqParam->handleValPair.attrHandle)
 171:.\main.c      **** //				{
 172:.\main.c      **** //					BLEWriteData[0] = wrReqParam->handleValPair.value.val[0];
 173:.\main.c      **** //					BLEWriteData[1] = wrReqParam->handleValPair.value.val[1];
 174:.\main.c      **** //					BLEWriteData[2] = wrReqParam->handleValPair.value.val[2];
 175:.\main.c      **** //					BLEWriteData[3] = wrReqParam->handleValPair.value.val[3];
 176:.\main.c      **** //					
 177:.\main.c      **** //					MotorPWMDutyCycle = BLEWriteData[1];
 178:.\main.c      **** //					
 179:.\main.c      **** //					if(BLEWriteData[0] != 0)
 180:.\main.c      **** //					{
 181:.\main.c      **** //						MotorFlag = 1;
 182:.\main.c      **** //						MotorPWM_Start();
 183:.\main.c      **** //						
 184:.\main.c      **** //						MotorPWM_WriteCompare(MotorPWMDutyCycle);
 185:.\main.c      **** //					}
 186:.\main.c      **** //					else
 187:.\main.c      **** //					{
 188:.\main.c      **** //						MotorFlag = 0;
 189:.\main.c      **** //						MotorPWM_Stop();
 190:.\main.c      **** //					}
 191:.\main.c      **** //				}
 192:.\main.c      **** //				/* Send the response to the write request. */
 193:.\main.c      **** //				CyBle_GattsWriteRsp(cyBle_connHandle);
 194:.\main.c      **** //				break;
 195:.\main.c      **** //			}
 196:.\main.c      **** //            break;
 197:.\main.c      **** //        case CYBLE_EVT_GAP_ENCRYPT_CHANGE:
 198:.\main.c      **** //            DBG_PRINTF("EVT_GAP_ENCRYPT_CHANGE: %x \r\n", *(uint8 *)eventParam);
 199:.\main.c      **** //            break;
 200:.\main.c      **** //        case CYBLE_EVT_GAPC_CONNECTION_UPDATE_COMPLETE:
 201:.\main.c      **** //            DBG_PRINTF("EVT_CONNECTION_UPDATE_COMPLETE: %x \r\n", *(uint8 *)eventParam);
 202:.\main.c      **** //            break;
 203:.\main.c      **** //            
ARM GAS  C:\Users\ADMINI~1\AppData\Local\Temp\cctc3Ik5.s 			page 5


 204:.\main.c      **** //        /**********************************************************
 205:.\main.c      **** //        *                       GATT Events
 206:.\main.c      **** //        ***********************************************************/
 207:.\main.c      **** //        case CYBLE_EVT_GATT_CONNECT_IND:
 208:.\main.c      **** //            DBG_PRINTF("EVT_GATT_CONNECT_IND: %x, %x \r\n", cyBle_connHandle.attId, cyBle_connHan
 209:.\main.c      **** //            break;
 210:.\main.c      **** //        case CYBLE_EVT_GATT_DISCONNECT_IND:
 211:.\main.c      **** //            DBG_PRINTF("EVT_GATT_DISCONNECT_IND \r\n");
 212:.\main.c      **** //            break;
 213:.\main.c      **** //            
 214:.\main.c      **** //        /**********************************************************
 215:.\main.c      **** //        *                       Other Events
 216:.\main.c      **** //        ***********************************************************/
 217:.\main.c      **** //        default:
 218:.\main.c      **** //            DBG_PRINTF("OTHER event: %lx \r\n", event);
 219:.\main.c      **** //            break;
 220:.\main.c      **** //    }
 221:.\main.c      **** //
 222:.\main.c      **** //}
 223:.\main.c      **** 
 224:.\main.c      **** /*******************************************************************************
 225:.\main.c      **** * Function Name: LowPowerImplementation()
 226:.\main.c      **** ********************************************************************************
 227:.\main.c      **** * Summary:
 228:.\main.c      **** * Implements low power in the project.
 229:.\main.c      **** *
 230:.\main.c      **** * Parameters:
 231:.\main.c      **** * None
 232:.\main.c      **** *
 233:.\main.c      **** * Return:
 234:.\main.c      **** * None
 235:.\main.c      **** *
 236:.\main.c      **** * Theory:
 237:.\main.c      **** * The function tries to enter deep sleep as much as possible - whenever the 
 238:.\main.c      **** * BLE is idle and the UART transmission/reception is not happening. At all other
 239:.\main.c      **** * times, the function tries to enter CPU sleep.
 240:.\main.c      **** *
 241:.\main.c      **** *******************************************************************************/
 242:.\main.c      **** static void LowPowerImplementation(void)
 243:.\main.c      **** {
 244:.\main.c      ****     CYBLE_LP_MODE_T bleMode;
 245:.\main.c      ****     uint8 interruptStatus;
 246:.\main.c      ****     
 247:.\main.c      ****     /* For advertising and connected states, implement deep sleep 
 248:.\main.c      ****      * functionality to achieve low power in the system. For more details
 249:.\main.c      ****      * on the low power implementation, refer to the Low Power Application 
 250:.\main.c      ****      * Note.
 251:.\main.c      ****      */
 252:.\main.c      ****     if((CyBle_GetState() == CYBLE_STATE_ADVERTISING) || 
 253:.\main.c      ****        (CyBle_GetState() == CYBLE_STATE_CONNECTED))
 254:.\main.c      ****     {
 255:.\main.c      ****         /* Request BLE subsystem to enter into Deep-Sleep mode between connection and advertising i
 256:.\main.c      ****         bleMode = CyBle_EnterLPM(CYBLE_BLESS_DEEPSLEEP);
 257:.\main.c      ****         
 258:.\main.c      **** 		/* Disable global interrupts */
 259:.\main.c      ****         interruptStatus = CyEnterCriticalSection();
 260:.\main.c      ****         
ARM GAS  C:\Users\ADMINI~1\AppData\Local\Temp\cctc3Ik5.s 			page 6


 261:.\main.c      **** 		/* When BLE subsystem has been put into Deep-Sleep mode */
 262:.\main.c      ****         if((bleMode == CYBLE_BLESS_DEEPSLEEP) && (MotorFlag == 0) &&  (hal.new_gyro == 0))
 263:.\main.c      ****         {
 264:.\main.c      ****             /* And it is still there or ECO is on */
 265:.\main.c      ****             if((CyBle_GetBleSsState() == CYBLE_BLESS_STATE_ECO_ON) || 
 266:.\main.c      ****                (CyBle_GetBleSsState() == CYBLE_BLESS_STATE_DEEPSLEEP))
 267:.\main.c      ****             {
 268:.\main.c      ****                 CySysPmDeepSleep();
 269:.\main.c      ****             }
 270:.\main.c      ****         }
 271:.\main.c      ****         else /* When BLE subsystem has been put into Sleep mode or is active */
 272:.\main.c      ****         {
 273:.\main.c      ****             /* And hardware doesn't finish Tx/Rx opeation - put the CPU into Sleep mode */
 274:.\main.c      ****             if(((CyBle_GetBleSsState() != CYBLE_BLESS_STATE_EVENT_CLOSE) || (MotorFlag != 0)) &&  (
 275:.\main.c      ****             {
 276:.\main.c      ****                 CySysPmSleep();
 277:.\main.c      ****             }
 278:.\main.c      ****         }
 279:.\main.c      ****         
 280:.\main.c      **** 		/* Enable global interrupt */
 281:.\main.c      ****         CyExitCriticalSection(interruptStatus);
 282:.\main.c      ****     }
 283:.\main.c      **** }
 284:.\main.c      **** 
 285:.\main.c      **** 
 286:.\main.c      **** 
 287:.\main.c      **** /*******************************************************************************
 288:.\main.c      **** * Function Name: main()
 289:.\main.c      **** ********************************************************************************
 290:.\main.c      **** * Summary:
 291:.\main.c      **** *  Main function for the project.
 292:.\main.c      **** *
 293:.\main.c      **** * Parameters:
 294:.\main.c      **** *  None
 295:.\main.c      **** *
 296:.\main.c      **** * Return:
 297:.\main.c      **** *  None
 298:.\main.c      **** *
 299:.\main.c      **** * Theory:
 300:.\main.c      **** *  The function starts BLE and UART components.
 301:.\main.c      **** *  This function process all BLE events and also implements the low power 
 302:.\main.c      **** *  functionality.
 303:.\main.c      **** *
 304:.\main.c      **** *******************************************************************************/
 305:.\main.c      **** int main()
 306:.\main.c      **** {	
  26              		.loc 1 306 0
  27              		.cfi_startproc
  28 0000 F8B5     		push	{r3, r4, r5, r6, r7, lr}
  29              		.cfi_def_cfa_offset 24
  30              		.cfi_offset 3, -24
  31              		.cfi_offset 4, -20
  32              		.cfi_offset 5, -16
  33              		.cfi_offset 6, -12
  34              		.cfi_offset 7, -8
  35              		.cfi_offset 14, -4
 307:.\main.c      **** 	CyGlobalIntEnable;  
ARM GAS  C:\Users\ADMINI~1\AppData\Local\Temp\cctc3Ik5.s 			page 7


  36              		.loc 1 307 0
  37              	@ 307 ".\main.c" 1
  38 0002 62B6     		CPSIE   i
  39              	@ 0 "" 2
 308:.\main.c      ****     InitializeBootloaderSRAM();
  40              		.loc 1 308 0
  41              		.code	16
  42 0004 FFF7FEFF 		bl	InitializeBootloaderSRAM
  43              	.LVL0:
 309:.\main.c      ****     
 310:.\main.c      **** 	inv_start();
  44              		.loc 1 310 0
  45 0008 FFF7FEFF 		bl	inv_start
  46              	.LVL1:
 311:.\main.c      **** 	
 312:.\main.c      ****     CyBle_Start(CustomEventHandler);
  47              		.loc 1 312 0
  48 000c 2E48     		ldr	r0, .L23
  49 000e FFF7FEFF 		bl	CyBle_Start
  50              	.LVL2:
 313:.\main.c      ****     CyBle_BasRegisterAttrCallback(BasCallBack);
  51              		.loc 1 313 0
  52 0012 2E48     		ldr	r0, .L23+4
  53 0014 FFF7FEFF 		bl	CyBle_BasRegisterAttrCallback
  54              	.LVL3:
 314:.\main.c      ****     
 315:.\main.c      **** 	ADC_Start();
  55              		.loc 1 315 0
  56 0018 FFF7FEFF 		bl	ADC_Start
  57              	.LVL4:
 316:.\main.c      **** 	MotorPWM_Start();
  58              		.loc 1 316 0
  59 001c FFF7FEFF 		bl	MotorPWM_Start
  60              	.LVL5:
  61              	.L11:
 317:.\main.c      **** 	
 318:.\main.c      **** 	while(1) 
 319:.\main.c      ****     {              
 320:.\main.c      ****         if (hal.new_gyro == 1)
  62              		.loc 1 320 0
  63 0020 2B4C     		ldr	r4, .L23+8
  64 0022 237B     		ldrb	r3, [r4, #12]
  65 0024 012B     		cmp	r3, #1
  66 0026 06D1     		bne	.L2
 321:.\main.c      **** 		{
 322:.\main.c      **** 			hal.new_gyro = 0;
  67              		.loc 1 322 0
  68 0028 0023     		mov	r3, #0
 323:.\main.c      ****             CyDelay(10);
  69              		.loc 1 323 0
  70 002a 0A20     		mov	r0, #10
 322:.\main.c      ****             CyDelay(10);
  71              		.loc 1 322 0
  72 002c 2373     		strb	r3, [r4, #12]
  73              		.loc 1 323 0
  74 002e FFF7FEFF 		bl	CyDelay
  75              	.LVL6:
ARM GAS  C:\Users\ADMINI~1\AppData\Local\Temp\cctc3Ik5.s 			page 8


 324:.\main.c      **** 			fifo_handler();
  76              		.loc 1 324 0
  77 0032 FFF7FEFF 		bl	fifo_handler
  78              	.LVL7:
  79              	.L2:
 325:.\main.c      **** 		}
 326:.\main.c      **** 		
 327:.\main.c      **** 		BackBone_Task();
  80              		.loc 1 327 0
  81 0036 FFF7FEFF 		bl	BackBone_Task
  82              	.LVL8:
 328:.\main.c      **** 		
 329:.\main.c      **** 		/* Process all the generated events. */
 330:.\main.c      ****         CyBle_ProcessEvents();                
  83              		.loc 1 330 0
  84 003a FFF7FEFF 		bl	CyBle_ProcessEvents
  85              	.LVL9:
 331:.\main.c      **** 
 332:.\main.c      ****         #ifdef ENABLE_LOW_POWER_MODE
 333:.\main.c      **** 			/* To achieve low power in the device */
 334:.\main.c      ****             if(restartAdvertisement==FALSE)
  86              		.loc 1 334 0
  87 003e 254D     		ldr	r5, .L23+12
  88 0040 2B78     		ldrb	r3, [r5]
  89 0042 002B     		cmp	r3, #0
  90 0044 30D1     		bne	.L3
  91              	.LBB4:
  92              	.LBB5:
 252:.\main.c      ****        (CyBle_GetState() == CYBLE_STATE_CONNECTED))
  93              		.loc 1 252 0
  94 0046 244B     		ldr	r3, .L23+16
  95 0048 1B78     		ldrb	r3, [r3]
  96 004a 023B     		sub	r3, r3, #2
  97 004c 012B     		cmp	r3, #1
  98 004e 2BD8     		bhi	.L3
 256:.\main.c      ****         
  99              		.loc 1 256 0
 100 0050 0320     		mov	r0, #3
 101 0052 FFF7FEFF 		bl	CyBle_EnterLPM
 102              	.LVL10:
 103 0056 071C     		mov	r7, r0
 104              	.LVL11:
 259:.\main.c      ****         
 105              		.loc 1 259 0
 106 0058 FFF7FEFF 		bl	CyEnterCriticalSection
 107              	.LVL12:
 108 005c 061C     		mov	r6, r0
 109              	.LVL13:
 262:.\main.c      ****         {
 110              		.loc 1 262 0
 111 005e 032F     		cmp	r7, #3
 112 0060 12D1     		bne	.L4
 113 0062 1E4B     		ldr	r3, .L23+20
 114 0064 1B78     		ldrb	r3, [r3]
 115 0066 002B     		cmp	r3, #0
 116 0068 0ED1     		bne	.L4
 117 006a 237B     		ldrb	r3, [r4, #12]
ARM GAS  C:\Users\ADMINI~1\AppData\Local\Temp\cctc3Ik5.s 			page 9


 118 006c 002B     		cmp	r3, #0
 119 006e 0BD1     		bne	.L4
 265:.\main.c      ****                (CyBle_GetBleSsState() == CYBLE_BLESS_STATE_DEEPSLEEP))
 120              		.loc 1 265 0
 121 0070 FFF7FEFF 		bl	CyBle_GetBleSsState
 122              	.LVL14:
 123 0074 0428     		cmp	r0, #4
 124 0076 02D1     		bne	.L5
 125              	.L7:
 268:.\main.c      ****             }
 126              		.loc 1 268 0
 127 0078 FFF7FEFF 		bl	CySysPmDeepSleep
 128              	.LVL15:
 129 007c 11E0     		b	.L6
 130              	.L5:
 266:.\main.c      ****             {
 131              		.loc 1 266 0
 132 007e FFF7FEFF 		bl	CyBle_GetBleSsState
 133              	.LVL16:
 265:.\main.c      ****                (CyBle_GetBleSsState() == CYBLE_BLESS_STATE_DEEPSLEEP))
 134              		.loc 1 265 0
 135 0082 0628     		cmp	r0, #6
 136 0084 0DD1     		bne	.L6
 137 0086 F7E7     		b	.L7
 138              	.L4:
 274:.\main.c      ****             {
 139              		.loc 1 274 0
 140 0088 FFF7FEFF 		bl	CyBle_GetBleSsState
 141              	.LVL17:
 142 008c 0228     		cmp	r0, #2
 143 008e 03D1     		bne	.L8
 144 0090 124B     		ldr	r3, .L23+20
 145 0092 1B78     		ldrb	r3, [r3]
 146 0094 002B     		cmp	r3, #0
 147 0096 04D0     		beq	.L6
 148              	.L8:
 149 0098 237B     		ldrb	r3, [r4, #12]
 150 009a 002B     		cmp	r3, #0
 151 009c 01D1     		bne	.L6
 276:.\main.c      ****             }
 152              		.loc 1 276 0
 153 009e FFF7FEFF 		bl	CySysPmSleep
 154              	.LVL18:
 155              	.L6:
 281:.\main.c      ****     }
 156              		.loc 1 281 0
 157 00a2 301C     		mov	r0, r6
 158 00a4 FFF7FEFF 		bl	CyExitCriticalSection
 159              	.LVL19:
 160              	.L3:
 161              	.LBE5:
 162              	.LBE4:
 335:.\main.c      ****             {
 336:.\main.c      **** 	            LowPowerImplementation();
 337:.\main.c      ****             }
 338:.\main.c      **** 		#endif
 339:.\main.c      **** 
ARM GAS  C:\Users\ADMINI~1\AppData\Local\Temp\cctc3Ik5.s 			page 10


 340:.\main.c      ****         if(restartAdvertisement)
 163              		.loc 1 340 0
 164 00a8 2B78     		ldrb	r3, [r5]
 165 00aa 002B     		cmp	r3, #0
 166 00ac 03D0     		beq	.L10
 341:.\main.c      **** 		{
 342:.\main.c      **** 			restartAdvertisement = FALSE;			
 167              		.loc 1 342 0
 168 00ae 0020     		mov	r0, #0
 169 00b0 2870     		strb	r0, [r5]
 343:.\main.c      **** 			CyBle_GappStartAdvertisement(CYBLE_ADVERTISING_FAST);            
 170              		.loc 1 343 0
 171 00b2 FFF7FEFF 		bl	CyBle_GappStartAdvertisement
 172              	.LVL20:
 173              	.L10:
 344:.\main.c      **** 		}
 345:.\main.c      ****         
 346:.\main.c      ****         if(TRUE == deviceConnected)
 174              		.loc 1 346 0
 175 00b6 0A4B     		ldr	r3, .L23+24
 176 00b8 1B78     		ldrb	r3, [r3]
 177 00ba 012B     		cmp	r3, #1
 178 00bc B0D1     		bne	.L11
 347:.\main.c      **** 		{
 348:.\main.c      **** 			UpdateConnectionParam();	
 179              		.loc 1 348 0
 180 00be FFF7FEFF 		bl	UpdateConnectionParam
 181              	.LVL21:
 349:.\main.c      **** 
 350:.\main.c      ****            	MeasureBattery(); 
 182              		.loc 1 350 0
 183 00c2 FFF7FEFF 		bl	MeasureBattery
 184              	.LVL22:
 185 00c6 ABE7     		b	.L11
 186              	.L24:
 187              		.align	2
 188              	.L23:
 189 00c8 00000000 		.word	CustomEventHandler
 190 00cc 00000000 		.word	BasCallBack
 191 00d0 00000000 		.word	hal
 192 00d4 00000000 		.word	restartAdvertisement
 193 00d8 00000000 		.word	cyBle_state
 194 00dc 00000000 		.word	.LANCHOR0
 195 00e0 00000000 		.word	deviceConnected
 196              		.cfi_endproc
 197              	.LFE42:
 198              		.size	main, .-main
 199              		.global	VersionString
 200              		.global	MotorPWMDutyCycle
 201              		.global	MotorFlag
 202              		.comm	BLEReadData,4,1
 203              		.comm	BLEWriteData,4,1
 204              		.data
 205              		.type	VersionString, %object
 206              		.size	VersionString, 4
 207              	VersionString:
 208 0000 01       		.byte	1
ARM GAS  C:\Users\ADMINI~1\AppData\Local\Temp\cctc3Ik5.s 			page 11


 209 0001 00       		.byte	0
 210 0002 01       		.byte	1
 211 0003 05       		.byte	5
 212              		.bss
 213              		.align	1
 214              		.set	.LANCHOR0,. + 0
 215              		.type	MotorFlag, %object
 216              		.size	MotorFlag, 1
 217              	MotorFlag:
 218 0000 00       		.space	1
 219 0001 00       		.space	1
 220              		.type	MotorPWMDutyCycle, %object
 221              		.size	MotorPWMDutyCycle, 2
 222              	MotorPWMDutyCycle:
 223 0002 0000     		.space	2
 224              		.text
 225              	.Letext0:
 226              		.file 2 "Generated_Source\\PSoC4/cytypes.h"
 227              		.file 3 "./.\\20648_driver\\common\\mltypes.h"
 228              		.file 4 ".\\inv.h"
 229              		.file 5 "./..\\BLE_OTA_FixedStack_Bootloader01.cydsn\\Generated_Source\\PSoC4\\CyBle_Stack.h"
 230              		.file 6 "./..\\BLE_OTA_FixedStack_Bootloader01.cydsn\\Generated_Source\\PSoC4\\CyBle.h"
 231              		.file 7 "./..\\BLE_OTA_FixedStack_Bootloader01.cydsn\\Generated_Source\\PSoC4\\cyble_dis.h"
 232              		.file 8 "./..\\BLE_OTA_FixedStack_Bootloader01.cydsn\\Generated_Source\\PSoC4\\cyble_eventhandler.
 233              		.file 9 "Generated_Source\\PSoC4/CyLib.h"
 234              		.file 10 "Generated_Source\\PSoC4/cyPm.h"
 235              		.file 11 "./..\\BLE_OTA_FixedStack_Bootloader01.cydsn\\Generated_Source\\PSoC4\\cyble_bas.h"
 236              		.file 12 "Generated_Source\\PSoC4/ADC.h"
 237              		.file 13 "Generated_Source\\PSoC4/MotorPWM.h"
 238              		.file 14 "./BackBone.h"
 239              		.file 15 "./BleApplications.h"
 240              		.file 16 ".\\bas.h"