ARM GAS  C:\Users\ADMINI~1\AppData\Local\Temp\cc85ADh7.s 			page 1


   1              		.cpu cortex-m0
   2              		.fpu softvfp
   3              		.eabi_attribute 20, 1
   4              		.eabi_attribute 21, 1
   5              		.eabi_attribute 23, 3
   6              		.eabi_attribute 24, 1
   7              		.eabi_attribute 25, 1
   8              		.eabi_attribute 26, 1
   9              		.eabi_attribute 30, 4
  10              		.eabi_attribute 34, 0
  11              		.eabi_attribute 18, 4
  12              		.code	16
  13              		.file	"ml_math_func.c"
  14              		.text
  15              	.Ltext0:
  16              		.cfi_sections	.debug_frame
  17              		.section	.text.inv_row_2_scale,"ax",%progbits
  18              		.align	1
  19              		.code	16
  20              		.thumb_func
  21              		.type	inv_row_2_scale, %function
  22              	inv_row_2_scale:
  23              	.LFB45:
  24              		.file 1 ".\\20648_driver\\invn\\ml_math_func.c"
   1:.\20648_driver\invn/ml_math_func.c **** /*
   2:.\20648_driver\invn/ml_math_func.c **** $License:
   3:.\20648_driver\invn/ml_math_func.c **** Copyright (C) 2011-2012 InvenSense Corporation, All Rights Reserved.
   4:.\20648_driver\invn/ml_math_func.c **** See included License.txt for License information.
   5:.\20648_driver\invn/ml_math_func.c **** $
   6:.\20648_driver\invn/ml_math_func.c **** */
   7:.\20648_driver\invn/ml_math_func.c **** 
   8:.\20648_driver\invn/ml_math_func.c **** /*******************************************************************************
   9:.\20648_driver\invn/ml_math_func.c **** *
  10:.\20648_driver\invn/ml_math_func.c **** * $Id:$
  11:.\20648_driver\invn/ml_math_func.c **** *
  12:.\20648_driver\invn/ml_math_func.c **** ******************************************************************************/
  13:.\20648_driver\invn/ml_math_func.c **** 
  14:.\20648_driver\invn/ml_math_func.c **** /**
  15:.\20648_driver\invn/ml_math_func.c **** *   @defgroup  ML_MATH_FUNC ml_math_func
  16:.\20648_driver\invn/ml_math_func.c **** *   @brief     Motion Library - Math Functions
  17:.\20648_driver\invn/ml_math_func.c **** *              Common math functions the Motion Library
  18:.\20648_driver\invn/ml_math_func.c **** *
  19:.\20648_driver\invn/ml_math_func.c **** *   @{
  20:.\20648_driver\invn/ml_math_func.c **** *       @file ml_math_func.c
  21:.\20648_driver\invn/ml_math_func.c **** *       @brief Math Functions.
  22:.\20648_driver\invn/ml_math_func.c **** */
  23:.\20648_driver\invn/ml_math_func.c **** 
  24:.\20648_driver\invn/ml_math_func.c **** #include "mlmath.h" 
  25:.\20648_driver\invn/ml_math_func.c **** #include "ml_math_func.h"
  26:.\20648_driver\invn/ml_math_func.c **** #include <string.h>
  27:.\20648_driver\invn/ml_math_func.c **** 
  28:.\20648_driver\invn/ml_math_func.c **** /** @internal
  29:.\20648_driver\invn/ml_math_func.c **** * Does the cross product of compass by gravity, then converts that
  30:.\20648_driver\invn/ml_math_func.c **** * to the world frame using the quaternion, then computes the angle that
  31:.\20648_driver\invn/ml_math_func.c **** * is made.
  32:.\20648_driver\invn/ml_math_func.c **** *
  33:.\20648_driver\invn/ml_math_func.c **** * @param[in] compass Compass Vector (Body Frame), length 3
ARM GAS  C:\Users\ADMINI~1\AppData\Local\Temp\cc85ADh7.s 			page 2


  34:.\20648_driver\invn/ml_math_func.c **** * @param[in] grav Gravity Vector (Body Frame), length 3
  35:.\20648_driver\invn/ml_math_func.c **** * @param[in] quat Quaternion, Length 4
  36:.\20648_driver\invn/ml_math_func.c **** * @return Angle Cross Product makes after quaternion rotation.
  37:.\20648_driver\invn/ml_math_func.c **** */
  38:.\20648_driver\invn/ml_math_func.c **** float inv_compass_angle(const long *compass, const long *grav, const float *quat)
  39:.\20648_driver\invn/ml_math_func.c **** {
  40:.\20648_driver\invn/ml_math_func.c **** 	float cgcross[4], q1[4], q2[4], qi[4];
  41:.\20648_driver\invn/ml_math_func.c **** 	float angW;
  42:.\20648_driver\invn/ml_math_func.c **** 
  43:.\20648_driver\invn/ml_math_func.c **** 	// Compass cross Gravity
  44:.\20648_driver\invn/ml_math_func.c **** 	cgcross[0] = 0.f;
  45:.\20648_driver\invn/ml_math_func.c **** 	cgcross[1] = (float)compass[1] * grav[2] - (float)compass[2] * grav[1];
  46:.\20648_driver\invn/ml_math_func.c **** 	cgcross[2] = (float)compass[2] * grav[0] - (float)compass[0] * grav[2];
  47:.\20648_driver\invn/ml_math_func.c **** 	cgcross[3] = (float)compass[0] * grav[1] - (float)compass[1] * grav[0];
  48:.\20648_driver\invn/ml_math_func.c **** 
  49:.\20648_driver\invn/ml_math_func.c **** 	// Now convert cross product into world frame
  50:.\20648_driver\invn/ml_math_func.c **** 	inv_q_multf(quat, cgcross, q1);
  51:.\20648_driver\invn/ml_math_func.c **** 	inv_q_invertf(quat, qi);
  52:.\20648_driver\invn/ml_math_func.c **** 	inv_q_multf(q1, qi, q2);
  53:.\20648_driver\invn/ml_math_func.c **** 
  54:.\20648_driver\invn/ml_math_func.c **** 	// Protect against atan2 of 0,0
  55:.\20648_driver\invn/ml_math_func.c **** 	if ((q2[2] == 0.f) && (q2[1] == 0.f))
  56:.\20648_driver\invn/ml_math_func.c **** 		return 0.f;
  57:.\20648_driver\invn/ml_math_func.c **** 
  58:.\20648_driver\invn/ml_math_func.c **** 	// This is the unfiltered heading correction
  59:.\20648_driver\invn/ml_math_func.c **** 	angW = -atan2f(q2[2], q2[1]);
  60:.\20648_driver\invn/ml_math_func.c **** 	return angW;
  61:.\20648_driver\invn/ml_math_func.c **** }
  62:.\20648_driver\invn/ml_math_func.c **** 
  63:.\20648_driver\invn/ml_math_func.c **** /**
  64:.\20648_driver\invn/ml_math_func.c **** *  @brief  The gyro data magnitude squared :
  65:.\20648_driver\invn/ml_math_func.c **** *          (1 degree per second)^2 = 2^6 = 2^GYRO_MAG_SQR_SHIFT.
  66:.\20648_driver\invn/ml_math_func.c **** * @param[in] gyro Gyro data scaled with 1 dps = 2^16
  67:.\20648_driver\invn/ml_math_func.c **** *  @return the computed magnitude squared output of the gyroscope.
  68:.\20648_driver\invn/ml_math_func.c **** */
  69:.\20648_driver\invn/ml_math_func.c **** unsigned long inv_get_gyro_sum_of_sqr(const long *gyro)
  70:.\20648_driver\invn/ml_math_func.c **** {
  71:.\20648_driver\invn/ml_math_func.c **** 	unsigned long gmag = 0;
  72:.\20648_driver\invn/ml_math_func.c **** 	long temp;
  73:.\20648_driver\invn/ml_math_func.c **** 	int kk;
  74:.\20648_driver\invn/ml_math_func.c **** 
  75:.\20648_driver\invn/ml_math_func.c **** 	for (kk = 0; kk < 3; ++kk) {
  76:.\20648_driver\invn/ml_math_func.c **** 		temp = gyro[kk] >> (16 - (GYRO_MAG_SQR_SHIFT / 2));
  77:.\20648_driver\invn/ml_math_func.c **** 		gmag += temp * temp;
  78:.\20648_driver\invn/ml_math_func.c **** 	}
  79:.\20648_driver\invn/ml_math_func.c **** 
  80:.\20648_driver\invn/ml_math_func.c **** 	return gmag;
  81:.\20648_driver\invn/ml_math_func.c **** }
  82:.\20648_driver\invn/ml_math_func.c **** 
  83:.\20648_driver\invn/ml_math_func.c **** /** Performs a multiply and shift by qfix. These are good functions to write in assembly on
  84:.\20648_driver\invn/ml_math_func.c **** * with devices with small memory where you want to get rid of the long long which some
  85:.\20648_driver\invn/ml_math_func.c **** * assemblers don't handle well
  86:.\20648_driver\invn/ml_math_func.c **** * @param[in] a
  87:.\20648_driver\invn/ml_math_func.c **** * @param[in] b
  88:.\20648_driver\invn/ml_math_func.c **** * @param[in] qfix, should be in 1,31 since a and b are on 32 bits
  89:.\20648_driver\invn/ml_math_func.c **** * @return ((long long)a*b)>>qfix
  90:.\20648_driver\invn/ml_math_func.c **** */
ARM GAS  C:\Users\ADMINI~1\AppData\Local\Temp\cc85ADh7.s 			page 3


  91:.\20648_driver\invn/ml_math_func.c **** long inv_qfix_mult(long a, long b, unsigned char qfix)
  92:.\20648_driver\invn/ml_math_func.c **** {
  93:.\20648_driver\invn/ml_math_func.c **** #ifdef UMPL_ELIMINATE_64BIT
  94:.\20648_driver\invn/ml_math_func.c **** 	long result;
  95:.\20648_driver\invn/ml_math_func.c **** 	result = (long)((float)a * b / (1L << qfix));
  96:.\20648_driver\invn/ml_math_func.c **** 	return result;
  97:.\20648_driver\invn/ml_math_func.c **** #else
  98:.\20648_driver\invn/ml_math_func.c **** 	long long temp;
  99:.\20648_driver\invn/ml_math_func.c **** 	long result;
 100:.\20648_driver\invn/ml_math_func.c **** 	temp = (long long)a * b;
 101:.\20648_driver\invn/ml_math_func.c **** 	result = (long)(temp >> qfix);
 102:.\20648_driver\invn/ml_math_func.c **** 	return result;
 103:.\20648_driver\invn/ml_math_func.c **** #endif
 104:.\20648_driver\invn/ml_math_func.c **** }
 105:.\20648_driver\invn/ml_math_func.c **** 
 106:.\20648_driver\invn/ml_math_func.c **** /** Performs a multiply and shift by 29. These are good functions to write in assembly on
 107:.\20648_driver\invn/ml_math_func.c **** * with devices with small memory where you want to get rid of the long long which some
 108:.\20648_driver\invn/ml_math_func.c **** * assemblers don't handle well
 109:.\20648_driver\invn/ml_math_func.c **** * @param[in] a
 110:.\20648_driver\invn/ml_math_func.c **** * @param[in] b
 111:.\20648_driver\invn/ml_math_func.c **** * @return ((long long)a*b)>>29
 112:.\20648_driver\invn/ml_math_func.c **** */
 113:.\20648_driver\invn/ml_math_func.c **** long inv_q29_mult(long a, long b)
 114:.\20648_driver\invn/ml_math_func.c **** {
 115:.\20648_driver\invn/ml_math_func.c **** #ifdef UMPL_ELIMINATE_64BIT
 116:.\20648_driver\invn/ml_math_func.c **** 	long result;
 117:.\20648_driver\invn/ml_math_func.c **** 	result = (long)((float)a * b / (1L << 29));
 118:.\20648_driver\invn/ml_math_func.c **** 	return result;
 119:.\20648_driver\invn/ml_math_func.c **** #else
 120:.\20648_driver\invn/ml_math_func.c **** 	long long temp;
 121:.\20648_driver\invn/ml_math_func.c **** 	long result;
 122:.\20648_driver\invn/ml_math_func.c **** 	temp = (long long)a * b;
 123:.\20648_driver\invn/ml_math_func.c **** 	result = (long)(temp >> 29);
 124:.\20648_driver\invn/ml_math_func.c **** 	return result;
 125:.\20648_driver\invn/ml_math_func.c **** #endif
 126:.\20648_driver\invn/ml_math_func.c **** }
 127:.\20648_driver\invn/ml_math_func.c **** 
 128:.\20648_driver\invn/ml_math_func.c **** /** Performs a multiply and shift by 30. These are good functions to write in assembly on
 129:.\20648_driver\invn/ml_math_func.c **** * with devices with small memory where you want to get rid of the long long which some
 130:.\20648_driver\invn/ml_math_func.c **** * assemblers don't handle well
 131:.\20648_driver\invn/ml_math_func.c **** * @param[in] a
 132:.\20648_driver\invn/ml_math_func.c **** * @param[in] b
 133:.\20648_driver\invn/ml_math_func.c **** * @return ((long long)a*b)>>30
 134:.\20648_driver\invn/ml_math_func.c **** */
 135:.\20648_driver\invn/ml_math_func.c **** long inv_q30_mult(long a, long b)
 136:.\20648_driver\invn/ml_math_func.c **** {
 137:.\20648_driver\invn/ml_math_func.c **** #ifdef UMPL_ELIMINATE_64BIT
 138:.\20648_driver\invn/ml_math_func.c **** 	long result;
 139:.\20648_driver\invn/ml_math_func.c **** 	result = (long)((float)a * b / (1L << 30));
 140:.\20648_driver\invn/ml_math_func.c **** 	return result;
 141:.\20648_driver\invn/ml_math_func.c **** #else
 142:.\20648_driver\invn/ml_math_func.c **** 	long long temp;
 143:.\20648_driver\invn/ml_math_func.c **** 	long result;
 144:.\20648_driver\invn/ml_math_func.c **** 	temp = (long long)a * b;
 145:.\20648_driver\invn/ml_math_func.c **** 	result = (long)(temp >> 30);
 146:.\20648_driver\invn/ml_math_func.c **** 	return result;
 147:.\20648_driver\invn/ml_math_func.c **** #endif
ARM GAS  C:\Users\ADMINI~1\AppData\Local\Temp\cc85ADh7.s 			page 4


 148:.\20648_driver\invn/ml_math_func.c **** }
 149:.\20648_driver\invn/ml_math_func.c **** 
 150:.\20648_driver\invn/ml_math_func.c **** void inv_q30_matrix_mult(const long left_matrix[9], const long right_matrix[9], long matrix_product
 151:.\20648_driver\invn/ml_math_func.c **** {
 152:.\20648_driver\invn/ml_math_func.c **** 	matrix_product[0] = inv_q30_mult(left_matrix[0], right_matrix[0]) + inv_q30_mult(left_matrix[1], r
 153:.\20648_driver\invn/ml_math_func.c **** 	matrix_product[1] = inv_q30_mult(left_matrix[0], right_matrix[1]) + inv_q30_mult(left_matrix[1], r
 154:.\20648_driver\invn/ml_math_func.c **** 	matrix_product[2] = inv_q30_mult(left_matrix[0], right_matrix[2]) + inv_q30_mult(left_matrix[1], r
 155:.\20648_driver\invn/ml_math_func.c **** 
 156:.\20648_driver\invn/ml_math_func.c **** 	matrix_product[3] = inv_q30_mult(left_matrix[3], right_matrix[0]) + inv_q30_mult(left_matrix[4], r
 157:.\20648_driver\invn/ml_math_func.c **** 	matrix_product[4] = inv_q30_mult(left_matrix[3], right_matrix[1]) + inv_q30_mult(left_matrix[4], r
 158:.\20648_driver\invn/ml_math_func.c **** 	matrix_product[5] = inv_q30_mult(left_matrix[3], right_matrix[2]) + inv_q30_mult(left_matrix[4], r
 159:.\20648_driver\invn/ml_math_func.c **** 
 160:.\20648_driver\invn/ml_math_func.c **** 	matrix_product[6] = inv_q30_mult(left_matrix[6], right_matrix[0]) + inv_q30_mult(left_matrix[7], r
 161:.\20648_driver\invn/ml_math_func.c **** 	matrix_product[7] = inv_q30_mult(left_matrix[6], right_matrix[1]) + inv_q30_mult(left_matrix[7], r
 162:.\20648_driver\invn/ml_math_func.c **** 	matrix_product[8] = inv_q30_mult(left_matrix[6], right_matrix[2]) + inv_q30_mult(left_matrix[7], r
 163:.\20648_driver\invn/ml_math_func.c **** }
 164:.\20648_driver\invn/ml_math_func.c **** 
 165:.\20648_driver\invn/ml_math_func.c **** #ifndef UMPL_ELIMINATE_64BIT
 166:.\20648_driver\invn/ml_math_func.c **** long inv_q30_div(long a, long b)
 167:.\20648_driver\invn/ml_math_func.c **** {
 168:.\20648_driver\invn/ml_math_func.c **** 	long long temp;
 169:.\20648_driver\invn/ml_math_func.c **** 	long result;
 170:.\20648_driver\invn/ml_math_func.c **** 	temp = (((long long)a) << 30) / b;
 171:.\20648_driver\invn/ml_math_func.c **** 	result = (long)temp;
 172:.\20648_driver\invn/ml_math_func.c **** 	return result;
 173:.\20648_driver\invn/ml_math_func.c **** }
 174:.\20648_driver\invn/ml_math_func.c **** #endif
 175:.\20648_driver\invn/ml_math_func.c **** 
 176:.\20648_driver\invn/ml_math_func.c **** /** Performs a multiply and shift by shift. These are good functions to write
 177:.\20648_driver\invn/ml_math_func.c **** * in assembly on with devices with small memory where you want to get rid of
 178:.\20648_driver\invn/ml_math_func.c **** * the long long which some assemblers don't handle well
 179:.\20648_driver\invn/ml_math_func.c **** * @param[in] a First multicand
 180:.\20648_driver\invn/ml_math_func.c **** * @param[in] b Second multicand
 181:.\20648_driver\invn/ml_math_func.c **** * @param[in] shift Shift amount after multiplying
 182:.\20648_driver\invn/ml_math_func.c **** * @return ((long long)a*b)<<shift
 183:.\20648_driver\invn/ml_math_func.c **** */
 184:.\20648_driver\invn/ml_math_func.c **** #ifndef UMPL_ELIMINATE_64BIT
 185:.\20648_driver\invn/ml_math_func.c **** long inv_q_shift_mult(long a, long b, int shift)
 186:.\20648_driver\invn/ml_math_func.c **** {
 187:.\20648_driver\invn/ml_math_func.c **** 	long result;
 188:.\20648_driver\invn/ml_math_func.c **** 	result = (long)(((long long)a * b) >> shift);
 189:.\20648_driver\invn/ml_math_func.c **** 	return result;
 190:.\20648_driver\invn/ml_math_func.c **** }
 191:.\20648_driver\invn/ml_math_func.c **** #endif
 192:.\20648_driver\invn/ml_math_func.c **** 
 193:.\20648_driver\invn/ml_math_func.c **** /** Performs a fixed point quaternion multiply.
 194:.\20648_driver\invn/ml_math_func.c **** * @param[in] q1 First Quaternion Multicand, length 4. 1.0 scaled
 195:.\20648_driver\invn/ml_math_func.c **** *            to 2^30
 196:.\20648_driver\invn/ml_math_func.c **** * @param[in] q2 Second Quaternion Multicand, length 4. 1.0 scaled
 197:.\20648_driver\invn/ml_math_func.c **** *            to 2^30
 198:.\20648_driver\invn/ml_math_func.c **** * @param[out] qProd Product after quaternion multiply. Length 4.
 199:.\20648_driver\invn/ml_math_func.c **** *             1.0 scaled to 2^30.
 200:.\20648_driver\invn/ml_math_func.c **** */
 201:.\20648_driver\invn/ml_math_func.c **** void inv_q_mult(const long *q1, const long *q2, long *qProd)
 202:.\20648_driver\invn/ml_math_func.c **** {
 203:.\20648_driver\invn/ml_math_func.c **** 	qProd[0] = inv_q30_mult(q1[0], q2[0]) - inv_q30_mult(q1[1], q2[1]) -
 204:.\20648_driver\invn/ml_math_func.c **** 		inv_q30_mult(q1[2], q2[2]) - inv_q30_mult(q1[3], q2[3]);
ARM GAS  C:\Users\ADMINI~1\AppData\Local\Temp\cc85ADh7.s 			page 5


 205:.\20648_driver\invn/ml_math_func.c **** 
 206:.\20648_driver\invn/ml_math_func.c **** 	qProd[1] = inv_q30_mult(q1[0], q2[1]) + inv_q30_mult(q1[1], q2[0]) +
 207:.\20648_driver\invn/ml_math_func.c **** 		inv_q30_mult(q1[2], q2[3]) - inv_q30_mult(q1[3], q2[2]);
 208:.\20648_driver\invn/ml_math_func.c **** 
 209:.\20648_driver\invn/ml_math_func.c **** 	qProd[2] = inv_q30_mult(q1[0], q2[2]) - inv_q30_mult(q1[1], q2[3]) +
 210:.\20648_driver\invn/ml_math_func.c **** 		inv_q30_mult(q1[2], q2[0]) + inv_q30_mult(q1[3], q2[1]);
 211:.\20648_driver\invn/ml_math_func.c **** 
 212:.\20648_driver\invn/ml_math_func.c **** 	qProd[3] = inv_q30_mult(q1[0], q2[3]) + inv_q30_mult(q1[1], q2[2]) -
 213:.\20648_driver\invn/ml_math_func.c **** 		inv_q30_mult(q1[2], q2[1]) + inv_q30_mult(q1[3], q2[0]);
 214:.\20648_driver\invn/ml_math_func.c **** }
 215:.\20648_driver\invn/ml_math_func.c **** 
 216:.\20648_driver\invn/ml_math_func.c **** /** Performs a fixed point quaternion addition.
 217:.\20648_driver\invn/ml_math_func.c **** * @param[in] q1 First Quaternion term, length 4. 1.0 scaled
 218:.\20648_driver\invn/ml_math_func.c **** *            to 2^30
 219:.\20648_driver\invn/ml_math_func.c **** * @param[in] q2 Second Quaternion term, length 4. 1.0 scaled
 220:.\20648_driver\invn/ml_math_func.c **** *            to 2^30
 221:.\20648_driver\invn/ml_math_func.c **** * @param[out] qSum Sum after quaternion summation. Length 4.
 222:.\20648_driver\invn/ml_math_func.c **** *             1.0 scaled to 2^30.
 223:.\20648_driver\invn/ml_math_func.c **** */
 224:.\20648_driver\invn/ml_math_func.c **** void inv_q_add(long *q1, long *q2, long *qSum)
 225:.\20648_driver\invn/ml_math_func.c **** {
 226:.\20648_driver\invn/ml_math_func.c **** 	qSum[0] = q1[0] + q2[0];
 227:.\20648_driver\invn/ml_math_func.c **** 	qSum[1] = q1[1] + q2[1];
 228:.\20648_driver\invn/ml_math_func.c **** 	qSum[2] = q1[2] + q2[2];
 229:.\20648_driver\invn/ml_math_func.c **** 	qSum[3] = q1[3] + q2[3];
 230:.\20648_driver\invn/ml_math_func.c **** }
 231:.\20648_driver\invn/ml_math_func.c **** 
 232:.\20648_driver\invn/ml_math_func.c **** void inv_vector_normalize(long *vec, int length)
 233:.\20648_driver\invn/ml_math_func.c **** {
 234:.\20648_driver\invn/ml_math_func.c **** 	double normSF = 0;
 235:.\20648_driver\invn/ml_math_func.c **** 	int ii;
 236:.\20648_driver\invn/ml_math_func.c **** 	for (ii = 0; ii < length; ii++) {
 237:.\20648_driver\invn/ml_math_func.c **** 		normSF +=
 238:.\20648_driver\invn/ml_math_func.c **** 			inv_q30_to_double(vec[ii]) * inv_q30_to_double(vec[ii]);
 239:.\20648_driver\invn/ml_math_func.c **** 	}
 240:.\20648_driver\invn/ml_math_func.c **** 	if (normSF > 0) {
 241:.\20648_driver\invn/ml_math_func.c **** 		normSF = 1 / sqrt(normSF);
 242:.\20648_driver\invn/ml_math_func.c **** 		for (ii = 0; ii < length; ii++) {
 243:.\20648_driver\invn/ml_math_func.c **** 			vec[ii] = (int)((double)vec[ii] * normSF);
 244:.\20648_driver\invn/ml_math_func.c **** 		}
 245:.\20648_driver\invn/ml_math_func.c **** 	}
 246:.\20648_driver\invn/ml_math_func.c **** 	else {
 247:.\20648_driver\invn/ml_math_func.c **** 		vec[0] = 1073741824L;
 248:.\20648_driver\invn/ml_math_func.c **** 		for (ii = 1; ii < length; ii++) {
 249:.\20648_driver\invn/ml_math_func.c **** 			vec[ii] = 0;
 250:.\20648_driver\invn/ml_math_func.c **** 		}
 251:.\20648_driver\invn/ml_math_func.c **** 	}
 252:.\20648_driver\invn/ml_math_func.c **** }
 253:.\20648_driver\invn/ml_math_func.c **** 
 254:.\20648_driver\invn/ml_math_func.c **** void inv_q_normalize(long *q)
 255:.\20648_driver\invn/ml_math_func.c **** {
 256:.\20648_driver\invn/ml_math_func.c **** 	inv_vector_normalize(q, 4);
 257:.\20648_driver\invn/ml_math_func.c **** }
 258:.\20648_driver\invn/ml_math_func.c **** 
 259:.\20648_driver\invn/ml_math_func.c **** void inv_q_invert(const long *q, long *qInverted)
 260:.\20648_driver\invn/ml_math_func.c **** {
 261:.\20648_driver\invn/ml_math_func.c **** 	qInverted[0] = q[0];
ARM GAS  C:\Users\ADMINI~1\AppData\Local\Temp\cc85ADh7.s 			page 6


 262:.\20648_driver\invn/ml_math_func.c **** 	qInverted[1] = -q[1];
 263:.\20648_driver\invn/ml_math_func.c **** 	qInverted[2] = -q[2];
 264:.\20648_driver\invn/ml_math_func.c **** 	qInverted[3] = -q[3];
 265:.\20648_driver\invn/ml_math_func.c **** }
 266:.\20648_driver\invn/ml_math_func.c **** 
 267:.\20648_driver\invn/ml_math_func.c **** double quaternion_to_rotation_angle(const long *quat) {
 268:.\20648_driver\invn/ml_math_func.c **** 	double quat0 = (double)quat[0] / 1073741824;
 269:.\20648_driver\invn/ml_math_func.c **** 	if (quat0 > 1.0f) {
 270:.\20648_driver\invn/ml_math_func.c **** 		quat0 = 1.0;
 271:.\20648_driver\invn/ml_math_func.c **** 	}
 272:.\20648_driver\invn/ml_math_func.c **** 	else if (quat0 < -1.0f) {
 273:.\20648_driver\invn/ml_math_func.c **** 		quat0 = -1.0;
 274:.\20648_driver\invn/ml_math_func.c **** 	}
 275:.\20648_driver\invn/ml_math_func.c **** 
 276:.\20648_driver\invn/ml_math_func.c **** 	return acos(quat0) * 2 * 180 / M_PI;
 277:.\20648_driver\invn/ml_math_func.c **** }
 278:.\20648_driver\invn/ml_math_func.c **** 
 279:.\20648_driver\invn/ml_math_func.c **** /** Rotates a 3-element vector by Rotation defined by Q
 280:.\20648_driver\invn/ml_math_func.c **** */
 281:.\20648_driver\invn/ml_math_func.c **** void inv_q_rotate(const long *q, const long *in, long *out)
 282:.\20648_driver\invn/ml_math_func.c **** {
 283:.\20648_driver\invn/ml_math_func.c **** 	long q_temp1[4], q_temp2[4];
 284:.\20648_driver\invn/ml_math_func.c **** 	long in4[4], out4[4];
 285:.\20648_driver\invn/ml_math_func.c **** 
 286:.\20648_driver\invn/ml_math_func.c **** 	// Fixme optimize
 287:.\20648_driver\invn/ml_math_func.c **** 	in4[0] = 0;
 288:.\20648_driver\invn/ml_math_func.c **** 	memcpy(&in4[1], in, 3 * sizeof(long));
 289:.\20648_driver\invn/ml_math_func.c **** 	inv_q_mult(q, in4, q_temp1);
 290:.\20648_driver\invn/ml_math_func.c **** 	inv_q_invert(q, q_temp2);
 291:.\20648_driver\invn/ml_math_func.c **** 	inv_q_mult(q_temp1, q_temp2, out4);
 292:.\20648_driver\invn/ml_math_func.c **** 	memcpy(out, &out4[1], 3 * sizeof(long));
 293:.\20648_driver\invn/ml_math_func.c **** }
 294:.\20648_driver\invn/ml_math_func.c **** 
 295:.\20648_driver\invn/ml_math_func.c **** /** Rotate a 3-element vector from body to inertial via quaternion in the DMP convention (it takes
 296:.\20648_driver\invn/ml_math_func.c **** *  inertial vector to body via B = q^-1 I q, which is same q as in I = q B q^-1 )
 297:.\20648_driver\invn/ml_math_func.c **** *  This is same convention as Matlab: http://www.mathworks.com/help/aerotbx/ug/quat2dcm.html
 298:.\20648_driver\invn/ml_math_func.c **** *  and to see these same examples ran through this function, see test/testU_ml_math_func.c
 299:.\20648_driver\invn/ml_math_func.c **** * @param[in] q_ItoB - quaternion using the DMP convention (it takes inertial vector to body via B =
 300:.\20648_driver\invn/ml_math_func.c **** * @param[in] B - vector in body frame
 301:.\20648_driver\invn/ml_math_func.c **** * @param[out] I - vector in inertial frame
 302:.\20648_driver\invn/ml_math_func.c **** */
 303:.\20648_driver\invn/ml_math_func.c **** void inv_q_rotate_BtoI(const long *q_ItoB, const long *B, long *I)
 304:.\20648_driver\invn/ml_math_func.c **** {
 305:.\20648_driver\invn/ml_math_func.c **** 	long q_ItoB_times_B[4], q_BtoI[4];
 306:.\20648_driver\invn/ml_math_func.c **** 	long B4[4], I4[4];
 307:.\20648_driver\invn/ml_math_func.c **** 
 308:.\20648_driver\invn/ml_math_func.c **** 	// put vector into last 3 slots in in4 and make 1st slot zero
 309:.\20648_driver\invn/ml_math_func.c **** 	B4[0] = 0;
 310:.\20648_driver\invn/ml_math_func.c **** 	memcpy(&B4[1], B, 3 * sizeof(long));
 311:.\20648_driver\invn/ml_math_func.c **** 
 312:.\20648_driver\invn/ml_math_func.c **** 	//compute q*B in (I = q B q^-1)
 313:.\20648_driver\invn/ml_math_func.c **** 	inv_q_mult(q_ItoB, B4, q_ItoB_times_B);
 314:.\20648_driver\invn/ml_math_func.c **** 
 315:.\20648_driver\invn/ml_math_func.c **** 	//compute q^-1 in (I = q B q^-1)
 316:.\20648_driver\invn/ml_math_func.c **** 	inv_q_invert(q_ItoB, q_BtoI);
 317:.\20648_driver\invn/ml_math_func.c **** 
 318:.\20648_driver\invn/ml_math_func.c **** 	//compute I  in (I = q B q^-1)
ARM GAS  C:\Users\ADMINI~1\AppData\Local\Temp\cc85ADh7.s 			page 7


 319:.\20648_driver\invn/ml_math_func.c **** 	inv_q_mult(q_ItoB_times_B, q_BtoI, I4);
 320:.\20648_driver\invn/ml_math_func.c **** 
 321:.\20648_driver\invn/ml_math_func.c **** 	//select just last 3 elements (could check if I4[0]==0?)
 322:.\20648_driver\invn/ml_math_func.c **** 	memcpy(I, &I4[1], 3 * sizeof(long));
 323:.\20648_driver\invn/ml_math_func.c **** }
 324:.\20648_driver\invn/ml_math_func.c **** 
 325:.\20648_driver\invn/ml_math_func.c **** /** Rotate a 3-element vector from inertial to body via quaternion in the DMP convention (it takes
 326:.\20648_driver\invn/ml_math_func.c **** *  inertial vector to body via B = q^-1 I q, which is same q as in I = q B q^-1 )
 327:.\20648_driver\invn/ml_math_func.c **** *  This is same convention as Matlab: http://www.mathworks.com/help/aerotbx/ug/quat2dcm.html
 328:.\20648_driver\invn/ml_math_func.c **** *  and to see these same examples ran through this function, see test/testU_ml_math_func.c
 329:.\20648_driver\invn/ml_math_func.c **** * @param[in] q_ItoB - quaternion which using the formula (B = q^-1 I q) takes a vector from inertia
 330:.\20648_driver\invn/ml_math_func.c **** * @param[in] I - vector in inertial frame
 331:.\20648_driver\invn/ml_math_func.c **** * @param[out] B - vector in body frame
 332:.\20648_driver\invn/ml_math_func.c **** */
 333:.\20648_driver\invn/ml_math_func.c **** void inv_q_rotate_ItoB(const long *q_ItoB, const long *I, long *B)
 334:.\20648_driver\invn/ml_math_func.c **** {
 335:.\20648_driver\invn/ml_math_func.c **** 	long q_BtoI[4], q_BtoI_times_I[4];
 336:.\20648_driver\invn/ml_math_func.c **** 	long I4[4], B4[4];
 337:.\20648_driver\invn/ml_math_func.c **** 
 338:.\20648_driver\invn/ml_math_func.c **** 	// put vector into last 3 slots in I4 and make 1st slot zero
 339:.\20648_driver\invn/ml_math_func.c **** 	I4[0] = 0;
 340:.\20648_driver\invn/ml_math_func.c **** 	memcpy(&I4[1], I, 3 * sizeof(long));
 341:.\20648_driver\invn/ml_math_func.c **** 
 342:.\20648_driver\invn/ml_math_func.c **** 	//compute q^-1 in (B = q^-1 I q)
 343:.\20648_driver\invn/ml_math_func.c **** 	inv_q_invert(q_ItoB, q_BtoI);
 344:.\20648_driver\invn/ml_math_func.c **** 
 345:.\20648_driver\invn/ml_math_func.c **** 	//compute q^-1*I in (B = q^-1 I q)
 346:.\20648_driver\invn/ml_math_func.c **** 	inv_q_mult(q_BtoI, I4, q_BtoI_times_I);
 347:.\20648_driver\invn/ml_math_func.c **** 
 348:.\20648_driver\invn/ml_math_func.c **** 	//compute (q^-1*I)*q in (B = q^-1 I q)
 349:.\20648_driver\invn/ml_math_func.c **** 	inv_q_mult(q_BtoI_times_I, q_ItoB, B4);
 350:.\20648_driver\invn/ml_math_func.c **** 
 351:.\20648_driver\invn/ml_math_func.c **** 	//select just last 3 elements in B4 (could check if B4[0]==0?)
 352:.\20648_driver\invn/ml_math_func.c **** 	memcpy(B, &B4[1], 3 * sizeof(long));
 353:.\20648_driver\invn/ml_math_func.c **** }
 354:.\20648_driver\invn/ml_math_func.c **** 
 355:.\20648_driver\invn/ml_math_func.c **** void inv_q_multf(const float *q1, const float *q2, float *qProd)
 356:.\20648_driver\invn/ml_math_func.c **** {
 357:.\20648_driver\invn/ml_math_func.c **** 	qProd[0] =
 358:.\20648_driver\invn/ml_math_func.c **** 		(q1[0] * q2[0] - q1[1] * q2[1] - q1[2] * q2[2] - q1[3] * q2[3]);
 359:.\20648_driver\invn/ml_math_func.c **** 	qProd[1] =
 360:.\20648_driver\invn/ml_math_func.c **** 		(q1[0] * q2[1] + q1[1] * q2[0] + q1[2] * q2[3] - q1[3] * q2[2]);
 361:.\20648_driver\invn/ml_math_func.c **** 	qProd[2] =
 362:.\20648_driver\invn/ml_math_func.c **** 		(q1[0] * q2[2] - q1[1] * q2[3] + q1[2] * q2[0] + q1[3] * q2[1]);
 363:.\20648_driver\invn/ml_math_func.c **** 	qProd[3] =
 364:.\20648_driver\invn/ml_math_func.c **** 		(q1[0] * q2[3] + q1[1] * q2[2] - q1[2] * q2[1] + q1[3] * q2[0]);
 365:.\20648_driver\invn/ml_math_func.c **** }
 366:.\20648_driver\invn/ml_math_func.c **** 
 367:.\20648_driver\invn/ml_math_func.c **** void inv_q_addf(const float *q1, const float *q2, float *qSum)
 368:.\20648_driver\invn/ml_math_func.c **** {
 369:.\20648_driver\invn/ml_math_func.c **** 	qSum[0] = q1[0] + q2[0];
 370:.\20648_driver\invn/ml_math_func.c **** 	qSum[1] = q1[1] + q2[1];
 371:.\20648_driver\invn/ml_math_func.c **** 	qSum[2] = q1[2] + q2[2];
 372:.\20648_driver\invn/ml_math_func.c **** 	qSum[3] = q1[3] + q2[3];
 373:.\20648_driver\invn/ml_math_func.c **** }
 374:.\20648_driver\invn/ml_math_func.c **** 
 375:.\20648_driver\invn/ml_math_func.c **** void inv_q_normalizef(float *q)
ARM GAS  C:\Users\ADMINI~1\AppData\Local\Temp\cc85ADh7.s 			page 8


 376:.\20648_driver\invn/ml_math_func.c **** {
 377:.\20648_driver\invn/ml_math_func.c **** 	float normSF = 0;
 378:.\20648_driver\invn/ml_math_func.c **** 	float xHalf = 0;
 379:.\20648_driver\invn/ml_math_func.c **** 	normSF = (q[0] * q[0] + q[1] * q[1] + q[2] * q[2] + q[3] * q[3]);
 380:.\20648_driver\invn/ml_math_func.c **** 	if (normSF < 2) {
 381:.\20648_driver\invn/ml_math_func.c **** 		xHalf = 0.5f * normSF;
 382:.\20648_driver\invn/ml_math_func.c **** 		normSF = normSF * (1.5f - xHalf * normSF * normSF);
 383:.\20648_driver\invn/ml_math_func.c **** 		normSF = normSF * (1.5f - xHalf * normSF * normSF);
 384:.\20648_driver\invn/ml_math_func.c **** 		normSF = normSF * (1.5f - xHalf * normSF * normSF);
 385:.\20648_driver\invn/ml_math_func.c **** 		normSF = normSF * (1.5f - xHalf * normSF * normSF);
 386:.\20648_driver\invn/ml_math_func.c **** 		q[0] *= normSF;
 387:.\20648_driver\invn/ml_math_func.c **** 		q[1] *= normSF;
 388:.\20648_driver\invn/ml_math_func.c **** 		q[2] *= normSF;
 389:.\20648_driver\invn/ml_math_func.c **** 		q[3] *= normSF;
 390:.\20648_driver\invn/ml_math_func.c **** 	}
 391:.\20648_driver\invn/ml_math_func.c **** 	else {
 392:.\20648_driver\invn/ml_math_func.c **** 		q[0] = 1.0;
 393:.\20648_driver\invn/ml_math_func.c **** 		q[1] = 0.0;
 394:.\20648_driver\invn/ml_math_func.c **** 		q[2] = 0.0;
 395:.\20648_driver\invn/ml_math_func.c **** 		q[3] = 0.0;
 396:.\20648_driver\invn/ml_math_func.c **** 	}
 397:.\20648_driver\invn/ml_math_func.c **** 	normSF = (q[0] * q[0] + q[1] * q[1] + q[2] * q[2] + q[3] * q[3]);
 398:.\20648_driver\invn/ml_math_func.c **** }
 399:.\20648_driver\invn/ml_math_func.c **** 
 400:.\20648_driver\invn/ml_math_func.c **** /** Performs a length 4 vector normalization with a square root.
 401:.\20648_driver\invn/ml_math_func.c **** * @param[in,out] q vector to normalize. Returns [1,0,0,0] is magnitude is zero.
 402:.\20648_driver\invn/ml_math_func.c **** */
 403:.\20648_driver\invn/ml_math_func.c **** void inv_q_norm4(float *q)
 404:.\20648_driver\invn/ml_math_func.c **** {
 405:.\20648_driver\invn/ml_math_func.c **** 	float mag;
 406:.\20648_driver\invn/ml_math_func.c **** 	mag = sqrtf(q[0] * q[0] + q[1] * q[1] + q[2] * q[2] + q[3] * q[3]);
 407:.\20648_driver\invn/ml_math_func.c **** 	if (mag) {
 408:.\20648_driver\invn/ml_math_func.c **** 		q[0] /= mag;
 409:.\20648_driver\invn/ml_math_func.c **** 		q[1] /= mag;
 410:.\20648_driver\invn/ml_math_func.c **** 		q[2] /= mag;
 411:.\20648_driver\invn/ml_math_func.c **** 		q[3] /= mag;
 412:.\20648_driver\invn/ml_math_func.c **** 	}
 413:.\20648_driver\invn/ml_math_func.c **** 	else {
 414:.\20648_driver\invn/ml_math_func.c **** 		q[0] = 1.f;
 415:.\20648_driver\invn/ml_math_func.c **** 		q[1] = 0.f;
 416:.\20648_driver\invn/ml_math_func.c **** 		q[2] = 0.f;
 417:.\20648_driver\invn/ml_math_func.c **** 		q[3] = 0.f;
 418:.\20648_driver\invn/ml_math_func.c **** 	}
 419:.\20648_driver\invn/ml_math_func.c **** }
 420:.\20648_driver\invn/ml_math_func.c **** 
 421:.\20648_driver\invn/ml_math_func.c **** void inv_q_invertf(const float *q, float *qInverted)
 422:.\20648_driver\invn/ml_math_func.c **** {
 423:.\20648_driver\invn/ml_math_func.c **** 	qInverted[0] = q[0];
 424:.\20648_driver\invn/ml_math_func.c **** 	qInverted[1] = -q[1];
 425:.\20648_driver\invn/ml_math_func.c **** 	qInverted[2] = -q[2];
 426:.\20648_driver\invn/ml_math_func.c **** 	qInverted[3] = -q[3];
 427:.\20648_driver\invn/ml_math_func.c **** }
 428:.\20648_driver\invn/ml_math_func.c **** 
 429:.\20648_driver\invn/ml_math_func.c **** /**
 430:.\20648_driver\invn/ml_math_func.c **** * Does triad in ENU (Z-up Y-north) convention
 431:.\20648_driver\invn/ml_math_func.c **** * one-step triad - get quaternion from accel and compass at one instant.
 432:.\20648_driver\invn/ml_math_func.c **** * based on a modified version of triad.m in users\algorithms folder (no transpose on "R = [X, Y, Z]
ARM GAS  C:\Users\ADMINI~1\AppData\Local\Temp\cc85ADh7.s 			page 9


 433:.\20648_driver\invn/ml_math_func.c **** * should return q=[334637952 -284493440 703934784 681526400] when
 434:.\20648_driver\invn/ml_math_func.c **** * when accel=[-24998052 22384162 0], compass=[1754490 -1443843 1307299], and accel_fs=11.
 435:.\20648_driver\invn/ml_math_func.c **** *
 436:.\20648_driver\invn/ml_math_func.c **** * @param[in] long accel_body[3] - accel in rawscaled units
 437:.\20648_driver\invn/ml_math_func.c **** *            long compass_body[3] - compass in rawscaled units (1uT=2^16lsb)
 438:.\20648_driver\invn/ml_math_func.c **** *            long accel_fs - how is accel scaled (11 = 2g, 12=4g, etc)
 439:.\20648_driver\invn/ml_math_func.c **** * @param[out] long Qbi_fp[4] - quaternion in fixed point that takes you from Inertial to Body frame
 440:.\20648_driver\invn/ml_math_func.c **** */
 441:.\20648_driver\invn/ml_math_func.c **** void inv_triad(long *accel_body, long *compass_body, long accel_fs, long *Qbi_fp)
 442:.\20648_driver\invn/ml_math_func.c **** {
 443:.\20648_driver\invn/ml_math_func.c **** 	float acc[3], an, mag[3], mn, X[3], Xn, Y[3], Z[3], O_BI[9];
 444:.\20648_driver\invn/ml_math_func.c **** 
 445:.\20648_driver\invn/ml_math_func.c **** 	acc[0] = (float)accel_body[0] / ((float)(1 << (14 + accel_fs))); //get accel into float g's, ie di
 446:.\20648_driver\invn/ml_math_func.c **** 	acc[1] = (float)accel_body[1] / ((float)(1 << (14 + accel_fs)));
 447:.\20648_driver\invn/ml_math_func.c **** 	acc[2] = (float)accel_body[2] / ((float)(1 << (14 + accel_fs)));
 448:.\20648_driver\invn/ml_math_func.c **** 
 449:.\20648_driver\invn/ml_math_func.c **** 	mag[0] = (float)compass_body[0] / ((float)(1 << 16)); //get compass into float uT's, ie divide Raw
 450:.\20648_driver\invn/ml_math_func.c **** 	mag[1] = (float)compass_body[1] / ((float)(1 << 16));
 451:.\20648_driver\invn/ml_math_func.c **** 	mag[2] = (float)compass_body[2] / ((float)(1 << 16));
 452:.\20648_driver\invn/ml_math_func.c **** 
 453:.\20648_driver\invn/ml_math_func.c **** 	//Z = accel/norm(accel);
 454:.\20648_driver\invn/ml_math_func.c **** 	an = sqrtf(acc[0] * acc[0] + acc[1] * acc[1] + acc[2] * acc[2]); //acc norm
 455:.\20648_driver\invn/ml_math_func.c **** 	Z[0] = acc[0] / an;
 456:.\20648_driver\invn/ml_math_func.c **** 	Z[1] = acc[1] / an;
 457:.\20648_driver\invn/ml_math_func.c **** 	Z[2] = acc[2] / an;
 458:.\20648_driver\invn/ml_math_func.c **** 
 459:.\20648_driver\invn/ml_math_func.c **** 	//compass = compass/norm(compass);
 460:.\20648_driver\invn/ml_math_func.c **** 	mn = sqrtf(mag[0] * mag[0] + mag[1] * mag[1] + mag[2] * mag[2]); //mag norm
 461:.\20648_driver\invn/ml_math_func.c **** 	mag[0] = mag[0] / mn;
 462:.\20648_driver\invn/ml_math_func.c **** 	mag[1] = mag[1] / mn;
 463:.\20648_driver\invn/ml_math_func.c **** 	mag[2] = mag[2] / mn;
 464:.\20648_driver\invn/ml_math_func.c **** 
 465:.\20648_driver\invn/ml_math_func.c **** 	//X = cross(compass, Z);
 466:.\20648_driver\invn/ml_math_func.c **** 	X[0] = -mag[2] * Z[1] + mag[1] * Z[2];
 467:.\20648_driver\invn/ml_math_func.c **** 	X[1] = mag[2] * Z[0] - mag[0] * Z[2];
 468:.\20648_driver\invn/ml_math_func.c **** 	X[2] = -mag[1] * Z[0] + mag[0] * Z[1];
 469:.\20648_driver\invn/ml_math_func.c **** 
 470:.\20648_driver\invn/ml_math_func.c **** 	//X = X/norm(X);
 471:.\20648_driver\invn/ml_math_func.c **** 	Xn = sqrtf(X[0] * X[0] + X[1] * X[1] + X[2] * X[2]); //X norm
 472:.\20648_driver\invn/ml_math_func.c **** 	X[0] = X[0] / Xn;
 473:.\20648_driver\invn/ml_math_func.c **** 	X[1] = X[1] / Xn;
 474:.\20648_driver\invn/ml_math_func.c **** 	X[2] = X[2] / Xn;
 475:.\20648_driver\invn/ml_math_func.c **** 
 476:.\20648_driver\invn/ml_math_func.c **** 	//Y = cross(Z, X);
 477:.\20648_driver\invn/ml_math_func.c **** 	Y[0] = -Z[2] * X[1] + Z[1] * X[2];
 478:.\20648_driver\invn/ml_math_func.c **** 	Y[1] = Z[2] * X[0] - Z[0] * X[2];
 479:.\20648_driver\invn/ml_math_func.c **** 	Y[2] = -Z[1] * X[0] + Z[0] * X[1];
 480:.\20648_driver\invn/ml_math_func.c **** 
 481:.\20648_driver\invn/ml_math_func.c **** 	//O = [X, Y, Z];
 482:.\20648_driver\invn/ml_math_func.c **** 	O_BI[0] = X[0]; O_BI[1] = Y[0]; O_BI[2] = Z[0];
 483:.\20648_driver\invn/ml_math_func.c **** 	O_BI[3] = X[1]; O_BI[4] = Y[1]; O_BI[5] = Z[1];
 484:.\20648_driver\invn/ml_math_func.c **** 	O_BI[6] = X[2]; O_BI[7] = Y[2]; O_BI[8] = Z[2];
 485:.\20648_driver\invn/ml_math_func.c **** 
 486:.\20648_driver\invn/ml_math_func.c **** 	//q = O2q(O);
 487:.\20648_driver\invn/ml_math_func.c **** 	inv_rotation_to_quaternion(O_BI, Qbi_fp);
 488:.\20648_driver\invn/ml_math_func.c **** }
 489:.\20648_driver\invn/ml_math_func.c **** 
ARM GAS  C:\Users\ADMINI~1\AppData\Local\Temp\cc85ADh7.s 			page 10


 490:.\20648_driver\invn/ml_math_func.c **** void inv_triad_fxp_xnorth(const long *accel, const long *compass, long *quat)
 491:.\20648_driver\invn/ml_math_func.c **** {
 492:.\20648_driver\invn/ml_math_func.c **** 	//if (norm(accel)==0 || norm(compass)==0 )%|| norm(accel)> 1.1)
 493:.\20648_driver\invn/ml_math_func.c **** 	//    q=qCurrent;
 494:.\20648_driver\invn/ml_math_func.c **** 	//    return
 495:.\20648_driver\invn/ml_math_func.c **** 	//end
 496:.\20648_driver\invn/ml_math_func.c **** 	//
 497:.\20648_driver\invn/ml_math_func.c **** 	//Z = accel/norm(accel);
 498:.\20648_driver\invn/ml_math_func.c **** 	//compass = compass/norm(compass);
 499:.\20648_driver\invn/ml_math_func.c **** 	//
 500:.\20648_driver\invn/ml_math_func.c **** 	//X = cross(compass, Z);
 501:.\20648_driver\invn/ml_math_func.c **** 	//X = X/norm(X);
 502:.\20648_driver\invn/ml_math_func.c **** 	//Y = cross(Z, X);
 503:.\20648_driver\invn/ml_math_func.c **** 	//
 504:.\20648_driver\invn/ml_math_func.c **** 	//R = [X, Y, Z]';
 505:.\20648_driver\invn/ml_math_func.c **** 	//q = dcmToQuat(R);
 506:.\20648_driver\invn/ml_math_func.c **** 
 507:.\20648_driver\invn/ml_math_func.c **** 	long tmp;
 508:.\20648_driver\invn/ml_math_func.c **** 	long R[9], rot[9];
 509:.\20648_driver\invn/ml_math_func.c **** 	long *X, *Y, *Z;
 510:.\20648_driver\invn/ml_math_func.c **** 	int shift, pow2;
 511:.\20648_driver\invn/ml_math_func.c **** 
 512:.\20648_driver\invn/ml_math_func.c **** 	X = R;
 513:.\20648_driver\invn/ml_math_func.c **** 	Y = (long*)(R + 3);
 514:.\20648_driver\invn/ml_math_func.c **** 	Z = (long*)(R + 6);
 515:.\20648_driver\invn/ml_math_func.c **** 
 516:.\20648_driver\invn/ml_math_func.c **** 	// Normalize
 517:.\20648_driver\invn/ml_math_func.c **** 	tmp = (long)(((long long)accel[0] * accel[0] +
 518:.\20648_driver\invn/ml_math_func.c **** 		(long long)accel[1] * accel[1] +
 519:.\20648_driver\invn/ml_math_func.c **** 		(long long)accel[2] * accel[2]) >> 30);
 520:.\20648_driver\invn/ml_math_func.c **** 
 521:.\20648_driver\invn/ml_math_func.c **** 	tmp = inverse_sqrt_q30(tmp, &pow2);
 522:.\20648_driver\invn/ml_math_func.c **** 	if (tmp > 0)
 523:.\20648_driver\invn/ml_math_func.c **** 	{
 524:.\20648_driver\invn/ml_math_func.c **** 		shift = 30 - pow2;
 525:.\20648_driver\invn/ml_math_func.c **** 		Z[0] = (long)(((long long)accel[0] * tmp) >> shift);
 526:.\20648_driver\invn/ml_math_func.c **** 		Z[1] = (long)(((long long)accel[1] * tmp) >> shift);
 527:.\20648_driver\invn/ml_math_func.c **** 		Z[2] = (long)(((long long)accel[2] * tmp) >> shift);
 528:.\20648_driver\invn/ml_math_func.c **** 	}
 529:.\20648_driver\invn/ml_math_func.c **** 	else
 530:.\20648_driver\invn/ml_math_func.c **** 		return;
 531:.\20648_driver\invn/ml_math_func.c **** 
 532:.\20648_driver\invn/ml_math_func.c **** 
 533:.\20648_driver\invn/ml_math_func.c **** 	// Cross product Z x compass and get Y
 534:.\20648_driver\invn/ml_math_func.c **** 	// Cross Vert x compass --> North direction
 535:.\20648_driver\invn/ml_math_func.c **** 	Y[0] = (long)(((long long)Z[1] * compass[2] - (long long)Z[2] * compass[1]) >> 30);
 536:.\20648_driver\invn/ml_math_func.c **** 	Y[1] = (long)(((long long)Z[2] * compass[0] - (long long)Z[0] * compass[2]) >> 30);
 537:.\20648_driver\invn/ml_math_func.c **** 	Y[2] = (long)(((long long)Z[0] * compass[1] - (long long)Z[1] * compass[0]) >> 30);
 538:.\20648_driver\invn/ml_math_func.c **** 
 539:.\20648_driver\invn/ml_math_func.c **** 	tmp = (long)(((long long)Y[0] * Y[0] +
 540:.\20648_driver\invn/ml_math_func.c **** 		(long long)Y[1] * Y[1] +
 541:.\20648_driver\invn/ml_math_func.c **** 		(long long)Y[2] * Y[2]) >> 30);
 542:.\20648_driver\invn/ml_math_func.c **** 
 543:.\20648_driver\invn/ml_math_func.c **** 	tmp = inverse_sqrt_q30(tmp, &pow2);
 544:.\20648_driver\invn/ml_math_func.c **** 	if (tmp > 0)
 545:.\20648_driver\invn/ml_math_func.c **** 	{
 546:.\20648_driver\invn/ml_math_func.c **** 		shift = 30 - pow2;
ARM GAS  C:\Users\ADMINI~1\AppData\Local\Temp\cc85ADh7.s 			page 11


 547:.\20648_driver\invn/ml_math_func.c **** 		Y[0] = (long)(((long long)Y[0] * tmp) >> shift);
 548:.\20648_driver\invn/ml_math_func.c **** 		Y[1] = (long)(((long long)Y[1] * tmp) >> shift);
 549:.\20648_driver\invn/ml_math_func.c **** 		Y[2] = (long)(((long long)Y[2] * tmp) >> shift);
 550:.\20648_driver\invn/ml_math_func.c **** 	}
 551:.\20648_driver\invn/ml_math_func.c **** 	else
 552:.\20648_driver\invn/ml_math_func.c **** 		return;
 553:.\20648_driver\invn/ml_math_func.c **** 
 554:.\20648_driver\invn/ml_math_func.c **** 	// Cross product: YxZ and get X
 555:.\20648_driver\invn/ml_math_func.c **** 	// Cross Vert x East -- > North direction
 556:.\20648_driver\invn/ml_math_func.c **** 	// Result is unit norm since both vectors are normalized.
 557:.\20648_driver\invn/ml_math_func.c **** 	X[0] = (long)(((long long)Y[1] * Z[2] - (long long)Y[2] * Z[1]) >> 30);
 558:.\20648_driver\invn/ml_math_func.c **** 	X[1] = (long)(((long long)Y[2] * Z[0] - (long long)Y[0] * Z[2]) >> 30);
 559:.\20648_driver\invn/ml_math_func.c **** 	X[2] = (long)(((long long)Y[0] * Z[1] - (long long)Y[1] * Z[0]) >> 30);
 560:.\20648_driver\invn/ml_math_func.c **** 
 561:.\20648_driver\invn/ml_math_func.c **** 	rot[0] = R[0];
 562:.\20648_driver\invn/ml_math_func.c **** 	rot[3] = R[1];
 563:.\20648_driver\invn/ml_math_func.c **** 	rot[6] = R[2];
 564:.\20648_driver\invn/ml_math_func.c **** 
 565:.\20648_driver\invn/ml_math_func.c **** 	rot[1] = R[3];
 566:.\20648_driver\invn/ml_math_func.c **** 	rot[4] = R[4];
 567:.\20648_driver\invn/ml_math_func.c **** 	rot[7] = R[5];
 568:.\20648_driver\invn/ml_math_func.c **** 
 569:.\20648_driver\invn/ml_math_func.c **** 	rot[2] = R[6];
 570:.\20648_driver\invn/ml_math_func.c **** 	rot[5] = R[7];
 571:.\20648_driver\invn/ml_math_func.c **** 	rot[8] = R[8];
 572:.\20648_driver\invn/ml_math_func.c **** 
 573:.\20648_driver\invn/ml_math_func.c **** 	inv_rotation_to_quaternion_fxp(rot, quat);
 574:.\20648_driver\invn/ml_math_func.c **** 
 575:.\20648_driver\invn/ml_math_func.c **** 
 576:.\20648_driver\invn/ml_math_func.c **** 	return;
 577:.\20648_driver\invn/ml_math_func.c **** }
 578:.\20648_driver\invn/ml_math_func.c **** 
 579:.\20648_driver\invn/ml_math_func.c **** 
 580:.\20648_driver\invn/ml_math_func.c **** void inv_triad_fxp_ynorth(const long *accel, const long *compass, long *quat)
 581:.\20648_driver\invn/ml_math_func.c **** {
 582:.\20648_driver\invn/ml_math_func.c **** 	//if (norm(accel)==0 || norm(compass)==0 )%|| norm(accel)> 1.1)
 583:.\20648_driver\invn/ml_math_func.c **** 	//    q=qCurrent;
 584:.\20648_driver\invn/ml_math_func.c **** 	//    return
 585:.\20648_driver\invn/ml_math_func.c **** 	//end
 586:.\20648_driver\invn/ml_math_func.c **** 	//
 587:.\20648_driver\invn/ml_math_func.c **** 	//Z = accel/norm(accel);
 588:.\20648_driver\invn/ml_math_func.c **** 	//compass = compass/norm(compass);
 589:.\20648_driver\invn/ml_math_func.c **** 	//
 590:.\20648_driver\invn/ml_math_func.c **** 	//X = cross(compass, Z);
 591:.\20648_driver\invn/ml_math_func.c **** 	//X = X/norm(X);
 592:.\20648_driver\invn/ml_math_func.c **** 	//Y = cross(Z, X);
 593:.\20648_driver\invn/ml_math_func.c **** 	//
 594:.\20648_driver\invn/ml_math_func.c **** 	//R = [X, Y, Z]';
 595:.\20648_driver\invn/ml_math_func.c **** 	//q = dcmToQuat(R);
 596:.\20648_driver\invn/ml_math_func.c **** 
 597:.\20648_driver\invn/ml_math_func.c **** 	long tmp;
 598:.\20648_driver\invn/ml_math_func.c **** 	long R[9], rot[9];
 599:.\20648_driver\invn/ml_math_func.c **** 	long *X, *Y, *Z;
 600:.\20648_driver\invn/ml_math_func.c **** 	int shift, pow2;
 601:.\20648_driver\invn/ml_math_func.c **** 
 602:.\20648_driver\invn/ml_math_func.c **** 	X = R;
 603:.\20648_driver\invn/ml_math_func.c **** 	Y = (long*)(R + 3);
ARM GAS  C:\Users\ADMINI~1\AppData\Local\Temp\cc85ADh7.s 			page 12


 604:.\20648_driver\invn/ml_math_func.c **** 	Z = (long*)(R + 6);
 605:.\20648_driver\invn/ml_math_func.c **** 
 606:.\20648_driver\invn/ml_math_func.c **** 	// Normalize
 607:.\20648_driver\invn/ml_math_func.c **** 	tmp = (long)(((long long)accel[0] * accel[0] +
 608:.\20648_driver\invn/ml_math_func.c **** 		(long long)accel[1] * accel[1] +
 609:.\20648_driver\invn/ml_math_func.c **** 		(long long)accel[2] * accel[2]) >> 30);
 610:.\20648_driver\invn/ml_math_func.c **** 
 611:.\20648_driver\invn/ml_math_func.c **** 	tmp = inverse_sqrt_q30(tmp, &pow2);
 612:.\20648_driver\invn/ml_math_func.c **** 	if (tmp > 0)
 613:.\20648_driver\invn/ml_math_func.c **** 	{
 614:.\20648_driver\invn/ml_math_func.c **** 		shift = 30 - pow2;
 615:.\20648_driver\invn/ml_math_func.c **** 		Z[0] = (long)(((long long)accel[0] * tmp) >> shift);
 616:.\20648_driver\invn/ml_math_func.c **** 		Z[1] = (long)(((long long)accel[1] * tmp) >> shift);
 617:.\20648_driver\invn/ml_math_func.c **** 		Z[2] = (long)(((long long)accel[2] * tmp) >> shift);
 618:.\20648_driver\invn/ml_math_func.c **** 	}
 619:.\20648_driver\invn/ml_math_func.c **** 	else
 620:.\20648_driver\invn/ml_math_func.c **** 		return;
 621:.\20648_driver\invn/ml_math_func.c **** 
 622:.\20648_driver\invn/ml_math_func.c **** 	/*
 623:.\20648_driver\invn/ml_math_func.c **** 	X[0] = - mag[2] * Z[1] + mag[1] * Z[2];
 624:.\20648_driver\invn/ml_math_func.c **** 	X[1] =   mag[2] * Z[0] - mag[0] * Z[2];
 625:.\20648_driver\invn/ml_math_func.c **** 	X[2] = - mag[1] * Z[0] + mag[0] * Z[1];
 626:.\20648_driver\invn/ml_math_func.c **** 	*/
 627:.\20648_driver\invn/ml_math_func.c **** 
 628:.\20648_driver\invn/ml_math_func.c **** 	// Cross product compass x Z and get X
 629:.\20648_driver\invn/ml_math_func.c **** 	X[0] = (long)((-(long long)Z[1] * compass[2] + (long long)Z[2] * compass[1]) >> 30);
 630:.\20648_driver\invn/ml_math_func.c **** 	X[1] = (long)((-(long long)Z[2] * compass[0] + (long long)Z[0] * compass[2]) >> 30);
 631:.\20648_driver\invn/ml_math_func.c **** 	X[2] = (long)((-(long long)Z[0] * compass[1] + (long long)Z[1] * compass[0]) >> 30);
 632:.\20648_driver\invn/ml_math_func.c **** 
 633:.\20648_driver\invn/ml_math_func.c **** 	tmp = (long)(((long long)X[0] * X[0] +
 634:.\20648_driver\invn/ml_math_func.c **** 		(long long)X[1] * X[1] +
 635:.\20648_driver\invn/ml_math_func.c **** 		(long long)X[2] * X[2]) >> 30);
 636:.\20648_driver\invn/ml_math_func.c **** 
 637:.\20648_driver\invn/ml_math_func.c **** 	tmp = inverse_sqrt_q30(tmp, &pow2);
 638:.\20648_driver\invn/ml_math_func.c **** 	if (tmp > 0)
 639:.\20648_driver\invn/ml_math_func.c **** 	{
 640:.\20648_driver\invn/ml_math_func.c **** 		shift = 30 - pow2;
 641:.\20648_driver\invn/ml_math_func.c **** 		X[0] = (long)(((long long)X[0] * tmp) >> shift);
 642:.\20648_driver\invn/ml_math_func.c **** 		X[1] = (long)(((long long)X[1] * tmp) >> shift);
 643:.\20648_driver\invn/ml_math_func.c **** 		X[2] = (long)(((long long)X[2] * tmp) >> shift);
 644:.\20648_driver\invn/ml_math_func.c **** 	}
 645:.\20648_driver\invn/ml_math_func.c **** 	else
 646:.\20648_driver\invn/ml_math_func.c **** 		return;
 647:.\20648_driver\invn/ml_math_func.c **** 
 648:.\20648_driver\invn/ml_math_func.c **** 	/*
 649:.\20648_driver\invn/ml_math_func.c **** 	Y[0] = - Z[2] * X[1] + Z[1] * X[2];
 650:.\20648_driver\invn/ml_math_func.c **** 	Y[1] =   Z[2] * X[0] - Z[0] * X[2];
 651:.\20648_driver\invn/ml_math_func.c **** 	Y[2] = - Z[1] * X[0] + Z[0] * X[1];
 652:.\20648_driver\invn/ml_math_func.c **** 	*/
 653:.\20648_driver\invn/ml_math_func.c **** 
 654:.\20648_driver\invn/ml_math_func.c **** 	// Cross product: ZxX and get Y
 655:.\20648_driver\invn/ml_math_func.c **** 	Y[0] = (long)((-(long long)X[1] * Z[2] + (long long)X[2] * Z[1]) >> 30);
 656:.\20648_driver\invn/ml_math_func.c **** 	Y[1] = (long)((-(long long)X[2] * Z[0] + (long long)X[0] * Z[2]) >> 30);
 657:.\20648_driver\invn/ml_math_func.c **** 	Y[2] = (long)((-(long long)X[0] * Z[1] + (long long)X[1] * Z[0]) >> 30);
 658:.\20648_driver\invn/ml_math_func.c **** 
 659:.\20648_driver\invn/ml_math_func.c **** 
 660:.\20648_driver\invn/ml_math_func.c **** 	rot[0] = R[0];
ARM GAS  C:\Users\ADMINI~1\AppData\Local\Temp\cc85ADh7.s 			page 13


 661:.\20648_driver\invn/ml_math_func.c **** 	rot[3] = R[1];
 662:.\20648_driver\invn/ml_math_func.c **** 	rot[6] = R[2];
 663:.\20648_driver\invn/ml_math_func.c **** 
 664:.\20648_driver\invn/ml_math_func.c **** 	rot[1] = R[3];
 665:.\20648_driver\invn/ml_math_func.c **** 	rot[4] = R[4];
 666:.\20648_driver\invn/ml_math_func.c **** 	rot[7] = R[5];
 667:.\20648_driver\invn/ml_math_func.c **** 
 668:.\20648_driver\invn/ml_math_func.c **** 	rot[2] = R[6];
 669:.\20648_driver\invn/ml_math_func.c **** 	rot[5] = R[7];
 670:.\20648_driver\invn/ml_math_func.c **** 	rot[8] = R[8];
 671:.\20648_driver\invn/ml_math_func.c **** 
 672:.\20648_driver\invn/ml_math_func.c **** 	inv_rotation_to_quaternion_fxp(rot, quat);
 673:.\20648_driver\invn/ml_math_func.c **** 
 674:.\20648_driver\invn/ml_math_func.c **** 	return;
 675:.\20648_driver\invn/ml_math_func.c **** }
 676:.\20648_driver\invn/ml_math_func.c **** 
 677:.\20648_driver\invn/ml_math_func.c **** /**
 678:.\20648_driver\invn/ml_math_func.c **** * Converts a rotation matrix to a quaternion.
 679:.\20648_driver\invn/ml_math_func.c **** * @param[in] Rcb Rotation matrix in floating point. The
 680:.\20648_driver\invn/ml_math_func.c **** *             First 3 elements of the rotation matrix, represent
 681:.\20648_driver\invn/ml_math_func.c **** *             the first row of the matrix.
 682:.\20648_driver\invn/ml_math_func.c **** * @param[out] Qcb_fp 4-element quaternion in fixed point. One is 2^30.
 683:.\20648_driver\invn/ml_math_func.c **** */
 684:.\20648_driver\invn/ml_math_func.c **** void inv_rotation_to_quaternion(float *Rcb, long *Qcb_fp)
 685:.\20648_driver\invn/ml_math_func.c **** {
 686:.\20648_driver\invn/ml_math_func.c **** 	float r11, r12, r13, r21, r22, r23, r31, r32, r33;
 687:.\20648_driver\invn/ml_math_func.c **** 	float Qcb[4];
 688:.\20648_driver\invn/ml_math_func.c **** 
 689:.\20648_driver\invn/ml_math_func.c **** 	r11 = Rcb[0]; //assume matrix is stored row wise first, that is rot[1] is row 1, col 2
 690:.\20648_driver\invn/ml_math_func.c **** 	r12 = Rcb[1];
 691:.\20648_driver\invn/ml_math_func.c **** 	r13 = Rcb[2];
 692:.\20648_driver\invn/ml_math_func.c **** 
 693:.\20648_driver\invn/ml_math_func.c **** 	r21 = Rcb[3];
 694:.\20648_driver\invn/ml_math_func.c **** 	r22 = Rcb[4];
 695:.\20648_driver\invn/ml_math_func.c **** 	r23 = Rcb[5];
 696:.\20648_driver\invn/ml_math_func.c **** 
 697:.\20648_driver\invn/ml_math_func.c **** 	r31 = Rcb[6];
 698:.\20648_driver\invn/ml_math_func.c **** 	r32 = Rcb[7];
 699:.\20648_driver\invn/ml_math_func.c **** 	r33 = Rcb[8];
 700:.\20648_driver\invn/ml_math_func.c **** 
 701:.\20648_driver\invn/ml_math_func.c **** 	Qcb[0] = (1.f + r11 + r22 + r33) / 4.f;
 702:.\20648_driver\invn/ml_math_func.c **** 	Qcb[1] = (1.f + r11 - r22 - r33) / 4.f;
 703:.\20648_driver\invn/ml_math_func.c **** 	Qcb[2] = (1.f - r11 + r22 - r33) / 4.f;
 704:.\20648_driver\invn/ml_math_func.c **** 	Qcb[3] = (1.f - r11 - r22 + r33) / 4.f;
 705:.\20648_driver\invn/ml_math_func.c **** 
 706:.\20648_driver\invn/ml_math_func.c **** 	if (Qcb[0] < 0.0f) Qcb[0] = 0.0f;
 707:.\20648_driver\invn/ml_math_func.c **** 	if (Qcb[1] < 0.0f) Qcb[1] = 0.0f;
 708:.\20648_driver\invn/ml_math_func.c **** 	if (Qcb[2] < 0.0f) Qcb[2] = 0.0f;
 709:.\20648_driver\invn/ml_math_func.c **** 	if (Qcb[3] < 0.0f) Qcb[3] = 0.0f;
 710:.\20648_driver\invn/ml_math_func.c **** 	Qcb[0] = sqrtf(Qcb[0]);
 711:.\20648_driver\invn/ml_math_func.c **** 	Qcb[1] = sqrtf(Qcb[1]);
 712:.\20648_driver\invn/ml_math_func.c **** 	Qcb[2] = sqrtf(Qcb[2]);
 713:.\20648_driver\invn/ml_math_func.c **** 	Qcb[3] = sqrtf(Qcb[3]);
 714:.\20648_driver\invn/ml_math_func.c **** 
 715:.\20648_driver\invn/ml_math_func.c **** 	if (Qcb[0] >= Qcb[1] && Qcb[0] >= Qcb[2] && Qcb[0] >= Qcb[3]) //Qcb[0] is max
 716:.\20648_driver\invn/ml_math_func.c **** 	{
 717:.\20648_driver\invn/ml_math_func.c **** 		Qcb[1] = (r23 - r32) / (4.f*Qcb[0]);
ARM GAS  C:\Users\ADMINI~1\AppData\Local\Temp\cc85ADh7.s 			page 14


 718:.\20648_driver\invn/ml_math_func.c **** 		Qcb[2] = (r31 - r13) / (4.f*Qcb[0]);
 719:.\20648_driver\invn/ml_math_func.c **** 		Qcb[3] = (r12 - r21) / (4.f*Qcb[0]);
 720:.\20648_driver\invn/ml_math_func.c **** 	}
 721:.\20648_driver\invn/ml_math_func.c **** 	else if (Qcb[1] >= Qcb[0] && Qcb[1] >= Qcb[2] && Qcb[1] >= Qcb[3]) //Qcb[1] is max
 722:.\20648_driver\invn/ml_math_func.c **** 	{
 723:.\20648_driver\invn/ml_math_func.c **** 		Qcb[0] = (r23 - r32) / (4.f*Qcb[1]);
 724:.\20648_driver\invn/ml_math_func.c **** 		Qcb[2] = (r12 + r21) / (4.f*Qcb[1]);
 725:.\20648_driver\invn/ml_math_func.c **** 		Qcb[3] = (r31 + r13) / (4.f*Qcb[1]);
 726:.\20648_driver\invn/ml_math_func.c **** 	}
 727:.\20648_driver\invn/ml_math_func.c **** 	else if (Qcb[2] >= Qcb[0] && Qcb[2] >= Qcb[1] && Qcb[2] >= Qcb[3]) //Qcb[2] is max
 728:.\20648_driver\invn/ml_math_func.c **** 	{
 729:.\20648_driver\invn/ml_math_func.c **** 		Qcb[0] = (r31 - r13) / (4.f*Qcb[2]);
 730:.\20648_driver\invn/ml_math_func.c **** 		Qcb[1] = (r12 + r21) / (4.f*Qcb[2]);
 731:.\20648_driver\invn/ml_math_func.c **** 		Qcb[3] = (r23 + r32) / (4.f*Qcb[2]);
 732:.\20648_driver\invn/ml_math_func.c **** 	}
 733:.\20648_driver\invn/ml_math_func.c **** 	else if (Qcb[3] >= Qcb[0] && Qcb[3] >= Qcb[1] && Qcb[3] >= Qcb[2]) //Qcb[3] is max
 734:.\20648_driver\invn/ml_math_func.c **** 	{
 735:.\20648_driver\invn/ml_math_func.c **** 		Qcb[0] = (r12 - r21) / (4.f*Qcb[3]);
 736:.\20648_driver\invn/ml_math_func.c **** 		Qcb[1] = (r31 + r13) / (4.f*Qcb[3]);
 737:.\20648_driver\invn/ml_math_func.c **** 		Qcb[2] = (r23 + r32) / (4.f*Qcb[3]);
 738:.\20648_driver\invn/ml_math_func.c **** 	}
 739:.\20648_driver\invn/ml_math_func.c **** 	else
 740:.\20648_driver\invn/ml_math_func.c **** 	{
 741:.\20648_driver\invn/ml_math_func.c **** 		//printf('coding error\n'); //error
 742:.\20648_driver\invn/ml_math_func.c **** 	}
 743:.\20648_driver\invn/ml_math_func.c **** 
 744:.\20648_driver\invn/ml_math_func.c **** 	Qcb_fp[0] = (long)(Qcb[0] * 1073741824.0f);
 745:.\20648_driver\invn/ml_math_func.c **** 	Qcb_fp[1] = (long)(Qcb[1] * 1073741824.0f);
 746:.\20648_driver\invn/ml_math_func.c **** 	Qcb_fp[2] = (long)(Qcb[2] * 1073741824.0f);
 747:.\20648_driver\invn/ml_math_func.c **** 	Qcb_fp[3] = (long)(Qcb[3] * 1073741824.0f);
 748:.\20648_driver\invn/ml_math_func.c **** }
 749:.\20648_driver\invn/ml_math_func.c **** 
 750:.\20648_driver\invn/ml_math_func.c **** /**
 751:.\20648_driver\invn/ml_math_func.c **** * Converts a quaternion to a rotation matrix.
 752:.\20648_driver\invn/ml_math_func.c **** * @param[in] quat 4-element quaternion in fixed point. One is 2^30.
 753:.\20648_driver\invn/ml_math_func.c **** * @param[out] rot Rotation matrix in fixed point. One is 2^30. The
 754:.\20648_driver\invn/ml_math_func.c **** *             First 3 elements of the rotation matrix, represent
 755:.\20648_driver\invn/ml_math_func.c **** *             the first row of the matrix. Rotation matrix multiplied
 756:.\20648_driver\invn/ml_math_func.c **** *             by a 3 element column vector transform a vector from Body
 757:.\20648_driver\invn/ml_math_func.c **** *             to World.
 758:.\20648_driver\invn/ml_math_func.c **** */
 759:.\20648_driver\invn/ml_math_func.c **** // MATRIX STORAGE IS COLUMN-WISE!
 760:.\20648_driver\invn/ml_math_func.c **** void inv_transpose_quaternion_to_rotation(const long *quat, long *rot)
 761:.\20648_driver\invn/ml_math_func.c **** {
 762:.\20648_driver\invn/ml_math_func.c **** 	rot[0] =
 763:.\20648_driver\invn/ml_math_func.c **** 		inv_q29_mult(quat[1], quat[1]) + inv_q29_mult(quat[0],
 764:.\20648_driver\invn/ml_math_func.c **** 		quat[0]) -
 765:.\20648_driver\invn/ml_math_func.c **** 		1073741824L;
 766:.\20648_driver\invn/ml_math_func.c **** 	rot[1] =
 767:.\20648_driver\invn/ml_math_func.c **** 		inv_q29_mult(quat[1], quat[2]) - inv_q29_mult(quat[3], quat[0]);
 768:.\20648_driver\invn/ml_math_func.c **** 	rot[2] =
 769:.\20648_driver\invn/ml_math_func.c **** 		inv_q29_mult(quat[1], quat[3]) + inv_q29_mult(quat[2], quat[0]);
 770:.\20648_driver\invn/ml_math_func.c **** 	rot[3] =
 771:.\20648_driver\invn/ml_math_func.c **** 		inv_q29_mult(quat[1], quat[2]) + inv_q29_mult(quat[3], quat[0]);
 772:.\20648_driver\invn/ml_math_func.c **** 	rot[4] =
 773:.\20648_driver\invn/ml_math_func.c **** 		inv_q29_mult(quat[2], quat[2]) + inv_q29_mult(quat[0],
 774:.\20648_driver\invn/ml_math_func.c **** 		quat[0]) -
ARM GAS  C:\Users\ADMINI~1\AppData\Local\Temp\cc85ADh7.s 			page 15


 775:.\20648_driver\invn/ml_math_func.c **** 		1073741824L;
 776:.\20648_driver\invn/ml_math_func.c **** 	rot[5] =
 777:.\20648_driver\invn/ml_math_func.c **** 		inv_q29_mult(quat[2], quat[3]) - inv_q29_mult(quat[1], quat[0]);
 778:.\20648_driver\invn/ml_math_func.c **** 	rot[6] =
 779:.\20648_driver\invn/ml_math_func.c **** 		inv_q29_mult(quat[1], quat[3]) - inv_q29_mult(quat[2], quat[0]);
 780:.\20648_driver\invn/ml_math_func.c **** 	rot[7] =
 781:.\20648_driver\invn/ml_math_func.c **** 		inv_q29_mult(quat[2], quat[3]) + inv_q29_mult(quat[1], quat[0]);
 782:.\20648_driver\invn/ml_math_func.c **** 	rot[8] =
 783:.\20648_driver\invn/ml_math_func.c **** 		inv_q29_mult(quat[3], quat[3]) + inv_q29_mult(quat[0],
 784:.\20648_driver\invn/ml_math_func.c **** 		quat[0]) -
 785:.\20648_driver\invn/ml_math_func.c **** 		1073741824L;
 786:.\20648_driver\invn/ml_math_func.c **** }
 787:.\20648_driver\invn/ml_math_func.c **** 
 788:.\20648_driver\invn/ml_math_func.c **** /**
 789:.\20648_driver\invn/ml_math_func.c **** * Converts a quaternion to a rotation matrix.
 790:.\20648_driver\invn/ml_math_func.c **** * @param[in] q_ItoB - quaternion in the DMP convention (it takes
 791:.\20648_driver\invn/ml_math_func.c **** *  inertial vector to body via B = q^-1 I q, which is same q as in I = q B q^-1 )
 792:.\20648_driver\invn/ml_math_func.c **** *  This is same convention as Matlab: http://www.mathworks.com/help/aerotbx/ug/quat2dcm.html
 793:.\20648_driver\invn/ml_math_func.c **** *  and to see these same examples ran through this function, see test/testU_ml_math_func.c
 794:.\20648_driver\invn/ml_math_func.c **** * @param[out] R_ItoB - Rotation matrix in DMP convention (it takes
 795:.\20648_driver\invn/ml_math_func.c **** *  inertial vector to body via B = R I)
 796:.\20648_driver\invn/ml_math_func.c **** *             First 3 elements of the rotation matrix, represent
 797:.\20648_driver\invn/ml_math_func.c **** *             the first row of the matrix. Rotation matrix multiplied
 798:.\20648_driver\invn/ml_math_func.c **** *             by a 3 element column vector transform a vector from Inertial
 799:.\20648_driver\invn/ml_math_func.c **** *             to Body.
 800:.\20648_driver\invn/ml_math_func.c **** */
 801:.\20648_driver\invn/ml_math_func.c **** // OUTPUT matrix rotates INERTIAL vector into BODY frame
 802:.\20648_driver\invn/ml_math_func.c **** void inv_quaternion_to_rotation(const long *q_ItoB, long *R_ItoB)
 803:.\20648_driver\invn/ml_math_func.c **** {
 804:.\20648_driver\invn/ml_math_func.c **** 	R_ItoB[0] =
 805:.\20648_driver\invn/ml_math_func.c **** 		inv_q29_mult(q_ItoB[1], q_ItoB[1]) + inv_q29_mult(q_ItoB[0], q_ItoB[0]) - 1073741824L;
 806:.\20648_driver\invn/ml_math_func.c **** 	R_ItoB[1] =
 807:.\20648_driver\invn/ml_math_func.c **** 		inv_q29_mult(q_ItoB[1], q_ItoB[2]) + inv_q29_mult(q_ItoB[3], q_ItoB[0]);
 808:.\20648_driver\invn/ml_math_func.c **** 	R_ItoB[2] =
 809:.\20648_driver\invn/ml_math_func.c **** 		inv_q29_mult(q_ItoB[1], q_ItoB[3]) - inv_q29_mult(q_ItoB[2], q_ItoB[0]);
 810:.\20648_driver\invn/ml_math_func.c **** 	R_ItoB[3] =
 811:.\20648_driver\invn/ml_math_func.c **** 		inv_q29_mult(q_ItoB[1], q_ItoB[2]) - inv_q29_mult(q_ItoB[3], q_ItoB[0]);
 812:.\20648_driver\invn/ml_math_func.c **** 	R_ItoB[4] =
 813:.\20648_driver\invn/ml_math_func.c **** 		inv_q29_mult(q_ItoB[2], q_ItoB[2]) + inv_q29_mult(q_ItoB[0], q_ItoB[0]) - 1073741824L;
 814:.\20648_driver\invn/ml_math_func.c **** 	R_ItoB[5] =
 815:.\20648_driver\invn/ml_math_func.c **** 		inv_q29_mult(q_ItoB[2], q_ItoB[3]) + inv_q29_mult(q_ItoB[1], q_ItoB[0]);
 816:.\20648_driver\invn/ml_math_func.c **** 	R_ItoB[6] =
 817:.\20648_driver\invn/ml_math_func.c **** 		inv_q29_mult(q_ItoB[1], q_ItoB[3]) + inv_q29_mult(q_ItoB[2], q_ItoB[0]);
 818:.\20648_driver\invn/ml_math_func.c **** 	R_ItoB[7] =
 819:.\20648_driver\invn/ml_math_func.c **** 		inv_q29_mult(q_ItoB[2], q_ItoB[3]) - inv_q29_mult(q_ItoB[1], q_ItoB[0]);
 820:.\20648_driver\invn/ml_math_func.c **** 	R_ItoB[8] =
 821:.\20648_driver\invn/ml_math_func.c **** 		inv_q29_mult(q_ItoB[3], q_ItoB[3]) + inv_q29_mult(q_ItoB[0], q_ItoB[0]) - 1073741824L;
 822:.\20648_driver\invn/ml_math_func.c **** }
 823:.\20648_driver\invn/ml_math_func.c **** 
 824:.\20648_driver\invn/ml_math_func.c **** /**
 825:.\20648_driver\invn/ml_math_func.c **** * Converts a quaternion to a rotation vector. A rotation vector is
 826:.\20648_driver\invn/ml_math_func.c **** * a method to represent a 4-element quaternion vector in 3-elements.
 827:.\20648_driver\invn/ml_math_func.c **** * To get the quaternion from the 3-elements, The last 3-elements of
 828:.\20648_driver\invn/ml_math_func.c **** * the quaternion will be the given rotation vector. The first element
 829:.\20648_driver\invn/ml_math_func.c **** * of the quaternion will be the positive value that will be required
 830:.\20648_driver\invn/ml_math_func.c **** * to make the magnitude of the quaternion 1.0 or 2^30 in fixed point units.
 831:.\20648_driver\invn/ml_math_func.c **** * @param[in] quat 4-element quaternion in fixed point. One is 2^30.
ARM GAS  C:\Users\ADMINI~1\AppData\Local\Temp\cc85ADh7.s 			page 16


 832:.\20648_driver\invn/ml_math_func.c **** * @param[out] rot Rotation vector in fixed point. One is 2^30.
 833:.\20648_driver\invn/ml_math_func.c **** */
 834:.\20648_driver\invn/ml_math_func.c **** void inv_quaternion_to_rotation_vector(const long *quat, long *rot)
 835:.\20648_driver\invn/ml_math_func.c **** {
 836:.\20648_driver\invn/ml_math_func.c **** 	rot[0] = quat[1];
 837:.\20648_driver\invn/ml_math_func.c **** 	rot[1] = quat[2];
 838:.\20648_driver\invn/ml_math_func.c **** 	rot[2] = quat[3];
 839:.\20648_driver\invn/ml_math_func.c **** 
 840:.\20648_driver\invn/ml_math_func.c **** 	if (quat[0] < 0.0) {
 841:.\20648_driver\invn/ml_math_func.c **** 		rot[0] = -rot[0];
 842:.\20648_driver\invn/ml_math_func.c **** 		rot[1] = -rot[1];
 843:.\20648_driver\invn/ml_math_func.c **** 		rot[2] = -rot[2];
 844:.\20648_driver\invn/ml_math_func.c **** 	}
 845:.\20648_driver\invn/ml_math_func.c **** }
 846:.\20648_driver\invn/ml_math_func.c **** 
 847:.\20648_driver\invn/ml_math_func.c **** /** Converts a 32-bit long to a big endian byte stream */
 848:.\20648_driver\invn/ml_math_func.c **** unsigned char *inv_int32_to_big8(long x, unsigned char *big8)
 849:.\20648_driver\invn/ml_math_func.c **** {
 850:.\20648_driver\invn/ml_math_func.c **** 	big8[0] = (unsigned char)((x >> 24) & 0xff);
 851:.\20648_driver\invn/ml_math_func.c **** 	big8[1] = (unsigned char)((x >> 16) & 0xff);
 852:.\20648_driver\invn/ml_math_func.c **** 	big8[2] = (unsigned char)((x >> 8) & 0xff);
 853:.\20648_driver\invn/ml_math_func.c **** 	big8[3] = (unsigned char)(x & 0xff);
 854:.\20648_driver\invn/ml_math_func.c **** 	return big8;
 855:.\20648_driver\invn/ml_math_func.c **** }
 856:.\20648_driver\invn/ml_math_func.c **** 
 857:.\20648_driver\invn/ml_math_func.c **** /** Converts a big endian byte stream into a 32-bit long */
 858:.\20648_driver\invn/ml_math_func.c **** long inv_big8_to_int32(const unsigned char *big8)
 859:.\20648_driver\invn/ml_math_func.c **** {
 860:.\20648_driver\invn/ml_math_func.c **** 	long x;
 861:.\20648_driver\invn/ml_math_func.c **** 	x = ((long)big8[0] << 24) | ((long)big8[1] << 16) | ((long)big8[2] << 8)
 862:.\20648_driver\invn/ml_math_func.c **** 		| ((long)big8[3]);
 863:.\20648_driver\invn/ml_math_func.c **** 	return x;
 864:.\20648_driver\invn/ml_math_func.c **** }
 865:.\20648_driver\invn/ml_math_func.c **** 
 866:.\20648_driver\invn/ml_math_func.c **** /** Converts a big endian byte stream into a 16-bit integer (short) */
 867:.\20648_driver\invn/ml_math_func.c **** short inv_big8_to_int16(const unsigned char *big8)
 868:.\20648_driver\invn/ml_math_func.c **** {
 869:.\20648_driver\invn/ml_math_func.c **** 	short x;
 870:.\20648_driver\invn/ml_math_func.c **** 	x = ((short)big8[0] << 8) | ((short)big8[1]);
 871:.\20648_driver\invn/ml_math_func.c **** 	return x;
 872:.\20648_driver\invn/ml_math_func.c **** }
 873:.\20648_driver\invn/ml_math_func.c **** 
 874:.\20648_driver\invn/ml_math_func.c **** /** Converts a little endian byte stream into a 16-bit integer (short) */
 875:.\20648_driver\invn/ml_math_func.c **** short inv_little8_to_int16(const unsigned char *little8)
 876:.\20648_driver\invn/ml_math_func.c **** {
 877:.\20648_driver\invn/ml_math_func.c **** 	short x;
 878:.\20648_driver\invn/ml_math_func.c **** 	x = ((short)little8[1] << 8) | ((short)little8[0]);
 879:.\20648_driver\invn/ml_math_func.c **** 	return x;
 880:.\20648_driver\invn/ml_math_func.c **** }
 881:.\20648_driver\invn/ml_math_func.c **** 
 882:.\20648_driver\invn/ml_math_func.c **** /** Converts a 16-bit short to a big endian byte stream */
 883:.\20648_driver\invn/ml_math_func.c **** unsigned char *inv_int16_to_big8(short x, unsigned char *big8)
 884:.\20648_driver\invn/ml_math_func.c **** {
 885:.\20648_driver\invn/ml_math_func.c **** 	big8[0] = (unsigned char)((x >> 8) & 0xff);
 886:.\20648_driver\invn/ml_math_func.c **** 	big8[1] = (unsigned char)(x & 0xff);
 887:.\20648_driver\invn/ml_math_func.c **** 	return big8;
 888:.\20648_driver\invn/ml_math_func.c **** }
ARM GAS  C:\Users\ADMINI~1\AppData\Local\Temp\cc85ADh7.s 			page 17


 889:.\20648_driver\invn/ml_math_func.c **** 
 890:.\20648_driver\invn/ml_math_func.c **** void inv_matrix_det_inc(float *a, float *b, int *n, int x, int y)
 891:.\20648_driver\invn/ml_math_func.c **** {
 892:.\20648_driver\invn/ml_math_func.c **** 	int k, l, i, j;
 893:.\20648_driver\invn/ml_math_func.c **** 	for (i = 0, k = 0; i < *n; i++, k++) {
 894:.\20648_driver\invn/ml_math_func.c **** 		for (j = 0, l = 0; j < *n; j++, l++) {
 895:.\20648_driver\invn/ml_math_func.c **** 			if (i == x)
 896:.\20648_driver\invn/ml_math_func.c **** 				i++;
 897:.\20648_driver\invn/ml_math_func.c **** 			if (j == y)
 898:.\20648_driver\invn/ml_math_func.c **** 				j++;
 899:.\20648_driver\invn/ml_math_func.c **** 			*(b + 6 * k + l) = *(a + 6 * i + j);
 900:.\20648_driver\invn/ml_math_func.c **** 		}
 901:.\20648_driver\invn/ml_math_func.c **** 	}
 902:.\20648_driver\invn/ml_math_func.c **** 	*n = *n - 1;
 903:.\20648_driver\invn/ml_math_func.c **** }
 904:.\20648_driver\invn/ml_math_func.c **** 
 905:.\20648_driver\invn/ml_math_func.c **** void inv_matrix_det_incd(double *a, double *b, int *n, int x, int y)
 906:.\20648_driver\invn/ml_math_func.c **** {
 907:.\20648_driver\invn/ml_math_func.c **** 	int k, l, i, j;
 908:.\20648_driver\invn/ml_math_func.c **** 	for (i = 0, k = 0; i < *n; i++, k++) {
 909:.\20648_driver\invn/ml_math_func.c **** 		for (j = 0, l = 0; j < *n; j++, l++) {
 910:.\20648_driver\invn/ml_math_func.c **** 			if (i == x)
 911:.\20648_driver\invn/ml_math_func.c **** 				i++;
 912:.\20648_driver\invn/ml_math_func.c **** 			if (j == y)
 913:.\20648_driver\invn/ml_math_func.c **** 				j++;
 914:.\20648_driver\invn/ml_math_func.c **** 			*(b + 6 * k + l) = *(a + 6 * i + j);
 915:.\20648_driver\invn/ml_math_func.c **** 		}
 916:.\20648_driver\invn/ml_math_func.c **** 	}
 917:.\20648_driver\invn/ml_math_func.c **** 	*n = *n - 1;
 918:.\20648_driver\invn/ml_math_func.c **** }
 919:.\20648_driver\invn/ml_math_func.c **** 
 920:.\20648_driver\invn/ml_math_func.c **** float inv_matrix_det(float *p, int *n)
 921:.\20648_driver\invn/ml_math_func.c **** {
 922:.\20648_driver\invn/ml_math_func.c **** 	float d[6][6], sum = 0;
 923:.\20648_driver\invn/ml_math_func.c **** 	int i, j, m;
 924:.\20648_driver\invn/ml_math_func.c **** 	m = *n;
 925:.\20648_driver\invn/ml_math_func.c **** 	if (*n == 2)
 926:.\20648_driver\invn/ml_math_func.c **** 		return (*p ** (p + 7) - *(p + 1) ** (p + 6));
 927:.\20648_driver\invn/ml_math_func.c **** 	for (i = 0, j = 0; j < m; j++) {
 928:.\20648_driver\invn/ml_math_func.c **** 		*n = m;
 929:.\20648_driver\invn/ml_math_func.c **** 		inv_matrix_det_inc(p, &d[0][0], n, i, j);
 930:.\20648_driver\invn/ml_math_func.c **** 		sum =
 931:.\20648_driver\invn/ml_math_func.c **** 			sum + *(p + 6 * i + j) * SIGNM(i +
 932:.\20648_driver\invn/ml_math_func.c **** 			j) *
 933:.\20648_driver\invn/ml_math_func.c **** 			inv_matrix_det(&d[0][0], n);
 934:.\20648_driver\invn/ml_math_func.c **** 	}
 935:.\20648_driver\invn/ml_math_func.c **** 
 936:.\20648_driver\invn/ml_math_func.c **** 	return (sum);
 937:.\20648_driver\invn/ml_math_func.c **** }
 938:.\20648_driver\invn/ml_math_func.c **** 
 939:.\20648_driver\invn/ml_math_func.c **** double inv_matrix_detd(double *p, int *n)
 940:.\20648_driver\invn/ml_math_func.c **** {
 941:.\20648_driver\invn/ml_math_func.c **** 	double d[6][6], sum = 0;
 942:.\20648_driver\invn/ml_math_func.c **** 	int i, j, m;
 943:.\20648_driver\invn/ml_math_func.c **** 	m = *n;
 944:.\20648_driver\invn/ml_math_func.c **** 	if (*n == 2)
 945:.\20648_driver\invn/ml_math_func.c **** 		return (*p ** (p + 7) - *(p + 1) ** (p + 6));
ARM GAS  C:\Users\ADMINI~1\AppData\Local\Temp\cc85ADh7.s 			page 18


 946:.\20648_driver\invn/ml_math_func.c **** 	for (i = 0, j = 0; j < m; j++) {
 947:.\20648_driver\invn/ml_math_func.c **** 		*n = m;
 948:.\20648_driver\invn/ml_math_func.c **** 		inv_matrix_det_incd(p, &d[0][0], n, i, j);
 949:.\20648_driver\invn/ml_math_func.c **** 		sum =
 950:.\20648_driver\invn/ml_math_func.c **** 			sum + *(p + 6 * i + j) * SIGNM(i +
 951:.\20648_driver\invn/ml_math_func.c **** 			j) *
 952:.\20648_driver\invn/ml_math_func.c **** 			inv_matrix_detd(&d[0][0], n);
 953:.\20648_driver\invn/ml_math_func.c **** 	}
 954:.\20648_driver\invn/ml_math_func.c **** 
 955:.\20648_driver\invn/ml_math_func.c **** 	return (sum);
 956:.\20648_driver\invn/ml_math_func.c **** }
 957:.\20648_driver\invn/ml_math_func.c **** 
 958:.\20648_driver\invn/ml_math_func.c **** /** Wraps angle from (-M_PI,M_PI]
 959:.\20648_driver\invn/ml_math_func.c **** * @param[in] ang Angle in radians to wrap
 960:.\20648_driver\invn/ml_math_func.c **** * @return Wrapped angle from (-M_PI,M_PI]
 961:.\20648_driver\invn/ml_math_func.c **** */
 962:.\20648_driver\invn/ml_math_func.c **** float inv_wrap_angle(float ang)
 963:.\20648_driver\invn/ml_math_func.c **** {
 964:.\20648_driver\invn/ml_math_func.c **** 	if (ang > M_PI)
 965:.\20648_driver\invn/ml_math_func.c **** 		return ang - 2 * (float)M_PI;
 966:.\20648_driver\invn/ml_math_func.c **** 	else if (ang <= -(float)M_PI)
 967:.\20648_driver\invn/ml_math_func.c **** 		return ang + 2 * (float)M_PI;
 968:.\20648_driver\invn/ml_math_func.c **** 	else
 969:.\20648_driver\invn/ml_math_func.c **** 		return ang;
 970:.\20648_driver\invn/ml_math_func.c **** }
 971:.\20648_driver\invn/ml_math_func.c **** 
 972:.\20648_driver\invn/ml_math_func.c **** /** Finds the minimum angle difference ang1-ang2 such that difference
 973:.\20648_driver\invn/ml_math_func.c **** * is between [-M_PI,M_PI]
 974:.\20648_driver\invn/ml_math_func.c **** * @param[in] ang1
 975:.\20648_driver\invn/ml_math_func.c **** * @param[in] ang2
 976:.\20648_driver\invn/ml_math_func.c **** * @return angle difference ang1-ang2
 977:.\20648_driver\invn/ml_math_func.c **** */
 978:.\20648_driver\invn/ml_math_func.c **** float inv_angle_diff(float ang1, float ang2)
 979:.\20648_driver\invn/ml_math_func.c **** {
 980:.\20648_driver\invn/ml_math_func.c **** 	float d;
 981:.\20648_driver\invn/ml_math_func.c **** 	ang1 = inv_wrap_angle(ang1);
 982:.\20648_driver\invn/ml_math_func.c **** 	ang2 = inv_wrap_angle(ang2);
 983:.\20648_driver\invn/ml_math_func.c **** 	d = ang1 - ang2;
 984:.\20648_driver\invn/ml_math_func.c **** 	if (d > M_PI)
 985:.\20648_driver\invn/ml_math_func.c **** 		d -= 2 * (float)M_PI;
 986:.\20648_driver\invn/ml_math_func.c **** 	else if (d < -(float)M_PI)
 987:.\20648_driver\invn/ml_math_func.c **** 		d += 2 * (float)M_PI;
 988:.\20648_driver\invn/ml_math_func.c **** 	return d;
 989:.\20648_driver\invn/ml_math_func.c **** }
 990:.\20648_driver\invn/ml_math_func.c **** 
 991:.\20648_driver\invn/ml_math_func.c **** /** bernstein hash, derived from public domain source */
 992:.\20648_driver\invn/ml_math_func.c **** uint32_t inv_checksum(const unsigned char *str, int len)
 993:.\20648_driver\invn/ml_math_func.c **** {
 994:.\20648_driver\invn/ml_math_func.c **** 	uint32_t hash = 5381;
 995:.\20648_driver\invn/ml_math_func.c **** 	int i, c;
 996:.\20648_driver\invn/ml_math_func.c **** 
 997:.\20648_driver\invn/ml_math_func.c **** 	for (i = 0; i < len; i++) {
 998:.\20648_driver\invn/ml_math_func.c **** 		c = *(str + i);
 999:.\20648_driver\invn/ml_math_func.c **** 		hash = ((hash << 5) + hash) + c; /* hash * 33 + c */
1000:.\20648_driver\invn/ml_math_func.c **** 	}
1001:.\20648_driver\invn/ml_math_func.c **** 
1002:.\20648_driver\invn/ml_math_func.c **** 	return hash;
ARM GAS  C:\Users\ADMINI~1\AppData\Local\Temp\cc85ADh7.s 			page 19


1003:.\20648_driver\invn/ml_math_func.c **** }
1004:.\20648_driver\invn/ml_math_func.c **** 
1005:.\20648_driver\invn/ml_math_func.c **** static unsigned short inv_row_2_scale(const signed char *row)
1006:.\20648_driver\invn/ml_math_func.c **** {
  25              		.loc 1 1006 0
  26              		.cfi_startproc
  27              	.LVL0:
1007:.\20648_driver\invn/ml_math_func.c **** 	unsigned short b;
1008:.\20648_driver\invn/ml_math_func.c **** 
1009:.\20648_driver\invn/ml_math_func.c **** 	if (row[0] > 0)
1010:.\20648_driver\invn/ml_math_func.c **** 		b = 0;
  28              		.loc 1 1010 0
  29 0000 0023     		mov	r3, #0
1009:.\20648_driver\invn/ml_math_func.c **** 		b = 0;
  30              		.loc 1 1009 0
  31 0002 0278     		ldrb	r2, [r0]
  32 0004 51B2     		sxtb	r1, r2
  33 0006 9942     		cmp	r1, r3
  34 0008 13DC     		bgt	.L2
1011:.\20648_driver\invn/ml_math_func.c **** 	else if (row[0] < 0)
1012:.\20648_driver\invn/ml_math_func.c **** 		b = 4;
  35              		.loc 1 1012 0
  36 000a 0433     		add	r3, r3, #4
1011:.\20648_driver\invn/ml_math_func.c **** 	else if (row[0] < 0)
  37              		.loc 1 1011 0
  38 000c 002A     		cmp	r2, #0
  39 000e 10D1     		bne	.L2
1013:.\20648_driver\invn/ml_math_func.c **** 	else if (row[1] > 0)
  40              		.loc 1 1013 0
  41 0010 4278     		ldrb	r2, [r0, #1]
1014:.\20648_driver\invn/ml_math_func.c **** 		b = 1;
  42              		.loc 1 1014 0
  43 0012 033B     		sub	r3, r3, #3
1013:.\20648_driver\invn/ml_math_func.c **** 	else if (row[1] > 0)
  44              		.loc 1 1013 0
  45 0014 51B2     		sxtb	r1, r2
  46 0016 0029     		cmp	r1, #0
  47 0018 0BDC     		bgt	.L2
1015:.\20648_driver\invn/ml_math_func.c **** 	else if (row[1] < 0)
1016:.\20648_driver\invn/ml_math_func.c **** 		b = 5;
  48              		.loc 1 1016 0
  49 001a 0433     		add	r3, r3, #4
1015:.\20648_driver\invn/ml_math_func.c **** 	else if (row[1] < 0)
  50              		.loc 1 1015 0
  51 001c 002A     		cmp	r2, #0
  52 001e 08D1     		bne	.L2
  53              	.LVL1:
  54              	.LBB346:
  55              	.LBB347:
1017:.\20648_driver\invn/ml_math_func.c **** 	else if (row[2] > 0)
  56              		.loc 1 1017 0
  57 0020 8078     		ldrb	r0, [r0, #2]
  58              	.LVL2:
1018:.\20648_driver\invn/ml_math_func.c **** 		b = 2;
  59              		.loc 1 1018 0
  60 0022 033B     		sub	r3, r3, #3
1017:.\20648_driver\invn/ml_math_func.c **** 	else if (row[2] > 0)
ARM GAS  C:\Users\ADMINI~1\AppData\Local\Temp\cc85ADh7.s 			page 20


  61              		.loc 1 1017 0
  62 0024 42B2     		sxtb	r2, r0
  63 0026 002A     		cmp	r2, #0
  64 0028 03DC     		bgt	.L2
1019:.\20648_driver\invn/ml_math_func.c **** 	else if (row[2] < 0)
1020:.\20648_driver\invn/ml_math_func.c **** 		b = 6;
1021:.\20648_driver\invn/ml_math_func.c **** 	else
1022:.\20648_driver\invn/ml_math_func.c **** 		b = 7; // error
  65              		.loc 1 1022 0
  66 002a 431E     		sub	r3, r0, #1
  67 002c 9841     		sbc	r0, r0, r3
  68 002e 0722     		mov	r2, #7
  69 0030 131A     		sub	r3, r2, r0
  70              	.LVL3:
  71              	.L2:
  72              	.LBE347:
  73              	.LBE346:
1023:.\20648_driver\invn/ml_math_func.c **** 	return b;
1024:.\20648_driver\invn/ml_math_func.c **** }
  74              		.loc 1 1024 0
  75 0032 181C     		mov	r0, r3
  76              		@ sp needed
  77 0034 7047     		bx	lr
  78              		.cfi_endproc
  79              	.LFE45:
  80              		.size	inv_row_2_scale, .-inv_row_2_scale
  81              		.section	.text.inv_get_gyro_sum_of_sqr,"ax",%progbits
  82              		.align	1
  83              		.global	inv_get_gyro_sum_of_sqr
  84              		.code	16
  85              		.thumb_func
  86              		.type	inv_get_gyro_sum_of_sqr, %function
  87              	inv_get_gyro_sum_of_sqr:
  88              	.LFB5:
  70:.\20648_driver\invn/ml_math_func.c **** 	unsigned long gmag = 0;
  89              		.loc 1 70 0
  90              		.cfi_startproc
  91              	.LVL4:
  92 0000 011C     		mov	r1, r0
  70:.\20648_driver\invn/ml_math_func.c **** 	unsigned long gmag = 0;
  93              		.loc 1 70 0
  94 0002 021C     		mov	r2, r0
  71:.\20648_driver\invn/ml_math_func.c **** 	long temp;
  95              		.loc 1 71 0
  96 0004 0020     		mov	r0, #0
  97              	.LVL5:
  98 0006 0C31     		add	r1, r1, #12
  99              	.LVL6:
 100              	.L11:
  76:.\20648_driver\invn/ml_math_func.c **** 		gmag += temp * temp;
 101              		.loc 1 76 0 discriminator 3
 102 0008 08CA     		ldmia	r2!, {r3}
 103 000a 5B13     		asr	r3, r3, #13
 104              	.LVL7:
  77:.\20648_driver\invn/ml_math_func.c **** 	}
 105              		.loc 1 77 0 discriminator 3
 106 000c 5B43     		mul	r3, r3
ARM GAS  C:\Users\ADMINI~1\AppData\Local\Temp\cc85ADh7.s 			page 21


 107              	.LVL8:
 108 000e C018     		add	r0, r0, r3
 109              	.LVL9:
  75:.\20648_driver\invn/ml_math_func.c **** 		temp = gyro[kk] >> (16 - (GYRO_MAG_SQR_SHIFT / 2));
 110              		.loc 1 75 0 discriminator 3
 111 0010 8A42     		cmp	r2, r1
 112 0012 F9D1     		bne	.L11
  81:.\20648_driver\invn/ml_math_func.c **** 
 113              		.loc 1 81 0
 114              		@ sp needed
 115 0014 7047     		bx	lr
 116              		.cfi_endproc
 117              	.LFE5:
 118              		.size	inv_get_gyro_sum_of_sqr, .-inv_get_gyro_sum_of_sqr
 119              		.global	__aeabi_lmul
 120              		.global	__aeabi_lasr
 121              		.section	.text.inv_qfix_mult,"ax",%progbits
 122              		.align	1
 123              		.global	inv_qfix_mult
 124              		.code	16
 125              		.thumb_func
 126              		.type	inv_qfix_mult, %function
 127              	inv_qfix_mult:
 128              	.LFB6:
  92:.\20648_driver\invn/ml_math_func.c **** #ifdef UMPL_ELIMINATE_64BIT
 129              		.loc 1 92 0
 130              		.cfi_startproc
 131              	.LVL10:
 132 0000 38B5     		push	{r3, r4, r5, lr}
 133              		.cfi_def_cfa_offset 16
 134              		.cfi_offset 3, -16
 135              		.cfi_offset 4, -12
 136              		.cfi_offset 5, -8
 137              		.cfi_offset 14, -4
  92:.\20648_driver\invn/ml_math_func.c **** #ifdef UMPL_ELIMINATE_64BIT
 138              		.loc 1 92 0
 139 0002 0C1C     		mov	r4, r1
 140              	.LVL11:
 141 0004 151C     		mov	r5, r2
 142              	.LVL12:
 100:.\20648_driver\invn/ml_math_func.c **** 	result = (long)(temp >> qfix);
 143              		.loc 1 100 0
 144 0006 E317     		asr	r3, r4, #31
 145 0008 221C     		mov	r2, r4
 146              	.LVL13:
 147 000a C117     		asr	r1, r0, #31
 148              	.LVL14:
 149 000c FFF7FEFF 		bl	__aeabi_lmul
 150              	.LVL15:
 101:.\20648_driver\invn/ml_math_func.c **** 	return result;
 151              		.loc 1 101 0
 152 0010 2A1C     		mov	r2, r5
 153 0012 FFF7FEFF 		bl	__aeabi_lasr
 154              	.LVL16:
 104:.\20648_driver\invn/ml_math_func.c **** 
 155              		.loc 1 104 0
 156              		@ sp needed
ARM GAS  C:\Users\ADMINI~1\AppData\Local\Temp\cc85ADh7.s 			page 22


 157              	.LVL17:
 158              	.LVL18:
 159 0016 38BD     		pop	{r3, r4, r5, pc}
 160              		.cfi_endproc
 161              	.LFE6:
 162              		.size	inv_qfix_mult, .-inv_qfix_mult
 163              		.section	.text.inv_q29_mult,"ax",%progbits
 164              		.align	1
 165              		.global	inv_q29_mult
 166              		.code	16
 167              		.thumb_func
 168              		.type	inv_q29_mult, %function
 169              	inv_q29_mult:
 170              	.LFB7:
 114:.\20648_driver\invn/ml_math_func.c **** #ifdef UMPL_ELIMINATE_64BIT
 171              		.loc 1 114 0
 172              		.cfi_startproc
 173              	.LVL19:
 174 0000 0A1C     		mov	r2, r1
 175              	.LVL20:
 176 0002 08B5     		push	{r3, lr}
 177              		.cfi_def_cfa_offset 8
 178              		.cfi_offset 3, -8
 179              		.cfi_offset 14, -4
 122:.\20648_driver\invn/ml_math_func.c **** 	result = (long)(temp >> 29);
 180              		.loc 1 122 0
 181 0004 C117     		asr	r1, r0, #31
 182              	.LVL21:
 183 0006 D317     		asr	r3, r2, #31
 184 0008 FFF7FEFF 		bl	__aeabi_lmul
 185              	.LVL22:
 123:.\20648_driver\invn/ml_math_func.c **** 	return result;
 186              		.loc 1 123 0
 187 000c C900     		lsl	r1, r1, #3
 188 000e 400F     		lsr	r0, r0, #29
 189 0010 0843     		orr	r0, r1
 126:.\20648_driver\invn/ml_math_func.c **** 
 190              		.loc 1 126 0
 191              		@ sp needed
 192 0012 08BD     		pop	{r3, pc}
 193              		.cfi_endproc
 194              	.LFE7:
 195              		.size	inv_q29_mult, .-inv_q29_mult
 196              		.section	.text.inv_q30_mult,"ax",%progbits
 197              		.align	1
 198              		.global	inv_q30_mult
 199              		.code	16
 200              		.thumb_func
 201              		.type	inv_q30_mult, %function
 202              	inv_q30_mult:
 203              	.LFB8:
 136:.\20648_driver\invn/ml_math_func.c **** #ifdef UMPL_ELIMINATE_64BIT
 204              		.loc 1 136 0
 205              		.cfi_startproc
 206              	.LVL23:
 207 0000 0A1C     		mov	r2, r1
 208              	.LVL24:
ARM GAS  C:\Users\ADMINI~1\AppData\Local\Temp\cc85ADh7.s 			page 23


 209 0002 08B5     		push	{r3, lr}
 210              		.cfi_def_cfa_offset 8
 211              		.cfi_offset 3, -8
 212              		.cfi_offset 14, -4
 144:.\20648_driver\invn/ml_math_func.c **** 	result = (long)(temp >> 30);
 213              		.loc 1 144 0
 214 0004 C117     		asr	r1, r0, #31
 215              	.LVL25:
 216 0006 D317     		asr	r3, r2, #31
 217 0008 FFF7FEFF 		bl	__aeabi_lmul
 218              	.LVL26:
 145:.\20648_driver\invn/ml_math_func.c **** 	return result;
 219              		.loc 1 145 0
 220 000c 8900     		lsl	r1, r1, #2
 221 000e 800F     		lsr	r0, r0, #30
 222 0010 0843     		orr	r0, r1
 148:.\20648_driver\invn/ml_math_func.c **** 
 223              		.loc 1 148 0
 224              		@ sp needed
 225 0012 08BD     		pop	{r3, pc}
 226              		.cfi_endproc
 227              	.LFE8:
 228              		.size	inv_q30_mult, .-inv_q30_mult
 229              		.section	.text.inv_q30_matrix_mult,"ax",%progbits
 230              		.align	1
 231              		.global	inv_q30_matrix_mult
 232              		.code	16
 233              		.thumb_func
 234              		.type	inv_q30_matrix_mult, %function
 235              	inv_q30_matrix_mult:
 236              	.LFB9:
 151:.\20648_driver\invn/ml_math_func.c **** 	matrix_product[0] = inv_q30_mult(left_matrix[0], right_matrix[0]) + inv_q30_mult(left_matrix[1], r
 237              		.loc 1 151 0
 238              		.cfi_startproc
 239              	.LVL27:
 240 0000 F8B5     		push	{r3, r4, r5, r6, r7, lr}
 241              		.cfi_def_cfa_offset 24
 242              		.cfi_offset 3, -24
 243              		.cfi_offset 4, -20
 244              		.cfi_offset 5, -16
 245              		.cfi_offset 6, -12
 246              		.cfi_offset 7, -8
 247              		.cfi_offset 14, -4
 151:.\20648_driver\invn/ml_math_func.c **** 	matrix_product[0] = inv_q30_mult(left_matrix[0], right_matrix[0]) + inv_q30_mult(left_matrix[1], r
 248              		.loc 1 151 0
 249 0002 0C1C     		mov	r4, r1
 250              	.LVL28:
 251              	.LBB348:
 252              	.LBB349:
 144:.\20648_driver\invn/ml_math_func.c **** 	result = (long)(temp >> 30);
 253              		.loc 1 144 0
 254 0004 0368     		ldr	r3, [r0]
 255              	.LBE349:
 256              	.LBE348:
 151:.\20648_driver\invn/ml_math_func.c **** 	matrix_product[0] = inv_q30_mult(left_matrix[0], right_matrix[0]) + inv_q30_mult(left_matrix[1], r
 257              		.loc 1 151 0
 258 0006 051C     		mov	r5, r0
ARM GAS  C:\Users\ADMINI~1\AppData\Local\Temp\cc85ADh7.s 			page 24


 259              	.LBB353:
 260              	.LBB350:
 144:.\20648_driver\invn/ml_math_func.c **** 	result = (long)(temp >> 30);
 261              		.loc 1 144 0
 262 0008 D917     		asr	r1, r3, #31
 263              	.LVL29:
 264 000a 2368     		ldr	r3, [r4]
 265              	.LBE350:
 266              	.LBE353:
 151:.\20648_driver\invn/ml_math_func.c **** 	matrix_product[0] = inv_q30_mult(left_matrix[0], right_matrix[0]) + inv_q30_mult(left_matrix[1], r
 267              		.loc 1 151 0
 268 000c 161C     		mov	r6, r2
 269              	.LBB354:
 270              	.LBB351:
 144:.\20648_driver\invn/ml_math_func.c **** 	result = (long)(temp >> 30);
 271              		.loc 1 144 0
 272 000e 0068     		ldr	r0, [r0]
 273              	.LVL30:
 274 0010 2268     		ldr	r2, [r4]
 275              	.LVL31:
 276 0012 DB17     		asr	r3, r3, #31
 277 0014 FFF7FEFF 		bl	__aeabi_lmul
 278              	.LVL32:
 279              	.LBE351:
 280              	.LBE354:
 281              	.LBB355:
 282              	.LBB356:
 283 0018 6B68     		ldr	r3, [r5, #4]
 284              	.LVL33:
 285              	.LBE356:
 286              	.LBE355:
 287              	.LBB359:
 288              	.LBB352:
 145:.\20648_driver\invn/ml_math_func.c **** 	return result;
 289              		.loc 1 145 0
 290 001a 8900     		lsl	r1, r1, #2
 291 001c 870F     		lsr	r7, r0, #30
 292 001e 0F43     		orr	r7, r1
 293              	.LBE352:
 294              	.LBE359:
 295              	.LBB360:
 296              	.LBB357:
 144:.\20648_driver\invn/ml_math_func.c **** 	result = (long)(temp >> 30);
 297              		.loc 1 144 0
 298 0020 D917     		asr	r1, r3, #31
 299 0022 E368     		ldr	r3, [r4, #12]
 300              	.LVL34:
 301 0024 6868     		ldr	r0, [r5, #4]
 302              	.LVL35:
 303 0026 E268     		ldr	r2, [r4, #12]
 304 0028 DB17     		asr	r3, r3, #31
 305              	.LVL36:
 306 002a FFF7FEFF 		bl	__aeabi_lmul
 307              	.LVL37:
 308              	.LBE357:
 309              	.LBE360:
 310              	.LBB361:
ARM GAS  C:\Users\ADMINI~1\AppData\Local\Temp\cc85ADh7.s 			page 25


 311              	.LBB362:
 312 002e AB68     		ldr	r3, [r5, #8]
 313              	.LVL38:
 314              	.LBE362:
 315              	.LBE361:
 316              	.LBB365:
 317              	.LBB358:
 145:.\20648_driver\invn/ml_math_func.c **** 	return result;
 318              		.loc 1 145 0
 319 0030 8900     		lsl	r1, r1, #2
 320 0032 800F     		lsr	r0, r0, #30
 321 0034 0843     		orr	r0, r1
 322              	.LBE358:
 323              	.LBE365:
 324              	.LBB366:
 325              	.LBB363:
 144:.\20648_driver\invn/ml_math_func.c **** 	result = (long)(temp >> 30);
 326              		.loc 1 144 0
 327 0036 D917     		asr	r1, r3, #31
 328 0038 A369     		ldr	r3, [r4, #24]
 329              	.LVL39:
 330 003a A269     		ldr	r2, [r4, #24]
 331              	.LBE363:
 332              	.LBE366:
 152:.\20648_driver\invn/ml_math_func.c **** 	matrix_product[1] = inv_q30_mult(left_matrix[0], right_matrix[1]) + inv_q30_mult(left_matrix[1], r
 333              		.loc 1 152 0
 334 003c 3F18     		add	r7, r7, r0
 335              	.LBB367:
 336              	.LBB364:
 144:.\20648_driver\invn/ml_math_func.c **** 	result = (long)(temp >> 30);
 337              		.loc 1 144 0
 338 003e DB17     		asr	r3, r3, #31
 339              	.LVL40:
 340 0040 A868     		ldr	r0, [r5, #8]
 341              	.LVL41:
 342 0042 FFF7FEFF 		bl	__aeabi_lmul
 343              	.LVL42:
 145:.\20648_driver\invn/ml_math_func.c **** 	return result;
 344              		.loc 1 145 0
 345 0046 8900     		lsl	r1, r1, #2
 346 0048 800F     		lsr	r0, r0, #30
 347 004a 0843     		orr	r0, r1
 348              	.LBE364:
 349              	.LBE367:
 152:.\20648_driver\invn/ml_math_func.c **** 	matrix_product[1] = inv_q30_mult(left_matrix[0], right_matrix[1]) + inv_q30_mult(left_matrix[1], r
 350              		.loc 1 152 0
 351 004c 3818     		add	r0, r7, r0
 352 004e 3060     		str	r0, [r6]
 353              	.LVL43:
 354              	.LBB368:
 355              	.LBB369:
 144:.\20648_driver\invn/ml_math_func.c **** 	result = (long)(temp >> 30);
 356              		.loc 1 144 0
 357 0050 2B68     		ldr	r3, [r5]
 358 0052 2868     		ldr	r0, [r5]
 359 0054 D917     		asr	r1, r3, #31
 360 0056 6368     		ldr	r3, [r4, #4]
ARM GAS  C:\Users\ADMINI~1\AppData\Local\Temp\cc85ADh7.s 			page 26


 361 0058 6268     		ldr	r2, [r4, #4]
 362 005a DB17     		asr	r3, r3, #31
 363 005c FFF7FEFF 		bl	__aeabi_lmul
 364              	.LVL44:
 365              	.LBE369:
 366              	.LBE368:
 367              	.LBB371:
 368              	.LBB372:
 369 0060 6B68     		ldr	r3, [r5, #4]
 370              	.LVL45:
 371              	.LBE372:
 372              	.LBE371:
 373              	.LBB375:
 374              	.LBB370:
 145:.\20648_driver\invn/ml_math_func.c **** 	return result;
 375              		.loc 1 145 0
 376 0062 8900     		lsl	r1, r1, #2
 377 0064 870F     		lsr	r7, r0, #30
 378 0066 0F43     		orr	r7, r1
 379              	.LBE370:
 380              	.LBE375:
 381              	.LBB376:
 382              	.LBB373:
 144:.\20648_driver\invn/ml_math_func.c **** 	result = (long)(temp >> 30);
 383              		.loc 1 144 0
 384 0068 D917     		asr	r1, r3, #31
 385 006a 2369     		ldr	r3, [r4, #16]
 386              	.LVL46:
 387 006c 6868     		ldr	r0, [r5, #4]
 388              	.LVL47:
 389 006e 2269     		ldr	r2, [r4, #16]
 390 0070 DB17     		asr	r3, r3, #31
 391              	.LVL48:
 392 0072 FFF7FEFF 		bl	__aeabi_lmul
 393              	.LVL49:
 394              	.LBE373:
 395              	.LBE376:
 396              	.LBB377:
 397              	.LBB378:
 398 0076 AB68     		ldr	r3, [r5, #8]
 399              	.LVL50:
 400              	.LBE378:
 401              	.LBE377:
 402              	.LBB381:
 403              	.LBB374:
 145:.\20648_driver\invn/ml_math_func.c **** 	return result;
 404              		.loc 1 145 0
 405 0078 8900     		lsl	r1, r1, #2
 406 007a 800F     		lsr	r0, r0, #30
 407 007c 0843     		orr	r0, r1
 408              	.LBE374:
 409              	.LBE381:
 410              	.LBB382:
 411              	.LBB379:
 144:.\20648_driver\invn/ml_math_func.c **** 	result = (long)(temp >> 30);
 412              		.loc 1 144 0
 413 007e D917     		asr	r1, r3, #31
ARM GAS  C:\Users\ADMINI~1\AppData\Local\Temp\cc85ADh7.s 			page 27


 414 0080 E369     		ldr	r3, [r4, #28]
 415              	.LVL51:
 416 0082 E269     		ldr	r2, [r4, #28]
 417              	.LBE379:
 418              	.LBE382:
 153:.\20648_driver\invn/ml_math_func.c **** 	matrix_product[2] = inv_q30_mult(left_matrix[0], right_matrix[2]) + inv_q30_mult(left_matrix[1], r
 419              		.loc 1 153 0
 420 0084 3F18     		add	r7, r7, r0
 421              	.LBB383:
 422              	.LBB380:
 144:.\20648_driver\invn/ml_math_func.c **** 	result = (long)(temp >> 30);
 423              		.loc 1 144 0
 424 0086 DB17     		asr	r3, r3, #31
 425              	.LVL52:
 426 0088 A868     		ldr	r0, [r5, #8]
 427              	.LVL53:
 428 008a FFF7FEFF 		bl	__aeabi_lmul
 429              	.LVL54:
 145:.\20648_driver\invn/ml_math_func.c **** 	return result;
 430              		.loc 1 145 0
 431 008e 8900     		lsl	r1, r1, #2
 432 0090 800F     		lsr	r0, r0, #30
 433 0092 0843     		orr	r0, r1
 434              	.LBE380:
 435              	.LBE383:
 153:.\20648_driver\invn/ml_math_func.c **** 	matrix_product[2] = inv_q30_mult(left_matrix[0], right_matrix[2]) + inv_q30_mult(left_matrix[1], r
 436              		.loc 1 153 0
 437 0094 3818     		add	r0, r7, r0
 438 0096 7060     		str	r0, [r6, #4]
 439              	.LVL55:
 440              	.LBB384:
 441              	.LBB385:
 144:.\20648_driver\invn/ml_math_func.c **** 	result = (long)(temp >> 30);
 442              		.loc 1 144 0
 443 0098 2B68     		ldr	r3, [r5]
 444              	.LBE385:
 445              	.LBE384:
 163:.\20648_driver\invn/ml_math_func.c **** 
 446              		.loc 1 163 0
 447              		@ sp needed
 448              	.LBB388:
 449              	.LBB386:
 144:.\20648_driver\invn/ml_math_func.c **** 	result = (long)(temp >> 30);
 450              		.loc 1 144 0
 451 009a D917     		asr	r1, r3, #31
 452 009c A368     		ldr	r3, [r4, #8]
 453 009e 2868     		ldr	r0, [r5]
 454 00a0 DB17     		asr	r3, r3, #31
 455 00a2 A268     		ldr	r2, [r4, #8]
 456 00a4 FFF7FEFF 		bl	__aeabi_lmul
 457              	.LVL56:
 458              	.LBE386:
 459              	.LBE388:
 460              	.LBB389:
 461              	.LBB390:
 462 00a8 6B68     		ldr	r3, [r5, #4]
 463              	.LVL57:
ARM GAS  C:\Users\ADMINI~1\AppData\Local\Temp\cc85ADh7.s 			page 28


 464              	.LBE390:
 465              	.LBE389:
 466              	.LBB393:
 467              	.LBB387:
 145:.\20648_driver\invn/ml_math_func.c **** 	return result;
 468              		.loc 1 145 0
 469 00aa 8900     		lsl	r1, r1, #2
 470 00ac 870F     		lsr	r7, r0, #30
 471 00ae 0F43     		orr	r7, r1
 472              	.LBE387:
 473              	.LBE393:
 474              	.LBB394:
 475              	.LBB391:
 144:.\20648_driver\invn/ml_math_func.c **** 	result = (long)(temp >> 30);
 476              		.loc 1 144 0
 477 00b0 D917     		asr	r1, r3, #31
 478 00b2 6369     		ldr	r3, [r4, #20]
 479              	.LVL58:
 480 00b4 6868     		ldr	r0, [r5, #4]
 481              	.LVL59:
 482 00b6 6269     		ldr	r2, [r4, #20]
 483 00b8 DB17     		asr	r3, r3, #31
 484              	.LVL60:
 485 00ba FFF7FEFF 		bl	__aeabi_lmul
 486              	.LVL61:
 487              	.LBE391:
 488              	.LBE394:
 489              	.LBB395:
 490              	.LBB396:
 491 00be AB68     		ldr	r3, [r5, #8]
 492              	.LVL62:
 493              	.LBE396:
 494              	.LBE395:
 495              	.LBB399:
 496              	.LBB392:
 145:.\20648_driver\invn/ml_math_func.c **** 	return result;
 497              		.loc 1 145 0
 498 00c0 8900     		lsl	r1, r1, #2
 499 00c2 800F     		lsr	r0, r0, #30
 500 00c4 0843     		orr	r0, r1
 501              	.LBE392:
 502              	.LBE399:
 503              	.LBB400:
 504              	.LBB397:
 144:.\20648_driver\invn/ml_math_func.c **** 	result = (long)(temp >> 30);
 505              		.loc 1 144 0
 506 00c6 D917     		asr	r1, r3, #31
 507 00c8 236A     		ldr	r3, [r4, #32]
 508              	.LVL63:
 509 00ca 226A     		ldr	r2, [r4, #32]
 510              	.LBE397:
 511              	.LBE400:
 154:.\20648_driver\invn/ml_math_func.c **** 
 512              		.loc 1 154 0
 513 00cc 3F18     		add	r7, r7, r0
 514              	.LBB401:
 515              	.LBB398:
ARM GAS  C:\Users\ADMINI~1\AppData\Local\Temp\cc85ADh7.s 			page 29


 144:.\20648_driver\invn/ml_math_func.c **** 	result = (long)(temp >> 30);
 516              		.loc 1 144 0
 517 00ce DB17     		asr	r3, r3, #31
 518              	.LVL64:
 519 00d0 A868     		ldr	r0, [r5, #8]
 520              	.LVL65:
 521 00d2 FFF7FEFF 		bl	__aeabi_lmul
 522              	.LVL66:
 145:.\20648_driver\invn/ml_math_func.c **** 	return result;
 523              		.loc 1 145 0
 524 00d6 8900     		lsl	r1, r1, #2
 525 00d8 800F     		lsr	r0, r0, #30
 526 00da 0843     		orr	r0, r1
 527              	.LBE398:
 528              	.LBE401:
 154:.\20648_driver\invn/ml_math_func.c **** 
 529              		.loc 1 154 0
 530 00dc 3818     		add	r0, r7, r0
 531 00de B060     		str	r0, [r6, #8]
 532              	.LVL67:
 533              	.LBB402:
 534              	.LBB403:
 144:.\20648_driver\invn/ml_math_func.c **** 	result = (long)(temp >> 30);
 535              		.loc 1 144 0
 536 00e0 EB68     		ldr	r3, [r5, #12]
 537 00e2 E868     		ldr	r0, [r5, #12]
 538 00e4 D917     		asr	r1, r3, #31
 539 00e6 2368     		ldr	r3, [r4]
 540 00e8 2268     		ldr	r2, [r4]
 541 00ea DB17     		asr	r3, r3, #31
 542 00ec FFF7FEFF 		bl	__aeabi_lmul
 543              	.LVL68:
 544              	.LBE403:
 545              	.LBE402:
 546              	.LBB405:
 547              	.LBB406:
 548 00f0 2B69     		ldr	r3, [r5, #16]
 549              	.LVL69:
 550              	.LBE406:
 551              	.LBE405:
 552              	.LBB409:
 553              	.LBB404:
 145:.\20648_driver\invn/ml_math_func.c **** 	return result;
 554              		.loc 1 145 0
 555 00f2 8900     		lsl	r1, r1, #2
 556 00f4 870F     		lsr	r7, r0, #30
 557 00f6 0F43     		orr	r7, r1
 558              	.LBE404:
 559              	.LBE409:
 560              	.LBB410:
 561              	.LBB407:
 144:.\20648_driver\invn/ml_math_func.c **** 	result = (long)(temp >> 30);
 562              		.loc 1 144 0
 563 00f8 D917     		asr	r1, r3, #31
 564 00fa E368     		ldr	r3, [r4, #12]
 565              	.LVL70:
 566 00fc 2869     		ldr	r0, [r5, #16]
ARM GAS  C:\Users\ADMINI~1\AppData\Local\Temp\cc85ADh7.s 			page 30


 567              	.LVL71:
 568 00fe E268     		ldr	r2, [r4, #12]
 569 0100 DB17     		asr	r3, r3, #31
 570              	.LVL72:
 571 0102 FFF7FEFF 		bl	__aeabi_lmul
 572              	.LVL73:
 573              	.LBE407:
 574              	.LBE410:
 575              	.LBB411:
 576              	.LBB412:
 577 0106 6B69     		ldr	r3, [r5, #20]
 578              	.LVL74:
 579              	.LBE412:
 580              	.LBE411:
 581              	.LBB415:
 582              	.LBB408:
 145:.\20648_driver\invn/ml_math_func.c **** 	return result;
 583              		.loc 1 145 0
 584 0108 8900     		lsl	r1, r1, #2
 585 010a 800F     		lsr	r0, r0, #30
 586 010c 0843     		orr	r0, r1
 587              	.LBE408:
 588              	.LBE415:
 589              	.LBB416:
 590              	.LBB413:
 144:.\20648_driver\invn/ml_math_func.c **** 	result = (long)(temp >> 30);
 591              		.loc 1 144 0
 592 010e D917     		asr	r1, r3, #31
 593 0110 A369     		ldr	r3, [r4, #24]
 594              	.LVL75:
 595 0112 A269     		ldr	r2, [r4, #24]
 596              	.LBE413:
 597              	.LBE416:
 156:.\20648_driver\invn/ml_math_func.c **** 	matrix_product[4] = inv_q30_mult(left_matrix[3], right_matrix[1]) + inv_q30_mult(left_matrix[4], r
 598              		.loc 1 156 0
 599 0114 3F18     		add	r7, r7, r0
 600              	.LBB417:
 601              	.LBB414:
 144:.\20648_driver\invn/ml_math_func.c **** 	result = (long)(temp >> 30);
 602              		.loc 1 144 0
 603 0116 DB17     		asr	r3, r3, #31
 604              	.LVL76:
 605 0118 6869     		ldr	r0, [r5, #20]
 606              	.LVL77:
 607 011a FFF7FEFF 		bl	__aeabi_lmul
 608              	.LVL78:
 145:.\20648_driver\invn/ml_math_func.c **** 	return result;
 609              		.loc 1 145 0
 610 011e 8900     		lsl	r1, r1, #2
 611 0120 800F     		lsr	r0, r0, #30
 612 0122 0843     		orr	r0, r1
 613              	.LBE414:
 614              	.LBE417:
 156:.\20648_driver\invn/ml_math_func.c **** 	matrix_product[4] = inv_q30_mult(left_matrix[3], right_matrix[1]) + inv_q30_mult(left_matrix[4], r
 615              		.loc 1 156 0
 616 0124 3818     		add	r0, r7, r0
 617 0126 F060     		str	r0, [r6, #12]
ARM GAS  C:\Users\ADMINI~1\AppData\Local\Temp\cc85ADh7.s 			page 31


 618              	.LVL79:
 619              	.LBB418:
 620              	.LBB419:
 144:.\20648_driver\invn/ml_math_func.c **** 	result = (long)(temp >> 30);
 621              		.loc 1 144 0
 622 0128 EB68     		ldr	r3, [r5, #12]
 623 012a E868     		ldr	r0, [r5, #12]
 624 012c D917     		asr	r1, r3, #31
 625 012e 6368     		ldr	r3, [r4, #4]
 626 0130 6268     		ldr	r2, [r4, #4]
 627 0132 DB17     		asr	r3, r3, #31
 628 0134 FFF7FEFF 		bl	__aeabi_lmul
 629              	.LVL80:
 630              	.LBE419:
 631              	.LBE418:
 632              	.LBB421:
 633              	.LBB422:
 634 0138 2B69     		ldr	r3, [r5, #16]
 635              	.LVL81:
 636              	.LBE422:
 637              	.LBE421:
 638              	.LBB425:
 639              	.LBB420:
 145:.\20648_driver\invn/ml_math_func.c **** 	return result;
 640              		.loc 1 145 0
 641 013a 8900     		lsl	r1, r1, #2
 642 013c 870F     		lsr	r7, r0, #30
 643 013e 0F43     		orr	r7, r1
 644              	.LBE420:
 645              	.LBE425:
 646              	.LBB426:
 647              	.LBB423:
 144:.\20648_driver\invn/ml_math_func.c **** 	result = (long)(temp >> 30);
 648              		.loc 1 144 0
 649 0140 D917     		asr	r1, r3, #31
 650 0142 2369     		ldr	r3, [r4, #16]
 651              	.LVL82:
 652 0144 2869     		ldr	r0, [r5, #16]
 653              	.LVL83:
 654 0146 2269     		ldr	r2, [r4, #16]
 655 0148 DB17     		asr	r3, r3, #31
 656              	.LVL84:
 657 014a FFF7FEFF 		bl	__aeabi_lmul
 658              	.LVL85:
 659              	.LBE423:
 660              	.LBE426:
 661              	.LBB427:
 662              	.LBB428:
 663 014e 6B69     		ldr	r3, [r5, #20]
 664              	.LVL86:
 665              	.LBE428:
 666              	.LBE427:
 667              	.LBB431:
 668              	.LBB424:
 145:.\20648_driver\invn/ml_math_func.c **** 	return result;
 669              		.loc 1 145 0
 670 0150 8900     		lsl	r1, r1, #2
ARM GAS  C:\Users\ADMINI~1\AppData\Local\Temp\cc85ADh7.s 			page 32


 671 0152 800F     		lsr	r0, r0, #30
 672 0154 0843     		orr	r0, r1
 673              	.LBE424:
 674              	.LBE431:
 675              	.LBB432:
 676              	.LBB429:
 144:.\20648_driver\invn/ml_math_func.c **** 	result = (long)(temp >> 30);
 677              		.loc 1 144 0
 678 0156 D917     		asr	r1, r3, #31
 679 0158 E369     		ldr	r3, [r4, #28]
 680              	.LVL87:
 681 015a E269     		ldr	r2, [r4, #28]
 682              	.LBE429:
 683              	.LBE432:
 157:.\20648_driver\invn/ml_math_func.c **** 	matrix_product[5] = inv_q30_mult(left_matrix[3], right_matrix[2]) + inv_q30_mult(left_matrix[4], r
 684              		.loc 1 157 0
 685 015c 3F18     		add	r7, r7, r0
 686              	.LBB433:
 687              	.LBB430:
 144:.\20648_driver\invn/ml_math_func.c **** 	result = (long)(temp >> 30);
 688              		.loc 1 144 0
 689 015e DB17     		asr	r3, r3, #31
 690              	.LVL88:
 691 0160 6869     		ldr	r0, [r5, #20]
 692              	.LVL89:
 693 0162 FFF7FEFF 		bl	__aeabi_lmul
 694              	.LVL90:
 145:.\20648_driver\invn/ml_math_func.c **** 	return result;
 695              		.loc 1 145 0
 696 0166 8900     		lsl	r1, r1, #2
 697 0168 800F     		lsr	r0, r0, #30
 698 016a 0843     		orr	r0, r1
 699              	.LBE430:
 700              	.LBE433:
 157:.\20648_driver\invn/ml_math_func.c **** 	matrix_product[5] = inv_q30_mult(left_matrix[3], right_matrix[2]) + inv_q30_mult(left_matrix[4], r
 701              		.loc 1 157 0
 702 016c 3818     		add	r0, r7, r0
 703 016e 3061     		str	r0, [r6, #16]
 704              	.LVL91:
 705              	.LBB434:
 706              	.LBB435:
 144:.\20648_driver\invn/ml_math_func.c **** 	result = (long)(temp >> 30);
 707              		.loc 1 144 0
 708 0170 EB68     		ldr	r3, [r5, #12]
 709 0172 E868     		ldr	r0, [r5, #12]
 710 0174 D917     		asr	r1, r3, #31
 711 0176 A368     		ldr	r3, [r4, #8]
 712 0178 A268     		ldr	r2, [r4, #8]
 713 017a DB17     		asr	r3, r3, #31
 714 017c FFF7FEFF 		bl	__aeabi_lmul
 715              	.LVL92:
 716              	.LBE435:
 717              	.LBE434:
 718              	.LBB437:
 719              	.LBB438:
 720 0180 2B69     		ldr	r3, [r5, #16]
 721              	.LVL93:
ARM GAS  C:\Users\ADMINI~1\AppData\Local\Temp\cc85ADh7.s 			page 33


 722              	.LBE438:
 723              	.LBE437:
 724              	.LBB441:
 725              	.LBB436:
 145:.\20648_driver\invn/ml_math_func.c **** 	return result;
 726              		.loc 1 145 0
 727 0182 8900     		lsl	r1, r1, #2
 728 0184 870F     		lsr	r7, r0, #30
 729 0186 0F43     		orr	r7, r1
 730              	.LBE436:
 731              	.LBE441:
 732              	.LBB442:
 733              	.LBB439:
 144:.\20648_driver\invn/ml_math_func.c **** 	result = (long)(temp >> 30);
 734              		.loc 1 144 0
 735 0188 D917     		asr	r1, r3, #31
 736 018a 6369     		ldr	r3, [r4, #20]
 737              	.LVL94:
 738 018c 2869     		ldr	r0, [r5, #16]
 739              	.LVL95:
 740 018e 6269     		ldr	r2, [r4, #20]
 741 0190 DB17     		asr	r3, r3, #31
 742              	.LVL96:
 743 0192 FFF7FEFF 		bl	__aeabi_lmul
 744              	.LVL97:
 745              	.LBE439:
 746              	.LBE442:
 747              	.LBB443:
 748              	.LBB444:
 749 0196 6B69     		ldr	r3, [r5, #20]
 750              	.LVL98:
 751              	.LBE444:
 752              	.LBE443:
 753              	.LBB447:
 754              	.LBB440:
 145:.\20648_driver\invn/ml_math_func.c **** 	return result;
 755              		.loc 1 145 0
 756 0198 8900     		lsl	r1, r1, #2
 757 019a 800F     		lsr	r0, r0, #30
 758 019c 0843     		orr	r0, r1
 759              	.LBE440:
 760              	.LBE447:
 761              	.LBB448:
 762              	.LBB445:
 144:.\20648_driver\invn/ml_math_func.c **** 	result = (long)(temp >> 30);
 763              		.loc 1 144 0
 764 019e D917     		asr	r1, r3, #31
 765 01a0 236A     		ldr	r3, [r4, #32]
 766              	.LVL99:
 767 01a2 226A     		ldr	r2, [r4, #32]
 768              	.LBE445:
 769              	.LBE448:
 158:.\20648_driver\invn/ml_math_func.c **** 
 770              		.loc 1 158 0
 771 01a4 3F18     		add	r7, r7, r0
 772              	.LBB449:
 773              	.LBB446:
ARM GAS  C:\Users\ADMINI~1\AppData\Local\Temp\cc85ADh7.s 			page 34


 144:.\20648_driver\invn/ml_math_func.c **** 	result = (long)(temp >> 30);
 774              		.loc 1 144 0
 775 01a6 DB17     		asr	r3, r3, #31
 776              	.LVL100:
 777 01a8 6869     		ldr	r0, [r5, #20]
 778              	.LVL101:
 779 01aa FFF7FEFF 		bl	__aeabi_lmul
 780              	.LVL102:
 145:.\20648_driver\invn/ml_math_func.c **** 	return result;
 781              		.loc 1 145 0
 782 01ae 8900     		lsl	r1, r1, #2
 783 01b0 800F     		lsr	r0, r0, #30
 784 01b2 0843     		orr	r0, r1
 785              	.LBE446:
 786              	.LBE449:
 158:.\20648_driver\invn/ml_math_func.c **** 
 787              		.loc 1 158 0
 788 01b4 3818     		add	r0, r7, r0
 789 01b6 7061     		str	r0, [r6, #20]
 790              	.LVL103:
 791              	.LBB450:
 792              	.LBB451:
 144:.\20648_driver\invn/ml_math_func.c **** 	result = (long)(temp >> 30);
 793              		.loc 1 144 0
 794 01b8 AB69     		ldr	r3, [r5, #24]
 795 01ba A869     		ldr	r0, [r5, #24]
 796 01bc D917     		asr	r1, r3, #31
 797 01be 2368     		ldr	r3, [r4]
 798 01c0 2268     		ldr	r2, [r4]
 799 01c2 DB17     		asr	r3, r3, #31
 800 01c4 FFF7FEFF 		bl	__aeabi_lmul
 801              	.LVL104:
 802              	.LBE451:
 803              	.LBE450:
 804              	.LBB453:
 805              	.LBB454:
 806 01c8 EB69     		ldr	r3, [r5, #28]
 807              	.LVL105:
 808              	.LBE454:
 809              	.LBE453:
 810              	.LBB457:
 811              	.LBB452:
 145:.\20648_driver\invn/ml_math_func.c **** 	return result;
 812              		.loc 1 145 0
 813 01ca 8900     		lsl	r1, r1, #2
 814 01cc 870F     		lsr	r7, r0, #30
 815 01ce 0F43     		orr	r7, r1
 816              	.LBE452:
 817              	.LBE457:
 818              	.LBB458:
 819              	.LBB455:
 144:.\20648_driver\invn/ml_math_func.c **** 	result = (long)(temp >> 30);
 820              		.loc 1 144 0
 821 01d0 D917     		asr	r1, r3, #31
 822 01d2 E368     		ldr	r3, [r4, #12]
 823              	.LVL106:
 824 01d4 E869     		ldr	r0, [r5, #28]
ARM GAS  C:\Users\ADMINI~1\AppData\Local\Temp\cc85ADh7.s 			page 35


 825              	.LVL107:
 826 01d6 DB17     		asr	r3, r3, #31
 827              	.LVL108:
 828 01d8 E268     		ldr	r2, [r4, #12]
 829              	.LVL109:
 830 01da FFF7FEFF 		bl	__aeabi_lmul
 831              	.LVL110:
 832              	.LBE455:
 833              	.LBE458:
 834              	.LBB459:
 835              	.LBB460:
 836 01de 2B6A     		ldr	r3, [r5, #32]
 837              	.LVL111:
 838              	.LBE460:
 839              	.LBE459:
 840              	.LBB463:
 841              	.LBB456:
 145:.\20648_driver\invn/ml_math_func.c **** 	return result;
 842              		.loc 1 145 0
 843 01e0 8900     		lsl	r1, r1, #2
 844 01e2 800F     		lsr	r0, r0, #30
 845 01e4 0843     		orr	r0, r1
 846              	.LBE456:
 847              	.LBE463:
 848              	.LBB464:
 849              	.LBB461:
 144:.\20648_driver\invn/ml_math_func.c **** 	result = (long)(temp >> 30);
 850              		.loc 1 144 0
 851 01e6 D917     		asr	r1, r3, #31
 852 01e8 A369     		ldr	r3, [r4, #24]
 853              	.LVL112:
 854 01ea A269     		ldr	r2, [r4, #24]
 855              	.LBE461:
 856              	.LBE464:
 160:.\20648_driver\invn/ml_math_func.c **** 	matrix_product[7] = inv_q30_mult(left_matrix[6], right_matrix[1]) + inv_q30_mult(left_matrix[7], r
 857              		.loc 1 160 0
 858 01ec 3F18     		add	r7, r7, r0
 859              	.LBB465:
 860              	.LBB462:
 144:.\20648_driver\invn/ml_math_func.c **** 	result = (long)(temp >> 30);
 861              		.loc 1 144 0
 862 01ee DB17     		asr	r3, r3, #31
 863              	.LVL113:
 864 01f0 286A     		ldr	r0, [r5, #32]
 865              	.LVL114:
 866 01f2 FFF7FEFF 		bl	__aeabi_lmul
 867              	.LVL115:
 145:.\20648_driver\invn/ml_math_func.c **** 	return result;
 868              		.loc 1 145 0
 869 01f6 8900     		lsl	r1, r1, #2
 870 01f8 800F     		lsr	r0, r0, #30
 871 01fa 0843     		orr	r0, r1
 872              	.LBE462:
 873              	.LBE465:
 160:.\20648_driver\invn/ml_math_func.c **** 	matrix_product[7] = inv_q30_mult(left_matrix[6], right_matrix[1]) + inv_q30_mult(left_matrix[7], r
 874              		.loc 1 160 0
 875 01fc 3818     		add	r0, r7, r0
ARM GAS  C:\Users\ADMINI~1\AppData\Local\Temp\cc85ADh7.s 			page 36


 876 01fe B061     		str	r0, [r6, #24]
 877              	.LVL116:
 878              	.LBB466:
 879              	.LBB467:
 144:.\20648_driver\invn/ml_math_func.c **** 	result = (long)(temp >> 30);
 880              		.loc 1 144 0
 881 0200 AB69     		ldr	r3, [r5, #24]
 882 0202 A869     		ldr	r0, [r5, #24]
 883 0204 D917     		asr	r1, r3, #31
 884 0206 6368     		ldr	r3, [r4, #4]
 885 0208 6268     		ldr	r2, [r4, #4]
 886 020a DB17     		asr	r3, r3, #31
 887 020c FFF7FEFF 		bl	__aeabi_lmul
 888              	.LVL117:
 889              	.LBE467:
 890              	.LBE466:
 891              	.LBB469:
 892              	.LBB470:
 893 0210 EB69     		ldr	r3, [r5, #28]
 894              	.LVL118:
 895              	.LBE470:
 896              	.LBE469:
 897              	.LBB473:
 898              	.LBB468:
 145:.\20648_driver\invn/ml_math_func.c **** 	return result;
 899              		.loc 1 145 0
 900 0212 8900     		lsl	r1, r1, #2
 901 0214 870F     		lsr	r7, r0, #30
 902 0216 0F43     		orr	r7, r1
 903              	.LBE468:
 904              	.LBE473:
 905              	.LBB474:
 906              	.LBB471:
 144:.\20648_driver\invn/ml_math_func.c **** 	result = (long)(temp >> 30);
 907              		.loc 1 144 0
 908 0218 D917     		asr	r1, r3, #31
 909 021a 2369     		ldr	r3, [r4, #16]
 910              	.LVL119:
 911 021c E869     		ldr	r0, [r5, #28]
 912              	.LVL120:
 913 021e 2269     		ldr	r2, [r4, #16]
 914 0220 DB17     		asr	r3, r3, #31
 915              	.LVL121:
 916 0222 FFF7FEFF 		bl	__aeabi_lmul
 917              	.LVL122:
 918              	.LBE471:
 919              	.LBE474:
 920              	.LBB475:
 921              	.LBB476:
 922 0226 2B6A     		ldr	r3, [r5, #32]
 923              	.LVL123:
 924              	.LBE476:
 925              	.LBE475:
 926              	.LBB479:
 927              	.LBB472:
 145:.\20648_driver\invn/ml_math_func.c **** 	return result;
 928              		.loc 1 145 0
ARM GAS  C:\Users\ADMINI~1\AppData\Local\Temp\cc85ADh7.s 			page 37


 929 0228 8900     		lsl	r1, r1, #2
 930 022a 800F     		lsr	r0, r0, #30
 931 022c 0843     		orr	r0, r1
 932              	.LBE472:
 933              	.LBE479:
 934              	.LBB480:
 935              	.LBB477:
 144:.\20648_driver\invn/ml_math_func.c **** 	result = (long)(temp >> 30);
 936              		.loc 1 144 0
 937 022e D917     		asr	r1, r3, #31
 938 0230 E369     		ldr	r3, [r4, #28]
 939              	.LVL124:
 940 0232 E269     		ldr	r2, [r4, #28]
 941              	.LBE477:
 942              	.LBE480:
 161:.\20648_driver\invn/ml_math_func.c **** 	matrix_product[8] = inv_q30_mult(left_matrix[6], right_matrix[2]) + inv_q30_mult(left_matrix[7], r
 943              		.loc 1 161 0
 944 0234 3F18     		add	r7, r7, r0
 945              	.LBB481:
 946              	.LBB478:
 144:.\20648_driver\invn/ml_math_func.c **** 	result = (long)(temp >> 30);
 947              		.loc 1 144 0
 948 0236 DB17     		asr	r3, r3, #31
 949              	.LVL125:
 950 0238 286A     		ldr	r0, [r5, #32]
 951              	.LVL126:
 952 023a FFF7FEFF 		bl	__aeabi_lmul
 953              	.LVL127:
 145:.\20648_driver\invn/ml_math_func.c **** 	return result;
 954              		.loc 1 145 0
 955 023e 8900     		lsl	r1, r1, #2
 956 0240 800F     		lsr	r0, r0, #30
 957 0242 0843     		orr	r0, r1
 958              	.LBE478:
 959              	.LBE481:
 161:.\20648_driver\invn/ml_math_func.c **** 	matrix_product[8] = inv_q30_mult(left_matrix[6], right_matrix[2]) + inv_q30_mult(left_matrix[7], r
 960              		.loc 1 161 0
 961 0244 3818     		add	r0, r7, r0
 962 0246 F061     		str	r0, [r6, #28]
 963              	.LVL128:
 964              	.LBB482:
 965              	.LBB483:
 144:.\20648_driver\invn/ml_math_func.c **** 	result = (long)(temp >> 30);
 966              		.loc 1 144 0
 967 0248 AB69     		ldr	r3, [r5, #24]
 968 024a A869     		ldr	r0, [r5, #24]
 969 024c D917     		asr	r1, r3, #31
 970 024e A368     		ldr	r3, [r4, #8]
 971 0250 A268     		ldr	r2, [r4, #8]
 972 0252 DB17     		asr	r3, r3, #31
 973 0254 FFF7FEFF 		bl	__aeabi_lmul
 974              	.LVL129:
 975              	.LBE483:
 976              	.LBE482:
 977              	.LBB485:
 978              	.LBB486:
 979 0258 EB69     		ldr	r3, [r5, #28]
ARM GAS  C:\Users\ADMINI~1\AppData\Local\Temp\cc85ADh7.s 			page 38


 980              	.LVL130:
 981              	.LBE486:
 982              	.LBE485:
 983              	.LBB488:
 984              	.LBB484:
 145:.\20648_driver\invn/ml_math_func.c **** 	return result;
 985              		.loc 1 145 0
 986 025a 8900     		lsl	r1, r1, #2
 987 025c 870F     		lsr	r7, r0, #30
 988 025e 0F43     		orr	r7, r1
 989              	.LBE484:
 990              	.LBE488:
 991              	.LBB489:
 992              	.LBB487:
 144:.\20648_driver\invn/ml_math_func.c **** 	result = (long)(temp >> 30);
 993              		.loc 1 144 0
 994 0260 D917     		asr	r1, r3, #31
 995 0262 6369     		ldr	r3, [r4, #20]
 996              	.LVL131:
 997 0264 E869     		ldr	r0, [r5, #28]
 998              	.LVL132:
 999 0266 6269     		ldr	r2, [r4, #20]
 1000 0268 DB17     		asr	r3, r3, #31
 1001              	.LVL133:
 1002 026a FFF7FEFF 		bl	__aeabi_lmul
 1003              	.LVL134:
 145:.\20648_driver\invn/ml_math_func.c **** 	return result;
 1004              		.loc 1 145 0
 1005 026e 8900     		lsl	r1, r1, #2
 1006 0270 800F     		lsr	r0, r0, #30
 1007 0272 0843     		orr	r0, r1
 1008              	.LBE487:
 1009              	.LBE489:
 162:.\20648_driver\invn/ml_math_func.c **** }
 1010              		.loc 1 162 0
 1011 0274 3F18     		add	r7, r7, r0
 1012              	.LBB490:
 1013              	.LBB491:
 144:.\20648_driver\invn/ml_math_func.c **** 	result = (long)(temp >> 30);
 1014              		.loc 1 144 0
 1015 0276 286A     		ldr	r0, [r5, #32]
 1016              	.LVL135:
 1017 0278 226A     		ldr	r2, [r4, #32]
 1018              	.LVL136:
 1019 027a C117     		asr	r1, r0, #31
 1020 027c D317     		asr	r3, r2, #31
 1021 027e FFF7FEFF 		bl	__aeabi_lmul
 1022              	.LVL137:
 145:.\20648_driver\invn/ml_math_func.c **** 	return result;
 1023              		.loc 1 145 0
 1024 0282 8900     		lsl	r1, r1, #2
 1025 0284 800F     		lsr	r0, r0, #30
 1026 0286 0843     		orr	r0, r1
 1027              	.LBE491:
 1028              	.LBE490:
 162:.\20648_driver\invn/ml_math_func.c **** }
 1029              		.loc 1 162 0
ARM GAS  C:\Users\ADMINI~1\AppData\Local\Temp\cc85ADh7.s 			page 39


 1030 0288 3818     		add	r0, r7, r0
 1031 028a 3062     		str	r0, [r6, #32]
 1032              	.LVL138:
 1033              	.LVL139:
 1034              	.LVL140:
 163:.\20648_driver\invn/ml_math_func.c **** 
 1035              		.loc 1 163 0
 1036 028c F8BD     		pop	{r3, r4, r5, r6, r7, pc}
 1037              		.cfi_endproc
 1038              	.LFE9:
 1039              		.size	inv_q30_matrix_mult, .-inv_q30_matrix_mult
 1040              		.global	__aeabi_ldivmod
 1041              		.section	.text.inv_q30_div,"ax",%progbits
 1042              		.align	1
 1043              		.global	inv_q30_div
 1044              		.code	16
 1045              		.thumb_func
 1046              		.type	inv_q30_div, %function
 1047              	inv_q30_div:
 1048              	.LFB10:
 167:.\20648_driver\invn/ml_math_func.c **** 	long long temp;
 1049              		.loc 1 167 0
 1050              		.cfi_startproc
 1051              	.LVL141:
 1052 0000 0A1C     		mov	r2, r1
 1053              	.LVL142:
 1054 0002 08B5     		push	{r3, lr}
 1055              		.cfi_def_cfa_offset 8
 1056              		.cfi_offset 3, -8
 1057              		.cfi_offset 14, -4
 170:.\20648_driver\invn/ml_math_func.c **** 	result = (long)temp;
 1058              		.loc 1 170 0
 1059 0004 C117     		asr	r1, r0, #31
 1060              	.LVL143:
 1061 0006 8308     		lsr	r3, r0, #2
 1062 0008 8907     		lsl	r1, r1, #30
 1063 000a 1943     		orr	r1, r3
 1064 000c 8007     		lsl	r0, r0, #30
 1065              	.LVL144:
 1066 000e D317     		asr	r3, r2, #31
 1067 0010 FFF7FEFF 		bl	__aeabi_ldivmod
 1068              	.LVL145:
 173:.\20648_driver\invn/ml_math_func.c **** #endif
 1069              		.loc 1 173 0
 1070              		@ sp needed
 1071 0014 08BD     		pop	{r3, pc}
 1072              		.cfi_endproc
 1073              	.LFE10:
 1074              		.size	inv_q30_div, .-inv_q30_div
 1075              		.section	.text.inv_q_shift_mult,"ax",%progbits
 1076              		.align	1
 1077              		.global	inv_q_shift_mult
 1078              		.code	16
 1079              		.thumb_func
 1080              		.type	inv_q_shift_mult, %function
 1081              	inv_q_shift_mult:
 1082              	.LFB11:
ARM GAS  C:\Users\ADMINI~1\AppData\Local\Temp\cc85ADh7.s 			page 40


 186:.\20648_driver\invn/ml_math_func.c **** 	long result;
 1083              		.loc 1 186 0
 1084              		.cfi_startproc
 1085              	.LVL146:
 1086 0000 38B5     		push	{r3, r4, r5, lr}
 1087              		.cfi_def_cfa_offset 16
 1088              		.cfi_offset 3, -16
 1089              		.cfi_offset 4, -12
 1090              		.cfi_offset 5, -8
 1091              		.cfi_offset 14, -4
 186:.\20648_driver\invn/ml_math_func.c **** 	long result;
 1092              		.loc 1 186 0
 1093 0002 0C1C     		mov	r4, r1
 1094 0004 151C     		mov	r5, r2
 1095              	.LVL147:
 188:.\20648_driver\invn/ml_math_func.c **** 	return result;
 1096              		.loc 1 188 0
 1097 0006 E317     		asr	r3, r4, #31
 1098 0008 221C     		mov	r2, r4
 1099              	.LVL148:
 1100 000a C117     		asr	r1, r0, #31
 1101              	.LVL149:
 1102 000c FFF7FEFF 		bl	__aeabi_lmul
 1103              	.LVL150:
 1104 0010 2A1C     		mov	r2, r5
 1105 0012 FFF7FEFF 		bl	__aeabi_lasr
 1106              	.LVL151:
 190:.\20648_driver\invn/ml_math_func.c **** #endif
 1107              		.loc 1 190 0
 1108              		@ sp needed
 1109              	.LVL152:
 1110              	.LVL153:
 1111 0016 38BD     		pop	{r3, r4, r5, pc}
 1112              		.cfi_endproc
 1113              	.LFE11:
 1114              		.size	inv_q_shift_mult, .-inv_q_shift_mult
 1115              		.section	.text.inv_q_mult,"ax",%progbits
 1116              		.align	1
 1117              		.global	inv_q_mult
 1118              		.code	16
 1119              		.thumb_func
 1120              		.type	inv_q_mult, %function
 1121              	inv_q_mult:
 1122              	.LFB12:
 202:.\20648_driver\invn/ml_math_func.c **** 	qProd[0] = inv_q30_mult(q1[0], q2[0]) - inv_q30_mult(q1[1], q2[1]) -
 1123              		.loc 1 202 0
 1124              		.cfi_startproc
 1125              	.LVL154:
 1126 0000 F8B5     		push	{r3, r4, r5, r6, r7, lr}
 1127              		.cfi_def_cfa_offset 24
 1128              		.cfi_offset 3, -24
 1129              		.cfi_offset 4, -20
 1130              		.cfi_offset 5, -16
 1131              		.cfi_offset 6, -12
 1132              		.cfi_offset 7, -8
 1133              		.cfi_offset 14, -4
 202:.\20648_driver\invn/ml_math_func.c **** 	qProd[0] = inv_q30_mult(q1[0], q2[0]) - inv_q30_mult(q1[1], q2[1]) -
ARM GAS  C:\Users\ADMINI~1\AppData\Local\Temp\cc85ADh7.s 			page 41


 1134              		.loc 1 202 0
 1135 0002 0C1C     		mov	r4, r1
 1136              	.LVL155:
 1137              	.LBB492:
 1138              	.LBB493:
 144:.\20648_driver\invn/ml_math_func.c **** 	result = (long)(temp >> 30);
 1139              		.loc 1 144 0
 1140 0004 0368     		ldr	r3, [r0]
 1141              	.LBE493:
 1142              	.LBE492:
 202:.\20648_driver\invn/ml_math_func.c **** 	qProd[0] = inv_q30_mult(q1[0], q2[0]) - inv_q30_mult(q1[1], q2[1]) -
 1143              		.loc 1 202 0
 1144 0006 051C     		mov	r5, r0
 1145              	.LBB497:
 1146              	.LBB494:
 144:.\20648_driver\invn/ml_math_func.c **** 	result = (long)(temp >> 30);
 1147              		.loc 1 144 0
 1148 0008 D917     		asr	r1, r3, #31
 1149              	.LVL156:
 1150 000a 2368     		ldr	r3, [r4]
 1151              	.LBE494:
 1152              	.LBE497:
 202:.\20648_driver\invn/ml_math_func.c **** 	qProd[0] = inv_q30_mult(q1[0], q2[0]) - inv_q30_mult(q1[1], q2[1]) -
 1153              		.loc 1 202 0
 1154 000c 171C     		mov	r7, r2
 1155              	.LBB498:
 1156              	.LBB495:
 144:.\20648_driver\invn/ml_math_func.c **** 	result = (long)(temp >> 30);
 1157              		.loc 1 144 0
 1158 000e 0068     		ldr	r0, [r0]
 1159              	.LVL157:
 1160 0010 2268     		ldr	r2, [r4]
 1161              	.LVL158:
 1162 0012 DB17     		asr	r3, r3, #31
 1163 0014 FFF7FEFF 		bl	__aeabi_lmul
 1164              	.LVL159:
 1165              	.LBE495:
 1166              	.LBE498:
 1167              	.LBB499:
 1168              	.LBB500:
 1169 0018 6B68     		ldr	r3, [r5, #4]
 1170              	.LVL160:
 1171              	.LBE500:
 1172              	.LBE499:
 1173              	.LBB503:
 1174              	.LBB496:
 145:.\20648_driver\invn/ml_math_func.c **** 	return result;
 1175              		.loc 1 145 0
 1176 001a 8900     		lsl	r1, r1, #2
 1177 001c 860F     		lsr	r6, r0, #30
 1178 001e 0E43     		orr	r6, r1
 1179              	.LBE496:
 1180              	.LBE503:
 1181              	.LBB504:
 1182              	.LBB501:
 144:.\20648_driver\invn/ml_math_func.c **** 	result = (long)(temp >> 30);
 1183              		.loc 1 144 0
ARM GAS  C:\Users\ADMINI~1\AppData\Local\Temp\cc85ADh7.s 			page 42


 1184 0020 D917     		asr	r1, r3, #31
 1185 0022 6368     		ldr	r3, [r4, #4]
 1186              	.LVL161:
 1187 0024 6868     		ldr	r0, [r5, #4]
 1188              	.LVL162:
 1189 0026 6268     		ldr	r2, [r4, #4]
 1190 0028 DB17     		asr	r3, r3, #31
 1191              	.LVL163:
 1192 002a FFF7FEFF 		bl	__aeabi_lmul
 1193              	.LVL164:
 1194              	.LBE501:
 1195              	.LBE504:
 1196              	.LBB505:
 1197              	.LBB506:
 1198 002e AB68     		ldr	r3, [r5, #8]
 1199              	.LVL165:
 1200              	.LBE506:
 1201              	.LBE505:
 1202              	.LBB510:
 1203              	.LBB502:
 145:.\20648_driver\invn/ml_math_func.c **** 	return result;
 1204              		.loc 1 145 0
 1205 0030 8900     		lsl	r1, r1, #2
 1206 0032 800F     		lsr	r0, r0, #30
 1207 0034 0843     		orr	r0, r1
 1208              	.LBE502:
 1209              	.LBE510:
 1210              	.LBB511:
 1211              	.LBB507:
 144:.\20648_driver\invn/ml_math_func.c **** 	result = (long)(temp >> 30);
 1212              		.loc 1 144 0
 1213 0036 D917     		asr	r1, r3, #31
 1214 0038 A368     		ldr	r3, [r4, #8]
 1215              	.LVL166:
 1216 003a A268     		ldr	r2, [r4, #8]
 1217              	.LBE507:
 1218              	.LBE511:
 203:.\20648_driver\invn/ml_math_func.c **** 		inv_q30_mult(q1[2], q2[2]) - inv_q30_mult(q1[3], q2[3]);
 1219              		.loc 1 203 0
 1220 003c 361A     		sub	r6, r6, r0
 1221              	.LBB512:
 1222              	.LBB508:
 144:.\20648_driver\invn/ml_math_func.c **** 	result = (long)(temp >> 30);
 1223              		.loc 1 144 0
 1224 003e DB17     		asr	r3, r3, #31
 1225              	.LVL167:
 1226 0040 A868     		ldr	r0, [r5, #8]
 1227              	.LVL168:
 1228 0042 FFF7FEFF 		bl	__aeabi_lmul
 1229              	.LVL169:
 1230              	.LBE508:
 1231              	.LBE512:
 1232              	.LBB513:
 1233              	.LBB514:
 1234 0046 EB68     		ldr	r3, [r5, #12]
 1235              	.LVL170:
 1236              	.LBE514:
ARM GAS  C:\Users\ADMINI~1\AppData\Local\Temp\cc85ADh7.s 			page 43


 1237              	.LBE513:
 1238              	.LBB517:
 1239              	.LBB509:
 145:.\20648_driver\invn/ml_math_func.c **** 	return result;
 1240              		.loc 1 145 0
 1241 0048 8900     		lsl	r1, r1, #2
 1242 004a 800F     		lsr	r0, r0, #30
 1243 004c 0843     		orr	r0, r1
 1244              	.LBE509:
 1245              	.LBE517:
 1246              	.LBB518:
 1247              	.LBB515:
 144:.\20648_driver\invn/ml_math_func.c **** 	result = (long)(temp >> 30);
 1248              		.loc 1 144 0
 1249 004e D917     		asr	r1, r3, #31
 1250 0050 E368     		ldr	r3, [r4, #12]
 1251              	.LVL171:
 1252 0052 E268     		ldr	r2, [r4, #12]
 1253              	.LBE515:
 1254              	.LBE518:
 203:.\20648_driver\invn/ml_math_func.c **** 		inv_q30_mult(q1[2], q2[2]) - inv_q30_mult(q1[3], q2[3]);
 1255              		.loc 1 203 0
 1256 0054 361A     		sub	r6, r6, r0
 1257              	.LBB519:
 1258              	.LBB516:
 144:.\20648_driver\invn/ml_math_func.c **** 	result = (long)(temp >> 30);
 1259              		.loc 1 144 0
 1260 0056 DB17     		asr	r3, r3, #31
 1261              	.LVL172:
 1262 0058 E868     		ldr	r0, [r5, #12]
 1263              	.LVL173:
 1264 005a FFF7FEFF 		bl	__aeabi_lmul
 1265              	.LVL174:
 145:.\20648_driver\invn/ml_math_func.c **** 	return result;
 1266              		.loc 1 145 0
 1267 005e 8900     		lsl	r1, r1, #2
 1268 0060 800F     		lsr	r0, r0, #30
 1269 0062 0843     		orr	r0, r1
 1270              	.LBE516:
 1271              	.LBE519:
 204:.\20648_driver\invn/ml_math_func.c **** 
 1272              		.loc 1 204 0
 1273 0064 301A     		sub	r0, r6, r0
 203:.\20648_driver\invn/ml_math_func.c **** 		inv_q30_mult(q1[2], q2[2]) - inv_q30_mult(q1[3], q2[3]);
 1274              		.loc 1 203 0
 1275 0066 3860     		str	r0, [r7]
 1276              	.LVL175:
 1277              	.LBB520:
 1278              	.LBB521:
 144:.\20648_driver\invn/ml_math_func.c **** 	result = (long)(temp >> 30);
 1279              		.loc 1 144 0
 1280 0068 2B68     		ldr	r3, [r5]
 1281 006a 2868     		ldr	r0, [r5]
 1282 006c D917     		asr	r1, r3, #31
 1283 006e 6368     		ldr	r3, [r4, #4]
 1284 0070 6268     		ldr	r2, [r4, #4]
 1285 0072 DB17     		asr	r3, r3, #31
ARM GAS  C:\Users\ADMINI~1\AppData\Local\Temp\cc85ADh7.s 			page 44


 1286 0074 FFF7FEFF 		bl	__aeabi_lmul
 1287              	.LVL176:
 1288              	.LBE521:
 1289              	.LBE520:
 1290              	.LBB523:
 1291              	.LBB524:
 1292 0078 6B68     		ldr	r3, [r5, #4]
 1293              	.LVL177:
 1294              	.LBE524:
 1295              	.LBE523:
 1296              	.LBB527:
 1297              	.LBB522:
 145:.\20648_driver\invn/ml_math_func.c **** 	return result;
 1298              		.loc 1 145 0
 1299 007a 8900     		lsl	r1, r1, #2
 1300 007c 860F     		lsr	r6, r0, #30
 1301 007e 0E43     		orr	r6, r1
 1302              	.LBE522:
 1303              	.LBE527:
 1304              	.LBB528:
 1305              	.LBB525:
 144:.\20648_driver\invn/ml_math_func.c **** 	result = (long)(temp >> 30);
 1306              		.loc 1 144 0
 1307 0080 D917     		asr	r1, r3, #31
 1308 0082 2368     		ldr	r3, [r4]
 1309              	.LVL178:
 1310 0084 6868     		ldr	r0, [r5, #4]
 1311              	.LVL179:
 1312 0086 2268     		ldr	r2, [r4]
 1313 0088 DB17     		asr	r3, r3, #31
 1314              	.LVL180:
 1315 008a FFF7FEFF 		bl	__aeabi_lmul
 1316              	.LVL181:
 1317              	.LBE525:
 1318              	.LBE528:
 1319              	.LBB529:
 1320              	.LBB530:
 1321 008e AB68     		ldr	r3, [r5, #8]
 1322              	.LVL182:
 1323              	.LBE530:
 1324              	.LBE529:
 1325              	.LBB534:
 1326              	.LBB526:
 145:.\20648_driver\invn/ml_math_func.c **** 	return result;
 1327              		.loc 1 145 0
 1328 0090 8900     		lsl	r1, r1, #2
 1329 0092 800F     		lsr	r0, r0, #30
 1330 0094 0843     		orr	r0, r1
 1331              	.LBE526:
 1332              	.LBE534:
 1333              	.LBB535:
 1334              	.LBB531:
 144:.\20648_driver\invn/ml_math_func.c **** 	result = (long)(temp >> 30);
 1335              		.loc 1 144 0
 1336 0096 D917     		asr	r1, r3, #31
 1337 0098 E368     		ldr	r3, [r4, #12]
 1338              	.LVL183:
ARM GAS  C:\Users\ADMINI~1\AppData\Local\Temp\cc85ADh7.s 			page 45


 1339              	.LBE531:
 1340              	.LBE535:
 206:.\20648_driver\invn/ml_math_func.c **** 		inv_q30_mult(q1[2], q2[3]) - inv_q30_mult(q1[3], q2[2]);
 1341              		.loc 1 206 0
 1342 009a 3618     		add	r6, r6, r0
 1343              	.LBB536:
 1344              	.LBB532:
 144:.\20648_driver\invn/ml_math_func.c **** 	result = (long)(temp >> 30);
 1345              		.loc 1 144 0
 1346 009c DB17     		asr	r3, r3, #31
 1347              	.LVL184:
 1348 009e A868     		ldr	r0, [r5, #8]
 1349              	.LVL185:
 1350 00a0 E268     		ldr	r2, [r4, #12]
 1351              	.LVL186:
 1352 00a2 FFF7FEFF 		bl	__aeabi_lmul
 1353              	.LVL187:
 1354              	.LBE532:
 1355              	.LBE536:
 1356              	.LBB537:
 1357              	.LBB538:
 1358 00a6 EB68     		ldr	r3, [r5, #12]
 1359              	.LVL188:
 1360              	.LBE538:
 1361              	.LBE537:
 1362              	.LBB541:
 1363              	.LBB533:
 145:.\20648_driver\invn/ml_math_func.c **** 	return result;
 1364              		.loc 1 145 0
 1365 00a8 8900     		lsl	r1, r1, #2
 1366 00aa 800F     		lsr	r0, r0, #30
 1367 00ac 0843     		orr	r0, r1
 1368              	.LBE533:
 1369              	.LBE541:
 1370              	.LBB542:
 1371              	.LBB539:
 144:.\20648_driver\invn/ml_math_func.c **** 	result = (long)(temp >> 30);
 1372              		.loc 1 144 0
 1373 00ae D917     		asr	r1, r3, #31
 1374 00b0 A368     		ldr	r3, [r4, #8]
 1375              	.LVL189:
 1376 00b2 A268     		ldr	r2, [r4, #8]
 1377              	.LBE539:
 1378              	.LBE542:
 206:.\20648_driver\invn/ml_math_func.c **** 		inv_q30_mult(q1[2], q2[3]) - inv_q30_mult(q1[3], q2[2]);
 1379              		.loc 1 206 0
 1380 00b4 3618     		add	r6, r6, r0
 1381              	.LBB543:
 1382              	.LBB540:
 144:.\20648_driver\invn/ml_math_func.c **** 	result = (long)(temp >> 30);
 1383              		.loc 1 144 0
 1384 00b6 DB17     		asr	r3, r3, #31
 1385              	.LVL190:
 1386 00b8 E868     		ldr	r0, [r5, #12]
 1387              	.LVL191:
 1388 00ba FFF7FEFF 		bl	__aeabi_lmul
 1389              	.LVL192:
ARM GAS  C:\Users\ADMINI~1\AppData\Local\Temp\cc85ADh7.s 			page 46


 145:.\20648_driver\invn/ml_math_func.c **** 	return result;
 1390              		.loc 1 145 0
 1391 00be 8900     		lsl	r1, r1, #2
 1392 00c0 800F     		lsr	r0, r0, #30
 1393 00c2 0843     		orr	r0, r1
 1394              	.LBE540:
 1395              	.LBE543:
 207:.\20648_driver\invn/ml_math_func.c **** 
 1396              		.loc 1 207 0
 1397 00c4 301A     		sub	r0, r6, r0
 206:.\20648_driver\invn/ml_math_func.c **** 		inv_q30_mult(q1[2], q2[3]) - inv_q30_mult(q1[3], q2[2]);
 1398              		.loc 1 206 0
 1399 00c6 7860     		str	r0, [r7, #4]
 1400              	.LVL193:
 1401              	.LBB544:
 1402              	.LBB545:
 144:.\20648_driver\invn/ml_math_func.c **** 	result = (long)(temp >> 30);
 1403              		.loc 1 144 0
 1404 00c8 2B68     		ldr	r3, [r5]
 1405 00ca 2868     		ldr	r0, [r5]
 1406 00cc D917     		asr	r1, r3, #31
 1407 00ce A368     		ldr	r3, [r4, #8]
 1408 00d0 A268     		ldr	r2, [r4, #8]
 1409 00d2 DB17     		asr	r3, r3, #31
 1410 00d4 FFF7FEFF 		bl	__aeabi_lmul
 1411              	.LVL194:
 1412              	.LBE545:
 1413              	.LBE544:
 1414              	.LBB547:
 1415              	.LBB548:
 1416 00d8 6B68     		ldr	r3, [r5, #4]
 1417              	.LVL195:
 1418              	.LBE548:
 1419              	.LBE547:
 1420              	.LBB551:
 1421              	.LBB546:
 145:.\20648_driver\invn/ml_math_func.c **** 	return result;
 1422              		.loc 1 145 0
 1423 00da 8900     		lsl	r1, r1, #2
 1424 00dc 860F     		lsr	r6, r0, #30
 1425 00de 0E43     		orr	r6, r1
 1426              	.LBE546:
 1427              	.LBE551:
 1428              	.LBB552:
 1429              	.LBB549:
 144:.\20648_driver\invn/ml_math_func.c **** 	result = (long)(temp >> 30);
 1430              		.loc 1 144 0
 1431 00e0 D917     		asr	r1, r3, #31
 1432 00e2 E368     		ldr	r3, [r4, #12]
 1433              	.LVL196:
 1434 00e4 6868     		ldr	r0, [r5, #4]
 1435              	.LVL197:
 1436 00e6 E268     		ldr	r2, [r4, #12]
 1437 00e8 DB17     		asr	r3, r3, #31
 1438              	.LVL198:
 1439 00ea FFF7FEFF 		bl	__aeabi_lmul
 1440              	.LVL199:
ARM GAS  C:\Users\ADMINI~1\AppData\Local\Temp\cc85ADh7.s 			page 47


 1441              	.LBE549:
 1442              	.LBE552:
 1443              	.LBB553:
 1444              	.LBB554:
 1445 00ee AB68     		ldr	r3, [r5, #8]
 1446              	.LVL200:
 1447              	.LBE554:
 1448              	.LBE553:
 1449              	.LBB558:
 1450              	.LBB550:
 145:.\20648_driver\invn/ml_math_func.c **** 	return result;
 1451              		.loc 1 145 0
 1452 00f0 8900     		lsl	r1, r1, #2
 1453 00f2 800F     		lsr	r0, r0, #30
 1454 00f4 0843     		orr	r0, r1
 1455              	.LBE550:
 1456              	.LBE558:
 1457              	.LBB559:
 1458              	.LBB555:
 144:.\20648_driver\invn/ml_math_func.c **** 	result = (long)(temp >> 30);
 1459              		.loc 1 144 0
 1460 00f6 D917     		asr	r1, r3, #31
 1461 00f8 2368     		ldr	r3, [r4]
 1462              	.LVL201:
 1463 00fa 2268     		ldr	r2, [r4]
 1464              	.LBE555:
 1465              	.LBE559:
 209:.\20648_driver\invn/ml_math_func.c **** 		inv_q30_mult(q1[2], q2[0]) + inv_q30_mult(q1[3], q2[1]);
 1466              		.loc 1 209 0
 1467 00fc 361A     		sub	r6, r6, r0
 1468              	.LBB560:
 1469              	.LBB556:
 144:.\20648_driver\invn/ml_math_func.c **** 	result = (long)(temp >> 30);
 1470              		.loc 1 144 0
 1471 00fe DB17     		asr	r3, r3, #31
 1472              	.LVL202:
 1473 0100 A868     		ldr	r0, [r5, #8]
 1474              	.LVL203:
 1475 0102 FFF7FEFF 		bl	__aeabi_lmul
 1476              	.LVL204:
 1477              	.LBE556:
 1478              	.LBE560:
 1479              	.LBB561:
 1480              	.LBB562:
 1481 0106 EB68     		ldr	r3, [r5, #12]
 1482              	.LVL205:
 1483              	.LBE562:
 1484              	.LBE561:
 1485              	.LBB565:
 1486              	.LBB557:
 145:.\20648_driver\invn/ml_math_func.c **** 	return result;
 1487              		.loc 1 145 0
 1488 0108 8900     		lsl	r1, r1, #2
 1489 010a 800F     		lsr	r0, r0, #30
 1490 010c 0843     		orr	r0, r1
 1491              	.LBE557:
 1492              	.LBE565:
ARM GAS  C:\Users\ADMINI~1\AppData\Local\Temp\cc85ADh7.s 			page 48


 1493              	.LBB566:
 1494              	.LBB563:
 144:.\20648_driver\invn/ml_math_func.c **** 	result = (long)(temp >> 30);
 1495              		.loc 1 144 0
 1496 010e D917     		asr	r1, r3, #31
 1497 0110 6368     		ldr	r3, [r4, #4]
 1498              	.LVL206:
 1499 0112 6268     		ldr	r2, [r4, #4]
 1500              	.LBE563:
 1501              	.LBE566:
 209:.\20648_driver\invn/ml_math_func.c **** 		inv_q30_mult(q1[2], q2[0]) + inv_q30_mult(q1[3], q2[1]);
 1502              		.loc 1 209 0
 1503 0114 3618     		add	r6, r6, r0
 1504              	.LBB567:
 1505              	.LBB564:
 144:.\20648_driver\invn/ml_math_func.c **** 	result = (long)(temp >> 30);
 1506              		.loc 1 144 0
 1507 0116 DB17     		asr	r3, r3, #31
 1508              	.LVL207:
 1509 0118 E868     		ldr	r0, [r5, #12]
 1510              	.LVL208:
 1511 011a FFF7FEFF 		bl	__aeabi_lmul
 1512              	.LVL209:
 145:.\20648_driver\invn/ml_math_func.c **** 	return result;
 1513              		.loc 1 145 0
 1514 011e 8900     		lsl	r1, r1, #2
 1515 0120 800F     		lsr	r0, r0, #30
 1516 0122 0843     		orr	r0, r1
 1517              	.LBE564:
 1518              	.LBE567:
 210:.\20648_driver\invn/ml_math_func.c **** 
 1519              		.loc 1 210 0
 1520 0124 3018     		add	r0, r6, r0
 209:.\20648_driver\invn/ml_math_func.c **** 		inv_q30_mult(q1[2], q2[0]) + inv_q30_mult(q1[3], q2[1]);
 1521              		.loc 1 209 0
 1522 0126 B860     		str	r0, [r7, #8]
 1523              	.LVL210:
 1524              	.LBB568:
 1525              	.LBB569:
 144:.\20648_driver\invn/ml_math_func.c **** 	result = (long)(temp >> 30);
 1526              		.loc 1 144 0
 1527 0128 2B68     		ldr	r3, [r5]
 1528 012a 2868     		ldr	r0, [r5]
 1529 012c D917     		asr	r1, r3, #31
 1530 012e E368     		ldr	r3, [r4, #12]
 1531 0130 E268     		ldr	r2, [r4, #12]
 1532 0132 DB17     		asr	r3, r3, #31
 1533 0134 FFF7FEFF 		bl	__aeabi_lmul
 1534              	.LVL211:
 1535              	.LBE569:
 1536              	.LBE568:
 1537              	.LBB571:
 1538              	.LBB572:
 1539 0138 6B68     		ldr	r3, [r5, #4]
 1540              	.LVL212:
 1541              	.LBE572:
 1542              	.LBE571:
ARM GAS  C:\Users\ADMINI~1\AppData\Local\Temp\cc85ADh7.s 			page 49


 1543              	.LBB575:
 1544              	.LBB570:
 145:.\20648_driver\invn/ml_math_func.c **** 	return result;
 1545              		.loc 1 145 0
 1546 013a 8900     		lsl	r1, r1, #2
 1547 013c 860F     		lsr	r6, r0, #30
 1548 013e 0E43     		orr	r6, r1
 1549              	.LBE570:
 1550              	.LBE575:
 1551              	.LBB576:
 1552              	.LBB573:
 144:.\20648_driver\invn/ml_math_func.c **** 	result = (long)(temp >> 30);
 1553              		.loc 1 144 0
 1554 0140 D917     		asr	r1, r3, #31
 1555 0142 A368     		ldr	r3, [r4, #8]
 1556              	.LVL213:
 1557 0144 6868     		ldr	r0, [r5, #4]
 1558              	.LVL214:
 1559 0146 A268     		ldr	r2, [r4, #8]
 1560 0148 DB17     		asr	r3, r3, #31
 1561              	.LVL215:
 1562 014a FFF7FEFF 		bl	__aeabi_lmul
 1563              	.LVL216:
 1564              	.LBE573:
 1565              	.LBE576:
 1566              	.LBB577:
 1567              	.LBB578:
 1568 014e AB68     		ldr	r3, [r5, #8]
 1569              	.LVL217:
 1570              	.LBE578:
 1571              	.LBE577:
 1572              	.LBB581:
 1573              	.LBB574:
 145:.\20648_driver\invn/ml_math_func.c **** 	return result;
 1574              		.loc 1 145 0
 1575 0150 8900     		lsl	r1, r1, #2
 1576 0152 800F     		lsr	r0, r0, #30
 1577 0154 0843     		orr	r0, r1
 1578              	.LBE574:
 1579              	.LBE581:
 1580              	.LBB582:
 1581              	.LBB579:
 144:.\20648_driver\invn/ml_math_func.c **** 	result = (long)(temp >> 30);
 1582              		.loc 1 144 0
 1583 0156 D917     		asr	r1, r3, #31
 1584 0158 6368     		ldr	r3, [r4, #4]
 1585              	.LVL218:
 1586 015a 6268     		ldr	r2, [r4, #4]
 1587              	.LBE579:
 1588              	.LBE582:
 212:.\20648_driver\invn/ml_math_func.c **** 		inv_q30_mult(q1[2], q2[1]) + inv_q30_mult(q1[3], q2[0]);
 1589              		.loc 1 212 0
 1590 015c 3618     		add	r6, r6, r0
 1591              	.LBB583:
 1592              	.LBB580:
 144:.\20648_driver\invn/ml_math_func.c **** 	result = (long)(temp >> 30);
 1593              		.loc 1 144 0
ARM GAS  C:\Users\ADMINI~1\AppData\Local\Temp\cc85ADh7.s 			page 50


 1594 015e DB17     		asr	r3, r3, #31
 1595              	.LVL219:
 1596 0160 A868     		ldr	r0, [r5, #8]
 1597              	.LVL220:
 1598 0162 FFF7FEFF 		bl	__aeabi_lmul
 1599              	.LVL221:
 145:.\20648_driver\invn/ml_math_func.c **** 	return result;
 1600              		.loc 1 145 0
 1601 0166 8900     		lsl	r1, r1, #2
 1602 0168 800F     		lsr	r0, r0, #30
 1603 016a 0843     		orr	r0, r1
 1604              	.LBE580:
 1605              	.LBE583:
 212:.\20648_driver\invn/ml_math_func.c **** 		inv_q30_mult(q1[2], q2[1]) + inv_q30_mult(q1[3], q2[0]);
 1606              		.loc 1 212 0
 1607 016c 361A     		sub	r6, r6, r0
 1608              	.LBB584:
 1609              	.LBB585:
 144:.\20648_driver\invn/ml_math_func.c **** 	result = (long)(temp >> 30);
 1610              		.loc 1 144 0
 1611 016e 2268     		ldr	r2, [r4]
 1612              	.LVL222:
 1613 0170 E868     		ldr	r0, [r5, #12]
 1614              	.LVL223:
 1615 0172 D317     		asr	r3, r2, #31
 1616 0174 C117     		asr	r1, r0, #31
 1617 0176 FFF7FEFF 		bl	__aeabi_lmul
 1618              	.LVL224:
 145:.\20648_driver\invn/ml_math_func.c **** 	return result;
 1619              		.loc 1 145 0
 1620 017a 8900     		lsl	r1, r1, #2
 1621 017c 800F     		lsr	r0, r0, #30
 1622 017e 0843     		orr	r0, r1
 1623              	.LBE585:
 1624              	.LBE584:
 213:.\20648_driver\invn/ml_math_func.c **** }
 1625              		.loc 1 213 0
 1626 0180 3018     		add	r0, r6, r0
 212:.\20648_driver\invn/ml_math_func.c **** 		inv_q30_mult(q1[2], q2[1]) + inv_q30_mult(q1[3], q2[0]);
 1627              		.loc 1 212 0
 1628 0182 F860     		str	r0, [r7, #12]
 214:.\20648_driver\invn/ml_math_func.c **** 
 1629              		.loc 1 214 0
 1630              		@ sp needed
 1631              	.LVL225:
 1632              	.LVL226:
 1633              	.LVL227:
 1634 0184 F8BD     		pop	{r3, r4, r5, r6, r7, pc}
 1635              		.cfi_endproc
 1636              	.LFE12:
 1637              		.size	inv_q_mult, .-inv_q_mult
 1638              		.section	.text.inv_q_add,"ax",%progbits
 1639              		.align	1
 1640              		.global	inv_q_add
 1641              		.code	16
 1642              		.thumb_func
 1643              		.type	inv_q_add, %function
ARM GAS  C:\Users\ADMINI~1\AppData\Local\Temp\cc85ADh7.s 			page 51


 1644              	inv_q_add:
 1645              	.LFB13:
 225:.\20648_driver\invn/ml_math_func.c **** 	qSum[0] = q1[0] + q2[0];
 1646              		.loc 1 225 0
 1647              		.cfi_startproc
 1648              	.LVL228:
 226:.\20648_driver\invn/ml_math_func.c **** 	qSum[1] = q1[1] + q2[1];
 1649              		.loc 1 226 0
 1650 0000 0368     		ldr	r3, [r0]
 225:.\20648_driver\invn/ml_math_func.c **** 	qSum[0] = q1[0] + q2[0];
 1651              		.loc 1 225 0
 1652 0002 10B5     		push	{r4, lr}
 1653              		.cfi_def_cfa_offset 8
 1654              		.cfi_offset 4, -8
 1655              		.cfi_offset 14, -4
 226:.\20648_driver\invn/ml_math_func.c **** 	qSum[1] = q1[1] + q2[1];
 1656              		.loc 1 226 0
 1657 0004 0C68     		ldr	r4, [r1]
 230:.\20648_driver\invn/ml_math_func.c **** 
 1658              		.loc 1 230 0
 1659              		@ sp needed
 226:.\20648_driver\invn/ml_math_func.c **** 	qSum[1] = q1[1] + q2[1];
 1660              		.loc 1 226 0
 1661 0006 1B19     		add	r3, r3, r4
 1662 0008 1360     		str	r3, [r2]
 227:.\20648_driver\invn/ml_math_func.c **** 	qSum[2] = q1[2] + q2[2];
 1663              		.loc 1 227 0
 1664 000a 4368     		ldr	r3, [r0, #4]
 1665 000c 4C68     		ldr	r4, [r1, #4]
 1666 000e 1B19     		add	r3, r3, r4
 1667 0010 5360     		str	r3, [r2, #4]
 228:.\20648_driver\invn/ml_math_func.c **** 	qSum[3] = q1[3] + q2[3];
 1668              		.loc 1 228 0
 1669 0012 8368     		ldr	r3, [r0, #8]
 1670 0014 8C68     		ldr	r4, [r1, #8]
 1671 0016 1B19     		add	r3, r3, r4
 1672 0018 9360     		str	r3, [r2, #8]
 229:.\20648_driver\invn/ml_math_func.c **** }
 1673              		.loc 1 229 0
 1674 001a C068     		ldr	r0, [r0, #12]
 1675              	.LVL229:
 1676 001c CB68     		ldr	r3, [r1, #12]
 1677 001e C318     		add	r3, r0, r3
 1678 0020 D360     		str	r3, [r2, #12]
 230:.\20648_driver\invn/ml_math_func.c **** 
 1679              		.loc 1 230 0
 1680 0022 10BD     		pop	{r4, pc}
 1681              		.cfi_endproc
 1682              	.LFE13:
 1683              		.size	inv_q_add, .-inv_q_add
 1684              		.global	__aeabi_i2d
 1685              		.global	__aeabi_dmul
 1686              		.global	__aeabi_dadd
 1687              		.global	__aeabi_dcmpgt
 1688              		.global	__aeabi_ddiv
 1689              		.global	__aeabi_d2iz
 1690              		.section	.text.inv_vector_normalize,"ax",%progbits
ARM GAS  C:\Users\ADMINI~1\AppData\Local\Temp\cc85ADh7.s 			page 52


 1691              		.align	1
 1692              		.global	inv_vector_normalize
 1693              		.code	16
 1694              		.thumb_func
 1695              		.type	inv_vector_normalize, %function
 1696              	inv_vector_normalize:
 1697              	.LFB14:
 233:.\20648_driver\invn/ml_math_func.c **** 	double normSF = 0;
 1698              		.loc 1 233 0
 1699              		.cfi_startproc
 1700              	.LVL230:
 1701 0000 F7B5     		push	{r0, r1, r2, r4, r5, r6, r7, lr}
 1702              		.cfi_def_cfa_offset 32
 1703              		.cfi_offset 0, -32
 1704              		.cfi_offset 1, -28
 1705              		.cfi_offset 2, -24
 1706              		.cfi_offset 4, -20
 1707              		.cfi_offset 5, -16
 1708              		.cfi_offset 6, -12
 1709              		.cfi_offset 7, -8
 1710              		.cfi_offset 14, -4
 233:.\20648_driver\invn/ml_math_func.c **** 	double normSF = 0;
 1711              		.loc 1 233 0
 1712 0002 041C     		mov	r4, r0
 236:.\20648_driver\invn/ml_math_func.c **** 		normSF +=
 1713              		.loc 1 236 0
 1714 0004 0025     		mov	r5, #0
 234:.\20648_driver\invn/ml_math_func.c **** 	int ii;
 1715              		.loc 1 234 0
 1716 0006 0026     		mov	r6, #0
 1717 0008 0027     		mov	r7, #0
 233:.\20648_driver\invn/ml_math_func.c **** 	double normSF = 0;
 1718              		.loc 1 233 0
 1719 000a 0191     		str	r1, [sp, #4]
 1720              	.LVL231:
 1721              	.L21:
 236:.\20648_driver\invn/ml_math_func.c **** 		normSF +=
 1722              		.loc 1 236 0 discriminator 1
 1723 000c 019B     		ldr	r3, [sp, #4]
 1724 000e 9D42     		cmp	r5, r3
 1725 0010 15DA     		bge	.L32
 1726              	.LVL232:
 1727 0012 AB00     		lsl	r3, r5, #2
 1728              	.LBB594:
 1729              	.LBB595:
 1730              		.file 2 ".\\20648_driver\\invn\\ml_math_func.h"
   1:.\20648_driver\invn/ml_math_func.h **** /*
   2:.\20648_driver\invn/ml_math_func.h ****  $License:
   3:.\20648_driver\invn/ml_math_func.h ****     Copyright (C) 2011-2012 InvenSense Corporation, All Rights Reserved.
   4:.\20648_driver\invn/ml_math_func.h ****     See included License.txt for License information.
   5:.\20648_driver\invn/ml_math_func.h ****  $
   6:.\20648_driver\invn/ml_math_func.h ****  */
   7:.\20648_driver\invn/ml_math_func.h **** #ifndef INVENSENSE_inv_MATH_FUNC_H__
   8:.\20648_driver\invn/ml_math_func.h **** #define INVENSENSE_inv_MATH_FUNC_H__
   9:.\20648_driver\invn/ml_math_func.h **** 
  10:.\20648_driver\invn/ml_math_func.h **** #define GYRO_MAG_SQR_SHIFT 6
  11:.\20648_driver\invn/ml_math_func.h **** #define NUM_ROTATION_MATRIX_ELEMENTS (9)
ARM GAS  C:\Users\ADMINI~1\AppData\Local\Temp\cc85ADh7.s 			page 53


  12:.\20648_driver\invn/ml_math_func.h **** #define ROT_MATRIX_SCALE_LONG  (1073741824L)
  13:.\20648_driver\invn/ml_math_func.h **** #define ROT_MATRIX_SCALE_FLOAT (1073741824.0f)
  14:.\20648_driver\invn/ml_math_func.h **** #define ROT_MATRIX_LONG_TO_FLOAT( longval ) \
  15:.\20648_driver\invn/ml_math_func.h ****     ((float) ((longval) / ROT_MATRIX_SCALE_FLOAT ))
  16:.\20648_driver\invn/ml_math_func.h **** #define SIGNM(k)((int)(k)&1?-1:1)
  17:.\20648_driver\invn/ml_math_func.h **** #define SIGNSET(x) ((x) ? -1 : +1)
  18:.\20648_driver\invn/ml_math_func.h **** 
  19:.\20648_driver\invn/ml_math_func.h **** #define inv_TWO_POWER_NEG_30 9.313225746154785e-010f
  20:.\20648_driver\invn/ml_math_func.h **** 
  21:.\20648_driver\invn/ml_math_func.h **** #include "invn_types.h"
  22:.\20648_driver\invn/ml_math_func.h **** 
  23:.\20648_driver\invn/ml_math_func.h ****     typedef struct {
  24:.\20648_driver\invn/ml_math_func.h ****         float state[4];
  25:.\20648_driver\invn/ml_math_func.h ****         float c[5];
  26:.\20648_driver\invn/ml_math_func.h ****         float input;
  27:.\20648_driver\invn/ml_math_func.h ****         float output;
  28:.\20648_driver\invn/ml_math_func.h ****     }   inv_biquad_filter_t;
  29:.\20648_driver\invn/ml_math_func.h **** 
  30:.\20648_driver\invn/ml_math_func.h ****     static inline float inv_q30_to_float(long q30)
  31:.\20648_driver\invn/ml_math_func.h ****     {
  32:.\20648_driver\invn/ml_math_func.h ****         return (float) q30 / ((float)(1L << 30));
  33:.\20648_driver\invn/ml_math_func.h ****     }
  34:.\20648_driver\invn/ml_math_func.h **** 
  35:.\20648_driver\invn/ml_math_func.h ****     static inline double inv_q30_to_double(long q30)
  36:.\20648_driver\invn/ml_math_func.h ****     {
  37:.\20648_driver\invn/ml_math_func.h ****         return (double) q30 / ((double)(1L << 30));
 1731              		.loc 2 37 0 discriminator 3
 1732 0014 E058     		ldr	r0, [r4, r3]
 1733 0016 FFF7FEFF 		bl	__aeabi_i2d
 1734              	.LVL233:
 1735 001a 0022     		mov	r2, #0
 1736 001c 204B     		ldr	r3, .L33
 1737 001e FFF7FEFF 		bl	__aeabi_dmul
 1738              	.LVL234:
 1739 0022 021C     		mov	r2, r0
 1740 0024 0B1C     		mov	r3, r1
 1741              	.LVL235:
 1742              	.LBE595:
 1743              	.LBE594:
 238:.\20648_driver\invn/ml_math_func.c **** 	}
 1744              		.loc 1 238 0 discriminator 3
 1745 0026 FFF7FEFF 		bl	__aeabi_dmul
 1746              	.LVL236:
 1747 002a 021C     		mov	r2, r0
 1748 002c 0B1C     		mov	r3, r1
 237:.\20648_driver\invn/ml_math_func.c **** 			inv_q30_to_double(vec[ii]) * inv_q30_to_double(vec[ii]);
 1749              		.loc 1 237 0 discriminator 3
 1750 002e 301C     		mov	r0, r6
 1751 0030 391C     		mov	r1, r7
 1752 0032 FFF7FEFF 		bl	__aeabi_dadd
 1753              	.LVL237:
 236:.\20648_driver\invn/ml_math_func.c **** 		normSF +=
 1754              		.loc 1 236 0 discriminator 3
 1755 0036 0135     		add	r5, r5, #1
 1756              	.LVL238:
 237:.\20648_driver\invn/ml_math_func.c **** 			inv_q30_to_double(vec[ii]) * inv_q30_to_double(vec[ii]);
 1757              		.loc 1 237 0 discriminator 3
ARM GAS  C:\Users\ADMINI~1\AppData\Local\Temp\cc85ADh7.s 			page 54


 1758 0038 061C     		mov	r6, r0
 1759              	.LVL239:
 1760 003a 0F1C     		mov	r7, r1
 1761              	.LVL240:
 1762 003c E6E7     		b	.L21
 1763              	.L32:
 240:.\20648_driver\invn/ml_math_func.c **** 		normSF = 1 / sqrt(normSF);
 1764              		.loc 1 240 0
 1765 003e 301C     		mov	r0, r6
 1766 0040 391C     		mov	r1, r7
 1767 0042 0022     		mov	r2, #0
 1768 0044 0023     		mov	r3, #0
 1769 0046 FFF7FEFF 		bl	__aeabi_dcmpgt
 1770              	.LVL241:
 1771 004a 0028     		cmp	r0, #0
 1772 004c 1BD0     		beq	.L31
 241:.\20648_driver\invn/ml_math_func.c **** 		for (ii = 0; ii < length; ii++) {
 1773              		.loc 1 241 0
 1774 004e 301C     		mov	r0, r6
 1775 0050 391C     		mov	r1, r7
 1776 0052 FFF7FEFF 		bl	sqrt
 1777              	.LVL242:
 1778 0056 021C     		mov	r2, r0
 1779 0058 0B1C     		mov	r3, r1
 1780 005a 0020     		mov	r0, #0
 1781 005c 1149     		ldr	r1, .L33+4
 1782 005e FFF7FEFF 		bl	__aeabi_ddiv
 1783              	.LVL243:
 242:.\20648_driver\invn/ml_math_func.c **** 			vec[ii] = (int)((double)vec[ii] * normSF);
 1784              		.loc 1 242 0
 1785 0062 0025     		mov	r5, #0
 1786              	.LVL244:
 241:.\20648_driver\invn/ml_math_func.c **** 		for (ii = 0; ii < length; ii++) {
 1787              		.loc 1 241 0
 1788 0064 061C     		mov	r6, r0
 1789              	.LVL245:
 1790 0066 0F1C     		mov	r7, r1
 1791              	.LVL246:
 1792              	.L25:
 242:.\20648_driver\invn/ml_math_func.c **** 			vec[ii] = (int)((double)vec[ii] * normSF);
 1793              		.loc 1 242 0 discriminator 1
 1794 0068 019B     		ldr	r3, [sp, #4]
 1795 006a 9D42     		cmp	r5, r3
 1796 006c 17DA     		bge	.L20
 243:.\20648_driver\invn/ml_math_func.c **** 		}
 1797              		.loc 1 243 0 discriminator 3
 1798 006e 2068     		ldr	r0, [r4]
 1799 0070 FFF7FEFF 		bl	__aeabi_i2d
 1800              	.LVL247:
 1801 0074 321C     		mov	r2, r6
 1802 0076 3B1C     		mov	r3, r7
 1803 0078 FFF7FEFF 		bl	__aeabi_dmul
 1804              	.LVL248:
 1805 007c FFF7FEFF 		bl	__aeabi_d2iz
 1806              	.LVL249:
 242:.\20648_driver\invn/ml_math_func.c **** 			vec[ii] = (int)((double)vec[ii] * normSF);
 1807              		.loc 1 242 0 discriminator 3
ARM GAS  C:\Users\ADMINI~1\AppData\Local\Temp\cc85ADh7.s 			page 55


 1808 0080 0135     		add	r5, r5, #1
 1809              	.LVL250:
 243:.\20648_driver\invn/ml_math_func.c **** 		}
 1810              		.loc 1 243 0 discriminator 3
 1811 0082 01C4     		stmia	r4!, {r0}
 1812 0084 F0E7     		b	.L25
 1813              	.LVL251:
 1814              	.L31:
 1815              	.LBB596:
 1816              	.LBB597:
 247:.\20648_driver\invn/ml_math_func.c **** 		for (ii = 1; ii < length; ii++) {
 1817              		.loc 1 247 0
 1818 0086 8023     		mov	r3, #128
 1819 0088 DB05     		lsl	r3, r3, #23
 1820 008a 2360     		str	r3, [r4]
 1821              	.LVL252:
 248:.\20648_driver\invn/ml_math_func.c **** 			vec[ii] = 0;
 1822              		.loc 1 248 0
 1823 008c 0123     		mov	r3, #1
 1824              	.LVL253:
 1825              	.L27:
 1826 008e 019A     		ldr	r2, [sp, #4]
 1827 0090 9342     		cmp	r3, r2
 1828 0092 04DA     		bge	.L20
 249:.\20648_driver\invn/ml_math_func.c **** 		}
 1829              		.loc 1 249 0
 1830 0094 0021     		mov	r1, #0
 1831 0096 9A00     		lsl	r2, r3, #2
 1832 0098 A150     		str	r1, [r4, r2]
 248:.\20648_driver\invn/ml_math_func.c **** 			vec[ii] = 0;
 1833              		.loc 1 248 0
 1834 009a 0133     		add	r3, r3, #1
 1835              	.LVL254:
 1836 009c F7E7     		b	.L27
 1837              	.LVL255:
 1838              	.L20:
 1839              	.LBE597:
 1840              	.LBE596:
 252:.\20648_driver\invn/ml_math_func.c **** 
 1841              		.loc 1 252 0
 1842              		@ sp needed
 1843              	.LVL256:
 1844              	.LVL257:
 1845 009e F7BD     		pop	{r0, r1, r2, r4, r5, r6, r7, pc}
 1846              	.L34:
 1847              		.align	2
 1848              	.L33:
 1849 00a0 0000103E 		.word	1041235968
 1850 00a4 0000F03F 		.word	1072693248
 1851              		.cfi_endproc
 1852              	.LFE14:
 1853              		.size	inv_vector_normalize, .-inv_vector_normalize
 1854              		.section	.text.inv_q_normalize,"ax",%progbits
 1855              		.align	1
 1856              		.global	inv_q_normalize
 1857              		.code	16
 1858              		.thumb_func
ARM GAS  C:\Users\ADMINI~1\AppData\Local\Temp\cc85ADh7.s 			page 56


 1859              		.type	inv_q_normalize, %function
 1860              	inv_q_normalize:
 1861              	.LFB15:
 255:.\20648_driver\invn/ml_math_func.c **** 	inv_vector_normalize(q, 4);
 1862              		.loc 1 255 0
 1863              		.cfi_startproc
 1864              	.LVL258:
 1865 0000 08B5     		push	{r3, lr}
 1866              		.cfi_def_cfa_offset 8
 1867              		.cfi_offset 3, -8
 1868              		.cfi_offset 14, -4
 256:.\20648_driver\invn/ml_math_func.c **** }
 1869              		.loc 1 256 0
 1870 0002 0421     		mov	r1, #4
 1871 0004 FFF7FEFF 		bl	inv_vector_normalize
 1872              	.LVL259:
 257:.\20648_driver\invn/ml_math_func.c **** 
 1873              		.loc 1 257 0
 1874              		@ sp needed
 1875 0008 08BD     		pop	{r3, pc}
 1876              		.cfi_endproc
 1877              	.LFE15:
 1878              		.size	inv_q_normalize, .-inv_q_normalize
 1879              		.section	.text.inv_q_invert,"ax",%progbits
 1880              		.align	1
 1881              		.global	inv_q_invert
 1882              		.code	16
 1883              		.thumb_func
 1884              		.type	inv_q_invert, %function
 1885              	inv_q_invert:
 1886              	.LFB16:
 260:.\20648_driver\invn/ml_math_func.c **** 	qInverted[0] = q[0];
 1887              		.loc 1 260 0
 1888              		.cfi_startproc
 1889              	.LVL260:
 261:.\20648_driver\invn/ml_math_func.c **** 	qInverted[1] = -q[1];
 1890              		.loc 1 261 0
 1891 0000 0368     		ldr	r3, [r0]
 265:.\20648_driver\invn/ml_math_func.c **** 
 1892              		.loc 1 265 0
 1893              		@ sp needed
 261:.\20648_driver\invn/ml_math_func.c **** 	qInverted[1] = -q[1];
 1894              		.loc 1 261 0
 1895 0002 0B60     		str	r3, [r1]
 262:.\20648_driver\invn/ml_math_func.c **** 	qInverted[2] = -q[2];
 1896              		.loc 1 262 0
 1897 0004 4368     		ldr	r3, [r0, #4]
 1898 0006 5B42     		neg	r3, r3
 1899 0008 4B60     		str	r3, [r1, #4]
 263:.\20648_driver\invn/ml_math_func.c **** 	qInverted[3] = -q[3];
 1900              		.loc 1 263 0
 1901 000a 8368     		ldr	r3, [r0, #8]
 1902 000c 5B42     		neg	r3, r3
 1903 000e 8B60     		str	r3, [r1, #8]
 264:.\20648_driver\invn/ml_math_func.c **** }
 1904              		.loc 1 264 0
 1905 0010 C368     		ldr	r3, [r0, #12]
ARM GAS  C:\Users\ADMINI~1\AppData\Local\Temp\cc85ADh7.s 			page 57


 1906 0012 5B42     		neg	r3, r3
 1907 0014 CB60     		str	r3, [r1, #12]
 265:.\20648_driver\invn/ml_math_func.c **** 
 1908              		.loc 1 265 0
 1909 0016 7047     		bx	lr
 1910              		.cfi_endproc
 1911              	.LFE16:
 1912              		.size	inv_q_invert, .-inv_q_invert
 1913              		.global	__aeabi_dcmplt
 1914              		.section	.text.quaternion_to_rotation_angle,"ax",%progbits
 1915              		.align	1
 1916              		.global	quaternion_to_rotation_angle
 1917              		.code	16
 1918              		.thumb_func
 1919              		.type	quaternion_to_rotation_angle, %function
 1920              	quaternion_to_rotation_angle:
 1921              	.LFB17:
 267:.\20648_driver\invn/ml_math_func.c **** 	double quat0 = (double)quat[0] / 1073741824;
 1922              		.loc 1 267 0
 1923              		.cfi_startproc
 1924              	.LVL261:
 1925 0000 38B5     		push	{r3, r4, r5, lr}
 1926              		.cfi_def_cfa_offset 16
 1927              		.cfi_offset 3, -16
 1928              		.cfi_offset 4, -12
 1929              		.cfi_offset 5, -8
 1930              		.cfi_offset 14, -4
 268:.\20648_driver\invn/ml_math_func.c **** 	if (quat0 > 1.0f) {
 1931              		.loc 1 268 0
 1932 0002 0068     		ldr	r0, [r0]
 1933              	.LVL262:
 1934 0004 FFF7FEFF 		bl	__aeabi_i2d
 1935              	.LVL263:
 1936 0008 0022     		mov	r2, #0
 1937 000a 144B     		ldr	r3, .L42
 1938 000c FFF7FEFF 		bl	__aeabi_dmul
 1939              	.LVL264:
 269:.\20648_driver\invn/ml_math_func.c **** 		quat0 = 1.0;
 1940              		.loc 1 269 0
 1941 0010 0022     		mov	r2, #0
 1942 0012 134B     		ldr	r3, .L42+4
 268:.\20648_driver\invn/ml_math_func.c **** 	if (quat0 > 1.0f) {
 1943              		.loc 1 268 0
 1944 0014 041C     		mov	r4, r0
 1945 0016 0D1C     		mov	r5, r1
 1946              	.LVL265:
 269:.\20648_driver\invn/ml_math_func.c **** 		quat0 = 1.0;
 1947              		.loc 1 269 0
 1948 0018 FFF7FEFF 		bl	__aeabi_dcmpgt
 1949              	.LVL266:
 1950 001c 0028     		cmp	r0, #0
 1951 001e 0AD1     		bne	.L40
 272:.\20648_driver\invn/ml_math_func.c **** 		quat0 = -1.0;
 1952              		.loc 1 272 0
 1953 0020 201C     		mov	r0, r4
 1954 0022 291C     		mov	r1, r5
 1955 0024 0022     		mov	r2, #0
ARM GAS  C:\Users\ADMINI~1\AppData\Local\Temp\cc85ADh7.s 			page 58


 1956 0026 0F4B     		ldr	r3, .L42+8
 1957 0028 FFF7FEFF 		bl	__aeabi_dcmplt
 1958              	.LVL267:
 1959 002c 0028     		cmp	r0, #0
 1960 002e 04D0     		beq	.L38
 273:.\20648_driver\invn/ml_math_func.c **** 	}
 1961              		.loc 1 273 0
 1962 0030 0024     		mov	r4, #0
 1963              	.LVL268:
 1964 0032 0C4D     		ldr	r5, .L42+8
 1965 0034 01E0     		b	.L38
 1966              	.LVL269:
 1967              	.L40:
 270:.\20648_driver\invn/ml_math_func.c **** 	}
 1968              		.loc 1 270 0
 1969 0036 0024     		mov	r4, #0
 1970              	.LVL270:
 1971 0038 094D     		ldr	r5, .L42+4
 1972              	.L38:
 1973              	.LVL271:
 276:.\20648_driver\invn/ml_math_func.c **** }
 1974              		.loc 1 276 0
 1975 003a 291C     		mov	r1, r5
 1976 003c 201C     		mov	r0, r4
 1977 003e FFF7FEFF 		bl	acos
 1978              	.LVL272:
 1979 0042 021C     		mov	r2, r0
 1980 0044 0B1C     		mov	r3, r1
 1981 0046 FFF7FEFF 		bl	__aeabi_dadd
 1982              	.LVL273:
 1983 004a 0022     		mov	r2, #0
 1984 004c 064B     		ldr	r3, .L42+12
 1985 004e FFF7FEFF 		bl	__aeabi_dmul
 1986              	.LVL274:
 1987 0052 064A     		ldr	r2, .L42+16
 1988 0054 064B     		ldr	r3, .L42+20
 1989 0056 FFF7FEFF 		bl	__aeabi_ddiv
 1990              	.LVL275:
 277:.\20648_driver\invn/ml_math_func.c **** 
 1991              		.loc 1 277 0
 1992              		@ sp needed
 1993              	.LVL276:
 1994 005a 38BD     		pop	{r3, r4, r5, pc}
 1995              	.L43:
 1996              		.align	2
 1997              	.L42:
 1998 005c 0000103E 		.word	1041235968
 1999 0060 0000F03F 		.word	1072693248
 2000 0064 0000F0BF 		.word	-1074790400
 2001 0068 00806640 		.word	1080459264
 2002 006c 182D4454 		.word	1413754136
 2003 0070 FB210940 		.word	1074340347
 2004              		.cfi_endproc
 2005              	.LFE17:
 2006              		.size	quaternion_to_rotation_angle, .-quaternion_to_rotation_angle
 2007              		.section	.text.inv_q_rotate,"ax",%progbits
 2008              		.align	1
ARM GAS  C:\Users\ADMINI~1\AppData\Local\Temp\cc85ADh7.s 			page 59


 2009              		.global	inv_q_rotate
 2010              		.code	16
 2011              		.thumb_func
 2012              		.type	inv_q_rotate, %function
 2013              	inv_q_rotate:
 2014              	.LFB18:
 282:.\20648_driver\invn/ml_math_func.c **** 	long q_temp1[4], q_temp2[4];
 2015              		.loc 1 282 0
 2016              		.cfi_startproc
 2017              	.LVL277:
 2018 0000 70B5     		push	{r4, r5, r6, lr}
 2019              		.cfi_def_cfa_offset 16
 2020              		.cfi_offset 4, -16
 2021              		.cfi_offset 5, -12
 2022              		.cfi_offset 6, -8
 2023              		.cfi_offset 14, -4
 288:.\20648_driver\invn/ml_math_func.c **** 	inv_q_mult(q, in4, q_temp1);
 2024              		.loc 1 288 0
 2025 0002 0C24     		mov	r4, #12
 287:.\20648_driver\invn/ml_math_func.c **** 	memcpy(&in4[1], in, 3 * sizeof(long));
 2026              		.loc 1 287 0
 2027 0004 0023     		mov	r3, #0
 282:.\20648_driver\invn/ml_math_func.c **** 	long q_temp1[4], q_temp2[4];
 2028              		.loc 1 282 0
 2029 0006 051C     		mov	r5, r0
 2030 0008 161C     		mov	r6, r2
 2031 000a 90B0     		sub	sp, sp, #64
 2032              		.cfi_def_cfa_offset 80
 288:.\20648_driver\invn/ml_math_func.c **** 	inv_q_mult(q, in4, q_temp1);
 2033              		.loc 1 288 0
 2034 000c 221C     		mov	r2, r4
 2035              	.LVL278:
 2036 000e 09A8     		add	r0, sp, #36
 2037              	.LVL279:
 287:.\20648_driver\invn/ml_math_func.c **** 	memcpy(&in4[1], in, 3 * sizeof(long));
 2038              		.loc 1 287 0
 2039 0010 0893     		str	r3, [sp, #32]
 288:.\20648_driver\invn/ml_math_func.c **** 	inv_q_mult(q, in4, q_temp1);
 2040              		.loc 1 288 0
 2041 0012 FFF7FEFF 		bl	memcpy
 2042              	.LVL280:
 289:.\20648_driver\invn/ml_math_func.c **** 	inv_q_invert(q, q_temp2);
 2043              		.loc 1 289 0
 2044 0016 6A46     		mov	r2, sp
 2045 0018 281C     		mov	r0, r5
 2046 001a 08A9     		add	r1, sp, #32
 2047 001c FFF7FEFF 		bl	inv_q_mult
 2048              	.LVL281:
 290:.\20648_driver\invn/ml_math_func.c **** 	inv_q_mult(q_temp1, q_temp2, out4);
 2049              		.loc 1 290 0
 2050 0020 281C     		mov	r0, r5
 2051 0022 04A9     		add	r1, sp, #16
 2052 0024 FFF7FEFF 		bl	inv_q_invert
 2053              	.LVL282:
 291:.\20648_driver\invn/ml_math_func.c **** 	memcpy(out, &out4[1], 3 * sizeof(long));
 2054              		.loc 1 291 0
 2055 0028 6846     		mov	r0, sp
ARM GAS  C:\Users\ADMINI~1\AppData\Local\Temp\cc85ADh7.s 			page 60


 2056 002a 04A9     		add	r1, sp, #16
 2057 002c 0CAA     		add	r2, sp, #48
 2058 002e FFF7FEFF 		bl	inv_q_mult
 2059              	.LVL283:
 292:.\20648_driver\invn/ml_math_func.c **** }
 2060              		.loc 1 292 0
 2061 0032 301C     		mov	r0, r6
 2062 0034 0DA9     		add	r1, sp, #52
 2063 0036 221C     		mov	r2, r4
 2064 0038 FFF7FEFF 		bl	memcpy
 2065              	.LVL284:
 293:.\20648_driver\invn/ml_math_func.c **** 
 2066              		.loc 1 293 0
 2067 003c 10B0     		add	sp, sp, #64
 2068              		@ sp needed
 2069              	.LVL285:
 2070              	.LVL286:
 2071 003e 70BD     		pop	{r4, r5, r6, pc}
 2072              		.cfi_endproc
 2073              	.LFE18:
 2074              		.size	inv_q_rotate, .-inv_q_rotate
 2075              		.section	.text.inv_q_rotate_BtoI,"ax",%progbits
 2076              		.align	1
 2077              		.global	inv_q_rotate_BtoI
 2078              		.code	16
 2079              		.thumb_func
 2080              		.type	inv_q_rotate_BtoI, %function
 2081              	inv_q_rotate_BtoI:
 2082              	.LFB19:
 304:.\20648_driver\invn/ml_math_func.c **** 	long q_ItoB_times_B[4], q_BtoI[4];
 2083              		.loc 1 304 0
 2084              		.cfi_startproc
 2085              	.LVL287:
 2086 0000 70B5     		push	{r4, r5, r6, lr}
 2087              		.cfi_def_cfa_offset 16
 2088              		.cfi_offset 4, -16
 2089              		.cfi_offset 5, -12
 2090              		.cfi_offset 6, -8
 2091              		.cfi_offset 14, -4
 310:.\20648_driver\invn/ml_math_func.c **** 
 2092              		.loc 1 310 0
 2093 0002 0C24     		mov	r4, #12
 309:.\20648_driver\invn/ml_math_func.c **** 	memcpy(&B4[1], B, 3 * sizeof(long));
 2094              		.loc 1 309 0
 2095 0004 0023     		mov	r3, #0
 304:.\20648_driver\invn/ml_math_func.c **** 	long q_ItoB_times_B[4], q_BtoI[4];
 2096              		.loc 1 304 0
 2097 0006 051C     		mov	r5, r0
 2098 0008 161C     		mov	r6, r2
 2099 000a 90B0     		sub	sp, sp, #64
 2100              		.cfi_def_cfa_offset 80
 310:.\20648_driver\invn/ml_math_func.c **** 
 2101              		.loc 1 310 0
 2102 000c 221C     		mov	r2, r4
 2103              	.LVL288:
 2104 000e 09A8     		add	r0, sp, #36
 2105              	.LVL289:
ARM GAS  C:\Users\ADMINI~1\AppData\Local\Temp\cc85ADh7.s 			page 61


 309:.\20648_driver\invn/ml_math_func.c **** 	memcpy(&B4[1], B, 3 * sizeof(long));
 2106              		.loc 1 309 0
 2107 0010 0893     		str	r3, [sp, #32]
 310:.\20648_driver\invn/ml_math_func.c **** 
 2108              		.loc 1 310 0
 2109 0012 FFF7FEFF 		bl	memcpy
 2110              	.LVL290:
 313:.\20648_driver\invn/ml_math_func.c **** 
 2111              		.loc 1 313 0
 2112 0016 6A46     		mov	r2, sp
 2113 0018 281C     		mov	r0, r5
 2114 001a 08A9     		add	r1, sp, #32
 2115 001c FFF7FEFF 		bl	inv_q_mult
 2116              	.LVL291:
 316:.\20648_driver\invn/ml_math_func.c **** 
 2117              		.loc 1 316 0
 2118 0020 281C     		mov	r0, r5
 2119 0022 04A9     		add	r1, sp, #16
 2120 0024 FFF7FEFF 		bl	inv_q_invert
 2121              	.LVL292:
 319:.\20648_driver\invn/ml_math_func.c **** 
 2122              		.loc 1 319 0
 2123 0028 6846     		mov	r0, sp
 2124 002a 04A9     		add	r1, sp, #16
 2125 002c 0CAA     		add	r2, sp, #48
 2126 002e FFF7FEFF 		bl	inv_q_mult
 2127              	.LVL293:
 322:.\20648_driver\invn/ml_math_func.c **** }
 2128              		.loc 1 322 0
 2129 0032 301C     		mov	r0, r6
 2130 0034 0DA9     		add	r1, sp, #52
 2131 0036 221C     		mov	r2, r4
 2132 0038 FFF7FEFF 		bl	memcpy
 2133              	.LVL294:
 323:.\20648_driver\invn/ml_math_func.c **** 
 2134              		.loc 1 323 0
 2135 003c 10B0     		add	sp, sp, #64
 2136              		@ sp needed
 2137              	.LVL295:
 2138              	.LVL296:
 2139 003e 70BD     		pop	{r4, r5, r6, pc}
 2140              		.cfi_endproc
 2141              	.LFE19:
 2142              		.size	inv_q_rotate_BtoI, .-inv_q_rotate_BtoI
 2143              		.section	.text.inv_q_rotate_ItoB,"ax",%progbits
 2144              		.align	1
 2145              		.global	inv_q_rotate_ItoB
 2146              		.code	16
 2147              		.thumb_func
 2148              		.type	inv_q_rotate_ItoB, %function
 2149              	inv_q_rotate_ItoB:
 2150              	.LFB20:
 334:.\20648_driver\invn/ml_math_func.c **** 	long q_BtoI[4], q_BtoI_times_I[4];
 2151              		.loc 1 334 0
 2152              		.cfi_startproc
 2153              	.LVL297:
 2154 0000 70B5     		push	{r4, r5, r6, lr}
ARM GAS  C:\Users\ADMINI~1\AppData\Local\Temp\cc85ADh7.s 			page 62


 2155              		.cfi_def_cfa_offset 16
 2156              		.cfi_offset 4, -16
 2157              		.cfi_offset 5, -12
 2158              		.cfi_offset 6, -8
 2159              		.cfi_offset 14, -4
 340:.\20648_driver\invn/ml_math_func.c **** 
 2160              		.loc 1 340 0
 2161 0002 0C24     		mov	r4, #12
 339:.\20648_driver\invn/ml_math_func.c **** 	memcpy(&I4[1], I, 3 * sizeof(long));
 2162              		.loc 1 339 0
 2163 0004 0023     		mov	r3, #0
 334:.\20648_driver\invn/ml_math_func.c **** 	long q_BtoI[4], q_BtoI_times_I[4];
 2164              		.loc 1 334 0
 2165 0006 051C     		mov	r5, r0
 2166 0008 161C     		mov	r6, r2
 2167 000a 90B0     		sub	sp, sp, #64
 2168              		.cfi_def_cfa_offset 80
 340:.\20648_driver\invn/ml_math_func.c **** 
 2169              		.loc 1 340 0
 2170 000c 221C     		mov	r2, r4
 2171              	.LVL298:
 2172 000e 09A8     		add	r0, sp, #36
 2173              	.LVL299:
 339:.\20648_driver\invn/ml_math_func.c **** 	memcpy(&I4[1], I, 3 * sizeof(long));
 2174              		.loc 1 339 0
 2175 0010 0893     		str	r3, [sp, #32]
 340:.\20648_driver\invn/ml_math_func.c **** 
 2176              		.loc 1 340 0
 2177 0012 FFF7FEFF 		bl	memcpy
 2178              	.LVL300:
 343:.\20648_driver\invn/ml_math_func.c **** 
 2179              		.loc 1 343 0
 2180 0016 281C     		mov	r0, r5
 2181 0018 6946     		mov	r1, sp
 2182 001a FFF7FEFF 		bl	inv_q_invert
 2183              	.LVL301:
 346:.\20648_driver\invn/ml_math_func.c **** 
 2184              		.loc 1 346 0
 2185 001e 6846     		mov	r0, sp
 2186 0020 08A9     		add	r1, sp, #32
 2187 0022 04AA     		add	r2, sp, #16
 2188 0024 FFF7FEFF 		bl	inv_q_mult
 2189              	.LVL302:
 349:.\20648_driver\invn/ml_math_func.c **** 
 2190              		.loc 1 349 0
 2191 0028 04A8     		add	r0, sp, #16
 2192 002a 291C     		mov	r1, r5
 2193 002c 0CAA     		add	r2, sp, #48
 2194 002e FFF7FEFF 		bl	inv_q_mult
 2195              	.LVL303:
 352:.\20648_driver\invn/ml_math_func.c **** }
 2196              		.loc 1 352 0
 2197 0032 301C     		mov	r0, r6
 2198 0034 0DA9     		add	r1, sp, #52
 2199 0036 221C     		mov	r2, r4
 2200 0038 FFF7FEFF 		bl	memcpy
 2201              	.LVL304:
ARM GAS  C:\Users\ADMINI~1\AppData\Local\Temp\cc85ADh7.s 			page 63


 353:.\20648_driver\invn/ml_math_func.c **** 
 2202              		.loc 1 353 0
 2203 003c 10B0     		add	sp, sp, #64
 2204              		@ sp needed
 2205              	.LVL305:
 2206              	.LVL306:
 2207 003e 70BD     		pop	{r4, r5, r6, pc}
 2208              		.cfi_endproc
 2209              	.LFE20:
 2210              		.size	inv_q_rotate_ItoB, .-inv_q_rotate_ItoB
 2211              		.global	__aeabi_fmul
 2212              		.global	__aeabi_fsub
 2213              		.global	__aeabi_fadd
 2214              		.section	.text.inv_q_multf,"ax",%progbits
 2215              		.align	1
 2216              		.global	inv_q_multf
 2217              		.code	16
 2218              		.thumb_func
 2219              		.type	inv_q_multf, %function
 2220              	inv_q_multf:
 2221              	.LFB21:
 356:.\20648_driver\invn/ml_math_func.c **** 	qProd[0] =
 2222              		.loc 1 356 0
 2223              		.cfi_startproc
 2224              	.LVL307:
 2225 0000 F8B5     		push	{r3, r4, r5, r6, r7, lr}
 2226              		.cfi_def_cfa_offset 24
 2227              		.cfi_offset 3, -24
 2228              		.cfi_offset 4, -20
 2229              		.cfi_offset 5, -16
 2230              		.cfi_offset 6, -12
 2231              		.cfi_offset 7, -8
 2232              		.cfi_offset 14, -4
 356:.\20648_driver\invn/ml_math_func.c **** 	qProd[0] =
 2233              		.loc 1 356 0
 2234 0002 051C     		mov	r5, r0
 2235 0004 0C1C     		mov	r4, r1
 358:.\20648_driver\invn/ml_math_func.c **** 	qProd[1] =
 2236              		.loc 1 358 0
 2237 0006 0068     		ldr	r0, [r0]
 2238              	.LVL308:
 2239 0008 0968     		ldr	r1, [r1]
 2240              	.LVL309:
 356:.\20648_driver\invn/ml_math_func.c **** 	qProd[0] =
 2241              		.loc 1 356 0
 2242 000a 161C     		mov	r6, r2
 358:.\20648_driver\invn/ml_math_func.c **** 	qProd[1] =
 2243              		.loc 1 358 0
 2244 000c FFF7FEFF 		bl	__aeabi_fmul
 2245              	.LVL310:
 2246 0010 6168     		ldr	r1, [r4, #4]
 2247 0012 071C     		add	r7, r0, #0
 2248 0014 6868     		ldr	r0, [r5, #4]
 2249 0016 FFF7FEFF 		bl	__aeabi_fmul
 2250              	.LVL311:
 2251 001a 011C     		add	r1, r0, #0
 2252 001c 381C     		add	r0, r7, #0
ARM GAS  C:\Users\ADMINI~1\AppData\Local\Temp\cc85ADh7.s 			page 64


 2253 001e FFF7FEFF 		bl	__aeabi_fsub
 2254              	.LVL312:
 2255 0022 A168     		ldr	r1, [r4, #8]
 2256 0024 071C     		add	r7, r0, #0
 2257 0026 A868     		ldr	r0, [r5, #8]
 2258 0028 FFF7FEFF 		bl	__aeabi_fmul
 2259              	.LVL313:
 2260 002c 011C     		add	r1, r0, #0
 2261 002e 381C     		add	r0, r7, #0
 2262 0030 FFF7FEFF 		bl	__aeabi_fsub
 2263              	.LVL314:
 2264 0034 E168     		ldr	r1, [r4, #12]
 2265 0036 071C     		add	r7, r0, #0
 2266 0038 E868     		ldr	r0, [r5, #12]
 2267 003a FFF7FEFF 		bl	__aeabi_fmul
 2268              	.LVL315:
 2269 003e 011C     		add	r1, r0, #0
 2270 0040 381C     		add	r0, r7, #0
 2271 0042 FFF7FEFF 		bl	__aeabi_fsub
 2272              	.LVL316:
 357:.\20648_driver\invn/ml_math_func.c **** 		(q1[0] * q2[0] - q1[1] * q2[1] - q1[2] * q2[2] - q1[3] * q2[3]);
 2273              		.loc 1 357 0
 2274 0046 3060     		str	r0, [r6]
 360:.\20648_driver\invn/ml_math_func.c **** 	qProd[2] =
 2275              		.loc 1 360 0
 2276 0048 2868     		ldr	r0, [r5]
 2277 004a 6168     		ldr	r1, [r4, #4]
 2278 004c FFF7FEFF 		bl	__aeabi_fmul
 2279              	.LVL317:
 2280 0050 2168     		ldr	r1, [r4]
 2281 0052 071C     		add	r7, r0, #0
 2282 0054 6868     		ldr	r0, [r5, #4]
 2283 0056 FFF7FEFF 		bl	__aeabi_fmul
 2284              	.LVL318:
 2285 005a 011C     		add	r1, r0, #0
 2286 005c 381C     		add	r0, r7, #0
 2287 005e FFF7FEFF 		bl	__aeabi_fadd
 2288              	.LVL319:
 2289 0062 E168     		ldr	r1, [r4, #12]
 2290 0064 071C     		add	r7, r0, #0
 2291 0066 A868     		ldr	r0, [r5, #8]
 2292 0068 FFF7FEFF 		bl	__aeabi_fmul
 2293              	.LVL320:
 2294 006c 011C     		add	r1, r0, #0
 2295 006e 381C     		add	r0, r7, #0
 2296 0070 FFF7FEFF 		bl	__aeabi_fadd
 2297              	.LVL321:
 2298 0074 A168     		ldr	r1, [r4, #8]
 2299 0076 071C     		add	r7, r0, #0
 2300 0078 E868     		ldr	r0, [r5, #12]
 2301 007a FFF7FEFF 		bl	__aeabi_fmul
 2302              	.LVL322:
 2303 007e 011C     		add	r1, r0, #0
 2304 0080 381C     		add	r0, r7, #0
 2305 0082 FFF7FEFF 		bl	__aeabi_fsub
 2306              	.LVL323:
 359:.\20648_driver\invn/ml_math_func.c **** 		(q1[0] * q2[1] + q1[1] * q2[0] + q1[2] * q2[3] - q1[3] * q2[2]);
ARM GAS  C:\Users\ADMINI~1\AppData\Local\Temp\cc85ADh7.s 			page 65


 2307              		.loc 1 359 0
 2308 0086 7060     		str	r0, [r6, #4]
 362:.\20648_driver\invn/ml_math_func.c **** 	qProd[3] =
 2309              		.loc 1 362 0
 2310 0088 2868     		ldr	r0, [r5]
 2311 008a A168     		ldr	r1, [r4, #8]
 2312 008c FFF7FEFF 		bl	__aeabi_fmul
 2313              	.LVL324:
 2314 0090 E168     		ldr	r1, [r4, #12]
 2315 0092 071C     		add	r7, r0, #0
 2316 0094 6868     		ldr	r0, [r5, #4]
 2317 0096 FFF7FEFF 		bl	__aeabi_fmul
 2318              	.LVL325:
 2319 009a 011C     		add	r1, r0, #0
 2320 009c 381C     		add	r0, r7, #0
 2321 009e FFF7FEFF 		bl	__aeabi_fsub
 2322              	.LVL326:
 2323 00a2 2168     		ldr	r1, [r4]
 2324 00a4 071C     		add	r7, r0, #0
 2325 00a6 A868     		ldr	r0, [r5, #8]
 2326 00a8 FFF7FEFF 		bl	__aeabi_fmul
 2327              	.LVL327:
 2328 00ac 011C     		add	r1, r0, #0
 2329 00ae 381C     		add	r0, r7, #0
 2330 00b0 FFF7FEFF 		bl	__aeabi_fadd
 2331              	.LVL328:
 2332 00b4 6168     		ldr	r1, [r4, #4]
 2333 00b6 071C     		add	r7, r0, #0
 2334 00b8 E868     		ldr	r0, [r5, #12]
 2335 00ba FFF7FEFF 		bl	__aeabi_fmul
 2336              	.LVL329:
 2337 00be 011C     		add	r1, r0, #0
 2338 00c0 381C     		add	r0, r7, #0
 2339 00c2 FFF7FEFF 		bl	__aeabi_fadd
 2340              	.LVL330:
 361:.\20648_driver\invn/ml_math_func.c **** 		(q1[0] * q2[2] - q1[1] * q2[3] + q1[2] * q2[0] + q1[3] * q2[1]);
 2341              		.loc 1 361 0
 2342 00c6 B060     		str	r0, [r6, #8]
 364:.\20648_driver\invn/ml_math_func.c **** }
 2343              		.loc 1 364 0
 2344 00c8 2868     		ldr	r0, [r5]
 2345 00ca E168     		ldr	r1, [r4, #12]
 2346 00cc FFF7FEFF 		bl	__aeabi_fmul
 2347              	.LVL331:
 2348 00d0 A168     		ldr	r1, [r4, #8]
 2349 00d2 071C     		add	r7, r0, #0
 2350 00d4 6868     		ldr	r0, [r5, #4]
 2351 00d6 FFF7FEFF 		bl	__aeabi_fmul
 2352              	.LVL332:
 2353 00da 011C     		add	r1, r0, #0
 2354 00dc 381C     		add	r0, r7, #0
 2355 00de FFF7FEFF 		bl	__aeabi_fadd
 2356              	.LVL333:
 2357 00e2 6168     		ldr	r1, [r4, #4]
 2358 00e4 071C     		add	r7, r0, #0
 2359 00e6 A868     		ldr	r0, [r5, #8]
 2360 00e8 FFF7FEFF 		bl	__aeabi_fmul
ARM GAS  C:\Users\ADMINI~1\AppData\Local\Temp\cc85ADh7.s 			page 66


 2361              	.LVL334:
 2362 00ec 011C     		add	r1, r0, #0
 2363 00ee 381C     		add	r0, r7, #0
 2364 00f0 FFF7FEFF 		bl	__aeabi_fsub
 2365              	.LVL335:
 2366 00f4 2168     		ldr	r1, [r4]
 2367 00f6 071C     		add	r7, r0, #0
 2368 00f8 E868     		ldr	r0, [r5, #12]
 2369 00fa FFF7FEFF 		bl	__aeabi_fmul
 2370              	.LVL336:
 2371 00fe 011C     		add	r1, r0, #0
 2372 0100 381C     		add	r0, r7, #0
 2373 0102 FFF7FEFF 		bl	__aeabi_fadd
 2374              	.LVL337:
 365:.\20648_driver\invn/ml_math_func.c **** 
 2375              		.loc 1 365 0
 2376              		@ sp needed
 363:.\20648_driver\invn/ml_math_func.c **** 		(q1[0] * q2[3] + q1[1] * q2[2] - q1[2] * q2[1] + q1[3] * q2[0]);
 2377              		.loc 1 363 0
 2378 0106 F060     		str	r0, [r6, #12]
 2379              	.LVL338:
 2380              	.LVL339:
 2381              	.LVL340:
 365:.\20648_driver\invn/ml_math_func.c **** 
 2382              		.loc 1 365 0
 2383 0108 F8BD     		pop	{r3, r4, r5, r6, r7, pc}
 2384              		.cfi_endproc
 2385              	.LFE21:
 2386              		.size	inv_q_multf, .-inv_q_multf
 2387              		.section	.text.inv_q_addf,"ax",%progbits
 2388              		.align	1
 2389              		.global	inv_q_addf
 2390              		.code	16
 2391              		.thumb_func
 2392              		.type	inv_q_addf, %function
 2393              	inv_q_addf:
 2394              	.LFB22:
 368:.\20648_driver\invn/ml_math_func.c **** 	qSum[0] = q1[0] + q2[0];
 2395              		.loc 1 368 0
 2396              		.cfi_startproc
 2397              	.LVL341:
 2398 0000 70B5     		push	{r4, r5, r6, lr}
 2399              		.cfi_def_cfa_offset 16
 2400              		.cfi_offset 4, -16
 2401              		.cfi_offset 5, -12
 2402              		.cfi_offset 6, -8
 2403              		.cfi_offset 14, -4
 368:.\20648_driver\invn/ml_math_func.c **** 	qSum[0] = q1[0] + q2[0];
 2404              		.loc 1 368 0
 2405 0002 061C     		mov	r6, r0
 2406 0004 0D1C     		mov	r5, r1
 369:.\20648_driver\invn/ml_math_func.c **** 	qSum[1] = q1[1] + q2[1];
 2407              		.loc 1 369 0
 2408 0006 0068     		ldr	r0, [r0]
 2409              	.LVL342:
 2410 0008 0968     		ldr	r1, [r1]
 2411              	.LVL343:
ARM GAS  C:\Users\ADMINI~1\AppData\Local\Temp\cc85ADh7.s 			page 67


 368:.\20648_driver\invn/ml_math_func.c **** 	qSum[0] = q1[0] + q2[0];
 2412              		.loc 1 368 0
 2413 000a 141C     		mov	r4, r2
 369:.\20648_driver\invn/ml_math_func.c **** 	qSum[1] = q1[1] + q2[1];
 2414              		.loc 1 369 0
 2415 000c FFF7FEFF 		bl	__aeabi_fadd
 2416              	.LVL344:
 2417 0010 2060     		str	r0, [r4]
 370:.\20648_driver\invn/ml_math_func.c **** 	qSum[2] = q1[2] + q2[2];
 2418              		.loc 1 370 0
 2419 0012 6968     		ldr	r1, [r5, #4]
 2420 0014 7068     		ldr	r0, [r6, #4]
 2421 0016 FFF7FEFF 		bl	__aeabi_fadd
 2422              	.LVL345:
 2423 001a 6060     		str	r0, [r4, #4]
 371:.\20648_driver\invn/ml_math_func.c **** 	qSum[3] = q1[3] + q2[3];
 2424              		.loc 1 371 0
 2425 001c A968     		ldr	r1, [r5, #8]
 2426 001e B068     		ldr	r0, [r6, #8]
 2427 0020 FFF7FEFF 		bl	__aeabi_fadd
 2428              	.LVL346:
 2429 0024 A060     		str	r0, [r4, #8]
 372:.\20648_driver\invn/ml_math_func.c **** }
 2430              		.loc 1 372 0
 2431 0026 F068     		ldr	r0, [r6, #12]
 2432 0028 E968     		ldr	r1, [r5, #12]
 2433 002a FFF7FEFF 		bl	__aeabi_fadd
 2434              	.LVL347:
 373:.\20648_driver\invn/ml_math_func.c **** 
 2435              		.loc 1 373 0
 2436              		@ sp needed
 372:.\20648_driver\invn/ml_math_func.c **** }
 2437              		.loc 1 372 0
 2438 002e E060     		str	r0, [r4, #12]
 2439              	.LVL348:
 2440              	.LVL349:
 2441              	.LVL350:
 373:.\20648_driver\invn/ml_math_func.c **** 
 2442              		.loc 1 373 0
 2443 0030 70BD     		pop	{r4, r5, r6, pc}
 2444              		.cfi_endproc
 2445              	.LFE22:
 2446              		.size	inv_q_addf, .-inv_q_addf
 2447              		.global	__aeabi_fcmplt
 2448              		.section	.text.inv_q_normalizef,"ax",%progbits
 2449              		.align	1
 2450              		.global	inv_q_normalizef
 2451              		.code	16
 2452              		.thumb_func
 2453              		.type	inv_q_normalizef, %function
 2454              	inv_q_normalizef:
 2455              	.LFB23:
 376:.\20648_driver\invn/ml_math_func.c **** 	float normSF = 0;
 2456              		.loc 1 376 0
 2457              		.cfi_startproc
 2458              	.LVL351:
 2459 0000 F0B5     		push	{r4, r5, r6, r7, lr}
ARM GAS  C:\Users\ADMINI~1\AppData\Local\Temp\cc85ADh7.s 			page 68


 2460              		.cfi_def_cfa_offset 20
 2461              		.cfi_offset 4, -20
 2462              		.cfi_offset 5, -16
 2463              		.cfi_offset 6, -12
 2464              		.cfi_offset 7, -8
 2465              		.cfi_offset 14, -4
 379:.\20648_driver\invn/ml_math_func.c **** 	if (normSF < 2) {
 2466              		.loc 1 379 0
 2467 0002 4368     		ldr	r3, [r0, #4]
 376:.\20648_driver\invn/ml_math_func.c **** 	float normSF = 0;
 2468              		.loc 1 376 0
 2469 0004 85B0     		sub	sp, sp, #20
 2470              		.cfi_def_cfa_offset 40
 379:.\20648_driver\invn/ml_math_func.c **** 	if (normSF < 2) {
 2471              		.loc 1 379 0
 2472 0006 0193     		str	r3, [sp, #4]
 2473 0008 8368     		ldr	r3, [r0, #8]
 2474 000a 0768     		ldr	r7, [r0]
 2475 000c 0293     		str	r3, [sp, #8]
 2476 000e C368     		ldr	r3, [r0, #12]
 2477 0010 391C     		add	r1, r7, #0
 376:.\20648_driver\invn/ml_math_func.c **** 	float normSF = 0;
 2478              		.loc 1 376 0
 2479 0012 041C     		mov	r4, r0
 379:.\20648_driver\invn/ml_math_func.c **** 	if (normSF < 2) {
 2480              		.loc 1 379 0
 2481 0014 381C     		add	r0, r7, #0
 2482              	.LVL352:
 2483 0016 0393     		str	r3, [sp, #12]
 2484 0018 FFF7FEFF 		bl	__aeabi_fmul
 2485              	.LVL353:
 2486 001c 051C     		add	r5, r0, #0
 2487 001e 0198     		ldr	r0, [sp, #4]
 2488 0020 011C     		add	r1, r0, #0
 2489 0022 FFF7FEFF 		bl	__aeabi_fmul
 2490              	.LVL354:
 2491 0026 011C     		add	r1, r0, #0
 2492 0028 281C     		add	r0, r5, #0
 2493 002a FFF7FEFF 		bl	__aeabi_fadd
 2494              	.LVL355:
 2495 002e 051C     		add	r5, r0, #0
 2496 0030 0298     		ldr	r0, [sp, #8]
 2497 0032 011C     		add	r1, r0, #0
 2498 0034 FFF7FEFF 		bl	__aeabi_fmul
 2499              	.LVL356:
 2500 0038 011C     		add	r1, r0, #0
 2501 003a 281C     		add	r0, r5, #0
 2502 003c FFF7FEFF 		bl	__aeabi_fadd
 2503              	.LVL357:
 2504 0040 051C     		add	r5, r0, #0
 2505 0042 0398     		ldr	r0, [sp, #12]
 2506 0044 011C     		add	r1, r0, #0
 2507 0046 FFF7FEFF 		bl	__aeabi_fmul
 2508              	.LVL358:
 2509 004a 011C     		add	r1, r0, #0
 2510 004c 281C     		add	r0, r5, #0
 2511 004e FFF7FEFF 		bl	__aeabi_fadd
ARM GAS  C:\Users\ADMINI~1\AppData\Local\Temp\cc85ADh7.s 			page 69


 2512              	.LVL359:
 380:.\20648_driver\invn/ml_math_func.c **** 		xHalf = 0.5f * normSF;
 2513              		.loc 1 380 0
 2514 0052 8021     		mov	r1, #128
 2515 0054 C905     		lsl	r1, r1, #23
 379:.\20648_driver\invn/ml_math_func.c **** 	if (normSF < 2) {
 2516              		.loc 1 379 0
 2517 0056 051C     		add	r5, r0, #0
 2518              	.LVL360:
 380:.\20648_driver\invn/ml_math_func.c **** 		xHalf = 0.5f * normSF;
 2519              		.loc 1 380 0
 2520 0058 FFF7FEFF 		bl	__aeabi_fcmplt
 2521              	.LVL361:
 2522 005c 0028     		cmp	r0, #0
 2523 005e 5DD0     		beq	.L54
 381:.\20648_driver\invn/ml_math_func.c **** 		normSF = normSF * (1.5f - xHalf * normSF * normSF);
 2524              		.loc 1 381 0
 2525 0060 FC21     		mov	r1, #252
 2526 0062 281C     		add	r0, r5, #0
 2527 0064 8905     		lsl	r1, r1, #22
 2528 0066 FFF7FEFF 		bl	__aeabi_fmul
 2529              	.LVL362:
 382:.\20648_driver\invn/ml_math_func.c **** 		normSF = normSF * (1.5f - xHalf * normSF * normSF);
 2530              		.loc 1 382 0
 2531 006a 291C     		add	r1, r5, #0
 381:.\20648_driver\invn/ml_math_func.c **** 		normSF = normSF * (1.5f - xHalf * normSF * normSF);
 2532              		.loc 1 381 0
 2533 006c 061C     		add	r6, r0, #0
 2534              	.LVL363:
 382:.\20648_driver\invn/ml_math_func.c **** 		normSF = normSF * (1.5f - xHalf * normSF * normSF);
 2535              		.loc 1 382 0
 2536 006e FFF7FEFF 		bl	__aeabi_fmul
 2537              	.LVL364:
 2538 0072 291C     		add	r1, r5, #0
 2539 0074 FFF7FEFF 		bl	__aeabi_fmul
 2540              	.LVL365:
 2541 0078 011C     		add	r1, r0, #0
 2542 007a FF20     		mov	r0, #255
 2543 007c 8005     		lsl	r0, r0, #22
 2544 007e FFF7FEFF 		bl	__aeabi_fsub
 2545              	.LVL366:
 2546 0082 011C     		add	r1, r0, #0
 2547 0084 281C     		add	r0, r5, #0
 2548 0086 FFF7FEFF 		bl	__aeabi_fmul
 2549              	.LVL367:
 2550 008a 051C     		add	r5, r0, #0
 2551              	.LVL368:
 383:.\20648_driver\invn/ml_math_func.c **** 		normSF = normSF * (1.5f - xHalf * normSF * normSF);
 2552              		.loc 1 383 0
 2553 008c 291C     		add	r1, r5, #0
 2554 008e 301C     		add	r0, r6, #0
 2555              	.LVL369:
 2556 0090 FFF7FEFF 		bl	__aeabi_fmul
 2557              	.LVL370:
 2558 0094 291C     		add	r1, r5, #0
 2559 0096 FFF7FEFF 		bl	__aeabi_fmul
 2560              	.LVL371:
ARM GAS  C:\Users\ADMINI~1\AppData\Local\Temp\cc85ADh7.s 			page 70


 2561 009a 011C     		add	r1, r0, #0
 2562 009c FF20     		mov	r0, #255
 2563 009e 8005     		lsl	r0, r0, #22
 2564 00a0 FFF7FEFF 		bl	__aeabi_fsub
 2565              	.LVL372:
 2566 00a4 011C     		add	r1, r0, #0
 2567 00a6 281C     		add	r0, r5, #0
 2568 00a8 FFF7FEFF 		bl	__aeabi_fmul
 2569              	.LVL373:
 2570 00ac 051C     		add	r5, r0, #0
 2571              	.LVL374:
 384:.\20648_driver\invn/ml_math_func.c **** 		normSF = normSF * (1.5f - xHalf * normSF * normSF);
 2572              		.loc 1 384 0
 2573 00ae 291C     		add	r1, r5, #0
 2574 00b0 301C     		add	r0, r6, #0
 2575              	.LVL375:
 2576 00b2 FFF7FEFF 		bl	__aeabi_fmul
 2577              	.LVL376:
 2578 00b6 291C     		add	r1, r5, #0
 2579 00b8 FFF7FEFF 		bl	__aeabi_fmul
 2580              	.LVL377:
 2581 00bc 011C     		add	r1, r0, #0
 2582 00be FF20     		mov	r0, #255
 2583 00c0 8005     		lsl	r0, r0, #22
 2584 00c2 FFF7FEFF 		bl	__aeabi_fsub
 2585              	.LVL378:
 2586 00c6 011C     		add	r1, r0, #0
 2587 00c8 281C     		add	r0, r5, #0
 2588 00ca FFF7FEFF 		bl	__aeabi_fmul
 2589              	.LVL379:
 2590 00ce 051C     		add	r5, r0, #0
 2591              	.LVL380:
 385:.\20648_driver\invn/ml_math_func.c **** 		q[0] *= normSF;
 2592              		.loc 1 385 0
 2593 00d0 291C     		add	r1, r5, #0
 2594 00d2 301C     		add	r0, r6, #0
 2595              	.LVL381:
 2596 00d4 FFF7FEFF 		bl	__aeabi_fmul
 2597              	.LVL382:
 2598 00d8 291C     		add	r1, r5, #0
 2599 00da FFF7FEFF 		bl	__aeabi_fmul
 2600              	.LVL383:
 2601 00de 011C     		add	r1, r0, #0
 2602 00e0 FF20     		mov	r0, #255
 2603 00e2 8005     		lsl	r0, r0, #22
 2604 00e4 FFF7FEFF 		bl	__aeabi_fsub
 2605              	.LVL384:
 2606 00e8 011C     		add	r1, r0, #0
 2607 00ea 281C     		add	r0, r5, #0
 2608 00ec FFF7FEFF 		bl	__aeabi_fmul
 2609              	.LVL385:
 2610 00f0 051C     		add	r5, r0, #0
 2611              	.LVL386:
 386:.\20648_driver\invn/ml_math_func.c **** 		q[1] *= normSF;
 2612              		.loc 1 386 0
 2613 00f2 291C     		add	r1, r5, #0
 2614 00f4 381C     		add	r0, r7, #0
ARM GAS  C:\Users\ADMINI~1\AppData\Local\Temp\cc85ADh7.s 			page 71


 2615              	.LVL387:
 2616 00f6 FFF7FEFF 		bl	__aeabi_fmul
 2617              	.LVL388:
 387:.\20648_driver\invn/ml_math_func.c **** 		q[2] *= normSF;
 2618              		.loc 1 387 0
 2619 00fa 291C     		add	r1, r5, #0
 386:.\20648_driver\invn/ml_math_func.c **** 		q[1] *= normSF;
 2620              		.loc 1 386 0
 2621 00fc 2060     		str	r0, [r4]
 387:.\20648_driver\invn/ml_math_func.c **** 		q[2] *= normSF;
 2622              		.loc 1 387 0
 2623 00fe 0198     		ldr	r0, [sp, #4]
 2624 0100 FFF7FEFF 		bl	__aeabi_fmul
 2625              	.LVL389:
 388:.\20648_driver\invn/ml_math_func.c **** 		q[3] *= normSF;
 2626              		.loc 1 388 0
 2627 0104 291C     		add	r1, r5, #0
 387:.\20648_driver\invn/ml_math_func.c **** 		q[2] *= normSF;
 2628              		.loc 1 387 0
 2629 0106 6060     		str	r0, [r4, #4]
 388:.\20648_driver\invn/ml_math_func.c **** 		q[3] *= normSF;
 2630              		.loc 1 388 0
 2631 0108 0298     		ldr	r0, [sp, #8]
 2632 010a FFF7FEFF 		bl	__aeabi_fmul
 2633              	.LVL390:
 389:.\20648_driver\invn/ml_math_func.c **** 	}
 2634              		.loc 1 389 0
 2635 010e 291C     		add	r1, r5, #0
 388:.\20648_driver\invn/ml_math_func.c **** 		q[3] *= normSF;
 2636              		.loc 1 388 0
 2637 0110 A060     		str	r0, [r4, #8]
 389:.\20648_driver\invn/ml_math_func.c **** 	}
 2638              		.loc 1 389 0
 2639 0112 0398     		ldr	r0, [sp, #12]
 2640 0114 FFF7FEFF 		bl	__aeabi_fmul
 2641              	.LVL391:
 2642 0118 E060     		str	r0, [r4, #12]
 2643 011a 06E0     		b	.L49
 2644              	.LVL392:
 2645              	.L54:
 392:.\20648_driver\invn/ml_math_func.c **** 		q[1] = 0.0;
 2646              		.loc 1 392 0
 2647 011c FE23     		mov	r3, #254
 2648 011e 9B05     		lsl	r3, r3, #22
 2649 0120 2360     		str	r3, [r4]
 393:.\20648_driver\invn/ml_math_func.c **** 		q[2] = 0.0;
 2650              		.loc 1 393 0
 2651 0122 0023     		mov	r3, #0
 2652 0124 6360     		str	r3, [r4, #4]
 394:.\20648_driver\invn/ml_math_func.c **** 		q[3] = 0.0;
 2653              		.loc 1 394 0
 2654 0126 A360     		str	r3, [r4, #8]
 395:.\20648_driver\invn/ml_math_func.c **** 	}
 2655              		.loc 1 395 0
 2656 0128 E360     		str	r3, [r4, #12]
 2657              	.LVL393:
 2658              	.L49:
ARM GAS  C:\Users\ADMINI~1\AppData\Local\Temp\cc85ADh7.s 			page 72


 398:.\20648_driver\invn/ml_math_func.c **** 
 2659              		.loc 1 398 0
 2660 012a 05B0     		add	sp, sp, #20
 2661              		@ sp needed
 2662              	.LVL394:
 2663 012c F0BD     		pop	{r4, r5, r6, r7, pc}
 2664              		.cfi_endproc
 2665              	.LFE23:
 2666              		.size	inv_q_normalizef, .-inv_q_normalizef
 2667              		.global	__aeabi_fcmpeq
 2668              		.global	__aeabi_fdiv
 2669              		.section	.text.inv_q_norm4,"ax",%progbits
 2670              		.align	1
 2671              		.global	inv_q_norm4
 2672              		.code	16
 2673              		.thumb_func
 2674              		.type	inv_q_norm4, %function
 2675              	inv_q_norm4:
 2676              	.LFB24:
 404:.\20648_driver\invn/ml_math_func.c **** 	float mag;
 2677              		.loc 1 404 0
 2678              		.cfi_startproc
 2679              	.LVL395:
 2680 0000 F7B5     		push	{r0, r1, r2, r4, r5, r6, r7, lr}
 2681              		.cfi_def_cfa_offset 32
 2682              		.cfi_offset 0, -32
 2683              		.cfi_offset 1, -28
 2684              		.cfi_offset 2, -24
 2685              		.cfi_offset 4, -20
 2686              		.cfi_offset 5, -16
 2687              		.cfi_offset 6, -12
 2688              		.cfi_offset 7, -8
 2689              		.cfi_offset 14, -4
 406:.\20648_driver\invn/ml_math_func.c **** 	if (mag) {
 2690              		.loc 1 406 0
 2691 0002 4668     		ldr	r6, [r0, #4]
 2692 0004 8568     		ldr	r5, [r0, #8]
 2693 0006 C768     		ldr	r7, [r0, #12]
 404:.\20648_driver\invn/ml_math_func.c **** 	float mag;
 2694              		.loc 1 404 0
 2695 0008 041C     		mov	r4, r0
 406:.\20648_driver\invn/ml_math_func.c **** 	if (mag) {
 2696              		.loc 1 406 0
 2697 000a 0068     		ldr	r0, [r0]
 2698              	.LVL396:
 2699 000c 011C     		add	r1, r0, #0
 2700 000e FFF7FEFF 		bl	__aeabi_fmul
 2701              	.LVL397:
 2702 0012 311C     		add	r1, r6, #0
 2703 0014 0190     		str	r0, [sp, #4]
 2704 0016 301C     		add	r0, r6, #0
 2705 0018 FFF7FEFF 		bl	__aeabi_fmul
 2706              	.LVL398:
 2707 001c 011C     		add	r1, r0, #0
 2708 001e 0198     		ldr	r0, [sp, #4]
 2709 0020 FFF7FEFF 		bl	__aeabi_fadd
 2710              	.LVL399:
ARM GAS  C:\Users\ADMINI~1\AppData\Local\Temp\cc85ADh7.s 			page 73


 2711 0024 291C     		add	r1, r5, #0
 2712 0026 061C     		add	r6, r0, #0
 2713 0028 281C     		add	r0, r5, #0
 2714 002a FFF7FEFF 		bl	__aeabi_fmul
 2715              	.LVL400:
 2716 002e 011C     		add	r1, r0, #0
 2717 0030 301C     		add	r0, r6, #0
 2718 0032 FFF7FEFF 		bl	__aeabi_fadd
 2719              	.LVL401:
 2720 0036 391C     		add	r1, r7, #0
 2721 0038 051C     		add	r5, r0, #0
 2722 003a 381C     		add	r0, r7, #0
 2723 003c FFF7FEFF 		bl	__aeabi_fmul
 2724              	.LVL402:
 2725 0040 011C     		add	r1, r0, #0
 2726 0042 281C     		add	r0, r5, #0
 2727 0044 FFF7FEFF 		bl	__aeabi_fadd
 2728              	.LVL403:
 407:.\20648_driver\invn/ml_math_func.c **** 		q[0] /= mag;
 2729              		.loc 1 407 0
 2730 0048 0026     		mov	r6, #0
 406:.\20648_driver\invn/ml_math_func.c **** 	if (mag) {
 2731              		.loc 1 406 0
 2732 004a FFF7FEFF 		bl	sqrtf
 2733              	.LVL404:
 407:.\20648_driver\invn/ml_math_func.c **** 		q[0] /= mag;
 2734              		.loc 1 407 0
 2735 004e 311C     		add	r1, r6, #0
 406:.\20648_driver\invn/ml_math_func.c **** 	if (mag) {
 2736              		.loc 1 406 0
 2737 0050 051C     		add	r5, r0, #0
 2738              	.LVL405:
 407:.\20648_driver\invn/ml_math_func.c **** 		q[0] /= mag;
 2739              		.loc 1 407 0
 2740 0052 FFF7FEFF 		bl	__aeabi_fcmpeq
 2741              	.LVL406:
 2742 0056 0028     		cmp	r0, #0
 2743 0058 14D1     		bne	.L60
 408:.\20648_driver\invn/ml_math_func.c **** 		q[1] /= mag;
 2744              		.loc 1 408 0
 2745 005a 2068     		ldr	r0, [r4]
 2746 005c 291C     		add	r1, r5, #0
 2747 005e FFF7FEFF 		bl	__aeabi_fdiv
 2748              	.LVL407:
 409:.\20648_driver\invn/ml_math_func.c **** 		q[2] /= mag;
 2749              		.loc 1 409 0
 2750 0062 291C     		add	r1, r5, #0
 408:.\20648_driver\invn/ml_math_func.c **** 		q[1] /= mag;
 2751              		.loc 1 408 0
 2752 0064 2060     		str	r0, [r4]
 409:.\20648_driver\invn/ml_math_func.c **** 		q[2] /= mag;
 2753              		.loc 1 409 0
 2754 0066 6068     		ldr	r0, [r4, #4]
 2755 0068 FFF7FEFF 		bl	__aeabi_fdiv
 2756              	.LVL408:
 410:.\20648_driver\invn/ml_math_func.c **** 		q[3] /= mag;
 2757              		.loc 1 410 0
ARM GAS  C:\Users\ADMINI~1\AppData\Local\Temp\cc85ADh7.s 			page 74


 2758 006c 291C     		add	r1, r5, #0
 409:.\20648_driver\invn/ml_math_func.c **** 		q[2] /= mag;
 2759              		.loc 1 409 0
 2760 006e 6060     		str	r0, [r4, #4]
 410:.\20648_driver\invn/ml_math_func.c **** 		q[3] /= mag;
 2761              		.loc 1 410 0
 2762 0070 A068     		ldr	r0, [r4, #8]
 2763 0072 FFF7FEFF 		bl	__aeabi_fdiv
 2764              	.LVL409:
 411:.\20648_driver\invn/ml_math_func.c **** 	}
 2765              		.loc 1 411 0
 2766 0076 291C     		add	r1, r5, #0
 410:.\20648_driver\invn/ml_math_func.c **** 		q[3] /= mag;
 2767              		.loc 1 410 0
 2768 0078 A060     		str	r0, [r4, #8]
 411:.\20648_driver\invn/ml_math_func.c **** 	}
 2769              		.loc 1 411 0
 2770 007a E068     		ldr	r0, [r4, #12]
 2771 007c FFF7FEFF 		bl	__aeabi_fdiv
 2772              	.LVL410:
 2773 0080 E060     		str	r0, [r4, #12]
 2774 0082 05E0     		b	.L55
 2775              	.L60:
 414:.\20648_driver\invn/ml_math_func.c **** 		q[1] = 0.f;
 2776              		.loc 1 414 0
 2777 0084 FE23     		mov	r3, #254
 2778 0086 9B05     		lsl	r3, r3, #22
 2779 0088 2360     		str	r3, [r4]
 415:.\20648_driver\invn/ml_math_func.c **** 		q[2] = 0.f;
 2780              		.loc 1 415 0
 2781 008a 6660     		str	r6, [r4, #4]
 416:.\20648_driver\invn/ml_math_func.c **** 		q[3] = 0.f;
 2782              		.loc 1 416 0
 2783 008c A660     		str	r6, [r4, #8]
 417:.\20648_driver\invn/ml_math_func.c **** 	}
 2784              		.loc 1 417 0
 2785 008e E660     		str	r6, [r4, #12]
 2786              	.L55:
 419:.\20648_driver\invn/ml_math_func.c **** 
 2787              		.loc 1 419 0
 2788              		@ sp needed
 2789              	.LVL411:
 2790              	.LVL412:
 2791 0090 F7BD     		pop	{r0, r1, r2, r4, r5, r6, r7, pc}
 2792              		.cfi_endproc
 2793              	.LFE24:
 2794              		.size	inv_q_norm4, .-inv_q_norm4
 2795              		.section	.text.inv_q_invertf,"ax",%progbits
 2796              		.align	1
 2797              		.global	inv_q_invertf
 2798              		.code	16
 2799              		.thumb_func
 2800              		.type	inv_q_invertf, %function
 2801              	inv_q_invertf:
 2802              	.LFB25:
 422:.\20648_driver\invn/ml_math_func.c **** 	qInverted[0] = q[0];
 2803              		.loc 1 422 0
ARM GAS  C:\Users\ADMINI~1\AppData\Local\Temp\cc85ADh7.s 			page 75


 2804              		.cfi_startproc
 2805              	.LVL413:
 424:.\20648_driver\invn/ml_math_func.c **** 	qInverted[2] = -q[2];
 2806              		.loc 1 424 0
 2807 0000 8022     		mov	r2, #128
 423:.\20648_driver\invn/ml_math_func.c **** 	qInverted[1] = -q[1];
 2808              		.loc 1 423 0
 2809 0002 0368     		ldr	r3, [r0]
 424:.\20648_driver\invn/ml_math_func.c **** 	qInverted[2] = -q[2];
 2810              		.loc 1 424 0
 2811 0004 1206     		lsl	r2, r2, #24
 423:.\20648_driver\invn/ml_math_func.c **** 	qInverted[1] = -q[1];
 2812              		.loc 1 423 0
 2813 0006 0B60     		str	r3, [r1]
 424:.\20648_driver\invn/ml_math_func.c **** 	qInverted[2] = -q[2];
 2814              		.loc 1 424 0
 2815 0008 4368     		ldr	r3, [r0, #4]
 427:.\20648_driver\invn/ml_math_func.c **** 
 2816              		.loc 1 427 0
 2817              		@ sp needed
 424:.\20648_driver\invn/ml_math_func.c **** 	qInverted[2] = -q[2];
 2818              		.loc 1 424 0
 2819 000a 9B18     		add	r3, r3, r2
 2820 000c 4B60     		str	r3, [r1, #4]
 425:.\20648_driver\invn/ml_math_func.c **** 	qInverted[3] = -q[3];
 2821              		.loc 1 425 0
 2822 000e 8368     		ldr	r3, [r0, #8]
 2823 0010 9B18     		add	r3, r3, r2
 2824 0012 8B60     		str	r3, [r1, #8]
 426:.\20648_driver\invn/ml_math_func.c **** }
 2825              		.loc 1 426 0
 2826 0014 C368     		ldr	r3, [r0, #12]
 2827 0016 9B18     		add	r3, r3, r2
 2828 0018 CB60     		str	r3, [r1, #12]
 427:.\20648_driver\invn/ml_math_func.c **** 
 2829              		.loc 1 427 0
 2830 001a 7047     		bx	lr
 2831              		.cfi_endproc
 2832              	.LFE25:
 2833              		.size	inv_q_invertf, .-inv_q_invertf
 2834              		.global	__aeabi_i2f
 2835              		.section	.text.inv_compass_angle,"ax",%progbits
 2836              		.align	1
 2837              		.global	inv_compass_angle
 2838              		.code	16
 2839              		.thumb_func
 2840              		.type	inv_compass_angle, %function
 2841              	inv_compass_angle:
 2842              	.LFB4:
  39:.\20648_driver\invn/ml_math_func.c **** 	float cgcross[4], q1[4], q2[4], qi[4];
 2843              		.loc 1 39 0
 2844              		.cfi_startproc
 2845              	.LVL414:
 2846 0000 F0B5     		push	{r4, r5, r6, r7, lr}
 2847              		.cfi_def_cfa_offset 20
 2848              		.cfi_offset 4, -20
 2849              		.cfi_offset 5, -16
ARM GAS  C:\Users\ADMINI~1\AppData\Local\Temp\cc85ADh7.s 			page 76


 2850              		.cfi_offset 6, -12
 2851              		.cfi_offset 7, -8
 2852              		.cfi_offset 14, -4
  44:.\20648_driver\invn/ml_math_func.c **** 	cgcross[1] = (float)compass[1] * grav[2] - (float)compass[2] * grav[1];
 2853              		.loc 1 44 0
 2854 0002 0027     		mov	r7, #0
  39:.\20648_driver\invn/ml_math_func.c **** 	float cgcross[4], q1[4], q2[4], qi[4];
 2855              		.loc 1 39 0
 2856 0004 97B0     		sub	sp, sp, #92
 2857              		.cfi_def_cfa_offset 112
  39:.\20648_driver\invn/ml_math_func.c **** 	float cgcross[4], q1[4], q2[4], qi[4];
 2858              		.loc 1 39 0
 2859 0006 041C     		mov	r4, r0
  45:.\20648_driver\invn/ml_math_func.c **** 	cgcross[2] = (float)compass[2] * grav[0] - (float)compass[0] * grav[2];
 2860              		.loc 1 45 0
 2861 0008 4068     		ldr	r0, [r0, #4]
 2862              	.LVL415:
  39:.\20648_driver\invn/ml_math_func.c **** 	float cgcross[4], q1[4], q2[4], qi[4];
 2863              		.loc 1 39 0
 2864 000a 0492     		str	r2, [sp, #16]
 2865 000c 0D1C     		mov	r5, r1
  44:.\20648_driver\invn/ml_math_func.c **** 	cgcross[1] = (float)compass[1] * grav[2] - (float)compass[2] * grav[1];
 2866              		.loc 1 44 0
 2867 000e 0697     		str	r7, [sp, #24]
  45:.\20648_driver\invn/ml_math_func.c **** 	cgcross[2] = (float)compass[2] * grav[0] - (float)compass[0] * grav[2];
 2868              		.loc 1 45 0
 2869 0010 FFF7FEFF 		bl	__aeabi_i2f
 2870              	.LVL416:
 2871 0014 0190     		str	r0, [sp, #4]
 2872 0016 A868     		ldr	r0, [r5, #8]
 2873 0018 FFF7FEFF 		bl	__aeabi_i2f
 2874              	.LVL417:
 2875 001c 0290     		str	r0, [sp, #8]
 2876 001e A068     		ldr	r0, [r4, #8]
 2877 0020 FFF7FEFF 		bl	__aeabi_i2f
 2878              	.LVL418:
 2879 0024 061C     		add	r6, r0, #0
 2880 0026 6868     		ldr	r0, [r5, #4]
 2881 0028 FFF7FEFF 		bl	__aeabi_i2f
 2882              	.LVL419:
 2883 002c 0299     		ldr	r1, [sp, #8]
 2884 002e 0390     		str	r0, [sp, #12]
 2885 0030 0198     		ldr	r0, [sp, #4]
 2886 0032 FFF7FEFF 		bl	__aeabi_fmul
 2887              	.LVL420:
 2888 0036 0399     		ldr	r1, [sp, #12]
 2889 0038 0590     		str	r0, [sp, #20]
 2890 003a 301C     		add	r0, r6, #0
 2891 003c FFF7FEFF 		bl	__aeabi_fmul
 2892              	.LVL421:
 2893 0040 011C     		add	r1, r0, #0
 2894 0042 0598     		ldr	r0, [sp, #20]
 2895 0044 FFF7FEFF 		bl	__aeabi_fsub
 2896              	.LVL422:
 2897 0048 0790     		str	r0, [sp, #28]
  46:.\20648_driver\invn/ml_math_func.c **** 	cgcross[3] = (float)compass[0] * grav[1] - (float)compass[1] * grav[0];
 2898              		.loc 1 46 0
ARM GAS  C:\Users\ADMINI~1\AppData\Local\Temp\cc85ADh7.s 			page 77


 2899 004a 2868     		ldr	r0, [r5]
 2900 004c FFF7FEFF 		bl	__aeabi_i2f
 2901              	.LVL423:
 2902 0050 051C     		add	r5, r0, #0
 2903              	.LVL424:
 2904 0052 2068     		ldr	r0, [r4]
 2905 0054 FFF7FEFF 		bl	__aeabi_i2f
 2906              	.LVL425:
 2907 0058 291C     		add	r1, r5, #0
 2908 005a 041C     		add	r4, r0, #0
 2909              	.LVL426:
 2910 005c 301C     		add	r0, r6, #0
 2911 005e FFF7FEFF 		bl	__aeabi_fmul
 2912              	.LVL427:
 2913 0062 0299     		ldr	r1, [sp, #8]
 2914 0064 061C     		add	r6, r0, #0
 2915 0066 201C     		add	r0, r4, #0
 2916 0068 FFF7FEFF 		bl	__aeabi_fmul
 2917              	.LVL428:
 2918 006c 011C     		add	r1, r0, #0
 2919 006e 301C     		add	r0, r6, #0
 2920 0070 FFF7FEFF 		bl	__aeabi_fsub
 2921              	.LVL429:
  47:.\20648_driver\invn/ml_math_func.c **** 
 2922              		.loc 1 47 0
 2923 0074 0399     		ldr	r1, [sp, #12]
  46:.\20648_driver\invn/ml_math_func.c **** 	cgcross[3] = (float)compass[0] * grav[1] - (float)compass[1] * grav[0];
 2924              		.loc 1 46 0
 2925 0076 0890     		str	r0, [sp, #32]
  47:.\20648_driver\invn/ml_math_func.c **** 
 2926              		.loc 1 47 0
 2927 0078 201C     		add	r0, r4, #0
 2928 007a FFF7FEFF 		bl	__aeabi_fmul
 2929              	.LVL430:
 2930 007e 291C     		add	r1, r5, #0
 2931 0080 041C     		add	r4, r0, #0
 2932 0082 0198     		ldr	r0, [sp, #4]
 2933 0084 FFF7FEFF 		bl	__aeabi_fmul
 2934              	.LVL431:
 2935 0088 011C     		add	r1, r0, #0
 2936 008a 201C     		add	r0, r4, #0
 2937 008c FFF7FEFF 		bl	__aeabi_fsub
 2938              	.LVL432:
  50:.\20648_driver\invn/ml_math_func.c **** 	inv_q_invertf(quat, qi);
 2939              		.loc 1 50 0
 2940 0090 0AAA     		add	r2, sp, #40
  47:.\20648_driver\invn/ml_math_func.c **** 
 2941              		.loc 1 47 0
 2942 0092 0990     		str	r0, [sp, #36]
  50:.\20648_driver\invn/ml_math_func.c **** 	inv_q_invertf(quat, qi);
 2943              		.loc 1 50 0
 2944 0094 06A9     		add	r1, sp, #24
 2945 0096 0498     		ldr	r0, [sp, #16]
 2946 0098 FFF7FEFF 		bl	inv_q_multf
 2947              	.LVL433:
  51:.\20648_driver\invn/ml_math_func.c **** 	inv_q_multf(q1, qi, q2);
 2948              		.loc 1 51 0
ARM GAS  C:\Users\ADMINI~1\AppData\Local\Temp\cc85ADh7.s 			page 78


 2949 009c 0498     		ldr	r0, [sp, #16]
 2950 009e 12A9     		add	r1, sp, #72
 2951 00a0 FFF7FEFF 		bl	inv_q_invertf
 2952              	.LVL434:
  52:.\20648_driver\invn/ml_math_func.c **** 
 2953              		.loc 1 52 0
 2954 00a4 0AA8     		add	r0, sp, #40
 2955 00a6 12A9     		add	r1, sp, #72
 2956 00a8 0EAA     		add	r2, sp, #56
 2957 00aa FFF7FEFF 		bl	inv_q_multf
 2958              	.LVL435:
  55:.\20648_driver\invn/ml_math_func.c **** 		return 0.f;
 2959              		.loc 1 55 0
 2960 00ae 109C     		ldr	r4, [sp, #64]
 2961 00b0 391C     		add	r1, r7, #0
 2962 00b2 201C     		add	r0, r4, #0
 2963 00b4 FFF7FEFF 		bl	__aeabi_fcmpeq
 2964              	.LVL436:
 2965 00b8 0028     		cmp	r0, #0
 2966 00ba 07D0     		beq	.L63
  55:.\20648_driver\invn/ml_math_func.c **** 		return 0.f;
 2967              		.loc 1 55 0 is_stmt 0 discriminator 1
 2968 00bc 0F98     		ldr	r0, [sp, #60]
 2969 00be 391C     		add	r1, r7, #0
 2970 00c0 FFF7FEFF 		bl	__aeabi_fcmpeq
 2971              	.LVL437:
 2972 00c4 031C     		mov	r3, r0
  56:.\20648_driver\invn/ml_math_func.c **** 
 2973              		.loc 1 56 0 is_stmt 1 discriminator 1
 2974 00c6 381C     		add	r0, r7, #0
  55:.\20648_driver\invn/ml_math_func.c **** 		return 0.f;
 2975              		.loc 1 55 0 discriminator 1
 2976 00c8 002B     		cmp	r3, #0
 2977 00ca 06D1     		bne	.L65
 2978              	.L63:
  59:.\20648_driver\invn/ml_math_func.c **** 	return angW;
 2979              		.loc 1 59 0
 2980 00cc 201C     		add	r0, r4, #0
 2981 00ce 0F99     		ldr	r1, [sp, #60]
 2982 00d0 FFF7FEFF 		bl	atan2f
 2983              	.LVL438:
 2984 00d4 8023     		mov	r3, #128
 2985 00d6 1B06     		lsl	r3, r3, #24
 2986 00d8 C018     		add	r0, r0, r3
 2987              	.LVL439:
 2988              	.L65:
  61:.\20648_driver\invn/ml_math_func.c **** 
 2989              		.loc 1 61 0
 2990 00da 17B0     		add	sp, sp, #92
 2991              		@ sp needed
 2992 00dc F0BD     		pop	{r4, r5, r6, r7, pc}
 2993              		.cfi_endproc
 2994              	.LFE4:
 2995              		.size	inv_compass_angle, .-inv_compass_angle
 2996              		.global	__aeabi_fcmpge
 2997              		.global	__aeabi_f2iz
 2998              		.section	.text.inv_rotation_to_quaternion,"ax",%progbits
ARM GAS  C:\Users\ADMINI~1\AppData\Local\Temp\cc85ADh7.s 			page 79


 2999              		.align	1
 3000              		.global	inv_rotation_to_quaternion
 3001              		.code	16
 3002              		.thumb_func
 3003              		.type	inv_rotation_to_quaternion, %function
 3004              	inv_rotation_to_quaternion:
 3005              	.LFB29:
 685:.\20648_driver\invn/ml_math_func.c **** 	float r11, r12, r13, r21, r22, r23, r31, r32, r33;
 3006              		.loc 1 685 0
 3007              		.cfi_startproc
 3008              	.LVL440:
 3009 0000 F0B5     		push	{r4, r5, r6, r7, lr}
 3010              		.cfi_def_cfa_offset 20
 3011              		.cfi_offset 4, -20
 3012              		.cfi_offset 5, -16
 3013              		.cfi_offset 6, -12
 3014              		.cfi_offset 7, -8
 3015              		.cfi_offset 14, -4
 3016 0002 8BB0     		sub	sp, sp, #44
 3017              		.cfi_def_cfa_offset 64
 685:.\20648_driver\invn/ml_math_func.c **** 	float r11, r12, r13, r21, r22, r23, r31, r32, r33;
 3018              		.loc 1 685 0
 3019 0004 0791     		str	r1, [sp, #28]
 701:.\20648_driver\invn/ml_math_func.c **** 	Qcb[1] = (1.f + r11 - r22 - r33) / 4.f;
 3020              		.loc 1 701 0
 3021 0006 FE21     		mov	r1, #254
 3022              	.LVL441:
 690:.\20648_driver\invn/ml_math_func.c **** 	r13 = Rcb[2];
 3023              		.loc 1 690 0
 3024 0008 4368     		ldr	r3, [r0, #4]
 689:.\20648_driver\invn/ml_math_func.c **** 	r12 = Rcb[1];
 3025              		.loc 1 689 0
 3026 000a 0668     		ldr	r6, [r0]
 3027              	.LVL442:
 690:.\20648_driver\invn/ml_math_func.c **** 	r13 = Rcb[2];
 3028              		.loc 1 690 0
 3029 000c 0193     		str	r3, [sp, #4]
 3030              	.LVL443:
 691:.\20648_driver\invn/ml_math_func.c **** 
 3031              		.loc 1 691 0
 3032 000e 8368     		ldr	r3, [r0, #8]
 3033              	.LVL444:
 699:.\20648_driver\invn/ml_math_func.c **** 
 3034              		.loc 1 699 0
 3035 0010 046A     		ldr	r4, [r0, #32]
 691:.\20648_driver\invn/ml_math_func.c **** 
 3036              		.loc 1 691 0
 3037 0012 0293     		str	r3, [sp, #8]
 3038              	.LVL445:
 693:.\20648_driver\invn/ml_math_func.c **** 	r22 = Rcb[4];
 3039              		.loc 1 693 0
 3040 0014 C368     		ldr	r3, [r0, #12]
 3041              	.LVL446:
 694:.\20648_driver\invn/ml_math_func.c **** 	r23 = Rcb[5];
 3042              		.loc 1 694 0
 3043 0016 0569     		ldr	r5, [r0, #16]
 693:.\20648_driver\invn/ml_math_func.c **** 	r22 = Rcb[4];
ARM GAS  C:\Users\ADMINI~1\AppData\Local\Temp\cc85ADh7.s 			page 80


 3044              		.loc 1 693 0
 3045 0018 0393     		str	r3, [sp, #12]
 3046              	.LVL447:
 695:.\20648_driver\invn/ml_math_func.c **** 
 3047              		.loc 1 695 0
 3048 001a 4369     		ldr	r3, [r0, #20]
 3049              	.LVL448:
 701:.\20648_driver\invn/ml_math_func.c **** 	Qcb[1] = (1.f + r11 - r22 - r33) / 4.f;
 3050              		.loc 1 701 0
 3051 001c 8905     		lsl	r1, r1, #22
 695:.\20648_driver\invn/ml_math_func.c **** 
 3052              		.loc 1 695 0
 3053 001e 0493     		str	r3, [sp, #16]
 3054              	.LVL449:
 697:.\20648_driver\invn/ml_math_func.c **** 	r32 = Rcb[7];
 3055              		.loc 1 697 0
 3056 0020 8369     		ldr	r3, [r0, #24]
 3057              	.LVL450:
 3058 0022 0593     		str	r3, [sp, #20]
 3059              	.LVL451:
 698:.\20648_driver\invn/ml_math_func.c **** 	r33 = Rcb[8];
 3060              		.loc 1 698 0
 3061 0024 C369     		ldr	r3, [r0, #28]
 3062              	.LVL452:
 701:.\20648_driver\invn/ml_math_func.c **** 	Qcb[1] = (1.f + r11 - r22 - r33) / 4.f;
 3063              		.loc 1 701 0
 3064 0026 301C     		add	r0, r6, #0
 3065              	.LVL453:
 698:.\20648_driver\invn/ml_math_func.c **** 	r33 = Rcb[8];
 3066              		.loc 1 698 0
 3067 0028 0693     		str	r3, [sp, #24]
 3068              	.LVL454:
 701:.\20648_driver\invn/ml_math_func.c **** 	Qcb[1] = (1.f + r11 - r22 - r33) / 4.f;
 3069              		.loc 1 701 0
 3070 002a FFF7FEFF 		bl	__aeabi_fadd
 3071              	.LVL455:
 3072 002e 291C     		add	r1, r5, #0
 3073 0030 071C     		add	r7, r0, #0
 3074 0032 FFF7FEFF 		bl	__aeabi_fadd
 3075              	.LVL456:
 3076 0036 211C     		add	r1, r4, #0
 3077 0038 FFF7FEFF 		bl	__aeabi_fadd
 3078              	.LVL457:
 3079 003c FA21     		mov	r1, #250
 3080 003e 8905     		lsl	r1, r1, #22
 3081 0040 FFF7FEFF 		bl	__aeabi_fmul
 3082              	.LVL458:
 702:.\20648_driver\invn/ml_math_func.c **** 	Qcb[2] = (1.f - r11 + r22 - r33) / 4.f;
 3083              		.loc 1 702 0
 3084 0044 291C     		add	r1, r5, #0
 701:.\20648_driver\invn/ml_math_func.c **** 	Qcb[1] = (1.f + r11 - r22 - r33) / 4.f;
 3085              		.loc 1 701 0
 3086 0046 0890     		str	r0, [sp, #32]
 3087              	.LVL459:
 702:.\20648_driver\invn/ml_math_func.c **** 	Qcb[2] = (1.f - r11 + r22 - r33) / 4.f;
 3088              		.loc 1 702 0
 3089 0048 381C     		add	r0, r7, #0
ARM GAS  C:\Users\ADMINI~1\AppData\Local\Temp\cc85ADh7.s 			page 81


 3090              	.LVL460:
 3091 004a FFF7FEFF 		bl	__aeabi_fsub
 3092              	.LVL461:
 3093 004e 211C     		add	r1, r4, #0
 3094 0050 FFF7FEFF 		bl	__aeabi_fsub
 3095              	.LVL462:
 3096 0054 FA21     		mov	r1, #250
 3097 0056 8905     		lsl	r1, r1, #22
 3098 0058 FFF7FEFF 		bl	__aeabi_fmul
 3099              	.LVL463:
 3100 005c 071C     		add	r7, r0, #0
 3101              	.LVL464:
 703:.\20648_driver\invn/ml_math_func.c **** 	Qcb[3] = (1.f - r11 - r22 + r33) / 4.f;
 3102              		.loc 1 703 0
 3103 005e FE20     		mov	r0, #254
 3104              	.LVL465:
 3105 0060 311C     		add	r1, r6, #0
 3106 0062 8005     		lsl	r0, r0, #22
 3107 0064 FFF7FEFF 		bl	__aeabi_fsub
 3108              	.LVL466:
 3109 0068 291C     		add	r1, r5, #0
 3110 006a 0990     		str	r0, [sp, #36]
 3111 006c FFF7FEFF 		bl	__aeabi_fadd
 3112              	.LVL467:
 3113 0070 211C     		add	r1, r4, #0
 3114 0072 FFF7FEFF 		bl	__aeabi_fsub
 3115              	.LVL468:
 3116 0076 FA21     		mov	r1, #250
 3117 0078 8905     		lsl	r1, r1, #22
 3118 007a FFF7FEFF 		bl	__aeabi_fmul
 3119              	.LVL469:
 704:.\20648_driver\invn/ml_math_func.c **** 
 3120              		.loc 1 704 0
 3121 007e 291C     		add	r1, r5, #0
 703:.\20648_driver\invn/ml_math_func.c **** 	Qcb[3] = (1.f - r11 - r22 + r33) / 4.f;
 3122              		.loc 1 703 0
 3123 0080 061C     		add	r6, r0, #0
 3124              	.LVL470:
 704:.\20648_driver\invn/ml_math_func.c **** 
 3125              		.loc 1 704 0
 3126 0082 0998     		ldr	r0, [sp, #36]
 3127              	.LVL471:
 3128 0084 FFF7FEFF 		bl	__aeabi_fsub
 3129              	.LVL472:
 3130 0088 211C     		add	r1, r4, #0
 3131 008a FFF7FEFF 		bl	__aeabi_fadd
 3132              	.LVL473:
 3133 008e FA21     		mov	r1, #250
 3134 0090 8905     		lsl	r1, r1, #22
 3135 0092 FFF7FEFF 		bl	__aeabi_fmul
 3136              	.LVL474:
 706:.\20648_driver\invn/ml_math_func.c **** 	if (Qcb[1] < 0.0f) Qcb[1] = 0.0f;
 3137              		.loc 1 706 0
 3138 0096 0021     		mov	r1, #0
 704:.\20648_driver\invn/ml_math_func.c **** 
 3139              		.loc 1 704 0
 3140 0098 041C     		add	r4, r0, #0
ARM GAS  C:\Users\ADMINI~1\AppData\Local\Temp\cc85ADh7.s 			page 82


 3141              	.LVL475:
 706:.\20648_driver\invn/ml_math_func.c **** 	if (Qcb[1] < 0.0f) Qcb[1] = 0.0f;
 3142              		.loc 1 706 0
 3143 009a 0898     		ldr	r0, [sp, #32]
 3144              	.LVL476:
 3145 009c FFF7FEFF 		bl	__aeabi_fcmplt
 3146              	.LVL477:
 3147 00a0 0028     		cmp	r0, #0
 3148 00a2 01D0     		beq	.L69
 3149 00a4 0023     		mov	r3, #0
 3150 00a6 0893     		str	r3, [sp, #32]
 3151              	.LVL478:
 3152              	.L69:
 707:.\20648_driver\invn/ml_math_func.c **** 	if (Qcb[2] < 0.0f) Qcb[2] = 0.0f;
 3153              		.loc 1 707 0
 3154 00a8 381C     		add	r0, r7, #0
 3155 00aa 0021     		mov	r1, #0
 3156 00ac FFF7FEFF 		bl	__aeabi_fcmplt
 3157              	.LVL479:
 3158 00b0 0028     		cmp	r0, #0
 3159 00b2 00D0     		beq	.L71
 3160 00b4 0027     		mov	r7, #0
 3161              	.LVL480:
 3162              	.L71:
 708:.\20648_driver\invn/ml_math_func.c **** 	if (Qcb[3] < 0.0f) Qcb[3] = 0.0f;
 3163              		.loc 1 708 0
 3164 00b6 301C     		add	r0, r6, #0
 3165 00b8 0021     		mov	r1, #0
 3166 00ba FFF7FEFF 		bl	__aeabi_fcmplt
 3167              	.LVL481:
 3168 00be 0028     		cmp	r0, #0
 3169 00c0 00D0     		beq	.L73
 3170 00c2 0026     		mov	r6, #0
 3171              	.LVL482:
 3172              	.L73:
 709:.\20648_driver\invn/ml_math_func.c **** 	Qcb[0] = sqrtf(Qcb[0]);
 3173              		.loc 1 709 0
 3174 00c4 201C     		add	r0, r4, #0
 3175 00c6 0021     		mov	r1, #0
 3176 00c8 FFF7FEFF 		bl	__aeabi_fcmplt
 3177              	.LVL483:
 3178 00cc 0028     		cmp	r0, #0
 3179 00ce 00D0     		beq	.L75
 3180 00d0 0024     		mov	r4, #0
 3181              	.LVL484:
 3182              	.L75:
 710:.\20648_driver\invn/ml_math_func.c **** 	Qcb[1] = sqrtf(Qcb[1]);
 3183              		.loc 1 710 0
 3184 00d2 0898     		ldr	r0, [sp, #32]
 3185 00d4 FFF7FEFF 		bl	sqrtf
 3186              	.LVL485:
 3187 00d8 051C     		add	r5, r0, #0
 3188              	.LVL486:
 711:.\20648_driver\invn/ml_math_func.c **** 	Qcb[2] = sqrtf(Qcb[2]);
 3189              		.loc 1 711 0
 3190 00da 381C     		add	r0, r7, #0
 3191              	.LVL487:
ARM GAS  C:\Users\ADMINI~1\AppData\Local\Temp\cc85ADh7.s 			page 83


 3192 00dc FFF7FEFF 		bl	sqrtf
 3193              	.LVL488:
 3194 00e0 071C     		add	r7, r0, #0
 3195              	.LVL489:
 712:.\20648_driver\invn/ml_math_func.c **** 	Qcb[3] = sqrtf(Qcb[3]);
 3196              		.loc 1 712 0
 3197 00e2 301C     		add	r0, r6, #0
 3198              	.LVL490:
 3199 00e4 FFF7FEFF 		bl	sqrtf
 3200              	.LVL491:
 3201 00e8 061C     		add	r6, r0, #0
 3202              	.LVL492:
 713:.\20648_driver\invn/ml_math_func.c **** 
 3203              		.loc 1 713 0
 3204 00ea 201C     		add	r0, r4, #0
 3205              	.LVL493:
 3206 00ec FFF7FEFF 		bl	sqrtf
 3207              	.LVL494:
 715:.\20648_driver\invn/ml_math_func.c **** 	{
 3208              		.loc 1 715 0
 3209 00f0 391C     		add	r1, r7, #0
 713:.\20648_driver\invn/ml_math_func.c **** 
 3210              		.loc 1 713 0
 3211 00f2 041C     		add	r4, r0, #0
 3212              	.LVL495:
 715:.\20648_driver\invn/ml_math_func.c **** 	{
 3213              		.loc 1 715 0
 3214 00f4 281C     		add	r0, r5, #0
 3215              	.LVL496:
 3216 00f6 FFF7FEFF 		bl	__aeabi_fcmpge
 3217              	.LVL497:
 3218 00fa 0028     		cmp	r0, #0
 3219 00fc 26D0     		beq	.L77
 715:.\20648_driver\invn/ml_math_func.c **** 	{
 3220              		.loc 1 715 0 is_stmt 0 discriminator 1
 3221 00fe 281C     		add	r0, r5, #0
 3222 0100 311C     		add	r1, r6, #0
 3223 0102 FFF7FEFF 		bl	__aeabi_fcmpge
 3224              	.LVL498:
 3225 0106 0028     		cmp	r0, #0
 3226 0108 20D0     		beq	.L77
 715:.\20648_driver\invn/ml_math_func.c **** 	{
 3227              		.loc 1 715 0 discriminator 2
 3228 010a 281C     		add	r0, r5, #0
 3229 010c 211C     		add	r1, r4, #0
 3230 010e FFF7FEFF 		bl	__aeabi_fcmpge
 3231              	.LVL499:
 3232 0112 0028     		cmp	r0, #0
 3233 0114 1AD0     		beq	.L77
 717:.\20648_driver\invn/ml_math_func.c **** 		Qcb[2] = (r31 - r13) / (4.f*Qcb[0]);
 3234              		.loc 1 717 0 is_stmt 1
 3235 0116 8121     		mov	r1, #129
 3236 0118 281C     		add	r0, r5, #0
 3237 011a C905     		lsl	r1, r1, #23
 3238 011c FFF7FEFF 		bl	__aeabi_fmul
 3239              	.LVL500:
 3240 0120 0699     		ldr	r1, [sp, #24]
ARM GAS  C:\Users\ADMINI~1\AppData\Local\Temp\cc85ADh7.s 			page 84


 3241 0122 041C     		add	r4, r0, #0
 3242              	.LVL501:
 3243 0124 0498     		ldr	r0, [sp, #16]
 3244 0126 FFF7FEFF 		bl	__aeabi_fsub
 3245              	.LVL502:
 3246 012a 211C     		add	r1, r4, #0
 3247 012c FFF7FEFF 		bl	__aeabi_fdiv
 3248              	.LVL503:
 718:.\20648_driver\invn/ml_math_func.c **** 		Qcb[3] = (r12 - r21) / (4.f*Qcb[0]);
 3249              		.loc 1 718 0
 3250 0130 0299     		ldr	r1, [sp, #8]
 717:.\20648_driver\invn/ml_math_func.c **** 		Qcb[2] = (r31 - r13) / (4.f*Qcb[0]);
 3251              		.loc 1 717 0
 3252 0132 071C     		add	r7, r0, #0
 3253              	.LVL504:
 718:.\20648_driver\invn/ml_math_func.c **** 		Qcb[3] = (r12 - r21) / (4.f*Qcb[0]);
 3254              		.loc 1 718 0
 3255 0134 0598     		ldr	r0, [sp, #20]
 3256              	.LVL505:
 3257 0136 FFF7FEFF 		bl	__aeabi_fsub
 3258              	.LVL506:
 3259 013a 211C     		add	r1, r4, #0
 3260 013c FFF7FEFF 		bl	__aeabi_fdiv
 3261              	.LVL507:
 719:.\20648_driver\invn/ml_math_func.c **** 	}
 3262              		.loc 1 719 0
 3263 0140 0399     		ldr	r1, [sp, #12]
 718:.\20648_driver\invn/ml_math_func.c **** 		Qcb[3] = (r12 - r21) / (4.f*Qcb[0]);
 3264              		.loc 1 718 0
 3265 0142 061C     		add	r6, r0, #0
 3266              	.LVL508:
 719:.\20648_driver\invn/ml_math_func.c **** 	}
 3267              		.loc 1 719 0
 3268 0144 0198     		ldr	r0, [sp, #4]
 3269              	.LVL509:
 3270 0146 FFF7FEFF 		bl	__aeabi_fsub
 3271              	.LVL510:
 3272 014a 2BE0     		b	.L109
 3273              	.LVL511:
 3274              	.L77:
 721:.\20648_driver\invn/ml_math_func.c **** 	{
 3275              		.loc 1 721 0
 3276 014c 381C     		add	r0, r7, #0
 3277 014e 291C     		add	r1, r5, #0
 3278 0150 FFF7FEFF 		bl	__aeabi_fcmpge
 3279              	.LVL512:
 3280 0154 0028     		cmp	r0, #0
 3281 0156 2AD0     		beq	.L82
 721:.\20648_driver\invn/ml_math_func.c **** 	{
 3282              		.loc 1 721 0 is_stmt 0 discriminator 1
 3283 0158 381C     		add	r0, r7, #0
 3284 015a 311C     		add	r1, r6, #0
 3285 015c FFF7FEFF 		bl	__aeabi_fcmpge
 3286              	.LVL513:
 3287 0160 0028     		cmp	r0, #0
 3288 0162 24D0     		beq	.L82
 721:.\20648_driver\invn/ml_math_func.c **** 	{
ARM GAS  C:\Users\ADMINI~1\AppData\Local\Temp\cc85ADh7.s 			page 85


 3289              		.loc 1 721 0 discriminator 2
 3290 0164 381C     		add	r0, r7, #0
 3291 0166 211C     		add	r1, r4, #0
 3292 0168 FFF7FEFF 		bl	__aeabi_fcmpge
 3293              	.LVL514:
 3294 016c 0028     		cmp	r0, #0
 3295 016e 1ED0     		beq	.L82
 723:.\20648_driver\invn/ml_math_func.c **** 		Qcb[2] = (r12 + r21) / (4.f*Qcb[1]);
 3296              		.loc 1 723 0 is_stmt 1
 3297 0170 8121     		mov	r1, #129
 3298 0172 381C     		add	r0, r7, #0
 3299 0174 C905     		lsl	r1, r1, #23
 3300 0176 FFF7FEFF 		bl	__aeabi_fmul
 3301              	.LVL515:
 3302 017a 0699     		ldr	r1, [sp, #24]
 3303 017c 041C     		add	r4, r0, #0
 3304              	.LVL516:
 3305 017e 0498     		ldr	r0, [sp, #16]
 3306 0180 FFF7FEFF 		bl	__aeabi_fsub
 3307              	.LVL517:
 3308 0184 211C     		add	r1, r4, #0
 3309 0186 FFF7FEFF 		bl	__aeabi_fdiv
 3310              	.LVL518:
 724:.\20648_driver\invn/ml_math_func.c **** 		Qcb[3] = (r31 + r13) / (4.f*Qcb[1]);
 3311              		.loc 1 724 0
 3312 018a 0399     		ldr	r1, [sp, #12]
 723:.\20648_driver\invn/ml_math_func.c **** 		Qcb[2] = (r12 + r21) / (4.f*Qcb[1]);
 3313              		.loc 1 723 0
 3314 018c 051C     		add	r5, r0, #0
 3315              	.LVL519:
 724:.\20648_driver\invn/ml_math_func.c **** 		Qcb[3] = (r31 + r13) / (4.f*Qcb[1]);
 3316              		.loc 1 724 0
 3317 018e 0198     		ldr	r0, [sp, #4]
 3318              	.LVL520:
 3319 0190 FFF7FEFF 		bl	__aeabi_fadd
 3320              	.LVL521:
 3321 0194 211C     		add	r1, r4, #0
 3322 0196 FFF7FEFF 		bl	__aeabi_fdiv
 3323              	.LVL522:
 725:.\20648_driver\invn/ml_math_func.c **** 	}
 3324              		.loc 1 725 0
 3325 019a 0299     		ldr	r1, [sp, #8]
 724:.\20648_driver\invn/ml_math_func.c **** 		Qcb[3] = (r31 + r13) / (4.f*Qcb[1]);
 3326              		.loc 1 724 0
 3327 019c 061C     		add	r6, r0, #0
 3328              	.LVL523:
 725:.\20648_driver\invn/ml_math_func.c **** 	}
 3329              		.loc 1 725 0
 3330 019e 0598     		ldr	r0, [sp, #20]
 3331              	.LVL524:
 3332              	.L110:
 3333 01a0 FFF7FEFF 		bl	__aeabi_fadd
 3334              	.LVL525:
 3335              	.L109:
 3336 01a4 211C     		add	r1, r4, #0
 3337 01a6 FFF7FEFF 		bl	__aeabi_fdiv
 3338              	.LVL526:
ARM GAS  C:\Users\ADMINI~1\AppData\Local\Temp\cc85ADh7.s 			page 86


 3339 01aa 041C     		add	r4, r0, #0
 3340              	.LVL527:
 3341 01ac 5AE0     		b	.L81
 3342              	.LVL528:
 3343              	.L82:
 727:.\20648_driver\invn/ml_math_func.c **** 	{
 3344              		.loc 1 727 0
 3345 01ae 301C     		add	r0, r6, #0
 3346 01b0 291C     		add	r1, r5, #0
 3347 01b2 FFF7FEFF 		bl	__aeabi_fcmpge
 3348              	.LVL529:
 3349 01b6 0028     		cmp	r0, #0
 3350 01b8 24D0     		beq	.L86
 727:.\20648_driver\invn/ml_math_func.c **** 	{
 3351              		.loc 1 727 0 is_stmt 0 discriminator 1
 3352 01ba 301C     		add	r0, r6, #0
 3353 01bc 391C     		add	r1, r7, #0
 3354 01be FFF7FEFF 		bl	__aeabi_fcmpge
 3355              	.LVL530:
 3356 01c2 0028     		cmp	r0, #0
 3357 01c4 1ED0     		beq	.L86
 727:.\20648_driver\invn/ml_math_func.c **** 	{
 3358              		.loc 1 727 0 discriminator 2
 3359 01c6 301C     		add	r0, r6, #0
 3360 01c8 211C     		add	r1, r4, #0
 3361 01ca FFF7FEFF 		bl	__aeabi_fcmpge
 3362              	.LVL531:
 3363 01ce 0028     		cmp	r0, #0
 3364 01d0 18D0     		beq	.L86
 729:.\20648_driver\invn/ml_math_func.c **** 		Qcb[1] = (r12 + r21) / (4.f*Qcb[2]);
 3365              		.loc 1 729 0 is_stmt 1
 3366 01d2 8121     		mov	r1, #129
 3367 01d4 301C     		add	r0, r6, #0
 3368 01d6 C905     		lsl	r1, r1, #23
 3369 01d8 FFF7FEFF 		bl	__aeabi_fmul
 3370              	.LVL532:
 3371 01dc 0299     		ldr	r1, [sp, #8]
 3372 01de 041C     		add	r4, r0, #0
 3373              	.LVL533:
 3374 01e0 0598     		ldr	r0, [sp, #20]
 3375 01e2 FFF7FEFF 		bl	__aeabi_fsub
 3376              	.LVL534:
 3377 01e6 211C     		add	r1, r4, #0
 3378 01e8 FFF7FEFF 		bl	__aeabi_fdiv
 3379              	.LVL535:
 730:.\20648_driver\invn/ml_math_func.c **** 		Qcb[3] = (r23 + r32) / (4.f*Qcb[2]);
 3380              		.loc 1 730 0
 3381 01ec 0399     		ldr	r1, [sp, #12]
 729:.\20648_driver\invn/ml_math_func.c **** 		Qcb[1] = (r12 + r21) / (4.f*Qcb[2]);
 3382              		.loc 1 729 0
 3383 01ee 051C     		add	r5, r0, #0
 3384              	.LVL536:
 730:.\20648_driver\invn/ml_math_func.c **** 		Qcb[3] = (r23 + r32) / (4.f*Qcb[2]);
 3385              		.loc 1 730 0
 3386 01f0 0198     		ldr	r0, [sp, #4]
 3387              	.LVL537:
 3388 01f2 FFF7FEFF 		bl	__aeabi_fadd
ARM GAS  C:\Users\ADMINI~1\AppData\Local\Temp\cc85ADh7.s 			page 87


 3389              	.LVL538:
 3390 01f6 211C     		add	r1, r4, #0
 3391 01f8 FFF7FEFF 		bl	__aeabi_fdiv
 3392              	.LVL539:
 731:.\20648_driver\invn/ml_math_func.c **** 	}
 3393              		.loc 1 731 0
 3394 01fc 0699     		ldr	r1, [sp, #24]
 730:.\20648_driver\invn/ml_math_func.c **** 		Qcb[3] = (r23 + r32) / (4.f*Qcb[2]);
 3395              		.loc 1 730 0
 3396 01fe 071C     		add	r7, r0, #0
 3397              	.LVL540:
 731:.\20648_driver\invn/ml_math_func.c **** 	}
 3398              		.loc 1 731 0
 3399 0200 0498     		ldr	r0, [sp, #16]
 3400              	.LVL541:
 3401 0202 CDE7     		b	.L110
 3402              	.LVL542:
 3403              	.L86:
 733:.\20648_driver\invn/ml_math_func.c **** 	{
 3404              		.loc 1 733 0
 3405 0204 201C     		add	r0, r4, #0
 3406 0206 291C     		add	r1, r5, #0
 3407 0208 FFF7FEFF 		bl	__aeabi_fcmpge
 3408              	.LVL543:
 3409 020c 0028     		cmp	r0, #0
 3410 020e 29D0     		beq	.L81
 733:.\20648_driver\invn/ml_math_func.c **** 	{
 3411              		.loc 1 733 0 is_stmt 0 discriminator 1
 3412 0210 201C     		add	r0, r4, #0
 3413 0212 391C     		add	r1, r7, #0
 3414 0214 FFF7FEFF 		bl	__aeabi_fcmpge
 3415              	.LVL544:
 3416 0218 0028     		cmp	r0, #0
 3417 021a 23D0     		beq	.L81
 733:.\20648_driver\invn/ml_math_func.c **** 	{
 3418              		.loc 1 733 0 discriminator 2
 3419 021c 201C     		add	r0, r4, #0
 3420 021e 311C     		add	r1, r6, #0
 3421 0220 FFF7FEFF 		bl	__aeabi_fcmpge
 3422              	.LVL545:
 3423 0224 0028     		cmp	r0, #0
 3424 0226 1DD0     		beq	.L81
 735:.\20648_driver\invn/ml_math_func.c **** 		Qcb[1] = (r31 + r13) / (4.f*Qcb[3]);
 3425              		.loc 1 735 0 is_stmt 1
 3426 0228 8121     		mov	r1, #129
 3427 022a 201C     		add	r0, r4, #0
 3428 022c C905     		lsl	r1, r1, #23
 3429 022e FFF7FEFF 		bl	__aeabi_fmul
 3430              	.LVL546:
 3431 0232 0399     		ldr	r1, [sp, #12]
 3432 0234 061C     		add	r6, r0, #0
 3433              	.LVL547:
 3434 0236 0198     		ldr	r0, [sp, #4]
 3435 0238 FFF7FEFF 		bl	__aeabi_fsub
 3436              	.LVL548:
 3437 023c 311C     		add	r1, r6, #0
 3438 023e FFF7FEFF 		bl	__aeabi_fdiv
ARM GAS  C:\Users\ADMINI~1\AppData\Local\Temp\cc85ADh7.s 			page 88


 3439              	.LVL549:
 736:.\20648_driver\invn/ml_math_func.c **** 		Qcb[2] = (r23 + r32) / (4.f*Qcb[3]);
 3440              		.loc 1 736 0
 3441 0242 0299     		ldr	r1, [sp, #8]
 735:.\20648_driver\invn/ml_math_func.c **** 		Qcb[1] = (r31 + r13) / (4.f*Qcb[3]);
 3442              		.loc 1 735 0
 3443 0244 051C     		add	r5, r0, #0
 3444              	.LVL550:
 736:.\20648_driver\invn/ml_math_func.c **** 		Qcb[2] = (r23 + r32) / (4.f*Qcb[3]);
 3445              		.loc 1 736 0
 3446 0246 0598     		ldr	r0, [sp, #20]
 3447              	.LVL551:
 3448 0248 FFF7FEFF 		bl	__aeabi_fadd
 3449              	.LVL552:
 3450 024c 311C     		add	r1, r6, #0
 3451 024e FFF7FEFF 		bl	__aeabi_fdiv
 3452              	.LVL553:
 737:.\20648_driver\invn/ml_math_func.c **** 	}
 3453              		.loc 1 737 0
 3454 0252 0699     		ldr	r1, [sp, #24]
 736:.\20648_driver\invn/ml_math_func.c **** 		Qcb[2] = (r23 + r32) / (4.f*Qcb[3]);
 3455              		.loc 1 736 0
 3456 0254 071C     		add	r7, r0, #0
 3457              	.LVL554:
 737:.\20648_driver\invn/ml_math_func.c **** 	}
 3458              		.loc 1 737 0
 3459 0256 0498     		ldr	r0, [sp, #16]
 3460              	.LVL555:
 3461 0258 FFF7FEFF 		bl	__aeabi_fadd
 3462              	.LVL556:
 3463 025c 311C     		add	r1, r6, #0
 3464 025e FFF7FEFF 		bl	__aeabi_fdiv
 3465              	.LVL557:
 3466 0262 061C     		add	r6, r0, #0
 3467              	.LVL558:
 3468              	.L81:
 744:.\20648_driver\invn/ml_math_func.c **** 	Qcb_fp[1] = (long)(Qcb[1] * 1073741824.0f);
 3469              		.loc 1 744 0
 3470 0264 9D21     		mov	r1, #157
 3471 0266 281C     		add	r0, r5, #0
 3472 0268 C905     		lsl	r1, r1, #23
 3473 026a FFF7FEFF 		bl	__aeabi_fmul
 3474              	.LVL559:
 3475 026e FFF7FEFF 		bl	__aeabi_f2iz
 3476              	.LVL560:
 745:.\20648_driver\invn/ml_math_func.c **** 	Qcb_fp[2] = (long)(Qcb[2] * 1073741824.0f);
 3477              		.loc 1 745 0
 3478 0272 9D21     		mov	r1, #157
 744:.\20648_driver\invn/ml_math_func.c **** 	Qcb_fp[1] = (long)(Qcb[1] * 1073741824.0f);
 3479              		.loc 1 744 0
 3480 0274 079B     		ldr	r3, [sp, #28]
 745:.\20648_driver\invn/ml_math_func.c **** 	Qcb_fp[2] = (long)(Qcb[2] * 1073741824.0f);
 3481              		.loc 1 745 0
 3482 0276 C905     		lsl	r1, r1, #23
 744:.\20648_driver\invn/ml_math_func.c **** 	Qcb_fp[1] = (long)(Qcb[1] * 1073741824.0f);
 3483              		.loc 1 744 0
 3484 0278 1860     		str	r0, [r3]
ARM GAS  C:\Users\ADMINI~1\AppData\Local\Temp\cc85ADh7.s 			page 89


 745:.\20648_driver\invn/ml_math_func.c **** 	Qcb_fp[2] = (long)(Qcb[2] * 1073741824.0f);
 3485              		.loc 1 745 0
 3486 027a 381C     		add	r0, r7, #0
 3487 027c FFF7FEFF 		bl	__aeabi_fmul
 3488              	.LVL561:
 3489 0280 FFF7FEFF 		bl	__aeabi_f2iz
 3490              	.LVL562:
 746:.\20648_driver\invn/ml_math_func.c **** 	Qcb_fp[3] = (long)(Qcb[3] * 1073741824.0f);
 3491              		.loc 1 746 0
 3492 0284 9D21     		mov	r1, #157
 745:.\20648_driver\invn/ml_math_func.c **** 	Qcb_fp[2] = (long)(Qcb[2] * 1073741824.0f);
 3493              		.loc 1 745 0
 3494 0286 079B     		ldr	r3, [sp, #28]
 746:.\20648_driver\invn/ml_math_func.c **** 	Qcb_fp[3] = (long)(Qcb[3] * 1073741824.0f);
 3495              		.loc 1 746 0
 3496 0288 C905     		lsl	r1, r1, #23
 745:.\20648_driver\invn/ml_math_func.c **** 	Qcb_fp[2] = (long)(Qcb[2] * 1073741824.0f);
 3497              		.loc 1 745 0
 3498 028a 5860     		str	r0, [r3, #4]
 746:.\20648_driver\invn/ml_math_func.c **** 	Qcb_fp[3] = (long)(Qcb[3] * 1073741824.0f);
 3499              		.loc 1 746 0
 3500 028c 301C     		add	r0, r6, #0
 3501 028e FFF7FEFF 		bl	__aeabi_fmul
 3502              	.LVL563:
 3503 0292 FFF7FEFF 		bl	__aeabi_f2iz
 3504              	.LVL564:
 747:.\20648_driver\invn/ml_math_func.c **** }
 3505              		.loc 1 747 0
 3506 0296 9D21     		mov	r1, #157
 746:.\20648_driver\invn/ml_math_func.c **** 	Qcb_fp[3] = (long)(Qcb[3] * 1073741824.0f);
 3507              		.loc 1 746 0
 3508 0298 079B     		ldr	r3, [sp, #28]
 747:.\20648_driver\invn/ml_math_func.c **** }
 3509              		.loc 1 747 0
 3510 029a C905     		lsl	r1, r1, #23
 746:.\20648_driver\invn/ml_math_func.c **** 	Qcb_fp[3] = (long)(Qcb[3] * 1073741824.0f);
 3511              		.loc 1 746 0
 3512 029c 9860     		str	r0, [r3, #8]
 747:.\20648_driver\invn/ml_math_func.c **** }
 3513              		.loc 1 747 0
 3514 029e 201C     		add	r0, r4, #0
 3515 02a0 FFF7FEFF 		bl	__aeabi_fmul
 3516              	.LVL565:
 3517 02a4 FFF7FEFF 		bl	__aeabi_f2iz
 3518              	.LVL566:
 3519 02a8 079B     		ldr	r3, [sp, #28]
 3520 02aa D860     		str	r0, [r3, #12]
 748:.\20648_driver\invn/ml_math_func.c **** 
 3521              		.loc 1 748 0
 3522 02ac 0BB0     		add	sp, sp, #44
 3523              		@ sp needed
 3524              	.LVL567:
 3525              	.LVL568:
 3526              	.LVL569:
 3527              	.LVL570:
 3528 02ae F0BD     		pop	{r4, r5, r6, r7, pc}
 3529              		.cfi_endproc
ARM GAS  C:\Users\ADMINI~1\AppData\Local\Temp\cc85ADh7.s 			page 90


 3530              	.LFE29:
 3531              		.size	inv_rotation_to_quaternion, .-inv_rotation_to_quaternion
 3532              		.section	.text.inv_triad,"ax",%progbits
 3533              		.align	1
 3534              		.global	inv_triad
 3535              		.code	16
 3536              		.thumb_func
 3537              		.type	inv_triad, %function
 3538              	inv_triad:
 3539              	.LFB26:
 442:.\20648_driver\invn/ml_math_func.c **** 	float acc[3], an, mag[3], mn, X[3], Xn, Y[3], Z[3], O_BI[9];
 3540              		.loc 1 442 0
 3541              		.cfi_startproc
 3542              	.LVL571:
 3543 0000 F0B5     		push	{r4, r5, r6, r7, lr}
 3544              		.cfi_def_cfa_offset 20
 3545              		.cfi_offset 4, -20
 3546              		.cfi_offset 5, -16
 3547              		.cfi_offset 6, -12
 3548              		.cfi_offset 7, -8
 3549              		.cfi_offset 14, -4
 3550 0002 91B0     		sub	sp, sp, #68
 3551              		.cfi_def_cfa_offset 88
 442:.\20648_driver\invn/ml_math_func.c **** 	float acc[3], an, mag[3], mn, X[3], Xn, Y[3], Z[3], O_BI[9];
 3552              		.loc 1 442 0
 3553 0004 0593     		str	r3, [sp, #20]
 445:.\20648_driver\invn/ml_math_func.c **** 	acc[1] = (float)accel_body[1] / ((float)(1 << (14 + accel_fs)));
 3554              		.loc 1 445 0
 3555 0006 0123     		mov	r3, #1
 3556              	.LVL572:
 3557 0008 0E32     		add	r2, r2, #14
 3558              	.LVL573:
 3559 000a 9340     		lsl	r3, r3, r2
 442:.\20648_driver\invn/ml_math_func.c **** 	float acc[3], an, mag[3], mn, X[3], Xn, Y[3], Z[3], O_BI[9];
 3560              		.loc 1 442 0
 3561 000c 071C     		mov	r7, r0
 445:.\20648_driver\invn/ml_math_func.c **** 	acc[1] = (float)accel_body[1] / ((float)(1 << (14 + accel_fs)));
 3562              		.loc 1 445 0
 3563 000e 181C     		mov	r0, r3
 3564              	.LVL574:
 442:.\20648_driver\invn/ml_math_func.c **** 	float acc[3], an, mag[3], mn, X[3], Xn, Y[3], Z[3], O_BI[9];
 3565              		.loc 1 442 0
 3566 0010 0D1C     		mov	r5, r1
 445:.\20648_driver\invn/ml_math_func.c **** 	acc[1] = (float)accel_body[1] / ((float)(1 << (14 + accel_fs)));
 3567              		.loc 1 445 0
 3568 0012 FFF7FEFF 		bl	__aeabi_i2f
 3569              	.LVL575:
 3570 0016 061C     		add	r6, r0, #0
 3571 0018 3868     		ldr	r0, [r7]
 3572 001a FFF7FEFF 		bl	__aeabi_i2f
 3573              	.LVL576:
 3574 001e 311C     		add	r1, r6, #0
 3575 0020 FFF7FEFF 		bl	__aeabi_fdiv
 3576              	.LVL577:
 3577 0024 041C     		add	r4, r0, #0
 3578              	.LVL578:
 446:.\20648_driver\invn/ml_math_func.c **** 	acc[2] = (float)accel_body[2] / ((float)(1 << (14 + accel_fs)));
ARM GAS  C:\Users\ADMINI~1\AppData\Local\Temp\cc85ADh7.s 			page 91


 3579              		.loc 1 446 0
 3580 0026 7868     		ldr	r0, [r7, #4]
 3581              	.LVL579:
 3582 0028 FFF7FEFF 		bl	__aeabi_i2f
 3583              	.LVL580:
 3584 002c 311C     		add	r1, r6, #0
 3585 002e FFF7FEFF 		bl	__aeabi_fdiv
 3586              	.LVL581:
 3587 0032 0190     		str	r0, [sp, #4]
 3588              	.LVL582:
 447:.\20648_driver\invn/ml_math_func.c **** 
 3589              		.loc 1 447 0
 3590 0034 B868     		ldr	r0, [r7, #8]
 3591              	.LVL583:
 3592 0036 FFF7FEFF 		bl	__aeabi_i2f
 3593              	.LVL584:
 3594 003a 311C     		add	r1, r6, #0
 3595 003c FFF7FEFF 		bl	__aeabi_fdiv
 3596              	.LVL585:
 3597 0040 061C     		add	r6, r0, #0
 3598              	.LVL586:
 449:.\20648_driver\invn/ml_math_func.c **** 	mag[1] = (float)compass_body[1] / ((float)(1 << 16));
 3599              		.loc 1 449 0
 3600 0042 2868     		ldr	r0, [r5]
 3601              	.LVL587:
 3602 0044 FFF7FEFF 		bl	__aeabi_i2f
 3603              	.LVL588:
 3604 0048 DE21     		mov	r1, #222
 3605 004a 8905     		lsl	r1, r1, #22
 3606 004c FFF7FEFF 		bl	__aeabi_fmul
 3607              	.LVL589:
 3608 0050 071C     		add	r7, r0, #0
 3609              	.LVL590:
 450:.\20648_driver\invn/ml_math_func.c **** 	mag[2] = (float)compass_body[2] / ((float)(1 << 16));
 3610              		.loc 1 450 0
 3611 0052 6868     		ldr	r0, [r5, #4]
 3612              	.LVL591:
 3613 0054 FFF7FEFF 		bl	__aeabi_i2f
 3614              	.LVL592:
 3615 0058 DE21     		mov	r1, #222
 3616 005a 8905     		lsl	r1, r1, #22
 3617 005c FFF7FEFF 		bl	__aeabi_fmul
 3618              	.LVL593:
 3619 0060 0390     		str	r0, [sp, #12]
 3620              	.LVL594:
 451:.\20648_driver\invn/ml_math_func.c **** 
 3621              		.loc 1 451 0
 3622 0062 A868     		ldr	r0, [r5, #8]
 3623              	.LVL595:
 3624 0064 FFF7FEFF 		bl	__aeabi_i2f
 3625              	.LVL596:
 3626 0068 DE21     		mov	r1, #222
 3627 006a 8905     		lsl	r1, r1, #22
 3628 006c FFF7FEFF 		bl	__aeabi_fmul
 3629              	.LVL597:
 454:.\20648_driver\invn/ml_math_func.c **** 	Z[0] = acc[0] / an;
 3630              		.loc 1 454 0
ARM GAS  C:\Users\ADMINI~1\AppData\Local\Temp\cc85ADh7.s 			page 92


 3631 0070 211C     		add	r1, r4, #0
 451:.\20648_driver\invn/ml_math_func.c **** 
 3632              		.loc 1 451 0
 3633 0072 0490     		str	r0, [sp, #16]
 3634              	.LVL598:
 454:.\20648_driver\invn/ml_math_func.c **** 	Z[0] = acc[0] / an;
 3635              		.loc 1 454 0
 3636 0074 201C     		add	r0, r4, #0
 3637              	.LVL599:
 3638 0076 FFF7FEFF 		bl	__aeabi_fmul
 3639              	.LVL600:
 3640 007a 051C     		add	r5, r0, #0
 3641              	.LVL601:
 3642 007c 0198     		ldr	r0, [sp, #4]
 3643 007e 011C     		add	r1, r0, #0
 3644 0080 FFF7FEFF 		bl	__aeabi_fmul
 3645              	.LVL602:
 3646 0084 011C     		add	r1, r0, #0
 3647 0086 281C     		add	r0, r5, #0
 3648 0088 FFF7FEFF 		bl	__aeabi_fadd
 3649              	.LVL603:
 3650 008c 311C     		add	r1, r6, #0
 3651 008e 051C     		add	r5, r0, #0
 3652 0090 301C     		add	r0, r6, #0
 3653 0092 FFF7FEFF 		bl	__aeabi_fmul
 3654              	.LVL604:
 3655 0096 011C     		add	r1, r0, #0
 3656 0098 281C     		add	r0, r5, #0
 3657 009a FFF7FEFF 		bl	__aeabi_fadd
 3658              	.LVL605:
 3659 009e FFF7FEFF 		bl	sqrtf
 3660              	.LVL606:
 3661 00a2 051C     		add	r5, r0, #0
 3662              	.LVL607:
 455:.\20648_driver\invn/ml_math_func.c **** 	Z[1] = acc[1] / an;
 3663              		.loc 1 455 0
 3664 00a4 291C     		add	r1, r5, #0
 3665 00a6 201C     		add	r0, r4, #0
 3666              	.LVL608:
 3667 00a8 FFF7FEFF 		bl	__aeabi_fdiv
 3668              	.LVL609:
 456:.\20648_driver\invn/ml_math_func.c **** 	Z[2] = acc[2] / an;
 3669              		.loc 1 456 0
 3670 00ac 291C     		add	r1, r5, #0
 455:.\20648_driver\invn/ml_math_func.c **** 	Z[1] = acc[1] / an;
 3671              		.loc 1 455 0
 3672 00ae 0090     		str	r0, [sp]
 3673              	.LVL610:
 456:.\20648_driver\invn/ml_math_func.c **** 	Z[2] = acc[2] / an;
 3674              		.loc 1 456 0
 3675 00b0 0198     		ldr	r0, [sp, #4]
 3676              	.LVL611:
 3677 00b2 FFF7FEFF 		bl	__aeabi_fdiv
 3678              	.LVL612:
 457:.\20648_driver\invn/ml_math_func.c **** 
 3679              		.loc 1 457 0
 3680 00b6 291C     		add	r1, r5, #0
ARM GAS  C:\Users\ADMINI~1\AppData\Local\Temp\cc85ADh7.s 			page 93


 456:.\20648_driver\invn/ml_math_func.c **** 	Z[2] = acc[2] / an;
 3681              		.loc 1 456 0
 3682 00b8 0190     		str	r0, [sp, #4]
 3683              	.LVL613:
 457:.\20648_driver\invn/ml_math_func.c **** 
 3684              		.loc 1 457 0
 3685 00ba 301C     		add	r0, r6, #0
 3686              	.LVL614:
 3687 00bc FFF7FEFF 		bl	__aeabi_fdiv
 3688              	.LVL615:
 460:.\20648_driver\invn/ml_math_func.c **** 	mag[0] = mag[0] / mn;
 3689              		.loc 1 460 0
 3690 00c0 391C     		add	r1, r7, #0
 457:.\20648_driver\invn/ml_math_func.c **** 
 3691              		.loc 1 457 0
 3692 00c2 0290     		str	r0, [sp, #8]
 3693              	.LVL616:
 460:.\20648_driver\invn/ml_math_func.c **** 	mag[0] = mag[0] / mn;
 3694              		.loc 1 460 0
 3695 00c4 381C     		add	r0, r7, #0
 3696              	.LVL617:
 3697 00c6 FFF7FEFF 		bl	__aeabi_fmul
 3698              	.LVL618:
 3699 00ca 041C     		add	r4, r0, #0
 3700              	.LVL619:
 3701 00cc 0398     		ldr	r0, [sp, #12]
 3702 00ce 011C     		add	r1, r0, #0
 3703 00d0 FFF7FEFF 		bl	__aeabi_fmul
 3704              	.LVL620:
 3705 00d4 011C     		add	r1, r0, #0
 3706 00d6 201C     		add	r0, r4, #0
 3707 00d8 FFF7FEFF 		bl	__aeabi_fadd
 3708              	.LVL621:
 3709 00dc 041C     		add	r4, r0, #0
 3710 00de 0498     		ldr	r0, [sp, #16]
 3711 00e0 011C     		add	r1, r0, #0
 3712 00e2 FFF7FEFF 		bl	__aeabi_fmul
 3713              	.LVL622:
 3714 00e6 011C     		add	r1, r0, #0
 3715 00e8 201C     		add	r0, r4, #0
 3716 00ea FFF7FEFF 		bl	__aeabi_fadd
 3717              	.LVL623:
 3718 00ee FFF7FEFF 		bl	sqrtf
 3719              	.LVL624:
 3720 00f2 041C     		add	r4, r0, #0
 3721              	.LVL625:
 461:.\20648_driver\invn/ml_math_func.c **** 	mag[1] = mag[1] / mn;
 3722              		.loc 1 461 0
 3723 00f4 211C     		add	r1, r4, #0
 3724 00f6 381C     		add	r0, r7, #0
 3725              	.LVL626:
 3726 00f8 FFF7FEFF 		bl	__aeabi_fdiv
 3727              	.LVL627:
 462:.\20648_driver\invn/ml_math_func.c **** 	mag[2] = mag[2] / mn;
 3728              		.loc 1 462 0
 3729 00fc 211C     		add	r1, r4, #0
 461:.\20648_driver\invn/ml_math_func.c **** 	mag[1] = mag[1] / mn;
ARM GAS  C:\Users\ADMINI~1\AppData\Local\Temp\cc85ADh7.s 			page 94


 3730              		.loc 1 461 0
 3731 00fe 051C     		add	r5, r0, #0
 3732              	.LVL628:
 462:.\20648_driver\invn/ml_math_func.c **** 	mag[2] = mag[2] / mn;
 3733              		.loc 1 462 0
 3734 0100 0398     		ldr	r0, [sp, #12]
 3735              	.LVL629:
 3736 0102 FFF7FEFF 		bl	__aeabi_fdiv
 3737              	.LVL630:
 463:.\20648_driver\invn/ml_math_func.c **** 
 3738              		.loc 1 463 0
 3739 0106 211C     		add	r1, r4, #0
 462:.\20648_driver\invn/ml_math_func.c **** 	mag[2] = mag[2] / mn;
 3740              		.loc 1 462 0
 3741 0108 061C     		add	r6, r0, #0
 3742              	.LVL631:
 463:.\20648_driver\invn/ml_math_func.c **** 
 3743              		.loc 1 463 0
 3744 010a 0498     		ldr	r0, [sp, #16]
 3745              	.LVL632:
 3746 010c FFF7FEFF 		bl	__aeabi_fdiv
 3747              	.LVL633:
 466:.\20648_driver\invn/ml_math_func.c **** 	X[1] = mag[2] * Z[0] - mag[0] * Z[2];
 3748              		.loc 1 466 0
 3749 0110 8023     		mov	r3, #128
 3750 0112 1B06     		lsl	r3, r3, #24
 3751 0114 0199     		ldr	r1, [sp, #4]
 463:.\20648_driver\invn/ml_math_func.c **** 
 3752              		.loc 1 463 0
 3753 0116 041C     		add	r4, r0, #0
 3754              	.LVL634:
 466:.\20648_driver\invn/ml_math_func.c **** 	X[1] = mag[2] * Z[0] - mag[0] * Z[2];
 3755              		.loc 1 466 0
 3756 0118 C018     		add	r0, r0, r3
 3757              	.LVL635:
 3758 011a FFF7FEFF 		bl	__aeabi_fmul
 3759              	.LVL636:
 3760 011e 0299     		ldr	r1, [sp, #8]
 3761 0120 071C     		add	r7, r0, #0
 3762 0122 301C     		add	r0, r6, #0
 3763 0124 FFF7FEFF 		bl	__aeabi_fmul
 3764              	.LVL637:
 3765 0128 011C     		add	r1, r0, #0
 3766 012a 381C     		add	r0, r7, #0
 3767 012c FFF7FEFF 		bl	__aeabi_fadd
 3768              	.LVL638:
