ARM GAS  C:\Users\ADMINI~1\AppData\Local\Temp\ccoXCRlt.s 			page 1


   1              		.cpu cortex-m0
   2              		.fpu softvfp
   3              		.eabi_attribute 20, 1
   4              		.eabi_attribute 21, 1
   5              		.eabi_attribute 23, 3
   6              		.eabi_attribute 24, 1
   7              		.eabi_attribute 25, 1
   8              		.eabi_attribute 26, 1
   9              		.eabi_attribute 30, 4
  10              		.eabi_attribute 34, 0
  11              		.eabi_attribute 18, 4
  12              		.code	16
  13              		.file	"mlmath.c"
  14              		.text
  15              	.Ltext0:
  16              		.cfi_sections	.debug_frame
  17              		.section	.text.ml_asin,"ax",%progbits
  18              		.align	1
  19              		.global	ml_asin
  20              		.code	16
  21              		.thumb_func
  22              		.type	ml_asin, %function
  23              	ml_asin:
  24              	.LFB0:
  25              		.file 1 ".\\20648_driver\\invn\\mlmath.c"
   1:.\20648_driver\invn/mlmath.c **** /*
   2:.\20648_driver\invn/mlmath.c ****  $License:
   3:.\20648_driver\invn/mlmath.c ****     Copyright (C) 2011 InvenSense Corporation, All Rights Reserved.
   4:.\20648_driver\invn/mlmath.c ****     See included License.txt for License information.
   5:.\20648_driver\invn/mlmath.c ****  $
   6:.\20648_driver\invn/mlmath.c ****  */
   7:.\20648_driver\invn/mlmath.c **** /*******************************************************************************
   8:.\20648_driver\invn/mlmath.c ****  *
   9:.\20648_driver\invn/mlmath.c ****  * $Id: mlmath.c 5629 2011-06-11 03:13:08Z mcaramello $
  10:.\20648_driver\invn/mlmath.c ****  *
  11:.\20648_driver\invn/mlmath.c ****  *******************************************************************************/
  12:.\20648_driver\invn/mlmath.c **** 
  13:.\20648_driver\invn/mlmath.c **** #include <math.h>
  14:.\20648_driver\invn/mlmath.c **** 
  15:.\20648_driver\invn/mlmath.c **** double ml_asin(double x)
  16:.\20648_driver\invn/mlmath.c **** {
  26              		.loc 1 16 0
  27              		.cfi_startproc
  28              	.LVL0:
  29 0000 08B5     		push	{r3, lr}
  30              		.cfi_def_cfa_offset 8
  31              		.cfi_offset 3, -8
  32              		.cfi_offset 14, -4
  17:.\20648_driver\invn/mlmath.c ****     return asin(x);
  33              		.loc 1 17 0
  34 0002 FFF7FEFF 		bl	asin
  35              	.LVL1:
  18:.\20648_driver\invn/mlmath.c **** }
  36              		.loc 1 18 0
  37              		@ sp needed
  38 0006 08BD     		pop	{r3, pc}
  39              		.cfi_endproc
ARM GAS  C:\Users\ADMINI~1\AppData\Local\Temp\ccoXCRlt.s 			page 2


  40              	.LFE0:
  41              		.size	ml_asin, .-ml_asin
  42              		.section	.text.ml_atan,"ax",%progbits
  43              		.align	1
  44              		.global	ml_atan
  45              		.code	16
  46              		.thumb_func
  47              		.type	ml_atan, %function
  48              	ml_atan:
  49              	.LFB1:
  19:.\20648_driver\invn/mlmath.c **** 
  20:.\20648_driver\invn/mlmath.c **** double ml_atan(double x)
  21:.\20648_driver\invn/mlmath.c **** {
  50              		.loc 1 21 0
  51              		.cfi_startproc
  52              	.LVL2:
  53 0000 08B5     		push	{r3, lr}
  54              		.cfi_def_cfa_offset 8
  55              		.cfi_offset 3, -8
  56              		.cfi_offset 14, -4
  22:.\20648_driver\invn/mlmath.c ****     return atan(x);
  57              		.loc 1 22 0
  58 0002 FFF7FEFF 		bl	atan
  59              	.LVL3:
  23:.\20648_driver\invn/mlmath.c **** }
  60              		.loc 1 23 0
  61              		@ sp needed
  62 0006 08BD     		pop	{r3, pc}
  63              		.cfi_endproc
  64              	.LFE1:
  65              		.size	ml_atan, .-ml_atan
  66              		.section	.text.ml_atan2,"ax",%progbits
  67              		.align	1
  68              		.global	ml_atan2
  69              		.code	16
  70              		.thumb_func
  71              		.type	ml_atan2, %function
  72              	ml_atan2:
  73              	.LFB2:
  24:.\20648_driver\invn/mlmath.c **** 
  25:.\20648_driver\invn/mlmath.c **** double ml_atan2(double x, double y)
  26:.\20648_driver\invn/mlmath.c **** {
  74              		.loc 1 26 0
  75              		.cfi_startproc
  76              	.LVL4:
  77 0000 08B5     		push	{r3, lr}
  78              		.cfi_def_cfa_offset 8
  79              		.cfi_offset 3, -8
  80              		.cfi_offset 14, -4
  27:.\20648_driver\invn/mlmath.c ****     return atan2(x, y);
  81              		.loc 1 27 0
  82 0002 FFF7FEFF 		bl	atan2
  83              	.LVL5:
  28:.\20648_driver\invn/mlmath.c **** }
  84              		.loc 1 28 0
  85              		@ sp needed
  86 0006 08BD     		pop	{r3, pc}
ARM GAS  C:\Users\ADMINI~1\AppData\Local\Temp\ccoXCRlt.s 			page 3


  87              		.cfi_endproc
  88              	.LFE2:
  89              		.size	ml_atan2, .-ml_atan2
  90              		.section	.text.ml_log,"ax",%progbits
  91              		.align	1
  92              		.global	ml_log
  93              		.code	16
  94              		.thumb_func
  95              		.type	ml_log, %function
  96              	ml_log:
  97              	.LFB3:
  29:.\20648_driver\invn/mlmath.c **** 
  30:.\20648_driver\invn/mlmath.c **** double ml_log(double x)
  31:.\20648_driver\invn/mlmath.c **** {
  98              		.loc 1 31 0
  99              		.cfi_startproc
 100              	.LVL6:
 101 0000 08B5     		push	{r3, lr}
 102              		.cfi_def_cfa_offset 8
 103              		.cfi_offset 3, -8
 104              		.cfi_offset 14, -4
  32:.\20648_driver\invn/mlmath.c ****     return log(x);
 105              		.loc 1 32 0
 106 0002 FFF7FEFF 		bl	log
 107              	.LVL7:
  33:.\20648_driver\invn/mlmath.c **** }
 108              		.loc 1 33 0
 109              		@ sp needed
 110 0006 08BD     		pop	{r3, pc}
 111              		.cfi_endproc
 112              	.LFE3:
 113              		.size	ml_log, .-ml_log
 114              		.section	.text.ml_sqrt,"ax",%progbits
 115              		.align	1
 116              		.global	ml_sqrt
 117              		.code	16
 118              		.thumb_func
 119              		.type	ml_sqrt, %function
 120              	ml_sqrt:
 121              	.LFB4:
  34:.\20648_driver\invn/mlmath.c **** 
  35:.\20648_driver\invn/mlmath.c **** double ml_sqrt(double x)
  36:.\20648_driver\invn/mlmath.c **** {
 122              		.loc 1 36 0
 123              		.cfi_startproc
 124              	.LVL8:
 125 0000 08B5     		push	{r3, lr}
 126              		.cfi_def_cfa_offset 8
 127              		.cfi_offset 3, -8
 128              		.cfi_offset 14, -4
  37:.\20648_driver\invn/mlmath.c ****     return sqrt(x);
 129              		.loc 1 37 0
 130 0002 FFF7FEFF 		bl	sqrt
 131              	.LVL9:
  38:.\20648_driver\invn/mlmath.c **** }
 132              		.loc 1 38 0
 133              		@ sp needed
ARM GAS  C:\Users\ADMINI~1\AppData\Local\Temp\ccoXCRlt.s 			page 4


 134 0006 08BD     		pop	{r3, pc}
 135              		.cfi_endproc
 136              	.LFE4:
 137              		.size	ml_sqrt, .-ml_sqrt
 138              		.section	.text.ml_ceil,"ax",%progbits
 139              		.align	1
 140              		.global	ml_ceil
 141              		.code	16
 142              		.thumb_func
 143              		.type	ml_ceil, %function
 144              	ml_ceil:
 145              	.LFB5:
  39:.\20648_driver\invn/mlmath.c **** 
  40:.\20648_driver\invn/mlmath.c **** double ml_ceil(double x)
  41:.\20648_driver\invn/mlmath.c **** {
 146              		.loc 1 41 0
 147              		.cfi_startproc
 148              	.LVL10:
 149 0000 08B5     		push	{r3, lr}
 150              		.cfi_def_cfa_offset 8
 151              		.cfi_offset 3, -8
 152              		.cfi_offset 14, -4
  42:.\20648_driver\invn/mlmath.c ****     return ceil(x);
 153              		.loc 1 42 0
 154 0002 FFF7FEFF 		bl	ceil
 155              	.LVL11:
  43:.\20648_driver\invn/mlmath.c **** }
 156              		.loc 1 43 0
 157              		@ sp needed
 158 0006 08BD     		pop	{r3, pc}
 159              		.cfi_endproc
 160              	.LFE5:
 161              		.size	ml_ceil, .-ml_ceil
 162              		.section	.text.ml_floor,"ax",%progbits
 163              		.align	1
 164              		.global	ml_floor
 165              		.code	16
 166              		.thumb_func
 167              		.type	ml_floor, %function
 168              	ml_floor:
 169              	.LFB6:
  44:.\20648_driver\invn/mlmath.c **** 
  45:.\20648_driver\invn/mlmath.c **** double ml_floor(double x)
  46:.\20648_driver\invn/mlmath.c **** {
 170              		.loc 1 46 0
 171              		.cfi_startproc
 172              	.LVL12:
 173 0000 08B5     		push	{r3, lr}
 174              		.cfi_def_cfa_offset 8
 175              		.cfi_offset 3, -8
 176              		.cfi_offset 14, -4
  47:.\20648_driver\invn/mlmath.c ****     return floor(x);
 177              		.loc 1 47 0
 178 0002 FFF7FEFF 		bl	floor
 179              	.LVL13:
  48:.\20648_driver\invn/mlmath.c **** }
 180              		.loc 1 48 0
ARM GAS  C:\Users\ADMINI~1\AppData\Local\Temp\ccoXCRlt.s 			page 5


 181              		@ sp needed
 182 0006 08BD     		pop	{r3, pc}
 183              		.cfi_endproc
 184              	.LFE6:
 185              		.size	ml_floor, .-ml_floor
 186              		.section	.text.ml_cos,"ax",%progbits
 187              		.align	1
 188              		.global	ml_cos
 189              		.code	16
 190              		.thumb_func
 191              		.type	ml_cos, %function
 192              	ml_cos:
 193              	.LFB7:
  49:.\20648_driver\invn/mlmath.c **** 
  50:.\20648_driver\invn/mlmath.c **** double ml_cos(double x)
  51:.\20648_driver\invn/mlmath.c **** {
 194              		.loc 1 51 0
 195              		.cfi_startproc
 196              	.LVL14:
 197 0000 08B5     		push	{r3, lr}
 198              		.cfi_def_cfa_offset 8
 199              		.cfi_offset 3, -8
 200              		.cfi_offset 14, -4
  52:.\20648_driver\invn/mlmath.c ****     return cos(x);
 201              		.loc 1 52 0
 202 0002 FFF7FEFF 		bl	cos
 203              	.LVL15:
  53:.\20648_driver\invn/mlmath.c **** }
 204              		.loc 1 53 0
 205              		@ sp needed
 206 0006 08BD     		pop	{r3, pc}
 207              		.cfi_endproc
 208              	.LFE7:
 209              		.size	ml_cos, .-ml_cos
 210              		.section	.text.ml_sin,"ax",%progbits
 211              		.align	1
 212              		.global	ml_sin
 213              		.code	16
 214              		.thumb_func
 215              		.type	ml_sin, %function
 216              	ml_sin:
 217              	.LFB8:
  54:.\20648_driver\invn/mlmath.c **** 
  55:.\20648_driver\invn/mlmath.c **** double ml_sin(double x)
  56:.\20648_driver\invn/mlmath.c **** {
 218              		.loc 1 56 0
 219              		.cfi_startproc
 220              	.LVL16:
 221 0000 08B5     		push	{r3, lr}
 222              		.cfi_def_cfa_offset 8
 223              		.cfi_offset 3, -8
 224              		.cfi_offset 14, -4
  57:.\20648_driver\invn/mlmath.c ****     return sin(x);
 225              		.loc 1 57 0
 226 0002 FFF7FEFF 		bl	sin
 227              	.LVL17:
  58:.\20648_driver\invn/mlmath.c **** }
ARM GAS  C:\Users\ADMINI~1\AppData\Local\Temp\ccoXCRlt.s 			page 6


 228              		.loc 1 58 0
 229              		@ sp needed
 230 0006 08BD     		pop	{r3, pc}
 231              		.cfi_endproc
 232              	.LFE8:
 233              		.size	ml_sin, .-ml_sin
 234              		.section	.text.ml_acos,"ax",%progbits
 235              		.align	1
 236              		.global	ml_acos
 237              		.code	16
 238              		.thumb_func
 239              		.type	ml_acos, %function
 240              	ml_acos:
 241              	.LFB9:
  59:.\20648_driver\invn/mlmath.c **** 
  60:.\20648_driver\invn/mlmath.c **** double ml_acos(double x)
  61:.\20648_driver\invn/mlmath.c **** {
 242              		.loc 1 61 0
 243              		.cfi_startproc
 244              	.LVL18:
 245 0000 08B5     		push	{r3, lr}
 246              		.cfi_def_cfa_offset 8
 247              		.cfi_offset 3, -8
 248              		.cfi_offset 14, -4
  62:.\20648_driver\invn/mlmath.c ****     return acos(x);
 249              		.loc 1 62 0
 250 0002 FFF7FEFF 		bl	acos
 251              	.LVL19:
  63:.\20648_driver\invn/mlmath.c **** }
 252              		.loc 1 63 0
 253              		@ sp needed
 254 0006 08BD     		pop	{r3, pc}
 255              		.cfi_endproc
 256              	.LFE9:
 257              		.size	ml_acos, .-ml_acos
 258              		.section	.text.ml_pow,"ax",%progbits
 259              		.align	1
 260              		.global	ml_pow
 261              		.code	16
 262              		.thumb_func
 263              		.type	ml_pow, %function
 264              	ml_pow:
 265              	.LFB10:
  64:.\20648_driver\invn/mlmath.c **** 
  65:.\20648_driver\invn/mlmath.c **** double ml_pow(double x, double y)
  66:.\20648_driver\invn/mlmath.c **** {
 266              		.loc 1 66 0
 267              		.cfi_startproc
 268              	.LVL20:
 269 0000 08B5     		push	{r3, lr}
 270              		.cfi_def_cfa_offset 8
 271              		.cfi_offset 3, -8
 272              		.cfi_offset 14, -4
  67:.\20648_driver\invn/mlmath.c ****     return pow(x, y);
 273              		.loc 1 67 0
 274 0002 FFF7FEFF 		bl	pow
 275              	.LVL21:
ARM GAS  C:\Users\ADMINI~1\AppData\Local\Temp\ccoXCRlt.s 			page 7


  68:.\20648_driver\invn/mlmath.c **** }
 276              		.loc 1 68 0
 277              		@ sp needed
 278 0006 08BD     		pop	{r3, pc}
 279              		.cfi_endproc
 280              	.LFE10:
 281              		.size	ml_pow, .-ml_pow
 282              		.text
 283              	.Letext0:
 284              		.file 2 "c:\\program files (x86)\\cypress\\psoc creator\\3.3\\psoc creator\\import\\gnu\\arm\\4.9.