ARM GAS  C:\Users\ADMINI~1\AppData\Local\Temp\ccUePPyp.s 			page 1


   1              		.cpu cortex-m0
   2              		.fpu softvfp
   3              		.eabi_attribute 20, 1
   4              		.eabi_attribute 21, 1
   5              		.eabi_attribute 23, 3
   6              		.eabi_attribute 24, 1
   7              		.eabi_attribute 25, 1
   8              		.eabi_attribute 26, 1
   9              		.eabi_attribute 30, 4
  10              		.eabi_attribute 34, 0
  11              		.eabi_attribute 18, 4
  12              		.code	16
  13              		.file	"OTAMandatory.c"
  14              		.text
  15              	.Ltext0:
  16              		.cfi_sections	.debug_frame
  17              		.section	.text.Bootloader_Start_c,"ax",%progbits
  18              		.align	1
  19              		.global	Bootloader_Start_c
  20              		.code	16
  21              		.thumb_func
  22              		.type	Bootloader_Start_c, %function
  23              	Bootloader_Start_c:
  24              	.LFB37:
  25              		.file 1 ".\\OTAMandatory.c"
   1:.\OTAMandatory.c **** /*******************************************************************************
   2:.\OTAMandatory.c **** * File Name: OTAMandatory.c
   3:.\OTAMandatory.c **** *
   4:.\OTAMandatory.c **** * Version: 1.30
   5:.\OTAMandatory.c **** *
   6:.\OTAMandatory.c **** * Description:
   7:.\OTAMandatory.c **** *  Provides an API that implement core functionality of OTA.
   8:.\OTAMandatory.c **** *
   9:.\OTAMandatory.c **** * Hardware Dependency:
  10:.\OTAMandatory.c **** *  CY8CKIT-042 BLE
  11:.\OTAMandatory.c **** *
  12:.\OTAMandatory.c **** ********************************************************************************
  13:.\OTAMandatory.c **** * Copyright 2014-2015, Cypress Semiconductor Corporation. All rights reserved.
  14:.\OTAMandatory.c **** * This software is owned by Cypress Semiconductor Corporation and is protected
  15:.\OTAMandatory.c **** * by and subject to worldwide patent and copyright laws and treaties.
  16:.\OTAMandatory.c **** * Therefore, you may use this software only as provided in the license agreement
  17:.\OTAMandatory.c **** * accompanying the software package from which you obtained this software.
  18:.\OTAMandatory.c **** * CYPRESS AND ITS SUPPLIERS MAKE NO WARRANTY OF ANY KIND, EXPRESS OR IMPLIED,
  19:.\OTAMandatory.c **** * WITH REGARD TO THIS SOFTWARE, INCLUDING, BUT NOT LIMITED TO, NONINFRINGEMENT,
  20:.\OTAMandatory.c **** * IMPLIED WARRANTIES OF MERCHANTABILITY AND FITNESS FOR A PARTICULAR PURPOSE.
  21:.\OTAMandatory.c **** *******************************************************************************/
  22:.\OTAMandatory.c **** #include <OTAMandatory.h>
  23:.\OTAMandatory.c **** #include "common.h"
  24:.\OTAMandatory.c **** 
  25:.\OTAMandatory.c **** #if defined(__ARMCC_VERSION)
  26:.\OTAMandatory.c ****     
  27:.\OTAMandatory.c **** #include <cytypes.h>
  28:.\OTAMandatory.c **** 
  29:.\OTAMandatory.c **** __attribute__ ((section(".bootloaderruntype"), zero_init))
  30:.\OTAMandatory.c **** extern volatile uint8 appType; 
  31:.\OTAMandatory.c **** __attribute__ ((section(".bootloaderruntype"), zero_init))
  32:.\OTAMandatory.c **** volatile uint32 CyReturnToBootloaddableAddress;
ARM GAS  C:\Users\ADMINI~1\AppData\Local\Temp\ccUePPyp.s 			page 2


  33:.\OTAMandatory.c **** extern void Bootloader__main(void);
  34:.\OTAMandatory.c **** void InitializeBootloaderSRAM(void);
  35:.\OTAMandatory.c **** extern int main(void);
  36:.\OTAMandatory.c **** extern int $Super$$main(void);
  37:.\OTAMandatory.c **** extern void initialize_psoc(void);
  38:.\OTAMandatory.c **** #endif /*__ARMCC_VERSION*/
  39:.\OTAMandatory.c **** 
  40:.\OTAMandatory.c **** 
  41:.\OTAMandatory.c **** #if defined(__ARMCC_VERSION)
  42:.\OTAMandatory.c ****     /*******************************************************************************
  43:.\OTAMandatory.c ****     * Following code implements re-initialization of separate RAM segment containing
  44:.\OTAMandatory.c ****     * data that is required for BLE Stack operation.
  45:.\OTAMandatory.c ****     * This code is used in case of MDK compiler.
  46:.\OTAMandatory.c ****     *******************************************************************************/
  47:.\OTAMandatory.c ****     __attribute__ ((section(".bootloaderruntype"), zero_init))
  48:.\OTAMandatory.c ****     volatile uint32 CyReturnToBootloaddableAddress;
  49:.\OTAMandatory.c ****     extern void Bootloader__main(void);
  50:.\OTAMandatory.c ****     void InitializeBootloaderSRAM(void);
  51:.\OTAMandatory.c ****     extern int main(void);
  52:.\OTAMandatory.c ****     extern int $Super$$main(void);
  53:.\OTAMandatory.c ****     extern void initialize_psoc(void);
  54:.\OTAMandatory.c **** 
  55:.\OTAMandatory.c ****     /*******************************************************************************
  56:.\OTAMandatory.c ****     * Function Name: _platform_post_lib_init()
  57:.\OTAMandatory.c ****     ********************************************************************************
  58:.\OTAMandatory.c ****     *
  59:.\OTAMandatory.c ****     * Summary:
  60:.\OTAMandatory.c ****     *   This function is called by MDK compiler startup code.
  61:.\OTAMandatory.c ****     *
  62:.\OTAMandatory.c ****     * Parameters:
  63:.\OTAMandatory.c ****     *   None
  64:.\OTAMandatory.c ****     *
  65:.\OTAMandatory.c ****     *******************************************************************************/
  66:.\OTAMandatory.c ****     void _platform_post_lib_init()
  67:.\OTAMandatory.c ****     {
  68:.\OTAMandatory.c ****         initialize_psoc();
  69:.\OTAMandatory.c ****         InitializeBootloaderSRAM();
  70:.\OTAMandatory.c ****     }
  71:.\OTAMandatory.c **** #elif defined (__GNUC__)
  72:.\OTAMandatory.c ****     /*******************************************************************************
  73:.\OTAMandatory.c ****     * Following code implements re-initialization of separate RAM segment containing
  74:.\OTAMandatory.c ****     * data that is required for BLE Stack operation.
  75:.\OTAMandatory.c ****     * This code is used in case of GCC compiler
  76:.\OTAMandatory.c ****     *******************************************************************************/
  77:.\OTAMandatory.c ****     extern void Bootloader__libc_init_array(void);
  78:.\OTAMandatory.c ****     typedef unsigned char __cy_byte_align8 __attribute ((aligned (8)));
  79:.\OTAMandatory.c ****     struct __cy_region
  80:.\OTAMandatory.c ****     {
  81:.\OTAMandatory.c ****         __cy_byte_align8 *init; /* Initial contents of this region.  */
  82:.\OTAMandatory.c ****         __cy_byte_align8 *data; /* Start address of region.  */
  83:.\OTAMandatory.c ****         size_t init_size;       /* Size of initial data.  */
  84:.\OTAMandatory.c ****         size_t zero_size;       /* Additional size to be zeroed.  */
  85:.\OTAMandatory.c ****     };
  86:.\OTAMandatory.c ****     extern const struct __cy_region Bootloader__cy_regions[];
  87:.\OTAMandatory.c ****     extern const char Bootloader__cy_region_num __attribute__((weak));
  88:.\OTAMandatory.c ****     
  89:.\OTAMandatory.c ****     
ARM GAS  C:\Users\ADMINI~1\AppData\Local\Temp\ccUePPyp.s 			page 3


  90:.\OTAMandatory.c ****     #define Bootloader__cy_region_num ((size_t)&Bootloader__cy_region_num)
  91:.\OTAMandatory.c ****     
  92:.\OTAMandatory.c **** 
  93:.\OTAMandatory.c ****     /*******************************************************************************
  94:.\OTAMandatory.c ****     * Function Name: Bootloader_Start_c()
  95:.\OTAMandatory.c ****     ********************************************************************************
  96:.\OTAMandatory.c ****     *
  97:.\OTAMandatory.c ****     * Summary:
  98:.\OTAMandatory.c ****     *   This function initializes bootloader RAM .bss section. It is required for 
  99:.\OTAMandatory.c ****     *   BLE Stack operation.
 100:.\OTAMandatory.c ****     *
 101:.\OTAMandatory.c ****     * Parameters:
 102:.\OTAMandatory.c ****     *   None
 103:.\OTAMandatory.c ****     *
 104:.\OTAMandatory.c ****     *******************************************************************************/
 105:.\OTAMandatory.c ****     void Bootloader_Start_c(void)
 106:.\OTAMandatory.c ****     {
  26              		.loc 1 106 0
  27              		.cfi_startproc
  28              	.LVL0:
  29 0000 70B5     		push	{r4, r5, r6, lr}
  30              		.cfi_def_cfa_offset 16
  31              		.cfi_offset 4, -16
  32              		.cfi_offset 5, -12
  33              		.cfi_offset 6, -8
  34              		.cfi_offset 14, -4
  35 0002 0E49     		ldr	r1, .L12
 107:.\OTAMandatory.c ****         unsigned regions = Bootloader__cy_region_num;
 108:.\OTAMandatory.c ****         const struct __cy_region *rptr = Bootloader__cy_regions;
  36              		.loc 1 108 0
  37 0004 0E4B     		ldr	r3, .L12+4
  38 0006 0139     		sub	r1, r1, #1
  39              	.LVL1:
  40              	.L2:
 109:.\OTAMandatory.c **** 
 110:.\OTAMandatory.c ****         /* Initialize memory */
 111:.\OTAMandatory.c ****         for (regions = Bootloader__cy_region_num; regions != 0u; regions--)
  41              		.loc 1 111 0 discriminator 1
  42 0008 4A1C     		add	r2, r1, #1
  43 000a 15D0     		beq	.L9
  44              	.LBB2:
 112:.\OTAMandatory.c ****         {
 113:.\OTAMandatory.c ****             uint32 *src = (uint32 *)rptr->init;
 114:.\OTAMandatory.c ****             uint32 *dst = (uint32 *)rptr->data;
 115:.\OTAMandatory.c ****             unsigned limit = rptr->init_size;
 116:.\OTAMandatory.c ****             unsigned count;
 117:.\OTAMandatory.c **** 
 118:.\OTAMandatory.c ****             for (count = 0u; count != limit; count += sizeof (uint32))
  45              		.loc 1 118 0
  46 000c 0022     		mov	r2, #0
 113:.\OTAMandatory.c ****             uint32 *dst = (uint32 *)rptr->data;
  47              		.loc 1 113 0
  48 000e 1E68     		ldr	r6, [r3]
  49              	.LVL2:
 114:.\OTAMandatory.c ****             unsigned limit = rptr->init_size;
  50              		.loc 1 114 0
  51 0010 5C68     		ldr	r4, [r3, #4]
ARM GAS  C:\Users\ADMINI~1\AppData\Local\Temp\ccUePPyp.s 			page 4


  52              	.LVL3:
 115:.\OTAMandatory.c ****             unsigned count;
  53              		.loc 1 115 0
  54 0012 9D68     		ldr	r5, [r3, #8]
  55              	.LVL4:
  56              	.L3:
  57 0014 A018     		add	r0, r4, r2
  58              	.LVL5:
  59              		.loc 1 118 0 discriminator 1
  60 0016 AA42     		cmp	r2, r5
  61 0018 03D0     		beq	.L10
 119:.\OTAMandatory.c ****             {
 120:.\OTAMandatory.c ****                 *dst = *src;
  62              		.loc 1 120 0 discriminator 3
  63 001a B058     		ldr	r0, [r6, r2]
  64              	.LVL6:
  65 001c A050     		str	r0, [r4, r2]
  66              	.LVL7:
 118:.\OTAMandatory.c ****             {
  67              		.loc 1 118 0 discriminator 3
  68 001e 0432     		add	r2, r2, #4
  69              	.LVL8:
  70 0020 F8E7     		b	.L3
  71              	.LVL9:
  72              	.L10:
  73 0022 021C     		mov	r2, r0
  74              	.LVL10:
 121:.\OTAMandatory.c ****                 dst++;
 122:.\OTAMandatory.c ****                 src++;
 123:.\OTAMandatory.c ****             }
 124:.\OTAMandatory.c ****             limit = rptr->zero_size;
  75              		.loc 1 124 0
  76 0024 DC68     		ldr	r4, [r3, #12]
  77              	.LVL11:
  78              	.L5:
  79 0026 151A     		sub	r5, r2, r0
  80              	.LVL12:
 125:.\OTAMandatory.c ****             for (count = 0u; count != limit; count += sizeof (uint32))
  81              		.loc 1 125 0 discriminator 1
  82 0028 A542     		cmp	r5, r4
  83 002a 02D0     		beq	.L11
 126:.\OTAMandatory.c ****             {
 127:.\OTAMandatory.c ****                 *dst = 0u;
  84              		.loc 1 127 0 discriminator 3
  85 002c 0025     		mov	r5, #0
  86              	.LVL13:
  87 002e 20C2     		stmia	r2!, {r5}
  88              	.LVL14:
  89 0030 F9E7     		b	.L5
  90              	.LVL15:
  91              	.L11:
 128:.\OTAMandatory.c ****                 dst++;
 129:.\OTAMandatory.c ****             }
 130:.\OTAMandatory.c **** 
 131:.\OTAMandatory.c ****             rptr++;
  92              		.loc 1 131 0 discriminator 2
  93 0032 1033     		add	r3, r3, #16
ARM GAS  C:\Users\ADMINI~1\AppData\Local\Temp\ccUePPyp.s 			page 5


  94              	.LVL16:
  95 0034 0139     		sub	r1, r1, #1
  96              	.LVL17:
  97 0036 E7E7     		b	.L2
  98              	.LVL18:
  99              	.L9:
 100              	.LBE2:
 132:.\OTAMandatory.c ****         }
 133:.\OTAMandatory.c **** 
 134:.\OTAMandatory.c ****         /* Invoke static objects constructors using Bootloader__libc_init_array() function call her
 135:.\OTAMandatory.c ****          * if they are needed.
 136:.\OTAMandatory.c ****          */
 137:.\OTAMandatory.c **** }   
 101              		.loc 1 137 0
 102              		@ sp needed
 103 0038 70BD     		pop	{r4, r5, r6, pc}
 104              	.L13:
 105 003a C046     		.align	2
 106              	.L12:
 107 003c 00000000 		.word	Bootloader__cy_region_num
 108 0040 00000000 		.word	Bootloader__cy_regions
 109              		.cfi_endproc
 110              	.LFE37:
 111              		.size	Bootloader_Start_c, .-Bootloader_Start_c
 112              		.section	.text.InitializeBootloaderSRAM,"ax",%progbits
 113              		.align	1
 114              		.global	InitializeBootloaderSRAM
 115              		.code	16
 116              		.thumb_func
 117              		.type	InitializeBootloaderSRAM, %function
 118              	InitializeBootloaderSRAM:
 119              	.LFB38:
 138:.\OTAMandatory.c **** #elif defined (__ICCARM__)
 139:.\OTAMandatory.c ****     /*******************************************************************************
 140:.\OTAMandatory.c ****     * Following code implements re-initialization of separate RAM segment containing
 141:.\OTAMandatory.c ****     * data that is required for BLE Stack operation.
 142:.\OTAMandatory.c ****     * This code is used in case of IAR compiler.
 143:.\OTAMandatory.c ****     *******************************************************************************/
 144:.\OTAMandatory.c ****     extern void Bootloader__iar_data_init3(void);
 145:.\OTAMandatory.c **** #endif  /* (__ARMCC_VERSION) */
 146:.\OTAMandatory.c **** 
 147:.\OTAMandatory.c **** 
 148:.\OTAMandatory.c **** /*******************************************************************************
 149:.\OTAMandatory.c **** * Function Name: Bootloader_Start_c()
 150:.\OTAMandatory.c **** ********************************************************************************
 151:.\OTAMandatory.c **** *
 152:.\OTAMandatory.c **** * Summary:
 153:.\OTAMandatory.c **** *   This function triggers initialization of bootloader RAM .bss section.
 154:.\OTAMandatory.c **** *   It is required for BLE Stack operation. This function should be called from
 155:.\OTAMandatory.c **** *   main() prior BLE component start.
 156:.\OTAMandatory.c **** *
 157:.\OTAMandatory.c **** * Parameters:
 158:.\OTAMandatory.c **** *   None
 159:.\OTAMandatory.c **** *
 160:.\OTAMandatory.c **** *******************************************************************************/
 161:.\OTAMandatory.c **** void InitializeBootloaderSRAM()
 162:.\OTAMandatory.c **** {
ARM GAS  C:\Users\ADMINI~1\AppData\Local\Temp\ccUePPyp.s 			page 6


 120              		.loc 1 162 0
 121              		.cfi_startproc
 122 0000 08B5     		push	{r3, lr}
 123              		.cfi_def_cfa_offset 8
 124              		.cfi_offset 3, -8
 125              		.cfi_offset 14, -4
 163:.\OTAMandatory.c **** #if defined(__ARMCC_VERSION)
 164:.\OTAMandatory.c ****     CyReturnToBootloaddableAddress = (uint32)$Super$$main;
 165:.\OTAMandatory.c ****     Bootloader__main();
 166:.\OTAMandatory.c **** #elif defined (__GNUC__)
 167:.\OTAMandatory.c ****     Bootloader_Start_c();
 126              		.loc 1 167 0
 127 0002 FFF7FEFF 		bl	Bootloader_Start_c
 128              	.LVL19:
 168:.\OTAMandatory.c **** #elif defined (__ICCARM__)
 169:.\OTAMandatory.c ****     Bootloader__iar_data_init3();
 170:.\OTAMandatory.c **** #endif /* defined(__ARMCC_VERSION) */
 171:.\OTAMandatory.c **** }
 129              		.loc 1 171 0
 130              		@ sp needed
 131 0006 08BD     		pop	{r3, pc}
 132              		.cfi_endproc
 133              	.LFE38:
 134              		.size	InitializeBootloaderSRAM, .-InitializeBootloaderSRAM
 135              		.section	.text.ConfigureSharedPins,"ax",%progbits
 136              		.align	1
 137              		.global	ConfigureSharedPins
 138              		.code	16
 139              		.thumb_func
 140              		.type	ConfigureSharedPins, %function
 141              	ConfigureSharedPins:
 142              	.LFB39:
 172:.\OTAMandatory.c **** 
 173:.\OTAMandatory.c **** 
 174:.\OTAMandatory.c **** /*******************************************************************************
 175:.\OTAMandatory.c **** * Function Name: ConfigureSharedPins()
 176:.\OTAMandatory.c **** ********************************************************************************
 177:.\OTAMandatory.c **** *
 178:.\OTAMandatory.c **** * Summary:
 179:.\OTAMandatory.c **** *   This function configures shared pins.
 180:.\OTAMandatory.c **** *
 181:.\OTAMandatory.c **** * Parameters:
 182:.\OTAMandatory.c **** *   None
 183:.\OTAMandatory.c **** *
 184:.\OTAMandatory.c **** *******************************************************************************/
 185:.\OTAMandatory.c **** void ConfigureSharedPins()
 186:.\OTAMandatory.c **** {
 143              		.loc 1 186 0
 144              		.cfi_startproc
 187:.\OTAMandatory.c **** //    Disconnect_LED_SetDriveMode(LED_1_DM_RES_UP);
 188:.\OTAMandatory.c **** //    Advertising_LED_SetDriveMode(LED_1_DM_RES_UP);
 189:.\OTAMandatory.c **** //    CapsLock_LED_SetDriveMode(LED_1_DM_RES_UP);
 190:.\OTAMandatory.c **** //    Disconnect_LED_Write(LED_OFF);
 191:.\OTAMandatory.c **** //    Advertising_LED_Write(LED_OFF);
 192:.\OTAMandatory.c **** //    CapsLock_LED_Write(LED_OFF);
 193:.\OTAMandatory.c **** //    Bootloader_Service_Activation_SetDriveMode(LED_1_DM_RES_UP);
 194:.\OTAMandatory.c **** //    Bootloader_Service_Activation_Write(1);
ARM GAS  C:\Users\ADMINI~1\AppData\Local\Temp\ccUePPyp.s 			page 7


 195:.\OTAMandatory.c **** }
 145              		.loc 1 195 0
 146              		@ sp needed
 147 0000 7047     		bx	lr
 148              		.cfi_endproc
 149              	.LFE39:
 150              		.size	ConfigureSharedPins, .-ConfigureSharedPins
 151              		.section	.text.BootloaderSwitch,"ax",%progbits
 152              		.align	1
 153              		.global	BootloaderSwitch
 154              		.code	16
 155              		.thumb_func
 156              		.type	BootloaderSwitch, %function
 157              	BootloaderSwitch:
 158              	.LFB40:
 196:.\OTAMandatory.c **** 
 197:.\OTAMandatory.c **** 
 198:.\OTAMandatory.c **** /*******************************************************************************
 199:.\OTAMandatory.c **** * Function Name: BootloaderSwitch()
 200:.\OTAMandatory.c **** ********************************************************************************
 201:.\OTAMandatory.c **** *
 202:.\OTAMandatory.c **** * Summary:
 203:.\OTAMandatory.c **** *   This function polls SW2 button and if it is pressed - shedules bootloader 
 204:.\OTAMandatory.c **** *   project launch. That action includes sotware reset.
 205:.\OTAMandatory.c **** *
 206:.\OTAMandatory.c **** * Parameters:
 207:.\OTAMandatory.c **** *   None
 208:.\OTAMandatory.c **** *
 209:.\OTAMandatory.c **** *******************************************************************************/
 210:.\OTAMandatory.c **** void BootloaderSwitch()
 211:.\OTAMandatory.c **** {
 159              		.loc 1 211 0
 160              		.cfi_startproc
 161 0000 10B5     		push	{r4, lr}
 162              		.cfi_def_cfa_offset 8
 163              		.cfi_offset 4, -8
 164              		.cfi_offset 14, -4
 212:.\OTAMandatory.c ****     if (Bootloader_Service_Activation_Read() == 0)
 165              		.loc 1 212 0
 166 0002 FFF7FEFF 		bl	Bootloader_Service_Activation_Read
 167              	.LVL20:
 168 0006 0028     		cmp	r0, #0
 169 0008 13D1     		bne	.L16
 213:.\OTAMandatory.c ****     {
 214:.\OTAMandatory.c ****         CyDelay(100);
 170              		.loc 1 214 0
 171 000a 6430     		add	r0, r0, #100
 172 000c FFF7FEFF 		bl	CyDelay
 173              	.LVL21:
 215:.\OTAMandatory.c ****         if (Bootloader_Service_Activation_Read() == 0)
 174              		.loc 1 215 0
 175 0010 FFF7FEFF 		bl	Bootloader_Service_Activation_Read
 176              	.LVL22:
 177 0014 041E     		sub	r4, r0, #0
 178 0016 0CD1     		bne	.L16
 216:.\OTAMandatory.c ****         {
 217:.\OTAMandatory.c **** //            DBG_PRINTF("Bootloader activation button pressed \r\n");
ARM GAS  C:\Users\ADMINI~1\AppData\Local\Temp\ccUePPyp.s 			page 8


 218:.\OTAMandatory.c **** //            DBG_PRINTF("Switching to bootloader application... \r\n");
 219:.\OTAMandatory.c ****             CyDelay(500);
 179              		.loc 1 219 0
 180 0018 FA20     		mov	r0, #250
 181 001a 4000     		lsl	r0, r0, #1
 182 001c FFF7FEFF 		bl	CyDelay
 183              	.LVL23:
 220:.\OTAMandatory.c ****             
 221:.\OTAMandatory.c ****             
 222:.\OTAMandatory.c ****             CyBle_Shutdown(); /* stop all ongoing activities */
 184              		.loc 1 222 0
 185 0020 FFF7FEFF 		bl	CyBle_Shutdown
 186              	.LVL24:
 223:.\OTAMandatory.c ****             CyBle_ProcessEvents(); /* process all pending events */
 187              		.loc 1 223 0
 188 0024 FFF7FEFF 		bl	CyBle_ProcessEvents
 189              	.LVL25:
 224:.\OTAMandatory.c ****             CyBle_SetState(CYBLE_STATE_STOPPED);
 190              		.loc 1 224 0
 191 0028 024B     		ldr	r3, .L20
 192 002a 1C70     		strb	r4, [r3]
 225:.\OTAMandatory.c ****             //CySysWdtUnlock();
 226:.\OTAMandatory.c ****             //CySysWdtDisable(WDT_COUNTER_MASK);
 227:.\OTAMandatory.c ****             CyGlobalIntDisable;
 193              		.loc 1 227 0
 194              	@ 227 ".\OTAMandatory.c" 1
 195 002c 72B6     		CPSID   i
 196              	@ 0 "" 2
 228:.\OTAMandatory.c ****             Bootloadable_Load();
 197              		.loc 1 228 0
 198              		.code	16
 199 002e FFF7FEFF 		bl	Bootloadable_Load
 200              	.LVL26:
 201              	.L16:
 229:.\OTAMandatory.c ****         }
 230:.\OTAMandatory.c ****     }
 231:.\OTAMandatory.c **** }
 202              		.loc 1 231 0
 203              		@ sp needed
 204 0032 10BD     		pop	{r4, pc}
 205              	.L21:
 206              		.align	2
 207              	.L20:
 208 0034 00000000 		.word	cyBle_state
 209              		.cfi_endproc
 210              	.LFE40:
 211              		.size	BootloaderSwitch, .-BootloaderSwitch
 212              		.section	.text.ConfigureServices,"ax",%progbits
 213              		.align	1
 214              		.global	ConfigureServices
 215              		.code	16
 216              		.thumb_func
 217              		.type	ConfigureServices, %function
 218              	ConfigureServices:
 219              	.LFB41:
 232:.\OTAMandatory.c **** 
 233:.\OTAMandatory.c **** 
ARM GAS  C:\Users\ADMINI~1\AppData\Local\Temp\ccUePPyp.s 			page 9


 234:.\OTAMandatory.c **** /*******************************************************************************
 235:.\OTAMandatory.c **** * Function Name: ConfigureServices()
 236:.\OTAMandatory.c **** ********************************************************************************
 237:.\OTAMandatory.c **** *
 238:.\OTAMandatory.c **** * Summary:
 239:.\OTAMandatory.c **** *   This function configures BLE component services to match required
 240:.\OTAMandatory.c **** *   configuration.
 241:.\OTAMandatory.c **** *
 242:.\OTAMandatory.c **** * Parameters:
 243:.\OTAMandatory.c **** *   None
 244:.\OTAMandatory.c **** *
 245:.\OTAMandatory.c **** *******************************************************************************/
 246:.\OTAMandatory.c **** void ConfigureServices()
 247:.\OTAMandatory.c **** {
 220              		.loc 1 247 0
 221              		.cfi_startproc
 248:.\OTAMandatory.c ****     //CyBle_GattsDisableAttribute(CYBLE_BTS_SERVICE_HANDLE);
 249:.\OTAMandatory.c **** 
 250:.\OTAMandatory.c **** #if defined(__ICCARM__)
 251:.\OTAMandatory.c ****     CyBle_GattsEnableAttribute(CYBLE_HID_SERVICE_HANDLE);
 252:.\OTAMandatory.c ****     CyBle_GattsEnableAttribute(CYBLE_DIS_SERVICE_HANDLE);
 253:.\OTAMandatory.c ****     CyBle_GattsEnableAttribute(CYBLE_BAS_SERVICE_HANDLE);
 254:.\OTAMandatory.c ****     CyBle_GattsEnableAttribute(CYBLE_SCPS_SERVICE_HANDLE);
 255:.\OTAMandatory.c **** #endif /* defined(__ICCARM__) */
 256:.\OTAMandatory.c **** }
 222              		.loc 1 256 0
 223              		@ sp needed
 224 0000 7047     		bx	lr
 225              		.cfi_endproc
 226              	.LFE41:
 227              		.size	ConfigureServices, .-ConfigureServices
 228              		.weak	Bootloader__cy_region_num
 229              		.text
 230              	.Letext0:
 231              		.file 2 "Generated_Source\\PSoC4/cytypes.h"
 232              		.file 3 "c:\\program files (x86)\\cypress\\psoc creator\\3.3\\psoc creator\\import\\gnu\\arm\\4.9.
 233              		.file 4 "./..\\BLE_OTA_FixedStack_Bootloader01.cydsn\\Generated_Source\\PSoC4\\cyble_eventhandler.
 234              		.file 5 "./..\\BLE_OTA_FixedStack_Bootloader01.cydsn\\Generated_Source\\PSoC4\\CyLib.h"
 235              		.file 6 "./..\\BLE_OTA_FixedStack_Bootloader01.cydsn\\Generated_Source\\PSoC4\\CyBle_Stack.h"
 236              		.file 7 "Generated_Source\\PSoC4/Bootloadable.h"