ARM GAS  C:\Users\ADMINI~1\AppData\Local\Temp\cc9LrWxG.s 			page 1


   1              		.cpu cortex-m0
   2              		.fpu softvfp
   3              		.eabi_attribute 20, 1
   4              		.eabi_attribute 21, 1
   5              		.eabi_attribute 23, 3
   6              		.eabi_attribute 24, 1
   7              		.eabi_attribute 25, 1
   8              		.eabi_attribute 26, 1
   9              		.eabi_attribute 30, 4
  10              		.eabi_attribute 34, 0
  11              		.eabi_attribute 18, 4
  12              		.code	16
  13              		.file	"timeout.c"
  14              		.text
  15              	.Ltext0:
  16              		.cfi_sections	.debug_frame
  17              		.section	.text.Timer1ms_ISR,"ax",%progbits
  18              		.align	1
  19              		.global	Timer1ms_ISR
  20              		.code	16
  21              		.thumb_func
  22              		.type	Timer1ms_ISR, %function
  23              	Timer1ms_ISR:
  24              	.LFB37:
  25              		.file 1 ".\\timeout.c"
   1:.\timeout.c   **** /* ========================================
   2:.\timeout.c   ****  *
   3:.\timeout.c   ****  * Copyright YOUR COMPANY, THE YEAR
   4:.\timeout.c   ****  * All Rights Reserved
   5:.\timeout.c   ****  * UNPUBLISHED, LICENSED SOFTWARE.
   6:.\timeout.c   ****  *
   7:.\timeout.c   ****  * CONFIDENTIAL AND PROPRIETARY INFORMATION
   8:.\timeout.c   ****  * WHICH IS THE PROPERTY OF your company.
   9:.\timeout.c   ****  *
  10:.\timeout.c   ****  * ========================================
  11:.\timeout.c   **** */
  12:.\timeout.c   **** #include <project.h>
  13:.\timeout.c   **** #include <timeout.h>
  14:.\timeout.c   **** 
  15:.\timeout.c   **** uint8 TimeoutEnableFlags = 0;
  16:.\timeout.c   **** uint8 TimeoutErrorFlags = 0;
  17:.\timeout.c   **** 
  18:.\timeout.c   **** uint8 I2CTimeoutCounter = 0;
  19:.\timeout.c   **** 
  20:.\timeout.c   **** CY_ISR(Timer1ms_ISR)
  21:.\timeout.c   **** {
  26              		.loc 1 21 0
  27              		.cfi_startproc
  22:.\timeout.c   **** 
  23:.\timeout.c   **** }
  28              		.loc 1 23 0
  29              		@ sp needed
  30 0000 7047     		bx	lr
  31              		.cfi_endproc
  32              	.LFE37:
  33              		.size	Timer1ms_ISR, .-Timer1ms_ISR
  34              		.section	.text.Timeout_Start,"ax",%progbits
ARM GAS  C:\Users\ADMINI~1\AppData\Local\Temp\cc9LrWxG.s 			page 2


  35              		.align	1
  36              		.global	Timeout_Start
  37              		.code	16
  38              		.thumb_func
  39              		.type	Timeout_Start, %function
  40              	Timeout_Start:
  41              	.LFB38:
  24:.\timeout.c   **** 
  25:.\timeout.c   **** /****************************************************************************** 
  26:.\timeout.c   **** * Function Name: Timeout_Start
  27:.\timeout.c   **** *******************************************************************************
  28:.\timeout.c   **** *
  29:.\timeout.c   **** * Summary:
  30:.\timeout.c   **** *  This function initializes the Timeout mechanism
  31:.\timeout.c   **** *  
  32:.\timeout.c   **** *
  33:.\timeout.c   **** * Parameters:  
  34:.\timeout.c   **** *  Timeout - Timeout in ms
  35:.\timeout.c   **** *
  36:.\timeout.c   **** * Return: 
  37:.\timeout.c   **** *  void
  38:.\timeout.c   **** *
  39:.\timeout.c   **** *******************************************************************************/
  40:.\timeout.c   **** void Timeout_Start(void)
  41:.\timeout.c   **** {
  42              		.loc 1 41 0
  43              		.cfi_startproc
  44 0000 08B5     		push	{r3, lr}
  45              		.cfi_def_cfa_offset 8
  46              		.cfi_offset 3, -8
  47              		.cfi_offset 14, -4
  42:.\timeout.c   **** 	Timer1ms_Start();
  48              		.loc 1 42 0
  49 0002 FFF7FEFF 		bl	Timer1ms_Start
  50              	.LVL0:
  43:.\timeout.c   **** 	isr_Timer1ms_Start();
  44:.\timeout.c   **** }
  51              		.loc 1 44 0
  52              		@ sp needed
  43:.\timeout.c   **** 	isr_Timer1ms_Start();
  53              		.loc 1 43 0
  54 0006 FFF7FEFF 		bl	isr_Timer1ms_Start
  55              	.LVL1:
  56              		.loc 1 44 0
  57 000a 08BD     		pop	{r3, pc}
  58              		.cfi_endproc
  59              	.LFE38:
  60              		.size	Timeout_Start, .-Timeout_Start
  61              		.section	.text.Timeout_Stop,"ax",%progbits
  62              		.align	1
  63              		.global	Timeout_Stop
  64              		.code	16
  65              		.thumb_func
  66              		.type	Timeout_Stop, %function
  67              	Timeout_Stop:
  68              	.LFB39:
  45:.\timeout.c   **** 
ARM GAS  C:\Users\ADMINI~1\AppData\Local\Temp\cc9LrWxG.s 			page 3


  46:.\timeout.c   **** /****************************************************************************** 
  47:.\timeout.c   **** * Function Name: Timeout_Stop
  48:.\timeout.c   **** *******************************************************************************
  49:.\timeout.c   **** *
  50:.\timeout.c   **** * Summary:
  51:.\timeout.c   **** *  This function stops the timeout mechanism
  52:.\timeout.c   **** *  
  53:.\timeout.c   **** *
  54:.\timeout.c   **** * Parameters:  
  55:.\timeout.c   **** *  void
  56:.\timeout.c   **** *
  57:.\timeout.c   **** * Return: 
  58:.\timeout.c   **** *  void
  59:.\timeout.c   **** *
  60:.\timeout.c   **** *******************************************************************************/
  61:.\timeout.c   **** void Timeout_Stop(void)
  62:.\timeout.c   **** {
  69              		.loc 1 62 0
  70              		.cfi_startproc
  71 0000 08B5     		push	{r3, lr}
  72              		.cfi_def_cfa_offset 8
  73              		.cfi_offset 3, -8
  74              		.cfi_offset 14, -4
  63:.\timeout.c   **** 	Timer1ms_Stop();
  75              		.loc 1 63 0
  76 0002 FFF7FEFF 		bl	Timer1ms_Stop
  77              	.LVL2:
  64:.\timeout.c   **** 	isr_Timer1ms_Stop();
  65:.\timeout.c   **** }
  78              		.loc 1 65 0
  79              		@ sp needed
  64:.\timeout.c   **** 	isr_Timer1ms_Stop();
  80              		.loc 1 64 0
  81 0006 FFF7FEFF 		bl	isr_Timer1ms_Stop
  82              	.LVL3:
  83              		.loc 1 65 0
  84 000a 08BD     		pop	{r3, pc}
  85              		.cfi_endproc
  86              	.LFE39:
  87              		.size	Timeout_Stop, .-Timeout_Stop
  88              		.section	.text.I2CCommTimeout_Enable,"ax",%progbits
  89              		.align	1
  90              		.global	I2CCommTimeout_Enable
  91              		.code	16
  92              		.thumb_func
  93              		.type	I2CCommTimeout_Enable, %function
  94              	I2CCommTimeout_Enable:
  95              	.LFB40:
  66:.\timeout.c   **** 
  67:.\timeout.c   **** 
  68:.\timeout.c   **** /****************************************************************************** 
  69:.\timeout.c   **** * Function Name: I2CCommTimeout_Enable
  70:.\timeout.c   **** *******************************************************************************
  71:.\timeout.c   **** *
  72:.\timeout.c   **** * Summary:
  73:.\timeout.c   **** *  Enables the timeout for the I2C communication
  74:.\timeout.c   **** *  
ARM GAS  C:\Users\ADMINI~1\AppData\Local\Temp\cc9LrWxG.s 			page 4


  75:.\timeout.c   **** *
  76:.\timeout.c   **** * Parameters:  
  77:.\timeout.c   **** *  Timeout - 8 bit timeout value in ms
  78:.\timeout.c   **** *
  79:.\timeout.c   **** * Return: 
  80:.\timeout.c   **** *  void
  81:.\timeout.c   **** *
  82:.\timeout.c   **** *******************************************************************************/
  83:.\timeout.c   **** void I2CCommTimeout_Enable(uint8 Timeout)
  84:.\timeout.c   **** {
  96              		.loc 1 84 0
  97              		.cfi_startproc
  98              	.LVL4:
  85:.\timeout.c   **** 	TimeoutEnableFlags |= I2C_TIMEOUT;
  99              		.loc 1 85 0
 100 0000 0121     		mov	r1, #1
 101 0002 034B     		ldr	r3, .L5
  86:.\timeout.c   **** 	I2CTimeoutCounter = Timeout;
  87:.\timeout.c   **** }
 102              		.loc 1 87 0
 103              		@ sp needed
  85:.\timeout.c   **** 	TimeoutEnableFlags |= I2C_TIMEOUT;
 104              		.loc 1 85 0
 105 0004 1A78     		ldrb	r2, [r3]
  86:.\timeout.c   **** 	I2CTimeoutCounter = Timeout;
 106              		.loc 1 86 0
 107 0006 5870     		strb	r0, [r3, #1]
  85:.\timeout.c   **** 	TimeoutEnableFlags |= I2C_TIMEOUT;
 108              		.loc 1 85 0
 109 0008 0A43     		orr	r2, r1
 110 000a 1A70     		strb	r2, [r3]
 111              		.loc 1 87 0
 112 000c 7047     		bx	lr
 113              	.L6:
 114 000e C046     		.align	2
 115              	.L5:
 116 0010 00000000 		.word	.LANCHOR0
 117              		.cfi_endproc
 118              	.LFE40:
 119              		.size	I2CCommTimeout_Enable, .-I2CCommTimeout_Enable
 120              		.section	.text.I2CCommTimeout_Disable,"ax",%progbits
 121              		.align	1
 122              		.global	I2CCommTimeout_Disable
 123              		.code	16
 124              		.thumb_func
 125              		.type	I2CCommTimeout_Disable, %function
 126              	I2CCommTimeout_Disable:
 127              	.LFB41:
  88:.\timeout.c   **** 
  89:.\timeout.c   **** /****************************************************************************** 
  90:.\timeout.c   **** * Function Name: I2CCommTimeout_Disable
  91:.\timeout.c   **** *******************************************************************************
  92:.\timeout.c   **** *
  93:.\timeout.c   **** * Summary:
  94:.\timeout.c   **** *  This function disables the timeout for the I2C communication
  95:.\timeout.c   **** *  
  96:.\timeout.c   **** *
ARM GAS  C:\Users\ADMINI~1\AppData\Local\Temp\cc9LrWxG.s 			page 5


  97:.\timeout.c   **** * Parameters:  
  98:.\timeout.c   **** *  void
  99:.\timeout.c   **** *
 100:.\timeout.c   **** * Return: 
 101:.\timeout.c   **** *  void
 102:.\timeout.c   **** *
 103:.\timeout.c   **** *******************************************************************************/
 104:.\timeout.c   **** void I2CCommTimeout_Disable(void)
 105:.\timeout.c   **** {
 128              		.loc 1 105 0
 129              		.cfi_startproc
 106:.\timeout.c   **** 	TimeoutEnableFlags &= ~I2C_TIMEOUT;
 130              		.loc 1 106 0
 131 0000 0121     		mov	r1, #1
 132 0002 024A     		ldr	r2, .L8
 107:.\timeout.c   **** }
 133              		.loc 1 107 0
 134              		@ sp needed
 106:.\timeout.c   **** 	TimeoutEnableFlags &= ~I2C_TIMEOUT;
 135              		.loc 1 106 0
 136 0004 1378     		ldrb	r3, [r2]
 137 0006 8B43     		bic	r3, r1
 138 0008 1370     		strb	r3, [r2]
 139              		.loc 1 107 0
 140 000a 7047     		bx	lr
 141              	.L9:
 142              		.align	2
 143              	.L8:
 144 000c 00000000 		.word	.LANCHOR0
 145              		.cfi_endproc
 146              	.LFE41:
 147              		.size	I2CCommTimeout_Disable, .-I2CCommTimeout_Disable
 148              		.section	.text.I2CCommTimeout_ClearFlag,"ax",%progbits
 149              		.align	1
 150              		.global	I2CCommTimeout_ClearFlag
 151              		.code	16
 152              		.thumb_func
 153              		.type	I2CCommTimeout_ClearFlag, %function
 154              	I2CCommTimeout_ClearFlag:
 155              	.LFB42:
 108:.\timeout.c   **** 
 109:.\timeout.c   **** /****************************************************************************** 
 110:.\timeout.c   **** * Function Name: I2CCommTimeout_ClearFlag
 111:.\timeout.c   **** *******************************************************************************
 112:.\timeout.c   **** *
 113:.\timeout.c   **** * Summary:
 114:.\timeout.c   **** *  This function clears the I2C timeout error flag
 115:.\timeout.c   **** *  
 116:.\timeout.c   **** *
 117:.\timeout.c   **** * Parameters:  
 118:.\timeout.c   **** *  void
 119:.\timeout.c   **** *
 120:.\timeout.c   **** * Return: 
 121:.\timeout.c   **** *  void
 122:.\timeout.c   **** *
 123:.\timeout.c   **** *******************************************************************************/
 124:.\timeout.c   **** void I2CCommTimeout_ClearFlag(void)
ARM GAS  C:\Users\ADMINI~1\AppData\Local\Temp\cc9LrWxG.s 			page 6


 125:.\timeout.c   **** {
 156              		.loc 1 125 0
 157              		.cfi_startproc
 126:.\timeout.c   **** 	TimeoutErrorFlags &= ~I2C_TIMEOUT;
 158              		.loc 1 126 0
 159 0000 0121     		mov	r1, #1
 160 0002 024A     		ldr	r2, .L11
 127:.\timeout.c   **** }
 161              		.loc 1 127 0
 162              		@ sp needed
 126:.\timeout.c   **** 	TimeoutErrorFlags &= ~I2C_TIMEOUT;
 163              		.loc 1 126 0
 164 0004 9378     		ldrb	r3, [r2, #2]
 165 0006 8B43     		bic	r3, r1
 166 0008 9370     		strb	r3, [r2, #2]
 167              		.loc 1 127 0
 168 000a 7047     		bx	lr
 169              	.L12:
 170              		.align	2
 171              	.L11:
 172 000c 00000000 		.word	.LANCHOR0
 173              		.cfi_endproc
 174              	.LFE42:
 175              		.size	I2CCommTimeout_ClearFlag, .-I2CCommTimeout_ClearFlag
 176              		.global	I2CTimeoutCounter
 177              		.global	TimeoutErrorFlags
 178              		.global	TimeoutEnableFlags
 179              		.bss
 180              		.set	.LANCHOR0,. + 0
 181              		.type	TimeoutEnableFlags, %object
 182              		.size	TimeoutEnableFlags, 1
 183              	TimeoutEnableFlags:
 184 0000 00       		.space	1
 185              		.type	I2CTimeoutCounter, %object
 186              		.size	I2CTimeoutCounter, 1
 187              	I2CTimeoutCounter:
 188 0001 00       		.space	1
 189              		.type	TimeoutErrorFlags, %object
 190              		.size	TimeoutErrorFlags, 1
 191              	TimeoutErrorFlags:
 192 0002 00       		.space	1
 193              		.text
 194              	.Letext0:
 195              		.file 2 "Generated_Source\\PSoC4/Timer1ms.h"
 196              		.file 3 "Generated_Source\\PSoC4/isr_Timer1ms.h"
 197              		.file 4 "Generated_Source\\PSoC4/cytypes.h"