ARM GAS  C:\Users\ADMINI~1\AppData\Local\Temp\ccXFjJyg.s 			page 1


   1              		.cpu cortex-m0
   2              		.fpu softvfp
   3              		.eabi_attribute 20, 1
   4              		.eabi_attribute 21, 1
   5              		.eabi_attribute 23, 3
   6              		.eabi_attribute 24, 1
   7              		.eabi_attribute 25, 1
   8              		.eabi_attribute 26, 1
   9              		.eabi_attribute 30, 1
  10              		.eabi_attribute 34, 0
  11              		.eabi_attribute 18, 4
  12              		.code	16
  13              		.file	"CyBle_bas.c"
  14              		.text
  15              	.Ltext0:
  16              		.cfi_sections	.debug_frame
  17              		.section	.text.CyBle_BasInit,"ax",%progbits
  18              		.align	2
  19              		.global	CyBle_BasInit
  20              		.code	16
  21              		.thumb_func
  22              		.type	CyBle_BasInit, %function
  23              	CyBle_BasInit:
  24              	.LFB2:
  25              		.file 1 ".\\Generated_Source\\PSoC4\\CyBle_bas.c"
   1:.\Generated_Source\PSoC4/CyBle_bas.c **** /***************************************************************************//**
   2:.\Generated_Source\PSoC4/CyBle_bas.c **** * \file CYBLE_bas.c
   3:.\Generated_Source\PSoC4/CyBle_bas.c **** * \version 3.10
   4:.\Generated_Source\PSoC4/CyBle_bas.c **** * 
   5:.\Generated_Source\PSoC4/CyBle_bas.c **** * \brief
   6:.\Generated_Source\PSoC4/CyBle_bas.c **** *  Contains the source code for Battery Service.
   7:.\Generated_Source\PSoC4/CyBle_bas.c **** * 
   8:.\Generated_Source\PSoC4/CyBle_bas.c **** ********************************************************************************
   9:.\Generated_Source\PSoC4/CyBle_bas.c **** * \copyright
  10:.\Generated_Source\PSoC4/CyBle_bas.c **** * Copyright 2014-2016, Cypress Semiconductor Corporation.  All rights reserved.
  11:.\Generated_Source\PSoC4/CyBle_bas.c **** * You may use this file only in accordance with the license, terms, conditions,
  12:.\Generated_Source\PSoC4/CyBle_bas.c **** * disclaimers, and limitations in the end user license agreement accompanying
  13:.\Generated_Source\PSoC4/CyBle_bas.c **** * the software package with which this file was provided.
  14:.\Generated_Source\PSoC4/CyBle_bas.c **** *******************************************************************************/
  15:.\Generated_Source\PSoC4/CyBle_bas.c **** 
  16:.\Generated_Source\PSoC4/CyBle_bas.c **** 
  17:.\Generated_Source\PSoC4/CyBle_bas.c **** #include "CyBle_eventHandler.h"
  18:.\Generated_Source\PSoC4/CyBle_bas.c **** 
  19:.\Generated_Source\PSoC4/CyBle_bas.c **** static CYBLE_CALLBACK_T CyBle_BasApplCallback = NULL;
  20:.\Generated_Source\PSoC4/CyBle_bas.c **** 
  21:.\Generated_Source\PSoC4/CyBle_bas.c **** #ifdef CYBLE_BAS_SERVER
  22:.\Generated_Source\PSoC4/CyBle_bas.c **** 
  23:.\Generated_Source\PSoC4/CyBle_bas.c **** const CYBLE_BASS_T cyBle_bass[0x01u] = {
  24:.\Generated_Source\PSoC4/CyBle_bas.c ****     {
  25:.\Generated_Source\PSoC4/CyBle_bas.c ****         0x0013u, /* Handle of the BAS service */ 
  26:.\Generated_Source\PSoC4/CyBle_bas.c ****         0x0015u, /* Handle of the Battery Level characteristic */ 
  27:.\Generated_Source\PSoC4/CyBle_bas.c ****         0x0016u, /* Handle of the Characteristic Presentation Format descriptor */ 
  28:.\Generated_Source\PSoC4/CyBle_bas.c ****         0x0017u, /* Handle of the Client Characteristic Configuration descriptor */ 
  29:.\Generated_Source\PSoC4/CyBle_bas.c ****     },
  30:.\Generated_Source\PSoC4/CyBle_bas.c **** };
  31:.\Generated_Source\PSoC4/CyBle_bas.c **** 
  32:.\Generated_Source\PSoC4/CyBle_bas.c **** 
ARM GAS  C:\Users\ADMINI~1\AppData\Local\Temp\ccXFjJyg.s 			page 2


  33:.\Generated_Source\PSoC4/CyBle_bas.c **** #endif /* CYBLE_BAS_SERVER */
  34:.\Generated_Source\PSoC4/CyBle_bas.c **** 
  35:.\Generated_Source\PSoC4/CyBle_bas.c **** #ifdef CYBLE_BAS_CLIENT
  36:.\Generated_Source\PSoC4/CyBle_bas.c **** 
  37:.\Generated_Source\PSoC4/CyBle_bas.c **** CYBLE_BASC_T cyBle_basc[CYBLE_BASC_SERVICE_COUNT];
  38:.\Generated_Source\PSoC4/CyBle_bas.c **** static CYBLE_GATT_DB_ATTR_HANDLE_T cyBle_bascReqHandle;
  39:.\Generated_Source\PSoC4/CyBle_bas.c **** 
  40:.\Generated_Source\PSoC4/CyBle_bas.c **** #endif /* (CYBLE_BAS_CLIENT) */
  41:.\Generated_Source\PSoC4/CyBle_bas.c **** 
  42:.\Generated_Source\PSoC4/CyBle_bas.c **** 
  43:.\Generated_Source\PSoC4/CyBle_bas.c **** /******************************************************************************
  44:.\Generated_Source\PSoC4/CyBle_bas.c **** * Function Name: CyBle_BasInit
  45:.\Generated_Source\PSoC4/CyBle_bas.c **** ***************************************************************************//**
  46:.\Generated_Source\PSoC4/CyBle_bas.c **** * 
  47:.\Generated_Source\PSoC4/CyBle_bas.c **** *  This function initializes the BAS Service.
  48:.\Generated_Source\PSoC4/CyBle_bas.c **** * 
  49:.\Generated_Source\PSoC4/CyBle_bas.c **** * \return
  50:.\Generated_Source\PSoC4/CyBle_bas.c **** *  None
  51:.\Generated_Source\PSoC4/CyBle_bas.c **** * 
  52:.\Generated_Source\PSoC4/CyBle_bas.c **** ******************************************************************************/
  53:.\Generated_Source\PSoC4/CyBle_bas.c **** void CyBle_BasInit(void)
  54:.\Generated_Source\PSoC4/CyBle_bas.c **** {
  26              		.loc 1 54 0
  27              		.cfi_startproc
  55:.\Generated_Source\PSoC4/CyBle_bas.c **** 
  56:.\Generated_Source\PSoC4/CyBle_bas.c **** #ifdef CYBLE_BAS_CLIENT
  57:.\Generated_Source\PSoC4/CyBle_bas.c **** 
  58:.\Generated_Source\PSoC4/CyBle_bas.c ****     uint8 locServIndex;
  59:.\Generated_Source\PSoC4/CyBle_bas.c ****     for(locServIndex = 0u; locServIndex < CYBLE_BASC_SERVICE_COUNT; locServIndex++)
  60:.\Generated_Source\PSoC4/CyBle_bas.c ****     {
  61:.\Generated_Source\PSoC4/CyBle_bas.c ****         if(cyBle_serverInfo[CYBLE_SRVI_BAS + locServIndex].range.startHandle == CYBLE_GATT_INVALID_
  62:.\Generated_Source\PSoC4/CyBle_bas.c ****         {
  63:.\Generated_Source\PSoC4/CyBle_bas.c ****             (void)memset(&cyBle_basc[locServIndex], 0, sizeof(cyBle_basc[locServIndex]));
  64:.\Generated_Source\PSoC4/CyBle_bas.c ****         }
  65:.\Generated_Source\PSoC4/CyBle_bas.c ****     }
  66:.\Generated_Source\PSoC4/CyBle_bas.c ****     cyBle_bascReqHandle = CYBLE_GATT_INVALID_ATTR_HANDLE_VALUE;
  67:.\Generated_Source\PSoC4/CyBle_bas.c **** 
  68:.\Generated_Source\PSoC4/CyBle_bas.c **** #endif /* CYBLE_BAS_CLIENT */
  69:.\Generated_Source\PSoC4/CyBle_bas.c **** }
  28              		.loc 1 69 0
  29              		@ sp needed
  30 0000 7047     		bx	lr
  31              		.cfi_endproc
  32              	.LFE2:
  33              		.size	CyBle_BasInit, .-CyBle_BasInit
  34 0002 C046     		.section	.text.CyBle_BasRegisterAttrCallback,"ax",%progbits
  35              		.align	2
  36              		.global	CyBle_BasRegisterAttrCallback
  37              		.code	16
  38              		.thumb_func
  39              		.type	CyBle_BasRegisterAttrCallback, %function
  40              	CyBle_BasRegisterAttrCallback:
  41              	.LFB3:
  70:.\Generated_Source\PSoC4/CyBle_bas.c **** 
  71:.\Generated_Source\PSoC4/CyBle_bas.c **** 
  72:.\Generated_Source\PSoC4/CyBle_bas.c **** /******************************************************************************
  73:.\Generated_Source\PSoC4/CyBle_bas.c **** * Function Name: CyBle_BasRegisterAttrCallback
ARM GAS  C:\Users\ADMINI~1\AppData\Local\Temp\ccXFjJyg.s 			page 3


  74:.\Generated_Source\PSoC4/CyBle_bas.c **** ***************************************************************************//**
  75:.\Generated_Source\PSoC4/CyBle_bas.c **** * 
  76:.\Generated_Source\PSoC4/CyBle_bas.c **** *  Registers a callback function for service specific attribute operations.
  77:.\Generated_Source\PSoC4/CyBle_bas.c **** *  Service specific write requests from peer device will not be handled with
  78:.\Generated_Source\PSoC4/CyBle_bas.c **** *  unregistered callback function.
  79:.\Generated_Source\PSoC4/CyBle_bas.c **** * 
  80:.\Generated_Source\PSoC4/CyBle_bas.c **** *  \param callbackFunc: An application layer event callback function to receive 
  81:.\Generated_Source\PSoC4/CyBle_bas.c **** *                    battery service events from the BLE Component. The
  82:.\Generated_Source\PSoC4/CyBle_bas.c **** *                    definition of CYBLE_CALLBACK_T for Battery Service is,\n                 
  83:.\Generated_Source\PSoC4/CyBle_bas.c **** *                    typedef void (* CYBLE_CALLBACK_T) (uint32 eventCode, 
  84:.\Generated_Source\PSoC4/CyBle_bas.c **** *                                                         void *eventParam)                        
  85:.\Generated_Source\PSoC4/CyBle_bas.c **** *                    * eventCode indicates the event that triggered this 
  86:.\Generated_Source\PSoC4/CyBle_bas.c **** *                       callback (e.g. CYBLE_EVT_BASS_NOTIFICATION_ENABLED)
  87:.\Generated_Source\PSoC4/CyBle_bas.c **** *                    * eventParam contains the parameters corresponding to the
  88:.\Generated_Source\PSoC4/CyBle_bas.c **** *                       current event (e.g., pointer to CYBLE_BAS_CHAR_VALUE_T
  89:.\Generated_Source\PSoC4/CyBle_bas.c **** *                       structure that contains details of the characteristic 
  90:.\Generated_Source\PSoC4/CyBle_bas.c **** *                       for which notification enabled event was triggered)
  91:.\Generated_Source\PSoC4/CyBle_bas.c **** * 
  92:.\Generated_Source\PSoC4/CyBle_bas.c **** * \return
  93:.\Generated_Source\PSoC4/CyBle_bas.c **** *  None
  94:.\Generated_Source\PSoC4/CyBle_bas.c **** *
  95:.\Generated_Source\PSoC4/CyBle_bas.c **** * \events
  96:.\Generated_Source\PSoC4/CyBle_bas.c **** *  None
  97:.\Generated_Source\PSoC4/CyBle_bas.c **** *
  98:.\Generated_Source\PSoC4/CyBle_bas.c **** * \sideeffect The *eventParams in the callback function should not be used 
  99:.\Generated_Source\PSoC4/CyBle_bas.c **** *                by the application once the callback function execution is 
 100:.\Generated_Source\PSoC4/CyBle_bas.c **** *                finished. Otherwise this data may become corrupted.
 101:.\Generated_Source\PSoC4/CyBle_bas.c **** * 
 102:.\Generated_Source\PSoC4/CyBle_bas.c **** ******************************************************************************/
 103:.\Generated_Source\PSoC4/CyBle_bas.c **** void CyBle_BasRegisterAttrCallback(CYBLE_CALLBACK_T callbackFunc)
 104:.\Generated_Source\PSoC4/CyBle_bas.c **** {
  42              		.loc 1 104 0
  43              		.cfi_startproc
  44              	.LVL0:
 105:.\Generated_Source\PSoC4/CyBle_bas.c ****     CyBle_BasApplCallback = callbackFunc;
  45              		.loc 1 105 0
  46 0000 014B     		ldr	r3, .L3
  47 0002 1860     		str	r0, [r3]
 106:.\Generated_Source\PSoC4/CyBle_bas.c **** }
  48              		.loc 1 106 0
  49              		@ sp needed
  50 0004 7047     		bx	lr
  51              	.L4:
  52 0006 C046     		.align	2
  53              	.L3:
  54 0008 00000000 		.word	.LANCHOR0
  55              		.cfi_endproc
  56              	.LFE3:
  57              		.size	CyBle_BasRegisterAttrCallback, .-CyBle_BasRegisterAttrCallback
  58              		.section	.text.CyBle_BassSetCharacteristicValue,"ax",%progbits
  59              		.align	2
  60              		.global	CyBle_BassSetCharacteristicValue
  61              		.code	16
  62              		.thumb_func
  63              		.type	CyBle_BassSetCharacteristicValue, %function
  64              	CyBle_BassSetCharacteristicValue:
  65              	.LFB4:
ARM GAS  C:\Users\ADMINI~1\AppData\Local\Temp\ccXFjJyg.s 			page 4


 107:.\Generated_Source\PSoC4/CyBle_bas.c **** 
 108:.\Generated_Source\PSoC4/CyBle_bas.c **** #ifdef CYBLE_BAS_SERVER
 109:.\Generated_Source\PSoC4/CyBle_bas.c **** 
 110:.\Generated_Source\PSoC4/CyBle_bas.c **** 
 111:.\Generated_Source\PSoC4/CyBle_bas.c **** /******************************************************************************
 112:.\Generated_Source\PSoC4/CyBle_bas.c **** * Function Name: CyBle_BassSetCharacteristicValue
 113:.\Generated_Source\PSoC4/CyBle_bas.c **** ***************************************************************************//**
 114:.\Generated_Source\PSoC4/CyBle_bas.c **** * 
 115:.\Generated_Source\PSoC4/CyBle_bas.c **** *  Sets a characteristic value of the service in the local database.
 116:.\Generated_Source\PSoC4/CyBle_bas.c **** * 
 117:.\Generated_Source\PSoC4/CyBle_bas.c **** *  \param serviceIndex: The index of the service instance.
 118:.\Generated_Source\PSoC4/CyBle_bas.c **** *  \param charIndex: The index of the service characteristic of type 
 119:.\Generated_Source\PSoC4/CyBle_bas.c **** *              CYBLE_BAS_CHAR_INDEX_T.
 120:.\Generated_Source\PSoC4/CyBle_bas.c **** *  \param attrSize: The size of the characteristic value attribute. A battery level
 121:.\Generated_Source\PSoC4/CyBle_bas.c **** *             characteristic has 1 byte length.
 122:.\Generated_Source\PSoC4/CyBle_bas.c **** *  \param attrValue: The pointer to the characteristic value data that should be
 123:.\Generated_Source\PSoC4/CyBle_bas.c **** *               stored to the GATT database.
 124:.\Generated_Source\PSoC4/CyBle_bas.c **** * 
 125:.\Generated_Source\PSoC4/CyBle_bas.c **** * \return
 126:.\Generated_Source\PSoC4/CyBle_bas.c **** *  Return value is of type CYBLE_API_RESULT_T.
 127:.\Generated_Source\PSoC4/CyBle_bas.c **** *  * CYBLE_ERROR_OK - The request handled successfully
 128:.\Generated_Source\PSoC4/CyBle_bas.c **** *  * CYBLE_ERROR_INVALID_PARAMETER - Validation of the input parameter failed
 129:.\Generated_Source\PSoC4/CyBle_bas.c **** *
 130:.\Generated_Source\PSoC4/CyBle_bas.c **** * \events
 131:.\Generated_Source\PSoC4/CyBle_bas.c **** *  None
 132:.\Generated_Source\PSoC4/CyBle_bas.c **** *
 133:.\Generated_Source\PSoC4/CyBle_bas.c **** ******************************************************************************/
 134:.\Generated_Source\PSoC4/CyBle_bas.c **** CYBLE_API_RESULT_T CyBle_BassSetCharacteristicValue(uint8 serviceIndex, CYBLE_BAS_CHAR_INDEX_T char
 135:.\Generated_Source\PSoC4/CyBle_bas.c ****     uint8 attrSize, uint8 *attrValue)
 136:.\Generated_Source\PSoC4/CyBle_bas.c **** {
  66              		.loc 1 136 0
  67              		.cfi_startproc
  68              	.LVL1:
  69 0000 00B5     		push	{lr}
  70              		.cfi_def_cfa_offset 4
  71              		.cfi_offset 14, -4
  72 0002 85B0     		sub	sp, sp, #20
  73              		.cfi_def_cfa_offset 24
  74              	.LVL2:
 137:.\Generated_Source\PSoC4/CyBle_bas.c ****     CYBLE_API_RESULT_T apiResult = CYBLE_ERROR_OK;
 138:.\Generated_Source\PSoC4/CyBle_bas.c ****     CYBLE_GATT_HANDLE_VALUE_PAIR_T locHandleValuePair;
 139:.\Generated_Source\PSoC4/CyBle_bas.c **** 
 140:.\Generated_Source\PSoC4/CyBle_bas.c ****     if((serviceIndex >= CYBLE_BASS_SERVICE_COUNT) || (charIndex >= CYBLE_BAS_CHAR_COUNT) ||
  75              		.loc 1 140 0
  76 0004 0028     		cmp	r0, #0
  77 0006 16D1     		bne	.L7
  78              		.loc 1 140 0 is_stmt 0 discriminator 1
  79 0008 0029     		cmp	r1, #0
  80 000a 16D1     		bne	.L8
  81              		.loc 1 140 0 discriminator 2
  82 000c 012A     		cmp	r2, #1
  83 000e 16D1     		bne	.L9
 141:.\Generated_Source\PSoC4/CyBle_bas.c ****        (attrSize != CYBLE_BAS_BATTERY_LEVEL_LEN) || (*attrValue > CYBLE_BAS_MAX_BATTERY_LEVEL_VALUE
  84              		.loc 1 141 0 is_stmt 1
  85 0010 1978     		ldrb	r1, [r3]
  86              	.LVL3:
  87 0012 6429     		cmp	r1, #100
ARM GAS  C:\Users\ADMINI~1\AppData\Local\Temp\ccXFjJyg.s 			page 5


  88 0014 15D8     		bhi	.L10
 142:.\Generated_Source\PSoC4/CyBle_bas.c ****     {
 143:.\Generated_Source\PSoC4/CyBle_bas.c ****         apiResult = CYBLE_ERROR_INVALID_PARAMETER;
 144:.\Generated_Source\PSoC4/CyBle_bas.c ****     }
 145:.\Generated_Source\PSoC4/CyBle_bas.c ****     else
 146:.\Generated_Source\PSoC4/CyBle_bas.c ****     {
 147:.\Generated_Source\PSoC4/CyBle_bas.c ****         /* Store data in database */
 148:.\Generated_Source\PSoC4/CyBle_bas.c ****         locHandleValuePair.attrHandle = cyBle_bass[serviceIndex].batteryLevelHandle;
  89              		.loc 1 148 0
  90 0016 C000     		lsl	r0, r0, #3
  91              	.LVL4:
  92 0018 0C49     		ldr	r1, .L12
  93 001a 0818     		add	r0, r1, r0
  94 001c 4188     		ldrh	r1, [r0, #2]
  95 001e 01A8     		add	r0, sp, #4
  96 0020 0181     		strh	r1, [r0, #8]
 149:.\Generated_Source\PSoC4/CyBle_bas.c ****         locHandleValuePair.value.len = attrSize;
  97              		.loc 1 149 0
  98 0022 8280     		strh	r2, [r0, #4]
 150:.\Generated_Source\PSoC4/CyBle_bas.c ****         locHandleValuePair.value.val = attrValue;
  99              		.loc 1 150 0
 100 0024 0193     		str	r3, [sp, #4]
 151:.\Generated_Source\PSoC4/CyBle_bas.c ****         if(CYBLE_GATT_ERR_NONE !=
 152:.\Generated_Source\PSoC4/CyBle_bas.c ****             CyBle_GattsWriteAttributeValue(&locHandleValuePair, 0u, NULL, CYBLE_GATT_DB_LOCALLY_INI
 101              		.loc 1 152 0
 102 0026 0021     		mov	r1, #0
 103 0028 0022     		mov	r2, #0
 104              	.LVL5:
 105 002a 0023     		mov	r3, #0
 106              	.LVL6:
 107 002c FFF7FEFF 		bl	CyBle_GattsWriteAttributeValue
 108              	.LVL7:
 151:.\Generated_Source\PSoC4/CyBle_bas.c ****         if(CYBLE_GATT_ERR_NONE !=
 109              		.loc 1 151 0
 110 0030 0028     		cmp	r0, #0
 111 0032 08D1     		bne	.L11
 112 0034 08E0     		b	.L6
 113              	.LVL8:
 114              	.L7:
 143:.\Generated_Source\PSoC4/CyBle_bas.c ****     }
 115              		.loc 1 143 0
 116 0036 0120     		mov	r0, #1
 117              	.LVL9:
 118 0038 06E0     		b	.L6
 119              	.LVL10:
 120              	.L8:
 121 003a 0120     		mov	r0, #1
 122              	.LVL11:
 123 003c 04E0     		b	.L6
 124              	.LVL12:
 125              	.L9:
 126 003e 0120     		mov	r0, #1
 127              	.LVL13:
 128 0040 02E0     		b	.L6
 129              	.LVL14:
 130              	.L10:
 131 0042 0120     		mov	r0, #1
ARM GAS  C:\Users\ADMINI~1\AppData\Local\Temp\ccXFjJyg.s 			page 6


 132              	.LVL15:
 133 0044 00E0     		b	.L6
 134              	.LVL16:
 135              	.L11:
 153:.\Generated_Source\PSoC4/CyBle_bas.c ****         {
 154:.\Generated_Source\PSoC4/CyBle_bas.c ****             apiResult = CYBLE_ERROR_INVALID_PARAMETER;
 136              		.loc 1 154 0
 137 0046 0120     		mov	r0, #1
 138              	.L6:
 139              	.LVL17:
 155:.\Generated_Source\PSoC4/CyBle_bas.c ****         }
 156:.\Generated_Source\PSoC4/CyBle_bas.c ****     }
 157:.\Generated_Source\PSoC4/CyBle_bas.c ****     return (apiResult);
 158:.\Generated_Source\PSoC4/CyBle_bas.c **** }
 140              		.loc 1 158 0
 141 0048 05B0     		add	sp, sp, #20
 142              		@ sp needed
 143 004a 00BD     		pop	{pc}
 144              	.L13:
 145              		.align	2
 146              	.L12:
 147 004c 00000000 		.word	.LANCHOR1
 148              		.cfi_endproc
 149              	.LFE4:
 150              		.size	CyBle_BassSetCharacteristicValue, .-CyBle_BassSetCharacteristicValue
 151              		.section	.text.CyBle_BassGetCharacteristicValue,"ax",%progbits
 152              		.align	2
 153              		.global	CyBle_BassGetCharacteristicValue
 154              		.code	16
 155              		.thumb_func
 156              		.type	CyBle_BassGetCharacteristicValue, %function
 157              	CyBle_BassGetCharacteristicValue:
 158              	.LFB5:
 159:.\Generated_Source\PSoC4/CyBle_bas.c **** 
 160:.\Generated_Source\PSoC4/CyBle_bas.c **** 
 161:.\Generated_Source\PSoC4/CyBle_bas.c **** /******************************************************************************
 162:.\Generated_Source\PSoC4/CyBle_bas.c **** * Function Name: CyBle_BassGetCharacteristicValue
 163:.\Generated_Source\PSoC4/CyBle_bas.c **** ***************************************************************************//**
 164:.\Generated_Source\PSoC4/CyBle_bas.c **** * 
 165:.\Generated_Source\PSoC4/CyBle_bas.c **** *  Gets a characteristic value of the Battery service, which is identified by 
 166:.\Generated_Source\PSoC4/CyBle_bas.c **** *  charIndex.
 167:.\Generated_Source\PSoC4/CyBle_bas.c **** * 
 168:.\Generated_Source\PSoC4/CyBle_bas.c **** *  \param serviceIndex: The index of the service instance. e.g. If two Battery Services
 169:.\Generated_Source\PSoC4/CyBle_bas.c **** *                 are supported in your design, then first service will be 
 170:.\Generated_Source\PSoC4/CyBle_bas.c **** *                 identified by serviceIndex of 0 and the second by serviceIndex
 171:.\Generated_Source\PSoC4/CyBle_bas.c **** *                 of 1.
 172:.\Generated_Source\PSoC4/CyBle_bas.c **** *  \param charIndex: The index of a service characteristic of type CYBLE_BAS_CHAR_INDEX_T.
 173:.\Generated_Source\PSoC4/CyBle_bas.c **** *  \param attrSize: The size of the characteristic value attribute. A battery level
 174:.\Generated_Source\PSoC4/CyBle_bas.c **** *             characteristic has a 1 byte length.
 175:.\Generated_Source\PSoC4/CyBle_bas.c **** *  \param attrValue: The pointer to the location where characteristic value data
 176:.\Generated_Source\PSoC4/CyBle_bas.c **** *               should be stored.
 177:.\Generated_Source\PSoC4/CyBle_bas.c **** * 
 178:.\Generated_Source\PSoC4/CyBle_bas.c **** * \return
 179:.\Generated_Source\PSoC4/CyBle_bas.c **** *  Return value is of type CYBLE_API_RESULT_T.
 180:.\Generated_Source\PSoC4/CyBle_bas.c **** *  * CYBLE_ERROR_OK - The request handled successfully
 181:.\Generated_Source\PSoC4/CyBle_bas.c **** *  * CYBLE_ERROR_INVALID_PARAMETER - Validation of the input parameter failed
 182:.\Generated_Source\PSoC4/CyBle_bas.c **** *
ARM GAS  C:\Users\ADMINI~1\AppData\Local\Temp\ccXFjJyg.s 			page 7


 183:.\Generated_Source\PSoC4/CyBle_bas.c **** * \events
 184:.\Generated_Source\PSoC4/CyBle_bas.c **** *  None
 185:.\Generated_Source\PSoC4/CyBle_bas.c **** *
 186:.\Generated_Source\PSoC4/CyBle_bas.c **** ******************************************************************************/
 187:.\Generated_Source\PSoC4/CyBle_bas.c **** CYBLE_API_RESULT_T CyBle_BassGetCharacteristicValue(uint8 serviceIndex, CYBLE_BAS_CHAR_INDEX_T char
 188:.\Generated_Source\PSoC4/CyBle_bas.c ****     uint8 attrSize, uint8 *attrValue)
 189:.\Generated_Source\PSoC4/CyBle_bas.c **** {
 159              		.loc 1 189 0
 160              		.cfi_startproc
 161              	.LVL18:
 162 0000 00B5     		push	{lr}
 163              		.cfi_def_cfa_offset 4
 164              		.cfi_offset 14, -4
 165 0002 85B0     		sub	sp, sp, #20
 166              		.cfi_def_cfa_offset 24
 167              	.LVL19:
 190:.\Generated_Source\PSoC4/CyBle_bas.c ****     CYBLE_API_RESULT_T apiResult = CYBLE_ERROR_OK;
 191:.\Generated_Source\PSoC4/CyBle_bas.c ****     CYBLE_GATT_HANDLE_VALUE_PAIR_T locHandleValuePair;
 192:.\Generated_Source\PSoC4/CyBle_bas.c **** 
 193:.\Generated_Source\PSoC4/CyBle_bas.c ****     if((serviceIndex >= CYBLE_BASS_SERVICE_COUNT) || (charIndex >= CYBLE_BAS_CHAR_COUNT) ||
 168              		.loc 1 193 0
 169 0004 0028     		cmp	r0, #0
 170 0006 12D1     		bne	.L16
 171              		.loc 1 193 0 is_stmt 0 discriminator 1
 172 0008 0029     		cmp	r1, #0
 173 000a 12D1     		bne	.L17
 174              		.loc 1 193 0 discriminator 2
 175 000c 012A     		cmp	r2, #1
 176 000e 12D1     		bne	.L18
 194:.\Generated_Source\PSoC4/CyBle_bas.c ****        (attrSize != CYBLE_BAS_BATTERY_LEVEL_LEN) )
 195:.\Generated_Source\PSoC4/CyBle_bas.c ****     {
 196:.\Generated_Source\PSoC4/CyBle_bas.c ****         apiResult = CYBLE_ERROR_INVALID_PARAMETER;
 197:.\Generated_Source\PSoC4/CyBle_bas.c ****     }
 198:.\Generated_Source\PSoC4/CyBle_bas.c ****     else
 199:.\Generated_Source\PSoC4/CyBle_bas.c ****     {
 200:.\Generated_Source\PSoC4/CyBle_bas.c ****         /* Read characteristic value from database */
 201:.\Generated_Source\PSoC4/CyBle_bas.c ****         locHandleValuePair.attrHandle = cyBle_bass[serviceIndex].batteryLevelHandle;
 177              		.loc 1 201 0 is_stmt 1
 178 0010 C000     		lsl	r0, r0, #3
 179              	.LVL20:
 180 0012 0B49     		ldr	r1, .L20
 181              	.LVL21:
 182 0014 0818     		add	r0, r1, r0
 183 0016 4188     		ldrh	r1, [r0, #2]
 184 0018 01A8     		add	r0, sp, #4
 185 001a 0181     		strh	r1, [r0, #8]
 202:.\Generated_Source\PSoC4/CyBle_bas.c ****         locHandleValuePair.value.len = attrSize;
 186              		.loc 1 202 0
 187 001c 8280     		strh	r2, [r0, #4]
 203:.\Generated_Source\PSoC4/CyBle_bas.c ****         locHandleValuePair.value.val = attrValue;
 188              		.loc 1 203 0
 189 001e 0193     		str	r3, [sp, #4]
 204:.\Generated_Source\PSoC4/CyBle_bas.c ****         if(CYBLE_GATT_ERR_NONE !=
 205:.\Generated_Source\PSoC4/CyBle_bas.c ****             CyBle_GattsReadAttributeValue(&locHandleValuePair, NULL, CYBLE_GATT_DB_LOCALLY_INITIATE
 190              		.loc 1 205 0
 191 0020 0021     		mov	r1, #0
 192 0022 0022     		mov	r2, #0
ARM GAS  C:\Users\ADMINI~1\AppData\Local\Temp\ccXFjJyg.s 			page 8


 193              	.LVL22:
 194 0024 FFF7FEFF 		bl	CyBle_GattsReadAttributeValue
 195              	.LVL23:
 204:.\Generated_Source\PSoC4/CyBle_bas.c ****         if(CYBLE_GATT_ERR_NONE !=
 196              		.loc 1 204 0
 197 0028 0028     		cmp	r0, #0
 198 002a 06D1     		bne	.L19
 199 002c 06E0     		b	.L15
 200              	.LVL24:
 201              	.L16:
 196:.\Generated_Source\PSoC4/CyBle_bas.c ****     }
 202              		.loc 1 196 0
 203 002e 0120     		mov	r0, #1
 204              	.LVL25:
 205 0030 04E0     		b	.L15
 206              	.LVL26:
 207              	.L17:
 208 0032 0120     		mov	r0, #1
 209              	.LVL27:
 210 0034 02E0     		b	.L15
 211              	.LVL28:
 212              	.L18:
 213 0036 0120     		mov	r0, #1
 214              	.LVL29:
 215 0038 00E0     		b	.L15
 216              	.LVL30:
 217              	.L19:
 206:.\Generated_Source\PSoC4/CyBle_bas.c ****         {
 207:.\Generated_Source\PSoC4/CyBle_bas.c ****             apiResult = CYBLE_ERROR_INVALID_PARAMETER;
 218              		.loc 1 207 0
 219 003a 0120     		mov	r0, #1
 220              	.L15:
 221              	.LVL31:
 208:.\Generated_Source\PSoC4/CyBle_bas.c ****         }
 209:.\Generated_Source\PSoC4/CyBle_bas.c ****     }
 210:.\Generated_Source\PSoC4/CyBle_bas.c ****     return (apiResult);
 211:.\Generated_Source\PSoC4/CyBle_bas.c **** }
 222              		.loc 1 211 0
 223 003c 05B0     		add	sp, sp, #20
 224              		@ sp needed
 225 003e 00BD     		pop	{pc}
 226              	.L21:
 227              		.align	2
 228              	.L20:
 229 0040 00000000 		.word	.LANCHOR1
 230              		.cfi_endproc
 231              	.LFE5:
 232              		.size	CyBle_BassGetCharacteristicValue, .-CyBle_BassGetCharacteristicValue
 233              		.section	.text.CyBle_BassGetCharacteristicDescriptor,"ax",%progbits
 234              		.align	2
 235              		.global	CyBle_BassGetCharacteristicDescriptor
 236              		.code	16
 237              		.thumb_func
 238              		.type	CyBle_BassGetCharacteristicDescriptor, %function
 239              	CyBle_BassGetCharacteristicDescriptor:
 240              	.LFB6:
 212:.\Generated_Source\PSoC4/CyBle_bas.c **** 
ARM GAS  C:\Users\ADMINI~1\AppData\Local\Temp\ccXFjJyg.s 			page 9


 213:.\Generated_Source\PSoC4/CyBle_bas.c **** 
 214:.\Generated_Source\PSoC4/CyBle_bas.c **** /******************************************************************************
 215:.\Generated_Source\PSoC4/CyBle_bas.c **** * Function Name: CyBle_BassGetCharacteristicDescriptor
 216:.\Generated_Source\PSoC4/CyBle_bas.c **** ***************************************************************************//**
 217:.\Generated_Source\PSoC4/CyBle_bas.c **** * 
 218:.\Generated_Source\PSoC4/CyBle_bas.c **** *  Gets a characteristic descriptor of a specified characteristic of the 
 219:.\Generated_Source\PSoC4/CyBle_bas.c **** *   Battery service from the local GATT database.
 220:.\Generated_Source\PSoC4/CyBle_bas.c **** * 
 221:.\Generated_Source\PSoC4/CyBle_bas.c **** *  \param serviceIndex: The index of the service instance. e.g. If two Battery Services
 222:.\Generated_Source\PSoC4/CyBle_bas.c **** *                 are supported in your design, then first service will be 
 223:.\Generated_Source\PSoC4/CyBle_bas.c **** *                 identified by serviceIndex of 0 and the second by serviceIndex
 224:.\Generated_Source\PSoC4/CyBle_bas.c **** *                 of 1.
 225:.\Generated_Source\PSoC4/CyBle_bas.c **** *  \param charIndex: The index of a service characteristic of type 
 226:.\Generated_Source\PSoC4/CyBle_bas.c **** *              CYBLE_BAS_CHAR_INDEX_T.
 227:.\Generated_Source\PSoC4/CyBle_bas.c **** *  \param descrIndex: The index of a service characteristic descriptor of type 
 228:.\Generated_Source\PSoC4/CyBle_bas.c **** *               CYBLE_BAS_DESCR_INDEX_T.
 229:.\Generated_Source\PSoC4/CyBle_bas.c **** *  \param attrSize: The size of the characteristic descriptor attribute.
 230:.\Generated_Source\PSoC4/CyBle_bas.c **** *  \param attrValue: The pointer to the location where characteristic descriptor 
 231:.\Generated_Source\PSoC4/CyBle_bas.c **** *               value data should be stored.
 232:.\Generated_Source\PSoC4/CyBle_bas.c **** * 
 233:.\Generated_Source\PSoC4/CyBle_bas.c **** * \return
 234:.\Generated_Source\PSoC4/CyBle_bas.c **** *  Return value is of type CYBLE_API_RESULT_T.
 235:.\Generated_Source\PSoC4/CyBle_bas.c **** *  * CYBLE_ERROR_OK - The request handled successfully
 236:.\Generated_Source\PSoC4/CyBle_bas.c **** *  * CYBLE_ERROR_INVALID_PARAMETER - Validation of the input parameter failed
 237:.\Generated_Source\PSoC4/CyBle_bas.c **** *
 238:.\Generated_Source\PSoC4/CyBle_bas.c **** * \events
 239:.\Generated_Source\PSoC4/CyBle_bas.c **** *  None
 240:.\Generated_Source\PSoC4/CyBle_bas.c **** *
 241:.\Generated_Source\PSoC4/CyBle_bas.c **** ******************************************************************************/
 242:.\Generated_Source\PSoC4/CyBle_bas.c **** CYBLE_API_RESULT_T CyBle_BassGetCharacteristicDescriptor(uint8 serviceIndex, CYBLE_BAS_CHAR_INDEX_T
 243:.\Generated_Source\PSoC4/CyBle_bas.c ****     CYBLE_BAS_DESCR_INDEX_T descrIndex, uint8 attrSize, uint8 *attrValue)
 244:.\Generated_Source\PSoC4/CyBle_bas.c **** {
 241              		.loc 1 244 0
 242              		.cfi_startproc
 243              	.LVL32:
 244 0000 00B5     		push	{lr}
 245              		.cfi_def_cfa_offset 4
 246              		.cfi_offset 14, -4
 247 0002 85B0     		sub	sp, sp, #20
 248              		.cfi_def_cfa_offset 24
 249              	.LVL33:
 245:.\Generated_Source\PSoC4/CyBle_bas.c ****     CYBLE_API_RESULT_T apiResult = CYBLE_ERROR_OK;
 246:.\Generated_Source\PSoC4/CyBle_bas.c ****     CYBLE_GATT_HANDLE_VALUE_PAIR_T locHandleValuePair;
 247:.\Generated_Source\PSoC4/CyBle_bas.c **** 
 248:.\Generated_Source\PSoC4/CyBle_bas.c ****     if((serviceIndex >= CYBLE_BASS_SERVICE_COUNT) || (charIndex >= CYBLE_BAS_CHAR_COUNT) ||
 250              		.loc 1 248 0
 251 0004 0028     		cmp	r0, #0
 252 0006 1AD1     		bne	.L26
 253              		.loc 1 248 0 is_stmt 0 discriminator 1
 254 0008 0029     		cmp	r1, #0
 255 000a 1AD1     		bne	.L27
 256              		.loc 1 248 0 discriminator 2
 257 000c 012A     		cmp	r2, #1
 258 000e 1AD8     		bhi	.L28
 249:.\Generated_Source\PSoC4/CyBle_bas.c ****        (descrIndex >= CYBLE_BAS_DESCR_COUNT))
 250:.\Generated_Source\PSoC4/CyBle_bas.c ****     {
 251:.\Generated_Source\PSoC4/CyBle_bas.c ****         apiResult = CYBLE_ERROR_INVALID_PARAMETER;
ARM GAS  C:\Users\ADMINI~1\AppData\Local\Temp\ccXFjJyg.s 			page 10


 252:.\Generated_Source\PSoC4/CyBle_bas.c ****     }
 253:.\Generated_Source\PSoC4/CyBle_bas.c ****     else
 254:.\Generated_Source\PSoC4/CyBle_bas.c ****     {
 255:.\Generated_Source\PSoC4/CyBle_bas.c ****         /* Get data from database */
 256:.\Generated_Source\PSoC4/CyBle_bas.c ****         if(descrIndex == CYBLE_BAS_BATTERY_LEVEL_CCCD)
 259              		.loc 1 256 0 is_stmt 1
 260 0010 002A     		cmp	r2, #0
 261 0012 03D1     		bne	.L24
 257:.\Generated_Source\PSoC4/CyBle_bas.c ****         {
 258:.\Generated_Source\PSoC4/CyBle_bas.c ****             locHandleValuePair.attrHandle = cyBle_bass[serviceIndex].cccdHandle;
 262              		.loc 1 258 0
 263 0014 1731     		add	r1, r1, #23
 264              	.LVL34:
 265 0016 01AA     		add	r2, sp, #4
 266              	.LVL35:
 267 0018 1181     		strh	r1, [r2, #8]
 268 001a 05E0     		b	.L25
 269              	.LVL36:
 270              	.L24:
 259:.\Generated_Source\PSoC4/CyBle_bas.c ****         }
 260:.\Generated_Source\PSoC4/CyBle_bas.c ****         else
 261:.\Generated_Source\PSoC4/CyBle_bas.c ****         {
 262:.\Generated_Source\PSoC4/CyBle_bas.c ****             locHandleValuePair.attrHandle = cyBle_bass[serviceIndex].cpfdHandle;
 271              		.loc 1 262 0
 272 001c C000     		lsl	r0, r0, #3
 273              	.LVL37:
 274 001e 0C4A     		ldr	r2, .L30
 275              	.LVL38:
 276 0020 1018     		add	r0, r2, r0
 277 0022 8188     		ldrh	r1, [r0, #4]
 278              	.LVL39:
 279 0024 01AA     		add	r2, sp, #4
 280 0026 1181     		strh	r1, [r2, #8]
 281              	.L25:
 263:.\Generated_Source\PSoC4/CyBle_bas.c ****         }
 264:.\Generated_Source\PSoC4/CyBle_bas.c ****         locHandleValuePair.value.len = attrSize;
 282              		.loc 1 264 0
 283 0028 01A8     		add	r0, sp, #4
 284 002a 8380     		strh	r3, [r0, #4]
 265:.\Generated_Source\PSoC4/CyBle_bas.c ****         locHandleValuePair.value.val = attrValue;
 285              		.loc 1 265 0
 286 002c 069B     		ldr	r3, [sp, #24]
 287              	.LVL40:
 288 002e 0193     		str	r3, [sp, #4]
 266:.\Generated_Source\PSoC4/CyBle_bas.c ****         if(CYBLE_GATT_ERR_NONE !=
 267:.\Generated_Source\PSoC4/CyBle_bas.c ****             CyBle_GattsReadAttributeValue(&locHandleValuePair, NULL, CYBLE_GATT_DB_LOCALLY_INITIATE
 289              		.loc 1 267 0
 290 0030 0021     		mov	r1, #0
 291 0032 0022     		mov	r2, #0
 292 0034 FFF7FEFF 		bl	CyBle_GattsReadAttributeValue
 293              	.LVL41:
 266:.\Generated_Source\PSoC4/CyBle_bas.c ****         if(CYBLE_GATT_ERR_NONE !=
 294              		.loc 1 266 0
 295 0038 0028     		cmp	r0, #0
 296 003a 06D1     		bne	.L29
 297 003c 06E0     		b	.L23
 298              	.LVL42:
ARM GAS  C:\Users\ADMINI~1\AppData\Local\Temp\ccXFjJyg.s 			page 11


 299              	.L26:
 251:.\Generated_Source\PSoC4/CyBle_bas.c ****     }
 300              		.loc 1 251 0
 301 003e 0120     		mov	r0, #1
 302              	.LVL43:
 303 0040 04E0     		b	.L23
 304              	.LVL44:
 305              	.L27:
 306 0042 0120     		mov	r0, #1
 307              	.LVL45:
 308 0044 02E0     		b	.L23
 309              	.LVL46:
 310              	.L28:
 311 0046 0120     		mov	r0, #1
 312              	.LVL47:
 313 0048 00E0     		b	.L23
 314              	.LVL48:
 315              	.L29:
 268:.\Generated_Source\PSoC4/CyBle_bas.c ****         {
 269:.\Generated_Source\PSoC4/CyBle_bas.c ****             apiResult = CYBLE_ERROR_INVALID_PARAMETER;
 316              		.loc 1 269 0
 317 004a 0120     		mov	r0, #1
 318              	.L23:
 319              	.LVL49:
 270:.\Generated_Source\PSoC4/CyBle_bas.c ****         }
 271:.\Generated_Source\PSoC4/CyBle_bas.c ****     }
 272:.\Generated_Source\PSoC4/CyBle_bas.c ****     return (apiResult);
 273:.\Generated_Source\PSoC4/CyBle_bas.c **** }
 320              		.loc 1 273 0
 321 004c 05B0     		add	sp, sp, #20
 322              		@ sp needed
 323 004e 00BD     		pop	{pc}
 324              	.L31:
 325              		.align	2
 326              	.L30:
 327 0050 00000000 		.word	.LANCHOR1
 328              		.cfi_endproc
 329              	.LFE6:
 330              		.size	CyBle_BassGetCharacteristicDescriptor, .-CyBle_BassGetCharacteristicDescriptor
 331              		.section	.text.CyBle_BassWriteEventHandler,"ax",%progbits
 332              		.align	2
 333              		.global	CyBle_BassWriteEventHandler
 334              		.code	16
 335              		.thumb_func
 336              		.type	CyBle_BassWriteEventHandler, %function
 337              	CyBle_BassWriteEventHandler:
 338              	.LFB7:
 274:.\Generated_Source\PSoC4/CyBle_bas.c **** 
 275:.\Generated_Source\PSoC4/CyBle_bas.c **** 
 276:.\Generated_Source\PSoC4/CyBle_bas.c **** /******************************************************************************
 277:.\Generated_Source\PSoC4/CyBle_bas.c **** * Function Name: CyBle_BassWriteEventHandler
 278:.\Generated_Source\PSoC4/CyBle_bas.c **** ***************************************************************************//**
 279:.\Generated_Source\PSoC4/CyBle_bas.c **** * 
 280:.\Generated_Source\PSoC4/CyBle_bas.c **** *  Handles the Write Request Event for Battery service.
 281:.\Generated_Source\PSoC4/CyBle_bas.c **** * 
 282:.\Generated_Source\PSoC4/CyBle_bas.c **** *  \param void *eventParam: the pointer to the data structure specified by the event.
 283:.\Generated_Source\PSoC4/CyBle_bas.c **** * 
ARM GAS  C:\Users\ADMINI~1\AppData\Local\Temp\ccXFjJyg.s 			page 12


 284:.\Generated_Source\PSoC4/CyBle_bas.c **** * \return
 285:.\Generated_Source\PSoC4/CyBle_bas.c **** *  Return value is of type CYBLE_GATT_ERR_CODE_T.
 286:.\Generated_Source\PSoC4/CyBle_bas.c **** *   * CYBLE_GATT_ERR_NONE - Write request is handled successfully.
 287:.\Generated_Source\PSoC4/CyBle_bas.c **** *   * CYBLE_GATT_ERR_REQUEST_NOT_SUPPORTED - Notification isn't supported.
 288:.\Generated_Source\PSoC4/CyBle_bas.c **** *   * CYBLE_GATT_ERR_UNLIKELY_ERROR - Internal error while writing attribute
 289:.\Generated_Source\PSoC4/CyBle_bas.c **** *                                      value.
 290:.\Generated_Source\PSoC4/CyBle_bas.c **** * 
 291:.\Generated_Source\PSoC4/CyBle_bas.c **** ******************************************************************************/
 292:.\Generated_Source\PSoC4/CyBle_bas.c **** CYBLE_GATT_ERR_CODE_T CyBle_BassWriteEventHandler(CYBLE_GATTS_WRITE_REQ_PARAM_T *eventParam)
 293:.\Generated_Source\PSoC4/CyBle_bas.c **** {
 339              		.loc 1 293 0
 340              		.cfi_startproc
 341              	.LVL50:
 342 0000 30B5     		push	{r4, r5, lr}
 343              		.cfi_def_cfa_offset 12
 344              		.cfi_offset 4, -12
 345              		.cfi_offset 5, -8
 346              		.cfi_offset 14, -4
 347 0002 83B0     		sub	sp, sp, #12
 348              		.cfi_def_cfa_offset 24
 349              	.LVL51:
 294:.\Generated_Source\PSoC4/CyBle_bas.c ****     uint8 locServIndex = 0u;
 295:.\Generated_Source\PSoC4/CyBle_bas.c ****     CYBLE_BAS_CHAR_VALUE_T locCharIndex;
 296:.\Generated_Source\PSoC4/CyBle_bas.c ****     CYBLE_GATT_ERR_CODE_T gattErr = CYBLE_GATT_ERR_NONE;
 297:.\Generated_Source\PSoC4/CyBle_bas.c **** 
 298:.\Generated_Source\PSoC4/CyBle_bas.c ****     if(NULL != CyBle_BasApplCallback)
 350              		.loc 1 298 0
 351 0004 1E4B     		ldr	r3, .L39
 352 0006 1B68     		ldr	r3, [r3]
 353 0008 002B     		cmp	r3, #0
 354 000a 32D0     		beq	.L36
 299:.\Generated_Source\PSoC4/CyBle_bas.c ****     {
 300:.\Generated_Source\PSoC4/CyBle_bas.c ****         do
 301:.\Generated_Source\PSoC4/CyBle_bas.c ****         {
 302:.\Generated_Source\PSoC4/CyBle_bas.c ****             /* Client Characteristic Configuration descriptor write request */
 303:.\Generated_Source\PSoC4/CyBle_bas.c ****             if(eventParam->handleValPair.attrHandle == cyBle_bass[locServIndex].cccdHandle)
 355              		.loc 1 303 0
 356 000c 8389     		ldrh	r3, [r0, #12]
 357 000e 172B     		cmp	r3, #23
 358 0010 31D1     		bne	.L37
 304:.\Generated_Source\PSoC4/CyBle_bas.c ****             {
 305:.\Generated_Source\PSoC4/CyBle_bas.c ****                 /* Verify that optional notification property is enabled for Battery Level characte
 306:.\Generated_Source\PSoC4/CyBle_bas.c ****                 if(CYBLE_IS_NOTIFICATION_SUPPORTED(cyBle_bass[locServIndex].batteryLevelHandle))
 359              		.loc 1 306 0
 360 0012 7E33     		add	r3, r3, #126
 361 0014 FF33     		add	r3, r3, #255
 362 0016 1B4A     		ldr	r2, .L39+4
 363 0018 D358     		ldr	r3, [r2, r3]
 364 001a DB04     		lsl	r3, r3, #19
 365 001c 22D5     		bpl	.L38
 366 001e 041C     		mov	r4, r0
 307:.\Generated_Source\PSoC4/CyBle_bas.c ****                 {
 308:.\Generated_Source\PSoC4/CyBle_bas.c ****                     gattErr = CyBle_GattsWriteAttributeValue(&eventParam->handleValPair, 0u, 
 367              		.loc 1 308 0
 368 0020 0430     		add	r0, r0, #4
 369              	.LVL52:
 370 0022 0021     		mov	r1, #0
ARM GAS  C:\Users\ADMINI~1\AppData\Local\Temp\ccXFjJyg.s 			page 13


 371 0024 221C     		mov	r2, r4
 372 0026 4023     		mov	r3, #64
 373 0028 FFF7FEFF 		bl	CyBle_GattsWriteAttributeValue
 374              	.LVL53:
 375 002c 051E     		sub	r5, r0, #0
 376              	.LVL54:
 309:.\Generated_Source\PSoC4/CyBle_bas.c ****                         &eventParam->connHandle, CYBLE_GATT_DB_PEER_INITIATED);
 310:.\Generated_Source\PSoC4/CyBle_bas.c ****                     if(CYBLE_GATT_ERR_NONE == gattErr)
 377              		.loc 1 310 0
 378 002e 1AD1     		bne	.L34
 311:.\Generated_Source\PSoC4/CyBle_bas.c ****                     {
 312:.\Generated_Source\PSoC4/CyBle_bas.c ****                         locCharIndex.connHandle = eventParam->connHandle;
 379              		.loc 1 312 0
 380 0030 2388     		ldrh	r3, [r4]
 381 0032 6A46     		mov	r2, sp
 382 0034 1380     		strh	r3, [r2]
 313:.\Generated_Source\PSoC4/CyBle_bas.c ****                         locCharIndex.serviceIndex = locServIndex;
 383              		.loc 1 313 0
 384 0036 0023     		mov	r3, #0
 385 0038 9370     		strb	r3, [r2, #2]
 314:.\Generated_Source\PSoC4/CyBle_bas.c ****                         locCharIndex.charIndex = CYBLE_BAS_BATTERY_LEVEL;
 386              		.loc 1 314 0
 387 003a D370     		strb	r3, [r2, #3]
 315:.\Generated_Source\PSoC4/CyBle_bas.c ****                         locCharIndex.value = NULL;
 388              		.loc 1 315 0
 389 003c 0193     		str	r3, [sp, #4]
 316:.\Generated_Source\PSoC4/CyBle_bas.c ****                         
 317:.\Generated_Source\PSoC4/CyBle_bas.c ****                         if(CYBLE_IS_NOTIFICATION_ENABLED_IN_PTR(eventParam->handleValPair.value.val
 390              		.loc 1 317 0
 391 003e 6068     		ldr	r0, [r4, #4]
 392              	.LVL55:
 393 0040 FFF7FEFF 		bl	CyBle_Get16ByPtr
 394              	.LVL56:
 395 0044 C307     		lsl	r3, r0, #31
 396 0046 06D5     		bpl	.L35
 318:.\Generated_Source\PSoC4/CyBle_bas.c ****                         {
 319:.\Generated_Source\PSoC4/CyBle_bas.c ****                             CyBle_BasApplCallback((uint32)CYBLE_EVT_BASS_NOTIFICATION_ENABLED, &loc
 397              		.loc 1 319 0
 398 0048 0D4B     		ldr	r3, .L39
 399 004a 1B68     		ldr	r3, [r3]
 400 004c 2420     		mov	r0, #36
 401 004e FF30     		add	r0, r0, #255
 402 0050 6946     		mov	r1, sp
 403 0052 9847     		blx	r3
 404              	.LVL57:
 405 0054 07E0     		b	.L34
 406              	.L35:
 320:.\Generated_Source\PSoC4/CyBle_bas.c ****                         }
 321:.\Generated_Source\PSoC4/CyBle_bas.c ****                         else
 322:.\Generated_Source\PSoC4/CyBle_bas.c ****                         {
 323:.\Generated_Source\PSoC4/CyBle_bas.c ****                             CyBle_BasApplCallback((uint32)CYBLE_EVT_BASS_NOTIFICATION_DISABLED, &lo
 407              		.loc 1 323 0
 408 0056 0A4B     		ldr	r3, .L39
 409 0058 1B68     		ldr	r3, [r3]
 410 005a 9220     		mov	r0, #146
 411 005c 4000     		lsl	r0, r0, #1
 412 005e 6946     		mov	r1, sp
ARM GAS  C:\Users\ADMINI~1\AppData\Local\Temp\ccXFjJyg.s 			page 14


 413 0060 9847     		blx	r3
 414              	.LVL58:
 415 0062 00E0     		b	.L34
 416              	.LVL59:
 417              	.L38:
 324:.\Generated_Source\PSoC4/CyBle_bas.c ****                         }
 325:.\Generated_Source\PSoC4/CyBle_bas.c ****                     #if((CYBLE_GAP_ROLE_PERIPHERAL || CYBLE_GAP_ROLE_CENTRAL) && \
 326:.\Generated_Source\PSoC4/CyBle_bas.c ****                         (CYBLE_BONDING_REQUIREMENT == CYBLE_BONDING_YES))
 327:.\Generated_Source\PSoC4/CyBle_bas.c ****                         /* Set flag to store bonding data to flash */
 328:.\Generated_Source\PSoC4/CyBle_bas.c ****                         if(cyBle_peerBonding == CYBLE_GAP_BONDING)
 329:.\Generated_Source\PSoC4/CyBle_bas.c ****                         {
 330:.\Generated_Source\PSoC4/CyBle_bas.c ****                             cyBle_pendingFlashWrite |= CYBLE_PENDING_CCCD_FLASH_WRITE_BIT;
 331:.\Generated_Source\PSoC4/CyBle_bas.c ****                         }
 332:.\Generated_Source\PSoC4/CyBle_bas.c ****                     #endif /* (CYBLE_BONDING_REQUIREMENT == CYBLE_BONDING_YES) */
 333:.\Generated_Source\PSoC4/CyBle_bas.c ****                     }
 334:.\Generated_Source\PSoC4/CyBle_bas.c ****                 }
 335:.\Generated_Source\PSoC4/CyBle_bas.c ****                 else
 336:.\Generated_Source\PSoC4/CyBle_bas.c ****                 {
 337:.\Generated_Source\PSoC4/CyBle_bas.c ****                     gattErr = CYBLE_GATT_ERR_REQUEST_NOT_SUPPORTED;
 418              		.loc 1 337 0
 419 0064 0625     		mov	r5, #6
 420              	.LVL60:
 421              	.L34:
 338:.\Generated_Source\PSoC4/CyBle_bas.c ****                 }
 339:.\Generated_Source\PSoC4/CyBle_bas.c ****                 cyBle_eventHandlerFlag &= (uint8)~CYBLE_CALLBACK;
 422              		.loc 1 339 0
 423 0066 084A     		ldr	r2, .L39+8
 424 0068 1378     		ldrb	r3, [r2]
 425 006a 0121     		mov	r1, #1
 426 006c 8B43     		bic	r3, r1
 427 006e 1370     		strb	r3, [r2]
 340:.\Generated_Source\PSoC4/CyBle_bas.c ****                 break;
 428              		.loc 1 340 0
 429 0070 02E0     		b	.L33
 430              	.LVL61:
 431              	.L36:
 296:.\Generated_Source\PSoC4/CyBle_bas.c **** 
 432              		.loc 1 296 0
 433 0072 0025     		mov	r5, #0
 434 0074 00E0     		b	.L33
 435              	.L37:
 436 0076 0025     		mov	r5, #0
 437              	.LVL62:
 438              	.L33:
 341:.\Generated_Source\PSoC4/CyBle_bas.c ****             }
 342:.\Generated_Source\PSoC4/CyBle_bas.c ****         locServIndex++;
 343:.\Generated_Source\PSoC4/CyBle_bas.c ****         }while(locServIndex < CYBLE_BASS_SERVICE_COUNT);
 344:.\Generated_Source\PSoC4/CyBle_bas.c ****     }
 345:.\Generated_Source\PSoC4/CyBle_bas.c ****     return (gattErr);
 346:.\Generated_Source\PSoC4/CyBle_bas.c **** }
 439              		.loc 1 346 0
 440 0078 281C     		mov	r0, r5
 441 007a 03B0     		add	sp, sp, #12
 442              		@ sp needed
 443              	.LVL63:
 444 007c 30BD     		pop	{r4, r5, pc}
 445              	.L40:
ARM GAS  C:\Users\ADMINI~1\AppData\Local\Temp\ccXFjJyg.s 			page 15


 446 007e C046     		.align	2
 447              	.L39:
 448 0080 00000000 		.word	.LANCHOR0
 449 0084 00000000 		.word	cyBle_gattDB
 450 0088 00000000 		.word	cyBle_eventHandlerFlag
 451              		.cfi_endproc
 452              	.LFE7:
 453              		.size	CyBle_BassWriteEventHandler, .-CyBle_BassWriteEventHandler
 454              		.section	.text.CyBle_BassSendNotification,"ax",%progbits
 455              		.align	2
 456              		.global	CyBle_BassSendNotification
 457              		.code	16
 458              		.thumb_func
 459              		.type	CyBle_BassSendNotification, %function
 460              	CyBle_BassSendNotification:
 461              	.LFB8:
 347:.\Generated_Source\PSoC4/CyBle_bas.c **** 
 348:.\Generated_Source\PSoC4/CyBle_bas.c **** 
 349:.\Generated_Source\PSoC4/CyBle_bas.c **** /******************************************************************************
 350:.\Generated_Source\PSoC4/CyBle_bas.c **** * Function Name: CyBle_BassSendNotification
 351:.\Generated_Source\PSoC4/CyBle_bas.c **** ***************************************************************************//**
 352:.\Generated_Source\PSoC4/CyBle_bas.c **** * 
 353:.\Generated_Source\PSoC4/CyBle_bas.c **** *  This function updates the value of the Battery Level characteristic in the 
 354:.\Generated_Source\PSoC4/CyBle_bas.c **** *  GATT database. If the client has configured a notification on the Battery
 355:.\Generated_Source\PSoC4/CyBle_bas.c **** *  Level characteristic, the function additionally sends this value using a 
 356:.\Generated_Source\PSoC4/CyBle_bas.c **** *  GATT Notification message.
 357:.\Generated_Source\PSoC4/CyBle_bas.c **** * 
 358:.\Generated_Source\PSoC4/CyBle_bas.c **** *  The CYBLE_EVT_BASC_NOTIFICATION event is received by the peer device, on 
 359:.\Generated_Source\PSoC4/CyBle_bas.c **** *  invoking this function.
 360:.\Generated_Source\PSoC4/CyBle_bas.c **** * 
 361:.\Generated_Source\PSoC4/CyBle_bas.c **** *  \param connHandle: The BLE peer device connection handle
 362:.\Generated_Source\PSoC4/CyBle_bas.c **** *  \param serviceIndex: The index of the service instance. e.g. If two Battery Services
 363:.\Generated_Source\PSoC4/CyBle_bas.c **** *                 are supported in your design, then first service will be 
 364:.\Generated_Source\PSoC4/CyBle_bas.c **** *                 identified by serviceIndex of 0 and the second by 
 365:.\Generated_Source\PSoC4/CyBle_bas.c **** *                 serviceIndex of 1.
 366:.\Generated_Source\PSoC4/CyBle_bas.c **** *  \param charIndex: The index of a service characteristic of type 
 367:.\Generated_Source\PSoC4/CyBle_bas.c **** *              CYBLE_BAS_CHAR_INDEX_T.
 368:.\Generated_Source\PSoC4/CyBle_bas.c **** *  \param attrSize: The size of the characteristic value attribute. A battery level
 369:.\Generated_Source\PSoC4/CyBle_bas.c **** *             characteristic has 1 byte length.
 370:.\Generated_Source\PSoC4/CyBle_bas.c **** *  \param attrValue: The pointer to the characteristic value data that should be
 371:.\Generated_Source\PSoC4/CyBle_bas.c **** *               sent to the Client device.
 372:.\Generated_Source\PSoC4/CyBle_bas.c **** * 
 373:.\Generated_Source\PSoC4/CyBle_bas.c **** * \return
 374:.\Generated_Source\PSoC4/CyBle_bas.c **** *  Return value is of type CYBLE_API_RESULT_T.
 375:.\Generated_Source\PSoC4/CyBle_bas.c **** *   * CYBLE_ERROR_OK - The request handled successfully
 376:.\Generated_Source\PSoC4/CyBle_bas.c **** *   * CYBLE_ERROR_INVALID_PARAMETER - Validation of the input parameter failed
 377:.\Generated_Source\PSoC4/CyBle_bas.c **** *   * CYBLE_ERROR_INVALID_OPERATION - This operation is not permitted
 378:.\Generated_Source\PSoC4/CyBle_bas.c **** *   * CYBLE_ERROR_INVALID_STATE - Connection with the client is not established
 379:.\Generated_Source\PSoC4/CyBle_bas.c **** *   * CYBLE_ERROR_MEMORY_ALLOCATION_FAILED - Memory allocation failed. 
 380:.\Generated_Source\PSoC4/CyBle_bas.c **** *   * CYBLE_ERROR_NTF_DISABLED - Notification is not enabled by the client.
 381:.\Generated_Source\PSoC4/CyBle_bas.c **** * 
 382:.\Generated_Source\PSoC4/CyBle_bas.c **** ******************************************************************************/
 383:.\Generated_Source\PSoC4/CyBle_bas.c **** CYBLE_API_RESULT_T CyBle_BassSendNotification(CYBLE_CONN_HANDLE_T connHandle,
 384:.\Generated_Source\PSoC4/CyBle_bas.c ****     uint8 serviceIndex, CYBLE_BAS_CHAR_INDEX_T charIndex, uint8 attrSize, uint8 *attrValue)
 385:.\Generated_Source\PSoC4/CyBle_bas.c **** {
 462              		.loc 1 385 0
 463              		.cfi_startproc
ARM GAS  C:\Users\ADMINI~1\AppData\Local\Temp\ccXFjJyg.s 			page 16


 464              	.LVL64:
 465 0000 30B5     		push	{r4, r5, lr}
 466              		.cfi_def_cfa_offset 12
 467              		.cfi_offset 4, -12
 468              		.cfi_offset 5, -8
 469              		.cfi_offset 14, -4
 470 0002 87B0     		sub	sp, sp, #28
 471              		.cfi_def_cfa_offset 40
 472 0004 01AC     		add	r4, sp, #4
 473 0006 2080     		strh	r0, [r4]
 474 0008 0C1C     		mov	r4, r1
 475 000a 1D1C     		mov	r5, r3
 386:.\Generated_Source\PSoC4/CyBle_bas.c ****     CYBLE_API_RESULT_T apiResult;
 387:.\Generated_Source\PSoC4/CyBle_bas.c **** 
 388:.\Generated_Source\PSoC4/CyBle_bas.c ****     /* Store new data in database */
 389:.\Generated_Source\PSoC4/CyBle_bas.c ****     apiResult = CyBle_BassSetCharacteristicValue(serviceIndex, charIndex, attrSize, attrValue);
 476              		.loc 1 389 0
 477 000c 081C     		mov	r0, r1
 478 000e 111C     		mov	r1, r2
 479              	.LVL65:
 480 0010 1A1C     		mov	r2, r3
 481              	.LVL66:
 482 0012 0A9B     		ldr	r3, [sp, #40]
 483              	.LVL67:
 484 0014 FFF7FEFF 		bl	CyBle_BassSetCharacteristicValue
 485              	.LVL68:
 390:.\Generated_Source\PSoC4/CyBle_bas.c ****     
 391:.\Generated_Source\PSoC4/CyBle_bas.c ****     if(CYBLE_ERROR_OK == apiResult)  
 486              		.loc 1 391 0
 487 0018 0028     		cmp	r0, #0
 488 001a 1ED1     		bne	.L42
 392:.\Generated_Source\PSoC4/CyBle_bas.c ****     {
 393:.\Generated_Source\PSoC4/CyBle_bas.c ****         /* Send Notification if it is enabled and connected */
 394:.\Generated_Source\PSoC4/CyBle_bas.c ****         if(CYBLE_STATE_CONNECTED != CyBle_GetState())
 489              		.loc 1 394 0
 490 001c 104B     		ldr	r3, .L45
 491 001e 1B78     		ldrb	r3, [r3]
 492 0020 022B     		cmp	r3, #2
 493 0022 15D1     		bne	.L43
 395:.\Generated_Source\PSoC4/CyBle_bas.c ****         {
 396:.\Generated_Source\PSoC4/CyBle_bas.c ****             apiResult = CYBLE_ERROR_INVALID_STATE;
 397:.\Generated_Source\PSoC4/CyBle_bas.c ****         }
 398:.\Generated_Source\PSoC4/CyBle_bas.c ****         else if((cyBle_bass[serviceIndex].cccdHandle == CYBLE_GATT_INVALID_ATTR_HANDLE_VALUE)
 399:.\Generated_Source\PSoC4/CyBle_bas.c ****             || (!CYBLE_IS_NOTIFICATION_ENABLED(cyBle_bass[serviceIndex].cccdHandle)))
 494              		.loc 1 399 0
 495 0024 C733     		add	r3, r3, #199
 496 0026 FF33     		add	r3, r3, #255
 497 0028 0E4A     		ldr	r2, .L45+4
 498 002a D358     		ldr	r3, [r2, r3]
 499 002c 5868     		ldr	r0, [r3, #4]
 500              	.LVL69:
 501 002e FFF7FEFF 		bl	CyBle_Get16ByPtr
 502              	.LVL70:
 503 0032 C307     		lsl	r3, r0, #31
 504 0034 0FD5     		bpl	.L44
 505              	.LBB2:
 400:.\Generated_Source\PSoC4/CyBle_bas.c ****         {
ARM GAS  C:\Users\ADMINI~1\AppData\Local\Temp\ccXFjJyg.s 			page 17


 401:.\Generated_Source\PSoC4/CyBle_bas.c ****             apiResult = CYBLE_ERROR_NTF_DISABLED;
 402:.\Generated_Source\PSoC4/CyBle_bas.c ****         }
 403:.\Generated_Source\PSoC4/CyBle_bas.c ****         else
 404:.\Generated_Source\PSoC4/CyBle_bas.c ****         {
 405:.\Generated_Source\PSoC4/CyBle_bas.c ****             CYBLE_GATTS_HANDLE_VALUE_NTF_T ntfReqParam;
 406:.\Generated_Source\PSoC4/CyBle_bas.c ****             
 407:.\Generated_Source\PSoC4/CyBle_bas.c ****             /* Fill all fields of write request structure ... */
 408:.\Generated_Source\PSoC4/CyBle_bas.c ****             ntfReqParam.attrHandle = cyBle_bass[serviceIndex].batteryLevelHandle;
 506              		.loc 1 408 0
 507 0036 E400     		lsl	r4, r4, #3
 508 0038 0B4B     		ldr	r3, .L45+8
 509 003a 1C19     		add	r4, r3, r4
 510 003c 6388     		ldrh	r3, [r4, #2]
 511 003e 03A9     		add	r1, sp, #12
 512 0040 0B81     		strh	r3, [r1, #8]
 409:.\Generated_Source\PSoC4/CyBle_bas.c ****             ntfReqParam.value.val = attrValue;
 513              		.loc 1 409 0
 514 0042 0A9B     		ldr	r3, [sp, #40]
 515 0044 0393     		str	r3, [sp, #12]
 410:.\Generated_Source\PSoC4/CyBle_bas.c ****             ntfReqParam.value.len = attrSize;
 516              		.loc 1 410 0
 517 0046 8D80     		strh	r5, [r1, #4]
 411:.\Generated_Source\PSoC4/CyBle_bas.c ****             
 412:.\Generated_Source\PSoC4/CyBle_bas.c ****             /* Send notification to client using previously filled structure */
 413:.\Generated_Source\PSoC4/CyBle_bas.c ****             apiResult = CyBle_GattsNotification(connHandle, &ntfReqParam);
 518              		.loc 1 413 0
 519 0048 0198     		ldr	r0, [sp, #4]
 520 004a FFF7FEFF 		bl	CyBle_GattsNotification
 521              	.LVL71:
 522 004e 04E0     		b	.L42
 523              	.L43:
 524              	.LBE2:
 396:.\Generated_Source\PSoC4/CyBle_bas.c ****         }
 525              		.loc 1 396 0
 526 0050 0420     		mov	r0, #4
 527              	.LVL72:
 528 0052 FF30     		add	r0, r0, #255
 529 0054 01E0     		b	.L42
 530              	.L44:
 401:.\Generated_Source\PSoC4/CyBle_bas.c ****         }
 531              		.loc 1 401 0
 532 0056 8020     		mov	r0, #128
 533 0058 4000     		lsl	r0, r0, #1
 534              	.L42:
 535              	.LVL73:
 414:.\Generated_Source\PSoC4/CyBle_bas.c ****         }
 415:.\Generated_Source\PSoC4/CyBle_bas.c ****     }
 416:.\Generated_Source\PSoC4/CyBle_bas.c ****     
 417:.\Generated_Source\PSoC4/CyBle_bas.c ****     return (apiResult);
 418:.\Generated_Source\PSoC4/CyBle_bas.c **** }
 536              		.loc 1 418 0
 537 005a 07B0     		add	sp, sp, #28
 538              		@ sp needed
 539 005c 30BD     		pop	{r4, r5, pc}
 540              	.L46:
 541 005e C046     		.align	2
 542              	.L45:
ARM GAS  C:\Users\ADMINI~1\AppData\Local\Temp\ccXFjJyg.s 			page 18


 543 0060 00000000 		.word	cyBle_state
 544 0064 00000000 		.word	cyBle_gattDB
 545 0068 00000000 		.word	.LANCHOR1
 546              		.cfi_endproc
 547              	.LFE8:
 548              		.size	CyBle_BassSendNotification, .-CyBle_BassSendNotification
 549              		.global	cyBle_bass
 550              		.section	.rodata
 551              		.align	2
 552              		.set	.LANCHOR1,. + 0
 553              		.type	cyBle_bass, %object
 554              		.size	cyBle_bass, 8
 555              	cyBle_bass:
 556 0000 1300     		.short	19
 557 0002 1500     		.short	21
 558 0004 1600     		.short	22
 559 0006 1700     		.short	23
 560              		.bss
 561              		.align	2
 562              		.set	.LANCHOR0,. + 0
 563              		.type	CyBle_BasApplCallback, %object
 564              		.size	CyBle_BasApplCallback, 4
 565              	CyBle_BasApplCallback:
 566 0000 00000000 		.space	4
 567              		.text
 568              	.Letext0:
 569              		.file 2 ".\\Generated_Source\\PSoC4\\cytypes.h"
 570              		.file 3 ".\\Generated_Source\\PSoC4\\CyBle_Stack.h"
 571              		.file 4 ".\\Generated_Source\\PSoC4\\CyBle_StackGatt.h"
 572              		.file 5 ".\\Generated_Source\\PSoC4\\CyBle_StackGattServer.h"
 573              		.file 6 ".\\Generated_Source\\PSoC4\\CyBle_StackGattDb.h"
 574              		.file 7 ".\\Generated_Source\\PSoC4\\CyBle.h"
 575              		.file 8 ".\\Generated_Source\\PSoC4\\CyBle_bas.h"
 576              		.file 9 ".\\Generated_Source\\PSoC4\\CyBle_dis.h"
 577              		.file 10 ".\\Generated_Source\\PSoC4\\CyBle_eventHandler.h"
 578              		.file 11 ".\\Generated_Source\\PSoC4\\CyBle_gatt.h"