ARM GAS  C:\Users\ADMINI~1\AppData\Local\Temp\cc7miFwc.s 			page 1


   1              		.cpu cortex-m0
   2              		.fpu softvfp
   3              		.eabi_attribute 20, 1
   4              		.eabi_attribute 21, 1
   5              		.eabi_attribute 23, 3
   6              		.eabi_attribute 24, 1
   7              		.eabi_attribute 25, 1
   8              		.eabi_attribute 26, 1
   9              		.eabi_attribute 30, 1
  10              		.eabi_attribute 34, 0
  11              		.eabi_attribute 18, 4
  12              		.code	16
  13              		.file	"CyBle_hids.c"
  14              		.text
  15              	.Ltext0:
  16              		.cfi_sections	.debug_frame
  17              		.section	.text.CyBle_HidssCccdWriteEventHandler,"ax",%progbits
  18              		.align	2
  19              		.code	16
  20              		.thumb_func
  21              		.type	CyBle_HidssCccdWriteEventHandler, %function
  22              	CyBle_HidssCccdWriteEventHandler:
  23              	.LFB7:
  24              		.file 1 ".\\Generated_Source\\PSoC4\\CyBle_hids.c"
   1:.\Generated_Source\PSoC4/CyBle_hids.c **** /***************************************************************************//**
   2:.\Generated_Source\PSoC4/CyBle_hids.c **** * \file CYBLE_hids.c
   3:.\Generated_Source\PSoC4/CyBle_hids.c **** * \version 3.10
   4:.\Generated_Source\PSoC4/CyBle_hids.c **** * 
   5:.\Generated_Source\PSoC4/CyBle_hids.c **** * \brief
   6:.\Generated_Source\PSoC4/CyBle_hids.c **** *  Contains the source code for the HID service.
   7:.\Generated_Source\PSoC4/CyBle_hids.c **** * 
   8:.\Generated_Source\PSoC4/CyBle_hids.c **** ********************************************************************************
   9:.\Generated_Source\PSoC4/CyBle_hids.c **** * \copyright
  10:.\Generated_Source\PSoC4/CyBle_hids.c **** * Copyright 2014-2016, Cypress Semiconductor Corporation.  All rights reserved.
  11:.\Generated_Source\PSoC4/CyBle_hids.c **** * You may use this file only in accordance with the license, terms, conditions,
  12:.\Generated_Source\PSoC4/CyBle_hids.c **** * disclaimers, and limitations in the end user license agreement accompanying
  13:.\Generated_Source\PSoC4/CyBle_hids.c **** * the software package with which this file was provided.
  14:.\Generated_Source\PSoC4/CyBle_hids.c **** *******************************************************************************/
  15:.\Generated_Source\PSoC4/CyBle_hids.c **** 
  16:.\Generated_Source\PSoC4/CyBle_hids.c **** #include "CyBle_eventHandler.h"
  17:.\Generated_Source\PSoC4/CyBle_hids.c **** 
  18:.\Generated_Source\PSoC4/CyBle_hids.c **** static CYBLE_CALLBACK_T CyBle_HidsApplCallback;
  19:.\Generated_Source\PSoC4/CyBle_hids.c **** 
  20:.\Generated_Source\PSoC4/CyBle_hids.c **** #ifdef CYBLE_HIDS_SERVER
  21:.\Generated_Source\PSoC4/CyBle_hids.c **** 
  22:.\Generated_Source\PSoC4/CyBle_hids.c **** static const CYBLE_HIDSS_REPORT_T cyBle_hids1ReportArray[0x02u] = {
  23:.\Generated_Source\PSoC4/CyBle_hids.c ****     {
  24:.\Generated_Source\PSoC4/CyBle_hids.c ****         0x0010u, /* Handle of the Report characteristic value */ 
  25:.\Generated_Source\PSoC4/CyBle_hids.c ****         0x0011u, /* Handle of the Client Characteristic Configuration descriptor */ 
  26:.\Generated_Source\PSoC4/CyBle_hids.c ****         0x0012u, /* Handle of the Report Reference descriptor */ 
  27:.\Generated_Source\PSoC4/CyBle_hids.c ****     },
  28:.\Generated_Source\PSoC4/CyBle_hids.c ****     {
  29:.\Generated_Source\PSoC4/CyBle_hids.c ****         0x001Fu, /* Handle of the Report characteristic value */ 
  30:.\Generated_Source\PSoC4/CyBle_hids.c ****         CYBLE_GATT_INVALID_ATTR_HANDLE_VALUE, /* Handle of the Client Characteristic Configuration 
  31:.\Generated_Source\PSoC4/CyBle_hids.c ****         0x0020u, /* Handle of the Report Reference descriptor */ 
  32:.\Generated_Source\PSoC4/CyBle_hids.c ****     },
  33:.\Generated_Source\PSoC4/CyBle_hids.c **** };
ARM GAS  C:\Users\ADMINI~1\AppData\Local\Temp\cc7miFwc.s 			page 2


  34:.\Generated_Source\PSoC4/CyBle_hids.c **** 
  35:.\Generated_Source\PSoC4/CyBle_hids.c **** const CYBLE_HIDSS_T cyBle_hidss[0x01u] = {
  36:.\Generated_Source\PSoC4/CyBle_hids.c ****     {
  37:.\Generated_Source\PSoC4/CyBle_hids.c ****         0x000Cu, /* Handle of the HID service */ 
  38:.\Generated_Source\PSoC4/CyBle_hids.c ****         0x0018u, /* Handle of the Protocol Mode characteristic */ 
  39:.\Generated_Source\PSoC4/CyBle_hids.c ****         0x02u, /* Number of report characteristics */ 
  40:.\Generated_Source\PSoC4/CyBle_hids.c ****         cyBle_hids1ReportArray, /* Information about report characteristics */ 
  41:.\Generated_Source\PSoC4/CyBle_hids.c ****         {
  42:.\Generated_Source\PSoC4/CyBle_hids.c ****             {
  43:.\Generated_Source\PSoC4/CyBle_hids.c ****                 0x001Au, /* Handle of the Report characteristic value */ 
  44:.\Generated_Source\PSoC4/CyBle_hids.c ****                 0x001Bu, /* Handle of the Client Characteristic Configuration descriptor */ 
  45:.\Generated_Source\PSoC4/CyBle_hids.c ****                 CYBLE_GATT_INVALID_ATTR_HANDLE_VALUE, /* Handle of the Report Reference descriptor 
  46:.\Generated_Source\PSoC4/CyBle_hids.c ****             },
  47:.\Generated_Source\PSoC4/CyBle_hids.c ****             {
  48:.\Generated_Source\PSoC4/CyBle_hids.c ****                 0x001Du, /* Handle of the Report characteristic value */ 
  49:.\Generated_Source\PSoC4/CyBle_hids.c ****                 CYBLE_GATT_INVALID_ATTR_HANDLE_VALUE, /* Handle of the Client Characteristic Config
  50:.\Generated_Source\PSoC4/CyBle_hids.c ****                 CYBLE_GATT_INVALID_ATTR_HANDLE_VALUE, /* Handle of the Report Reference descriptor 
  51:.\Generated_Source\PSoC4/CyBle_hids.c ****             },
  52:.\Generated_Source\PSoC4/CyBle_hids.c ****             {
  53:.\Generated_Source\PSoC4/CyBle_hids.c ****                 CYBLE_GATT_INVALID_ATTR_HANDLE_VALUE, /* Handle of the Report characteristic value 
  54:.\Generated_Source\PSoC4/CyBle_hids.c ****                 CYBLE_GATT_INVALID_ATTR_HANDLE_VALUE, /* Handle of the Client Characteristic Config
  55:.\Generated_Source\PSoC4/CyBle_hids.c ****                 CYBLE_GATT_INVALID_ATTR_HANDLE_VALUE, /* Handle of the Report Reference descriptor 
  56:.\Generated_Source\PSoC4/CyBle_hids.c ****             },
  57:.\Generated_Source\PSoC4/CyBle_hids.c ****         }, /* Information about boot report characteristics */ 
  58:.\Generated_Source\PSoC4/CyBle_hids.c ****         0x000Eu, /* Handle of the Report Map characteristic */ 
  59:.\Generated_Source\PSoC4/CyBle_hids.c ****         CYBLE_GATT_INVALID_ATTR_HANDLE_VALUE, /* Handle of the Report Map External Report Reference
  60:.\Generated_Source\PSoC4/CyBle_hids.c ****         0x0014u, /* Handle of the HID Information characteristic */ 
  61:.\Generated_Source\PSoC4/CyBle_hids.c ****         0x0016u, /* Handle of the HID Control Point characteristic */ 
  62:.\Generated_Source\PSoC4/CyBle_hids.c ****     },
  63:.\Generated_Source\PSoC4/CyBle_hids.c **** };
  64:.\Generated_Source\PSoC4/CyBle_hids.c **** 
  65:.\Generated_Source\PSoC4/CyBle_hids.c **** /* Local function prototypes */
  66:.\Generated_Source\PSoC4/CyBle_hids.c **** static uint32 CyBle_HidssCccdWriteEventHandler(uint8 serviceIndex, const CYBLE_GATTS_WRITE_REQ_PARA
  67:.\Generated_Source\PSoC4/CyBle_hids.c **** 
  68:.\Generated_Source\PSoC4/CyBle_hids.c **** #endif /* CYBLE_HIDS_SERVER */
  69:.\Generated_Source\PSoC4/CyBle_hids.c **** 
  70:.\Generated_Source\PSoC4/CyBle_hids.c **** #ifdef CYBLE_HIDS_CLIENT
  71:.\Generated_Source\PSoC4/CyBle_hids.c **** 
  72:.\Generated_Source\PSoC4/CyBle_hids.c ****     CYBLE_HIDSC_T cyBle_hidsc[CYBLE_HIDSC_SERVICE_COUNT];
  73:.\Generated_Source\PSoC4/CyBle_hids.c ****     static CYBLE_GATT_DB_ATTR_HANDLE_T cyBle_hidscReqHandle;
  74:.\Generated_Source\PSoC4/CyBle_hids.c ****     uint8 cyBle_hidscServiceCount;
  75:.\Generated_Source\PSoC4/CyBle_hids.c **** 
  76:.\Generated_Source\PSoC4/CyBle_hids.c **** #endif /* CYBLE_HIDS_CLIENT */
  77:.\Generated_Source\PSoC4/CyBle_hids.c **** 
  78:.\Generated_Source\PSoC4/CyBle_hids.c **** 
  79:.\Generated_Source\PSoC4/CyBle_hids.c **** /****************************************************************************** 
  80:.\Generated_Source\PSoC4/CyBle_hids.c **** * Function Name: CyBle_HidsInit
  81:.\Generated_Source\PSoC4/CyBle_hids.c **** ***************************************************************************//**
  82:.\Generated_Source\PSoC4/CyBle_hids.c **** * 
  83:.\Generated_Source\PSoC4/CyBle_hids.c **** *  This function initializes the HID Service.
  84:.\Generated_Source\PSoC4/CyBle_hids.c **** * 
  85:.\Generated_Source\PSoC4/CyBle_hids.c **** * \return
  86:.\Generated_Source\PSoC4/CyBle_hids.c **** *  None
  87:.\Generated_Source\PSoC4/CyBle_hids.c **** * 
  88:.\Generated_Source\PSoC4/CyBle_hids.c **** ******************************************************************************/
  89:.\Generated_Source\PSoC4/CyBle_hids.c **** void CyBle_HidsInit(void)
  90:.\Generated_Source\PSoC4/CyBle_hids.c **** {
ARM GAS  C:\Users\ADMINI~1\AppData\Local\Temp\cc7miFwc.s 			page 3


  91:.\Generated_Source\PSoC4/CyBle_hids.c **** 
  92:.\Generated_Source\PSoC4/CyBle_hids.c **** #ifdef CYBLE_HIDS_CLIENT
  93:.\Generated_Source\PSoC4/CyBle_hids.c **** 
  94:.\Generated_Source\PSoC4/CyBle_hids.c ****     uint8 locServIndex;
  95:.\Generated_Source\PSoC4/CyBle_hids.c ****     for(locServIndex = 0u; locServIndex < CYBLE_HIDSC_SERVICE_COUNT; locServIndex++)
  96:.\Generated_Source\PSoC4/CyBle_hids.c ****     {
  97:.\Generated_Source\PSoC4/CyBle_hids.c ****         if(cyBle_serverInfo[CYBLE_SRVI_HIDS + locServIndex].range.startHandle == CYBLE_GATT_INVALID
  98:.\Generated_Source\PSoC4/CyBle_hids.c ****         {
  99:.\Generated_Source\PSoC4/CyBle_hids.c ****             (void)memset(&cyBle_hidsc[locServIndex], 0, sizeof(cyBle_hidsc[locServIndex]));
 100:.\Generated_Source\PSoC4/CyBle_hids.c ****         }
 101:.\Generated_Source\PSoC4/CyBle_hids.c ****     }
 102:.\Generated_Source\PSoC4/CyBle_hids.c ****     cyBle_hidscReqHandle = CYBLE_GATT_INVALID_ATTR_HANDLE_VALUE;
 103:.\Generated_Source\PSoC4/CyBle_hids.c ****     cyBle_hidscServiceCount = 0u;
 104:.\Generated_Source\PSoC4/CyBle_hids.c **** 
 105:.\Generated_Source\PSoC4/CyBle_hids.c **** #endif /* CYBLE_HIDS_CLIENT */
 106:.\Generated_Source\PSoC4/CyBle_hids.c **** }
 107:.\Generated_Source\PSoC4/CyBle_hids.c **** 
 108:.\Generated_Source\PSoC4/CyBle_hids.c **** 
 109:.\Generated_Source\PSoC4/CyBle_hids.c **** /****************************************************************************** 
 110:.\Generated_Source\PSoC4/CyBle_hids.c **** * Function Name: CyBle_HidsRegisterAttrCallback
 111:.\Generated_Source\PSoC4/CyBle_hids.c **** ***************************************************************************//**
 112:.\Generated_Source\PSoC4/CyBle_hids.c **** * 
 113:.\Generated_Source\PSoC4/CyBle_hids.c **** *  Registers a callback function for service specific attribute operations.
 114:.\Generated_Source\PSoC4/CyBle_hids.c **** *  Service specific write requests from peer device will not be handled with
 115:.\Generated_Source\PSoC4/CyBle_hids.c **** *  unregistered callback function.
 116:.\Generated_Source\PSoC4/CyBle_hids.c **** * 
 117:.\Generated_Source\PSoC4/CyBle_hids.c **** *  \param callbackFunc: An application layer event callback function to receive 
 118:.\Generated_Source\PSoC4/CyBle_hids.c **** *                    events from the BLE Component. The definition of 
 119:.\Generated_Source\PSoC4/CyBle_hids.c **** *                    CYBLE_CALLBACK_T for HID Service is:\n
 120:.\Generated_Source\PSoC4/CyBle_hids.c **** *                    typedef void (* CYBLE_CALLBACK_T) (uint32 eventCode, 
 121:.\Generated_Source\PSoC4/CyBle_hids.c **** *                                                       void *eventParam)
 122:.\Generated_Source\PSoC4/CyBle_hids.c **** *                    * eventCode indicates the event that triggered this 
 123:.\Generated_Source\PSoC4/CyBle_hids.c **** *                      callback (e.g. CYBLE_EVT_HIDS_NOTIFICATION_ENABLED).
 124:.\Generated_Source\PSoC4/CyBle_hids.c **** *                    * eventParam contains the parameters corresponding to the 
 125:.\Generated_Source\PSoC4/CyBle_hids.c **** *                      current event. (e.g. pointer to CYBLE_HIDS_CHAR_VALUE_T
 126:.\Generated_Source\PSoC4/CyBle_hids.c **** *                      structure that contains details of the characteristic for 
 127:.\Generated_Source\PSoC4/CyBle_hids.c **** *                      which notification enabled event was triggered).
 128:.\Generated_Source\PSoC4/CyBle_hids.c **** *
 129:.\Generated_Source\PSoC4/CyBle_hids.c **** * \return
 130:.\Generated_Source\PSoC4/CyBle_hids.c **** *  None
 131:.\Generated_Source\PSoC4/CyBle_hids.c **** *
 132:.\Generated_Source\PSoC4/CyBle_hids.c **** * \events
 133:.\Generated_Source\PSoC4/CyBle_hids.c **** *  None
 134:.\Generated_Source\PSoC4/CyBle_hids.c **** *
 135:.\Generated_Source\PSoC4/CyBle_hids.c **** * \sideeffect The *eventParams in the callback function should not be used by 
 136:.\Generated_Source\PSoC4/CyBle_hids.c **** *                the application once the callback function execution is finished.
 137:.\Generated_Source\PSoC4/CyBle_hids.c **** *                Otherwise this data may become corrupted.
 138:.\Generated_Source\PSoC4/CyBle_hids.c **** * 
 139:.\Generated_Source\PSoC4/CyBle_hids.c **** ******************************************************************************/
 140:.\Generated_Source\PSoC4/CyBle_hids.c **** void CyBle_HidsRegisterAttrCallback(CYBLE_CALLBACK_T callbackFunc)
 141:.\Generated_Source\PSoC4/CyBle_hids.c **** {
 142:.\Generated_Source\PSoC4/CyBle_hids.c ****     CyBle_HidsApplCallback = callbackFunc;
 143:.\Generated_Source\PSoC4/CyBle_hids.c **** }
 144:.\Generated_Source\PSoC4/CyBle_hids.c **** 
 145:.\Generated_Source\PSoC4/CyBle_hids.c **** #ifdef CYBLE_HIDS_SERVER
 146:.\Generated_Source\PSoC4/CyBle_hids.c **** 
 147:.\Generated_Source\PSoC4/CyBle_hids.c **** 
ARM GAS  C:\Users\ADMINI~1\AppData\Local\Temp\cc7miFwc.s 			page 4


 148:.\Generated_Source\PSoC4/CyBle_hids.c **** /****************************************************************************** 
 149:.\Generated_Source\PSoC4/CyBle_hids.c **** * Function Name: CyBle_HidssSetCharacteristicValue
 150:.\Generated_Source\PSoC4/CyBle_hids.c **** ***************************************************************************//**
 151:.\Generated_Source\PSoC4/CyBle_hids.c **** * 
 152:.\Generated_Source\PSoC4/CyBle_hids.c **** *  Sets local characteristic value of the specified HID Service characteristics.
 153:.\Generated_Source\PSoC4/CyBle_hids.c **** * 
 154:.\Generated_Source\PSoC4/CyBle_hids.c **** *  \param serviceIndex: The index of the service instance. e.g. If two HID Services are 
 155:.\Generated_Source\PSoC4/CyBle_hids.c **** *                 supported in your design, then first service will be identified
 156:.\Generated_Source\PSoC4/CyBle_hids.c **** *                 by serviceIndex of 0 and the second by serviceIndex of 1.
 157:.\Generated_Source\PSoC4/CyBle_hids.c **** *  \param charIndex: The index of a service characteristic.
 158:.\Generated_Source\PSoC4/CyBle_hids.c **** *              * CYBLE_HIDS_PROTOCOL_MODE - Protocol Mode characteristic
 159:.\Generated_Source\PSoC4/CyBle_hids.c **** *              * CYBLE_HIDS_REPORT_MAP - Report Map characteristic
 160:.\Generated_Source\PSoC4/CyBle_hids.c **** *              * CYBLE_HIDS_INFORMATION - HID Information characteristic
 161:.\Generated_Source\PSoC4/CyBle_hids.c **** *              * CYBLE_HIDS_CONTROL_POINT - HID Control Point characteristic
 162:.\Generated_Source\PSoC4/CyBle_hids.c **** *              * CYBLE_HIDS_BOOT_KYBRD_IN_REP - Boot Keyboard Input Report Characteristic
 163:.\Generated_Source\PSoC4/CyBle_hids.c **** *              * CYBLE_HIDS_BOOT_KYBRD_OUT_REP - Boot Keyboard Output Report Characteristic
 164:.\Generated_Source\PSoC4/CyBle_hids.c **** *              * CYBLE_HIDS_BOOT_MOUSE_IN_REP - Boot Mouse Input Report Characteristic
 165:.\Generated_Source\PSoC4/CyBle_hids.c **** *              * CYBLE_HIDS_REPORT - Report Characteristic
 166:.\Generated_Source\PSoC4/CyBle_hids.c **** * 
 167:.\Generated_Source\PSoC4/CyBle_hids.c **** *  \param attrSize: The size of the characteristic value attribute.
 168:.\Generated_Source\PSoC4/CyBle_hids.c **** * 
 169:.\Generated_Source\PSoC4/CyBle_hids.c **** *  \param attrValue: The pointer to the characteristic value data that should be 
 170:.\Generated_Source\PSoC4/CyBle_hids.c **** *               stored in the GATT database.
 171:.\Generated_Source\PSoC4/CyBle_hids.c **** * 
 172:.\Generated_Source\PSoC4/CyBle_hids.c **** * \return
 173:.\Generated_Source\PSoC4/CyBle_hids.c **** *  Return value is of type CYBLE_API_RESULT_T.
 174:.\Generated_Source\PSoC4/CyBle_hids.c **** *  * CYBLE_ERROR_OK - The request handled successfully.
 175:.\Generated_Source\PSoC4/CyBle_hids.c **** *  * CYBLE_ERROR_INVALID_PARAMETER - Validation of the input parameter failed.
 176:.\Generated_Source\PSoC4/CyBle_hids.c **** *  * CYBLE_ERROR_GATT_DB_INVALID_ATTR_HANDLE - Optional characteristic is absent
 177:.\Generated_Source\PSoC4/CyBle_hids.c **** *
 178:.\Generated_Source\PSoC4/CyBle_hids.c **** * \events
 179:.\Generated_Source\PSoC4/CyBle_hids.c **** *  None
 180:.\Generated_Source\PSoC4/CyBle_hids.c **** *
 181:.\Generated_Source\PSoC4/CyBle_hids.c **** ******************************************************************************/
 182:.\Generated_Source\PSoC4/CyBle_hids.c **** CYBLE_API_RESULT_T CyBle_HidssSetCharacteristicValue(uint8 serviceIndex, CYBLE_HIDS_CHAR_INDEX_T ch
 183:.\Generated_Source\PSoC4/CyBle_hids.c ****     uint8 attrSize, uint8 *attrValue)
 184:.\Generated_Source\PSoC4/CyBle_hids.c **** {
 185:.\Generated_Source\PSoC4/CyBle_hids.c ****     CYBLE_API_RESULT_T apiResult = CYBLE_ERROR_OK;
 186:.\Generated_Source\PSoC4/CyBle_hids.c ****     CYBLE_GATT_DB_ATTR_HANDLE_T charValueHandle;
 187:.\Generated_Source\PSoC4/CyBle_hids.c ****     CYBLE_GATT_HANDLE_VALUE_PAIR_T locHandleValuePair;
 188:.\Generated_Source\PSoC4/CyBle_hids.c **** 
 189:.\Generated_Source\PSoC4/CyBle_hids.c ****     if((serviceIndex >= CYBLE_HIDSS_SERVICE_COUNT) || (charIndex >= CYBLE_HIDS_CHAR_COUNT))
 190:.\Generated_Source\PSoC4/CyBle_hids.c ****     {
 191:.\Generated_Source\PSoC4/CyBle_hids.c ****         apiResult = CYBLE_ERROR_INVALID_PARAMETER;
 192:.\Generated_Source\PSoC4/CyBle_hids.c ****     }
 193:.\Generated_Source\PSoC4/CyBle_hids.c ****     else
 194:.\Generated_Source\PSoC4/CyBle_hids.c ****     {
 195:.\Generated_Source\PSoC4/CyBle_hids.c ****         switch(charIndex)
 196:.\Generated_Source\PSoC4/CyBle_hids.c ****         {
 197:.\Generated_Source\PSoC4/CyBle_hids.c ****             case CYBLE_HIDS_PROTOCOL_MODE:
 198:.\Generated_Source\PSoC4/CyBle_hids.c ****                 charValueHandle = cyBle_hidss[serviceIndex].protocolModeHandle;
 199:.\Generated_Source\PSoC4/CyBle_hids.c ****                 break;
 200:.\Generated_Source\PSoC4/CyBle_hids.c ****             case CYBLE_HIDS_REPORT_MAP:
 201:.\Generated_Source\PSoC4/CyBle_hids.c ****                 charValueHandle = cyBle_hidss[serviceIndex].reportMapHandle;
 202:.\Generated_Source\PSoC4/CyBle_hids.c ****                 break;
 203:.\Generated_Source\PSoC4/CyBle_hids.c ****             case CYBLE_HIDS_INFORMATION:
 204:.\Generated_Source\PSoC4/CyBle_hids.c ****                 charValueHandle = cyBle_hidss[serviceIndex].informationHandle;
ARM GAS  C:\Users\ADMINI~1\AppData\Local\Temp\cc7miFwc.s 			page 5


 205:.\Generated_Source\PSoC4/CyBle_hids.c ****                 break;
 206:.\Generated_Source\PSoC4/CyBle_hids.c ****             case CYBLE_HIDS_CONTROL_POINT:
 207:.\Generated_Source\PSoC4/CyBle_hids.c ****                 charValueHandle = cyBle_hidss[serviceIndex].controlPointHandle;
 208:.\Generated_Source\PSoC4/CyBle_hids.c ****                 break;
 209:.\Generated_Source\PSoC4/CyBle_hids.c ****             case CYBLE_HIDS_BOOT_KYBRD_IN_REP:
 210:.\Generated_Source\PSoC4/CyBle_hids.c ****                 charValueHandle = cyBle_hidss[serviceIndex].bootReportArray[CYBLE_HIDS_BOOT_KYBRD_I
 211:.\Generated_Source\PSoC4/CyBle_hids.c ****                     reportHandle;
 212:.\Generated_Source\PSoC4/CyBle_hids.c ****                 break;
 213:.\Generated_Source\PSoC4/CyBle_hids.c ****             case CYBLE_HIDS_BOOT_KYBRD_OUT_REP:
 214:.\Generated_Source\PSoC4/CyBle_hids.c ****                 charValueHandle = cyBle_hidss[serviceIndex].bootReportArray[CYBLE_HIDS_BOOT_KYBRD_O
 215:.\Generated_Source\PSoC4/CyBle_hids.c ****                     reportHandle;
 216:.\Generated_Source\PSoC4/CyBle_hids.c ****                 break;
 217:.\Generated_Source\PSoC4/CyBle_hids.c ****             case CYBLE_HIDS_BOOT_MOUSE_IN_REP:
 218:.\Generated_Source\PSoC4/CyBle_hids.c ****                 charValueHandle = cyBle_hidss[serviceIndex].bootReportArray[CYBLE_HIDS_BOOT_MOUSE_I
 219:.\Generated_Source\PSoC4/CyBle_hids.c ****                     reportHandle;
 220:.\Generated_Source\PSoC4/CyBle_hids.c ****                 break;
 221:.\Generated_Source\PSoC4/CyBle_hids.c ****             default:                    /* Report characteristic */
 222:.\Generated_Source\PSoC4/CyBle_hids.c ****                 /* Verify that requested report exists in particular service */
 223:.\Generated_Source\PSoC4/CyBle_hids.c ****                 if((charIndex - CYBLE_HIDS_REPORT) < cyBle_hidss[serviceIndex].reportCount)
 224:.\Generated_Source\PSoC4/CyBle_hids.c ****                 {
 225:.\Generated_Source\PSoC4/CyBle_hids.c ****                     charValueHandle = cyBle_hidss[serviceIndex].reportArray[charIndex - CYBLE_HIDS_
 226:.\Generated_Source\PSoC4/CyBle_hids.c ****                 }
 227:.\Generated_Source\PSoC4/CyBle_hids.c ****                 else
 228:.\Generated_Source\PSoC4/CyBle_hids.c ****                 {
 229:.\Generated_Source\PSoC4/CyBle_hids.c ****                     charValueHandle = CYBLE_GATT_INVALID_ATTR_HANDLE_VALUE;
 230:.\Generated_Source\PSoC4/CyBle_hids.c ****                 }
 231:.\Generated_Source\PSoC4/CyBle_hids.c ****                 break;
 232:.\Generated_Source\PSoC4/CyBle_hids.c ****         }
 233:.\Generated_Source\PSoC4/CyBle_hids.c ****         if(charValueHandle == CYBLE_GATT_INVALID_ATTR_HANDLE_VALUE)
 234:.\Generated_Source\PSoC4/CyBle_hids.c ****         {
 235:.\Generated_Source\PSoC4/CyBle_hids.c ****             apiResult = CYBLE_ERROR_GATT_DB_INVALID_ATTR_HANDLE;
 236:.\Generated_Source\PSoC4/CyBle_hids.c ****         }
 237:.\Generated_Source\PSoC4/CyBle_hids.c ****         else
 238:.\Generated_Source\PSoC4/CyBle_hids.c ****         {
 239:.\Generated_Source\PSoC4/CyBle_hids.c ****             /* Store data in database */
 240:.\Generated_Source\PSoC4/CyBle_hids.c ****             locHandleValuePair.attrHandle = charValueHandle;
 241:.\Generated_Source\PSoC4/CyBle_hids.c ****             locHandleValuePair.value.len = attrSize;
 242:.\Generated_Source\PSoC4/CyBle_hids.c ****             locHandleValuePair.value.val = attrValue;
 243:.\Generated_Source\PSoC4/CyBle_hids.c **** 
 244:.\Generated_Source\PSoC4/CyBle_hids.c ****             if(CYBLE_GATT_ERR_NONE !=
 245:.\Generated_Source\PSoC4/CyBle_hids.c ****                 CyBle_GattsWriteAttributeValue(&locHandleValuePair, 0u, NULL, CYBLE_GATT_DB_LOCALLY
 246:.\Generated_Source\PSoC4/CyBle_hids.c ****             {
 247:.\Generated_Source\PSoC4/CyBle_hids.c ****                 apiResult = CYBLE_ERROR_INVALID_PARAMETER;
 248:.\Generated_Source\PSoC4/CyBle_hids.c ****             }
 249:.\Generated_Source\PSoC4/CyBle_hids.c ****         }
 250:.\Generated_Source\PSoC4/CyBle_hids.c ****     }
 251:.\Generated_Source\PSoC4/CyBle_hids.c ****     return (apiResult);
 252:.\Generated_Source\PSoC4/CyBle_hids.c **** }
 253:.\Generated_Source\PSoC4/CyBle_hids.c **** 
 254:.\Generated_Source\PSoC4/CyBle_hids.c **** 
 255:.\Generated_Source\PSoC4/CyBle_hids.c **** /****************************************************************************** 
 256:.\Generated_Source\PSoC4/CyBle_hids.c **** * Function Name: CyBle_HidssGetCharacteristicValue
 257:.\Generated_Source\PSoC4/CyBle_hids.c **** ***************************************************************************//**
 258:.\Generated_Source\PSoC4/CyBle_hids.c **** * 
 259:.\Generated_Source\PSoC4/CyBle_hids.c **** *  Gets local characteristic value of the specified HID Service characteristics.
 260:.\Generated_Source\PSoC4/CyBle_hids.c **** * 
 261:.\Generated_Source\PSoC4/CyBle_hids.c **** *  \param serviceIndex: The index of the service instance. e.g. If two HID Services are 
ARM GAS  C:\Users\ADMINI~1\AppData\Local\Temp\cc7miFwc.s 			page 6


 262:.\Generated_Source\PSoC4/CyBle_hids.c **** *                 supported in your design, then first service will be identified
 263:.\Generated_Source\PSoC4/CyBle_hids.c **** *                 by serviceIndex of 0 and the second by serviceIndex of 1.
 264:.\Generated_Source\PSoC4/CyBle_hids.c **** * 
 265:.\Generated_Source\PSoC4/CyBle_hids.c **** *  \param charIndex: The index of the service characteristic. 
 266:.\Generated_Source\PSoC4/CyBle_hids.c **** *              * CYBLE_HIDS_PROTOCOL_MODE - Protocol Mode characteristic
 267:.\Generated_Source\PSoC4/CyBle_hids.c **** *              * CYBLE_HIDS_REPORT_MAP - Report Map characteristic
 268:.\Generated_Source\PSoC4/CyBle_hids.c **** *              * CYBLE_HIDS_INFORMATION - HID Information characteristic
 269:.\Generated_Source\PSoC4/CyBle_hids.c **** *              * CYBLE_HIDS_CONTROL_POINT - HID Control Point characteristic
 270:.\Generated_Source\PSoC4/CyBle_hids.c **** *              * CYBLE_HIDS_BOOT_KYBRD_IN_REP - Boot Keyboard Input Report Characteristic
 271:.\Generated_Source\PSoC4/CyBle_hids.c **** *              * CYBLE_HIDS_BOOT_KYBRD_OUT_REP - Boot Keyboard Output Report Characteristic
 272:.\Generated_Source\PSoC4/CyBle_hids.c **** *              * CYBLE_HIDS_BOOT_MOUSE_IN_REP - Boot Mouse Input Report Characteristic
 273:.\Generated_Source\PSoC4/CyBle_hids.c **** *              * CYBLE_HIDS_REPORT - Report Characteristic
 274:.\Generated_Source\PSoC4/CyBle_hids.c **** * 
 275:.\Generated_Source\PSoC4/CyBle_hids.c **** *  \param attrSize: The size of the characteristic value attribute.
 276:.\Generated_Source\PSoC4/CyBle_hids.c **** * 
 277:.\Generated_Source\PSoC4/CyBle_hids.c **** *  \param attrValue: The pointer to the location where characteristic value data
 278:.\Generated_Source\PSoC4/CyBle_hids.c **** *               should be stored.
 279:.\Generated_Source\PSoC4/CyBle_hids.c **** * 
 280:.\Generated_Source\PSoC4/CyBle_hids.c **** * \return
 281:.\Generated_Source\PSoC4/CyBle_hids.c **** *  Return value is of type CYBLE_API_RESULT_T.
 282:.\Generated_Source\PSoC4/CyBle_hids.c **** *  * CYBLE_ERROR_OK - The request handled successfully
 283:.\Generated_Source\PSoC4/CyBle_hids.c **** *  * CYBLE_ERROR_INVALID_PARAMETER - Validation of the input parameter failed
 284:.\Generated_Source\PSoC4/CyBle_hids.c **** *  * CYBLE_ERROR_GATT_DB_INVALID_ATTR_HANDLE - Optional characteristic is absent
 285:.\Generated_Source\PSoC4/CyBle_hids.c **** *
 286:.\Generated_Source\PSoC4/CyBle_hids.c **** * \events
 287:.\Generated_Source\PSoC4/CyBle_hids.c **** *  None
 288:.\Generated_Source\PSoC4/CyBle_hids.c **** *
 289:.\Generated_Source\PSoC4/CyBle_hids.c **** ******************************************************************************/
 290:.\Generated_Source\PSoC4/CyBle_hids.c **** CYBLE_API_RESULT_T CyBle_HidssGetCharacteristicValue(uint8 serviceIndex, CYBLE_HIDS_CHAR_INDEX_T ch
 291:.\Generated_Source\PSoC4/CyBle_hids.c ****     uint8 attrSize, uint8 *attrValue)
 292:.\Generated_Source\PSoC4/CyBle_hids.c **** {
 293:.\Generated_Source\PSoC4/CyBle_hids.c ****     CYBLE_API_RESULT_T apiResult = CYBLE_ERROR_OK;
 294:.\Generated_Source\PSoC4/CyBle_hids.c ****     CYBLE_GATT_DB_ATTR_HANDLE_T charValueHandle;
 295:.\Generated_Source\PSoC4/CyBle_hids.c ****     CYBLE_GATT_HANDLE_VALUE_PAIR_T locHandleValuePair;
 296:.\Generated_Source\PSoC4/CyBle_hids.c **** 
 297:.\Generated_Source\PSoC4/CyBle_hids.c ****     if((serviceIndex >= CYBLE_HIDSS_SERVICE_COUNT) || (charIndex >= CYBLE_HIDS_CHAR_COUNT))
 298:.\Generated_Source\PSoC4/CyBle_hids.c ****     {
 299:.\Generated_Source\PSoC4/CyBle_hids.c ****         apiResult = CYBLE_ERROR_INVALID_PARAMETER;
 300:.\Generated_Source\PSoC4/CyBle_hids.c ****     }
 301:.\Generated_Source\PSoC4/CyBle_hids.c ****     else
 302:.\Generated_Source\PSoC4/CyBle_hids.c ****     {
 303:.\Generated_Source\PSoC4/CyBle_hids.c ****         switch(charIndex)
 304:.\Generated_Source\PSoC4/CyBle_hids.c ****         {
 305:.\Generated_Source\PSoC4/CyBle_hids.c ****             case CYBLE_HIDS_PROTOCOL_MODE:
 306:.\Generated_Source\PSoC4/CyBle_hids.c ****                 charValueHandle = cyBle_hidss[serviceIndex].protocolModeHandle;
 307:.\Generated_Source\PSoC4/CyBle_hids.c ****                 break;
 308:.\Generated_Source\PSoC4/CyBle_hids.c ****             case CYBLE_HIDS_REPORT_MAP:
 309:.\Generated_Source\PSoC4/CyBle_hids.c ****                 charValueHandle = cyBle_hidss[serviceIndex].reportMapHandle;
 310:.\Generated_Source\PSoC4/CyBle_hids.c ****                 break;
 311:.\Generated_Source\PSoC4/CyBle_hids.c ****             case CYBLE_HIDS_INFORMATION:
 312:.\Generated_Source\PSoC4/CyBle_hids.c ****                 charValueHandle = cyBle_hidss[serviceIndex].informationHandle;
 313:.\Generated_Source\PSoC4/CyBle_hids.c ****                 break;
 314:.\Generated_Source\PSoC4/CyBle_hids.c ****             case CYBLE_HIDS_CONTROL_POINT:
 315:.\Generated_Source\PSoC4/CyBle_hids.c ****                 charValueHandle = cyBle_hidss[serviceIndex].controlPointHandle;
 316:.\Generated_Source\PSoC4/CyBle_hids.c ****                 break;
 317:.\Generated_Source\PSoC4/CyBle_hids.c ****             case CYBLE_HIDS_BOOT_KYBRD_IN_REP:
 318:.\Generated_Source\PSoC4/CyBle_hids.c ****                 charValueHandle =
ARM GAS  C:\Users\ADMINI~1\AppData\Local\Temp\cc7miFwc.s 			page 7


 319:.\Generated_Source\PSoC4/CyBle_hids.c ****                     cyBle_hidss[serviceIndex].bootReportArray[CYBLE_HIDS_BOOT_KYBRD_IN_REP_INDX].re
 320:.\Generated_Source\PSoC4/CyBle_hids.c ****                 break;
 321:.\Generated_Source\PSoC4/CyBle_hids.c ****             case CYBLE_HIDS_BOOT_KYBRD_OUT_REP:
 322:.\Generated_Source\PSoC4/CyBle_hids.c ****                 charValueHandle =
 323:.\Generated_Source\PSoC4/CyBle_hids.c ****                     cyBle_hidss[serviceIndex].bootReportArray[CYBLE_HIDS_BOOT_KYBRD_OUT_REP_INDX].r
 324:.\Generated_Source\PSoC4/CyBle_hids.c ****                 break;
 325:.\Generated_Source\PSoC4/CyBle_hids.c ****             case CYBLE_HIDS_BOOT_MOUSE_IN_REP:
 326:.\Generated_Source\PSoC4/CyBle_hids.c ****                 charValueHandle =
 327:.\Generated_Source\PSoC4/CyBle_hids.c ****                     cyBle_hidss[serviceIndex].bootReportArray[CYBLE_HIDS_BOOT_MOUSE_IN_REP_INDX].re
 328:.\Generated_Source\PSoC4/CyBle_hids.c ****                 break;
 329:.\Generated_Source\PSoC4/CyBle_hids.c ****             default:                    /* Report characteristic */
 330:.\Generated_Source\PSoC4/CyBle_hids.c ****                 /* Verify that requested report exists in particular service */
 331:.\Generated_Source\PSoC4/CyBle_hids.c ****                 if((charIndex - CYBLE_HIDS_REPORT) < cyBle_hidss[serviceIndex].reportCount)
 332:.\Generated_Source\PSoC4/CyBle_hids.c ****                 {
 333:.\Generated_Source\PSoC4/CyBle_hids.c ****                     charValueHandle = cyBle_hidss[serviceIndex].reportArray[charIndex - CYBLE_HIDS_
 334:.\Generated_Source\PSoC4/CyBle_hids.c ****                 }
 335:.\Generated_Source\PSoC4/CyBle_hids.c ****                 else
 336:.\Generated_Source\PSoC4/CyBle_hids.c ****                 {
 337:.\Generated_Source\PSoC4/CyBle_hids.c ****                     charValueHandle = CYBLE_GATT_INVALID_ATTR_HANDLE_VALUE;
 338:.\Generated_Source\PSoC4/CyBle_hids.c ****                 }
 339:.\Generated_Source\PSoC4/CyBle_hids.c ****                 break;
 340:.\Generated_Source\PSoC4/CyBle_hids.c ****         }
 341:.\Generated_Source\PSoC4/CyBle_hids.c **** 
 342:.\Generated_Source\PSoC4/CyBle_hids.c ****         if(charValueHandle == CYBLE_GATT_INVALID_ATTR_HANDLE_VALUE)
 343:.\Generated_Source\PSoC4/CyBle_hids.c ****         {
 344:.\Generated_Source\PSoC4/CyBle_hids.c ****             apiResult = CYBLE_ERROR_GATT_DB_INVALID_ATTR_HANDLE;
 345:.\Generated_Source\PSoC4/CyBle_hids.c ****         }
 346:.\Generated_Source\PSoC4/CyBle_hids.c ****         else
 347:.\Generated_Source\PSoC4/CyBle_hids.c ****         {
 348:.\Generated_Source\PSoC4/CyBle_hids.c ****             /* Read characteristic value from database */
 349:.\Generated_Source\PSoC4/CyBle_hids.c ****             locHandleValuePair.attrHandle = charValueHandle;
 350:.\Generated_Source\PSoC4/CyBle_hids.c ****             locHandleValuePair.value.len = attrSize;
 351:.\Generated_Source\PSoC4/CyBle_hids.c ****             locHandleValuePair.value.val = attrValue;
 352:.\Generated_Source\PSoC4/CyBle_hids.c ****             if(CYBLE_GATT_ERR_NONE !=
 353:.\Generated_Source\PSoC4/CyBle_hids.c ****                 CyBle_GattsReadAttributeValue(&locHandleValuePair, NULL, CYBLE_GATT_DB_LOCALLY_INIT
 354:.\Generated_Source\PSoC4/CyBle_hids.c ****             {
 355:.\Generated_Source\PSoC4/CyBle_hids.c ****                 apiResult = CYBLE_ERROR_INVALID_PARAMETER;
 356:.\Generated_Source\PSoC4/CyBle_hids.c ****             }
 357:.\Generated_Source\PSoC4/CyBle_hids.c ****         }
 358:.\Generated_Source\PSoC4/CyBle_hids.c ****     }
 359:.\Generated_Source\PSoC4/CyBle_hids.c ****     return (apiResult);
 360:.\Generated_Source\PSoC4/CyBle_hids.c **** }
 361:.\Generated_Source\PSoC4/CyBle_hids.c **** 
 362:.\Generated_Source\PSoC4/CyBle_hids.c **** 
 363:.\Generated_Source\PSoC4/CyBle_hids.c **** /****************************************************************************** 
 364:.\Generated_Source\PSoC4/CyBle_hids.c **** * Function Name: CyBle_HidssGetCharacteristicDescriptor
 365:.\Generated_Source\PSoC4/CyBle_hids.c **** ***************************************************************************//**
 366:.\Generated_Source\PSoC4/CyBle_hids.c **** * 
 367:.\Generated_Source\PSoC4/CyBle_hids.c **** *  Gets local characteristic descriptor of the specified HID Service 
 368:.\Generated_Source\PSoC4/CyBle_hids.c **** *  characteristic.
 369:.\Generated_Source\PSoC4/CyBle_hids.c **** * 
 370:.\Generated_Source\PSoC4/CyBle_hids.c **** *  \param serviceIndex: The index of the service instance. e.g. If two HID Services are 
 371:.\Generated_Source\PSoC4/CyBle_hids.c **** *                 supported in your design, then first service will be identified
 372:.\Generated_Source\PSoC4/CyBle_hids.c **** *                 by serviceIndex of 0 and the second by serviceIndex of 1.
 373:.\Generated_Source\PSoC4/CyBle_hids.c **** * 
 374:.\Generated_Source\PSoC4/CyBle_hids.c **** *  \param charIndex: The index of the characteristic.
 375:.\Generated_Source\PSoC4/CyBle_hids.c **** *              * CYBLE_HIDS_REPORT_MAP          - Report Map Characteristic
ARM GAS  C:\Users\ADMINI~1\AppData\Local\Temp\cc7miFwc.s 			page 8


 376:.\Generated_Source\PSoC4/CyBle_hids.c **** *              * CYBLE_HIDS_BOOT_KYBRD_IN_REP   - Boot Keyboard Input Report Characteristic
 377:.\Generated_Source\PSoC4/CyBle_hids.c **** *              * CYBLE_HIDS_BOOT_KYBRD_OUT_REP  - Boot Keyboard Output Report Characteristic
 378:.\Generated_Source\PSoC4/CyBle_hids.c **** *              * CYBLE_HIDS_BOOT_MOUSE_IN_REP   - Boot Mouse Input Report Characteristic
 379:.\Generated_Source\PSoC4/CyBle_hids.c **** *              * CYBLE_HIDS_REPORT              - Report Characteristic
 380:.\Generated_Source\PSoC4/CyBle_hids.c **** * 
 381:.\Generated_Source\PSoC4/CyBle_hids.c **** *  \param descrIndex: The index of the descriptor.
 382:.\Generated_Source\PSoC4/CyBle_hids.c **** *               * CYBLE_HIDS_REPORT_CCCD - Client Characteristic Configuration descriptor
 383:.\Generated_Source\PSoC4/CyBle_hids.c **** *               * CYBLE_HIDS_REPORT_RRD - Report Reference descriptor
 384:.\Generated_Source\PSoC4/CyBle_hids.c **** *               * CYBLE_HIDS_REPORT_MAP_ERRD - Report Map External Report Reference descriptor
 385:.\Generated_Source\PSoC4/CyBle_hids.c **** * 
 386:.\Generated_Source\PSoC4/CyBle_hids.c **** *  \param attrSize: The size of the descriptor value attribute.
 387:.\Generated_Source\PSoC4/CyBle_hids.c **** * 
 388:.\Generated_Source\PSoC4/CyBle_hids.c **** *  \param attrValue: The pointer to the location where characteristic descriptor
 389:.\Generated_Source\PSoC4/CyBle_hids.c **** *               value data should be stored.
 390:.\Generated_Source\PSoC4/CyBle_hids.c **** * 
 391:.\Generated_Source\PSoC4/CyBle_hids.c **** * \return
 392:.\Generated_Source\PSoC4/CyBle_hids.c **** *  Return value is of type CYBLE_API_RESULT_T.
 393:.\Generated_Source\PSoC4/CyBle_hids.c **** *  * CYBLE_ERROR_OK - The request handled successfully
 394:.\Generated_Source\PSoC4/CyBle_hids.c **** *  * CYBLE_ERROR_INVALID_PARAMETER - Validation of the input parameter failed
 395:.\Generated_Source\PSoC4/CyBle_hids.c **** *  * CYBLE_ERROR_GATT_DB_INVALID_ATTR_HANDLE - Optional descriptor is absent
 396:.\Generated_Source\PSoC4/CyBle_hids.c **** *
 397:.\Generated_Source\PSoC4/CyBle_hids.c **** * \events
 398:.\Generated_Source\PSoC4/CyBle_hids.c **** *  None
 399:.\Generated_Source\PSoC4/CyBle_hids.c **** *
 400:.\Generated_Source\PSoC4/CyBle_hids.c **** ******************************************************************************/
 401:.\Generated_Source\PSoC4/CyBle_hids.c **** CYBLE_API_RESULT_T CyBle_HidssGetCharacteristicDescriptor(uint8 serviceIndex, CYBLE_HIDS_CHAR_INDEX
 402:.\Generated_Source\PSoC4/CyBle_hids.c ****     CYBLE_HIDS_DESCR_T descrIndex, uint8 attrSize, uint8 *attrValue)
 403:.\Generated_Source\PSoC4/CyBle_hids.c **** {
 404:.\Generated_Source\PSoC4/CyBle_hids.c ****     CYBLE_API_RESULT_T apiResult = CYBLE_ERROR_OK;
 405:.\Generated_Source\PSoC4/CyBle_hids.c ****     CYBLE_GATT_DB_ATTR_HANDLE_T locDescrHandle = CYBLE_GATT_INVALID_ATTR_HANDLE_VALUE;
 406:.\Generated_Source\PSoC4/CyBle_hids.c ****     const CYBLE_HIDSS_REPORT_T *locReport;
 407:.\Generated_Source\PSoC4/CyBle_hids.c ****     CYBLE_GATT_HANDLE_VALUE_PAIR_T locHandleValuePair;
 408:.\Generated_Source\PSoC4/CyBle_hids.c **** 
 409:.\Generated_Source\PSoC4/CyBle_hids.c ****     if((serviceIndex >= CYBLE_HIDSS_SERVICE_COUNT) || (descrIndex >= CYBLE_HIDS_DESCR_COUNT) ||
 410:.\Generated_Source\PSoC4/CyBle_hids.c ****        (charIndex >= CYBLE_HIDS_CHAR_COUNT) || (charIndex < CYBLE_HIDS_REPORT_MAP) || 
 411:.\Generated_Source\PSoC4/CyBle_hids.c ****        (charIndex == CYBLE_HIDS_BOOT_KYBRD_OUT_REP))
 412:.\Generated_Source\PSoC4/CyBle_hids.c ****     {
 413:.\Generated_Source\PSoC4/CyBle_hids.c ****         apiResult = CYBLE_ERROR_INVALID_PARAMETER;
 414:.\Generated_Source\PSoC4/CyBle_hids.c ****     }
 415:.\Generated_Source\PSoC4/CyBle_hids.c ****     else
 416:.\Generated_Source\PSoC4/CyBle_hids.c ****     {
 417:.\Generated_Source\PSoC4/CyBle_hids.c ****         if(charIndex == CYBLE_HIDS_REPORT_MAP)
 418:.\Generated_Source\PSoC4/CyBle_hids.c ****         {
 419:.\Generated_Source\PSoC4/CyBle_hids.c ****             if(descrIndex == CYBLE_HIDS_REPORT_MAP_ERRD)
 420:.\Generated_Source\PSoC4/CyBle_hids.c ****             {
 421:.\Generated_Source\PSoC4/CyBle_hids.c ****                 locDescrHandle = cyBle_hidss[serviceIndex].reportMapErrdHandle;
 422:.\Generated_Source\PSoC4/CyBle_hids.c ****             }
 423:.\Generated_Source\PSoC4/CyBle_hids.c ****             else
 424:.\Generated_Source\PSoC4/CyBle_hids.c ****             {
 425:.\Generated_Source\PSoC4/CyBle_hids.c ****                 apiResult = CYBLE_ERROR_INVALID_PARAMETER;
 426:.\Generated_Source\PSoC4/CyBle_hids.c ****             }
 427:.\Generated_Source\PSoC4/CyBle_hids.c ****         }
 428:.\Generated_Source\PSoC4/CyBle_hids.c ****         else /* Report characteristics */
 429:.\Generated_Source\PSoC4/CyBle_hids.c ****         {
 430:.\Generated_Source\PSoC4/CyBle_hids.c ****             /* Get report structure */
 431:.\Generated_Source\PSoC4/CyBle_hids.c ****             if((charIndex >= CYBLE_HIDS_BOOT_KYBRD_IN_REP) && (charIndex <= CYBLE_HIDS_BOOT_MOUSE_I
 432:.\Generated_Source\PSoC4/CyBle_hids.c ****             {
ARM GAS  C:\Users\ADMINI~1\AppData\Local\Temp\cc7miFwc.s 			page 9


 433:.\Generated_Source\PSoC4/CyBle_hids.c ****                 locReport = &cyBle_hidss[serviceIndex].bootReportArray[charIndex - CYBLE_HIDS_BOOT_
 434:.\Generated_Source\PSoC4/CyBle_hids.c ****             }
 435:.\Generated_Source\PSoC4/CyBle_hids.c ****             else
 436:.\Generated_Source\PSoC4/CyBle_hids.c ****             {
 437:.\Generated_Source\PSoC4/CyBle_hids.c ****                 locReport = &cyBle_hidss[serviceIndex].reportArray[charIndex - CYBLE_HIDS_REPORT];
 438:.\Generated_Source\PSoC4/CyBle_hids.c ****             }
 439:.\Generated_Source\PSoC4/CyBle_hids.c ****             /* Get descriptor handle from report structure */
 440:.\Generated_Source\PSoC4/CyBle_hids.c ****             if(descrIndex == CYBLE_HIDS_REPORT_CCCD)
 441:.\Generated_Source\PSoC4/CyBle_hids.c ****             {
 442:.\Generated_Source\PSoC4/CyBle_hids.c ****                 locDescrHandle = locReport->cccdHandle;
 443:.\Generated_Source\PSoC4/CyBle_hids.c ****             }
 444:.\Generated_Source\PSoC4/CyBle_hids.c ****             else if(descrIndex == CYBLE_HIDS_REPORT_RRD)
 445:.\Generated_Source\PSoC4/CyBle_hids.c ****             {
 446:.\Generated_Source\PSoC4/CyBle_hids.c ****                 locDescrHandle = locReport->rrdHandle;
 447:.\Generated_Source\PSoC4/CyBle_hids.c ****             }
 448:.\Generated_Source\PSoC4/CyBle_hids.c ****             else /* External Report Reference descriptor doesn't exist for report characteristic */
 449:.\Generated_Source\PSoC4/CyBle_hids.c ****             {
 450:.\Generated_Source\PSoC4/CyBle_hids.c ****                 apiResult = CYBLE_ERROR_INVALID_PARAMETER;
 451:.\Generated_Source\PSoC4/CyBle_hids.c ****             }
 452:.\Generated_Source\PSoC4/CyBle_hids.c ****         }
 453:.\Generated_Source\PSoC4/CyBle_hids.c ****     }
 454:.\Generated_Source\PSoC4/CyBle_hids.c ****     if(apiResult != CYBLE_ERROR_INVALID_PARAMETER)
 455:.\Generated_Source\PSoC4/CyBle_hids.c ****     {
 456:.\Generated_Source\PSoC4/CyBle_hids.c ****         if(locDescrHandle == CYBLE_GATT_INVALID_ATTR_HANDLE_VALUE)
 457:.\Generated_Source\PSoC4/CyBle_hids.c ****         {
 458:.\Generated_Source\PSoC4/CyBle_hids.c ****             apiResult = CYBLE_ERROR_GATT_DB_INVALID_ATTR_HANDLE;
 459:.\Generated_Source\PSoC4/CyBle_hids.c ****         }
 460:.\Generated_Source\PSoC4/CyBle_hids.c ****         else
 461:.\Generated_Source\PSoC4/CyBle_hids.c ****         {
 462:.\Generated_Source\PSoC4/CyBle_hids.c ****             /* Read value from database */
 463:.\Generated_Source\PSoC4/CyBle_hids.c ****             locHandleValuePair.attrHandle = locDescrHandle;
 464:.\Generated_Source\PSoC4/CyBle_hids.c ****             locHandleValuePair.value.len = attrSize;
 465:.\Generated_Source\PSoC4/CyBle_hids.c ****             locHandleValuePair.value.val = attrValue;
 466:.\Generated_Source\PSoC4/CyBle_hids.c ****             if(CYBLE_GATT_ERR_NONE !=
 467:.\Generated_Source\PSoC4/CyBle_hids.c ****                 CyBle_GattsReadAttributeValue(&locHandleValuePair, NULL, CYBLE_GATT_DB_LOCALLY_INIT
 468:.\Generated_Source\PSoC4/CyBle_hids.c ****             {
 469:.\Generated_Source\PSoC4/CyBle_hids.c ****                 apiResult = CYBLE_ERROR_INVALID_PARAMETER;
 470:.\Generated_Source\PSoC4/CyBle_hids.c ****             }
 471:.\Generated_Source\PSoC4/CyBle_hids.c ****         }
 472:.\Generated_Source\PSoC4/CyBle_hids.c ****     }
 473:.\Generated_Source\PSoC4/CyBle_hids.c ****     return (apiResult);
 474:.\Generated_Source\PSoC4/CyBle_hids.c **** }
 475:.\Generated_Source\PSoC4/CyBle_hids.c **** 
 476:.\Generated_Source\PSoC4/CyBle_hids.c **** 
 477:.\Generated_Source\PSoC4/CyBle_hids.c **** /****************************************************************************** 
 478:.\Generated_Source\PSoC4/CyBle_hids.c **** * Function Name: CyBle_HidssCccdWriteEventHandler
 479:.\Generated_Source\PSoC4/CyBle_hids.c **** ***************************************************************************//**
 480:.\Generated_Source\PSoC4/CyBle_hids.c **** * 
 481:.\Generated_Source\PSoC4/CyBle_hids.c **** *  Handles the Write Request Event of the Client Characteristic Configuration
 482:.\Generated_Source\PSoC4/CyBle_hids.c **** *  descriptor.
 483:.\Generated_Source\PSoC4/CyBle_hids.c **** * 
 484:.\Generated_Source\PSoC4/CyBle_hids.c **** *  \param serviceIndex: The index of the service instance.
 485:.\Generated_Source\PSoC4/CyBle_hids.c **** *  \param charIndex: The index of the characteristic.
 486:.\Generated_Source\PSoC4/CyBle_hids.c **** *  \param eventParam: The pointer to the data structure specified by the event.
 487:.\Generated_Source\PSoC4/CyBle_hids.c **** * 
 488:.\Generated_Source\PSoC4/CyBle_hids.c **** * \return
 489:.\Generated_Source\PSoC4/CyBle_hids.c **** *  uint32 eventCode: The event code to be send to application.
ARM GAS  C:\Users\ADMINI~1\AppData\Local\Temp\cc7miFwc.s 			page 10


 490:.\Generated_Source\PSoC4/CyBle_hids.c **** * 
 491:.\Generated_Source\PSoC4/CyBle_hids.c **** ******************************************************************************/
 492:.\Generated_Source\PSoC4/CyBle_hids.c **** static uint32 CyBle_HidssCccdWriteEventHandler(uint8 serviceIndex, const CYBLE_GATTS_WRITE_REQ_PARA
 493:.\Generated_Source\PSoC4/CyBle_hids.c **** {
  25              		.loc 1 493 0
  26              		.cfi_startproc
  27              	.LVL0:
  28 0000 08B5     		push	{r3, lr}
  29              		.cfi_def_cfa_offset 8
  30              		.cfi_offset 3, -8
  31              		.cfi_offset 14, -4
 494:.\Generated_Source\PSoC4/CyBle_hids.c ****     uint32 eventCode;
 495:.\Generated_Source\PSoC4/CyBle_hids.c **** 
 496:.\Generated_Source\PSoC4/CyBle_hids.c ****     if(CYBLE_IS_NOTIFICATION_ENABLED_IN_PTR(eventParam->handleValPair.value.val))
  32              		.loc 1 496 0
  33 0002 4868     		ldr	r0, [r1, #4]
  34              	.LVL1:
  35 0004 FFF7FEFF 		bl	CyBle_Get16ByPtr
  36              	.LVL2:
  37 0008 C307     		lsl	r3, r0, #31
  38 000a 02D5     		bpl	.L4
 497:.\Generated_Source\PSoC4/CyBle_hids.c ****     {
 498:.\Generated_Source\PSoC4/CyBle_hids.c ****         eventCode = (uint32)CYBLE_EVT_HIDSS_NOTIFICATION_ENABLED;
  39              		.loc 1 498 0
  40 000c C420     		mov	r0, #196
  41 000e 4000     		lsl	r0, r0, #1
  42 0010 01E0     		b	.L2
  43              	.L4:
 499:.\Generated_Source\PSoC4/CyBle_hids.c ****     }
 500:.\Generated_Source\PSoC4/CyBle_hids.c ****     else
 501:.\Generated_Source\PSoC4/CyBle_hids.c ****     {
 502:.\Generated_Source\PSoC4/CyBle_hids.c ****         eventCode = (uint32)CYBLE_EVT_HIDSS_NOTIFICATION_DISABLED;
  44              		.loc 1 502 0
  45 0012 8A20     		mov	r0, #138
  46 0014 FF30     		add	r0, r0, #255
  47              	.L2:
  48              	.LVL3:
 503:.\Generated_Source\PSoC4/CyBle_hids.c ****     }
 504:.\Generated_Source\PSoC4/CyBle_hids.c ****     cyBle_eventHandlerFlag &= (uint8)~CYBLE_CALLBACK;
  49              		.loc 1 504 0
  50 0016 074A     		ldr	r2, .L5
  51 0018 1378     		ldrb	r3, [r2]
  52 001a 0121     		mov	r1, #1
  53 001c 8B43     		bic	r3, r1
  54 001e 1370     		strb	r3, [r2]
 505:.\Generated_Source\PSoC4/CyBle_hids.c ****     
 506:.\Generated_Source\PSoC4/CyBle_hids.c **** #if((CYBLE_GAP_ROLE_PERIPHERAL || CYBLE_GAP_ROLE_CENTRAL) && (CYBLE_BONDING_REQUIREMENT == CYBLE_BO
 507:.\Generated_Source\PSoC4/CyBle_hids.c ****     /* Set flag to store bonding data to flash */
 508:.\Generated_Source\PSoC4/CyBle_hids.c ****     if(cyBle_peerBonding == CYBLE_GAP_BONDING)
  55              		.loc 1 508 0
  56 0020 054B     		ldr	r3, .L5+4
  57 0022 1B78     		ldrb	r3, [r3]
  58 0024 012B     		cmp	r3, #1
  59 0026 04D1     		bne	.L3
 509:.\Generated_Source\PSoC4/CyBle_hids.c ****     {
 510:.\Generated_Source\PSoC4/CyBle_hids.c ****         cyBle_pendingFlashWrite |= CYBLE_PENDING_CCCD_FLASH_WRITE_BIT;
  60              		.loc 1 510 0
ARM GAS  C:\Users\ADMINI~1\AppData\Local\Temp\cc7miFwc.s 			page 11


  61 0028 044A     		ldr	r2, .L5+8
  62 002a 1178     		ldrb	r1, [r2]
  63 002c 0223     		mov	r3, #2
  64 002e 0B43     		orr	r3, r1
  65 0030 1370     		strb	r3, [r2]
  66              	.L3:
 511:.\Generated_Source\PSoC4/CyBle_hids.c ****     }
 512:.\Generated_Source\PSoC4/CyBle_hids.c **** #endif /* (CYBLE_BONDING_REQUIREMENT == CYBLE_BONDING_YES) */
 513:.\Generated_Source\PSoC4/CyBle_hids.c **** 
 514:.\Generated_Source\PSoC4/CyBle_hids.c ****     return(eventCode);
 515:.\Generated_Source\PSoC4/CyBle_hids.c **** }
  67              		.loc 1 515 0
  68              		@ sp needed
  69 0032 08BD     		pop	{r3, pc}
  70              	.L6:
  71              		.align	2
  72              	.L5:
  73 0034 00000000 		.word	cyBle_eventHandlerFlag
  74 0038 00000000 		.word	cyBle_peerBonding
  75 003c 00000000 		.word	cyBle_pendingFlashWrite
  76              		.cfi_endproc
  77              	.LFE7:
  78              		.size	CyBle_HidssCccdWriteEventHandler, .-CyBle_HidssCccdWriteEventHandler
  79              		.section	.text.CyBle_HidsInit,"ax",%progbits
  80              		.align	2
  81              		.global	CyBle_HidsInit
  82              		.code	16
  83              		.thumb_func
  84              		.type	CyBle_HidsInit, %function
  85              	CyBle_HidsInit:
  86              	.LFB2:
  90:.\Generated_Source\PSoC4/CyBle_hids.c **** 
  87              		.loc 1 90 0
  88              		.cfi_startproc
 106:.\Generated_Source\PSoC4/CyBle_hids.c **** 
  89              		.loc 1 106 0
  90              		@ sp needed
  91 0000 7047     		bx	lr
  92              		.cfi_endproc
  93              	.LFE2:
  94              		.size	CyBle_HidsInit, .-CyBle_HidsInit
  95 0002 C046     		.section	.text.CyBle_HidsRegisterAttrCallback,"ax",%progbits
  96              		.align	2
  97              		.global	CyBle_HidsRegisterAttrCallback
  98              		.code	16
  99              		.thumb_func
 100              		.type	CyBle_HidsRegisterAttrCallback, %function
 101              	CyBle_HidsRegisterAttrCallback:
 102              	.LFB3:
 141:.\Generated_Source\PSoC4/CyBle_hids.c ****     CyBle_HidsApplCallback = callbackFunc;
 103              		.loc 1 141 0
 104              		.cfi_startproc
 105              	.LVL4:
 142:.\Generated_Source\PSoC4/CyBle_hids.c **** }
 106              		.loc 1 142 0
 107 0000 014B     		ldr	r3, .L9
 108 0002 1860     		str	r0, [r3]
ARM GAS  C:\Users\ADMINI~1\AppData\Local\Temp\cc7miFwc.s 			page 12


 143:.\Generated_Source\PSoC4/CyBle_hids.c **** 
 109              		.loc 1 143 0
 110              		@ sp needed
 111 0004 7047     		bx	lr
 112              	.L10:
 113 0006 C046     		.align	2
 114              	.L9:
 115 0008 00000000 		.word	.LANCHOR0
 116              		.cfi_endproc
 117              	.LFE3:
 118              		.size	CyBle_HidsRegisterAttrCallback, .-CyBle_HidsRegisterAttrCallback
 119              		.section	.text.CyBle_HidssSetCharacteristicValue,"ax",%progbits
 120              		.align	2
 121              		.global	CyBle_HidssSetCharacteristicValue
 122              		.code	16
 123              		.thumb_func
 124              		.type	CyBle_HidssSetCharacteristicValue, %function
 125              	CyBle_HidssSetCharacteristicValue:
 126              	.LFB4:
 184:.\Generated_Source\PSoC4/CyBle_hids.c ****     CYBLE_API_RESULT_T apiResult = CYBLE_ERROR_OK;
 127              		.loc 1 184 0
 128              		.cfi_startproc
 129              	.LVL5:
 130 0000 70B5     		push	{r4, r5, r6, lr}
 131              		.cfi_def_cfa_offset 16
 132              		.cfi_offset 4, -16
 133              		.cfi_offset 5, -12
 134              		.cfi_offset 6, -8
 135              		.cfi_offset 14, -4
 136 0002 84B0     		sub	sp, sp, #16
 137              		.cfi_def_cfa_offset 32
 138              	.LVL6:
 189:.\Generated_Source\PSoC4/CyBle_hids.c ****     {
 139              		.loc 1 189 0
 140 0004 0028     		cmp	r0, #0
 141 0006 5BD1     		bne	.L23
 189:.\Generated_Source\PSoC4/CyBle_hids.c ****     {
 142              		.loc 1 189 0 is_stmt 0 discriminator 1
 143 0008 0829     		cmp	r1, #8
 144 000a 5BD8     		bhi	.L24
 195:.\Generated_Source\PSoC4/CyBle_hids.c ****         {
 145              		.loc 1 195 0 is_stmt 1
 146 000c 0629     		cmp	r1, #6
 147 000e 34D8     		bhi	.L13
 148 0010 8900     		lsl	r1, r1, #2
 149              	.LVL7:
 150 0012 304C     		ldr	r4, .L28
 151 0014 6158     		ldr	r1, [r4, r1]
 152 0016 8F46     		mov	pc, r1
 153              		.section	.rodata
 154              		.align	2
 155              	.L15:
 156 0000 18000000 		.word	.L14
 157 0004 34000000 		.word	.L16
 158 0008 42000000 		.word	.L17
 159 000c 26000000 		.word	.L18
 160 0010 50000000 		.word	.L19
ARM GAS  C:\Users\ADMINI~1\AppData\Local\Temp\cc7miFwc.s 			page 13


 161 0014 5E000000 		.word	.L20
 162 0018 6C000000 		.word	.L21
 163              		.section	.text.CyBle_HidssSetCharacteristicValue
 164              	.L14:
 198:.\Generated_Source\PSoC4/CyBle_hids.c ****                 break;
 165              		.loc 1 198 0
 166 0018 8100     		lsl	r1, r0, #2
 167 001a 0818     		add	r0, r1, r0
 168              	.LVL8:
 169 001c C000     		lsl	r0, r0, #3
 170 001e 2E49     		ldr	r1, .L28+4
 171 0020 0818     		add	r0, r1, r0
 172 0022 4188     		ldrh	r1, [r0, #2]
 173              	.LVL9:
 199:.\Generated_Source\PSoC4/CyBle_hids.c ****             case CYBLE_HIDS_REPORT_MAP:
 174              		.loc 1 199 0
 175 0024 3EE0     		b	.L22
 176              	.LVL10:
 177              	.L18:
 201:.\Generated_Source\PSoC4/CyBle_hids.c ****                 break;
 178              		.loc 1 201 0
 179 0026 8100     		lsl	r1, r0, #2
 180 0028 0818     		add	r0, r1, r0
 181              	.LVL11:
 182 002a C000     		lsl	r0, r0, #3
 183 002c 2A49     		ldr	r1, .L28+4
 184 002e 0818     		add	r0, r1, r0
 185 0030 C18B     		ldrh	r1, [r0, #30]
 186              	.LVL12:
 202:.\Generated_Source\PSoC4/CyBle_hids.c ****             case CYBLE_HIDS_INFORMATION:
 187              		.loc 1 202 0
 188 0032 37E0     		b	.L22
 189              	.LVL13:
 190              	.L16:
 204:.\Generated_Source\PSoC4/CyBle_hids.c ****                 break;
 191              		.loc 1 204 0
 192 0034 8100     		lsl	r1, r0, #2
 193 0036 0818     		add	r0, r1, r0
 194              	.LVL14:
 195 0038 C000     		lsl	r0, r0, #3
 196 003a 2749     		ldr	r1, .L28+4
 197 003c 0818     		add	r0, r1, r0
 198 003e 418C     		ldrh	r1, [r0, #34]
 199              	.LVL15:
 205:.\Generated_Source\PSoC4/CyBle_hids.c ****             case CYBLE_HIDS_CONTROL_POINT:
 200              		.loc 1 205 0
 201 0040 30E0     		b	.L22
 202              	.LVL16:
 203              	.L17:
 207:.\Generated_Source\PSoC4/CyBle_hids.c ****                 break;
 204              		.loc 1 207 0
 205 0042 8100     		lsl	r1, r0, #2
 206 0044 0818     		add	r0, r1, r0
 207              	.LVL17:
 208 0046 C000     		lsl	r0, r0, #3
 209 0048 2349     		ldr	r1, .L28+4
 210 004a 0818     		add	r0, r1, r0
ARM GAS  C:\Users\ADMINI~1\AppData\Local\Temp\cc7miFwc.s 			page 14


 211 004c 818C     		ldrh	r1, [r0, #36]
 212              	.LVL18:
 208:.\Generated_Source\PSoC4/CyBle_hids.c ****             case CYBLE_HIDS_BOOT_KYBRD_IN_REP:
 213              		.loc 1 208 0
 214 004e 29E0     		b	.L22
 215              	.LVL19:
 216              	.L19:
 210:.\Generated_Source\PSoC4/CyBle_hids.c ****                     reportHandle;
 217              		.loc 1 210 0
 218 0050 8100     		lsl	r1, r0, #2
 219 0052 0818     		add	r0, r1, r0
 220              	.LVL20:
 221 0054 C000     		lsl	r0, r0, #3
 222 0056 2049     		ldr	r1, .L28+4
 223 0058 0818     		add	r0, r1, r0
 224 005a 8189     		ldrh	r1, [r0, #12]
 225              	.LVL21:
 212:.\Generated_Source\PSoC4/CyBle_hids.c ****             case CYBLE_HIDS_BOOT_KYBRD_OUT_REP:
 226              		.loc 1 212 0
 227 005c 22E0     		b	.L22
 228              	.LVL22:
 229              	.L20:
 214:.\Generated_Source\PSoC4/CyBle_hids.c ****                     reportHandle;
 230              		.loc 1 214 0
 231 005e 8100     		lsl	r1, r0, #2
 232 0060 0818     		add	r0, r1, r0
 233              	.LVL23:
 234 0062 C000     		lsl	r0, r0, #3
 235 0064 1C49     		ldr	r1, .L28+4
 236 0066 0818     		add	r0, r1, r0
 237 0068 418A     		ldrh	r1, [r0, #18]
 238              	.LVL24:
 216:.\Generated_Source\PSoC4/CyBle_hids.c ****             case CYBLE_HIDS_BOOT_MOUSE_IN_REP:
 239              		.loc 1 216 0
 240 006a 1BE0     		b	.L22
 241              	.LVL25:
 242              	.L21:
 218:.\Generated_Source\PSoC4/CyBle_hids.c ****                     reportHandle;
 243              		.loc 1 218 0
 244 006c 8100     		lsl	r1, r0, #2
 245 006e 0818     		add	r0, r1, r0
 246              	.LVL26:
 247 0070 C000     		lsl	r0, r0, #3
 248 0072 1949     		ldr	r1, .L28+4
 249 0074 0818     		add	r0, r1, r0
 250 0076 018B     		ldrh	r1, [r0, #24]
 251              	.LVL27:
 220:.\Generated_Source\PSoC4/CyBle_hids.c ****             default:                    /* Report characteristic */
 252              		.loc 1 220 0
 253 0078 14E0     		b	.L22
 254              	.LVL28:
 255              	.L13:
 223:.\Generated_Source\PSoC4/CyBle_hids.c ****                 {
 256              		.loc 1 223 0
 257 007a CD1F     		sub	r5, r1, #7
 258 007c 8400     		lsl	r4, r0, #2
 259 007e 2418     		add	r4, r4, r0
ARM GAS  C:\Users\ADMINI~1\AppData\Local\Temp\cc7miFwc.s 			page 15


 260 0080 E400     		lsl	r4, r4, #3
 261 0082 154E     		ldr	r6, .L28+4
 262 0084 3419     		add	r4, r6, r4
 263 0086 2479     		ldrb	r4, [r4, #4]
 264 0088 A542     		cmp	r5, r4
 265 008a 0ADA     		bge	.L25
 225:.\Generated_Source\PSoC4/CyBle_hids.c ****                 }
 266              		.loc 1 225 0
 267 008c 8400     		lsl	r4, r0, #2
 268 008e 2018     		add	r0, r4, r0
 269              	.LVL29:
 270 0090 C000     		lsl	r0, r0, #3
 271 0092 3018     		add	r0, r6, r0
 272 0094 8068     		ldr	r0, [r0, #8]
 273 0096 4C00     		lsl	r4, r1, #1
 274 0098 6118     		add	r1, r4, r1
 275              	.LVL30:
 276 009a 4900     		lsl	r1, r1, #1
 277 009c 2A39     		sub	r1, r1, #42
 278 009e 415A     		ldrh	r1, [r0, r1]
 279              	.LVL31:
 280 00a0 00E0     		b	.L22
 281              	.LVL32:
 282              	.L25:
 229:.\Generated_Source\PSoC4/CyBle_hids.c ****                 }
 283              		.loc 1 229 0
 284 00a2 0021     		mov	r1, #0
 285              	.LVL33:
 286              	.L22:
 233:.\Generated_Source\PSoC4/CyBle_hids.c ****         {
 287              		.loc 1 233 0
 288 00a4 0029     		cmp	r1, #0
 289 00a6 0FD0     		beq	.L26
 240:.\Generated_Source\PSoC4/CyBle_hids.c ****             locHandleValuePair.value.len = attrSize;
 290              		.loc 1 240 0
 291 00a8 01A8     		add	r0, sp, #4
 292 00aa 0181     		strh	r1, [r0, #8]
 241:.\Generated_Source\PSoC4/CyBle_hids.c ****             locHandleValuePair.value.val = attrValue;
 293              		.loc 1 241 0
 294 00ac 8280     		strh	r2, [r0, #4]
 242:.\Generated_Source\PSoC4/CyBle_hids.c **** 
 295              		.loc 1 242 0
 296 00ae 0193     		str	r3, [sp, #4]
 245:.\Generated_Source\PSoC4/CyBle_hids.c ****             {
 297              		.loc 1 245 0
 298 00b0 0021     		mov	r1, #0
 299              	.LVL34:
 300 00b2 0022     		mov	r2, #0
 301              	.LVL35:
 302 00b4 0023     		mov	r3, #0
 303              	.LVL36:
 304 00b6 FFF7FEFF 		bl	CyBle_GattsWriteAttributeValue
 305              	.LVL37:
 244:.\Generated_Source\PSoC4/CyBle_hids.c ****                 CyBle_GattsWriteAttributeValue(&locHandleValuePair, 0u, NULL, CYBLE_GATT_DB_LOCALLY
 306              		.loc 1 244 0
 307 00ba 0028     		cmp	r0, #0
 308 00bc 06D1     		bne	.L27
ARM GAS  C:\Users\ADMINI~1\AppData\Local\Temp\cc7miFwc.s 			page 16


 309 00be 06E0     		b	.L12
 310              	.LVL38:
 311              	.L23:
 191:.\Generated_Source\PSoC4/CyBle_hids.c ****     }
 312              		.loc 1 191 0
 313 00c0 0120     		mov	r0, #1
 314              	.LVL39:
 315 00c2 04E0     		b	.L12
 316              	.LVL40:
 317              	.L24:
 318 00c4 0120     		mov	r0, #1
 319              	.LVL41:
 320 00c6 02E0     		b	.L12
 321              	.LVL42:
 322              	.L26:
 235:.\Generated_Source\PSoC4/CyBle_hids.c ****         }
 323              		.loc 1 235 0
 324 00c8 1320     		mov	r0, #19
 325 00ca 00E0     		b	.L12
 326              	.LVL43:
 327              	.L27:
 247:.\Generated_Source\PSoC4/CyBle_hids.c ****             }
 328              		.loc 1 247 0
 329 00cc 0120     		mov	r0, #1
 330              	.L12:
 331              	.LVL44:
 252:.\Generated_Source\PSoC4/CyBle_hids.c **** 
 332              		.loc 1 252 0
 333 00ce 04B0     		add	sp, sp, #16
 334              		@ sp needed
 335 00d0 70BD     		pop	{r4, r5, r6, pc}
 336              	.L29:
 337 00d2 C046     		.align	2
 338              	.L28:
 339 00d4 00000000 		.word	.L15
 340 00d8 38000000 		.word	.LANCHOR1
 341              		.cfi_endproc
 342              	.LFE4:
 343              		.size	CyBle_HidssSetCharacteristicValue, .-CyBle_HidssSetCharacteristicValue
 344              		.section	.text.CyBle_HidssGetCharacteristicValue,"ax",%progbits
 345              		.align	2
 346              		.global	CyBle_HidssGetCharacteristicValue
 347              		.code	16
 348              		.thumb_func
 349              		.type	CyBle_HidssGetCharacteristicValue, %function
 350              	CyBle_HidssGetCharacteristicValue:
 351              	.LFB5:
 292:.\Generated_Source\PSoC4/CyBle_hids.c ****     CYBLE_API_RESULT_T apiResult = CYBLE_ERROR_OK;
 352              		.loc 1 292 0
 353              		.cfi_startproc
 354              	.LVL45:
 355 0000 70B5     		push	{r4, r5, r6, lr}
 356              		.cfi_def_cfa_offset 16
 357              		.cfi_offset 4, -16
 358              		.cfi_offset 5, -12
 359              		.cfi_offset 6, -8
 360              		.cfi_offset 14, -4
ARM GAS  C:\Users\ADMINI~1\AppData\Local\Temp\cc7miFwc.s 			page 17


 361 0002 84B0     		sub	sp, sp, #16
 362              		.cfi_def_cfa_offset 32
 363              	.LVL46:
 297:.\Generated_Source\PSoC4/CyBle_hids.c ****     {
 364              		.loc 1 297 0
 365 0004 0028     		cmp	r0, #0
 366 0006 5AD1     		bne	.L42
 297:.\Generated_Source\PSoC4/CyBle_hids.c ****     {
 367              		.loc 1 297 0 is_stmt 0 discriminator 1
 368 0008 0829     		cmp	r1, #8
 369 000a 5AD8     		bhi	.L43
 303:.\Generated_Source\PSoC4/CyBle_hids.c ****         {
 370              		.loc 1 303 0 is_stmt 1
 371 000c 0629     		cmp	r1, #6
 372 000e 34D8     		bhi	.L32
 373 0010 8900     		lsl	r1, r1, #2
 374              	.LVL47:
 375 0012 2F4C     		ldr	r4, .L47
 376 0014 6158     		ldr	r1, [r4, r1]
 377 0016 8F46     		mov	pc, r1
 378              		.section	.rodata
 379              		.align	2
 380              	.L34:
 381 001c 18000000 		.word	.L33
 382 0020 34000000 		.word	.L35
 383 0024 42000000 		.word	.L36
 384 0028 26000000 		.word	.L37
 385 002c 50000000 		.word	.L38
 386 0030 5E000000 		.word	.L39
 387 0034 6C000000 		.word	.L40
 388              		.section	.text.CyBle_HidssGetCharacteristicValue
 389              	.L33:
 306:.\Generated_Source\PSoC4/CyBle_hids.c ****                 break;
 390              		.loc 1 306 0
 391 0018 8100     		lsl	r1, r0, #2
 392 001a 0818     		add	r0, r1, r0
 393              	.LVL48:
 394 001c C000     		lsl	r0, r0, #3
 395 001e 2D49     		ldr	r1, .L47+4
 396 0020 0818     		add	r0, r1, r0
 397 0022 4188     		ldrh	r1, [r0, #2]
 398              	.LVL49:
 307:.\Generated_Source\PSoC4/CyBle_hids.c ****             case CYBLE_HIDS_REPORT_MAP:
 399              		.loc 1 307 0
 400 0024 3EE0     		b	.L41
 401              	.LVL50:
 402              	.L37:
 309:.\Generated_Source\PSoC4/CyBle_hids.c ****                 break;
 403              		.loc 1 309 0
 404 0026 8100     		lsl	r1, r0, #2
 405 0028 0818     		add	r0, r1, r0
 406              	.LVL51:
 407 002a C000     		lsl	r0, r0, #3
 408 002c 2949     		ldr	r1, .L47+4
 409 002e 0818     		add	r0, r1, r0
 410 0030 C18B     		ldrh	r1, [r0, #30]
 411              	.LVL52:
ARM GAS  C:\Users\ADMINI~1\AppData\Local\Temp\cc7miFwc.s 			page 18


 310:.\Generated_Source\PSoC4/CyBle_hids.c ****             case CYBLE_HIDS_INFORMATION:
 412              		.loc 1 310 0
 413 0032 37E0     		b	.L41
 414              	.LVL53:
 415              	.L35:
 312:.\Generated_Source\PSoC4/CyBle_hids.c ****                 break;
 416              		.loc 1 312 0
 417 0034 8100     		lsl	r1, r0, #2
 418 0036 0818     		add	r0, r1, r0
 419              	.LVL54:
 420 0038 C000     		lsl	r0, r0, #3
 421 003a 2649     		ldr	r1, .L47+4
 422 003c 0818     		add	r0, r1, r0
 423 003e 418C     		ldrh	r1, [r0, #34]
 424              	.LVL55:
 313:.\Generated_Source\PSoC4/CyBle_hids.c ****             case CYBLE_HIDS_CONTROL_POINT:
 425              		.loc 1 313 0
 426 0040 30E0     		b	.L41
 427              	.LVL56:
 428              	.L36:
 315:.\Generated_Source\PSoC4/CyBle_hids.c ****                 break;
 429              		.loc 1 315 0
 430 0042 8100     		lsl	r1, r0, #2
 431 0044 0818     		add	r0, r1, r0
 432              	.LVL57:
 433 0046 C000     		lsl	r0, r0, #3
 434 0048 2249     		ldr	r1, .L47+4
 435 004a 0818     		add	r0, r1, r0
 436 004c 818C     		ldrh	r1, [r0, #36]
 437              	.LVL58:
 316:.\Generated_Source\PSoC4/CyBle_hids.c ****             case CYBLE_HIDS_BOOT_KYBRD_IN_REP:
 438              		.loc 1 316 0
 439 004e 29E0     		b	.L41
 440              	.LVL59:
 441              	.L38:
 318:.\Generated_Source\PSoC4/CyBle_hids.c ****                     cyBle_hidss[serviceIndex].bootReportArray[CYBLE_HIDS_BOOT_KYBRD_IN_REP_INDX].re
 442              		.loc 1 318 0
 443 0050 8100     		lsl	r1, r0, #2
 444 0052 0818     		add	r0, r1, r0
 445              	.LVL60:
 446 0054 C000     		lsl	r0, r0, #3
 447 0056 1F49     		ldr	r1, .L47+4
 448 0058 0818     		add	r0, r1, r0
 449 005a 8189     		ldrh	r1, [r0, #12]
 450              	.LVL61:
 320:.\Generated_Source\PSoC4/CyBle_hids.c ****             case CYBLE_HIDS_BOOT_KYBRD_OUT_REP:
 451              		.loc 1 320 0
 452 005c 22E0     		b	.L41
 453              	.LVL62:
 454              	.L39:
 322:.\Generated_Source\PSoC4/CyBle_hids.c ****                     cyBle_hidss[serviceIndex].bootReportArray[CYBLE_HIDS_BOOT_KYBRD_OUT_REP_INDX].r
 455              		.loc 1 322 0
 456 005e 8100     		lsl	r1, r0, #2
 457 0060 0818     		add	r0, r1, r0
 458              	.LVL63:
 459 0062 C000     		lsl	r0, r0, #3
 460 0064 1B49     		ldr	r1, .L47+4
ARM GAS  C:\Users\ADMINI~1\AppData\Local\Temp\cc7miFwc.s 			page 19


 461 0066 0818     		add	r0, r1, r0
 462 0068 418A     		ldrh	r1, [r0, #18]
 463              	.LVL64:
 324:.\Generated_Source\PSoC4/CyBle_hids.c ****             case CYBLE_HIDS_BOOT_MOUSE_IN_REP:
 464              		.loc 1 324 0
 465 006a 1BE0     		b	.L41
 466              	.LVL65:
 467              	.L40:
 326:.\Generated_Source\PSoC4/CyBle_hids.c ****                     cyBle_hidss[serviceIndex].bootReportArray[CYBLE_HIDS_BOOT_MOUSE_IN_REP_INDX].re
 468              		.loc 1 326 0
 469 006c 8100     		lsl	r1, r0, #2
 470 006e 0818     		add	r0, r1, r0
 471              	.LVL66:
 472 0070 C000     		lsl	r0, r0, #3
 473 0072 1849     		ldr	r1, .L47+4
 474 0074 0818     		add	r0, r1, r0
 475 0076 018B     		ldrh	r1, [r0, #24]
 476              	.LVL67:
 328:.\Generated_Source\PSoC4/CyBle_hids.c ****             default:                    /* Report characteristic */
 477              		.loc 1 328 0
 478 0078 14E0     		b	.L41
 479              	.LVL68:
 480              	.L32:
 331:.\Generated_Source\PSoC4/CyBle_hids.c ****                 {
 481              		.loc 1 331 0
 482 007a CD1F     		sub	r5, r1, #7
 483 007c 8400     		lsl	r4, r0, #2
 484 007e 2418     		add	r4, r4, r0
 485 0080 E400     		lsl	r4, r4, #3
 486 0082 144E     		ldr	r6, .L47+4
 487 0084 3419     		add	r4, r6, r4
 488 0086 2479     		ldrb	r4, [r4, #4]
 489 0088 A542     		cmp	r5, r4
 490 008a 0ADA     		bge	.L44
 333:.\Generated_Source\PSoC4/CyBle_hids.c ****                 }
 491              		.loc 1 333 0
 492 008c 8400     		lsl	r4, r0, #2
 493 008e 2018     		add	r0, r4, r0
 494              	.LVL69:
 495 0090 C000     		lsl	r0, r0, #3
 496 0092 3018     		add	r0, r6, r0
 497 0094 8068     		ldr	r0, [r0, #8]
 498 0096 4C00     		lsl	r4, r1, #1
 499 0098 6118     		add	r1, r4, r1
 500              	.LVL70:
 501 009a 4900     		lsl	r1, r1, #1
 502 009c 2A39     		sub	r1, r1, #42
 503 009e 415A     		ldrh	r1, [r0, r1]
 504              	.LVL71:
 505 00a0 00E0     		b	.L41
 506              	.LVL72:
 507              	.L44:
 337:.\Generated_Source\PSoC4/CyBle_hids.c ****                 }
 508              		.loc 1 337 0
 509 00a2 0021     		mov	r1, #0
 510              	.LVL73:
 511              	.L41:
ARM GAS  C:\Users\ADMINI~1\AppData\Local\Temp\cc7miFwc.s 			page 20


 342:.\Generated_Source\PSoC4/CyBle_hids.c ****         {
 512              		.loc 1 342 0
 513 00a4 0029     		cmp	r1, #0
 514 00a6 0ED0     		beq	.L45
 349:.\Generated_Source\PSoC4/CyBle_hids.c ****             locHandleValuePair.value.len = attrSize;
 515              		.loc 1 349 0
 516 00a8 01A8     		add	r0, sp, #4
 517 00aa 0181     		strh	r1, [r0, #8]
 350:.\Generated_Source\PSoC4/CyBle_hids.c ****             locHandleValuePair.value.val = attrValue;
 518              		.loc 1 350 0
 519 00ac 8280     		strh	r2, [r0, #4]
 351:.\Generated_Source\PSoC4/CyBle_hids.c ****             if(CYBLE_GATT_ERR_NONE !=
 520              		.loc 1 351 0
 521 00ae 0193     		str	r3, [sp, #4]
 353:.\Generated_Source\PSoC4/CyBle_hids.c ****             {
 522              		.loc 1 353 0
 523 00b0 0021     		mov	r1, #0
 524              	.LVL74:
 525 00b2 0022     		mov	r2, #0
 526              	.LVL75:
 527 00b4 FFF7FEFF 		bl	CyBle_GattsReadAttributeValue
 528              	.LVL76:
 352:.\Generated_Source\PSoC4/CyBle_hids.c ****                 CyBle_GattsReadAttributeValue(&locHandleValuePair, NULL, CYBLE_GATT_DB_LOCALLY_INIT
 529              		.loc 1 352 0
 530 00b8 0028     		cmp	r0, #0
 531 00ba 06D1     		bne	.L46
 532 00bc 06E0     		b	.L31
 533              	.LVL77:
 534              	.L42:
 299:.\Generated_Source\PSoC4/CyBle_hids.c ****     }
 535              		.loc 1 299 0
 536 00be 0120     		mov	r0, #1
 537              	.LVL78:
 538 00c0 04E0     		b	.L31
 539              	.LVL79:
 540              	.L43:
 541 00c2 0120     		mov	r0, #1
 542              	.LVL80:
 543 00c4 02E0     		b	.L31
 544              	.LVL81:
 545              	.L45:
 344:.\Generated_Source\PSoC4/CyBle_hids.c ****         }
 546              		.loc 1 344 0
 547 00c6 1320     		mov	r0, #19
 548 00c8 00E0     		b	.L31
 549              	.LVL82:
 550              	.L46:
 355:.\Generated_Source\PSoC4/CyBle_hids.c ****             }
 551              		.loc 1 355 0
 552 00ca 0120     		mov	r0, #1
 553              	.L31:
 554              	.LVL83:
 360:.\Generated_Source\PSoC4/CyBle_hids.c **** 
 555              		.loc 1 360 0
 556 00cc 04B0     		add	sp, sp, #16
 557              		@ sp needed
 558 00ce 70BD     		pop	{r4, r5, r6, pc}
ARM GAS  C:\Users\ADMINI~1\AppData\Local\Temp\cc7miFwc.s 			page 21


 559              	.L48:
 560              		.align	2
 561              	.L47:
 562 00d0 1C000000 		.word	.L34
 563 00d4 38000000 		.word	.LANCHOR1
 564              		.cfi_endproc
 565              	.LFE5:
 566              		.size	CyBle_HidssGetCharacteristicValue, .-CyBle_HidssGetCharacteristicValue
 567              		.section	.text.CyBle_HidssGetCharacteristicDescriptor,"ax",%progbits
 568              		.align	2
 569              		.global	CyBle_HidssGetCharacteristicDescriptor
 570              		.code	16
 571              		.thumb_func
 572              		.type	CyBle_HidssGetCharacteristicDescriptor, %function
 573              	CyBle_HidssGetCharacteristicDescriptor:
 574              	.LFB6:
 403:.\Generated_Source\PSoC4/CyBle_hids.c ****     CYBLE_API_RESULT_T apiResult = CYBLE_ERROR_OK;
 575              		.loc 1 403 0
 576              		.cfi_startproc
 577              	.LVL84:
 578 0000 10B5     		push	{r4, lr}
 579              		.cfi_def_cfa_offset 8
 580              		.cfi_offset 4, -8
 581              		.cfi_offset 14, -4
 582 0002 84B0     		sub	sp, sp, #16
 583              		.cfi_def_cfa_offset 24
 584              	.LVL85:
 409:.\Generated_Source\PSoC4/CyBle_hids.c ****        (charIndex >= CYBLE_HIDS_CHAR_COUNT) || (charIndex < CYBLE_HIDS_REPORT_MAP) || 
 585              		.loc 1 409 0
 586 0004 0028     		cmp	r0, #0
 587 0006 37D1     		bne	.L56
 409:.\Generated_Source\PSoC4/CyBle_hids.c ****        (charIndex >= CYBLE_HIDS_CHAR_COUNT) || (charIndex < CYBLE_HIDS_REPORT_MAP) || 
 588              		.loc 1 409 0 is_stmt 0 discriminator 1
 589 0008 022A     		cmp	r2, #2
 590 000a 38D8     		bhi	.L57
 409:.\Generated_Source\PSoC4/CyBle_hids.c ****        (charIndex >= CYBLE_HIDS_CHAR_COUNT) || (charIndex < CYBLE_HIDS_REPORT_MAP) || 
 591              		.loc 1 409 0 discriminator 2
 592 000c 0829     		cmp	r1, #8
 593 000e 39D8     		bhi	.L58
 410:.\Generated_Source\PSoC4/CyBle_hids.c ****        (charIndex == CYBLE_HIDS_BOOT_KYBRD_OUT_REP))
 594              		.loc 1 410 0 is_stmt 1
 595 0010 0229     		cmp	r1, #2
 596 0012 3AD9     		bls	.L59
 410:.\Generated_Source\PSoC4/CyBle_hids.c ****        (charIndex == CYBLE_HIDS_BOOT_KYBRD_OUT_REP))
 597              		.loc 1 410 0 is_stmt 0 discriminator 1
 598 0014 0529     		cmp	r1, #5
 599 0016 3BD0     		beq	.L60
 417:.\Generated_Source\PSoC4/CyBle_hids.c ****         {
 600              		.loc 1 417 0 is_stmt 1
 601 0018 0329     		cmp	r1, #3
 602 001a 09D1     		bne	.L51
 419:.\Generated_Source\PSoC4/CyBle_hids.c ****             {
 603              		.loc 1 419 0
 604 001c 022A     		cmp	r2, #2
 605 001e 3AD1     		bne	.L61
 421:.\Generated_Source\PSoC4/CyBle_hids.c ****             }
 606              		.loc 1 421 0
ARM GAS  C:\Users\ADMINI~1\AppData\Local\Temp\cc7miFwc.s 			page 22


 607 0020 8200     		lsl	r2, r0, #2
 608              	.LVL86:
 609 0022 1018     		add	r0, r2, r0
 610              	.LVL87:
 611 0024 C000     		lsl	r0, r0, #3
 612 0026 294A     		ldr	r2, .L65
 613 0028 1018     		add	r0, r2, r0
 614 002a 028C     		ldrh	r2, [r0, #32]
 615              	.LVL88:
 404:.\Generated_Source\PSoC4/CyBle_hids.c ****     CYBLE_GATT_DB_ATTR_HANDLE_T locDescrHandle = CYBLE_GATT_INVALID_ATTR_HANDLE_VALUE;
 616              		.loc 1 404 0
 617 002c 0024     		mov	r4, #0
 618 002e 37E0     		b	.L50
 619              	.LVL89:
 620              	.L51:
 431:.\Generated_Source\PSoC4/CyBle_hids.c ****             {
 621              		.loc 1 431 0
 622 0030 0C1F     		sub	r4, r1, #4
 623 0032 022C     		cmp	r4, #2
 624 0034 0BD8     		bhi	.L52
 433:.\Generated_Source\PSoC4/CyBle_hids.c ****             }
 625              		.loc 1 433 0
 626 0036 211C     		mov	r1, r4
 627              	.LVL90:
 628 0038 6400     		lsl	r4, r4, #1
 629 003a 6118     		add	r1, r4, r1
 630 003c 4900     		lsl	r1, r1, #1
 631 003e 8400     		lsl	r4, r0, #2
 632 0040 2018     		add	r0, r4, r0
 633              	.LVL91:
 634 0042 C000     		lsl	r0, r0, #3
 635 0044 0818     		add	r0, r1, r0
 636 0046 2149     		ldr	r1, .L65
 637 0048 0818     		add	r0, r1, r0
 638 004a 0C30     		add	r0, r0, #12
 639              	.LVL92:
 640 004c 0AE0     		b	.L53
 641              	.LVL93:
 642              	.L52:
 437:.\Generated_Source\PSoC4/CyBle_hids.c ****             }
 643              		.loc 1 437 0
 644 004e 8400     		lsl	r4, r0, #2
 645 0050 2018     		add	r0, r4, r0
 646              	.LVL94:
 647 0052 C000     		lsl	r0, r0, #3
 648 0054 1D4C     		ldr	r4, .L65
 649 0056 2018     		add	r0, r4, r0
 650 0058 8068     		ldr	r0, [r0, #8]
 651 005a 4C00     		lsl	r4, r1, #1
 652 005c 6118     		add	r1, r4, r1
 653              	.LVL95:
 654 005e 4900     		lsl	r1, r1, #1
 655 0060 2A39     		sub	r1, r1, #42
 656 0062 4018     		add	r0, r0, r1
 657              	.LVL96:
 658              	.L53:
 440:.\Generated_Source\PSoC4/CyBle_hids.c ****             {
ARM GAS  C:\Users\ADMINI~1\AppData\Local\Temp\cc7miFwc.s 			page 23


 659              		.loc 1 440 0
 660 0064 002A     		cmp	r2, #0
 661 0066 02D1     		bne	.L54
 442:.\Generated_Source\PSoC4/CyBle_hids.c ****             }
 662              		.loc 1 442 0
 663 0068 4288     		ldrh	r2, [r0, #2]
 664              	.LVL97:
 404:.\Generated_Source\PSoC4/CyBle_hids.c ****     CYBLE_GATT_DB_ATTR_HANDLE_T locDescrHandle = CYBLE_GATT_INVALID_ATTR_HANDLE_VALUE;
 665              		.loc 1 404 0
 666 006a 0024     		mov	r4, #0
 667 006c 18E0     		b	.L50
 668              	.LVL98:
 669              	.L54:
 444:.\Generated_Source\PSoC4/CyBle_hids.c ****             {
 670              		.loc 1 444 0
 671 006e 012A     		cmp	r2, #1
 672 0070 14D1     		bne	.L62
 446:.\Generated_Source\PSoC4/CyBle_hids.c ****             }
 673              		.loc 1 446 0
 674 0072 8288     		ldrh	r2, [r0, #4]
 675              	.LVL99:
 404:.\Generated_Source\PSoC4/CyBle_hids.c ****     CYBLE_GATT_DB_ATTR_HANDLE_T locDescrHandle = CYBLE_GATT_INVALID_ATTR_HANDLE_VALUE;
 676              		.loc 1 404 0
 677 0074 0024     		mov	r4, #0
 678 0076 13E0     		b	.L50
 679              	.LVL100:
 680              	.L56:
 405:.\Generated_Source\PSoC4/CyBle_hids.c ****     const CYBLE_HIDSS_REPORT_T *locReport;
 681              		.loc 1 405 0
 682 0078 0022     		mov	r2, #0
 683              	.LVL101:
 413:.\Generated_Source\PSoC4/CyBle_hids.c ****     }
 684              		.loc 1 413 0
 685 007a 0124     		mov	r4, #1
 686 007c 10E0     		b	.L50
 687              	.LVL102:
 688              	.L57:
 405:.\Generated_Source\PSoC4/CyBle_hids.c ****     const CYBLE_HIDSS_REPORT_T *locReport;
 689              		.loc 1 405 0
 690 007e 0022     		mov	r2, #0
 691              	.LVL103:
 413:.\Generated_Source\PSoC4/CyBle_hids.c ****     }
 692              		.loc 1 413 0
 693 0080 0124     		mov	r4, #1
 694 0082 0DE0     		b	.L50
 695              	.LVL104:
 696              	.L58:
 405:.\Generated_Source\PSoC4/CyBle_hids.c ****     const CYBLE_HIDSS_REPORT_T *locReport;
 697              		.loc 1 405 0
 698 0084 0022     		mov	r2, #0
 699              	.LVL105:
 413:.\Generated_Source\PSoC4/CyBle_hids.c ****     }
 700              		.loc 1 413 0
 701 0086 0124     		mov	r4, #1
 702 0088 0AE0     		b	.L50
 703              	.LVL106:
 704              	.L59:
ARM GAS  C:\Users\ADMINI~1\AppData\Local\Temp\cc7miFwc.s 			page 24


 405:.\Generated_Source\PSoC4/CyBle_hids.c ****     const CYBLE_HIDSS_REPORT_T *locReport;
 705              		.loc 1 405 0
 706 008a 0022     		mov	r2, #0
 707              	.LVL107:
 413:.\Generated_Source\PSoC4/CyBle_hids.c ****     }
 708              		.loc 1 413 0
 709 008c 0124     		mov	r4, #1
 710 008e 07E0     		b	.L50
 711              	.LVL108:
 712              	.L60:
 405:.\Generated_Source\PSoC4/CyBle_hids.c ****     const CYBLE_HIDSS_REPORT_T *locReport;
 713              		.loc 1 405 0
 714 0090 0022     		mov	r2, #0
 715              	.LVL109:
 413:.\Generated_Source\PSoC4/CyBle_hids.c ****     }
 716              		.loc 1 413 0
 717 0092 0124     		mov	r4, #1
 718 0094 04E0     		b	.L50
 719              	.LVL110:
 720              	.L61:
 405:.\Generated_Source\PSoC4/CyBle_hids.c ****     const CYBLE_HIDSS_REPORT_T *locReport;
 721              		.loc 1 405 0
 722 0096 0022     		mov	r2, #0
 723              	.LVL111:
 425:.\Generated_Source\PSoC4/CyBle_hids.c ****             }
 724              		.loc 1 425 0
 725 0098 0124     		mov	r4, #1
 726 009a 01E0     		b	.L50
 727              	.LVL112:
 728              	.L62:
 405:.\Generated_Source\PSoC4/CyBle_hids.c ****     const CYBLE_HIDSS_REPORT_T *locReport;
 729              		.loc 1 405 0
 730 009c 0022     		mov	r2, #0
 731              	.LVL113:
 450:.\Generated_Source\PSoC4/CyBle_hids.c ****             }
 732              		.loc 1 450 0
 733 009e 0124     		mov	r4, #1
 734              	.LVL114:
 735              	.L50:
 454:.\Generated_Source\PSoC4/CyBle_hids.c ****     {
 736              		.loc 1 454 0
 737 00a0 012C     		cmp	r4, #1
 738 00a2 10D0     		beq	.L55
 456:.\Generated_Source\PSoC4/CyBle_hids.c ****         {
 739              		.loc 1 456 0
 740 00a4 002A     		cmp	r2, #0
 741 00a6 0BD0     		beq	.L63
 463:.\Generated_Source\PSoC4/CyBle_hids.c ****             locHandleValuePair.value.len = attrSize;
 742              		.loc 1 463 0
 743 00a8 01A8     		add	r0, sp, #4
 744 00aa 0281     		strh	r2, [r0, #8]
 464:.\Generated_Source\PSoC4/CyBle_hids.c ****             locHandleValuePair.value.val = attrValue;
 745              		.loc 1 464 0
 746 00ac 8380     		strh	r3, [r0, #4]
 465:.\Generated_Source\PSoC4/CyBle_hids.c ****             if(CYBLE_GATT_ERR_NONE !=
 747              		.loc 1 465 0
 748 00ae 069B     		ldr	r3, [sp, #24]
ARM GAS  C:\Users\ADMINI~1\AppData\Local\Temp\cc7miFwc.s 			page 25


 749              	.LVL115:
 750 00b0 0193     		str	r3, [sp, #4]
 467:.\Generated_Source\PSoC4/CyBle_hids.c ****             {
 751              		.loc 1 467 0
 752 00b2 0021     		mov	r1, #0
 753 00b4 0022     		mov	r2, #0
 754              	.LVL116:
 755 00b6 FFF7FEFF 		bl	CyBle_GattsReadAttributeValue
 756              	.LVL117:
 466:.\Generated_Source\PSoC4/CyBle_hids.c ****                 CyBle_GattsReadAttributeValue(&locHandleValuePair, NULL, CYBLE_GATT_DB_LOCALLY_INIT
 757              		.loc 1 466 0
 758 00ba 0028     		cmp	r0, #0
 759 00bc 02D1     		bne	.L64
 760 00be 02E0     		b	.L55
 761              	.LVL118:
 762              	.L63:
 458:.\Generated_Source\PSoC4/CyBle_hids.c ****         }
 763              		.loc 1 458 0
 764 00c0 1324     		mov	r4, #19
 765              	.LVL119:
 766 00c2 00E0     		b	.L55
 767              	.LVL120:
 768              	.L64:
 469:.\Generated_Source\PSoC4/CyBle_hids.c ****             }
 769              		.loc 1 469 0
 770 00c4 0124     		mov	r4, #1
 771              	.LVL121:
 772              	.L55:
 474:.\Generated_Source\PSoC4/CyBle_hids.c **** 
 773              		.loc 1 474 0
 774 00c6 201C     		mov	r0, r4
 775 00c8 04B0     		add	sp, sp, #16
 776              		@ sp needed
 777              	.LVL122:
 778 00ca 10BD     		pop	{r4, pc}
 779              	.L66:
 780              		.align	2
 781              	.L65:
 782 00cc 38000000 		.word	.LANCHOR1
 783              		.cfi_endproc
 784              	.LFE6:
 785              		.size	CyBle_HidssGetCharacteristicDescriptor, .-CyBle_HidssGetCharacteristicDescriptor
 786              		.section	.text.CyBle_HidssWriteEventHandler,"ax",%progbits
 787              		.align	2
 788              		.global	CyBle_HidssWriteEventHandler
 789              		.code	16
 790              		.thumb_func
 791              		.type	CyBle_HidssWriteEventHandler, %function
 792              	CyBle_HidssWriteEventHandler:
 793              	.LFB8:
 516:.\Generated_Source\PSoC4/CyBle_hids.c **** 
 517:.\Generated_Source\PSoC4/CyBle_hids.c **** 
 518:.\Generated_Source\PSoC4/CyBle_hids.c **** /****************************************************************************** 
 519:.\Generated_Source\PSoC4/CyBle_hids.c **** * Function Name: CyBle_HidssWriteEventHandler
 520:.\Generated_Source\PSoC4/CyBle_hids.c **** ***************************************************************************//**
 521:.\Generated_Source\PSoC4/CyBle_hids.c **** * 
 522:.\Generated_Source\PSoC4/CyBle_hids.c **** *  Handles the Write Request Event.
ARM GAS  C:\Users\ADMINI~1\AppData\Local\Temp\cc7miFwc.s 			page 26


 523:.\Generated_Source\PSoC4/CyBle_hids.c **** * 
 524:.\Generated_Source\PSoC4/CyBle_hids.c **** *  \param eventParam: The pointer to the data structure specified by the event.
 525:.\Generated_Source\PSoC4/CyBle_hids.c **** * 
 526:.\Generated_Source\PSoC4/CyBle_hids.c **** * \return
 527:.\Generated_Source\PSoC4/CyBle_hids.c **** *  Return value is of type CYBLE_GATT_ERR_CODE_T.
 528:.\Generated_Source\PSoC4/CyBle_hids.c **** *   * CYBLE_GATT_ERR_NONE - Write is successful.
 529:.\Generated_Source\PSoC4/CyBle_hids.c **** * 
 530:.\Generated_Source\PSoC4/CyBle_hids.c **** ******************************************************************************/
 531:.\Generated_Source\PSoC4/CyBle_hids.c **** CYBLE_GATT_ERR_CODE_T CyBle_HidssWriteEventHandler(CYBLE_GATTS_WRITE_REQ_PARAM_T *eventParam)
 532:.\Generated_Source\PSoC4/CyBle_hids.c **** {
 794              		.loc 1 532 0
 795              		.cfi_startproc
 796              	.LVL123:
 797 0000 F0B5     		push	{r4, r5, r6, r7, lr}
 798              		.cfi_def_cfa_offset 20
 799              		.cfi_offset 4, -20
 800              		.cfi_offset 5, -16
 801              		.cfi_offset 6, -12
 802              		.cfi_offset 7, -8
 803              		.cfi_offset 14, -4
 804 0002 83B0     		sub	sp, sp, #12
 805              		.cfi_def_cfa_offset 32
 806              	.LVL124:
 533:.\Generated_Source\PSoC4/CyBle_hids.c ****     CYBLE_GATT_ERR_CODE_T gattErr = CYBLE_GATT_ERR_NONE;
 534:.\Generated_Source\PSoC4/CyBle_hids.c ****     uint8 locServIndex = 0u;
 535:.\Generated_Source\PSoC4/CyBle_hids.c ****     uint8 reportIndex;
 536:.\Generated_Source\PSoC4/CyBle_hids.c ****     CYBLE_HIDS_CHAR_INDEX_T locCharIndex;
 537:.\Generated_Source\PSoC4/CyBle_hids.c ****     CYBLE_HIDS_CHAR_VALUE_T locCharValue;
 538:.\Generated_Source\PSoC4/CyBle_hids.c ****     uint32 eventCode = 0u;
 539:.\Generated_Source\PSoC4/CyBle_hids.c **** 
 540:.\Generated_Source\PSoC4/CyBle_hids.c ****     if(NULL != CyBle_HidsApplCallback)
 807              		.loc 1 540 0
 808 0004 6D4B     		ldr	r3, .L93
 809 0006 1B68     		ldr	r3, [r3]
 810 0008 002B     		cmp	r3, #0
 811 000a 00D1     		bne	.LCB873
 812 000c D0E0     		b	.L84	@long jump
 813              	.LCB873:
 814 000e 041C     		mov	r4, r0
 541:.\Generated_Source\PSoC4/CyBle_hids.c ****     {
 542:.\Generated_Source\PSoC4/CyBle_hids.c ****         locCharValue.connHandle = eventParam->connHandle;
 815              		.loc 1 542 0
 816 0010 0388     		ldrh	r3, [r0]
 817 0012 6A46     		mov	r2, sp
 818 0014 1380     		strh	r3, [r2]
 543:.\Generated_Source\PSoC4/CyBle_hids.c ****         locCharValue.value = NULL;
 819              		.loc 1 543 0
 820 0016 0023     		mov	r3, #0
 821 0018 0193     		str	r3, [sp, #4]
 544:.\Generated_Source\PSoC4/CyBle_hids.c ****         do
 545:.\Generated_Source\PSoC4/CyBle_hids.c ****         {
 546:.\Generated_Source\PSoC4/CyBle_hids.c ****             locCharValue.serviceIndex = locServIndex;
 822              		.loc 1 546 0
 823 001a 9370     		strb	r3, [r2, #2]
 547:.\Generated_Source\PSoC4/CyBle_hids.c ****             /* Protocol Mode characteristic write request */
 548:.\Generated_Source\PSoC4/CyBle_hids.c ****             if(eventParam->handleValPair.attrHandle == cyBle_hidss[locServIndex].protocolModeHandle
 824              		.loc 1 548 0
ARM GAS  C:\Users\ADMINI~1\AppData\Local\Temp\cc7miFwc.s 			page 27


 825 001c 8389     		ldrh	r3, [r0, #12]
 826 001e 182B     		cmp	r3, #24
 827 0020 1CD1     		bne	.L69
 549:.\Generated_Source\PSoC4/CyBle_hids.c ****             {
 550:.\Generated_Source\PSoC4/CyBle_hids.c ****                 locCharValue.charIndex = CYBLE_HIDS_PROTOCOL_MODE;
 828              		.loc 1 550 0
 829 0022 0023     		mov	r3, #0
 830 0024 D370     		strb	r3, [r2, #3]
 551:.\Generated_Source\PSoC4/CyBle_hids.c ****                 if(eventParam->handleValPair.value.len == CYBLE_HIDS_PM_CHAR_LEN)
 831              		.loc 1 551 0
 832 0026 0389     		ldrh	r3, [r0, #8]
 833 0028 012B     		cmp	r3, #1
 834 002a 00D0     		beq	.LCB892
 835 002c A7E0     		b	.L85	@long jump
 836              	.LCB892:
 552:.\Generated_Source\PSoC4/CyBle_hids.c ****                 {
 553:.\Generated_Source\PSoC4/CyBle_hids.c ****                     switch(eventParam->handleValPair.value.val[0u])
 837              		.loc 1 553 0
 838 002e 4368     		ldr	r3, [r0, #4]
 839 0030 1B78     		ldrb	r3, [r3]
 840 0032 002B     		cmp	r3, #0
 841 0034 02D0     		beq	.L71
 842 0036 012B     		cmp	r3, #1
 843 0038 08D0     		beq	.L72
 844 003a A2E0     		b	.L91
 845              	.L71:
 846              	.LVL125:
 554:.\Generated_Source\PSoC4/CyBle_hids.c ****                     {
 555:.\Generated_Source\PSoC4/CyBle_hids.c ****                         case CYBLE_HIDS_PROTOCOL_MODE_BOOT:
 556:.\Generated_Source\PSoC4/CyBle_hids.c ****                             eventCode = (uint32)CYBLE_EVT_HIDSS_BOOT_MODE_ENTER;
 557:.\Generated_Source\PSoC4/CyBle_hids.c ****                             cyBle_eventHandlerFlag &= (uint8)~CYBLE_CALLBACK;
 847              		.loc 1 557 0
 848 003c 604A     		ldr	r2, .L93+4
 849 003e 1378     		ldrb	r3, [r2]
 850 0040 0121     		mov	r1, #1
 851 0042 8B43     		bic	r3, r1
 852 0044 1370     		strb	r3, [r2]
 556:.\Generated_Source\PSoC4/CyBle_hids.c ****                             cyBle_eventHandlerFlag &= (uint8)~CYBLE_CALLBACK;
 853              		.loc 1 556 0
 854 0046 C525     		mov	r5, #197
 855 0048 6D00     		lsl	r5, r5, #1
 558:.\Generated_Source\PSoC4/CyBle_hids.c ****                             break;
 856              		.loc 1 558 0
 857 004a 9FE0     		b	.L70
 858              	.LVL126:
 859              	.L72:
 559:.\Generated_Source\PSoC4/CyBle_hids.c ****                         case CYBLE_HIDS_PROTOCOL_MODE_REPORT:
 560:.\Generated_Source\PSoC4/CyBle_hids.c ****                             eventCode = (uint32)CYBLE_EVT_HIDSS_REPORT_MODE_ENTER;
 561:.\Generated_Source\PSoC4/CyBle_hids.c ****                             cyBle_eventHandlerFlag &= (uint8)~CYBLE_CALLBACK;
 860              		.loc 1 561 0
 861 004c 5C4A     		ldr	r2, .L93+4
 862 004e 1378     		ldrb	r3, [r2]
 863 0050 0121     		mov	r1, #1
 864 0052 8B43     		bic	r3, r1
 865 0054 1370     		strb	r3, [r2]
 560:.\Generated_Source\PSoC4/CyBle_hids.c ****                             cyBle_eventHandlerFlag &= (uint8)~CYBLE_CALLBACK;
 866              		.loc 1 560 0
ARM GAS  C:\Users\ADMINI~1\AppData\Local\Temp\cc7miFwc.s 			page 28


 867 0056 8C25     		mov	r5, #140
 868 0058 FF35     		add	r5, r5, #255
 562:.\Generated_Source\PSoC4/CyBle_hids.c ****                             break;
 869              		.loc 1 562 0
 870 005a 97E0     		b	.L70
 871              	.LVL127:
 872              	.L69:
 563:.\Generated_Source\PSoC4/CyBle_hids.c ****                         default:    /* Reserved for Future Use. */
 564:.\Generated_Source\PSoC4/CyBle_hids.c ****                             break;
 565:.\Generated_Source\PSoC4/CyBle_hids.c ****                     }
 566:.\Generated_Source\PSoC4/CyBle_hids.c ****                 }
 567:.\Generated_Source\PSoC4/CyBle_hids.c ****             }
 568:.\Generated_Source\PSoC4/CyBle_hids.c ****             /* Control Point characteristic write request */
 569:.\Generated_Source\PSoC4/CyBle_hids.c ****             else if(eventParam->handleValPair.attrHandle == cyBle_hidss[locServIndex].controlPointH
 873              		.loc 1 569 0
 874 005c 162B     		cmp	r3, #22
 875 005e 1DD1     		bne	.L73
 570:.\Generated_Source\PSoC4/CyBle_hids.c ****             {
 571:.\Generated_Source\PSoC4/CyBle_hids.c ****                 locCharValue.charIndex = CYBLE_HIDS_CONTROL_POINT;
 876              		.loc 1 571 0
 877 0060 143B     		sub	r3, r3, #20
 878 0062 6A46     		mov	r2, sp
 879 0064 D370     		strb	r3, [r2, #3]
 572:.\Generated_Source\PSoC4/CyBle_hids.c ****                 if(eventParam->handleValPair.value.len == CYBLE_HIDS_CP_CHAR_LEN)
 880              		.loc 1 572 0
 881 0066 0389     		ldrh	r3, [r0, #8]
 882 0068 012B     		cmp	r3, #1
 883 006a 00D0     		beq	.LCB942
 884 006c 8BE0     		b	.L87	@long jump
 885              	.LCB942:
 573:.\Generated_Source\PSoC4/CyBle_hids.c ****                 {
 574:.\Generated_Source\PSoC4/CyBle_hids.c ****                     switch(eventParam->handleValPair.value.val[0u])
 886              		.loc 1 574 0
 887 006e 4368     		ldr	r3, [r0, #4]
 888 0070 1B78     		ldrb	r3, [r3]
 889 0072 002B     		cmp	r3, #0
 890 0074 02D0     		beq	.L74
 891 0076 012B     		cmp	r3, #1
 892 0078 08D0     		beq	.L75
 893 007a 86E0     		b	.L92
 894              	.L74:
 895              	.LVL128:
 575:.\Generated_Source\PSoC4/CyBle_hids.c ****                     {
 576:.\Generated_Source\PSoC4/CyBle_hids.c ****                         case CYBLE_HIDS_CP_SUSPEND:
 577:.\Generated_Source\PSoC4/CyBle_hids.c ****                             eventCode = (uint32)CYBLE_EVT_HIDSS_SUSPEND;
 578:.\Generated_Source\PSoC4/CyBle_hids.c ****                             cyBle_eventHandlerFlag &= (uint8)~CYBLE_CALLBACK;
 896              		.loc 1 578 0
 897 007c 504A     		ldr	r2, .L93+4
 898 007e 1378     		ldrb	r3, [r2]
 899 0080 0121     		mov	r1, #1
 900 0082 8B43     		bic	r3, r1
 901 0084 1370     		strb	r3, [r2]
 577:.\Generated_Source\PSoC4/CyBle_hids.c ****                             cyBle_eventHandlerFlag &= (uint8)~CYBLE_CALLBACK;
 902              		.loc 1 577 0
 903 0086 C625     		mov	r5, #198
 904 0088 6D00     		lsl	r5, r5, #1
 579:.\Generated_Source\PSoC4/CyBle_hids.c ****                             break;
ARM GAS  C:\Users\ADMINI~1\AppData\Local\Temp\cc7miFwc.s 			page 29


 905              		.loc 1 579 0
 906 008a 7FE0     		b	.L70
 907              	.LVL129:
 908              	.L75:
 580:.\Generated_Source\PSoC4/CyBle_hids.c ****                         case CYBLE_HIDS_CP_EXIT_SUSPEND:
 581:.\Generated_Source\PSoC4/CyBle_hids.c ****                             eventCode = (uint32)CYBLE_EVT_HIDSS_EXIT_SUSPEND;
 582:.\Generated_Source\PSoC4/CyBle_hids.c ****                             cyBle_eventHandlerFlag &= (uint8)~CYBLE_CALLBACK;
 909              		.loc 1 582 0
 910 008c 4C4A     		ldr	r2, .L93+4
 911 008e 1378     		ldrb	r3, [r2]
 912 0090 0121     		mov	r1, #1
 913 0092 8B43     		bic	r3, r1
 914 0094 1370     		strb	r3, [r2]
 581:.\Generated_Source\PSoC4/CyBle_hids.c ****                             cyBle_eventHandlerFlag &= (uint8)~CYBLE_CALLBACK;
 915              		.loc 1 581 0
 916 0096 8E25     		mov	r5, #142
 917 0098 FF35     		add	r5, r5, #255
 583:.\Generated_Source\PSoC4/CyBle_hids.c ****                             break;
 918              		.loc 1 583 0
 919 009a 77E0     		b	.L70
 920              	.LVL130:
 921              	.L73:
 584:.\Generated_Source\PSoC4/CyBle_hids.c ****                         default:    /* Reserved for Future Use. */
 585:.\Generated_Source\PSoC4/CyBle_hids.c ****                             break;
 586:.\Generated_Source\PSoC4/CyBle_hids.c ****                     }
 587:.\Generated_Source\PSoC4/CyBle_hids.c ****                 }
 588:.\Generated_Source\PSoC4/CyBle_hids.c ****             }
 589:.\Generated_Source\PSoC4/CyBle_hids.c ****             else if(eventParam->handleValPair.attrHandle ==
 922              		.loc 1 589 0
 923 009c 1A2B     		cmp	r3, #26
 924 009e 0CD1     		bne	.L76
 590:.\Generated_Source\PSoC4/CyBle_hids.c ****                         cyBle_hidss[locServIndex].bootReportArray[CYBLE_HIDS_BOOT_KYBRD_IN_REP_INDX
 591:.\Generated_Source\PSoC4/CyBle_hids.c ****             {
 592:.\Generated_Source\PSoC4/CyBle_hids.c ****                 locCharValue.charIndex = CYBLE_HIDS_BOOT_KYBRD_IN_REP;
 925              		.loc 1 592 0
 926 00a0 163B     		sub	r3, r3, #22
 927 00a2 6A46     		mov	r2, sp
 928 00a4 D370     		strb	r3, [r2, #3]
 593:.\Generated_Source\PSoC4/CyBle_hids.c ****                 locCharValue.value = &eventParam->handleValPair.value;
 929              		.loc 1 593 0
 930 00a6 031D     		add	r3, r0, #4
 931 00a8 0193     		str	r3, [sp, #4]
 932              	.LVL131:
 594:.\Generated_Source\PSoC4/CyBle_hids.c ****                 eventCode = (uint32)CYBLE_EVT_HIDSS_REPORT_CHAR_WRITE;
 595:.\Generated_Source\PSoC4/CyBle_hids.c ****                 cyBle_eventHandlerFlag &= (uint8)~CYBLE_CALLBACK;
 933              		.loc 1 595 0
 934 00aa 454A     		ldr	r2, .L93+4
 935 00ac 1378     		ldrb	r3, [r2]
 936 00ae 0121     		mov	r1, #1
 937 00b0 8B43     		bic	r3, r1
 938 00b2 1370     		strb	r3, [r2]
 594:.\Generated_Source\PSoC4/CyBle_hids.c ****                 eventCode = (uint32)CYBLE_EVT_HIDSS_REPORT_CHAR_WRITE;
 939              		.loc 1 594 0
 940 00b4 C725     		mov	r5, #199
 941 00b6 6D00     		lsl	r5, r5, #1
 942 00b8 68E0     		b	.L70
 943              	.LVL132:
ARM GAS  C:\Users\ADMINI~1\AppData\Local\Temp\cc7miFwc.s 			page 30


 944              	.L76:
 596:.\Generated_Source\PSoC4/CyBle_hids.c ****             }
 597:.\Generated_Source\PSoC4/CyBle_hids.c ****             else if(eventParam->handleValPair.attrHandle ==
 945              		.loc 1 597 0
 946 00ba 1B2B     		cmp	r3, #27
 947 00bc 08D1     		bne	.L77
 598:.\Generated_Source\PSoC4/CyBle_hids.c ****                         cyBle_hidss[locServIndex].bootReportArray[CYBLE_HIDS_BOOT_KYBRD_IN_REP_INDX
 599:.\Generated_Source\PSoC4/CyBle_hids.c ****             {
 600:.\Generated_Source\PSoC4/CyBle_hids.c ****                 locCharValue.charIndex = CYBLE_HIDS_BOOT_KYBRD_IN_REP;
 948              		.loc 1 600 0
 949 00be 173B     		sub	r3, r3, #23
 950 00c0 6A46     		mov	r2, sp
 951 00c2 D370     		strb	r3, [r2, #3]
 601:.\Generated_Source\PSoC4/CyBle_hids.c ****                 eventCode = CyBle_HidssCccdWriteEventHandler(locServIndex, eventParam);
 952              		.loc 1 601 0
 953 00c4 0020     		mov	r0, #0
 954              	.LVL133:
 955 00c6 211C     		mov	r1, r4
 956 00c8 FFF7FEFF 		bl	CyBle_HidssCccdWriteEventHandler
 957              	.LVL134:
 958 00cc 051C     		mov	r5, r0
 959              	.LVL135:
 960 00ce 5DE0     		b	.L70
 961              	.LVL136:
 962              	.L77:
 602:.\Generated_Source\PSoC4/CyBle_hids.c ****             }
 603:.\Generated_Source\PSoC4/CyBle_hids.c ****             else if(eventParam->handleValPair.attrHandle ==
 963              		.loc 1 603 0
 964 00d0 1D2B     		cmp	r3, #29
 965 00d2 0CD1     		bne	.L78
 604:.\Generated_Source\PSoC4/CyBle_hids.c ****                         cyBle_hidss[locServIndex].bootReportArray[CYBLE_HIDS_BOOT_KYBRD_OUT_REP_IND
 605:.\Generated_Source\PSoC4/CyBle_hids.c ****             {
 606:.\Generated_Source\PSoC4/CyBle_hids.c ****                 locCharValue.charIndex = CYBLE_HIDS_BOOT_KYBRD_OUT_REP;
 966              		.loc 1 606 0
 967 00d4 183B     		sub	r3, r3, #24
 968 00d6 6A46     		mov	r2, sp
 969 00d8 D370     		strb	r3, [r2, #3]
 607:.\Generated_Source\PSoC4/CyBle_hids.c ****                 locCharValue.value = &eventParam->handleValPair.value;
 970              		.loc 1 607 0
 971 00da 031D     		add	r3, r0, #4
 972 00dc 0193     		str	r3, [sp, #4]
 973              	.LVL137:
 608:.\Generated_Source\PSoC4/CyBle_hids.c ****                 eventCode = (uint32)CYBLE_EVT_HIDSS_REPORT_CHAR_WRITE;
 609:.\Generated_Source\PSoC4/CyBle_hids.c ****                 cyBle_eventHandlerFlag &= (uint8)~CYBLE_CALLBACK;
 974              		.loc 1 609 0
 975 00de 384A     		ldr	r2, .L93+4
 976 00e0 1378     		ldrb	r3, [r2]
 977 00e2 0121     		mov	r1, #1
 978 00e4 8B43     		bic	r3, r1
 979 00e6 1370     		strb	r3, [r2]
 608:.\Generated_Source\PSoC4/CyBle_hids.c ****                 eventCode = (uint32)CYBLE_EVT_HIDSS_REPORT_CHAR_WRITE;
 980              		.loc 1 608 0
 981 00e8 C725     		mov	r5, #199
 982 00ea 6D00     		lsl	r5, r5, #1
 983 00ec 4EE0     		b	.L70
 984              	.LVL138:
 985              	.L78:
ARM GAS  C:\Users\ADMINI~1\AppData\Local\Temp\cc7miFwc.s 			page 31


 610:.\Generated_Source\PSoC4/CyBle_hids.c ****             }
 611:.\Generated_Source\PSoC4/CyBle_hids.c ****             else if(eventParam->handleValPair.attrHandle ==
 986              		.loc 1 611 0
 987 00ee 002B     		cmp	r3, #0
 988 00f0 0CD1     		bne	.L79
 612:.\Generated_Source\PSoC4/CyBle_hids.c ****                         cyBle_hidss[locServIndex].bootReportArray[CYBLE_HIDS_BOOT_MOUSE_IN_REP_INDX
 613:.\Generated_Source\PSoC4/CyBle_hids.c ****             {
 614:.\Generated_Source\PSoC4/CyBle_hids.c ****                 locCharValue.charIndex = CYBLE_HIDS_BOOT_MOUSE_IN_REP;
 989              		.loc 1 614 0
 990 00f2 0633     		add	r3, r3, #6
 991 00f4 6A46     		mov	r2, sp
 992 00f6 D370     		strb	r3, [r2, #3]
 615:.\Generated_Source\PSoC4/CyBle_hids.c ****                 locCharValue.value = &eventParam->handleValPair.value;
 993              		.loc 1 615 0
 994 00f8 031D     		add	r3, r0, #4
 995 00fa 0193     		str	r3, [sp, #4]
 996              	.LVL139:
 616:.\Generated_Source\PSoC4/CyBle_hids.c ****                 eventCode = (uint32)CYBLE_EVT_HIDSS_REPORT_CHAR_WRITE;
 617:.\Generated_Source\PSoC4/CyBle_hids.c ****                 cyBle_eventHandlerFlag &= (uint8)~CYBLE_CALLBACK;
 997              		.loc 1 617 0
 998 00fc 304A     		ldr	r2, .L93+4
 999 00fe 1378     		ldrb	r3, [r2]
 1000 0100 0121     		mov	r1, #1
 1001 0102 8B43     		bic	r3, r1
 1002 0104 1370     		strb	r3, [r2]
 616:.\Generated_Source\PSoC4/CyBle_hids.c ****                 eventCode = (uint32)CYBLE_EVT_HIDSS_REPORT_CHAR_WRITE;
 1003              		.loc 1 616 0
 1004 0106 C725     		mov	r5, #199
 1005 0108 6D00     		lsl	r5, r5, #1
 1006 010a 3FE0     		b	.L70
 1007              	.LVL140:
 1008              	.L79:
 618:.\Generated_Source\PSoC4/CyBle_hids.c ****             }
 619:.\Generated_Source\PSoC4/CyBle_hids.c ****             else if(eventParam->handleValPair.attrHandle ==
 1009              		.loc 1 619 0
 1010 010c 002B     		cmp	r3, #0
 1011 010e 2DD1     		bne	.L89
 620:.\Generated_Source\PSoC4/CyBle_hids.c ****                         cyBle_hidss[locServIndex].bootReportArray[CYBLE_HIDS_BOOT_MOUSE_IN_REP_INDX
 621:.\Generated_Source\PSoC4/CyBle_hids.c ****             {
 622:.\Generated_Source\PSoC4/CyBle_hids.c ****                 locCharValue.charIndex = CYBLE_HIDS_BOOT_MOUSE_IN_REP;
 1012              		.loc 1 622 0
 1013 0110 0633     		add	r3, r3, #6
 1014 0112 6A46     		mov	r2, sp
 1015 0114 D370     		strb	r3, [r2, #3]
 623:.\Generated_Source\PSoC4/CyBle_hids.c ****                 eventCode = CyBle_HidssCccdWriteEventHandler(locServIndex, eventParam);
 1016              		.loc 1 623 0
 1017 0116 0020     		mov	r0, #0
 1018              	.LVL141:
 1019 0118 211C     		mov	r1, r4
 1020 011a FFF7FEFF 		bl	CyBle_HidssCccdWriteEventHandler
 1021              	.LVL142:
 1022 011e 051C     		mov	r5, r0
 1023              	.LVL143:
 1024 0120 34E0     		b	.L70
 1025              	.LVL144:
 1026              	.L83:
 1027              	.LBB2:
ARM GAS  C:\Users\ADMINI~1\AppData\Local\Temp\cc7miFwc.s 			page 32


 624:.\Generated_Source\PSoC4/CyBle_hids.c ****             }
 625:.\Generated_Source\PSoC4/CyBle_hids.c ****             else
 626:.\Generated_Source\PSoC4/CyBle_hids.c ****             {
 627:.\Generated_Source\PSoC4/CyBle_hids.c ****                 uint8 locReqHandle = 0u;
 628:.\Generated_Source\PSoC4/CyBle_hids.c ****                 
 629:.\Generated_Source\PSoC4/CyBle_hids.c ****                 locCharIndex = CYBLE_HIDS_REPORT;
 630:.\Generated_Source\PSoC4/CyBle_hids.c ****                 for(reportIndex = 0u; (reportIndex < cyBle_hidss[locServIndex].reportCount) && (loc
 631:.\Generated_Source\PSoC4/CyBle_hids.c ****                         reportIndex++)
 632:.\Generated_Source\PSoC4/CyBle_hids.c ****                 {
 633:.\Generated_Source\PSoC4/CyBle_hids.c ****                     if(eventParam->handleValPair.attrHandle == 
 1028              		.loc 1 633 0
 1029 0122 A289     		ldrh	r2, [r4, #12]
 634:.\Generated_Source\PSoC4/CyBle_hids.c ****                         cyBle_hidss[locServIndex].reportArray[reportIndex].reportHandle)
 1030              		.loc 1 634 0
 1031 0124 7300     		lsl	r3, r6, #1
 1032 0126 9B19     		add	r3, r3, r6
 1033 0128 5B00     		lsl	r3, r3, #1
 1034 012a 2648     		ldr	r0, .L93+8
 1035 012c C318     		add	r3, r0, r3
 1036 012e 1888     		ldrh	r0, [r3]
 633:.\Generated_Source\PSoC4/CyBle_hids.c ****                         cyBle_hidss[locServIndex].reportArray[reportIndex].reportHandle)
 1037              		.loc 1 633 0
 1038 0130 8242     		cmp	r2, r0
 1039 0132 0BD1     		bne	.L81
 635:.\Generated_Source\PSoC4/CyBle_hids.c ****                     {
 636:.\Generated_Source\PSoC4/CyBle_hids.c ****                         locCharValue.charIndex = locCharIndex;
 1040              		.loc 1 636 0
 1041 0134 6946     		mov	r1, sp
 1042              	.LVL145:
 1043 0136 CF70     		strb	r7, [r1, #3]
 637:.\Generated_Source\PSoC4/CyBle_hids.c ****                         locCharValue.value = &eventParam->handleValPair.value;
 1044              		.loc 1 637 0
 1045 0138 211D     		add	r1, r4, #4
 1046 013a 0191     		str	r1, [sp, #4]
 1047              	.LVL146:
 638:.\Generated_Source\PSoC4/CyBle_hids.c ****                         eventCode = (uint32)CYBLE_EVT_HIDSS_REPORT_CHAR_WRITE;
 639:.\Generated_Source\PSoC4/CyBle_hids.c ****                         cyBle_eventHandlerFlag &= (uint8)~CYBLE_CALLBACK;
 1048              		.loc 1 639 0
 1049 013c 2048     		ldr	r0, .L93+4
 1050 013e 0178     		ldrb	r1, [r0]
 1051 0140 0125     		mov	r5, #1
 1052 0142 A943     		bic	r1, r5
 1053 0144 0170     		strb	r1, [r0]
 1054              	.LVL147:
 640:.\Generated_Source\PSoC4/CyBle_hids.c ****                         locReqHandle = 1u;
 1055              		.loc 1 640 0
 1056 0146 0121     		mov	r1, #1
 638:.\Generated_Source\PSoC4/CyBle_hids.c ****                         eventCode = (uint32)CYBLE_EVT_HIDSS_REPORT_CHAR_WRITE;
 1057              		.loc 1 638 0
 1058 0148 8E35     		add	r5, r5, #142
 1059 014a FF35     		add	r5, r5, #255
 1060              	.LVL148:
 1061              	.L81:
 641:.\Generated_Source\PSoC4/CyBle_hids.c ****                     }
 642:.\Generated_Source\PSoC4/CyBle_hids.c ****                     if(eventParam->handleValPair.attrHandle == 
 643:.\Generated_Source\PSoC4/CyBle_hids.c ****                         cyBle_hidss[locServIndex].reportArray[reportIndex].cccdHandle)
 1062              		.loc 1 643 0
ARM GAS  C:\Users\ADMINI~1\AppData\Local\Temp\cc7miFwc.s 			page 33


 1063 014c 5B88     		ldrh	r3, [r3, #2]
 642:.\Generated_Source\PSoC4/CyBle_hids.c ****                         cyBle_hidss[locServIndex].reportArray[reportIndex].cccdHandle)
 1064              		.loc 1 642 0
 1065 014e 9A42     		cmp	r2, r3
 1066 0150 07D1     		bne	.L82
 644:.\Generated_Source\PSoC4/CyBle_hids.c ****                     {
 645:.\Generated_Source\PSoC4/CyBle_hids.c ****                         locCharValue.charIndex = locCharIndex;
 1067              		.loc 1 645 0
 1068 0152 6B46     		mov	r3, sp
 1069 0154 DF70     		strb	r7, [r3, #3]
 646:.\Generated_Source\PSoC4/CyBle_hids.c ****                         eventCode = CyBle_HidssCccdWriteEventHandler(locServIndex, eventParam);
 1070              		.loc 1 646 0
 1071 0156 0020     		mov	r0, #0
 1072 0158 211C     		mov	r1, r4
 1073              	.LVL149:
 1074 015a FFF7FEFF 		bl	CyBle_HidssCccdWriteEventHandler
 1075              	.LVL150:
 1076 015e 051C     		mov	r5, r0
 1077              	.LVL151:
 647:.\Generated_Source\PSoC4/CyBle_hids.c ****                         locReqHandle = 1u;
 1078              		.loc 1 647 0
 1079 0160 0121     		mov	r1, #1
 1080              	.LVL152:
 1081              	.L82:
 648:.\Generated_Source\PSoC4/CyBle_hids.c ****                     }
 649:.\Generated_Source\PSoC4/CyBle_hids.c ****                     locCharIndex++;
 1082              		.loc 1 649 0
 1083 0162 0137     		add	r7, r7, #1
 1084              	.LVL153:
 1085 0164 FFB2     		uxtb	r7, r7
 1086              	.LVL154:
 631:.\Generated_Source\PSoC4/CyBle_hids.c ****                 {
 1087              		.loc 1 631 0
 1088 0166 0136     		add	r6, r6, #1
 1089              	.LVL155:
 1090 0168 F6B2     		uxtb	r6, r6
 1091              	.LVL156:
 1092 016a 03E0     		b	.L80
 1093              	.LVL157:
 1094              	.L89:
 1095              	.LBE2:
 1096 016c 0021     		mov	r1, #0
 1097 016e 0025     		mov	r5, #0
 1098 0170 0727     		mov	r7, #7
 1099 0172 0026     		mov	r6, #0
 1100              	.LVL158:
 1101              	.L80:
 1102              	.LBB3:
 630:.\Generated_Source\PSoC4/CyBle_hids.c ****                         reportIndex++)
 1103              		.loc 1 630 0 discriminator 1
 1104 0174 012E     		cmp	r6, #1
 1105 0176 09D8     		bhi	.L70
 630:.\Generated_Source\PSoC4/CyBle_hids.c ****                         reportIndex++)
 1106              		.loc 1 630 0 is_stmt 0 discriminator 2
 1107 0178 0029     		cmp	r1, #0
 1108 017a D2D0     		beq	.L83
 1109 017c 06E0     		b	.L70
ARM GAS  C:\Users\ADMINI~1\AppData\Local\Temp\cc7miFwc.s 			page 34


 1110              	.LVL159:
 1111              	.L85:
 1112              	.LBE3:
 1113 017e 0025     		mov	r5, #0
 1114 0180 04E0     		b	.L70
 1115              	.L91:
 553:.\Generated_Source\PSoC4/CyBle_hids.c ****                     {
 1116              		.loc 1 553 0 is_stmt 1
 1117 0182 0025     		mov	r5, #0
 1118 0184 02E0     		b	.L70
 1119              	.L87:
 1120 0186 0025     		mov	r5, #0
 1121 0188 00E0     		b	.L70
 1122              	.L92:
 574:.\Generated_Source\PSoC4/CyBle_hids.c ****                     {
 1123              		.loc 1 574 0
 1124 018a 0025     		mov	r5, #0
 1125              	.LVL160:
 1126              	.L70:
 650:.\Generated_Source\PSoC4/CyBle_hids.c ****                 }
 651:.\Generated_Source\PSoC4/CyBle_hids.c ****             }
 652:.\Generated_Source\PSoC4/CyBle_hids.c ****             locServIndex++;
 653:.\Generated_Source\PSoC4/CyBle_hids.c ****             /* Store data to database if event is handled */
 654:.\Generated_Source\PSoC4/CyBle_hids.c ****             if((cyBle_eventHandlerFlag & CYBLE_CALLBACK) == 0u)
 1127              		.loc 1 654 0
 1128 018c 0C4B     		ldr	r3, .L93+4
 1129 018e 1B78     		ldrb	r3, [r3]
 1130 0190 DB07     		lsl	r3, r3, #31
 1131 0192 0FD4     		bmi	.L90
 655:.\Generated_Source\PSoC4/CyBle_hids.c ****             {
 656:.\Generated_Source\PSoC4/CyBle_hids.c ****                 gattErr = CyBle_GattsWriteAttributeValue(&eventParam->handleValPair, 0u, 
 1132              		.loc 1 656 0
 1133 0194 201D     		add	r0, r4, #4
 1134 0196 0021     		mov	r1, #0
 1135 0198 221C     		mov	r2, r4
 1136 019a 4023     		mov	r3, #64
 1137 019c FFF7FEFF 		bl	CyBle_GattsWriteAttributeValue
 1138              	.LVL161:
 1139 01a0 041E     		sub	r4, r0, #0
 1140              	.LVL162:
 657:.\Generated_Source\PSoC4/CyBle_hids.c ****                     &eventParam->connHandle, CYBLE_GATT_DB_PEER_INITIATED);
 658:.\Generated_Source\PSoC4/CyBle_hids.c ****                 if(gattErr == CYBLE_GATT_ERR_NONE)
 1141              		.loc 1 658 0
 1142 01a2 08D1     		bne	.L68
 659:.\Generated_Source\PSoC4/CyBle_hids.c ****                 {                
 660:.\Generated_Source\PSoC4/CyBle_hids.c ****                     CyBle_HidsApplCallback(eventCode, &locCharValue);
 1143              		.loc 1 660 0
 1144 01a4 054B     		ldr	r3, .L93
 1145 01a6 1B68     		ldr	r3, [r3]
 1146 01a8 281C     		mov	r0, r5
 1147              	.LVL163:
 1148 01aa 6946     		mov	r1, sp
 1149 01ac 9847     		blx	r3
 1150              	.LVL164:
 1151 01ae 02E0     		b	.L68
 1152              	.LVL165:
 1153              	.L84:
ARM GAS  C:\Users\ADMINI~1\AppData\Local\Temp\cc7miFwc.s 			page 35


 533:.\Generated_Source\PSoC4/CyBle_hids.c ****     uint8 locServIndex = 0u;
 1154              		.loc 1 533 0
 1155 01b0 0024     		mov	r4, #0
 1156 01b2 00E0     		b	.L68
 1157              	.LVL166:
 1158              	.L90:
 1159 01b4 0024     		mov	r4, #0
 1160              	.LVL167:
 1161              	.L68:
 661:.\Generated_Source\PSoC4/CyBle_hids.c ****                 }
 662:.\Generated_Source\PSoC4/CyBle_hids.c ****                 break;
 663:.\Generated_Source\PSoC4/CyBle_hids.c ****             }
 664:.\Generated_Source\PSoC4/CyBle_hids.c ****         }while(locServIndex < CYBLE_HIDSS_SERVICE_COUNT);
 665:.\Generated_Source\PSoC4/CyBle_hids.c ****     }
 666:.\Generated_Source\PSoC4/CyBle_hids.c ****     return (gattErr);
 667:.\Generated_Source\PSoC4/CyBle_hids.c **** }
 1162              		.loc 1 667 0
 1163 01b6 201C     		mov	r0, r4
 1164 01b8 03B0     		add	sp, sp, #12
 1165              		@ sp needed
 1166              	.LVL168:
 1167 01ba F0BD     		pop	{r4, r5, r6, r7, pc}
 1168              	.L94:
 1169              		.align	2
 1170              	.L93:
 1171 01bc 00000000 		.word	.LANCHOR0
 1172 01c0 00000000 		.word	cyBle_eventHandlerFlag
 1173 01c4 60000000 		.word	.LANCHOR2
 1174              		.cfi_endproc
 1175              	.LFE8:
 1176              		.size	CyBle_HidssWriteEventHandler, .-CyBle_HidssWriteEventHandler
 1177              		.section	.text.CyBle_HidssSendNotification,"ax",%progbits
 1178              		.align	2
 1179              		.global	CyBle_HidssSendNotification
 1180              		.code	16
 1181              		.thumb_func
 1182              		.type	CyBle_HidssSendNotification, %function
 1183              	CyBle_HidssSendNotification:
 1184              	.LFB9:
 668:.\Generated_Source\PSoC4/CyBle_hids.c **** 
 669:.\Generated_Source\PSoC4/CyBle_hids.c **** 
 670:.\Generated_Source\PSoC4/CyBle_hids.c **** /****************************************************************************** 
 671:.\Generated_Source\PSoC4/CyBle_hids.c **** * Function Name: CyBle_HidssSendNotification
 672:.\Generated_Source\PSoC4/CyBle_hids.c **** ***************************************************************************//**
 673:.\Generated_Source\PSoC4/CyBle_hids.c **** * 
 674:.\Generated_Source\PSoC4/CyBle_hids.c **** *  Sends specified HID Service characteristic notification to the Client device.
 675:.\Generated_Source\PSoC4/CyBle_hids.c **** * 
 676:.\Generated_Source\PSoC4/CyBle_hids.c **** *  CYBLE_EVT_HIDSC_NOTIFICATION event is received by the peer device, on invoking 
 677:.\Generated_Source\PSoC4/CyBle_hids.c **** *   this function.
 678:.\Generated_Source\PSoC4/CyBle_hids.c **** * 
 679:.\Generated_Source\PSoC4/CyBle_hids.c **** *  \param connHandle: BLE peer device connection handle.
 680:.\Generated_Source\PSoC4/CyBle_hids.c **** *  \param serviceIndex: The index of the HID service instance. e.g. If two HID Services
 681:.\Generated_Source\PSoC4/CyBle_hids.c **** *                 are supported in your design, then first service will be 
 682:.\Generated_Source\PSoC4/CyBle_hids.c **** *                 identified by serviceIndex of 0 and the second by serviceIndex
 683:.\Generated_Source\PSoC4/CyBle_hids.c **** *                 of 1.
 684:.\Generated_Source\PSoC4/CyBle_hids.c **** *  \param charIndex: The index of the service characteristic.
 685:.\Generated_Source\PSoC4/CyBle_hids.c **** *  \param attrSize: The size of the characteristic value attribute.
ARM GAS  C:\Users\ADMINI~1\AppData\Local\Temp\cc7miFwc.s 			page 36


 686:.\Generated_Source\PSoC4/CyBle_hids.c **** *  \param attrValue: Pointer to the characteristic value data that should be sent to
 687:.\Generated_Source\PSoC4/CyBle_hids.c **** *               the Client device.
 688:.\Generated_Source\PSoC4/CyBle_hids.c **** * 
 689:.\Generated_Source\PSoC4/CyBle_hids.c **** * \return
 690:.\Generated_Source\PSoC4/CyBle_hids.c **** *  Return value is of type CYBLE_API_RESULT_T.
 691:.\Generated_Source\PSoC4/CyBle_hids.c **** *   * CYBLE_ERROR_OK - The request handled successfully
 692:.\Generated_Source\PSoC4/CyBle_hids.c **** *   * CYBLE_ERROR_INVALID_PARAMETER - Validation of the input parameter failed
 693:.\Generated_Source\PSoC4/CyBle_hids.c **** *   * CYBLE_ERROR_INVALID_OPERATION - This operation is not permitted
 694:.\Generated_Source\PSoC4/CyBle_hids.c **** *   * CYBLE_ERROR_GATT_DB_INVALID_ATTR_HANDLE - Optional characteristic is absent
 695:.\Generated_Source\PSoC4/CyBle_hids.c **** *   * CYBLE_ERROR_INVALID_STATE - Connection with the client is not established
 696:.\Generated_Source\PSoC4/CyBle_hids.c **** *   * CYBLE_ERROR_MEMORY_ALLOCATION_FAILED - Memory allocation failed. 
 697:.\Generated_Source\PSoC4/CyBle_hids.c **** *   * CYBLE_ERROR_NTF_DISABLED - Notification is not enabled by the client.
 698:.\Generated_Source\PSoC4/CyBle_hids.c **** * 
 699:.\Generated_Source\PSoC4/CyBle_hids.c **** ******************************************************************************/
 700:.\Generated_Source\PSoC4/CyBle_hids.c **** CYBLE_API_RESULT_T CyBle_HidssSendNotification(CYBLE_CONN_HANDLE_T connHandle,
 701:.\Generated_Source\PSoC4/CyBle_hids.c ****     uint8 serviceIndex, CYBLE_HIDS_CHAR_INDEX_T charIndex, uint8 attrSize, uint8 *attrValue)
 702:.\Generated_Source\PSoC4/CyBle_hids.c **** {
 1185              		.loc 1 702 0
 1186              		.cfi_startproc
 1187              	.LVL169:
 1188 0000 70B5     		push	{r4, r5, r6, lr}
 1189              		.cfi_def_cfa_offset 16
 1190              		.cfi_offset 4, -16
 1191              		.cfi_offset 5, -12
 1192              		.cfi_offset 6, -8
 1193              		.cfi_offset 14, -4
 1194 0002 88B0     		sub	sp, sp, #32
 1195              		.cfi_def_cfa_offset 48
 1196 0004 01AC     		add	r4, sp, #4
 1197 0006 2080     		strh	r0, [r4]
 1198 0008 1C1C     		mov	r4, r3
 1199              	.LVL170:
 703:.\Generated_Source\PSoC4/CyBle_hids.c ****     CYBLE_API_RESULT_T apiResult = CYBLE_ERROR_OK;
 704:.\Generated_Source\PSoC4/CyBle_hids.c ****     const CYBLE_HIDSS_REPORT_T *locReport;
 705:.\Generated_Source\PSoC4/CyBle_hids.c ****     CYBLE_GATTS_HANDLE_VALUE_NTF_T ntfReqParam;
 706:.\Generated_Source\PSoC4/CyBle_hids.c ****     CYBLE_GATT_HANDLE_VALUE_PAIR_T locHandleValuePair;
 707:.\Generated_Source\PSoC4/CyBle_hids.c **** 
 708:.\Generated_Source\PSoC4/CyBle_hids.c ****     if((serviceIndex >= CYBLE_HIDSS_SERVICE_COUNT) || (charIndex >= CYBLE_HIDS_CHAR_COUNT))
 1200              		.loc 1 708 0
 1201 000a 0029     		cmp	r1, #0
 1202 000c 61D1     		bne	.L101
 1203              		.loc 1 708 0 is_stmt 0 discriminator 1
 1204 000e 082A     		cmp	r2, #8
 1205 0010 61D8     		bhi	.L102
 709:.\Generated_Source\PSoC4/CyBle_hids.c ****     {
 710:.\Generated_Source\PSoC4/CyBle_hids.c ****         apiResult = CYBLE_ERROR_INVALID_PARAMETER;
 711:.\Generated_Source\PSoC4/CyBle_hids.c ****     }
 712:.\Generated_Source\PSoC4/CyBle_hids.c ****     else
 713:.\Generated_Source\PSoC4/CyBle_hids.c ****     {
 714:.\Generated_Source\PSoC4/CyBle_hids.c ****         if(charIndex == CYBLE_HIDS_BOOT_KYBRD_IN_REP)
 1206              		.loc 1 714 0 is_stmt 1
 1207 0012 042A     		cmp	r2, #4
 1208 0014 08D1     		bne	.L97
 715:.\Generated_Source\PSoC4/CyBle_hids.c ****         {
 716:.\Generated_Source\PSoC4/CyBle_hids.c ****             locReport = &cyBle_hidss[serviceIndex].bootReportArray[CYBLE_HIDS_BOOT_KYBRD_IN_REP_IND
 1209              		.loc 1 716 0
 1210 0016 8E00     		lsl	r6, r1, #2
ARM GAS  C:\Users\ADMINI~1\AppData\Local\Temp\cc7miFwc.s 			page 37


 1211 0018 7118     		add	r1, r6, r1
 1212              	.LVL171:
 1213 001a C900     		lsl	r1, r1, #3
 1214 001c 334A     		ldr	r2, .L108
 1215              	.LVL172:
 1216 001e 5218     		add	r2, r2, r1
 1217 0020 0C32     		add	r2, r2, #12
 1218 0022 161C     		mov	r6, r2
 1219              	.LVL173:
 703:.\Generated_Source\PSoC4/CyBle_hids.c ****     const CYBLE_HIDSS_REPORT_T *locReport;
 1220              		.loc 1 703 0
 1221 0024 0025     		mov	r5, #0
 1222 0026 25E0     		b	.L98
 1223              	.LVL174:
 1224              	.L97:
 717:.\Generated_Source\PSoC4/CyBle_hids.c ****         }
 718:.\Generated_Source\PSoC4/CyBle_hids.c ****         else if(charIndex == CYBLE_HIDS_BOOT_MOUSE_IN_REP)
 1225              		.loc 1 718 0
 1226 0028 062A     		cmp	r2, #6
 1227 002a 08D1     		bne	.L99
 719:.\Generated_Source\PSoC4/CyBle_hids.c ****         {
 720:.\Generated_Source\PSoC4/CyBle_hids.c ****             locReport = &cyBle_hidss[serviceIndex].bootReportArray[CYBLE_HIDS_BOOT_MOUSE_IN_REP_IND
 1228              		.loc 1 720 0
 1229 002c 8E00     		lsl	r6, r1, #2
 1230 002e 7118     		add	r1, r6, r1
 1231              	.LVL175:
 1232 0030 C900     		lsl	r1, r1, #3
 1233 0032 2E4A     		ldr	r2, .L108
 1234              	.LVL176:
 1235 0034 5218     		add	r2, r2, r1
 1236 0036 1832     		add	r2, r2, #24
 1237 0038 161C     		mov	r6, r2
 1238              	.LVL177:
 703:.\Generated_Source\PSoC4/CyBle_hids.c ****     const CYBLE_HIDSS_REPORT_T *locReport;
 1239              		.loc 1 703 0
 1240 003a 0025     		mov	r5, #0
 1241 003c 1AE0     		b	.L98
 1242              	.LVL178:
 1243              	.L99:
 721:.\Generated_Source\PSoC4/CyBle_hids.c ****         }
 722:.\Generated_Source\PSoC4/CyBle_hids.c ****         else if((charIndex >= CYBLE_HIDS_REPORT) && (charIndex <= CYBLE_HIDS_REPORT_END))
 1244              		.loc 1 722 0
 1245 003e D31F     		sub	r3, r2, #7
 1246              	.LVL179:
 1247 0040 012B     		cmp	r3, #1
 1248 0042 14D8     		bhi	.L103
 723:.\Generated_Source\PSoC4/CyBle_hids.c ****         {
 724:.\Generated_Source\PSoC4/CyBle_hids.c ****             /* Verify that requested report exists in particular service */
 725:.\Generated_Source\PSoC4/CyBle_hids.c ****             if((charIndex - CYBLE_HIDS_REPORT) < cyBle_hidss[serviceIndex].reportCount)
 1249              		.loc 1 725 0
 1250 0044 181C     		mov	r0, r3
 1251 0046 8B00     		lsl	r3, r1, #2
 1252 0048 5B18     		add	r3, r3, r1
 1253 004a DB00     		lsl	r3, r3, #3
 1254 004c 274D     		ldr	r5, .L108
 1255 004e EB18     		add	r3, r5, r3
 1256 0050 1B79     		ldrb	r3, [r3, #4]
ARM GAS  C:\Users\ADMINI~1\AppData\Local\Temp\cc7miFwc.s 			page 38


 1257 0052 9842     		cmp	r0, r3
 1258 0054 0DDA     		bge	.L104
 726:.\Generated_Source\PSoC4/CyBle_hids.c ****             {
 727:.\Generated_Source\PSoC4/CyBle_hids.c ****                 locReport = &cyBle_hidss[serviceIndex].reportArray[charIndex - CYBLE_HIDS_REPORT];
 1259              		.loc 1 727 0
 1260 0056 8B00     		lsl	r3, r1, #2
 1261 0058 5918     		add	r1, r3, r1
 1262              	.LVL180:
 1263 005a C900     		lsl	r1, r1, #3
 1264 005c 6918     		add	r1, r5, r1
 1265 005e 8E68     		ldr	r6, [r1, #8]
 1266 0060 5300     		lsl	r3, r2, #1
 1267 0062 9A18     		add	r2, r3, r2
 1268              	.LVL181:
 1269 0064 5200     		lsl	r2, r2, #1
 1270 0066 2A3A     		sub	r2, r2, #42
 1271 0068 B618     		add	r6, r6, r2
 1272              	.LVL182:
 703:.\Generated_Source\PSoC4/CyBle_hids.c ****     const CYBLE_HIDSS_REPORT_T *locReport;
 1273              		.loc 1 703 0
 1274 006a 0025     		mov	r5, #0
 1275 006c 02E0     		b	.L98
 1276              	.LVL183:
 1277              	.L103:
 728:.\Generated_Source\PSoC4/CyBle_hids.c ****             }
 729:.\Generated_Source\PSoC4/CyBle_hids.c ****             else
 730:.\Generated_Source\PSoC4/CyBle_hids.c ****             {
 731:.\Generated_Source\PSoC4/CyBle_hids.c ****                 apiResult = CYBLE_ERROR_INVALID_PARAMETER;
 732:.\Generated_Source\PSoC4/CyBle_hids.c ****             }
 733:.\Generated_Source\PSoC4/CyBle_hids.c ****         }
 734:.\Generated_Source\PSoC4/CyBle_hids.c ****         else
 735:.\Generated_Source\PSoC4/CyBle_hids.c ****         {
 736:.\Generated_Source\PSoC4/CyBle_hids.c ****             apiResult = CYBLE_ERROR_INVALID_PARAMETER;
 1278              		.loc 1 736 0
 1279 006e 0125     		mov	r5, #1
 1280 0070 00E0     		b	.L98
 1281              	.L104:
 731:.\Generated_Source\PSoC4/CyBle_hids.c ****             }
 1282              		.loc 1 731 0
 1283 0072 0125     		mov	r5, #1
 1284              	.LVL184:
 1285              	.L98:
 737:.\Generated_Source\PSoC4/CyBle_hids.c ****         }
 738:.\Generated_Source\PSoC4/CyBle_hids.c ****         if(apiResult == CYBLE_ERROR_OK)
 1286              		.loc 1 738 0
 1287 0074 002D     		cmp	r5, #0
 1288 0076 36D1     		bne	.L96
 739:.\Generated_Source\PSoC4/CyBle_hids.c ****         {
 740:.\Generated_Source\PSoC4/CyBle_hids.c ****             if(locReport->reportHandle == CYBLE_GATT_INVALID_ATTR_HANDLE_VALUE)
 1289              		.loc 1 740 0
 1290 0078 3388     		ldrh	r3, [r6]
 1291 007a 002B     		cmp	r3, #0
 1292 007c 2DD0     		beq	.L105
 741:.\Generated_Source\PSoC4/CyBle_hids.c ****             {
 742:.\Generated_Source\PSoC4/CyBle_hids.c ****                 apiResult = CYBLE_ERROR_GATT_DB_INVALID_ATTR_HANDLE;
 743:.\Generated_Source\PSoC4/CyBle_hids.c ****             }
 744:.\Generated_Source\PSoC4/CyBle_hids.c ****             else
ARM GAS  C:\Users\ADMINI~1\AppData\Local\Temp\cc7miFwc.s 			page 39


 745:.\Generated_Source\PSoC4/CyBle_hids.c ****             {
 746:.\Generated_Source\PSoC4/CyBle_hids.c ****                 /* Send Notification if it is enabled and connected */
 747:.\Generated_Source\PSoC4/CyBle_hids.c ****                 if(CYBLE_IS_NOTIFICATION_ENABLED(locReport->cccdHandle))
 1293              		.loc 1 747 0
 1294 007e 7388     		ldrh	r3, [r6, #2]
 1295 0080 013B     		sub	r3, r3, #1
 1296 0082 9A00     		lsl	r2, r3, #2
 1297 0084 D318     		add	r3, r2, r3
 1298 0086 9B00     		lsl	r3, r3, #2
 1299 0088 194A     		ldr	r2, .L108+4
 1300 008a D318     		add	r3, r2, r3
 1301 008c 1B69     		ldr	r3, [r3, #16]
 1302 008e 5868     		ldr	r0, [r3, #4]
 1303 0090 FFF7FEFF 		bl	CyBle_Get16ByPtr
 1304              	.LVL185:
 1305 0094 C307     		lsl	r3, r0, #31
 1306 0096 0ED5     		bpl	.L100
 748:.\Generated_Source\PSoC4/CyBle_hids.c ****                 {
 749:.\Generated_Source\PSoC4/CyBle_hids.c ****                     if(CYBLE_STATE_CONNECTED == cyBle_state)
 1307              		.loc 1 749 0
 1308 0098 164B     		ldr	r3, .L108+8
 1309 009a 1B78     		ldrb	r3, [r3]
 1310 009c 022B     		cmp	r3, #2
 1311 009e 1ED1     		bne	.L106
 750:.\Generated_Source\PSoC4/CyBle_hids.c ****                     {
 751:.\Generated_Source\PSoC4/CyBle_hids.c ****                         /* Fill all fields of write request structure ... */
 752:.\Generated_Source\PSoC4/CyBle_hids.c ****                         ntfReqParam.attrHandle = locReport->reportHandle;
 1312              		.loc 1 752 0
 1313 00a0 3388     		ldrh	r3, [r6]
 1314 00a2 05A9     		add	r1, sp, #20
 1315 00a4 0B81     		strh	r3, [r1, #8]
 753:.\Generated_Source\PSoC4/CyBle_hids.c ****                         ntfReqParam.value.val = attrValue;
 1316              		.loc 1 753 0
 1317 00a6 0C9B     		ldr	r3, [sp, #48]
 1318 00a8 0593     		str	r3, [sp, #20]
 754:.\Generated_Source\PSoC4/CyBle_hids.c ****                         ntfReqParam.value.len = attrSize;
 1319              		.loc 1 754 0
 1320 00aa 8C80     		strh	r4, [r1, #4]
 755:.\Generated_Source\PSoC4/CyBle_hids.c **** 
 756:.\Generated_Source\PSoC4/CyBle_hids.c ****                         /* Send notification to client using previously filled structure */
 757:.\Generated_Source\PSoC4/CyBle_hids.c ****                         apiResult = CyBle_GattsNotification(connHandle, &ntfReqParam);
 1321              		.loc 1 757 0
 1322 00ac 0198     		ldr	r0, [sp, #4]
 1323 00ae FFF7FEFF 		bl	CyBle_GattsNotification
 1324              	.LVL186:
 1325 00b2 051C     		mov	r5, r0
 1326              	.LVL187:
 1327 00b4 17E0     		b	.L96
 1328              	.LVL188:
 1329              	.L100:
 758:.\Generated_Source\PSoC4/CyBle_hids.c ****                     }
 759:.\Generated_Source\PSoC4/CyBle_hids.c ****                     else
 760:.\Generated_Source\PSoC4/CyBle_hids.c ****                     {
 761:.\Generated_Source\PSoC4/CyBle_hids.c ****                         apiResult = CYBLE_ERROR_INVALID_STATE;
 762:.\Generated_Source\PSoC4/CyBle_hids.c ****                     }
 763:.\Generated_Source\PSoC4/CyBle_hids.c ****                 }
 764:.\Generated_Source\PSoC4/CyBle_hids.c ****                 else    /* Store data in database */
ARM GAS  C:\Users\ADMINI~1\AppData\Local\Temp\cc7miFwc.s 			page 40


 765:.\Generated_Source\PSoC4/CyBle_hids.c ****                 {
 766:.\Generated_Source\PSoC4/CyBle_hids.c ****                     locHandleValuePair.attrHandle = locReport->reportHandle;
 1330              		.loc 1 766 0
 1331 00b6 3388     		ldrh	r3, [r6]
 1332 00b8 02A8     		add	r0, sp, #8
 1333 00ba 0381     		strh	r3, [r0, #8]
 767:.\Generated_Source\PSoC4/CyBle_hids.c ****                     locHandleValuePair.value.len = attrSize;
 1334              		.loc 1 767 0
 1335 00bc 8480     		strh	r4, [r0, #4]
 768:.\Generated_Source\PSoC4/CyBle_hids.c ****                     locHandleValuePair.value.val = attrValue;
 1336              		.loc 1 768 0
 1337 00be 0C9B     		ldr	r3, [sp, #48]
 1338 00c0 0293     		str	r3, [sp, #8]
 769:.\Generated_Source\PSoC4/CyBle_hids.c ****                     if(CYBLE_GATT_ERR_NONE !=
 770:.\Generated_Source\PSoC4/CyBle_hids.c ****                         CyBle_GattsWriteAttributeValue(&locHandleValuePair, 0u, NULL, CYBLE_GATT_DB
 1339              		.loc 1 770 0
 1340 00c2 0021     		mov	r1, #0
 1341 00c4 0022     		mov	r2, #0
 1342 00c6 0023     		mov	r3, #0
 1343 00c8 FFF7FEFF 		bl	CyBle_GattsWriteAttributeValue
 1344              	.LVL189:
 769:.\Generated_Source\PSoC4/CyBle_hids.c ****                     if(CYBLE_GATT_ERR_NONE !=
 1345              		.loc 1 769 0
 1346 00cc 0028     		cmp	r0, #0
 1347 00ce 09D1     		bne	.L107
 1348 00d0 09E0     		b	.L96
 1349              	.LVL190:
 1350              	.L101:
 710:.\Generated_Source\PSoC4/CyBle_hids.c ****     }
 1351              		.loc 1 710 0
 1352 00d2 0125     		mov	r5, #1
 1353 00d4 07E0     		b	.L96
 1354              	.L102:
 1355 00d6 0125     		mov	r5, #1
 1356 00d8 05E0     		b	.L96
 1357              	.LVL191:
 1358              	.L105:
 742:.\Generated_Source\PSoC4/CyBle_hids.c ****             }
 1359              		.loc 1 742 0
 1360 00da 1325     		mov	r5, #19
 1361              	.LVL192:
 1362 00dc 03E0     		b	.L96
 1363              	.LVL193:
 1364              	.L106:
 761:.\Generated_Source\PSoC4/CyBle_hids.c ****                     }
 1365              		.loc 1 761 0
 1366 00de 0425     		mov	r5, #4
 1367              	.LVL194:
 1368 00e0 FF35     		add	r5, r5, #255
 1369 00e2 00E0     		b	.L96
 1370              	.LVL195:
 1371              	.L107:
 771:.\Generated_Source\PSoC4/CyBle_hids.c ****                     {
 772:.\Generated_Source\PSoC4/CyBle_hids.c ****                         apiResult = CYBLE_ERROR_INVALID_PARAMETER;
 1372              		.loc 1 772 0
 1373 00e4 0125     		mov	r5, #1
 1374              	.LVL196:
ARM GAS  C:\Users\ADMINI~1\AppData\Local\Temp\cc7miFwc.s 			page 41


 1375              	.L96:
 773:.\Generated_Source\PSoC4/CyBle_hids.c ****                     }
 774:.\Generated_Source\PSoC4/CyBle_hids.c ****                 }
 775:.\Generated_Source\PSoC4/CyBle_hids.c ****             }
 776:.\Generated_Source\PSoC4/CyBle_hids.c ****         }
 777:.\Generated_Source\PSoC4/CyBle_hids.c ****     }
 778:.\Generated_Source\PSoC4/CyBle_hids.c ****     return (apiResult);
 779:.\Generated_Source\PSoC4/CyBle_hids.c **** }
 1376              		.loc 1 779 0
 1377 00e6 281C     		mov	r0, r5
 1378 00e8 08B0     		add	sp, sp, #32
 1379              		@ sp needed
 1380              	.LVL197:
 1381 00ea 70BD     		pop	{r4, r5, r6, pc}
 1382              	.L109:
 1383              		.align	2
 1384              	.L108:
 1385 00ec 38000000 		.word	.LANCHOR1
 1386 00f0 00000000 		.word	cyBle_gattDB
 1387 00f4 00000000 		.word	cyBle_state
 1388              		.cfi_endproc
 1389              	.LFE9:
 1390              		.size	CyBle_HidssSendNotification, .-CyBle_HidssSendNotification
 1391              		.section	.text.CyBle_HidssOnDeviceConnected,"ax",%progbits
 1392              		.align	2
 1393              		.global	CyBle_HidssOnDeviceConnected
 1394              		.code	16
 1395              		.thumb_func
 1396              		.type	CyBle_HidssOnDeviceConnected, %function
 1397              	CyBle_HidssOnDeviceConnected:
 1398              	.LFB10:
 780:.\Generated_Source\PSoC4/CyBle_hids.c **** 
 781:.\Generated_Source\PSoC4/CyBle_hids.c **** 
 782:.\Generated_Source\PSoC4/CyBle_hids.c **** /****************************************************************************** 
 783:.\Generated_Source\PSoC4/CyBle_hids.c **** * Function Name: CyBle_HidssOnDeviceConnected
 784:.\Generated_Source\PSoC4/CyBle_hids.c **** ***************************************************************************//**
 785:.\Generated_Source\PSoC4/CyBle_hids.c **** * 
 786:.\Generated_Source\PSoC4/CyBle_hids.c **** *  Handles the connection establishment request.
 787:.\Generated_Source\PSoC4/CyBle_hids.c **** * 
 788:.\Generated_Source\PSoC4/CyBle_hids.c **** * \return
 789:.\Generated_Source\PSoC4/CyBle_hids.c **** *  None
 790:.\Generated_Source\PSoC4/CyBle_hids.c **** * 
 791:.\Generated_Source\PSoC4/CyBle_hids.c **** ******************************************************************************/
 792:.\Generated_Source\PSoC4/CyBle_hids.c **** void CyBle_HidssOnDeviceConnected(void)
 793:.\Generated_Source\PSoC4/CyBle_hids.c **** {
 1399              		.loc 1 793 0
 1400              		.cfi_startproc
 1401              	.LVL198:
 794:.\Generated_Source\PSoC4/CyBle_hids.c ****     /* The Protocol Mode characteristic value shall be reset to the default value
 795:.\Generated_Source\PSoC4/CyBle_hids.c ****        following a connection establishment */
 796:.\Generated_Source\PSoC4/CyBle_hids.c ****     uint8 defaultProtocol = CYBLE_HIDS_PROTOCOL_DEFAULT;
 797:.\Generated_Source\PSoC4/CyBle_hids.c ****     uint8 locServIndex = 0u;
 798:.\Generated_Source\PSoC4/CyBle_hids.c ****     do
 799:.\Generated_Source\PSoC4/CyBle_hids.c ****     {
 800:.\Generated_Source\PSoC4/CyBle_hids.c ****         if(cyBle_hidss[locServIndex].protocolModeHandle !=
 801:.\Generated_Source\PSoC4/CyBle_hids.c ****            CYBLE_GATT_INVALID_ATTR_HANDLE_VALUE)
 802:.\Generated_Source\PSoC4/CyBle_hids.c ****         {
ARM GAS  C:\Users\ADMINI~1\AppData\Local\Temp\cc7miFwc.s 			page 42


 803:.\Generated_Source\PSoC4/CyBle_hids.c ****             /* Store default protocol value in database */
 804:.\Generated_Source\PSoC4/CyBle_hids.c ****             CYBLE_GATT_DB_ATTR_SET_GEN_VALUE(cyBle_hidss[locServIndex].protocolModeHandle,
 1402              		.loc 1 804 0
 1403 0000 EE23     		mov	r3, #238
 1404 0002 5B00     		lsl	r3, r3, #1
 1405 0004 024A     		ldr	r2, .L111
 1406 0006 D358     		ldr	r3, [r2, r3]
 1407 0008 5B68     		ldr	r3, [r3, #4]
 1408 000a 0122     		mov	r2, #1
 1409 000c 1A70     		strb	r2, [r3]
 1410              	.LVL199:
 805:.\Generated_Source\PSoC4/CyBle_hids.c ****                                                     &defaultProtocol, sizeof(defaultProtocol));
 806:.\Generated_Source\PSoC4/CyBle_hids.c ****         }
 807:.\Generated_Source\PSoC4/CyBle_hids.c ****         ++locServIndex;
 808:.\Generated_Source\PSoC4/CyBle_hids.c ****     }while(locServIndex < CYBLE_HIDSS_SERVICE_COUNT);
 809:.\Generated_Source\PSoC4/CyBle_hids.c **** }
 1411              		.loc 1 809 0
 1412              		@ sp needed
 1413 000e 7047     		bx	lr
 1414              	.L112:
 1415              		.align	2
 1416              	.L111:
 1417 0010 00000000 		.word	cyBle_gattDB
 1418              		.cfi_endproc
 1419              	.LFE10:
 1420              		.size	CyBle_HidssOnDeviceConnected, .-CyBle_HidssOnDeviceConnected
 1421              		.global	cyBle_hidss
 1422              		.section	.rodata
 1423              		.align	2
 1424              		.set	.LANCHOR1,. + 0
 1425              		.type	cyBle_hidss, %object
 1426              		.size	cyBle_hidss, 40
 1427              	cyBle_hidss:
 1428 0038 0C00     		.short	12
 1429 003a 1800     		.short	24
 1430 003c 02       		.byte	2
 1431 003d 000000   		.space	3
 1432 0040 60000000 		.word	cyBle_hids1ReportArray
 1433 0044 1A00     		.short	26
 1434 0046 1B00     		.short	27
 1435 0048 0000     		.short	0
 1436 004a 1D00     		.short	29
 1437 004c 0000     		.short	0
 1438 004e 0000     		.short	0
 1439 0050 0000     		.short	0
 1440 0052 0000     		.short	0
 1441 0054 0000     		.short	0
 1442 0056 0E00     		.short	14
 1443 0058 0000     		.short	0
 1444 005a 1400     		.short	20
 1445 005c 1600     		.short	22
 1446 005e 0000     		.space	2
 1447              		.align	2
 1448              		.set	.LANCHOR2,. + 0
 1449              		.type	cyBle_hids1ReportArray, %object
 1450              		.size	cyBle_hids1ReportArray, 12
 1451              	cyBle_hids1ReportArray:
ARM GAS  C:\Users\ADMINI~1\AppData\Local\Temp\cc7miFwc.s 			page 43


 1452 0060 1000     		.short	16
 1453 0062 1100     		.short	17
 1454 0064 1200     		.short	18
 1455 0066 1F00     		.short	31
 1456 0068 0000     		.short	0
 1457 006a 2000     		.short	32
 1458              		.bss
 1459              		.align	2
 1460              		.set	.LANCHOR0,. + 0
 1461              		.type	CyBle_HidsApplCallback, %object
 1462              		.size	CyBle_HidsApplCallback, 4
 1463              	CyBle_HidsApplCallback:
 1464 0000 00000000 		.space	4
 1465              		.text
 1466              	.Letext0:
 1467              		.file 2 ".\\Generated_Source\\PSoC4\\cytypes.h"
 1468              		.file 3 ".\\Generated_Source\\PSoC4\\CyBle_Stack.h"
 1469              		.file 4 ".\\Generated_Source\\PSoC4\\CyBle_StackGatt.h"
 1470              		.file 5 ".\\Generated_Source\\PSoC4\\CyBle_StackGattServer.h"
 1471              		.file 6 ".\\Generated_Source\\PSoC4\\CyBle_StackGattDb.h"
 1472              		.file 7 ".\\Generated_Source\\PSoC4\\CyBle.h"
 1473              		.file 8 ".\\Generated_Source\\PSoC4\\CyBle_dis.h"
 1474              		.file 9 ".\\Generated_Source\\PSoC4\\CyBle_hids.h"
 1475              		.file 10 ".\\Generated_Source\\PSoC4\\CyBle_eventHandler.h"
 1476              		.file 11 ".\\Generated_Source\\PSoC4\\CyBle_gatt.h"