ARM GAS  C:\Users\ADMINI~1\AppData\Local\Temp\ccKPHsmG.s 			page 1


   1              		.cpu cortex-m0
   2              		.fpu softvfp
   3              		.eabi_attribute 20, 1
   4              		.eabi_attribute 21, 1
   5              		.eabi_attribute 23, 3
   6              		.eabi_attribute 24, 1
   7              		.eabi_attribute 25, 1
   8              		.eabi_attribute 26, 1
   9              		.eabi_attribute 30, 1
  10              		.eabi_attribute 34, 0
  11              		.eabi_attribute 18, 4
  12              		.code	16
  13              		.file	"main.c"
  14              		.text
  15              	.Ltext0:
  16              		.cfi_sections	.debug_frame
  17              		.section	.text.LowPowerImplementation,"ax",%progbits
  18              		.align	2
  19              		.code	16
  20              		.thumb_func
  21              		.type	LowPowerImplementation, %function
  22              	LowPowerImplementation:
  23              	.LFB40:
  24              		.file 1 ".\\main.c"
   1:.\main.c      **** /*******************************************************************************
   2:.\main.c      **** * File Name: main.c
   3:.\main.c      **** *
   4:.\main.c      **** * Version: 1.30
   5:.\main.c      **** *
   6:.\main.c      **** * Description:
   7:.\main.c      **** *  This example shows how to use custom linker scripts to
   8:.\main.c      **** *  share a block of memory between bootloader and bootloadable projects.
   9:.\main.c      **** *  It demonstrates how the bootloader can place API functions such that the
  10:.\main.c      **** *  bootloadable can also call them. This allows creation of 
  11:.\main.c      **** *  over-the-air bootloader.
  12:.\main.c      **** *
  13:.\main.c      **** * References:
  14:.\main.c      **** *  BLUETOOTH SPECIFICATION Version 4.1
  15:.\main.c      **** *
  16:.\main.c      **** * Hardware Dependency:
  17:.\main.c      **** *  CY8CKIT-042 BLE
  18:.\main.c      **** *
  19:.\main.c      **** ********************************************************************************
  20:.\main.c      **** * Copyright 2014-2015, Cypress Semiconductor Corporation. All rights reserved.
  21:.\main.c      **** * This software is owned by Cypress Semiconductor Corporation and is protected
  22:.\main.c      **** * by and subject to worldwide patent and copyright laws and treaties.
  23:.\main.c      **** * Therefore, you may use this software only as provided in the license agreement
  24:.\main.c      **** * accompanying the software package from which you obtained this software.
  25:.\main.c      **** * CYPRESS AND ITS SUPPLIERS MAKE NO WARRANTY OF ANY KIND, EXPRESS OR IMPLIED,
  26:.\main.c      **** * WITH REGARD TO THIS SOFTWARE, INCLUDING, BUT NOT LIMITED TO, NONINFRINGEMENT,
  27:.\main.c      **** * IMPLIED WARRANTIES OF MERCHANTABILITY AND FITNESS FOR A PARTICULAR PURPOSE.
  28:.\main.c      **** *******************************************************************************/
  29:.\main.c      **** 
  30:.\main.c      **** #include "main.h"
  31:.\main.c      **** 
  32:.\main.c      **** CYBLE_CONN_HANDLE_T connHandle;
  33:.\main.c      **** 
ARM GAS  C:\Users\ADMINI~1\AppData\Local\Temp\ccKPHsmG.s 			page 2


  34:.\main.c      **** #if defined(__ARMCC_VERSION)
  35:.\main.c      ****     static unsigned long keep_me __attribute__((used));
  36:.\main.c      **** #endif /* defined(__ARMCC_VERSION) */
  37:.\main.c      **** static void LowPowerImplementation(void);
  38:.\main.c      **** 
  39:.\main.c      **** 
  40:.\main.c      **** /*******************************************************************************
  41:.\main.c      **** * Function Name: main
  42:.\main.c      **** ********************************************************************************
  43:.\main.c      **** *
  44:.\main.c      **** * Summary:
  45:.\main.c      **** *  Starts BLE component and performs all configuration changes required for
  46:.\main.c      **** *  BLE and Bootloader components operation.
  47:.\main.c      **** *
  48:.\main.c      **** * Parameters:
  49:.\main.c      **** *  None
  50:.\main.c      **** *
  51:.\main.c      **** * Return:
  52:.\main.c      **** *  None
  53:.\main.c      **** *
  54:.\main.c      **** *******************************************************************************/
  55:.\main.c      **** int main()
  56:.\main.c      **** {
  57:.\main.c      ****     const char8 serialNumber[] = "123456";
  58:.\main.c      ****     
  59:.\main.c      **** #if defined(__ARMCC_VERSION)    
  60:.\main.c      ****     keep_me = Image$$DATA$$ZI$$Limit;
  61:.\main.c      ****     CyReturnToBootloaddableAddress = 0u;
  62:.\main.c      **** #endif /*__ARMCC_VERSION*/    
  63:.\main.c      **** 
  64:.\main.c      **** 
  65:.\main.c      ****     packetRXFlag = 0u;
  66:.\main.c      **** //    UART_Start();
  67:.\main.c      **** //    
  68:.\main.c      **** //    DBG_PRINT_TEXT("\r\n");
  69:.\main.c      **** //    DBG_PRINT_TEXT("\r\n");
  70:.\main.c      **** //    DBG_PRINT_TEXT("> BLE OTA Fixed Stack Bootloader     Application Started\r\n");
  71:.\main.c      **** //    DBG_PRINT_TEXT("> Version: 1.30\r\n");
  72:.\main.c      **** //    DBG_PRINT_TEXT("> Compile Date and Time : " __DATE__ " " __TIME__ "\r\n");
  73:.\main.c      **** //    DBG_PRINT_TEXT("\r\n");
  74:.\main.c      **** //    DBG_PRINT_TEXT("\r\n");
  75:.\main.c      **** 
  76:.\main.c      ****     CyGlobalIntEnable;
  77:.\main.c      **** 
  78:.\main.c      **** //    Bootloading_LED_Write(LED_OFF);
  79:.\main.c      **** //    Advertising_LED_1_Write(LED_OFF);
  80:.\main.c      **** //    Advertising_LED_2_Write(LED_OFF);
  81:.\main.c      **** 
  82:.\main.c      ****     
  83:.\main.c      ****     CyBle_Start(AppCallBack);
  84:.\main.c      ****     
  85:.\main.c      ****     /* Set Serial Number string not initialized in GUI */
  86:.\main.c      ****     CyBle_DissSetCharacteristicValue(CYBLE_DIS_SERIAL_NUMBER, sizeof(serialNumber), (uint8 *)serial
  87:.\main.c      **** 
  88:.\main.c      ****     //CyBle_GattsDisableAttribute(cyBle_hidss[0].serviceHandle);
  89:.\main.c      ****     CyBle_GattsDisableAttribute(cyBle_diss.serviceHandle);
  90:.\main.c      ****     CyBle_GattsDisableAttribute(cyBle_bass[0].serviceHandle);
ARM GAS  C:\Users\ADMINI~1\AppData\Local\Temp\ccKPHsmG.s 			page 3


  91:.\main.c      ****     //CyBle_GattsDisableAttribute(cyBle_scpss.serviceHandle);
  92:.\main.c      **** 
  93:.\main.c      ****     /* Force client to rediscover services in range of bootloader service */
  94:.\main.c      ****     WriteAttrServChanged();
  95:.\main.c      ****     
  96:.\main.c      **** //    WDT_Start();
  97:.\main.c      **** 
  98:.\main.c      ****     while(1u == 1u)
  99:.\main.c      ****     {
 100:.\main.c      ****         /* CyBle_ProcessEvents() allows BLE stack to process pending events */
 101:.\main.c      ****         CyBle_ProcessEvents();
 102:.\main.c      **** 
 103:.\main.c      ****         /* To achieve low power in the device */
 104:.\main.c      ****         LowPowerImplementation();
 105:.\main.c      **** 
 106:.\main.c      ****         /* Handle blue led blinking */
 107:.\main.c      **** //        HandleLeds();
 108:.\main.c      ****         
 109:.\main.c      ****         Bootloader_Start();
 110:.\main.c      ****     }
 111:.\main.c      **** }
 112:.\main.c      **** 
 113:.\main.c      **** 
 114:.\main.c      **** /*******************************************************************************
 115:.\main.c      **** * Function Name: AppCallBack()
 116:.\main.c      **** ********************************************************************************
 117:.\main.c      **** *
 118:.\main.c      **** * Summary:
 119:.\main.c      **** *   This function handles events that are generated by BLE stack.
 120:.\main.c      **** *
 121:.\main.c      **** * Parameters:
 122:.\main.c      **** *   None
 123:.\main.c      **** *
 124:.\main.c      **** * Return:
 125:.\main.c      **** *   None
 126:.\main.c      **** *
 127:.\main.c      **** *******************************************************************************/
 128:.\main.c      **** void AppCallBack(uint32 event, void* eventParam)
 129:.\main.c      **** {
 130:.\main.c      ****     CYBLE_API_RESULT_T apiResult;
 131:.\main.c      ****     CYBLE_GAP_CONN_UPDATE_PARAM_T connUpdateParam;
 132:.\main.c      ****     
 133:.\main.c      ****     switch (event)
 134:.\main.c      ****     {
 135:.\main.c      ****         /**********************************************************
 136:.\main.c      ****         *                       General Events
 137:.\main.c      ****         ***********************************************************/
 138:.\main.c      ****         case CYBLE_EVT_STACK_ON: /* This event received when component is Started */
 139:.\main.c      ****             /* Enter into discoverable mode so that remote can search it. */
 140:.\main.c      ****             apiResult = CyBle_GappStartAdvertisement(CYBLE_ADVERTISING_FAST);
 141:.\main.c      ****             if(apiResult != CYBLE_ERROR_OK)
 142:.\main.c      ****             {
 143:.\main.c      ****             }
 144:.\main.c      ****             break;
 145:.\main.c      ****         case CYBLE_EVT_HARDWARE_ERROR:    /* This event indicates that some internal HW error has o
 146:.\main.c      **** //            DBG_PRINTF("CYBLE_EVT_HARDWARE_ERROR\r\n");
 147:.\main.c      ****             break;
ARM GAS  C:\Users\ADMINI~1\AppData\Local\Temp\ccKPHsmG.s 			page 4


 148:.\main.c      ****             
 149:.\main.c      **** 
 150:.\main.c      ****         /**********************************************************
 151:.\main.c      ****         *                       GAP Events
 152:.\main.c      ****         ***********************************************************/
 153:.\main.c      ****         case CYBLE_EVT_GAP_AUTH_REQ:
 154:.\main.c      **** //            DBG_PRINTF("CYBLE_EVT_AUTH_REQ: security=%x, bonding=%x, ekeySize=%x, err=%x \r\n",
 155:.\main.c      **** //                (*(CYBLE_GAP_AUTH_INFO_T *)eventParam).security,
 156:.\main.c      **** //                (*(CYBLE_GAP_AUTH_INFO_T *)eventParam).bonding,
 157:.\main.c      **** //                (*(CYBLE_GAP_AUTH_INFO_T *)eventParam).ekeySize,
 158:.\main.c      **** //                (*(CYBLE_GAP_AUTH_INFO_T *)eventParam).authErr);
 159:.\main.c      ****             break;
 160:.\main.c      ****         case CYBLE_EVT_GAP_PASSKEY_ENTRY_REQUEST:
 161:.\main.c      **** //            DBG_PRINTF("CYBLE_EVT_PASSKEY_ENTRY_REQUEST press 'p' to enter passkey \r\n");
 162:.\main.c      ****             break;
 163:.\main.c      ****         case CYBLE_EVT_GAP_PASSKEY_DISPLAY_REQUEST:
 164:.\main.c      **** //            DBG_PRINTF("CYBLE_EVT_PASSKEY_DISPLAY_REQUEST %6.6ld \r\n", *(uint32 *)eventParam);
 165:.\main.c      ****             break;
 166:.\main.c      ****         case CYBLE_EVT_GAP_KEYINFO_EXCHNGE_CMPLT:
 167:.\main.c      **** //            DBG_PRINTF("CYBLE_EVT_GAP_KEYINFO_EXCHNGE_CMPLT \r\n");
 168:.\main.c      ****             break;
 169:.\main.c      ****         case CYBLE_EVT_GAP_AUTH_COMPLETE:
 170:.\main.c      **** //            DBG_PRINTF("AUTH_COMPLETE \r\n");
 171:.\main.c      ****             break;
 172:.\main.c      ****         case CYBLE_EVT_GAP_AUTH_FAILED:
 173:.\main.c      **** //            DBG_PRINTF("CYBLE_EVT_AUTH_FAILED: %x \r\n", *(uint8 *)eventParam);
 174:.\main.c      ****             break;
 175:.\main.c      ****         case CYBLE_EVT_GAP_DEVICE_CONNECTED:
 176:.\main.c      **** //            DBG_PRINTF("CYBLE_EVT_GAP_DEVICE_CONNECTED: %d \r\n", connHandle.bdHandle);
 177:.\main.c      ****             if ((*(CYBLE_GAP_CONN_PARAM_UPDATED_IN_CONTROLLER_T *)eventParam).connIntv > 0x0006u)
 178:.\main.c      ****             {
 179:.\main.c      ****                 /* If connection settings do not match expected ones - request parameter update */
 180:.\main.c      ****                 connUpdateParam.connIntvMin   = 0x0006u;
 181:.\main.c      ****                 connUpdateParam.connIntvMax   = 0x0006u;
 182:.\main.c      ****                 connUpdateParam.connLatency   = 0x0000u;
 183:.\main.c      ****                 connUpdateParam.supervisionTO = 0x0064u;
 184:.\main.c      ****                 apiResult = CyBle_L2capLeConnectionParamUpdateRequest(cyBle_connHandle.bdHandle, &c
 185:.\main.c      **** //                DBG_PRINTF("CyBle_L2capLeConnectionParamUpdateRequest API: 0x%2.2x \r\n", apiResu
 186:.\main.c      ****             }
 187:.\main.c      **** //            Bootloading_LED_Write(LED_OFF);
 188:.\main.c      ****             break;
 189:.\main.c      ****         case CYBLE_EVT_GAP_DEVICE_DISCONNECTED:
 190:.\main.c      **** //            DBG_PRINTF("CYBLE_EVT_GAP_DEVICE_DISCONNECTED\r\n");
 191:.\main.c      ****             apiResult = CyBle_GappStartAdvertisement(CYBLE_ADVERTISING_FAST);
 192:.\main.c      ****             if(apiResult != CYBLE_ERROR_OK)
 193:.\main.c      ****             {
 194:.\main.c      **** //                DBG_PRINTF("StartAdvertisement API Error: %d \r\n", apiResult);
 195:.\main.c      ****             }
 196:.\main.c      ****             break;
 197:.\main.c      ****         case CYBLE_EVT_GAP_ENCRYPT_CHANGE:
 198:.\main.c      ****             DBG_PRINTF("CYBLE_EVT_GAP_ENCRYPT_CHANGE: %x \r\n", *(uint8 *)eventParam);
 199:.\main.c      ****             break;
 200:.\main.c      ****         case CYBLE_EVT_GAPC_CONNECTION_UPDATE_COMPLETE:
 201:.\main.c      **** //            DBG_PRINTF("CYBLE_EVT_CONNECTION_UPDATE_COMPLETE: %x \r\n", *(uint8 *)eventParam);
 202:.\main.c      ****             break;
 203:.\main.c      ****         case CYBLE_EVT_GAPP_ADVERTISEMENT_START_STOP:
 204:.\main.c      ****             if(CYBLE_STATE_DISCONNECTED == CyBle_GetState())
ARM GAS  C:\Users\ADMINI~1\AppData\Local\Temp\ccKPHsmG.s 			page 5


 205:.\main.c      ****             {   
 206:.\main.c      ****                 /* Fast and slow advertising period complete, go to low power  
 207:.\main.c      ****                  * mode (Hibernate mode) and wait for an external
 208:.\main.c      ****                  * user event to wake up the device again */
 209:.\main.c      **** //                DBG_PRINTF("Entering low power mode...\r\n");
 210:.\main.c      **** //                Bootloading_LED_Write(LED_ON);
 211:.\main.c      **** //                Advertising_LED_1_Write(LED_ON);
 212:.\main.c      **** //                Advertising_LED_2_Write(LED_ON);
 213:.\main.c      ****                 Bootloader_Service_Activation_ClearInterrupt();
 214:.\main.c      ****                 Wakeup_Interrupt_ClearPending();
 215:.\main.c      ****                 Wakeup_Interrupt_Start();
 216:.\main.c      ****                 CySysPmHibernate();
 217:.\main.c      ****             }
 218:.\main.c      ****             break;
 219:.\main.c      **** 
 220:.\main.c      ****             
 221:.\main.c      ****         /**********************************************************
 222:.\main.c      ****         *                       GATT Events
 223:.\main.c      ****         ***********************************************************/
 224:.\main.c      ****         case CYBLE_EVT_GATT_CONNECT_IND:
 225:.\main.c      ****             connHandle = *(CYBLE_CONN_HANDLE_T *)eventParam;
 226:.\main.c      ****             break;
 227:.\main.c      ****         case CYBLE_EVT_GATT_DISCONNECT_IND:
 228:.\main.c      ****             connHandle.bdHandle = 0;
 229:.\main.c      ****             break;
 230:.\main.c      ****         case CYBLE_EVT_GATTS_WRITE_CMD_REQ:
 231:.\main.c      **** //            DBG_PRINTF("CYBLE_EVT_GATTS_WRITE_CMD_REQ\r\n");
 232:.\main.c      ****             break;
 233:.\main.c      ****         case CYBLE_EVT_GATTS_PREP_WRITE_REQ:
 234:.\main.c      ****             (void)CyBle_GattsPrepWriteReqSupport(CYBLE_GATTS_PREP_WRITE_NOT_SUPPORT);
 235:.\main.c      ****             break;
 236:.\main.c      ****         case CYBLE_EVT_HCI_STATUS:
 237:.\main.c      **** //            DBG_PRINTF("CYBLE_EVT_HCI_STATUS\r\n");
 238:.\main.c      ****         default:
 239:.\main.c      ****             break;
 240:.\main.c      ****         }
 241:.\main.c      **** }
 242:.\main.c      **** 
 243:.\main.c      **** 
 244:.\main.c      **** /*******************************************************************************
 245:.\main.c      **** * Function Name: WriteAttrServChanged()
 246:.\main.c      **** ********************************************************************************
 247:.\main.c      **** *
 248:.\main.c      **** * Summary:
 249:.\main.c      **** *   Sets serviceChangedHandle for enabling or disabling hidden service.
 250:.\main.c      **** *
 251:.\main.c      **** * Parameters:
 252:.\main.c      **** *   None
 253:.\main.c      **** *
 254:.\main.c      **** * Return:
 255:.\main.c      **** *   None
 256:.\main.c      **** *
 257:.\main.c      **** *******************************************************************************/
 258:.\main.c      **** void WriteAttrServChanged(void)
 259:.\main.c      **** {
 260:.\main.c      ****     uint32 value;
 261:.\main.c      ****     CYBLE_GATT_HANDLE_VALUE_PAIR_T    handleValuePair;
ARM GAS  C:\Users\ADMINI~1\AppData\Local\Temp\ccKPHsmG.s 			page 6


 262:.\main.c      ****     
 263:.\main.c      ****     /* Force client to rediscover services in range of bootloader service */
 264:.\main.c      ****     value = ((uint32)(((uint32) cyBle_btss.btServiceHandle) << 16u)) | 
 265:.\main.c      ****         ((uint32) (cyBle_btss.btServiceInfo[0u].btServiceCharDescriptors[0u]));
 266:.\main.c      **** 
 267:.\main.c      ****     handleValuePair.value.val = (uint8 *)&value;
 268:.\main.c      ****     handleValuePair.value.len = sizeof(value);
 269:.\main.c      **** 
 270:.\main.c      ****     handleValuePair.attrHandle = cyBle_gatts.serviceChangedHandle;
 271:.\main.c      ****     CyBle_GattsWriteAttributeValue(&handleValuePair, 0u, NULL,CYBLE_GATT_DB_LOCALLY_INITIATED);
 272:.\main.c      **** }
 273:.\main.c      **** 
 274:.\main.c      **** 
 275:.\main.c      **** /*******************************************************************************
 276:.\main.c      **** * Function Name: LowPowerImplementation()
 277:.\main.c      **** ********************************************************************************
 278:.\main.c      **** * Summary:
 279:.\main.c      **** * Implements low power in the project.
 280:.\main.c      **** *
 281:.\main.c      **** * Parameters:
 282:.\main.c      **** * None
 283:.\main.c      **** *
 284:.\main.c      **** * Return:
 285:.\main.c      **** * None
 286:.\main.c      **** *
 287:.\main.c      **** * Theory:
 288:.\main.c      **** * The function tries to enter deep sleep as much as possible - whenever the 
 289:.\main.c      **** * BLE is idle and the UART transmission/reception is not happening. At all other
 290:.\main.c      **** * times, the function tries to enter CPU sleep.
 291:.\main.c      **** *
 292:.\main.c      **** *******************************************************************************/
 293:.\main.c      **** static void LowPowerImplementation(void)
 294:.\main.c      **** {
  25              		.loc 1 294 0
  26              		.cfi_startproc
  27 0000 38B5     		push	{r3, r4, r5, lr}
  28              		.cfi_def_cfa_offset 16
  29              		.cfi_offset 3, -16
  30              		.cfi_offset 4, -12
  31              		.cfi_offset 5, -8
  32              		.cfi_offset 14, -4
 295:.\main.c      ****     CYBLE_LP_MODE_T bleMode;
 296:.\main.c      ****     uint8 interruptStatus;
 297:.\main.c      ****     
 298:.\main.c      ****     /* For advertising and connected states, implement deep sleep 
 299:.\main.c      ****      * functionality to achieve low power in the system. For more details
 300:.\main.c      ****      * on the low power implementation, refer to the Low Power Application 
 301:.\main.c      ****      * Note.
 302:.\main.c      ****      */
 303:.\main.c      ****     if((CyBle_GetState() == CYBLE_STATE_ADVERTISING) || 
  33              		.loc 1 303 0
  34 0002 114B     		ldr	r3, .L6
  35 0004 1B78     		ldrb	r3, [r3]
  36 0006 023B     		sub	r3, r3, #2
  37 0008 012B     		cmp	r3, #1
  38 000a 1CD8     		bhi	.L1
 304:.\main.c      ****        (CyBle_GetState() == CYBLE_STATE_CONNECTED))
ARM GAS  C:\Users\ADMINI~1\AppData\Local\Temp\ccKPHsmG.s 			page 7


 305:.\main.c      ****     {
 306:.\main.c      ****         /* Request BLE subsystem to enter into Deep-Sleep mode between connection and advertising i
 307:.\main.c      ****         bleMode = CyBle_EnterLPM(CYBLE_BLESS_DEEPSLEEP);
  39              		.loc 1 307 0
  40 000c 0320     		mov	r0, #3
  41 000e FFF7FEFF 		bl	CyBle_EnterLPM
  42              	.LVL0:
  43 0012 051C     		mov	r5, r0
  44              	.LVL1:
 308:.\main.c      ****         /* Disable global interrupts */
 309:.\main.c      ****         interruptStatus = CyEnterCriticalSection();
  45              		.loc 1 309 0
  46 0014 FFF7FEFF 		bl	CyEnterCriticalSection
  47              	.LVL2:
  48 0018 041C     		mov	r4, r0
  49              	.LVL3:
 310:.\main.c      ****         /* When BLE subsystem has been put into Deep-Sleep mode */
 311:.\main.c      ****         if(bleMode == CYBLE_BLESS_DEEPSLEEP)
  50              		.loc 1 311 0
  51 001a 032D     		cmp	r5, #3
  52 001c 0AD1     		bne	.L3
 312:.\main.c      ****         {
 313:.\main.c      ****             /* And it is still there or ECO is on */
 314:.\main.c      ****             if((CyBle_GetBleSsState() == CYBLE_BLESS_STATE_ECO_ON) || 
  53              		.loc 1 314 0
  54 001e FFF7FEFF 		bl	CyBle_GetBleSsState
  55              	.LVL4:
  56 0022 0428     		cmp	r0, #4
  57 0024 03D0     		beq	.L4
 315:.\main.c      ****                (CyBle_GetBleSsState() == CYBLE_BLESS_STATE_DEEPSLEEP))
  58              		.loc 1 315 0 discriminator 1
  59 0026 FFF7FEFF 		bl	CyBle_GetBleSsState
  60              	.LVL5:
 314:.\main.c      ****                (CyBle_GetBleSsState() == CYBLE_BLESS_STATE_DEEPSLEEP))
  61              		.loc 1 314 0 discriminator 1
  62 002a 0628     		cmp	r0, #6
  63 002c 08D1     		bne	.L5
  64              	.L4:
 316:.\main.c      ****             {
 317:.\main.c      ****                 CySysPmDeepSleep();
  65              		.loc 1 317 0
  66 002e FFF7FEFF 		bl	CySysPmDeepSleep
  67              	.LVL6:
  68 0032 05E0     		b	.L5
  69              	.L3:
 318:.\main.c      ****                 
 319:.\main.c      ****                 /* Handle advertising led blinking */
 320:.\main.c      **** //                HandleLeds();
 321:.\main.c      ****             }
 322:.\main.c      ****         }
 323:.\main.c      ****         else /* When BLE subsystem has been put into Sleep mode or is active */
 324:.\main.c      ****         {
 325:.\main.c      ****             /* And hardware doesn't finish Tx/Rx opeation - put the CPU into Sleep mode */
 326:.\main.c      ****             if(CyBle_GetBleSsState() != CYBLE_BLESS_STATE_EVENT_CLOSE)
  70              		.loc 1 326 0
  71 0034 FFF7FEFF 		bl	CyBle_GetBleSsState
  72              	.LVL7:
ARM GAS  C:\Users\ADMINI~1\AppData\Local\Temp\ccKPHsmG.s 			page 8


  73 0038 0228     		cmp	r0, #2
  74 003a 01D0     		beq	.L5
 327:.\main.c      ****             {
 328:.\main.c      ****                 CySysPmSleep();
  75              		.loc 1 328 0
  76 003c FFF7FEFF 		bl	CySysPmSleep
  77              	.LVL8:
  78              	.L5:
 329:.\main.c      ****             }
 330:.\main.c      ****         }
 331:.\main.c      ****         /* Enable global interrupt */
 332:.\main.c      ****         CyExitCriticalSection(interruptStatus);
  79              		.loc 1 332 0
  80 0040 201C     		mov	r0, r4
  81 0042 FFF7FEFF 		bl	CyExitCriticalSection
  82              	.LVL9:
  83              	.L1:
 333:.\main.c      ****     }
 334:.\main.c      **** }
  84              		.loc 1 334 0
  85              		@ sp needed
  86 0046 38BD     		pop	{r3, r4, r5, pc}
  87              	.L7:
  88              		.align	2
  89              	.L6:
  90 0048 00000000 		.word	cyBle_state
  91              		.cfi_endproc
  92              	.LFE40:
  93              		.size	LowPowerImplementation, .-LowPowerImplementation
  94              		.section	.text.AppCallBack,"ax",%progbits
  95              		.align	2
  96              		.global	AppCallBack
  97              		.code	16
  98              		.thumb_func
  99              		.type	AppCallBack, %function
 100              	AppCallBack:
 101              	.LFB38:
 129:.\main.c      ****     CYBLE_API_RESULT_T apiResult;
 102              		.loc 1 129 0
 103              		.cfi_startproc
 104              	.LVL10:
 105 0000 00B5     		push	{lr}
 106              		.cfi_def_cfa_offset 4
 107              		.cfi_offset 14, -4
 108 0002 83B0     		sub	sp, sp, #12
 109              		.cfi_def_cfa_offset 16
 133:.\main.c      ****     {
 110              		.loc 1 133 0
 111 0004 4F28     		cmp	r0, #79
 112 0006 3AD8     		bhi	.L8
 113 0008 8000     		lsl	r0, r0, #2
 114              	.LVL11:
 115 000a 1E4B     		ldr	r3, .L19
 116 000c 1B58     		ldr	r3, [r3, r0]
 117 000e 9F46     		mov	pc, r3
 118              		.section	.rodata
 119              		.align	2
ARM GAS  C:\Users\ADMINI~1\AppData\Local\Temp\ccKPHsmG.s 			page 9


 120              	.L11:
 121 0000 7E000000 		.word	.L8
 122 0004 10000000 		.word	.L10
 123 0008 7E000000 		.word	.L8
 124 000c 7E000000 		.word	.L8
 125 0010 7E000000 		.word	.L8
 126 0014 7E000000 		.word	.L8
 127 0018 7E000000 		.word	.L8
 128 001c 7E000000 		.word	.L8
 129 0020 7E000000 		.word	.L8
 130 0024 7E000000 		.word	.L8
 131 0028 7E000000 		.word	.L8
 132 002c 7E000000 		.word	.L8
 133 0030 7E000000 		.word	.L8
 134 0034 7E000000 		.word	.L8
 135 0038 7E000000 		.word	.L8
 136 003c 7E000000 		.word	.L8
 137 0040 7E000000 		.word	.L8
 138 0044 7E000000 		.word	.L8
 139 0048 7E000000 		.word	.L8
 140 004c 7E000000 		.word	.L8
 141 0050 7E000000 		.word	.L8
 142 0054 7E000000 		.word	.L8
 143 0058 7E000000 		.word	.L8
 144 005c 7E000000 		.word	.L8
 145 0060 7E000000 		.word	.L8
 146 0064 7E000000 		.word	.L8
 147 0068 7E000000 		.word	.L8
 148 006c 7E000000 		.word	.L8
 149 0070 7E000000 		.word	.L8
 150 0074 7E000000 		.word	.L8
 151 0078 7E000000 		.word	.L8
 152 007c 7E000000 		.word	.L8
 153 0080 7E000000 		.word	.L8
 154 0084 7E000000 		.word	.L8
 155 0088 7E000000 		.word	.L8
 156 008c 7E000000 		.word	.L8
 157 0090 7E000000 		.word	.L8
 158 0094 7E000000 		.word	.L8
 159 0098 4C000000 		.word	.L12
 160 009c 18000000 		.word	.L13
 161 00a0 3A000000 		.word	.L14
 162 00a4 42000000 		.word	.L15
 163 00a8 7E000000 		.word	.L8
 164 00ac 7E000000 		.word	.L8
 165 00b0 7E000000 		.word	.L8
 166 00b4 7E000000 		.word	.L8
 167 00b8 7E000000 		.word	.L8
 168 00bc 7E000000 		.word	.L8
 169 00c0 7E000000 		.word	.L8
 170 00c4 7E000000 		.word	.L8
 171 00c8 7E000000 		.word	.L8
 172 00cc 7E000000 		.word	.L8
 173 00d0 7E000000 		.word	.L8
 174 00d4 7E000000 		.word	.L8
 175 00d8 7E000000 		.word	.L8
 176 00dc 7E000000 		.word	.L8
ARM GAS  C:\Users\ADMINI~1\AppData\Local\Temp\ccKPHsmG.s 			page 10


 177 00e0 7E000000 		.word	.L8
 178 00e4 7E000000 		.word	.L8
 179 00e8 7E000000 		.word	.L8
 180 00ec 7E000000 		.word	.L8
 181 00f0 7E000000 		.word	.L8
 182 00f4 7E000000 		.word	.L8
 183 00f8 7E000000 		.word	.L8
 184 00fc 7E000000 		.word	.L8
 185 0100 7E000000 		.word	.L8
 186 0104 66000000 		.word	.L16
 187 0108 70000000 		.word	.L17
 188 010c 7E000000 		.word	.L8
 189 0110 7E000000 		.word	.L8
 190 0114 7E000000 		.word	.L8
 191 0118 7E000000 		.word	.L8
 192 011c 7E000000 		.word	.L8
 193 0120 7E000000 		.word	.L8
 194 0124 7E000000 		.word	.L8
 195 0128 7E000000 		.word	.L8
 196 012c 7E000000 		.word	.L8
 197 0130 7E000000 		.word	.L8
 198 0134 7E000000 		.word	.L8
 199 0138 7E000000 		.word	.L8
 200 013c 78000000 		.word	.L18
 201              		.section	.text.AppCallBack
 202              	.L10:
 140:.\main.c      ****             if(apiResult != CYBLE_ERROR_OK)
 203              		.loc 1 140 0
 204 0010 0020     		mov	r0, #0
 205 0012 FFF7FEFF 		bl	CyBle_GappStartAdvertisement
 206              	.LVL12:
 144:.\main.c      ****         case CYBLE_EVT_HARDWARE_ERROR:    /* This event indicates that some internal HW error has o
 207              		.loc 1 144 0
 208 0016 32E0     		b	.L8
 209              	.LVL13:
 210              	.L13:
 177:.\main.c      ****             {
 211              		.loc 1 177 0
 212 0018 4B88     		ldrh	r3, [r1, #2]
 213 001a 062B     		cmp	r3, #6
 214 001c 2FD9     		bls	.L8
 180:.\main.c      ****                 connUpdateParam.connIntvMax   = 0x0006u;
 215              		.loc 1 180 0
 216 001e 0623     		mov	r3, #6
 217 0020 6A46     		mov	r2, sp
 218 0022 1380     		strh	r3, [r2]
 181:.\main.c      ****                 connUpdateParam.connLatency   = 0x0000u;
 219              		.loc 1 181 0
 220 0024 5380     		strh	r3, [r2, #2]
 182:.\main.c      ****                 connUpdateParam.supervisionTO = 0x0064u;
 221              		.loc 1 182 0
 222 0026 0023     		mov	r3, #0
 223 0028 9380     		strh	r3, [r2, #4]
 183:.\main.c      ****                 apiResult = CyBle_L2capLeConnectionParamUpdateRequest(cyBle_connHandle.bdHandle, &c
 224              		.loc 1 183 0
 225 002a 6433     		add	r3, r3, #100
 226 002c D380     		strh	r3, [r2, #6]
ARM GAS  C:\Users\ADMINI~1\AppData\Local\Temp\ccKPHsmG.s 			page 11


 184:.\main.c      **** //                DBG_PRINTF("CyBle_L2capLeConnectionParamUpdateRequest API: 0x%2.2x \r\n", apiResu
 227              		.loc 1 184 0
 228 002e 164B     		ldr	r3, .L19+4
 229 0030 1878     		ldrb	r0, [r3]
 230 0032 6946     		mov	r1, sp
 231              	.LVL14:
 232 0034 FFF7FEFF 		bl	CyBle_L2capLeConnectionParamUpdateRequest
 233              	.LVL15:
 234 0038 21E0     		b	.L8
 235              	.LVL16:
 236              	.L14:
 191:.\main.c      ****             if(apiResult != CYBLE_ERROR_OK)
 237              		.loc 1 191 0
 238 003a 0020     		mov	r0, #0
 239 003c FFF7FEFF 		bl	CyBle_GappStartAdvertisement
 240              	.LVL17:
 196:.\main.c      ****         case CYBLE_EVT_GAP_ENCRYPT_CHANGE:
 241              		.loc 1 196 0
 242 0040 1DE0     		b	.L8
 243              	.LVL18:
 244              	.L15:
 198:.\main.c      ****             break;
 245              		.loc 1 198 0
 246 0042 0978     		ldrb	r1, [r1]
 247              	.LVL19:
 248 0044 1148     		ldr	r0, .L19+8
 249 0046 FFF7FEFF 		bl	printf
 250              	.LVL20:
 199:.\main.c      ****         case CYBLE_EVT_GAPC_CONNECTION_UPDATE_COMPLETE:
 251              		.loc 1 199 0
 252 004a 18E0     		b	.L8
 253              	.LVL21:
 254              	.L12:
 204:.\main.c      ****             {   
 255              		.loc 1 204 0
 256 004c 104B     		ldr	r3, .L19+12
 257 004e 1B78     		ldrb	r3, [r3]
 258 0050 042B     		cmp	r3, #4
 259 0052 14D1     		bne	.L8
 213:.\main.c      ****                 Wakeup_Interrupt_ClearPending();
 260              		.loc 1 213 0
 261 0054 FFF7FEFF 		bl	Bootloader_Service_Activation_ClearInterrupt
 262              	.LVL22:
 214:.\main.c      ****                 Wakeup_Interrupt_Start();
 263              		.loc 1 214 0
 264 0058 FFF7FEFF 		bl	Wakeup_Interrupt_ClearPending
 265              	.LVL23:
 215:.\main.c      ****                 CySysPmHibernate();
 266              		.loc 1 215 0
 267 005c FFF7FEFF 		bl	Wakeup_Interrupt_Start
 268              	.LVL24:
 216:.\main.c      ****             }
 269              		.loc 1 216 0
 270 0060 FFF7FEFF 		bl	CySysPmHibernate
 271              	.LVL25:
 272 0064 0BE0     		b	.L8
 273              	.LVL26:
ARM GAS  C:\Users\ADMINI~1\AppData\Local\Temp\ccKPHsmG.s 			page 12


 274              	.L16:
 225:.\main.c      ****             break;
 275              		.loc 1 225 0
 276 0066 0B48     		ldr	r0, .L19+16
 277 0068 0222     		mov	r2, #2
 278 006a FFF7FEFF 		bl	memcpy
 279              	.LVL27:
 226:.\main.c      ****         case CYBLE_EVT_GATT_DISCONNECT_IND:
 280              		.loc 1 226 0
 281 006e 06E0     		b	.L8
 282              	.LVL28:
 283              	.L17:
 228:.\main.c      ****             break;
 284              		.loc 1 228 0
 285 0070 0022     		mov	r2, #0
 286 0072 084B     		ldr	r3, .L19+16
 287 0074 1A70     		strb	r2, [r3]
 229:.\main.c      ****         case CYBLE_EVT_GATTS_WRITE_CMD_REQ:
 288              		.loc 1 229 0
 289 0076 02E0     		b	.L8
 290              	.L18:
 234:.\main.c      ****             break;
 291              		.loc 1 234 0
 292 0078 0020     		mov	r0, #0
 293 007a FFF7FEFF 		bl	CyBle_GattsPrepWriteReqSupport
 294              	.LVL29:
 295              	.L8:
 241:.\main.c      **** 
 296              		.loc 1 241 0
 297 007e 03B0     		add	sp, sp, #12
 298              		@ sp needed
 299 0080 00BD     		pop	{pc}
 300              	.L20:
 301 0082 C046     		.align	2
 302              	.L19:
 303 0084 00000000 		.word	.L11
 304 0088 00000000 		.word	cyBle_connHandle
 305 008c 00000000 		.word	.LC3
 306 0090 00000000 		.word	cyBle_state
 307 0094 00000000 		.word	connHandle
 308              		.cfi_endproc
 309              	.LFE38:
 310              		.size	AppCallBack, .-AppCallBack
 311              		.section	.text.WriteAttrServChanged,"ax",%progbits
 312              		.align	2
 313              		.global	WriteAttrServChanged
 314              		.code	16
 315              		.thumb_func
 316              		.type	WriteAttrServChanged, %function
 317              	WriteAttrServChanged:
 318              	.LFB39:
 259:.\main.c      ****     uint32 value;
 319              		.loc 1 259 0
 320              		.cfi_startproc
 321 0000 00B5     		push	{lr}
 322              		.cfi_def_cfa_offset 4
 323              		.cfi_offset 14, -4
ARM GAS  C:\Users\ADMINI~1\AppData\Local\Temp\ccKPHsmG.s 			page 13


 324 0002 85B0     		sub	sp, sp, #20
 325              		.cfi_def_cfa_offset 24
 264:.\main.c      ****         ((uint32) (cyBle_btss.btServiceInfo[0u].btServiceCharDescriptors[0u]));
 326              		.loc 1 264 0
 327 0004 0A4A     		ldr	r2, .L22
 328 0006 1388     		ldrh	r3, [r2]
 329 0008 1B04     		lsl	r3, r3, #16
 265:.\main.c      **** 
 330              		.loc 1 265 0
 331 000a 9288     		ldrh	r2, [r2, #4]
 264:.\main.c      ****         ((uint32) (cyBle_btss.btServiceInfo[0u].btServiceCharDescriptors[0u]));
 332              		.loc 1 264 0
 333 000c 1343     		orr	r3, r2
 334 000e 0393     		str	r3, [sp, #12]
 267:.\main.c      ****     handleValuePair.value.len = sizeof(value);
 335              		.loc 1 267 0
 336 0010 03AB     		add	r3, sp, #12
 337 0012 0093     		str	r3, [sp]
 268:.\main.c      **** 
 338              		.loc 1 268 0
 339 0014 0423     		mov	r3, #4
 340 0016 6A46     		mov	r2, sp
 341 0018 9380     		strh	r3, [r2, #4]
 270:.\main.c      ****     CyBle_GattsWriteAttributeValue(&handleValuePair, 0u, NULL,CYBLE_GATT_DB_LOCALLY_INITIATED);
 342              		.loc 1 270 0
 343 001a 064B     		ldr	r3, .L22+4
 344 001c 5B88     		ldrh	r3, [r3, #2]
 345 001e 1381     		strh	r3, [r2, #8]
 271:.\main.c      **** }
 346              		.loc 1 271 0
 347 0020 6846     		mov	r0, sp
 348 0022 0021     		mov	r1, #0
 349 0024 0022     		mov	r2, #0
 350 0026 0023     		mov	r3, #0
 351 0028 FFF7FEFF 		bl	CyBle_GattsWriteAttributeValue
 352              	.LVL30:
 272:.\main.c      **** 
 353              		.loc 1 272 0
 354 002c 05B0     		add	sp, sp, #20
 355              		@ sp needed
 356 002e 00BD     		pop	{pc}
 357              	.L23:
 358              		.align	2
 359              	.L22:
 360 0030 00000000 		.word	cyBle_btss
 361 0034 00000000 		.word	cyBle_gatts
 362              		.cfi_endproc
 363              	.LFE39:
 364              		.size	WriteAttrServChanged, .-WriteAttrServChanged
 365              		.section	.text.main,"ax",%progbits
 366              		.align	2
 367              		.global	main
 368              		.code	16
 369              		.thumb_func
 370              		.type	main, %function
 371              	main:
 372              	.LFB37:
ARM GAS  C:\Users\ADMINI~1\AppData\Local\Temp\ccKPHsmG.s 			page 14


  56:.\main.c      ****     const char8 serialNumber[] = "123456";
 373              		.loc 1 56 0
 374              		.cfi_startproc
 375 0000 00B5     		push	{lr}
 376              		.cfi_def_cfa_offset 4
 377              		.cfi_offset 14, -4
 378 0002 83B0     		sub	sp, sp, #12
 379              		.cfi_def_cfa_offset 16
  57:.\main.c      ****     
 380              		.loc 1 57 0
 381 0004 124B     		ldr	r3, .L26
 382 0006 1A68     		ldr	r2, [r3]
 383 0008 0092     		str	r2, [sp]
 384 000a 9A88     		ldrh	r2, [r3, #4]
 385 000c 6946     		mov	r1, sp
 386 000e 8A80     		strh	r2, [r1, #4]
 387 0010 9B79     		ldrb	r3, [r3, #6]
 388 0012 8B71     		strb	r3, [r1, #6]
  65:.\main.c      **** //    UART_Start();
 389              		.loc 1 65 0
 390 0014 0022     		mov	r2, #0
 391 0016 0F4B     		ldr	r3, .L26+4
 392 0018 1A60     		str	r2, [r3]
  76:.\main.c      **** 
 393              		.loc 1 76 0
 394              	@ 76 ".\main.c" 1
 395 001a 62B6     		CPSIE   i
 396              	@ 0 "" 2
  83:.\main.c      ****     
 397              		.loc 1 83 0
 398              		.code	16
 399 001c 0E48     		ldr	r0, .L26+8
 400 001e FFF7FEFF 		bl	CyBle_Start
 401              	.LVL31:
  86:.\main.c      **** 
 402              		.loc 1 86 0
 403 0022 0220     		mov	r0, #2
 404 0024 0721     		mov	r1, #7
 405 0026 6A46     		mov	r2, sp
 406 0028 FFF7FEFF 		bl	CyBle_DissSetCharacteristicValue
 407              	.LVL32:
  89:.\main.c      ****     CyBle_GattsDisableAttribute(cyBle_bass[0].serviceHandle);
 408              		.loc 1 89 0
 409 002c 0B4B     		ldr	r3, .L26+12
 410 002e 1888     		ldrh	r0, [r3]
 411 0030 FFF7FEFF 		bl	CyBle_GattsDisableAttribute
 412              	.LVL33:
  90:.\main.c      ****     //CyBle_GattsDisableAttribute(cyBle_scpss.serviceHandle);
 413              		.loc 1 90 0
 414 0034 0A4B     		ldr	r3, .L26+16
 415 0036 1888     		ldrh	r0, [r3]
 416 0038 FFF7FEFF 		bl	CyBle_GattsDisableAttribute
 417              	.LVL34:
  94:.\main.c      ****     
 418              		.loc 1 94 0
 419 003c FFF7FEFF 		bl	WriteAttrServChanged
 420              	.LVL35:
ARM GAS  C:\Users\ADMINI~1\AppData\Local\Temp\ccKPHsmG.s 			page 15


 421              	.L25:
 101:.\main.c      **** 
 422              		.loc 1 101 0 discriminator 1
 423 0040 FFF7FEFF 		bl	CyBle_ProcessEvents
 424              	.LVL36:
 104:.\main.c      **** 
 425              		.loc 1 104 0 discriminator 1
 426 0044 FFF7FEFF 		bl	LowPowerImplementation
 427              	.LVL37:
 109:.\main.c      ****     }
 428              		.loc 1 109 0 discriminator 1
 429 0048 FFF7FEFF 		bl	Bootloader_Start
 430              	.LVL38:
 110:.\main.c      **** }
 431              		.loc 1 110 0 discriminator 1
 432 004c F8E7     		b	.L25
 433              	.L27:
 434 004e C046     		.align	2
 435              	.L26:
 436 0050 24000000 		.word	.LC9
 437 0054 00000000 		.word	packetRXFlag
 438 0058 00000000 		.word	AppCallBack
 439 005c 00000000 		.word	cyBle_diss
 440 0060 00000000 		.word	cyBle_bass
 441              		.cfi_endproc
 442              	.LFE37:
 443              		.size	main, .-main
 444              		.comm	connHandle,2,4
 445              		.section	.rodata.str1.4,"aMS",%progbits,1
 446              		.align	2
 447              	.LC3:
 448 0000 4359424C 		.ascii	"CYBLE_EVT_GAP_ENCRYPT_CHANGE: %x \015\012\000"
 448      455F4556 
 448      545F4741 
 448      505F454E 
 448      43525950 
 449              	.LC9:
 450 0024 31323334 		.ascii	"123456\000"
 450      353600
 451 002b 00       		.text
 452              	.Letext0:
 453              		.file 2 "Generated_Source\\PSoC4/cytypes.h"
 454              		.file 3 "Generated_Source\\PSoC4/CyBle_Stack.h"
 455              		.file 4 "Generated_Source\\PSoC4/CyBle_StackGap.h"
 456              		.file 5 "Generated_Source\\PSoC4/CyBle_StackGatt.h"
 457              		.file 6 "Generated_Source\\PSoC4/CyBle.h"
 458              		.file 7 "Generated_Source\\PSoC4/CyBle_gatt.h"
 459              		.file 8 "Generated_Source\\PSoC4/CyBle_bas.h"
 460              		.file 9 "Generated_Source\\PSoC4/CyBle_bts.h"
 461              		.file 10 "Generated_Source\\PSoC4/CyBle_dis.h"
 462              		.file 11 "Generated_Source\\PSoC4/CyBle_eventHandler.h"
 463              		.file 12 ".\\OTAMandatory.h"
 464              		.file 13 "Generated_Source\\PSoC4/CyLib.h"
 465              		.file 14 "Generated_Source\\PSoC4/cyPm.h"
 466              		.file 15 "Generated_Source\\PSoC4/CyBle_StackL2cap.h"
 467              		.file 16 "c:\\program files (x86)\\cypress\\psoc creator\\3.3\\psoc creator\\import\\gnu\\arm\\4.9
 468              		.file 17 "Generated_Source\\PSoC4/Bootloader_Service_Activation.h"
ARM GAS  C:\Users\ADMINI~1\AppData\Local\Temp\ccKPHsmG.s 			page 16


 469              		.file 18 "Generated_Source\\PSoC4/Wakeup_Interrupt.h"
 470              		.file 19 "Generated_Source\\PSoC4/CyBle_StackGattServer.h"
 471              		.file 20 "Generated_Source\\PSoC4/CyBle_StackGattDb.h"
 472              		.file 21 "Generated_Source\\PSoC4/Bootloader.h"